ARM GAS  C:\Users\Phuong\AppData\Local\Temp\cczg95Bp.s 			page 1


   1              		.syntax unified
   2              		.cpu cortex-m0plus
   3              		.fpu softvfp
   4              		.eabi_attribute 20, 1
   5              		.eabi_attribute 21, 1
   6              		.eabi_attribute 23, 3
   7              		.eabi_attribute 24, 1
   8              		.eabi_attribute 25, 1
   9              		.eabi_attribute 26, 1
  10              		.eabi_attribute 30, 1
  11              		.eabi_attribute 34, 0
  12              		.eabi_attribute 18, 4
  13              		.thumb
  14              		.syntax unified
  15              		.file	"tcp.c"
  16              		.text
  17              	.Ltext0:
  18              		.cfi_sections	.debug_frame
  19              		.section	.text.tcp_remove_listener,"ax",%progbits
  20              		.align	2
  21              		.code	16
  22              		.thumb_func
  23              		.type	tcp_remove_listener, %function
  24              	tcp_remove_listener:
  25              	.LFB55:
  26              		.file 1 "Source\\LwIP\\src\\core\\tcp.c"
   1:Source\LwIP\src\core/tcp.c **** /**
   2:Source\LwIP\src\core/tcp.c ****  * @file 
   3:Source\LwIP\src\core/tcp.c ****  * Transmission Control Protocol for IP
   4:Source\LwIP\src\core/tcp.c ****  * See also @ref tcp_raw
   5:Source\LwIP\src\core/tcp.c ****  *
   6:Source\LwIP\src\core/tcp.c ****  * @defgroup tcp_raw TCP
   7:Source\LwIP\src\core/tcp.c ****  * @ingroup callbackstyle_api
   8:Source\LwIP\src\core/tcp.c ****  * Transmission Control Protocol for IP\n
   9:Source\LwIP\src\core/tcp.c ****  * @see @ref raw_api and @ref netconn
  10:Source\LwIP\src\core/tcp.c ****  *
  11:Source\LwIP\src\core/tcp.c ****  * Common functions for the TCP implementation, such as functinos
  12:Source\LwIP\src\core/tcp.c ****  * for manipulating the data structures and the TCP timer functions. TCP functions
  13:Source\LwIP\src\core/tcp.c ****  * related to input and output is found in tcp_in.c and tcp_out.c respectively.\n
  14:Source\LwIP\src\core/tcp.c ****  */
  15:Source\LwIP\src\core/tcp.c **** 
  16:Source\LwIP\src\core/tcp.c **** /*
  17:Source\LwIP\src\core/tcp.c ****  * Copyright (c) 2001-2004 Swedish Institute of Computer Science.
  18:Source\LwIP\src\core/tcp.c ****  * All rights reserved.
  19:Source\LwIP\src\core/tcp.c ****  *
  20:Source\LwIP\src\core/tcp.c ****  * Redistribution and use in source and binary forms, with or without modification,
  21:Source\LwIP\src\core/tcp.c ****  * are permitted provided that the following conditions are met:
  22:Source\LwIP\src\core/tcp.c ****  *
  23:Source\LwIP\src\core/tcp.c ****  * 1. Redistributions of source code must retain the above copyright notice,
  24:Source\LwIP\src\core/tcp.c ****  *    this list of conditions and the following disclaimer.
  25:Source\LwIP\src\core/tcp.c ****  * 2. Redistributions in binary form must reproduce the above copyright notice,
  26:Source\LwIP\src\core/tcp.c ****  *    this list of conditions and the following disclaimer in the documentation
  27:Source\LwIP\src\core/tcp.c ****  *    and/or other materials provided with the distribution.
  28:Source\LwIP\src\core/tcp.c ****  * 3. The name of the author may not be used to endorse or promote products
  29:Source\LwIP\src\core/tcp.c ****  *    derived from this software without specific prior written permission.
  30:Source\LwIP\src\core/tcp.c ****  *
  31:Source\LwIP\src\core/tcp.c ****  * THIS SOFTWARE IS PROVIDED BY THE AUTHOR ``AS IS'' AND ANY EXPRESS OR IMPLIED
ARM GAS  C:\Users\Phuong\AppData\Local\Temp\cczg95Bp.s 			page 2


  32:Source\LwIP\src\core/tcp.c ****  * WARRANTIES, INCLUDING, BUT NOT LIMITED TO, THE IMPLIED WARRANTIES OF
  33:Source\LwIP\src\core/tcp.c ****  * MERCHANTABILITY AND FITNESS FOR A PARTICULAR PURPOSE ARE DISCLAIMED. IN NO EVENT
  34:Source\LwIP\src\core/tcp.c ****  * SHALL THE AUTHOR BE LIABLE FOR ANY DIRECT, INDIRECT, INCIDENTAL, SPECIAL,
  35:Source\LwIP\src\core/tcp.c ****  * EXEMPLARY, OR CONSEQUENTIAL DAMAGES (INCLUDING, BUT NOT LIMITED TO, PROCUREMENT
  36:Source\LwIP\src\core/tcp.c ****  * OF SUBSTITUTE GOODS OR SERVICES; LOSS OF USE, DATA, OR PROFITS; OR BUSINESS
  37:Source\LwIP\src\core/tcp.c ****  * INTERRUPTION) HOWEVER CAUSED AND ON ANY THEORY OF LIABILITY, WHETHER IN
  38:Source\LwIP\src\core/tcp.c ****  * CONTRACT, STRICT LIABILITY, OR TORT (INCLUDING NEGLIGENCE OR OTHERWISE) ARISING
  39:Source\LwIP\src\core/tcp.c ****  * IN ANY WAY OUT OF THE USE OF THIS SOFTWARE, EVEN IF ADVISED OF THE POSSIBILITY
  40:Source\LwIP\src\core/tcp.c ****  * OF SUCH DAMAGE.
  41:Source\LwIP\src\core/tcp.c ****  *
  42:Source\LwIP\src\core/tcp.c ****  * This file is part of the lwIP TCP/IP stack.
  43:Source\LwIP\src\core/tcp.c ****  *
  44:Source\LwIP\src\core/tcp.c ****  * Author: Adam Dunkels <adam@sics.se>
  45:Source\LwIP\src\core/tcp.c ****  *
  46:Source\LwIP\src\core/tcp.c ****  */
  47:Source\LwIP\src\core/tcp.c **** 
  48:Source\LwIP\src\core/tcp.c **** #include "lwip/opt.h"
  49:Source\LwIP\src\core/tcp.c **** 
  50:Source\LwIP\src\core/tcp.c **** #if LWIP_TCP /* don't build if not configured for use in lwipopts.h */
  51:Source\LwIP\src\core/tcp.c **** 
  52:Source\LwIP\src\core/tcp.c **** #include "lwip/def.h"
  53:Source\LwIP\src\core/tcp.c **** #include "lwip/mem.h"
  54:Source\LwIP\src\core/tcp.c **** #include "lwip/memp.h"
  55:Source\LwIP\src\core/tcp.c **** #include "lwip/tcp.h"
  56:Source\LwIP\src\core/tcp.c **** #include "lwip/priv/tcp_priv.h"
  57:Source\LwIP\src\core/tcp.c **** #include "lwip/debug.h"
  58:Source\LwIP\src\core/tcp.c **** #include "lwip/stats.h"
  59:Source\LwIP\src\core/tcp.c **** #include "lwip/ip6.h"
  60:Source\LwIP\src\core/tcp.c **** #include "lwip/ip6_addr.h"
  61:Source\LwIP\src\core/tcp.c **** #include "lwip/nd6.h"
  62:Source\LwIP\src\core/tcp.c **** 
  63:Source\LwIP\src\core/tcp.c **** #include <string.h>
  64:Source\LwIP\src\core/tcp.c **** 
  65:Source\LwIP\src\core/tcp.c **** #ifdef LWIP_HOOK_FILENAME
  66:Source\LwIP\src\core/tcp.c **** #include LWIP_HOOK_FILENAME
  67:Source\LwIP\src\core/tcp.c **** #endif
  68:Source\LwIP\src\core/tcp.c **** 
  69:Source\LwIP\src\core/tcp.c **** #ifndef TCP_LOCAL_PORT_RANGE_START
  70:Source\LwIP\src\core/tcp.c **** /* From http://www.iana.org/assignments/port-numbers:
  71:Source\LwIP\src\core/tcp.c ****    "The Dynamic and/or Private Ports are those from 49152 through 65535" */
  72:Source\LwIP\src\core/tcp.c **** #define TCP_LOCAL_PORT_RANGE_START        0xc000
  73:Source\LwIP\src\core/tcp.c **** #define TCP_LOCAL_PORT_RANGE_END          0xffff
  74:Source\LwIP\src\core/tcp.c **** #define TCP_ENSURE_LOCAL_PORT_RANGE(port) ((u16_t)(((port) & ~TCP_LOCAL_PORT_RANGE_START) + TCP_LOC
  75:Source\LwIP\src\core/tcp.c **** #endif
  76:Source\LwIP\src\core/tcp.c **** 
  77:Source\LwIP\src\core/tcp.c **** #if LWIP_TCP_KEEPALIVE
  78:Source\LwIP\src\core/tcp.c **** #define TCP_KEEP_DUR(pcb)   ((pcb)->keep_cnt * (pcb)->keep_intvl)
  79:Source\LwIP\src\core/tcp.c **** #define TCP_KEEP_INTVL(pcb) ((pcb)->keep_intvl)
  80:Source\LwIP\src\core/tcp.c **** #else /* LWIP_TCP_KEEPALIVE */
  81:Source\LwIP\src\core/tcp.c **** #define TCP_KEEP_DUR(pcb)   TCP_MAXIDLE
  82:Source\LwIP\src\core/tcp.c **** #define TCP_KEEP_INTVL(pcb) TCP_KEEPINTVL_DEFAULT
  83:Source\LwIP\src\core/tcp.c **** #endif /* LWIP_TCP_KEEPALIVE */
  84:Source\LwIP\src\core/tcp.c **** 
  85:Source\LwIP\src\core/tcp.c **** /* As initial send MSS, we use TCP_MSS but limit it to 536. */
  86:Source\LwIP\src\core/tcp.c **** #if TCP_MSS > 536
  87:Source\LwIP\src\core/tcp.c **** #define INITIAL_MSS 536
  88:Source\LwIP\src\core/tcp.c **** #else
ARM GAS  C:\Users\Phuong\AppData\Local\Temp\cczg95Bp.s 			page 3


  89:Source\LwIP\src\core/tcp.c **** #define INITIAL_MSS TCP_MSS
  90:Source\LwIP\src\core/tcp.c **** #endif
  91:Source\LwIP\src\core/tcp.c **** 
  92:Source\LwIP\src\core/tcp.c **** static const char * const tcp_state_str[] = {
  93:Source\LwIP\src\core/tcp.c ****   "CLOSED",
  94:Source\LwIP\src\core/tcp.c ****   "LISTEN",
  95:Source\LwIP\src\core/tcp.c ****   "SYN_SENT",
  96:Source\LwIP\src\core/tcp.c ****   "SYN_RCVD",
  97:Source\LwIP\src\core/tcp.c ****   "ESTABLISHED",
  98:Source\LwIP\src\core/tcp.c ****   "FIN_WAIT_1",
  99:Source\LwIP\src\core/tcp.c ****   "FIN_WAIT_2",
 100:Source\LwIP\src\core/tcp.c ****   "CLOSE_WAIT",
 101:Source\LwIP\src\core/tcp.c ****   "CLOSING",
 102:Source\LwIP\src\core/tcp.c ****   "LAST_ACK",
 103:Source\LwIP\src\core/tcp.c ****   "TIME_WAIT"
 104:Source\LwIP\src\core/tcp.c **** };
 105:Source\LwIP\src\core/tcp.c **** 
 106:Source\LwIP\src\core/tcp.c **** /* last local TCP port */
 107:Source\LwIP\src\core/tcp.c **** static u16_t tcp_port = TCP_LOCAL_PORT_RANGE_START;
 108:Source\LwIP\src\core/tcp.c **** 
 109:Source\LwIP\src\core/tcp.c **** /* Incremented every coarse grained timer shot (typically every 500 ms). */
 110:Source\LwIP\src\core/tcp.c **** u32_t tcp_ticks;
 111:Source\LwIP\src\core/tcp.c **** static const u8_t tcp_backoff[13] =
 112:Source\LwIP\src\core/tcp.c ****     { 1, 2, 3, 4, 5, 6, 7, 7, 7, 7, 7, 7, 7};
 113:Source\LwIP\src\core/tcp.c ****  /* Times per slowtmr hits */
 114:Source\LwIP\src\core/tcp.c **** static const u8_t tcp_persist_backoff[7] = { 3, 6, 12, 24, 48, 96, 120 };
 115:Source\LwIP\src\core/tcp.c **** 
 116:Source\LwIP\src\core/tcp.c **** /* The TCP PCB lists. */
 117:Source\LwIP\src\core/tcp.c **** 
 118:Source\LwIP\src\core/tcp.c **** /** List of all TCP PCBs bound but not yet (connected || listening) */
 119:Source\LwIP\src\core/tcp.c **** struct tcp_pcb *tcp_bound_pcbs;
 120:Source\LwIP\src\core/tcp.c **** /** List of all TCP PCBs in LISTEN state */
 121:Source\LwIP\src\core/tcp.c **** union tcp_listen_pcbs_t tcp_listen_pcbs;
 122:Source\LwIP\src\core/tcp.c **** /** List of all TCP PCBs that are in a state in which
 123:Source\LwIP\src\core/tcp.c ****  * they accept or send data. */
 124:Source\LwIP\src\core/tcp.c **** struct tcp_pcb *tcp_active_pcbs;
 125:Source\LwIP\src\core/tcp.c **** /** List of all TCP PCBs in TIME-WAIT state */
 126:Source\LwIP\src\core/tcp.c **** struct tcp_pcb *tcp_tw_pcbs;
 127:Source\LwIP\src\core/tcp.c **** 
 128:Source\LwIP\src\core/tcp.c **** /** An array with all (non-temporary) PCB lists, mainly used for smaller code size */
 129:Source\LwIP\src\core/tcp.c **** struct tcp_pcb ** const tcp_pcb_lists[] = {&tcp_listen_pcbs.pcbs, &tcp_bound_pcbs,
 130:Source\LwIP\src\core/tcp.c ****   &tcp_active_pcbs, &tcp_tw_pcbs};
 131:Source\LwIP\src\core/tcp.c **** 
 132:Source\LwIP\src\core/tcp.c **** u8_t tcp_active_pcbs_changed;
 133:Source\LwIP\src\core/tcp.c **** 
 134:Source\LwIP\src\core/tcp.c **** /** Timer counter to handle calling slow-timer from tcp_tmr() */
 135:Source\LwIP\src\core/tcp.c **** static u8_t tcp_timer;
 136:Source\LwIP\src\core/tcp.c **** static u8_t tcp_timer_ctr;
 137:Source\LwIP\src\core/tcp.c **** static u16_t tcp_new_port(void);
 138:Source\LwIP\src\core/tcp.c **** 
 139:Source\LwIP\src\core/tcp.c **** static err_t tcp_close_shutdown_fin(struct tcp_pcb *pcb);
 140:Source\LwIP\src\core/tcp.c **** 
 141:Source\LwIP\src\core/tcp.c **** /**
 142:Source\LwIP\src\core/tcp.c ****  * Initialize this module.
 143:Source\LwIP\src\core/tcp.c ****  */
 144:Source\LwIP\src\core/tcp.c **** void
 145:Source\LwIP\src\core/tcp.c **** tcp_init(void)
ARM GAS  C:\Users\Phuong\AppData\Local\Temp\cczg95Bp.s 			page 4


 146:Source\LwIP\src\core/tcp.c **** {
 147:Source\LwIP\src\core/tcp.c **** #if LWIP_RANDOMIZE_INITIAL_LOCAL_PORTS && defined(LWIP_RAND)
 148:Source\LwIP\src\core/tcp.c ****   tcp_port = TCP_ENSURE_LOCAL_PORT_RANGE(LWIP_RAND());
 149:Source\LwIP\src\core/tcp.c **** #endif /* LWIP_RANDOMIZE_INITIAL_LOCAL_PORTS && defined(LWIP_RAND) */
 150:Source\LwIP\src\core/tcp.c **** }
 151:Source\LwIP\src\core/tcp.c **** 
 152:Source\LwIP\src\core/tcp.c **** /**
 153:Source\LwIP\src\core/tcp.c ****  * Called periodically to dispatch TCP timers.
 154:Source\LwIP\src\core/tcp.c ****  */
 155:Source\LwIP\src\core/tcp.c **** void
 156:Source\LwIP\src\core/tcp.c **** tcp_tmr(void)
 157:Source\LwIP\src\core/tcp.c **** {
 158:Source\LwIP\src\core/tcp.c ****   /* Call tcp_fasttmr() every 250 ms */
 159:Source\LwIP\src\core/tcp.c ****   tcp_fasttmr();
 160:Source\LwIP\src\core/tcp.c **** 
 161:Source\LwIP\src\core/tcp.c ****   if (++tcp_timer & 1) {
 162:Source\LwIP\src\core/tcp.c ****     /* Call tcp_slowtmr() every 500 ms, i.e., every other timer
 163:Source\LwIP\src\core/tcp.c ****        tcp_tmr() is called. */
 164:Source\LwIP\src\core/tcp.c ****     tcp_slowtmr();
 165:Source\LwIP\src\core/tcp.c ****   }
 166:Source\LwIP\src\core/tcp.c **** }
 167:Source\LwIP\src\core/tcp.c **** 
 168:Source\LwIP\src\core/tcp.c **** #if LWIP_CALLBACK_API || TCP_LISTEN_BACKLOG
 169:Source\LwIP\src\core/tcp.c **** /** Called when a listen pcb is closed. Iterates one pcb list and removes the
 170:Source\LwIP\src\core/tcp.c ****  * closed listener pcb from pcb->listener if matching.
 171:Source\LwIP\src\core/tcp.c ****  */
 172:Source\LwIP\src\core/tcp.c **** static void
 173:Source\LwIP\src\core/tcp.c **** tcp_remove_listener(struct tcp_pcb *list, struct tcp_pcb_listen *lpcb)
 174:Source\LwIP\src\core/tcp.c **** {
  27              		.loc 1 174 0
  28              		.cfi_startproc
  29              		@ args = 0, pretend = 0, frame = 0
  30              		@ frame_needed = 0, uses_anonymous_args = 0
  31              		@ link register save eliminated.
  32              	.LVL0:
 175:Source\LwIP\src\core/tcp.c ****    struct tcp_pcb *pcb;
 176:Source\LwIP\src\core/tcp.c ****    for (pcb = list; pcb != NULL; pcb = pcb->next) {
  33              		.loc 1 176 0
  34 0000 05E0     		b	.L2
  35              	.LVL1:
  36              	.L4:
 177:Source\LwIP\src\core/tcp.c ****       if (pcb->listener == lpcb) {
  37              		.loc 1 177 0
  38 0002 836F     		ldr	r3, [r0, #120]
  39 0004 8B42     		cmp	r3, r1
  40 0006 01D1     		bne	.L3
 178:Source\LwIP\src\core/tcp.c ****          pcb->listener = NULL;
  41              		.loc 1 178 0
  42 0008 0023     		movs	r3, #0
  43 000a 8367     		str	r3, [r0, #120]
  44              	.L3:
 176:Source\LwIP\src\core/tcp.c ****       if (pcb->listener == lpcb) {
  45              		.loc 1 176 0 discriminator 2
  46 000c C068     		ldr	r0, [r0, #12]
  47              	.LVL2:
  48              	.L2:
 176:Source\LwIP\src\core/tcp.c ****       if (pcb->listener == lpcb) {
ARM GAS  C:\Users\Phuong\AppData\Local\Temp\cczg95Bp.s 			page 5


  49              		.loc 1 176 0 is_stmt 0 discriminator 1
  50 000e 0028     		cmp	r0, #0
  51 0010 F7D1     		bne	.L4
 179:Source\LwIP\src\core/tcp.c ****       }
 180:Source\LwIP\src\core/tcp.c ****    }
 181:Source\LwIP\src\core/tcp.c **** }
  52              		.loc 1 181 0 is_stmt 1
  53              		@ sp needed
  54 0012 7047     		bx	lr
  55              		.cfi_endproc
  56              	.LFE55:
  57              		.size	tcp_remove_listener, .-tcp_remove_listener
  58              		.section	.text.tcp_listen_closed,"ax",%progbits
  59              		.align	2
  60              		.code	16
  61              		.thumb_func
  62              		.type	tcp_listen_closed, %function
  63              	tcp_listen_closed:
  64              	.LFB56:
 182:Source\LwIP\src\core/tcp.c **** #endif
 183:Source\LwIP\src\core/tcp.c **** 
 184:Source\LwIP\src\core/tcp.c **** /** Called when a listen pcb is closed. Iterates all pcb lists and removes the
 185:Source\LwIP\src\core/tcp.c ****  * closed listener pcb from pcb->listener if matching.
 186:Source\LwIP\src\core/tcp.c ****  */
 187:Source\LwIP\src\core/tcp.c **** static void
 188:Source\LwIP\src\core/tcp.c **** tcp_listen_closed(struct tcp_pcb *pcb)
 189:Source\LwIP\src\core/tcp.c **** {
  65              		.loc 1 189 0
  66              		.cfi_startproc
  67              		@ args = 0, pretend = 0, frame = 0
  68              		@ frame_needed = 0, uses_anonymous_args = 0
  69              	.LVL3:
  70 0000 70B5     		push	{r4, r5, r6, lr}
  71              		.cfi_def_cfa_offset 16
  72              		.cfi_offset 4, -16
  73              		.cfi_offset 5, -12
  74              		.cfi_offset 6, -8
  75              		.cfi_offset 14, -4
  76 0002 0500     		movs	r5, r0
  77              	.LVL4:
 190:Source\LwIP\src\core/tcp.c **** #if LWIP_CALLBACK_API || TCP_LISTEN_BACKLOG
 191:Source\LwIP\src\core/tcp.c ****   size_t i;
 192:Source\LwIP\src\core/tcp.c ****   LWIP_ASSERT("pcb != NULL", pcb != NULL);
 193:Source\LwIP\src\core/tcp.c ****   LWIP_ASSERT("pcb->state == LISTEN", pcb->state == LISTEN);
 194:Source\LwIP\src\core/tcp.c ****   for (i = 1; i < LWIP_ARRAYSIZE(tcp_pcb_lists); i++) {
  78              		.loc 1 194 0
  79 0004 0124     		movs	r4, #1
  80 0006 07E0     		b	.L6
  81              	.LVL5:
  82              	.L7:
 195:Source\LwIP\src\core/tcp.c ****     tcp_remove_listener(*tcp_pcb_lists[i], (struct tcp_pcb_listen*)pcb);
  83              		.loc 1 195 0 discriminator 3
  84 0008 A200     		lsls	r2, r4, #2
  85 000a 054B     		ldr	r3, .L8
  86 000c D358     		ldr	r3, [r2, r3]
  87 000e 1868     		ldr	r0, [r3]
  88 0010 2900     		movs	r1, r5
ARM GAS  C:\Users\Phuong\AppData\Local\Temp\cczg95Bp.s 			page 6


  89 0012 FFF7FEFF 		bl	tcp_remove_listener
  90              	.LVL6:
 194:Source\LwIP\src\core/tcp.c ****     tcp_remove_listener(*tcp_pcb_lists[i], (struct tcp_pcb_listen*)pcb);
  91              		.loc 1 194 0 discriminator 3
  92 0016 0134     		adds	r4, r4, #1
  93              	.LVL7:
  94              	.L6:
 194:Source\LwIP\src\core/tcp.c ****     tcp_remove_listener(*tcp_pcb_lists[i], (struct tcp_pcb_listen*)pcb);
  95              		.loc 1 194 0 is_stmt 0 discriminator 1
  96 0018 032C     		cmp	r4, #3
  97 001a F5D9     		bls	.L7
 196:Source\LwIP\src\core/tcp.c ****   }
 197:Source\LwIP\src\core/tcp.c **** #endif
 198:Source\LwIP\src\core/tcp.c ****   LWIP_UNUSED_ARG(pcb);
 199:Source\LwIP\src\core/tcp.c **** }
  98              		.loc 1 199 0 is_stmt 1
  99              		@ sp needed
 100              	.LVL8:
 101              	.LVL9:
 102 001c 70BD     		pop	{r4, r5, r6, pc}
 103              	.L9:
 104 001e C046     		.align	2
 105              	.L8:
 106 0020 00000000 		.word	.LANCHOR0
 107              		.cfi_endproc
 108              	.LFE56:
 109              		.size	tcp_listen_closed, .-tcp_listen_closed
 110              		.section	.text.tcp_new_port,"ax",%progbits
 111              		.align	2
 112              		.code	16
 113              		.thumb_func
 114              		.type	tcp_new_port, %function
 115              	tcp_new_port:
 116              	.LFB71:
 200:Source\LwIP\src\core/tcp.c **** 
 201:Source\LwIP\src\core/tcp.c **** #if TCP_LISTEN_BACKLOG
 202:Source\LwIP\src\core/tcp.c **** /** @ingroup tcp_raw
 203:Source\LwIP\src\core/tcp.c ****  * Delay accepting a connection in respect to the listen backlog:
 204:Source\LwIP\src\core/tcp.c ****  * the number of outstanding connections is increased until
 205:Source\LwIP\src\core/tcp.c ****  * tcp_backlog_accepted() is called.
 206:Source\LwIP\src\core/tcp.c ****  *
 207:Source\LwIP\src\core/tcp.c ****  * ATTENTION: the caller is responsible for calling tcp_backlog_accepted()
 208:Source\LwIP\src\core/tcp.c ****  * or else the backlog feature will get out of sync!
 209:Source\LwIP\src\core/tcp.c ****  *
 210:Source\LwIP\src\core/tcp.c ****  * @param pcb the connection pcb which is not fully accepted yet
 211:Source\LwIP\src\core/tcp.c ****  */
 212:Source\LwIP\src\core/tcp.c **** void
 213:Source\LwIP\src\core/tcp.c **** tcp_backlog_delayed(struct tcp_pcb* pcb)
 214:Source\LwIP\src\core/tcp.c **** {
 215:Source\LwIP\src\core/tcp.c ****   LWIP_ASSERT("pcb != NULL", pcb != NULL);
 216:Source\LwIP\src\core/tcp.c ****   if ((pcb->flags & TF_BACKLOGPEND) == 0) {
 217:Source\LwIP\src\core/tcp.c ****     if (pcb->listener != NULL) {
 218:Source\LwIP\src\core/tcp.c ****       pcb->listener->accepts_pending++;
 219:Source\LwIP\src\core/tcp.c ****       LWIP_ASSERT("accepts_pending != 0", pcb->listener->accepts_pending != 0);
 220:Source\LwIP\src\core/tcp.c ****       pcb->flags |= TF_BACKLOGPEND;
 221:Source\LwIP\src\core/tcp.c ****     }
 222:Source\LwIP\src\core/tcp.c ****   }
ARM GAS  C:\Users\Phuong\AppData\Local\Temp\cczg95Bp.s 			page 7


 223:Source\LwIP\src\core/tcp.c **** }
 224:Source\LwIP\src\core/tcp.c **** 
 225:Source\LwIP\src\core/tcp.c **** /** @ingroup tcp_raw
 226:Source\LwIP\src\core/tcp.c ****  * A delayed-accept a connection is accepted (or closed/aborted): decreases
 227:Source\LwIP\src\core/tcp.c ****  * the number of outstanding connections after calling tcp_backlog_delayed().
 228:Source\LwIP\src\core/tcp.c ****  *
 229:Source\LwIP\src\core/tcp.c ****  * ATTENTION: the caller is responsible for calling tcp_backlog_accepted()
 230:Source\LwIP\src\core/tcp.c ****  * or else the backlog feature will get out of sync!
 231:Source\LwIP\src\core/tcp.c ****  *
 232:Source\LwIP\src\core/tcp.c ****  * @param pcb the connection pcb which is now fully accepted (or closed/aborted)
 233:Source\LwIP\src\core/tcp.c ****  */
 234:Source\LwIP\src\core/tcp.c **** void
 235:Source\LwIP\src\core/tcp.c **** tcp_backlog_accepted(struct tcp_pcb* pcb)
 236:Source\LwIP\src\core/tcp.c **** {
 237:Source\LwIP\src\core/tcp.c ****   LWIP_ASSERT("pcb != NULL", pcb != NULL);
 238:Source\LwIP\src\core/tcp.c ****   if ((pcb->flags & TF_BACKLOGPEND) != 0) {
 239:Source\LwIP\src\core/tcp.c ****     if (pcb->listener != NULL) {
 240:Source\LwIP\src\core/tcp.c ****       LWIP_ASSERT("accepts_pending != 0", pcb->listener->accepts_pending != 0);
 241:Source\LwIP\src\core/tcp.c ****       pcb->listener->accepts_pending--;
 242:Source\LwIP\src\core/tcp.c ****       pcb->flags &= ~TF_BACKLOGPEND;
 243:Source\LwIP\src\core/tcp.c ****     }
 244:Source\LwIP\src\core/tcp.c ****   }
 245:Source\LwIP\src\core/tcp.c **** }
 246:Source\LwIP\src\core/tcp.c **** #endif /* TCP_LISTEN_BACKLOG */
 247:Source\LwIP\src\core/tcp.c **** 
 248:Source\LwIP\src\core/tcp.c **** /**
 249:Source\LwIP\src\core/tcp.c ****  * Closes the TX side of a connection held by the PCB.
 250:Source\LwIP\src\core/tcp.c ****  * For tcp_close(), a RST is sent if the application didn't receive all data
 251:Source\LwIP\src\core/tcp.c ****  * (tcp_recved() not called for all data passed to recv callback).
 252:Source\LwIP\src\core/tcp.c ****  *
 253:Source\LwIP\src\core/tcp.c ****  * Listening pcbs are freed and may not be referenced any more.
 254:Source\LwIP\src\core/tcp.c ****  * Connection pcbs are freed if not yet connected and may not be referenced
 255:Source\LwIP\src\core/tcp.c ****  * any more. If a connection is established (at least SYN received or in
 256:Source\LwIP\src\core/tcp.c ****  * a closing state), the connection is closed, and put in a closing state.
 257:Source\LwIP\src\core/tcp.c ****  * The pcb is then automatically freed in tcp_slowtmr(). It is therefore
 258:Source\LwIP\src\core/tcp.c ****  * unsafe to reference it.
 259:Source\LwIP\src\core/tcp.c ****  *
 260:Source\LwIP\src\core/tcp.c ****  * @param pcb the tcp_pcb to close
 261:Source\LwIP\src\core/tcp.c ****  * @return ERR_OK if connection has been closed
 262:Source\LwIP\src\core/tcp.c ****  *         another err_t if closing failed and pcb is not freed
 263:Source\LwIP\src\core/tcp.c ****  */
 264:Source\LwIP\src\core/tcp.c **** static err_t
 265:Source\LwIP\src\core/tcp.c **** tcp_close_shutdown(struct tcp_pcb *pcb, u8_t rst_on_unacked_data)
 266:Source\LwIP\src\core/tcp.c **** {
 267:Source\LwIP\src\core/tcp.c ****   if (rst_on_unacked_data && ((pcb->state == ESTABLISHED) || (pcb->state == CLOSE_WAIT))) {
 268:Source\LwIP\src\core/tcp.c ****     if ((pcb->refused_data != NULL) || (pcb->rcv_wnd != TCP_WND_MAX(pcb))) {
 269:Source\LwIP\src\core/tcp.c ****       /* Not all data received by application, send RST to tell the remote
 270:Source\LwIP\src\core/tcp.c ****          side about this. */
 271:Source\LwIP\src\core/tcp.c ****       LWIP_ASSERT("pcb->flags & TF_RXCLOSED", pcb->flags & TF_RXCLOSED);
 272:Source\LwIP\src\core/tcp.c **** 
 273:Source\LwIP\src\core/tcp.c ****       /* don't call tcp_abort here: we must not deallocate the pcb since
 274:Source\LwIP\src\core/tcp.c ****          that might not be expected when calling tcp_close */
 275:Source\LwIP\src\core/tcp.c ****       tcp_rst(pcb->snd_nxt, pcb->rcv_nxt, &pcb->local_ip, &pcb->remote_ip,
 276:Source\LwIP\src\core/tcp.c ****                pcb->local_port, pcb->remote_port);
 277:Source\LwIP\src\core/tcp.c **** 
 278:Source\LwIP\src\core/tcp.c ****       tcp_pcb_purge(pcb);
 279:Source\LwIP\src\core/tcp.c ****       TCP_RMV_ACTIVE(pcb);
ARM GAS  C:\Users\Phuong\AppData\Local\Temp\cczg95Bp.s 			page 8


 280:Source\LwIP\src\core/tcp.c ****       if (pcb->state == ESTABLISHED) {
 281:Source\LwIP\src\core/tcp.c ****         /* move to TIME_WAIT since we close actively */
 282:Source\LwIP\src\core/tcp.c ****         pcb->state = TIME_WAIT;
 283:Source\LwIP\src\core/tcp.c ****         TCP_REG(&tcp_tw_pcbs, pcb);
 284:Source\LwIP\src\core/tcp.c ****       } else {
 285:Source\LwIP\src\core/tcp.c ****         /* CLOSE_WAIT: deallocate the pcb since we already sent a RST for it */
 286:Source\LwIP\src\core/tcp.c ****         if (tcp_input_pcb == pcb) {
 287:Source\LwIP\src\core/tcp.c ****           /* prevent using a deallocated pcb: free it from tcp_input later */
 288:Source\LwIP\src\core/tcp.c ****           tcp_trigger_input_pcb_close();
 289:Source\LwIP\src\core/tcp.c ****         } else {
 290:Source\LwIP\src\core/tcp.c ****           memp_free(MEMP_TCP_PCB, pcb);
 291:Source\LwIP\src\core/tcp.c ****         }
 292:Source\LwIP\src\core/tcp.c ****       }
 293:Source\LwIP\src\core/tcp.c ****       return ERR_OK;
 294:Source\LwIP\src\core/tcp.c ****     }
 295:Source\LwIP\src\core/tcp.c ****   }
 296:Source\LwIP\src\core/tcp.c **** 
 297:Source\LwIP\src\core/tcp.c ****   /* - states which free the pcb are handled here,
 298:Source\LwIP\src\core/tcp.c ****      - states which send FIN and change state are handled in tcp_close_shutdown_fin() */
 299:Source\LwIP\src\core/tcp.c ****   switch (pcb->state) {
 300:Source\LwIP\src\core/tcp.c ****   case CLOSED:
 301:Source\LwIP\src\core/tcp.c ****     /* Closing a pcb in the CLOSED state might seem erroneous,
 302:Source\LwIP\src\core/tcp.c ****      * however, it is in this state once allocated and as yet unused
 303:Source\LwIP\src\core/tcp.c ****      * and the user needs some way to free it should the need arise.
 304:Source\LwIP\src\core/tcp.c ****      * Calling tcp_close() with a pcb that has already been closed, (i.e. twice)
 305:Source\LwIP\src\core/tcp.c ****      * or for a pcb that has been used and then entered the CLOSED state
 306:Source\LwIP\src\core/tcp.c ****      * is erroneous, but this should never happen as the pcb has in those cases
 307:Source\LwIP\src\core/tcp.c ****      * been freed, and so any remaining handles are bogus. */
 308:Source\LwIP\src\core/tcp.c ****     if (pcb->local_port != 0) {
 309:Source\LwIP\src\core/tcp.c ****       TCP_RMV(&tcp_bound_pcbs, pcb);
 310:Source\LwIP\src\core/tcp.c ****     }
 311:Source\LwIP\src\core/tcp.c ****     memp_free(MEMP_TCP_PCB, pcb);
 312:Source\LwIP\src\core/tcp.c ****     break;
 313:Source\LwIP\src\core/tcp.c ****   case LISTEN:
 314:Source\LwIP\src\core/tcp.c ****     tcp_listen_closed(pcb);
 315:Source\LwIP\src\core/tcp.c ****     tcp_pcb_remove(&tcp_listen_pcbs.pcbs, pcb);
 316:Source\LwIP\src\core/tcp.c ****     memp_free(MEMP_TCP_PCB_LISTEN, pcb);
 317:Source\LwIP\src\core/tcp.c ****     break;
 318:Source\LwIP\src\core/tcp.c ****   case SYN_SENT:
 319:Source\LwIP\src\core/tcp.c ****     TCP_PCB_REMOVE_ACTIVE(pcb);
 320:Source\LwIP\src\core/tcp.c ****     memp_free(MEMP_TCP_PCB, pcb);
 321:Source\LwIP\src\core/tcp.c ****     MIB2_STATS_INC(mib2.tcpattemptfails);
 322:Source\LwIP\src\core/tcp.c ****     break;
 323:Source\LwIP\src\core/tcp.c ****   default:
 324:Source\LwIP\src\core/tcp.c ****     return tcp_close_shutdown_fin(pcb);
 325:Source\LwIP\src\core/tcp.c ****   }
 326:Source\LwIP\src\core/tcp.c ****   return ERR_OK;
 327:Source\LwIP\src\core/tcp.c **** }
 328:Source\LwIP\src\core/tcp.c **** 
 329:Source\LwIP\src\core/tcp.c **** static err_t
 330:Source\LwIP\src\core/tcp.c **** tcp_close_shutdown_fin(struct tcp_pcb *pcb)
 331:Source\LwIP\src\core/tcp.c **** {
 332:Source\LwIP\src\core/tcp.c ****   err_t err;
 333:Source\LwIP\src\core/tcp.c ****   LWIP_ASSERT("pcb != NULL", pcb != NULL);
 334:Source\LwIP\src\core/tcp.c **** 
 335:Source\LwIP\src\core/tcp.c ****   switch (pcb->state) {
 336:Source\LwIP\src\core/tcp.c ****   case SYN_RCVD:
ARM GAS  C:\Users\Phuong\AppData\Local\Temp\cczg95Bp.s 			page 9


 337:Source\LwIP\src\core/tcp.c ****     err = tcp_send_fin(pcb);
 338:Source\LwIP\src\core/tcp.c ****     if (err == ERR_OK) {
 339:Source\LwIP\src\core/tcp.c ****       tcp_backlog_accepted(pcb);
 340:Source\LwIP\src\core/tcp.c ****       MIB2_STATS_INC(mib2.tcpattemptfails);
 341:Source\LwIP\src\core/tcp.c ****       pcb->state = FIN_WAIT_1;
 342:Source\LwIP\src\core/tcp.c ****     }
 343:Source\LwIP\src\core/tcp.c ****     break;
 344:Source\LwIP\src\core/tcp.c ****   case ESTABLISHED:
 345:Source\LwIP\src\core/tcp.c ****     err = tcp_send_fin(pcb);
 346:Source\LwIP\src\core/tcp.c ****     if (err == ERR_OK) {
 347:Source\LwIP\src\core/tcp.c ****       MIB2_STATS_INC(mib2.tcpestabresets);
 348:Source\LwIP\src\core/tcp.c ****       pcb->state = FIN_WAIT_1;
 349:Source\LwIP\src\core/tcp.c ****     }
 350:Source\LwIP\src\core/tcp.c ****     break;
 351:Source\LwIP\src\core/tcp.c ****   case CLOSE_WAIT:
 352:Source\LwIP\src\core/tcp.c ****     err = tcp_send_fin(pcb);
 353:Source\LwIP\src\core/tcp.c ****     if (err == ERR_OK) {
 354:Source\LwIP\src\core/tcp.c ****       MIB2_STATS_INC(mib2.tcpestabresets);
 355:Source\LwIP\src\core/tcp.c ****       pcb->state = LAST_ACK;
 356:Source\LwIP\src\core/tcp.c ****     }
 357:Source\LwIP\src\core/tcp.c ****     break;
 358:Source\LwIP\src\core/tcp.c ****   default:
 359:Source\LwIP\src\core/tcp.c ****     /* Has already been closed, do nothing. */
 360:Source\LwIP\src\core/tcp.c ****     return ERR_OK;
 361:Source\LwIP\src\core/tcp.c ****   }
 362:Source\LwIP\src\core/tcp.c **** 
 363:Source\LwIP\src\core/tcp.c ****   if (err == ERR_OK) {
 364:Source\LwIP\src\core/tcp.c ****     /* To ensure all data has been sent when tcp_close returns, we have
 365:Source\LwIP\src\core/tcp.c ****        to make sure tcp_output doesn't fail.
 366:Source\LwIP\src\core/tcp.c ****        Since we don't really have to ensure all data has been sent when tcp_close
 367:Source\LwIP\src\core/tcp.c ****        returns (unsent data is sent from tcp timer functions, also), we don't care
 368:Source\LwIP\src\core/tcp.c ****        for the return value of tcp_output for now. */
 369:Source\LwIP\src\core/tcp.c ****     tcp_output(pcb);
 370:Source\LwIP\src\core/tcp.c ****   } else if (err == ERR_MEM) {
 371:Source\LwIP\src\core/tcp.c ****     /* Mark this pcb for closing. Closing is retried from tcp_tmr. */
 372:Source\LwIP\src\core/tcp.c ****     pcb->flags |= TF_CLOSEPEND;
 373:Source\LwIP\src\core/tcp.c ****     /* We have to return ERR_OK from here to indicate to the callers that this
 374:Source\LwIP\src\core/tcp.c ****        pcb should not be used any more as it will be freed soon via tcp_tmr.
 375:Source\LwIP\src\core/tcp.c ****        This is OK here since sending FIN does not guarantee a time frime for
 376:Source\LwIP\src\core/tcp.c ****        actually freeing the pcb, either (it is left in closure states for
 377:Source\LwIP\src\core/tcp.c ****        remote ACK or timeout) */
 378:Source\LwIP\src\core/tcp.c ****     return ERR_OK;
 379:Source\LwIP\src\core/tcp.c ****   }
 380:Source\LwIP\src\core/tcp.c ****   return err;
 381:Source\LwIP\src\core/tcp.c **** }
 382:Source\LwIP\src\core/tcp.c **** 
 383:Source\LwIP\src\core/tcp.c **** /**
 384:Source\LwIP\src\core/tcp.c ****  * @ingroup tcp_raw
 385:Source\LwIP\src\core/tcp.c ****  * Closes the connection held by the PCB.
 386:Source\LwIP\src\core/tcp.c ****  *
 387:Source\LwIP\src\core/tcp.c ****  * Listening pcbs are freed and may not be referenced any more.
 388:Source\LwIP\src\core/tcp.c ****  * Connection pcbs are freed if not yet connected and may not be referenced
 389:Source\LwIP\src\core/tcp.c ****  * any more. If a connection is established (at least SYN received or in
 390:Source\LwIP\src\core/tcp.c ****  * a closing state), the connection is closed, and put in a closing state.
 391:Source\LwIP\src\core/tcp.c ****  * The pcb is then automatically freed in tcp_slowtmr(). It is therefore
 392:Source\LwIP\src\core/tcp.c ****  * unsafe to reference it (unless an error is returned).
 393:Source\LwIP\src\core/tcp.c ****  *
ARM GAS  C:\Users\Phuong\AppData\Local\Temp\cczg95Bp.s 			page 10


 394:Source\LwIP\src\core/tcp.c ****  * @param pcb the tcp_pcb to close
 395:Source\LwIP\src\core/tcp.c ****  * @return ERR_OK if connection has been closed
 396:Source\LwIP\src\core/tcp.c ****  *         another err_t if closing failed and pcb is not freed
 397:Source\LwIP\src\core/tcp.c ****  */
 398:Source\LwIP\src\core/tcp.c **** err_t
 399:Source\LwIP\src\core/tcp.c **** tcp_close(struct tcp_pcb *pcb)
 400:Source\LwIP\src\core/tcp.c **** {
 401:Source\LwIP\src\core/tcp.c ****   LWIP_DEBUGF(TCP_DEBUG, ("tcp_close: closing in "));
 402:Source\LwIP\src\core/tcp.c ****   tcp_debug_print_state(pcb->state);
 403:Source\LwIP\src\core/tcp.c **** 
 404:Source\LwIP\src\core/tcp.c ****   if (pcb->state != LISTEN) {
 405:Source\LwIP\src\core/tcp.c ****     /* Set a flag not to receive any more data... */
 406:Source\LwIP\src\core/tcp.c ****     pcb->flags |= TF_RXCLOSED;
 407:Source\LwIP\src\core/tcp.c ****   }
 408:Source\LwIP\src\core/tcp.c ****   /* ... and close */
 409:Source\LwIP\src\core/tcp.c ****   return tcp_close_shutdown(pcb, 1);
 410:Source\LwIP\src\core/tcp.c **** }
 411:Source\LwIP\src\core/tcp.c **** 
 412:Source\LwIP\src\core/tcp.c **** /**
 413:Source\LwIP\src\core/tcp.c ****  * @ingroup tcp_raw
 414:Source\LwIP\src\core/tcp.c ****  * Causes all or part of a full-duplex connection of this PCB to be shut down.
 415:Source\LwIP\src\core/tcp.c ****  * This doesn't deallocate the PCB unless shutting down both sides!
 416:Source\LwIP\src\core/tcp.c ****  * Shutting down both sides is the same as calling tcp_close, so if it succeds
 417:Source\LwIP\src\core/tcp.c ****  * (i.e. returns ER_OK), the PCB must not be referenced any more!
 418:Source\LwIP\src\core/tcp.c ****  *
 419:Source\LwIP\src\core/tcp.c ****  * @param pcb PCB to shutdown
 420:Source\LwIP\src\core/tcp.c ****  * @param shut_rx shut down receive side if this is != 0
 421:Source\LwIP\src\core/tcp.c ****  * @param shut_tx shut down send side if this is != 0
 422:Source\LwIP\src\core/tcp.c ****  * @return ERR_OK if shutdown succeeded (or the PCB has already been shut down)
 423:Source\LwIP\src\core/tcp.c ****  *         another err_t on error.
 424:Source\LwIP\src\core/tcp.c ****  */
 425:Source\LwIP\src\core/tcp.c **** err_t
 426:Source\LwIP\src\core/tcp.c **** tcp_shutdown(struct tcp_pcb *pcb, int shut_rx, int shut_tx)
 427:Source\LwIP\src\core/tcp.c **** {
 428:Source\LwIP\src\core/tcp.c ****   if (pcb->state == LISTEN) {
 429:Source\LwIP\src\core/tcp.c ****     return ERR_CONN;
 430:Source\LwIP\src\core/tcp.c ****   }
 431:Source\LwIP\src\core/tcp.c ****   if (shut_rx) {
 432:Source\LwIP\src\core/tcp.c ****     /* shut down the receive side: set a flag not to receive any more data... */
 433:Source\LwIP\src\core/tcp.c ****     pcb->flags |= TF_RXCLOSED;
 434:Source\LwIP\src\core/tcp.c ****     if (shut_tx) {
 435:Source\LwIP\src\core/tcp.c ****       /* shutting down the tx AND rx side is the same as closing for the raw API */
 436:Source\LwIP\src\core/tcp.c ****       return tcp_close_shutdown(pcb, 1);
 437:Source\LwIP\src\core/tcp.c ****     }
 438:Source\LwIP\src\core/tcp.c ****     /* ... and free buffered data */
 439:Source\LwIP\src\core/tcp.c ****     if (pcb->refused_data != NULL) {
 440:Source\LwIP\src\core/tcp.c ****       pbuf_free(pcb->refused_data);
 441:Source\LwIP\src\core/tcp.c ****       pcb->refused_data = NULL;
 442:Source\LwIP\src\core/tcp.c ****     }
 443:Source\LwIP\src\core/tcp.c ****   }
 444:Source\LwIP\src\core/tcp.c ****   if (shut_tx) {
 445:Source\LwIP\src\core/tcp.c ****     /* This can't happen twice since if it succeeds, the pcb's state is changed.
 446:Source\LwIP\src\core/tcp.c ****        Only close in these states as the others directly deallocate the PCB */
 447:Source\LwIP\src\core/tcp.c ****     switch (pcb->state) {
 448:Source\LwIP\src\core/tcp.c ****     case SYN_RCVD:
 449:Source\LwIP\src\core/tcp.c ****     case ESTABLISHED:
 450:Source\LwIP\src\core/tcp.c ****     case CLOSE_WAIT:
ARM GAS  C:\Users\Phuong\AppData\Local\Temp\cczg95Bp.s 			page 11


 451:Source\LwIP\src\core/tcp.c ****       return tcp_close_shutdown(pcb, (u8_t)shut_rx);
 452:Source\LwIP\src\core/tcp.c ****     default:
 453:Source\LwIP\src\core/tcp.c ****       /* Not (yet?) connected, cannot shutdown the TX side as that would bring us
 454:Source\LwIP\src\core/tcp.c ****         into CLOSED state, where the PCB is deallocated. */
 455:Source\LwIP\src\core/tcp.c ****       return ERR_CONN;
 456:Source\LwIP\src\core/tcp.c ****     }
 457:Source\LwIP\src\core/tcp.c ****   }
 458:Source\LwIP\src\core/tcp.c ****   return ERR_OK;
 459:Source\LwIP\src\core/tcp.c **** }
 460:Source\LwIP\src\core/tcp.c **** 
 461:Source\LwIP\src\core/tcp.c **** /**
 462:Source\LwIP\src\core/tcp.c ****  * Abandons a connection and optionally sends a RST to the remote
 463:Source\LwIP\src\core/tcp.c ****  * host.  Deletes the local protocol control block. This is done when
 464:Source\LwIP\src\core/tcp.c ****  * a connection is killed because of shortage of memory.
 465:Source\LwIP\src\core/tcp.c ****  *
 466:Source\LwIP\src\core/tcp.c ****  * @param pcb the tcp_pcb to abort
 467:Source\LwIP\src\core/tcp.c ****  * @param reset boolean to indicate whether a reset should be sent
 468:Source\LwIP\src\core/tcp.c ****  */
 469:Source\LwIP\src\core/tcp.c **** void
 470:Source\LwIP\src\core/tcp.c **** tcp_abandon(struct tcp_pcb *pcb, int reset)
 471:Source\LwIP\src\core/tcp.c **** {
 472:Source\LwIP\src\core/tcp.c ****   u32_t seqno, ackno;
 473:Source\LwIP\src\core/tcp.c **** #if LWIP_CALLBACK_API
 474:Source\LwIP\src\core/tcp.c ****   tcp_err_fn errf;
 475:Source\LwIP\src\core/tcp.c **** #endif /* LWIP_CALLBACK_API */
 476:Source\LwIP\src\core/tcp.c ****   void *errf_arg;
 477:Source\LwIP\src\core/tcp.c **** 
 478:Source\LwIP\src\core/tcp.c ****   /* pcb->state LISTEN not allowed here */
 479:Source\LwIP\src\core/tcp.c ****   LWIP_ASSERT("don't call tcp_abort/tcp_abandon for listen-pcbs",
 480:Source\LwIP\src\core/tcp.c ****     pcb->state != LISTEN);
 481:Source\LwIP\src\core/tcp.c ****   /* Figure out on which TCP PCB list we are, and remove us. If we
 482:Source\LwIP\src\core/tcp.c ****      are in an active state, call the receive function associated with
 483:Source\LwIP\src\core/tcp.c ****      the PCB with a NULL argument, and send an RST to the remote end. */
 484:Source\LwIP\src\core/tcp.c ****   if (pcb->state == TIME_WAIT) {
 485:Source\LwIP\src\core/tcp.c ****     tcp_pcb_remove(&tcp_tw_pcbs, pcb);
 486:Source\LwIP\src\core/tcp.c ****     memp_free(MEMP_TCP_PCB, pcb);
 487:Source\LwIP\src\core/tcp.c ****   } else {
 488:Source\LwIP\src\core/tcp.c ****     int send_rst = 0;
 489:Source\LwIP\src\core/tcp.c ****     u16_t local_port = 0;
 490:Source\LwIP\src\core/tcp.c ****     enum tcp_state last_state;
 491:Source\LwIP\src\core/tcp.c ****     seqno = pcb->snd_nxt;
 492:Source\LwIP\src\core/tcp.c ****     ackno = pcb->rcv_nxt;
 493:Source\LwIP\src\core/tcp.c **** #if LWIP_CALLBACK_API
 494:Source\LwIP\src\core/tcp.c ****     errf = pcb->errf;
 495:Source\LwIP\src\core/tcp.c **** #endif /* LWIP_CALLBACK_API */
 496:Source\LwIP\src\core/tcp.c ****     errf_arg = pcb->callback_arg;
 497:Source\LwIP\src\core/tcp.c ****     if (pcb->state == CLOSED) {
 498:Source\LwIP\src\core/tcp.c ****       if (pcb->local_port != 0) {
 499:Source\LwIP\src\core/tcp.c ****         /* bound, not yet opened */
 500:Source\LwIP\src\core/tcp.c ****         TCP_RMV(&tcp_bound_pcbs, pcb);
 501:Source\LwIP\src\core/tcp.c ****       }
 502:Source\LwIP\src\core/tcp.c ****     } else {
 503:Source\LwIP\src\core/tcp.c ****       send_rst = reset;
 504:Source\LwIP\src\core/tcp.c ****       local_port = pcb->local_port;
 505:Source\LwIP\src\core/tcp.c ****       TCP_PCB_REMOVE_ACTIVE(pcb);
 506:Source\LwIP\src\core/tcp.c ****     }
 507:Source\LwIP\src\core/tcp.c ****     if (pcb->unacked != NULL) {
ARM GAS  C:\Users\Phuong\AppData\Local\Temp\cczg95Bp.s 			page 12


 508:Source\LwIP\src\core/tcp.c ****       tcp_segs_free(pcb->unacked);
 509:Source\LwIP\src\core/tcp.c ****     }
 510:Source\LwIP\src\core/tcp.c ****     if (pcb->unsent != NULL) {
 511:Source\LwIP\src\core/tcp.c ****       tcp_segs_free(pcb->unsent);
 512:Source\LwIP\src\core/tcp.c ****     }
 513:Source\LwIP\src\core/tcp.c **** #if TCP_QUEUE_OOSEQ
 514:Source\LwIP\src\core/tcp.c ****     if (pcb->ooseq != NULL) {
 515:Source\LwIP\src\core/tcp.c ****       tcp_segs_free(pcb->ooseq);
 516:Source\LwIP\src\core/tcp.c ****     }
 517:Source\LwIP\src\core/tcp.c **** #endif /* TCP_QUEUE_OOSEQ */
 518:Source\LwIP\src\core/tcp.c ****     tcp_backlog_accepted(pcb);
 519:Source\LwIP\src\core/tcp.c ****     if (send_rst) {
 520:Source\LwIP\src\core/tcp.c ****       LWIP_DEBUGF(TCP_RST_DEBUG, ("tcp_abandon: sending RST\n"));
 521:Source\LwIP\src\core/tcp.c ****       tcp_rst(seqno, ackno, &pcb->local_ip, &pcb->remote_ip, local_port, pcb->remote_port);
 522:Source\LwIP\src\core/tcp.c ****     }
 523:Source\LwIP\src\core/tcp.c ****     last_state = pcb->state;
 524:Source\LwIP\src\core/tcp.c ****     memp_free(MEMP_TCP_PCB, pcb);
 525:Source\LwIP\src\core/tcp.c ****     TCP_EVENT_ERR(last_state, errf, errf_arg, ERR_ABRT);
 526:Source\LwIP\src\core/tcp.c ****   }
 527:Source\LwIP\src\core/tcp.c **** }
 528:Source\LwIP\src\core/tcp.c **** 
 529:Source\LwIP\src\core/tcp.c **** /**
 530:Source\LwIP\src\core/tcp.c ****  * @ingroup tcp_raw
 531:Source\LwIP\src\core/tcp.c ****  * Aborts the connection by sending a RST (reset) segment to the remote
 532:Source\LwIP\src\core/tcp.c ****  * host. The pcb is deallocated. This function never fails.
 533:Source\LwIP\src\core/tcp.c ****  *
 534:Source\LwIP\src\core/tcp.c ****  * ATTENTION: When calling this from one of the TCP callbacks, make
 535:Source\LwIP\src\core/tcp.c ****  * sure you always return ERR_ABRT (and never return ERR_ABRT otherwise
 536:Source\LwIP\src\core/tcp.c ****  * or you will risk accessing deallocated memory or memory leaks!
 537:Source\LwIP\src\core/tcp.c ****  *
 538:Source\LwIP\src\core/tcp.c ****  * @param pcb the tcp pcb to abort
 539:Source\LwIP\src\core/tcp.c ****  */
 540:Source\LwIP\src\core/tcp.c **** void
 541:Source\LwIP\src\core/tcp.c **** tcp_abort(struct tcp_pcb *pcb)
 542:Source\LwIP\src\core/tcp.c **** {
 543:Source\LwIP\src\core/tcp.c ****   tcp_abandon(pcb, 1);
 544:Source\LwIP\src\core/tcp.c **** }
 545:Source\LwIP\src\core/tcp.c **** 
 546:Source\LwIP\src\core/tcp.c **** /**
 547:Source\LwIP\src\core/tcp.c ****  * @ingroup tcp_raw
 548:Source\LwIP\src\core/tcp.c ****  * Binds the connection to a local port number and IP address. If the
 549:Source\LwIP\src\core/tcp.c ****  * IP address is not given (i.e., ipaddr == NULL), the IP address of
 550:Source\LwIP\src\core/tcp.c ****  * the outgoing network interface is used instead.
 551:Source\LwIP\src\core/tcp.c ****  *
 552:Source\LwIP\src\core/tcp.c ****  * @param pcb the tcp_pcb to bind (no check is done whether this pcb is
 553:Source\LwIP\src\core/tcp.c ****  *        already bound!)
 554:Source\LwIP\src\core/tcp.c ****  * @param ipaddr the local ip address to bind to (use IP4_ADDR_ANY to bind
 555:Source\LwIP\src\core/tcp.c ****  *        to any local address
 556:Source\LwIP\src\core/tcp.c ****  * @param port the local port to bind to
 557:Source\LwIP\src\core/tcp.c ****  * @return ERR_USE if the port is already in use
 558:Source\LwIP\src\core/tcp.c ****  *         ERR_VAL if bind failed because the PCB is not in a valid state
 559:Source\LwIP\src\core/tcp.c ****  *         ERR_OK if bound
 560:Source\LwIP\src\core/tcp.c ****  */
 561:Source\LwIP\src\core/tcp.c **** err_t
 562:Source\LwIP\src\core/tcp.c **** tcp_bind(struct tcp_pcb *pcb, const ip_addr_t *ipaddr, u16_t port)
 563:Source\LwIP\src\core/tcp.c **** {
 564:Source\LwIP\src\core/tcp.c ****   int i;
ARM GAS  C:\Users\Phuong\AppData\Local\Temp\cczg95Bp.s 			page 13


 565:Source\LwIP\src\core/tcp.c ****   int max_pcb_list = NUM_TCP_PCB_LISTS;
 566:Source\LwIP\src\core/tcp.c ****   struct tcp_pcb *cpcb;
 567:Source\LwIP\src\core/tcp.c **** 
 568:Source\LwIP\src\core/tcp.c **** #if LWIP_IPV4
 569:Source\LwIP\src\core/tcp.c ****   /* Don't propagate NULL pointer (IPv4 ANY) to subsequent functions */
 570:Source\LwIP\src\core/tcp.c ****   if (ipaddr == NULL) {
 571:Source\LwIP\src\core/tcp.c ****     ipaddr = IP4_ADDR_ANY;
 572:Source\LwIP\src\core/tcp.c ****   }
 573:Source\LwIP\src\core/tcp.c **** #endif /* LWIP_IPV4 */
 574:Source\LwIP\src\core/tcp.c **** 
 575:Source\LwIP\src\core/tcp.c ****   /* still need to check for ipaddr == NULL in IPv6 only case */
 576:Source\LwIP\src\core/tcp.c ****   if ((pcb == NULL) || (ipaddr == NULL)) {
 577:Source\LwIP\src\core/tcp.c ****     return ERR_VAL;
 578:Source\LwIP\src\core/tcp.c ****   }
 579:Source\LwIP\src\core/tcp.c **** 
 580:Source\LwIP\src\core/tcp.c ****   LWIP_ERROR("tcp_bind: can only bind in state CLOSED", pcb->state == CLOSED, return ERR_VAL);
 581:Source\LwIP\src\core/tcp.c **** 
 582:Source\LwIP\src\core/tcp.c **** #if SO_REUSE
 583:Source\LwIP\src\core/tcp.c ****   /* Unless the REUSEADDR flag is set,
 584:Source\LwIP\src\core/tcp.c ****      we have to check the pcbs in TIME-WAIT state, also.
 585:Source\LwIP\src\core/tcp.c ****      We do not dump TIME_WAIT pcb's; they can still be matched by incoming
 586:Source\LwIP\src\core/tcp.c ****      packets using both local and remote IP addresses and ports to distinguish.
 587:Source\LwIP\src\core/tcp.c ****    */
 588:Source\LwIP\src\core/tcp.c ****   if (ip_get_option(pcb, SOF_REUSEADDR)) {
 589:Source\LwIP\src\core/tcp.c ****     max_pcb_list = NUM_TCP_PCB_LISTS_NO_TIME_WAIT;
 590:Source\LwIP\src\core/tcp.c ****   }
 591:Source\LwIP\src\core/tcp.c **** #endif /* SO_REUSE */
 592:Source\LwIP\src\core/tcp.c **** 
 593:Source\LwIP\src\core/tcp.c ****   if (port == 0) {
 594:Source\LwIP\src\core/tcp.c ****     port = tcp_new_port();
 595:Source\LwIP\src\core/tcp.c ****     if (port == 0) {
 596:Source\LwIP\src\core/tcp.c ****       return ERR_BUF;
 597:Source\LwIP\src\core/tcp.c ****     }
 598:Source\LwIP\src\core/tcp.c ****   } else {
 599:Source\LwIP\src\core/tcp.c ****     /* Check if the address already is in use (on all lists) */
 600:Source\LwIP\src\core/tcp.c ****     for (i = 0; i < max_pcb_list; i++) {
 601:Source\LwIP\src\core/tcp.c ****       for (cpcb = *tcp_pcb_lists[i]; cpcb != NULL; cpcb = cpcb->next) {
 602:Source\LwIP\src\core/tcp.c ****         if (cpcb->local_port == port) {
 603:Source\LwIP\src\core/tcp.c **** #if SO_REUSE
 604:Source\LwIP\src\core/tcp.c ****           /* Omit checking for the same port if both pcbs have REUSEADDR set.
 605:Source\LwIP\src\core/tcp.c ****              For SO_REUSEADDR, the duplicate-check for a 5-tuple is done in
 606:Source\LwIP\src\core/tcp.c ****              tcp_connect. */
 607:Source\LwIP\src\core/tcp.c ****           if (!ip_get_option(pcb, SOF_REUSEADDR) ||
 608:Source\LwIP\src\core/tcp.c ****               !ip_get_option(cpcb, SOF_REUSEADDR))
 609:Source\LwIP\src\core/tcp.c **** #endif /* SO_REUSE */
 610:Source\LwIP\src\core/tcp.c ****           {
 611:Source\LwIP\src\core/tcp.c ****             /* @todo: check accept_any_ip_version */
 612:Source\LwIP\src\core/tcp.c ****             if ((IP_IS_V6(ipaddr) == IP_IS_V6_VAL(cpcb->local_ip)) &&
 613:Source\LwIP\src\core/tcp.c ****                 (ip_addr_isany(&cpcb->local_ip) ||
 614:Source\LwIP\src\core/tcp.c ****                 ip_addr_isany(ipaddr) ||
 615:Source\LwIP\src\core/tcp.c ****                 ip_addr_cmp(&cpcb->local_ip, ipaddr))) {
 616:Source\LwIP\src\core/tcp.c ****               return ERR_USE;
 617:Source\LwIP\src\core/tcp.c ****             }
 618:Source\LwIP\src\core/tcp.c ****           }
 619:Source\LwIP\src\core/tcp.c ****         }
 620:Source\LwIP\src\core/tcp.c ****       }
 621:Source\LwIP\src\core/tcp.c ****     }
ARM GAS  C:\Users\Phuong\AppData\Local\Temp\cczg95Bp.s 			page 14


 622:Source\LwIP\src\core/tcp.c ****   }
 623:Source\LwIP\src\core/tcp.c **** 
 624:Source\LwIP\src\core/tcp.c ****   if (!ip_addr_isany(ipaddr)) {
 625:Source\LwIP\src\core/tcp.c ****     ip_addr_set(&pcb->local_ip, ipaddr);
 626:Source\LwIP\src\core/tcp.c ****   }
 627:Source\LwIP\src\core/tcp.c ****   pcb->local_port = port;
 628:Source\LwIP\src\core/tcp.c ****   TCP_REG(&tcp_bound_pcbs, pcb);
 629:Source\LwIP\src\core/tcp.c ****   LWIP_DEBUGF(TCP_DEBUG, ("tcp_bind: bind to port %"U16_F"\n", port));
 630:Source\LwIP\src\core/tcp.c ****   return ERR_OK;
 631:Source\LwIP\src\core/tcp.c **** }
 632:Source\LwIP\src\core/tcp.c **** #if LWIP_CALLBACK_API
 633:Source\LwIP\src\core/tcp.c **** /**
 634:Source\LwIP\src\core/tcp.c ****  * Default accept callback if no accept callback is specified by the user.
 635:Source\LwIP\src\core/tcp.c ****  */
 636:Source\LwIP\src\core/tcp.c **** static err_t
 637:Source\LwIP\src\core/tcp.c **** tcp_accept_null(void *arg, struct tcp_pcb *pcb, err_t err)
 638:Source\LwIP\src\core/tcp.c **** {
 639:Source\LwIP\src\core/tcp.c ****   LWIP_UNUSED_ARG(arg);
 640:Source\LwIP\src\core/tcp.c ****   LWIP_UNUSED_ARG(err);
 641:Source\LwIP\src\core/tcp.c **** 
 642:Source\LwIP\src\core/tcp.c ****   tcp_abort(pcb);
 643:Source\LwIP\src\core/tcp.c **** 
 644:Source\LwIP\src\core/tcp.c ****   return ERR_ABRT;
 645:Source\LwIP\src\core/tcp.c **** }
 646:Source\LwIP\src\core/tcp.c **** #endif /* LWIP_CALLBACK_API */
 647:Source\LwIP\src\core/tcp.c **** 
 648:Source\LwIP\src\core/tcp.c **** /**
 649:Source\LwIP\src\core/tcp.c ****  * @ingroup tcp_raw
 650:Source\LwIP\src\core/tcp.c ****  * Set the state of the connection to be LISTEN, which means that it
 651:Source\LwIP\src\core/tcp.c ****  * is able to accept incoming connections. The protocol control block
 652:Source\LwIP\src\core/tcp.c ****  * is reallocated in order to consume less memory. Setting the
 653:Source\LwIP\src\core/tcp.c ****  * connection to LISTEN is an irreversible process.
 654:Source\LwIP\src\core/tcp.c ****  *
 655:Source\LwIP\src\core/tcp.c ****  * @param pcb the original tcp_pcb
 656:Source\LwIP\src\core/tcp.c ****  * @param backlog the incoming connections queue limit
 657:Source\LwIP\src\core/tcp.c ****  * @return tcp_pcb used for listening, consumes less memory.
 658:Source\LwIP\src\core/tcp.c ****  *
 659:Source\LwIP\src\core/tcp.c ****  * @note The original tcp_pcb is freed. This function therefore has to be
 660:Source\LwIP\src\core/tcp.c ****  *       called like this:
 661:Source\LwIP\src\core/tcp.c ****  *             tpcb = tcp_listen_with_backlog(tpcb, backlog);
 662:Source\LwIP\src\core/tcp.c ****  */
 663:Source\LwIP\src\core/tcp.c **** struct tcp_pcb *
 664:Source\LwIP\src\core/tcp.c **** tcp_listen_with_backlog(struct tcp_pcb *pcb, u8_t backlog)
 665:Source\LwIP\src\core/tcp.c **** {
 666:Source\LwIP\src\core/tcp.c ****   return tcp_listen_with_backlog_and_err(pcb, backlog, NULL);
 667:Source\LwIP\src\core/tcp.c **** }
 668:Source\LwIP\src\core/tcp.c **** 
 669:Source\LwIP\src\core/tcp.c **** /**
 670:Source\LwIP\src\core/tcp.c ****  * @ingroup tcp_raw
 671:Source\LwIP\src\core/tcp.c ****  * Set the state of the connection to be LISTEN, which means that it
 672:Source\LwIP\src\core/tcp.c ****  * is able to accept incoming connections. The protocol control block
 673:Source\LwIP\src\core/tcp.c ****  * is reallocated in order to consume less memory. Setting the
 674:Source\LwIP\src\core/tcp.c ****  * connection to LISTEN is an irreversible process.
 675:Source\LwIP\src\core/tcp.c ****  *
 676:Source\LwIP\src\core/tcp.c ****  * @param pcb the original tcp_pcb
 677:Source\LwIP\src\core/tcp.c ****  * @param backlog the incoming connections queue limit
 678:Source\LwIP\src\core/tcp.c ****  * @param err when NULL is returned, this contains the error reason
ARM GAS  C:\Users\Phuong\AppData\Local\Temp\cczg95Bp.s 			page 15


 679:Source\LwIP\src\core/tcp.c ****  * @return tcp_pcb used for listening, consumes less memory.
 680:Source\LwIP\src\core/tcp.c ****  *
 681:Source\LwIP\src\core/tcp.c ****  * @note The original tcp_pcb is freed. This function therefore has to be
 682:Source\LwIP\src\core/tcp.c ****  *       called like this:
 683:Source\LwIP\src\core/tcp.c ****  *             tpcb = tcp_listen_with_backlog_and_err(tpcb, backlog, &err);
 684:Source\LwIP\src\core/tcp.c ****  */
 685:Source\LwIP\src\core/tcp.c **** struct tcp_pcb *
 686:Source\LwIP\src\core/tcp.c **** tcp_listen_with_backlog_and_err(struct tcp_pcb *pcb, u8_t backlog, err_t *err)
 687:Source\LwIP\src\core/tcp.c **** {
 688:Source\LwIP\src\core/tcp.c ****   struct tcp_pcb_listen *lpcb = NULL;
 689:Source\LwIP\src\core/tcp.c ****   err_t res;
 690:Source\LwIP\src\core/tcp.c **** 
 691:Source\LwIP\src\core/tcp.c ****   LWIP_UNUSED_ARG(backlog);
 692:Source\LwIP\src\core/tcp.c ****   LWIP_ERROR("tcp_listen: pcb already connected", pcb->state == CLOSED, res = ERR_CLSD; goto done);
 693:Source\LwIP\src\core/tcp.c **** 
 694:Source\LwIP\src\core/tcp.c ****   /* already listening? */
 695:Source\LwIP\src\core/tcp.c ****   if (pcb->state == LISTEN) {
 696:Source\LwIP\src\core/tcp.c ****     lpcb = (struct tcp_pcb_listen*)pcb;
 697:Source\LwIP\src\core/tcp.c ****     res = ERR_ALREADY;
 698:Source\LwIP\src\core/tcp.c ****     goto done;
 699:Source\LwIP\src\core/tcp.c ****   }
 700:Source\LwIP\src\core/tcp.c **** #if SO_REUSE
 701:Source\LwIP\src\core/tcp.c ****   if (ip_get_option(pcb, SOF_REUSEADDR)) {
 702:Source\LwIP\src\core/tcp.c ****     /* Since SOF_REUSEADDR allows reusing a local address before the pcb's usage
 703:Source\LwIP\src\core/tcp.c ****        is declared (listen-/connection-pcb), we have to make sure now that
 704:Source\LwIP\src\core/tcp.c ****        this port is only used once for every local IP. */
 705:Source\LwIP\src\core/tcp.c ****     for (lpcb = tcp_listen_pcbs.listen_pcbs; lpcb != NULL; lpcb = lpcb->next) {
 706:Source\LwIP\src\core/tcp.c ****       if ((lpcb->local_port == pcb->local_port) &&
 707:Source\LwIP\src\core/tcp.c ****           ip_addr_cmp(&lpcb->local_ip, &pcb->local_ip)) {
 708:Source\LwIP\src\core/tcp.c ****         /* this address/port is already used */
 709:Source\LwIP\src\core/tcp.c ****         lpcb = NULL;
 710:Source\LwIP\src\core/tcp.c ****         res = ERR_USE;
 711:Source\LwIP\src\core/tcp.c ****         goto done;
 712:Source\LwIP\src\core/tcp.c ****       }
 713:Source\LwIP\src\core/tcp.c ****     }
 714:Source\LwIP\src\core/tcp.c ****   }
 715:Source\LwIP\src\core/tcp.c **** #endif /* SO_REUSE */
 716:Source\LwIP\src\core/tcp.c ****   lpcb = (struct tcp_pcb_listen *)memp_malloc(MEMP_TCP_PCB_LISTEN);
 717:Source\LwIP\src\core/tcp.c ****   if (lpcb == NULL) {
 718:Source\LwIP\src\core/tcp.c ****     res = ERR_MEM;
 719:Source\LwIP\src\core/tcp.c ****     goto done;
 720:Source\LwIP\src\core/tcp.c ****   }
 721:Source\LwIP\src\core/tcp.c ****   lpcb->callback_arg = pcb->callback_arg;
 722:Source\LwIP\src\core/tcp.c ****   lpcb->local_port = pcb->local_port;
 723:Source\LwIP\src\core/tcp.c ****   lpcb->state = LISTEN;
 724:Source\LwIP\src\core/tcp.c ****   lpcb->prio = pcb->prio;
 725:Source\LwIP\src\core/tcp.c ****   lpcb->so_options = pcb->so_options;
 726:Source\LwIP\src\core/tcp.c ****   lpcb->ttl = pcb->ttl;
 727:Source\LwIP\src\core/tcp.c ****   lpcb->tos = pcb->tos;
 728:Source\LwIP\src\core/tcp.c **** #if LWIP_IPV4 && LWIP_IPV6
 729:Source\LwIP\src\core/tcp.c ****   IP_SET_TYPE_VAL(lpcb->remote_ip, pcb->local_ip.type);
 730:Source\LwIP\src\core/tcp.c **** #endif /* LWIP_IPV4 && LWIP_IPV6 */
 731:Source\LwIP\src\core/tcp.c ****   ip_addr_copy(lpcb->local_ip, pcb->local_ip);
 732:Source\LwIP\src\core/tcp.c ****   if (pcb->local_port != 0) {
 733:Source\LwIP\src\core/tcp.c ****     TCP_RMV(&tcp_bound_pcbs, pcb);
 734:Source\LwIP\src\core/tcp.c ****   }
 735:Source\LwIP\src\core/tcp.c ****   memp_free(MEMP_TCP_PCB, pcb);
ARM GAS  C:\Users\Phuong\AppData\Local\Temp\cczg95Bp.s 			page 16


 736:Source\LwIP\src\core/tcp.c **** #if LWIP_CALLBACK_API
 737:Source\LwIP\src\core/tcp.c ****   lpcb->accept = tcp_accept_null;
 738:Source\LwIP\src\core/tcp.c **** #endif /* LWIP_CALLBACK_API */
 739:Source\LwIP\src\core/tcp.c **** #if TCP_LISTEN_BACKLOG
 740:Source\LwIP\src\core/tcp.c ****   lpcb->accepts_pending = 0;
 741:Source\LwIP\src\core/tcp.c ****   tcp_backlog_set(lpcb, backlog);
 742:Source\LwIP\src\core/tcp.c **** #endif /* TCP_LISTEN_BACKLOG */
 743:Source\LwIP\src\core/tcp.c ****   TCP_REG(&tcp_listen_pcbs.pcbs, (struct tcp_pcb *)lpcb);
 744:Source\LwIP\src\core/tcp.c ****   res = ERR_OK;
 745:Source\LwIP\src\core/tcp.c **** done:
 746:Source\LwIP\src\core/tcp.c ****   if (err != NULL) {
 747:Source\LwIP\src\core/tcp.c ****     *err = res;
 748:Source\LwIP\src\core/tcp.c ****   }
 749:Source\LwIP\src\core/tcp.c ****   return (struct tcp_pcb *)lpcb;
 750:Source\LwIP\src\core/tcp.c **** }
 751:Source\LwIP\src\core/tcp.c **** 
 752:Source\LwIP\src\core/tcp.c **** /**
 753:Source\LwIP\src\core/tcp.c ****  * Update the state that tracks the available window space to advertise.
 754:Source\LwIP\src\core/tcp.c ****  *
 755:Source\LwIP\src\core/tcp.c ****  * Returns how much extra window would be advertised if we sent an
 756:Source\LwIP\src\core/tcp.c ****  * update now.
 757:Source\LwIP\src\core/tcp.c ****  */
 758:Source\LwIP\src\core/tcp.c **** u32_t
 759:Source\LwIP\src\core/tcp.c **** tcp_update_rcv_ann_wnd(struct tcp_pcb *pcb)
 760:Source\LwIP\src\core/tcp.c **** {
 761:Source\LwIP\src\core/tcp.c ****   u32_t new_right_edge = pcb->rcv_nxt + pcb->rcv_wnd;
 762:Source\LwIP\src\core/tcp.c **** 
 763:Source\LwIP\src\core/tcp.c ****   if (TCP_SEQ_GEQ(new_right_edge, pcb->rcv_ann_right_edge + LWIP_MIN((TCP_WND / 2), pcb->mss))) {
 764:Source\LwIP\src\core/tcp.c ****     /* we can advertise more window */
 765:Source\LwIP\src\core/tcp.c ****     pcb->rcv_ann_wnd = pcb->rcv_wnd;
 766:Source\LwIP\src\core/tcp.c ****     return new_right_edge - pcb->rcv_ann_right_edge;
 767:Source\LwIP\src\core/tcp.c ****   } else {
 768:Source\LwIP\src\core/tcp.c ****     if (TCP_SEQ_GT(pcb->rcv_nxt, pcb->rcv_ann_right_edge)) {
 769:Source\LwIP\src\core/tcp.c ****       /* Can happen due to other end sending out of advertised window,
 770:Source\LwIP\src\core/tcp.c ****        * but within actual available (but not yet advertised) window */
 771:Source\LwIP\src\core/tcp.c ****       pcb->rcv_ann_wnd = 0;
 772:Source\LwIP\src\core/tcp.c ****     } else {
 773:Source\LwIP\src\core/tcp.c ****       /* keep the right edge of window constant */
 774:Source\LwIP\src\core/tcp.c ****       u32_t new_rcv_ann_wnd = pcb->rcv_ann_right_edge - pcb->rcv_nxt;
 775:Source\LwIP\src\core/tcp.c **** #if !LWIP_WND_SCALE
 776:Source\LwIP\src\core/tcp.c ****       LWIP_ASSERT("new_rcv_ann_wnd <= 0xffff", new_rcv_ann_wnd <= 0xffff);
 777:Source\LwIP\src\core/tcp.c **** #endif
 778:Source\LwIP\src\core/tcp.c ****       pcb->rcv_ann_wnd = (tcpwnd_size_t)new_rcv_ann_wnd;
 779:Source\LwIP\src\core/tcp.c ****     }
 780:Source\LwIP\src\core/tcp.c ****     return 0;
 781:Source\LwIP\src\core/tcp.c ****   }
 782:Source\LwIP\src\core/tcp.c **** }
 783:Source\LwIP\src\core/tcp.c **** 
 784:Source\LwIP\src\core/tcp.c **** /**
 785:Source\LwIP\src\core/tcp.c ****  * @ingroup tcp_raw
 786:Source\LwIP\src\core/tcp.c ****  * This function should be called by the application when it has
 787:Source\LwIP\src\core/tcp.c ****  * processed the data. The purpose is to advertise a larger window
 788:Source\LwIP\src\core/tcp.c ****  * when the data has been processed.
 789:Source\LwIP\src\core/tcp.c ****  *
 790:Source\LwIP\src\core/tcp.c ****  * @param pcb the tcp_pcb for which data is read
 791:Source\LwIP\src\core/tcp.c ****  * @param len the amount of bytes that have been read by the application
 792:Source\LwIP\src\core/tcp.c ****  */
ARM GAS  C:\Users\Phuong\AppData\Local\Temp\cczg95Bp.s 			page 17


 793:Source\LwIP\src\core/tcp.c **** void
 794:Source\LwIP\src\core/tcp.c **** tcp_recved(struct tcp_pcb *pcb, u16_t len)
 795:Source\LwIP\src\core/tcp.c **** {
 796:Source\LwIP\src\core/tcp.c ****   int wnd_inflation;
 797:Source\LwIP\src\core/tcp.c **** 
 798:Source\LwIP\src\core/tcp.c ****   /* pcb->state LISTEN not allowed here */
 799:Source\LwIP\src\core/tcp.c ****   LWIP_ASSERT("don't call tcp_recved for listen-pcbs",
 800:Source\LwIP\src\core/tcp.c ****     pcb->state != LISTEN);
 801:Source\LwIP\src\core/tcp.c **** 
 802:Source\LwIP\src\core/tcp.c ****   pcb->rcv_wnd += len;
 803:Source\LwIP\src\core/tcp.c ****   if (pcb->rcv_wnd > TCP_WND_MAX(pcb)) {
 804:Source\LwIP\src\core/tcp.c ****     pcb->rcv_wnd = TCP_WND_MAX(pcb);
 805:Source\LwIP\src\core/tcp.c ****   } else if (pcb->rcv_wnd == 0) {
 806:Source\LwIP\src\core/tcp.c ****     /* rcv_wnd overflowed */
 807:Source\LwIP\src\core/tcp.c ****     if ((pcb->state == CLOSE_WAIT) || (pcb->state == LAST_ACK)) {
 808:Source\LwIP\src\core/tcp.c ****       /* In passive close, we allow this, since the FIN bit is added to rcv_wnd
 809:Source\LwIP\src\core/tcp.c ****          by the stack itself, since it is not mandatory for an application
 810:Source\LwIP\src\core/tcp.c ****          to call tcp_recved() for the FIN bit, but e.g. the netconn API does so. */
 811:Source\LwIP\src\core/tcp.c ****       pcb->rcv_wnd = TCP_WND_MAX(pcb);
 812:Source\LwIP\src\core/tcp.c ****     } else {
 813:Source\LwIP\src\core/tcp.c ****       LWIP_ASSERT("tcp_recved: len wrapped rcv_wnd\n", 0);
 814:Source\LwIP\src\core/tcp.c ****     }
 815:Source\LwIP\src\core/tcp.c ****   }
 816:Source\LwIP\src\core/tcp.c **** 
 817:Source\LwIP\src\core/tcp.c ****   wnd_inflation = tcp_update_rcv_ann_wnd(pcb);
 818:Source\LwIP\src\core/tcp.c **** 
 819:Source\LwIP\src\core/tcp.c ****   /* If the change in the right edge of window is significant (default
 820:Source\LwIP\src\core/tcp.c ****    * watermark is TCP_WND/4), then send an explicit update now.
 821:Source\LwIP\src\core/tcp.c ****    * Otherwise wait for a packet to be sent in the normal course of
 822:Source\LwIP\src\core/tcp.c ****    * events (or more window to be available later) */
 823:Source\LwIP\src\core/tcp.c ****   if (wnd_inflation >= TCP_WND_UPDATE_THRESHOLD) {
 824:Source\LwIP\src\core/tcp.c ****     tcp_ack_now(pcb);
 825:Source\LwIP\src\core/tcp.c ****     tcp_output(pcb);
 826:Source\LwIP\src\core/tcp.c ****   }
 827:Source\LwIP\src\core/tcp.c **** 
 828:Source\LwIP\src\core/tcp.c ****   LWIP_DEBUGF(TCP_DEBUG, ("tcp_recved: received %"U16_F" bytes, wnd %"TCPWNDSIZE_F" (%"TCPWNDSIZE_F
 829:Source\LwIP\src\core/tcp.c ****          len, pcb->rcv_wnd, (u16_t)(TCP_WND_MAX(pcb) - pcb->rcv_wnd)));
 830:Source\LwIP\src\core/tcp.c **** }
 831:Source\LwIP\src\core/tcp.c **** 
 832:Source\LwIP\src\core/tcp.c **** /**
 833:Source\LwIP\src\core/tcp.c ****  * Allocate a new local TCP port.
 834:Source\LwIP\src\core/tcp.c ****  *
 835:Source\LwIP\src\core/tcp.c ****  * @return a new (free) local TCP port number
 836:Source\LwIP\src\core/tcp.c ****  */
 837:Source\LwIP\src\core/tcp.c **** static u16_t
 838:Source\LwIP\src\core/tcp.c **** tcp_new_port(void)
 839:Source\LwIP\src\core/tcp.c **** {
 117              		.loc 1 839 0
 118              		.cfi_startproc
 119              		@ args = 0, pretend = 0, frame = 0
 120              		@ frame_needed = 0, uses_anonymous_args = 0
 121 0000 10B5     		push	{r4, lr}
 122              		.cfi_def_cfa_offset 8
 123              		.cfi_offset 4, -8
 124              		.cfi_offset 14, -4
 125              	.LVL10:
 840:Source\LwIP\src\core/tcp.c ****   u8_t i;
ARM GAS  C:\Users\Phuong\AppData\Local\Temp\cczg95Bp.s 			page 18


 841:Source\LwIP\src\core/tcp.c ****   u16_t n = 0;
 126              		.loc 1 841 0
 127 0002 0024     		movs	r4, #0
 128              	.LVL11:
 129              	.L11:
 842:Source\LwIP\src\core/tcp.c ****   struct tcp_pcb *pcb;
 843:Source\LwIP\src\core/tcp.c **** 
 844:Source\LwIP\src\core/tcp.c **** again:
 845:Source\LwIP\src\core/tcp.c ****   if (tcp_port++ == TCP_LOCAL_PORT_RANGE_END) {
 130              		.loc 1 845 0
 131 0004 134A     		ldr	r2, .L20
 132 0006 1388     		ldrh	r3, [r2]
 133 0008 591C     		adds	r1, r3, #1
 134 000a 1180     		strh	r1, [r2]
 135 000c 124A     		ldr	r2, .L20+4
 136 000e 9342     		cmp	r3, r2
 137 0010 02D1     		bne	.L12
 846:Source\LwIP\src\core/tcp.c ****     tcp_port = TCP_LOCAL_PORT_RANGE_START;
 138              		.loc 1 846 0
 139 0012 124A     		ldr	r2, .L20+8
 140 0014 0F4B     		ldr	r3, .L20
 141 0016 1A80     		strh	r2, [r3]
 142              	.L12:
 143              	.LVL12:
 847:Source\LwIP\src\core/tcp.c ****   }
 848:Source\LwIP\src\core/tcp.c ****   /* Check all PCB lists. */
 849:Source\LwIP\src\core/tcp.c ****   for (i = 0; i < NUM_TCP_PCB_LISTS; i++) {
 144              		.loc 1 849 0
 145 0018 0020     		movs	r0, #0
 146 001a 14E0     		b	.L13
 147              	.LVL13:
 148              	.L18:
 850:Source\LwIP\src\core/tcp.c ****     for (pcb = *tcp_pcb_lists[i]; pcb != NULL; pcb = pcb->next) {
 149              		.loc 1 850 0
 150 001c 8300     		lsls	r3, r0, #2
 151 001e 104A     		ldr	r2, .L20+12
 152 0020 9B58     		ldr	r3, [r3, r2]
 153 0022 1B68     		ldr	r3, [r3]
 154              	.LVL14:
 155 0024 0BE0     		b	.L14
 156              	.L17:
 851:Source\LwIP\src\core/tcp.c ****       if (pcb->local_port == tcp_port) {
 157              		.loc 1 851 0
 158 0026 D98A     		ldrh	r1, [r3, #22]
 159 0028 0A4A     		ldr	r2, .L20
 160 002a 1288     		ldrh	r2, [r2]
 161 002c 9142     		cmp	r1, r2
 162 002e 05D1     		bne	.L15
 852:Source\LwIP\src\core/tcp.c ****         if (++n > (TCP_LOCAL_PORT_RANGE_END - TCP_LOCAL_PORT_RANGE_START)) {
 163              		.loc 1 852 0
 164 0030 0134     		adds	r4, r4, #1
 165              	.LVL15:
 166 0032 A4B2     		uxth	r4, r4
 167              	.LVL16:
 168 0034 0B4B     		ldr	r3, .L20+16
 169              	.LVL17:
 170 0036 9C42     		cmp	r4, r3
ARM GAS  C:\Users\Phuong\AppData\Local\Temp\cczg95Bp.s 			page 19


 171 0038 E4D9     		bls	.L11
 172 003a 09E0     		b	.L19
 173              	.LVL18:
 174              	.L15:
 850:Source\LwIP\src\core/tcp.c ****     for (pcb = *tcp_pcb_lists[i]; pcb != NULL; pcb = pcb->next) {
 175              		.loc 1 850 0 discriminator 2
 176 003c DB68     		ldr	r3, [r3, #12]
 177              	.LVL19:
 178              	.L14:
 850:Source\LwIP\src\core/tcp.c ****     for (pcb = *tcp_pcb_lists[i]; pcb != NULL; pcb = pcb->next) {
 179              		.loc 1 850 0 is_stmt 0 discriminator 1
 180 003e 002B     		cmp	r3, #0
 181 0040 F1D1     		bne	.L17
 849:Source\LwIP\src\core/tcp.c ****     for (pcb = *tcp_pcb_lists[i]; pcb != NULL; pcb = pcb->next) {
 182              		.loc 1 849 0 is_stmt 1 discriminator 2
 183 0042 0130     		adds	r0, r0, #1
 184              	.LVL20:
 185 0044 C0B2     		uxtb	r0, r0
 186              	.LVL21:
 187              	.L13:
 849:Source\LwIP\src\core/tcp.c ****     for (pcb = *tcp_pcb_lists[i]; pcb != NULL; pcb = pcb->next) {
 188              		.loc 1 849 0 is_stmt 0 discriminator 1
 189 0046 0328     		cmp	r0, #3
 190 0048 E8D9     		bls	.L18
 853:Source\LwIP\src\core/tcp.c ****           return 0;
 854:Source\LwIP\src\core/tcp.c ****         }
 855:Source\LwIP\src\core/tcp.c ****         goto again;
 856:Source\LwIP\src\core/tcp.c ****       }
 857:Source\LwIP\src\core/tcp.c ****     }
 858:Source\LwIP\src\core/tcp.c ****   }
 859:Source\LwIP\src\core/tcp.c ****   return tcp_port;
 191              		.loc 1 859 0 is_stmt 1
 192 004a 024B     		ldr	r3, .L20
 193 004c 1888     		ldrh	r0, [r3]
 194              	.LVL22:
 195 004e 00E0     		b	.L16
 196              	.LVL23:
 197              	.L19:
 853:Source\LwIP\src\core/tcp.c ****           return 0;
 198              		.loc 1 853 0
 199 0050 0020     		movs	r0, #0
 200              	.LVL24:
 201              	.L16:
 860:Source\LwIP\src\core/tcp.c **** }
 202              		.loc 1 860 0
 203              		@ sp needed
 204              	.LVL25:
 205 0052 10BD     		pop	{r4, pc}
 206              	.L21:
 207              		.align	2
 208              	.L20:
 209 0054 00000000 		.word	.LANCHOR1
 210 0058 FFFF0000 		.word	65535
 211 005c 00C0FFFF 		.word	-16384
 212 0060 00000000 		.word	.LANCHOR0
 213 0064 FF3F0000 		.word	16383
 214              		.cfi_endproc
ARM GAS  C:\Users\Phuong\AppData\Local\Temp\cczg95Bp.s 			page 20


 215              	.LFE71:
 216              		.size	tcp_new_port, .-tcp_new_port
 217              		.section	.text.tcp_init,"ax",%progbits
 218              		.align	2
 219              		.global	tcp_init
 220              		.code	16
 221              		.thumb_func
 222              		.type	tcp_init, %function
 223              	tcp_init:
 224              	.LFB53:
 146:Source\LwIP\src\core/tcp.c **** #if LWIP_RANDOMIZE_INITIAL_LOCAL_PORTS && defined(LWIP_RAND)
 225              		.loc 1 146 0
 226              		.cfi_startproc
 227              		@ args = 0, pretend = 0, frame = 0
 228              		@ frame_needed = 0, uses_anonymous_args = 0
 229 0000 10B5     		push	{r4, lr}
 230              		.cfi_def_cfa_offset 8
 231              		.cfi_offset 4, -8
 232              		.cfi_offset 14, -4
 148:Source\LwIP\src\core/tcp.c **** #endif /* LWIP_RANDOMIZE_INITIAL_LOCAL_PORTS && defined(LWIP_RAND) */
 233              		.loc 1 148 0
 234 0002 FFF7FEFF 		bl	sys_rand16
 235              	.LVL26:
 236 0006 8004     		lsls	r0, r0, #18
 237 0008 800C     		lsrs	r0, r0, #18
 238 000a 034B     		ldr	r3, .L23
 239 000c 9C46     		mov	ip, r3
 240 000e 6044     		add	r0, r0, ip
 241 0010 024B     		ldr	r3, .L23+4
 242 0012 1880     		strh	r0, [r3]
 150:Source\LwIP\src\core/tcp.c **** 
 243              		.loc 1 150 0
 244              		@ sp needed
 245 0014 10BD     		pop	{r4, pc}
 246              	.L24:
 247 0016 C046     		.align	2
 248              	.L23:
 249 0018 00C0FFFF 		.word	-16384
 250 001c 00000000 		.word	.LANCHOR1
 251              		.cfi_endproc
 252              	.LFE53:
 253              		.size	tcp_init, .-tcp_init
 254              		.section	.text.tcp_backlog_delayed,"ax",%progbits
 255              		.align	2
 256              		.global	tcp_backlog_delayed
 257              		.code	16
 258              		.thumb_func
 259              		.type	tcp_backlog_delayed, %function
 260              	tcp_backlog_delayed:
 261              	.LFB57:
 214:Source\LwIP\src\core/tcp.c ****   LWIP_ASSERT("pcb != NULL", pcb != NULL);
 262              		.loc 1 214 0
 263              		.cfi_startproc
 264              		@ args = 0, pretend = 0, frame = 0
 265              		@ frame_needed = 0, uses_anonymous_args = 0
 266              		@ link register save eliminated.
 267              	.LVL27:
ARM GAS  C:\Users\Phuong\AppData\Local\Temp\cczg95Bp.s 			page 21


 216:Source\LwIP\src\core/tcp.c ****     if (pcb->listener != NULL) {
 268              		.loc 1 216 0
 269 0000 438B     		ldrh	r3, [r0, #26]
 270 0002 9B05     		lsls	r3, r3, #22
 271 0004 0AD4     		bmi	.L25
 217:Source\LwIP\src\core/tcp.c ****       pcb->listener->accepts_pending++;
 272              		.loc 1 217 0
 273 0006 836F     		ldr	r3, [r0, #120]
 274 0008 002B     		cmp	r3, #0
 275 000a 07D0     		beq	.L25
 218:Source\LwIP\src\core/tcp.c ****       LWIP_ASSERT("accepts_pending != 0", pcb->listener->accepts_pending != 0);
 276              		.loc 1 218 0
 277 000c 5A7F     		ldrb	r2, [r3, #29]
 278 000e 0132     		adds	r2, r2, #1
 279 0010 5A77     		strb	r2, [r3, #29]
 220:Source\LwIP\src\core/tcp.c ****     }
 280              		.loc 1 220 0
 281 0012 438B     		ldrh	r3, [r0, #26]
 282 0014 8022     		movs	r2, #128
 283 0016 9200     		lsls	r2, r2, #2
 284 0018 1343     		orrs	r3, r2
 285 001a 4383     		strh	r3, [r0, #26]
 286              	.L25:
 223:Source\LwIP\src\core/tcp.c **** 
 287              		.loc 1 223 0
 288              		@ sp needed
 289 001c 7047     		bx	lr
 290              		.cfi_endproc
 291              	.LFE57:
 292              		.size	tcp_backlog_delayed, .-tcp_backlog_delayed
 293 001e C046     		.section	.text.tcp_backlog_accepted,"ax",%progbits
 294              		.align	2
 295              		.global	tcp_backlog_accepted
 296              		.code	16
 297              		.thumb_func
 298              		.type	tcp_backlog_accepted, %function
 299              	tcp_backlog_accepted:
 300              	.LFB58:
 236:Source\LwIP\src\core/tcp.c ****   LWIP_ASSERT("pcb != NULL", pcb != NULL);
 301              		.loc 1 236 0
 302              		.cfi_startproc
 303              		@ args = 0, pretend = 0, frame = 0
 304              		@ frame_needed = 0, uses_anonymous_args = 0
 305              		@ link register save eliminated.
 306              	.LVL28:
 238:Source\LwIP\src\core/tcp.c ****     if (pcb->listener != NULL) {
 307              		.loc 1 238 0
 308 0000 438B     		ldrh	r3, [r0, #26]
 309 0002 9B05     		lsls	r3, r3, #22
 310 0004 09D5     		bpl	.L27
 239:Source\LwIP\src\core/tcp.c ****       LWIP_ASSERT("accepts_pending != 0", pcb->listener->accepts_pending != 0);
 311              		.loc 1 239 0
 312 0006 836F     		ldr	r3, [r0, #120]
 313 0008 002B     		cmp	r3, #0
 314 000a 06D0     		beq	.L27
 241:Source\LwIP\src\core/tcp.c ****       pcb->flags &= ~TF_BACKLOGPEND;
 315              		.loc 1 241 0
ARM GAS  C:\Users\Phuong\AppData\Local\Temp\cczg95Bp.s 			page 22


 316 000c 5A7F     		ldrb	r2, [r3, #29]
 317 000e 013A     		subs	r2, r2, #1
 318 0010 5A77     		strb	r2, [r3, #29]
 242:Source\LwIP\src\core/tcp.c ****     }
 319              		.loc 1 242 0
 320 0012 428B     		ldrh	r2, [r0, #26]
 321 0014 014B     		ldr	r3, .L29
 322 0016 1340     		ands	r3, r2
 323 0018 4383     		strh	r3, [r0, #26]
 324              	.L27:
 245:Source\LwIP\src\core/tcp.c **** #endif /* TCP_LISTEN_BACKLOG */
 325              		.loc 1 245 0
 326              		@ sp needed
 327 001a 7047     		bx	lr
 328              	.L30:
 329              		.align	2
 330              	.L29:
 331 001c FFFDFFFF 		.word	-513
 332              		.cfi_endproc
 333              	.LFE58:
 334              		.size	tcp_backlog_accepted, .-tcp_backlog_accepted
 335              		.section	.text.tcp_close_shutdown_fin,"ax",%progbits
 336              		.align	2
 337              		.code	16
 338              		.thumb_func
 339              		.type	tcp_close_shutdown_fin, %function
 340              	tcp_close_shutdown_fin:
 341              	.LFB60:
 331:Source\LwIP\src\core/tcp.c ****   err_t err;
 342              		.loc 1 331 0
 343              		.cfi_startproc
 344              		@ args = 0, pretend = 0, frame = 0
 345              		@ frame_needed = 0, uses_anonymous_args = 0
 346              	.LVL29:
 347 0000 70B5     		push	{r4, r5, r6, lr}
 348              		.cfi_def_cfa_offset 16
 349              		.cfi_offset 4, -16
 350              		.cfi_offset 5, -12
 351              		.cfi_offset 6, -8
 352              		.cfi_offset 14, -4
 353 0002 0500     		movs	r5, r0
 335:Source\LwIP\src\core/tcp.c ****   case SYN_RCVD:
 354              		.loc 1 335 0
 355 0004 037D     		ldrb	r3, [r0, #20]
 356 0006 042B     		cmp	r3, #4
 357 0008 0DD0     		beq	.L33
 358 000a 072B     		cmp	r3, #7
 359 000c 12D0     		beq	.L34
 360 000e 032B     		cmp	r3, #3
 361 0010 25D1     		bne	.L40
 337:Source\LwIP\src\core/tcp.c ****     if (err == ERR_OK) {
 362              		.loc 1 337 0
 363 0012 FFF7FEFF 		bl	tcp_send_fin
 364              	.LVL30:
 365 0016 041E     		subs	r4, r0, #0
 366              	.LVL31:
 338:Source\LwIP\src\core/tcp.c ****       tcp_backlog_accepted(pcb);
ARM GAS  C:\Users\Phuong\AppData\Local\Temp\cczg95Bp.s 			page 23


 367              		.loc 1 338 0
 368 0018 12D1     		bne	.L36
 339:Source\LwIP\src\core/tcp.c ****       MIB2_STATS_INC(mib2.tcpattemptfails);
 369              		.loc 1 339 0
 370 001a 2800     		movs	r0, r5
 371              	.LVL32:
 372 001c FFF7FEFF 		bl	tcp_backlog_accepted
 373              	.LVL33:
 341:Source\LwIP\src\core/tcp.c ****     }
 374              		.loc 1 341 0
 375 0020 0523     		movs	r3, #5
 376 0022 2B75     		strb	r3, [r5, #20]
 377 0024 0CE0     		b	.L36
 378              	.LVL34:
 379              	.L33:
 345:Source\LwIP\src\core/tcp.c ****     if (err == ERR_OK) {
 380              		.loc 1 345 0
 381 0026 FFF7FEFF 		bl	tcp_send_fin
 382              	.LVL35:
 383 002a 041E     		subs	r4, r0, #0
 384              	.LVL36:
 346:Source\LwIP\src\core/tcp.c ****       MIB2_STATS_INC(mib2.tcpestabresets);
 385              		.loc 1 346 0
 386 002c 08D1     		bne	.L36
 348:Source\LwIP\src\core/tcp.c ****     }
 387              		.loc 1 348 0
 388 002e 0523     		movs	r3, #5
 389 0030 2B75     		strb	r3, [r5, #20]
 390 0032 05E0     		b	.L36
 391              	.LVL37:
 392              	.L34:
 352:Source\LwIP\src\core/tcp.c ****     if (err == ERR_OK) {
 393              		.loc 1 352 0
 394 0034 FFF7FEFF 		bl	tcp_send_fin
 395              	.LVL38:
 396 0038 041E     		subs	r4, r0, #0
 397              	.LVL39:
 353:Source\LwIP\src\core/tcp.c ****       MIB2_STATS_INC(mib2.tcpestabresets);
 398              		.loc 1 353 0
 399 003a 01D1     		bne	.L36
 355:Source\LwIP\src\core/tcp.c ****     }
 400              		.loc 1 355 0
 401 003c 0923     		movs	r3, #9
 402 003e 2B75     		strb	r3, [r5, #20]
 403              	.LVL40:
 404              	.L36:
 363:Source\LwIP\src\core/tcp.c ****     /* To ensure all data has been sent when tcp_close returns, we have
 405              		.loc 1 363 0
 406 0040 002C     		cmp	r4, #0
 407 0042 04D1     		bne	.L37
 369:Source\LwIP\src\core/tcp.c ****   } else if (err == ERR_MEM) {
 408              		.loc 1 369 0
 409 0044 2800     		movs	r0, r5
 410 0046 FFF7FEFF 		bl	tcp_output
 411              	.LVL41:
 380:Source\LwIP\src\core/tcp.c **** }
 412              		.loc 1 380 0
ARM GAS  C:\Users\Phuong\AppData\Local\Temp\cczg95Bp.s 			page 24


 413 004a 2000     		movs	r0, r4
 414 004c 0AE0     		b	.L32
 415              	.L37:
 370:Source\LwIP\src\core/tcp.c ****     /* Mark this pcb for closing. Closing is retried from tcp_tmr. */
 416              		.loc 1 370 0
 417 004e 631C     		adds	r3, r4, #1
 418 0050 07D1     		bne	.L39
 372:Source\LwIP\src\core/tcp.c ****     /* We have to return ERR_OK from here to indicate to the callers that this
 419              		.loc 1 372 0
 420 0052 6A8B     		ldrh	r2, [r5, #26]
 421 0054 0823     		movs	r3, #8
 422 0056 1343     		orrs	r3, r2
 423 0058 6B83     		strh	r3, [r5, #26]
 378:Source\LwIP\src\core/tcp.c ****   }
 424              		.loc 1 378 0
 425 005a 0020     		movs	r0, #0
 426 005c 02E0     		b	.L32
 427              	.LVL42:
 428              	.L40:
 360:Source\LwIP\src\core/tcp.c ****   }
 429              		.loc 1 360 0
 430 005e 0020     		movs	r0, #0
 431              	.LVL43:
 432 0060 00E0     		b	.L32
 433              	.LVL44:
 434              	.L39:
 380:Source\LwIP\src\core/tcp.c **** }
 435              		.loc 1 380 0
 436 0062 2000     		movs	r0, r4
 437              	.LVL45:
 438              	.L32:
 381:Source\LwIP\src\core/tcp.c **** 
 439              		.loc 1 381 0
 440              		@ sp needed
 441              	.LVL46:
 442 0064 70BD     		pop	{r4, r5, r6, pc}
 443              		.cfi_endproc
 444              	.LFE60:
 445              		.size	tcp_close_shutdown_fin, .-tcp_close_shutdown_fin
 446 0066 C046     		.section	.text.tcp_bind,"ax",%progbits
 447              		.align	2
 448              		.global	tcp_bind
 449              		.code	16
 450              		.thumb_func
 451              		.type	tcp_bind, %function
 452              	tcp_bind:
 453              	.LFB65:
 563:Source\LwIP\src\core/tcp.c ****   int i;
 454              		.loc 1 563 0
 455              		.cfi_startproc
 456              		@ args = 0, pretend = 0, frame = 0
 457              		@ frame_needed = 0, uses_anonymous_args = 0
 458              	.LVL47:
 459 0000 F8B5     		push	{r3, r4, r5, r6, r7, lr}
 460              		.cfi_def_cfa_offset 24
 461              		.cfi_offset 3, -24
 462              		.cfi_offset 4, -20
ARM GAS  C:\Users\Phuong\AppData\Local\Temp\cczg95Bp.s 			page 25


 463              		.cfi_offset 5, -16
 464              		.cfi_offset 6, -12
 465              		.cfi_offset 7, -8
 466              		.cfi_offset 14, -4
 467 0002 0600     		movs	r6, r0
 468 0004 0C1E     		subs	r4, r1, #0
 469              	.LVL48:
 570:Source\LwIP\src\core/tcp.c ****     ipaddr = IP4_ADDR_ANY;
 470              		.loc 1 570 0
 471 0006 00D1     		bne	.L42
 571:Source\LwIP\src\core/tcp.c ****   }
 472              		.loc 1 571 0
 473 0008 324C     		ldr	r4, .L67
 474              	.L42:
 475              	.LVL49:
 576:Source\LwIP\src\core/tcp.c ****     return ERR_VAL;
 476              		.loc 1 576 0
 477 000a 002E     		cmp	r6, #0
 478 000c 47D0     		beq	.L55
 576:Source\LwIP\src\core/tcp.c ****     return ERR_VAL;
 479              		.loc 1 576 0 is_stmt 0 discriminator 1
 480 000e 002C     		cmp	r4, #0
 481 0010 48D0     		beq	.L56
 580:Source\LwIP\src\core/tcp.c **** 
 482              		.loc 1 580 0 is_stmt 1
 483 0012 337D     		ldrb	r3, [r6, #20]
 484 0014 002B     		cmp	r3, #0
 485 0016 48D1     		bne	.L57
 588:Source\LwIP\src\core/tcp.c ****     max_pcb_list = NUM_TCP_PCB_LISTS_NO_TIME_WAIT;
 486              		.loc 1 588 0
 487 0018 337A     		ldrb	r3, [r6, #8]
 488 001a 0425     		movs	r5, #4
 489 001c 1D40     		ands	r5, r3
 490 001e 02D1     		bne	.L58
 565:Source\LwIP\src\core/tcp.c ****   struct tcp_pcb *cpcb;
 491              		.loc 1 565 0
 492 0020 0423     		movs	r3, #4
 493 0022 9C46     		mov	ip, r3
 494 0024 01E0     		b	.L44
 495              	.L58:
 589:Source\LwIP\src\core/tcp.c ****   }
 496              		.loc 1 589 0
 497 0026 0323     		movs	r3, #3
 498 0028 9C46     		mov	ip, r3
 499              	.L44:
 500              	.LVL50:
 593:Source\LwIP\src\core/tcp.c ****     port = tcp_new_port();
 501              		.loc 1 593 0
 502 002a 002A     		cmp	r2, #0
 503 002c 22D1     		bne	.L59
 594:Source\LwIP\src\core/tcp.c ****     if (port == 0) {
 504              		.loc 1 594 0
 505 002e FFF7FEFF 		bl	tcp_new_port
 506              	.LVL51:
 507 0032 021E     		subs	r2, r0, #0
 508              	.LVL52:
 595:Source\LwIP\src\core/tcp.c ****       return ERR_BUF;
ARM GAS  C:\Users\Phuong\AppData\Local\Temp\cczg95Bp.s 			page 26


 509              		.loc 1 595 0
 510 0034 21D1     		bne	.L46
 511 0036 3BE0     		b	.L60
 512              	.LVL53:
 513              	.L51:
 601:Source\LwIP\src\core/tcp.c ****         if (cpcb->local_port == port) {
 514              		.loc 1 601 0
 515 0038 BB00     		lsls	r3, r7, #2
 516 003a 2749     		ldr	r1, .L67+4
 517 003c 5B58     		ldr	r3, [r3, r1]
 518 003e 1B68     		ldr	r3, [r3]
 519              	.LVL54:
 520 0040 14E0     		b	.L47
 521              	.L50:
 602:Source\LwIP\src\core/tcp.c **** #if SO_REUSE
 522              		.loc 1 602 0
 523 0042 D98A     		ldrh	r1, [r3, #22]
 524 0044 8A42     		cmp	r2, r1
 525 0046 10D1     		bne	.L48
 607:Source\LwIP\src\core/tcp.c ****               !ip_get_option(cpcb, SOF_REUSEADDR))
 526              		.loc 1 607 0
 527 0048 002D     		cmp	r5, #0
 528 004a 02D0     		beq	.L49
 608:Source\LwIP\src\core/tcp.c **** #endif /* SO_REUSE */
 529              		.loc 1 608 0 discriminator 1
 530 004c 197A     		ldrb	r1, [r3, #8]
 607:Source\LwIP\src\core/tcp.c ****               !ip_get_option(cpcb, SOF_REUSEADDR))
 531              		.loc 1 607 0 discriminator 1
 532 004e 4907     		lsls	r1, r1, #29
 533 0050 0BD4     		bmi	.L48
 534              	.L49:
 612:Source\LwIP\src\core/tcp.c ****                 (ip_addr_isany(&cpcb->local_ip) ||
 535              		.loc 1 612 0
 536 0052 002B     		cmp	r3, #0
 537 0054 2FD0     		beq	.L61
 613:Source\LwIP\src\core/tcp.c ****                 ip_addr_isany(ipaddr) ||
 538              		.loc 1 613 0
 539 0056 1968     		ldr	r1, [r3]
 540 0058 0029     		cmp	r1, #0
 541 005a 2FD0     		beq	.L62
 613:Source\LwIP\src\core/tcp.c ****                 ip_addr_isany(ipaddr) ||
 542              		.loc 1 613 0 is_stmt 0 discriminator 1
 543 005c 002C     		cmp	r4, #0
 544 005e 30D0     		beq	.L63
 614:Source\LwIP\src\core/tcp.c ****                 ip_addr_cmp(&cpcb->local_ip, ipaddr))) {
 545              		.loc 1 614 0 is_stmt 1
 546 0060 2068     		ldr	r0, [r4]
 547 0062 0028     		cmp	r0, #0
 548 0064 30D0     		beq	.L64
 612:Source\LwIP\src\core/tcp.c ****                 (ip_addr_isany(&cpcb->local_ip) ||
 549              		.loc 1 612 0
 550 0066 8142     		cmp	r1, r0
 551 0068 31D0     		beq	.L65
 552              	.L48:
 601:Source\LwIP\src\core/tcp.c ****         if (cpcb->local_port == port) {
 553              		.loc 1 601 0 discriminator 2
 554 006a DB68     		ldr	r3, [r3, #12]
ARM GAS  C:\Users\Phuong\AppData\Local\Temp\cczg95Bp.s 			page 27


 555              	.LVL55:
 556              	.L47:
 601:Source\LwIP\src\core/tcp.c ****         if (cpcb->local_port == port) {
 557              		.loc 1 601 0 is_stmt 0 discriminator 1
 558 006c 002B     		cmp	r3, #0
 559 006e E8D1     		bne	.L50
 600:Source\LwIP\src\core/tcp.c ****       for (cpcb = *tcp_pcb_lists[i]; cpcb != NULL; cpcb = cpcb->next) {
 560              		.loc 1 600 0 is_stmt 1 discriminator 2
 561 0070 0137     		adds	r7, r7, #1
 562              	.LVL56:
 563 0072 00E0     		b	.L45
 564              	.LVL57:
 565              	.L59:
 566 0074 0027     		movs	r7, #0
 567              	.LVL58:
 568              	.L45:
 600:Source\LwIP\src\core/tcp.c ****       for (cpcb = *tcp_pcb_lists[i]; cpcb != NULL; cpcb = cpcb->next) {
 569              		.loc 1 600 0 is_stmt 0 discriminator 1
 570 0076 6745     		cmp	r7, ip
 571 0078 DEDB     		blt	.L51
 572              	.LVL59:
 573              	.L46:
 624:Source\LwIP\src\core/tcp.c ****     ip_addr_set(&pcb->local_ip, ipaddr);
 574              		.loc 1 624 0 is_stmt 1
 575 007a 002C     		cmp	r4, #0
 576 007c 06D0     		beq	.L52
 624:Source\LwIP\src\core/tcp.c ****     ip_addr_set(&pcb->local_ip, ipaddr);
 577              		.loc 1 624 0 is_stmt 0 discriminator 1
 578 007e 2368     		ldr	r3, [r4]
 579 0080 002B     		cmp	r3, #0
 580 0082 03D0     		beq	.L52
 625:Source\LwIP\src\core/tcp.c ****   }
 581              		.loc 1 625 0 is_stmt 1
 582 0084 002C     		cmp	r4, #0
 583 0086 00D1     		bne	.L53
 584 0088 0023     		movs	r3, #0
 585              	.L53:
 625:Source\LwIP\src\core/tcp.c ****   }
 586              		.loc 1 625 0 is_stmt 0 discriminator 4
 587 008a 3360     		str	r3, [r6]
 588              	.L52:
 627:Source\LwIP\src\core/tcp.c ****   TCP_REG(&tcp_bound_pcbs, pcb);
 589              		.loc 1 627 0 is_stmt 1
 590 008c F282     		strh	r2, [r6, #22]
 628:Source\LwIP\src\core/tcp.c ****   LWIP_DEBUGF(TCP_DEBUG, ("tcp_bind: bind to port %"U16_F"\n", port));
 591              		.loc 1 628 0
 592 008e 134B     		ldr	r3, .L67+8
 593 0090 1A68     		ldr	r2, [r3]
 594              	.LVL60:
 595 0092 F260     		str	r2, [r6, #12]
 596 0094 1E60     		str	r6, [r3]
 597 0096 FFF7FEFF 		bl	tcp_timer_needed
 598              	.LVL61:
 630:Source\LwIP\src\core/tcp.c **** }
 599              		.loc 1 630 0
 600 009a 0020     		movs	r0, #0
 601 009c 19E0     		b	.L43
ARM GAS  C:\Users\Phuong\AppData\Local\Temp\cczg95Bp.s 			page 28


 602              	.LVL62:
 603              	.L55:
 577:Source\LwIP\src\core/tcp.c ****   }
 604              		.loc 1 577 0
 605 009e 0620     		movs	r0, #6
 606              	.LVL63:
 607 00a0 4042     		rsbs	r0, r0, #0
 608 00a2 16E0     		b	.L43
 609              	.LVL64:
 610              	.L56:
 611 00a4 0620     		movs	r0, #6
 612              	.LVL65:
 613 00a6 4042     		rsbs	r0, r0, #0
 614 00a8 13E0     		b	.L43
 615              	.LVL66:
 616              	.L57:
 580:Source\LwIP\src\core/tcp.c **** 
 617              		.loc 1 580 0
 618 00aa 0620     		movs	r0, #6
 619              	.LVL67:
 620 00ac 4042     		rsbs	r0, r0, #0
 621 00ae 10E0     		b	.L43
 622              	.LVL68:
 623              	.L60:
 596:Source\LwIP\src\core/tcp.c ****     }
 624              		.loc 1 596 0
 625 00b0 0220     		movs	r0, #2
 626              	.LVL69:
 627 00b2 4042     		rsbs	r0, r0, #0
 628 00b4 0DE0     		b	.L43
 629              	.LVL70:
 630              	.L61:
 616:Source\LwIP\src\core/tcp.c ****             }
 631              		.loc 1 616 0
 632 00b6 0820     		movs	r0, #8
 633 00b8 4042     		rsbs	r0, r0, #0
 634 00ba 0AE0     		b	.L43
 635              	.L62:
 636 00bc 0820     		movs	r0, #8
 637 00be 4042     		rsbs	r0, r0, #0
 638 00c0 07E0     		b	.L43
 639              	.L63:
 640 00c2 0820     		movs	r0, #8
 641 00c4 4042     		rsbs	r0, r0, #0
 642 00c6 04E0     		b	.L43
 643              	.L64:
 644 00c8 0820     		movs	r0, #8
 645 00ca 4042     		rsbs	r0, r0, #0
 646 00cc 01E0     		b	.L43
 647              	.L65:
 648 00ce 0820     		movs	r0, #8
 649 00d0 4042     		rsbs	r0, r0, #0
 650              	.LVL71:
 651              	.L43:
 631:Source\LwIP\src\core/tcp.c **** #if LWIP_CALLBACK_API
 652              		.loc 1 631 0
 653              		@ sp needed
ARM GAS  C:\Users\Phuong\AppData\Local\Temp\cczg95Bp.s 			page 29


 654              	.LVL72:
 655              	.LVL73:
 656 00d2 F8BD     		pop	{r3, r4, r5, r6, r7, pc}
 657              	.L68:
 658              		.align	2
 659              	.L67:
 660 00d4 00000000 		.word	ip_addr_any
 661 00d8 00000000 		.word	.LANCHOR0
 662 00dc 00000000 		.word	tcp_bound_pcbs
 663              		.cfi_endproc
 664              	.LFE65:
 665              		.size	tcp_bind, .-tcp_bind
 666              		.section	.text.tcp_listen_with_backlog_and_err,"ax",%progbits
 667              		.align	2
 668              		.global	tcp_listen_with_backlog_and_err
 669              		.code	16
 670              		.thumb_func
 671              		.type	tcp_listen_with_backlog_and_err, %function
 672              	tcp_listen_with_backlog_and_err:
 673              	.LFB68:
 687:Source\LwIP\src\core/tcp.c ****   struct tcp_pcb_listen *lpcb = NULL;
 674              		.loc 1 687 0
 675              		.cfi_startproc
 676              		@ args = 0, pretend = 0, frame = 0
 677              		@ frame_needed = 0, uses_anonymous_args = 0
 678              	.LVL74:
 679 0000 F8B5     		push	{r3, r4, r5, r6, r7, lr}
 680              		.cfi_def_cfa_offset 24
 681              		.cfi_offset 3, -24
 682              		.cfi_offset 4, -20
 683              		.cfi_offset 5, -16
 684              		.cfi_offset 6, -12
 685              		.cfi_offset 7, -8
 686              		.cfi_offset 14, -4
 687 0002 0400     		movs	r4, r0
 688 0004 0D00     		movs	r5, r1
 689 0006 1700     		movs	r7, r2
 690              	.LVL75:
 692:Source\LwIP\src\core/tcp.c **** 
 691              		.loc 1 692 0
 692 0008 037D     		ldrb	r3, [r0, #20]
 693 000a 002B     		cmp	r3, #0
 694 000c 54D1     		bne	.L81
 695:Source\LwIP\src\core/tcp.c ****     lpcb = (struct tcp_pcb_listen*)pcb;
 695              		.loc 1 695 0
 696 000e 012B     		cmp	r3, #1
 697 0010 56D0     		beq	.L82
 701:Source\LwIP\src\core/tcp.c ****     /* Since SOF_REUSEADDR allows reusing a local address before the pcb's usage
 698              		.loc 1 701 0
 699 0012 037A     		ldrb	r3, [r0, #8]
 700 0014 5B07     		lsls	r3, r3, #29
 701 0016 0DD5     		bpl	.L71
 705:Source\LwIP\src\core/tcp.c ****       if ((lpcb->local_port == pcb->local_port) &&
 702              		.loc 1 705 0
 703 0018 314B     		ldr	r3, .L87
 704 001a 1B68     		ldr	r3, [r3]
 705              	.LVL76:
ARM GAS  C:\Users\Phuong\AppData\Local\Temp\cczg95Bp.s 			page 30


 706 001c 08E0     		b	.L72
 707              	.LVL77:
 708              	.L74:
 706:Source\LwIP\src\core/tcp.c ****           ip_addr_cmp(&lpcb->local_ip, &pcb->local_ip)) {
 709              		.loc 1 706 0
 710 001e D98A     		ldrh	r1, [r3, #22]
 711 0020 E28A     		ldrh	r2, [r4, #22]
 712 0022 9142     		cmp	r1, r2
 713 0024 03D1     		bne	.L73
 706:Source\LwIP\src\core/tcp.c ****           ip_addr_cmp(&lpcb->local_ip, &pcb->local_ip)) {
 714              		.loc 1 706 0 is_stmt 0 discriminator 1
 715 0026 1A68     		ldr	r2, [r3]
 716 0028 2168     		ldr	r1, [r4]
 717 002a 8A42     		cmp	r2, r1
 718 002c 4CD0     		beq	.L83
 719              	.L73:
 705:Source\LwIP\src\core/tcp.c ****       if ((lpcb->local_port == pcb->local_port) &&
 720              		.loc 1 705 0 is_stmt 1 discriminator 2
 721 002e DB68     		ldr	r3, [r3, #12]
 722              	.LVL78:
 723              	.L72:
 705:Source\LwIP\src\core/tcp.c ****       if ((lpcb->local_port == pcb->local_port) &&
 724              		.loc 1 705 0 is_stmt 0 discriminator 1
 725 0030 002B     		cmp	r3, #0
 726 0032 F4D1     		bne	.L74
 727              	.LVL79:
 728              	.L71:
 716:Source\LwIP\src\core/tcp.c ****   if (lpcb == NULL) {
 729              		.loc 1 716 0 is_stmt 1
 730 0034 B322     		movs	r2, #179
 731 0036 9200     		lsls	r2, r2, #2
 732 0038 2A49     		ldr	r1, .L87+4
 733 003a 0320     		movs	r0, #3
 734              	.LVL80:
 735 003c FFF7FEFF 		bl	memp_malloc_fn
 736              	.LVL81:
 737 0040 061E     		subs	r6, r0, #0
 738              	.LVL82:
 717:Source\LwIP\src\core/tcp.c ****     res = ERR_MEM;
 739              		.loc 1 717 0
 740 0042 45D0     		beq	.L84
 721:Source\LwIP\src\core/tcp.c ****   lpcb->local_port = pcb->local_port;
 741              		.loc 1 721 0
 742 0044 2369     		ldr	r3, [r4, #16]
 743 0046 0361     		str	r3, [r0, #16]
 722:Source\LwIP\src\core/tcp.c ****   lpcb->state = LISTEN;
 744              		.loc 1 722 0
 745 0048 E38A     		ldrh	r3, [r4, #22]
 746 004a C382     		strh	r3, [r0, #22]
 723:Source\LwIP\src\core/tcp.c ****   lpcb->prio = pcb->prio;
 747              		.loc 1 723 0
 748 004c 0123     		movs	r3, #1
 749 004e 0375     		strb	r3, [r0, #20]
 724:Source\LwIP\src\core/tcp.c ****   lpcb->so_options = pcb->so_options;
 750              		.loc 1 724 0
 751 0050 637D     		ldrb	r3, [r4, #21]
 752 0052 4375     		strb	r3, [r0, #21]
ARM GAS  C:\Users\Phuong\AppData\Local\Temp\cczg95Bp.s 			page 31


 725:Source\LwIP\src\core/tcp.c ****   lpcb->ttl = pcb->ttl;
 753              		.loc 1 725 0
 754 0054 237A     		ldrb	r3, [r4, #8]
 755 0056 0372     		strb	r3, [r0, #8]
 726:Source\LwIP\src\core/tcp.c ****   lpcb->tos = pcb->tos;
 756              		.loc 1 726 0
 757 0058 A37A     		ldrb	r3, [r4, #10]
 758 005a 8372     		strb	r3, [r0, #10]
 727:Source\LwIP\src\core/tcp.c **** #if LWIP_IPV4 && LWIP_IPV6
 759              		.loc 1 727 0
 760 005c 637A     		ldrb	r3, [r4, #9]
 761 005e 4372     		strb	r3, [r0, #9]
 731:Source\LwIP\src\core/tcp.c ****   if (pcb->local_port != 0) {
 762              		.loc 1 731 0
 763 0060 2368     		ldr	r3, [r4]
 764 0062 0360     		str	r3, [r0]
 732:Source\LwIP\src\core/tcp.c ****     TCP_RMV(&tcp_bound_pcbs, pcb);
 765              		.loc 1 732 0
 766 0064 E38A     		ldrh	r3, [r4, #22]
 767 0066 002B     		cmp	r3, #0
 768 0068 12D0     		beq	.L75
 733:Source\LwIP\src\core/tcp.c ****   }
 769              		.loc 1 733 0
 770 006a 1F4B     		ldr	r3, .L87+8
 771 006c 1B68     		ldr	r3, [r3]
 772 006e 9C42     		cmp	r4, r3
 773 0070 0AD1     		bne	.L76
 733:Source\LwIP\src\core/tcp.c ****   }
 774              		.loc 1 733 0 is_stmt 0 discriminator 1
 775 0072 DA68     		ldr	r2, [r3, #12]
 776 0074 1C4B     		ldr	r3, .L87+8
 777 0076 1A60     		str	r2, [r3]
 778 0078 08E0     		b	.L77
 779              	.LVL83:
 780              	.L78:
 781              	.LBB2:
 733:Source\LwIP\src\core/tcp.c ****   }
 782              		.loc 1 733 0 discriminator 9
 783 007a DA68     		ldr	r2, [r3, #12]
 784 007c 9442     		cmp	r4, r2
 785 007e 02D1     		bne	.L85
 733:Source\LwIP\src\core/tcp.c ****   }
 786              		.loc 1 733 0 discriminator 5
 787 0080 E268     		ldr	r2, [r4, #12]
 788 0082 DA60     		str	r2, [r3, #12]
 789 0084 02E0     		b	.L77
 790              	.L85:
 733:Source\LwIP\src\core/tcp.c ****   }
 791              		.loc 1 733 0
 792 0086 1300     		movs	r3, r2
 793              	.LVL84:
 794              	.L76:
 733:Source\LwIP\src\core/tcp.c ****   }
 795              		.loc 1 733 0 discriminator 8
 796 0088 002B     		cmp	r3, #0
 797 008a F6D1     		bne	.L78
 798              	.LVL85:
ARM GAS  C:\Users\Phuong\AppData\Local\Temp\cczg95Bp.s 			page 32


 799              	.L77:
 800              	.LBE2:
 733:Source\LwIP\src\core/tcp.c ****   }
 801              		.loc 1 733 0 discriminator 10
 802 008c 0023     		movs	r3, #0
 803 008e E360     		str	r3, [r4, #12]
 804              	.L75:
 735:Source\LwIP\src\core/tcp.c **** #if LWIP_CALLBACK_API
 805              		.loc 1 735 0 is_stmt 1
 806 0090 2100     		movs	r1, r4
 807 0092 0220     		movs	r0, #2
 808              	.LVL86:
 809 0094 FFF7FEFF 		bl	memp_free
 810              	.LVL87:
 737:Source\LwIP\src\core/tcp.c **** #endif /* LWIP_CALLBACK_API */
 811              		.loc 1 737 0
 812 0098 144B     		ldr	r3, .L87+12
 813 009a B361     		str	r3, [r6, #24]
 740:Source\LwIP\src\core/tcp.c ****   tcp_backlog_set(lpcb, backlog);
 814              		.loc 1 740 0
 815 009c 0023     		movs	r3, #0
 816 009e 7377     		strb	r3, [r6, #29]
 741:Source\LwIP\src\core/tcp.c **** #endif /* TCP_LISTEN_BACKLOG */
 817              		.loc 1 741 0
 818 00a0 002D     		cmp	r5, #0
 819 00a2 00D1     		bne	.L79
 820 00a4 0135     		adds	r5, r5, #1
 821              	.L79:
 741:Source\LwIP\src\core/tcp.c **** #endif /* TCP_LISTEN_BACKLOG */
 822              		.loc 1 741 0 is_stmt 0 discriminator 5
 823 00a6 3577     		strb	r5, [r6, #28]
 743:Source\LwIP\src\core/tcp.c ****   res = ERR_OK;
 824              		.loc 1 743 0 is_stmt 1 discriminator 5
 825 00a8 0D4B     		ldr	r3, .L87
 826 00aa 1A68     		ldr	r2, [r3]
 827 00ac F260     		str	r2, [r6, #12]
 828 00ae 1E60     		str	r6, [r3]
 829 00b0 FFF7FEFF 		bl	tcp_timer_needed
 830              	.LVL88:
 744:Source\LwIP\src\core/tcp.c **** done:
 831              		.loc 1 744 0 discriminator 5
 832 00b4 0023     		movs	r3, #0
 833 00b6 0DE0     		b	.L70
 834              	.LVL89:
 835              	.L81:
 692:Source\LwIP\src\core/tcp.c **** 
 836              		.loc 1 692 0
 837 00b8 0F23     		movs	r3, #15
 838 00ba 5B42     		rsbs	r3, r3, #0
 688:Source\LwIP\src\core/tcp.c ****   err_t res;
 839              		.loc 1 688 0
 840 00bc 0026     		movs	r6, #0
 841 00be 09E0     		b	.L70
 842              	.L82:
 696:Source\LwIP\src\core/tcp.c ****     res = ERR_ALREADY;
 843              		.loc 1 696 0
 844 00c0 0600     		movs	r6, r0
ARM GAS  C:\Users\Phuong\AppData\Local\Temp\cczg95Bp.s 			page 33


 697:Source\LwIP\src\core/tcp.c ****     goto done;
 845              		.loc 1 697 0
 846 00c2 0923     		movs	r3, #9
 847 00c4 5B42     		rsbs	r3, r3, #0
 848 00c6 05E0     		b	.L70
 849              	.LVL90:
 850              	.L83:
 710:Source\LwIP\src\core/tcp.c ****         goto done;
 851              		.loc 1 710 0
 852 00c8 0823     		movs	r3, #8
 853              	.LVL91:
 854 00ca 5B42     		rsbs	r3, r3, #0
 709:Source\LwIP\src\core/tcp.c ****         res = ERR_USE;
 855              		.loc 1 709 0
 856 00cc 0026     		movs	r6, #0
 857 00ce 01E0     		b	.L70
 858              	.LVL92:
 859              	.L84:
 718:Source\LwIP\src\core/tcp.c ****     goto done;
 860              		.loc 1 718 0
 861 00d0 0123     		movs	r3, #1
 862 00d2 5B42     		rsbs	r3, r3, #0
 863              	.LVL93:
 864              	.L70:
 746:Source\LwIP\src\core/tcp.c ****     *err = res;
 865              		.loc 1 746 0
 866 00d4 002F     		cmp	r7, #0
 867 00d6 00D0     		beq	.L80
 747:Source\LwIP\src\core/tcp.c ****   }
 868              		.loc 1 747 0
 869 00d8 3B70     		strb	r3, [r7]
 870              	.L80:
 750:Source\LwIP\src\core/tcp.c **** 
 871              		.loc 1 750 0
 872 00da 3000     		movs	r0, r6
 873              		@ sp needed
 874              	.LVL94:
 875              	.LVL95:
 876              	.LVL96:
 877 00dc F8BD     		pop	{r3, r4, r5, r6, r7, pc}
 878              	.L88:
 879 00de C046     		.align	2
 880              	.L87:
 881 00e0 00000000 		.word	tcp_listen_pcbs
 882 00e4 00000000 		.word	.LC8
 883 00e8 00000000 		.word	tcp_bound_pcbs
 884 00ec 00000000 		.word	tcp_accept_null
 885              		.cfi_endproc
 886              	.LFE68:
 887              		.size	tcp_listen_with_backlog_and_err, .-tcp_listen_with_backlog_and_err
 888              		.section	.text.tcp_listen_with_backlog,"ax",%progbits
 889              		.align	2
 890              		.global	tcp_listen_with_backlog
 891              		.code	16
 892              		.thumb_func
 893              		.type	tcp_listen_with_backlog, %function
 894              	tcp_listen_with_backlog:
ARM GAS  C:\Users\Phuong\AppData\Local\Temp\cczg95Bp.s 			page 34


 895              	.LFB67:
 665:Source\LwIP\src\core/tcp.c ****   return tcp_listen_with_backlog_and_err(pcb, backlog, NULL);
 896              		.loc 1 665 0
 897              		.cfi_startproc
 898              		@ args = 0, pretend = 0, frame = 0
 899              		@ frame_needed = 0, uses_anonymous_args = 0
 900              	.LVL97:
 901 0000 10B5     		push	{r4, lr}
 902              		.cfi_def_cfa_offset 8
 903              		.cfi_offset 4, -8
 904              		.cfi_offset 14, -4
 666:Source\LwIP\src\core/tcp.c **** }
 905              		.loc 1 666 0
 906 0002 0022     		movs	r2, #0
 907 0004 FFF7FEFF 		bl	tcp_listen_with_backlog_and_err
 908              	.LVL98:
 667:Source\LwIP\src\core/tcp.c **** 
 909              		.loc 1 667 0
 910              		@ sp needed
 911 0008 10BD     		pop	{r4, pc}
 912              		.cfi_endproc
 913              	.LFE67:
 914              		.size	tcp_listen_with_backlog, .-tcp_listen_with_backlog
 915 000a C046     		.section	.text.tcp_update_rcv_ann_wnd,"ax",%progbits
 916              		.align	2
 917              		.global	tcp_update_rcv_ann_wnd
 918              		.code	16
 919              		.thumb_func
 920              		.type	tcp_update_rcv_ann_wnd, %function
 921              	tcp_update_rcv_ann_wnd:
 922              	.LFB69:
 760:Source\LwIP\src\core/tcp.c ****   u32_t new_right_edge = pcb->rcv_nxt + pcb->rcv_wnd;
 923              		.loc 1 760 0
 924              		.cfi_startproc
 925              		@ args = 0, pretend = 0, frame = 0
 926              		@ frame_needed = 0, uses_anonymous_args = 0
 927              	.LVL99:
 928 0000 70B5     		push	{r4, r5, r6, lr}
 929              		.cfi_def_cfa_offset 16
 930              		.cfi_offset 4, -16
 931              		.cfi_offset 5, -12
 932              		.cfi_offset 6, -8
 933              		.cfi_offset 14, -4
 761:Source\LwIP\src\core/tcp.c **** 
 934              		.loc 1 761 0
 935 0002 456A     		ldr	r5, [r0, #36]
 936 0004 048D     		ldrh	r4, [r0, #40]
 937 0006 2A19     		adds	r2, r5, r4
 938              	.LVL100:
 763:Source\LwIP\src\core/tcp.c ****     /* we can advertise more window */
 939              		.loc 1 763 0
 940 0008 C16A     		ldr	r1, [r0, #44]
 941 000a 438E     		ldrh	r3, [r0, #50]
 942 000c 0A4E     		ldr	r6, .L96
 943 000e B342     		cmp	r3, r6
 944 0010 00D9     		bls	.L91
 945 0012 3300     		movs	r3, r6
ARM GAS  C:\Users\Phuong\AppData\Local\Temp\cczg95Bp.s 			page 35


 946              	.L91:
 763:Source\LwIP\src\core/tcp.c ****     /* we can advertise more window */
 947              		.loc 1 763 0 is_stmt 0 discriminator 4
 948 0014 5B18     		adds	r3, r3, r1
 949 0016 D31A     		subs	r3, r2, r3
 950 0018 02D4     		bmi	.L92
 765:Source\LwIP\src\core/tcp.c ****     return new_right_edge - pcb->rcv_ann_right_edge;
 951              		.loc 1 765 0 is_stmt 1
 952 001a 4485     		strh	r4, [r0, #42]
 766:Source\LwIP\src\core/tcp.c ****   } else {
 953              		.loc 1 766 0
 954 001c 501A     		subs	r0, r2, r1
 955              	.LVL101:
 956 001e 09E0     		b	.L93
 957              	.LVL102:
 958              	.L92:
 768:Source\LwIP\src\core/tcp.c ****       /* Can happen due to other end sending out of advertised window,
 959              		.loc 1 768 0
 960 0020 6B1A     		subs	r3, r5, r1
 961 0022 002B     		cmp	r3, #0
 962 0024 03DD     		ble	.L94
 771:Source\LwIP\src\core/tcp.c ****     } else {
 963              		.loc 1 771 0
 964 0026 0023     		movs	r3, #0
 965 0028 4385     		strh	r3, [r0, #42]
 780:Source\LwIP\src\core/tcp.c ****   }
 966              		.loc 1 780 0
 967 002a 0020     		movs	r0, #0
 968              	.LVL103:
 969 002c 02E0     		b	.L93
 970              	.LVL104:
 971              	.L94:
 972              	.LBB3:
 774:Source\LwIP\src\core/tcp.c **** #if !LWIP_WND_SCALE
 973              		.loc 1 774 0
 974 002e 491B     		subs	r1, r1, r5
 975              	.LVL105:
 778:Source\LwIP\src\core/tcp.c ****     }
 976              		.loc 1 778 0
 977 0030 4185     		strh	r1, [r0, #42]
 978              	.LBE3:
 780:Source\LwIP\src\core/tcp.c ****   }
 979              		.loc 1 780 0
 980 0032 0020     		movs	r0, #0
 981              	.LVL106:
 982              	.L93:
 782:Source\LwIP\src\core/tcp.c **** 
 983              		.loc 1 782 0
 984              		@ sp needed
 985 0034 70BD     		pop	{r4, r5, r6, pc}
 986              	.L97:
 987 0036 C046     		.align	2
 988              	.L96:
 989 0038 680B0000 		.word	2920
 990              		.cfi_endproc
 991              	.LFE69:
 992              		.size	tcp_update_rcv_ann_wnd, .-tcp_update_rcv_ann_wnd
ARM GAS  C:\Users\Phuong\AppData\Local\Temp\cczg95Bp.s 			page 36


 993              		.section	.text.tcp_recved,"ax",%progbits
 994              		.align	2
 995              		.global	tcp_recved
 996              		.code	16
 997              		.thumb_func
 998              		.type	tcp_recved, %function
 999              	tcp_recved:
 1000              	.LFB70:
 795:Source\LwIP\src\core/tcp.c ****   int wnd_inflation;
 1001              		.loc 1 795 0
 1002              		.cfi_startproc
 1003              		@ args = 0, pretend = 0, frame = 0
 1004              		@ frame_needed = 0, uses_anonymous_args = 0
 1005              	.LVL107:
 1006 0000 10B5     		push	{r4, lr}
 1007              		.cfi_def_cfa_offset 8
 1008              		.cfi_offset 4, -8
 1009              		.cfi_offset 14, -4
 1010 0002 0400     		movs	r4, r0
 802:Source\LwIP\src\core/tcp.c ****   if (pcb->rcv_wnd > TCP_WND_MAX(pcb)) {
 1011              		.loc 1 802 0
 1012 0004 038D     		ldrh	r3, [r0, #40]
 1013 0006 C918     		adds	r1, r1, r3
 1014              	.LVL108:
 1015 0008 89B2     		uxth	r1, r1
 1016 000a 0185     		strh	r1, [r0, #40]
 803:Source\LwIP\src\core/tcp.c ****     pcb->rcv_wnd = TCP_WND_MAX(pcb);
 1017              		.loc 1 803 0
 1018 000c 0D4B     		ldr	r3, .L103
 1019 000e 9942     		cmp	r1, r3
 1020 0010 01D9     		bls	.L99
 804:Source\LwIP\src\core/tcp.c ****   } else if (pcb->rcv_wnd == 0) {
 1021              		.loc 1 804 0
 1022 0012 0385     		strh	r3, [r0, #40]
 1023 0014 08E0     		b	.L100
 1024              	.L99:
 805:Source\LwIP\src\core/tcp.c ****     /* rcv_wnd overflowed */
 1025              		.loc 1 805 0
 1026 0016 0029     		cmp	r1, #0
 1027 0018 06D1     		bne	.L100
 807:Source\LwIP\src\core/tcp.c ****       /* In passive close, we allow this, since the FIN bit is added to rcv_wnd
 1028              		.loc 1 807 0
 1029 001a 037D     		ldrb	r3, [r0, #20]
 1030 001c 072B     		cmp	r3, #7
 1031 001e 01D0     		beq	.L101
 807:Source\LwIP\src\core/tcp.c ****       /* In passive close, we allow this, since the FIN bit is added to rcv_wnd
 1032              		.loc 1 807 0 is_stmt 0 discriminator 1
 1033 0020 092B     		cmp	r3, #9
 1034 0022 01D1     		bne	.L100
 1035              	.L101:
 811:Source\LwIP\src\core/tcp.c ****     } else {
 1036              		.loc 1 811 0 is_stmt 1
 1037 0024 074B     		ldr	r3, .L103
 1038 0026 2385     		strh	r3, [r4, #40]
 1039              	.L100:
 817:Source\LwIP\src\core/tcp.c **** 
 1040              		.loc 1 817 0
ARM GAS  C:\Users\Phuong\AppData\Local\Temp\cczg95Bp.s 			page 37


 1041 0028 2000     		movs	r0, r4
 1042              	.LVL109:
 1043 002a FFF7FEFF 		bl	tcp_update_rcv_ann_wnd
 1044              	.LVL110:
 823:Source\LwIP\src\core/tcp.c ****     tcp_ack_now(pcb);
 1045              		.loc 1 823 0
 1046 002e 064B     		ldr	r3, .L103+4
 1047 0030 9842     		cmp	r0, r3
 1048 0032 06DD     		ble	.L98
 824:Source\LwIP\src\core/tcp.c ****     tcp_output(pcb);
 1049              		.loc 1 824 0
 1050 0034 628B     		ldrh	r2, [r4, #26]
 1051 0036 0223     		movs	r3, #2
 1052 0038 1343     		orrs	r3, r2
 1053 003a 6383     		strh	r3, [r4, #26]
 825:Source\LwIP\src\core/tcp.c ****   }
 1054              		.loc 1 825 0
 1055 003c 2000     		movs	r0, r4
 1056              	.LVL111:
 1057 003e FFF7FEFF 		bl	tcp_output
 1058              	.LVL112:
 1059              	.L98:
 830:Source\LwIP\src\core/tcp.c **** 
 1060              		.loc 1 830 0
 1061              		@ sp needed
 1062              	.LVL113:
 1063 0042 10BD     		pop	{r4, pc}
 1064              	.L104:
 1065              		.align	2
 1066              	.L103:
 1067 0044 D0160000 		.word	5840
 1068 0048 B3050000 		.word	1459
 1069              		.cfi_endproc
 1070              	.LFE70:
 1071              		.size	tcp_recved, .-tcp_recved
 1072              		.section	.text.tcp_txnow,"ax",%progbits
 1073              		.align	2
 1074              		.global	tcp_txnow
 1075              		.code	16
 1076              		.thumb_func
 1077              		.type	tcp_txnow, %function
 1078              	tcp_txnow:
 1079              	.LFB75:
 861:Source\LwIP\src\core/tcp.c **** 
 862:Source\LwIP\src\core/tcp.c **** /**
 863:Source\LwIP\src\core/tcp.c ****  * @ingroup tcp_raw
 864:Source\LwIP\src\core/tcp.c ****  * Connects to another host. The function given as the "connected"
 865:Source\LwIP\src\core/tcp.c ****  * argument will be called when the connection has been established.
 866:Source\LwIP\src\core/tcp.c ****  *
 867:Source\LwIP\src\core/tcp.c ****  * @param pcb the tcp_pcb used to establish the connection
 868:Source\LwIP\src\core/tcp.c ****  * @param ipaddr the remote ip address to connect to
 869:Source\LwIP\src\core/tcp.c ****  * @param port the remote tcp port to connect to
 870:Source\LwIP\src\core/tcp.c ****  * @param connected callback function to call when connected (on error,
 871:Source\LwIP\src\core/tcp.c ****                     the err calback will be called)
 872:Source\LwIP\src\core/tcp.c ****  * @return ERR_VAL if invalid arguments are given
 873:Source\LwIP\src\core/tcp.c ****  *         ERR_OK if connect request has been sent
 874:Source\LwIP\src\core/tcp.c ****  *         other err_t values if connect request couldn't be sent
ARM GAS  C:\Users\Phuong\AppData\Local\Temp\cczg95Bp.s 			page 38


 875:Source\LwIP\src\core/tcp.c ****  */
 876:Source\LwIP\src\core/tcp.c **** err_t
 877:Source\LwIP\src\core/tcp.c **** tcp_connect(struct tcp_pcb *pcb, const ip_addr_t *ipaddr, u16_t port,
 878:Source\LwIP\src\core/tcp.c ****       tcp_connected_fn connected)
 879:Source\LwIP\src\core/tcp.c **** {
 880:Source\LwIP\src\core/tcp.c ****   err_t ret;
 881:Source\LwIP\src\core/tcp.c ****   u32_t iss;
 882:Source\LwIP\src\core/tcp.c ****   u16_t old_local_port;
 883:Source\LwIP\src\core/tcp.c **** 
 884:Source\LwIP\src\core/tcp.c ****   if ((pcb == NULL) || (ipaddr == NULL)) {
 885:Source\LwIP\src\core/tcp.c ****     return ERR_VAL;
 886:Source\LwIP\src\core/tcp.c ****   }
 887:Source\LwIP\src\core/tcp.c **** 
 888:Source\LwIP\src\core/tcp.c ****   LWIP_ERROR("tcp_connect: can only connect from state CLOSED", pcb->state == CLOSED, return ERR_IS
 889:Source\LwIP\src\core/tcp.c **** 
 890:Source\LwIP\src\core/tcp.c ****   LWIP_DEBUGF(TCP_DEBUG, ("tcp_connect to port %"U16_F"\n", port));
 891:Source\LwIP\src\core/tcp.c ****   ip_addr_set(&pcb->remote_ip, ipaddr);
 892:Source\LwIP\src\core/tcp.c ****   pcb->remote_port = port;
 893:Source\LwIP\src\core/tcp.c **** 
 894:Source\LwIP\src\core/tcp.c ****   /* check if we have a route to the remote host */
 895:Source\LwIP\src\core/tcp.c ****   if (ip_addr_isany(&pcb->local_ip)) {
 896:Source\LwIP\src\core/tcp.c ****     /* no local IP address set, yet. */
 897:Source\LwIP\src\core/tcp.c ****     struct netif *netif;
 898:Source\LwIP\src\core/tcp.c ****     const ip_addr_t *local_ip;
 899:Source\LwIP\src\core/tcp.c ****     ip_route_get_local_ip(&pcb->local_ip, &pcb->remote_ip, netif, local_ip);
 900:Source\LwIP\src\core/tcp.c ****     if ((netif == NULL) || (local_ip == NULL)) {
 901:Source\LwIP\src\core/tcp.c ****       /* Don't even try to send a SYN packet if we have no route
 902:Source\LwIP\src\core/tcp.c ****          since that will fail. */
 903:Source\LwIP\src\core/tcp.c ****       return ERR_RTE;
 904:Source\LwIP\src\core/tcp.c ****     }
 905:Source\LwIP\src\core/tcp.c ****     /* Use the address as local address of the pcb. */
 906:Source\LwIP\src\core/tcp.c ****     ip_addr_copy(pcb->local_ip, *local_ip);
 907:Source\LwIP\src\core/tcp.c ****   }
 908:Source\LwIP\src\core/tcp.c **** 
 909:Source\LwIP\src\core/tcp.c ****   old_local_port = pcb->local_port;
 910:Source\LwIP\src\core/tcp.c ****   if (pcb->local_port == 0) {
 911:Source\LwIP\src\core/tcp.c ****     pcb->local_port = tcp_new_port();
 912:Source\LwIP\src\core/tcp.c ****     if (pcb->local_port == 0) {
 913:Source\LwIP\src\core/tcp.c ****       return ERR_BUF;
 914:Source\LwIP\src\core/tcp.c ****     }
 915:Source\LwIP\src\core/tcp.c ****   } else {
 916:Source\LwIP\src\core/tcp.c **** #if SO_REUSE
 917:Source\LwIP\src\core/tcp.c ****     if (ip_get_option(pcb, SOF_REUSEADDR)) {
 918:Source\LwIP\src\core/tcp.c ****       /* Since SOF_REUSEADDR allows reusing a local address, we have to make sure
 919:Source\LwIP\src\core/tcp.c ****          now that the 5-tuple is unique. */
 920:Source\LwIP\src\core/tcp.c ****       struct tcp_pcb *cpcb;
 921:Source\LwIP\src\core/tcp.c ****       int i;
 922:Source\LwIP\src\core/tcp.c ****       /* Don't check listen- and bound-PCBs, check active- and TIME-WAIT PCBs. */
 923:Source\LwIP\src\core/tcp.c ****       for (i = 2; i < NUM_TCP_PCB_LISTS; i++) {
 924:Source\LwIP\src\core/tcp.c ****         for (cpcb = *tcp_pcb_lists[i]; cpcb != NULL; cpcb = cpcb->next) {
 925:Source\LwIP\src\core/tcp.c ****           if ((cpcb->local_port == pcb->local_port) &&
 926:Source\LwIP\src\core/tcp.c ****               (cpcb->remote_port == port) &&
 927:Source\LwIP\src\core/tcp.c ****               ip_addr_cmp(&cpcb->local_ip, &pcb->local_ip) &&
 928:Source\LwIP\src\core/tcp.c ****               ip_addr_cmp(&cpcb->remote_ip, ipaddr)) {
 929:Source\LwIP\src\core/tcp.c ****             /* linux returns EISCONN here, but ERR_USE should be OK for us */
 930:Source\LwIP\src\core/tcp.c ****             return ERR_USE;
 931:Source\LwIP\src\core/tcp.c ****           }
ARM GAS  C:\Users\Phuong\AppData\Local\Temp\cczg95Bp.s 			page 39


 932:Source\LwIP\src\core/tcp.c ****         }
 933:Source\LwIP\src\core/tcp.c ****       }
 934:Source\LwIP\src\core/tcp.c ****     }
 935:Source\LwIP\src\core/tcp.c **** #endif /* SO_REUSE */
 936:Source\LwIP\src\core/tcp.c ****   }
 937:Source\LwIP\src\core/tcp.c **** 
 938:Source\LwIP\src\core/tcp.c ****   iss = tcp_next_iss(pcb);
 939:Source\LwIP\src\core/tcp.c ****   pcb->rcv_nxt = 0;
 940:Source\LwIP\src\core/tcp.c ****   pcb->snd_nxt = iss;
 941:Source\LwIP\src\core/tcp.c ****   pcb->lastack = iss - 1;
 942:Source\LwIP\src\core/tcp.c ****   pcb->snd_wl2 = iss - 1;
 943:Source\LwIP\src\core/tcp.c ****   pcb->snd_lbb = iss - 1;
 944:Source\LwIP\src\core/tcp.c ****   /* Start with a window that does not need scaling. When window scaling is
 945:Source\LwIP\src\core/tcp.c ****      enabled and used, the window is enlarged when both sides agree on scaling. */
 946:Source\LwIP\src\core/tcp.c ****   pcb->rcv_wnd = pcb->rcv_ann_wnd = TCPWND_MIN16(TCP_WND);
 947:Source\LwIP\src\core/tcp.c ****   pcb->rcv_ann_right_edge = pcb->rcv_nxt;
 948:Source\LwIP\src\core/tcp.c ****   pcb->snd_wnd = TCP_WND;
 949:Source\LwIP\src\core/tcp.c ****   /* As initial send MSS, we use TCP_MSS but limit it to 536.
 950:Source\LwIP\src\core/tcp.c ****      The send MSS is updated when an MSS option is received. */
 951:Source\LwIP\src\core/tcp.c ****   pcb->mss = INITIAL_MSS;
 952:Source\LwIP\src\core/tcp.c **** #if TCP_CALCULATE_EFF_SEND_MSS
 953:Source\LwIP\src\core/tcp.c ****   pcb->mss = tcp_eff_send_mss(pcb->mss, &pcb->local_ip, &pcb->remote_ip);
 954:Source\LwIP\src\core/tcp.c **** #endif /* TCP_CALCULATE_EFF_SEND_MSS */
 955:Source\LwIP\src\core/tcp.c ****   pcb->cwnd = 1;
 956:Source\LwIP\src\core/tcp.c **** #if LWIP_CALLBACK_API
 957:Source\LwIP\src\core/tcp.c ****   pcb->connected = connected;
 958:Source\LwIP\src\core/tcp.c **** #else /* LWIP_CALLBACK_API */
 959:Source\LwIP\src\core/tcp.c ****   LWIP_UNUSED_ARG(connected);
 960:Source\LwIP\src\core/tcp.c **** #endif /* LWIP_CALLBACK_API */
 961:Source\LwIP\src\core/tcp.c **** 
 962:Source\LwIP\src\core/tcp.c ****   /* Send a SYN together with the MSS option. */
 963:Source\LwIP\src\core/tcp.c ****   ret = tcp_enqueue_flags(pcb, TCP_SYN);
 964:Source\LwIP\src\core/tcp.c ****   if (ret == ERR_OK) {
 965:Source\LwIP\src\core/tcp.c ****     /* SYN segment was enqueued, changed the pcbs state now */
 966:Source\LwIP\src\core/tcp.c ****     pcb->state = SYN_SENT;
 967:Source\LwIP\src\core/tcp.c ****     if (old_local_port != 0) {
 968:Source\LwIP\src\core/tcp.c ****       TCP_RMV(&tcp_bound_pcbs, pcb);
 969:Source\LwIP\src\core/tcp.c ****     }
 970:Source\LwIP\src\core/tcp.c ****     TCP_REG_ACTIVE(pcb);
 971:Source\LwIP\src\core/tcp.c ****     MIB2_STATS_INC(mib2.tcpactiveopens);
 972:Source\LwIP\src\core/tcp.c **** 
 973:Source\LwIP\src\core/tcp.c ****     tcp_output(pcb);
 974:Source\LwIP\src\core/tcp.c ****   }
 975:Source\LwIP\src\core/tcp.c ****   return ret;
 976:Source\LwIP\src\core/tcp.c **** }
 977:Source\LwIP\src\core/tcp.c **** 
 978:Source\LwIP\src\core/tcp.c **** /**
 979:Source\LwIP\src\core/tcp.c ****  * Called every 500 ms and implements the retransmission timer and the timer that
 980:Source\LwIP\src\core/tcp.c ****  * removes PCBs that have been in TIME-WAIT for enough time. It also increments
 981:Source\LwIP\src\core/tcp.c ****  * various timers such as the inactivity timer in each PCB.
 982:Source\LwIP\src\core/tcp.c ****  *
 983:Source\LwIP\src\core/tcp.c ****  * Automatically called from tcp_tmr().
 984:Source\LwIP\src\core/tcp.c ****  */
 985:Source\LwIP\src\core/tcp.c **** void
 986:Source\LwIP\src\core/tcp.c **** tcp_slowtmr(void)
 987:Source\LwIP\src\core/tcp.c **** {
 988:Source\LwIP\src\core/tcp.c ****   struct tcp_pcb *pcb, *prev;
ARM GAS  C:\Users\Phuong\AppData\Local\Temp\cczg95Bp.s 			page 40


 989:Source\LwIP\src\core/tcp.c ****   tcpwnd_size_t eff_wnd;
 990:Source\LwIP\src\core/tcp.c ****   u8_t pcb_remove;      /* flag if a PCB should be removed */
 991:Source\LwIP\src\core/tcp.c ****   u8_t pcb_reset;       /* flag if a RST should be sent when removing */
 992:Source\LwIP\src\core/tcp.c ****   err_t err;
 993:Source\LwIP\src\core/tcp.c **** 
 994:Source\LwIP\src\core/tcp.c ****   err = ERR_OK;
 995:Source\LwIP\src\core/tcp.c **** 
 996:Source\LwIP\src\core/tcp.c ****   ++tcp_ticks;
 997:Source\LwIP\src\core/tcp.c ****   ++tcp_timer_ctr;
 998:Source\LwIP\src\core/tcp.c **** 
 999:Source\LwIP\src\core/tcp.c **** tcp_slowtmr_start:
1000:Source\LwIP\src\core/tcp.c ****   /* Steps through all of the active PCBs. */
1001:Source\LwIP\src\core/tcp.c ****   prev = NULL;
1002:Source\LwIP\src\core/tcp.c ****   pcb = tcp_active_pcbs;
1003:Source\LwIP\src\core/tcp.c ****   if (pcb == NULL) {
1004:Source\LwIP\src\core/tcp.c ****     LWIP_DEBUGF(TCP_DEBUG, ("tcp_slowtmr: no active pcbs\n"));
1005:Source\LwIP\src\core/tcp.c ****   }
1006:Source\LwIP\src\core/tcp.c ****   while (pcb != NULL) {
1007:Source\LwIP\src\core/tcp.c ****     LWIP_DEBUGF(TCP_DEBUG, ("tcp_slowtmr: processing active pcb\n"));
1008:Source\LwIP\src\core/tcp.c ****     LWIP_ASSERT("tcp_slowtmr: active pcb->state != CLOSED\n", pcb->state != CLOSED);
1009:Source\LwIP\src\core/tcp.c ****     LWIP_ASSERT("tcp_slowtmr: active pcb->state != LISTEN\n", pcb->state != LISTEN);
1010:Source\LwIP\src\core/tcp.c ****     LWIP_ASSERT("tcp_slowtmr: active pcb->state != TIME-WAIT\n", pcb->state != TIME_WAIT);
1011:Source\LwIP\src\core/tcp.c ****     if (pcb->last_timer == tcp_timer_ctr) {
1012:Source\LwIP\src\core/tcp.c ****       /* skip this pcb, we have already processed it */
1013:Source\LwIP\src\core/tcp.c ****       pcb = pcb->next;
1014:Source\LwIP\src\core/tcp.c ****       continue;
1015:Source\LwIP\src\core/tcp.c ****     }
1016:Source\LwIP\src\core/tcp.c ****     pcb->last_timer = tcp_timer_ctr;
1017:Source\LwIP\src\core/tcp.c **** 
1018:Source\LwIP\src\core/tcp.c ****     pcb_remove = 0;
1019:Source\LwIP\src\core/tcp.c ****     pcb_reset = 0;
1020:Source\LwIP\src\core/tcp.c **** 
1021:Source\LwIP\src\core/tcp.c ****     if (pcb->state == SYN_SENT && pcb->nrtx >= TCP_SYNMAXRTX) {
1022:Source\LwIP\src\core/tcp.c ****       ++pcb_remove;
1023:Source\LwIP\src\core/tcp.c ****       LWIP_DEBUGF(TCP_DEBUG, ("tcp_slowtmr: max SYN retries reached\n"));
1024:Source\LwIP\src\core/tcp.c ****     }
1025:Source\LwIP\src\core/tcp.c ****     else if (pcb->nrtx >= TCP_MAXRTX) {
1026:Source\LwIP\src\core/tcp.c ****       ++pcb_remove;
1027:Source\LwIP\src\core/tcp.c ****       LWIP_DEBUGF(TCP_DEBUG, ("tcp_slowtmr: max DATA retries reached\n"));
1028:Source\LwIP\src\core/tcp.c ****     } else {
1029:Source\LwIP\src\core/tcp.c ****       if (pcb->persist_backoff > 0) {
1030:Source\LwIP\src\core/tcp.c ****         /* If snd_wnd is zero, use persist timer to send 1 byte probes
1031:Source\LwIP\src\core/tcp.c ****          * instead of using the standard retransmission mechanism. */
1032:Source\LwIP\src\core/tcp.c ****         u8_t backoff_cnt = tcp_persist_backoff[pcb->persist_backoff-1];
1033:Source\LwIP\src\core/tcp.c ****         if (pcb->persist_cnt < backoff_cnt) {
1034:Source\LwIP\src\core/tcp.c ****           pcb->persist_cnt++;
1035:Source\LwIP\src\core/tcp.c ****         }
1036:Source\LwIP\src\core/tcp.c ****         if (pcb->persist_cnt >= backoff_cnt) {
1037:Source\LwIP\src\core/tcp.c ****           if (tcp_zero_window_probe(pcb) == ERR_OK) {
1038:Source\LwIP\src\core/tcp.c ****             pcb->persist_cnt = 0;
1039:Source\LwIP\src\core/tcp.c ****             if (pcb->persist_backoff < sizeof(tcp_persist_backoff)) {
1040:Source\LwIP\src\core/tcp.c ****               pcb->persist_backoff++;
1041:Source\LwIP\src\core/tcp.c ****             }
1042:Source\LwIP\src\core/tcp.c ****           }
1043:Source\LwIP\src\core/tcp.c ****         }
1044:Source\LwIP\src\core/tcp.c ****       } else {
1045:Source\LwIP\src\core/tcp.c ****         /* Increase the retransmission timer if it is running */
ARM GAS  C:\Users\Phuong\AppData\Local\Temp\cczg95Bp.s 			page 41


1046:Source\LwIP\src\core/tcp.c ****         if (pcb->rtime >= 0) {
1047:Source\LwIP\src\core/tcp.c ****           ++pcb->rtime;
1048:Source\LwIP\src\core/tcp.c ****         }
1049:Source\LwIP\src\core/tcp.c **** 
1050:Source\LwIP\src\core/tcp.c ****         if (pcb->unacked != NULL && pcb->rtime >= pcb->rto) {
1051:Source\LwIP\src\core/tcp.c ****           /* Time for a retransmission. */
1052:Source\LwIP\src\core/tcp.c ****           LWIP_DEBUGF(TCP_RTO_DEBUG, ("tcp_slowtmr: rtime %"S16_F
1053:Source\LwIP\src\core/tcp.c ****                                       " pcb->rto %"S16_F"\n",
1054:Source\LwIP\src\core/tcp.c ****                                       pcb->rtime, pcb->rto));
1055:Source\LwIP\src\core/tcp.c **** 
1056:Source\LwIP\src\core/tcp.c ****           /* Double retransmission time-out unless we are trying to
1057:Source\LwIP\src\core/tcp.c ****            * connect to somebody (i.e., we are in SYN_SENT). */
1058:Source\LwIP\src\core/tcp.c ****           if (pcb->state != SYN_SENT) {
1059:Source\LwIP\src\core/tcp.c ****             u8_t backoff_idx = LWIP_MIN(pcb->nrtx, sizeof(tcp_backoff)-1);
1060:Source\LwIP\src\core/tcp.c ****             pcb->rto = ((pcb->sa >> 3) + pcb->sv) << tcp_backoff[backoff_idx];
1061:Source\LwIP\src\core/tcp.c ****           }
1062:Source\LwIP\src\core/tcp.c **** 
1063:Source\LwIP\src\core/tcp.c ****           /* Reset the retransmission timer. */
1064:Source\LwIP\src\core/tcp.c ****           pcb->rtime = 0;
1065:Source\LwIP\src\core/tcp.c **** 
1066:Source\LwIP\src\core/tcp.c ****           /* Reduce congestion window and ssthresh. */
1067:Source\LwIP\src\core/tcp.c ****           eff_wnd = LWIP_MIN(pcb->cwnd, pcb->snd_wnd);
1068:Source\LwIP\src\core/tcp.c ****           pcb->ssthresh = eff_wnd >> 1;
1069:Source\LwIP\src\core/tcp.c ****           if (pcb->ssthresh < (tcpwnd_size_t)(pcb->mss << 1)) {
1070:Source\LwIP\src\core/tcp.c ****             pcb->ssthresh = (pcb->mss << 1);
1071:Source\LwIP\src\core/tcp.c ****           }
1072:Source\LwIP\src\core/tcp.c ****           pcb->cwnd = pcb->mss;
1073:Source\LwIP\src\core/tcp.c ****           LWIP_DEBUGF(TCP_CWND_DEBUG, ("tcp_slowtmr: cwnd %"TCPWNDSIZE_F
1074:Source\LwIP\src\core/tcp.c ****                                        " ssthresh %"TCPWNDSIZE_F"\n",
1075:Source\LwIP\src\core/tcp.c ****                                        pcb->cwnd, pcb->ssthresh));
1076:Source\LwIP\src\core/tcp.c **** 
1077:Source\LwIP\src\core/tcp.c ****           /* The following needs to be called AFTER cwnd is set to one
1078:Source\LwIP\src\core/tcp.c ****              mss - STJ */
1079:Source\LwIP\src\core/tcp.c ****           tcp_rexmit_rto(pcb);
1080:Source\LwIP\src\core/tcp.c ****         }
1081:Source\LwIP\src\core/tcp.c ****       }
1082:Source\LwIP\src\core/tcp.c ****     }
1083:Source\LwIP\src\core/tcp.c ****     /* Check if this PCB has stayed too long in FIN-WAIT-2 */
1084:Source\LwIP\src\core/tcp.c ****     if (pcb->state == FIN_WAIT_2) {
1085:Source\LwIP\src\core/tcp.c ****       /* If this PCB is in FIN_WAIT_2 because of SHUT_WR don't let it time out. */
1086:Source\LwIP\src\core/tcp.c ****       if (pcb->flags & TF_RXCLOSED) {
1087:Source\LwIP\src\core/tcp.c ****         /* PCB was fully closed (either through close() or SHUT_RDWR):
1088:Source\LwIP\src\core/tcp.c ****            normal FIN-WAIT timeout handling. */
1089:Source\LwIP\src\core/tcp.c ****         if ((u32_t)(tcp_ticks - pcb->tmr) >
1090:Source\LwIP\src\core/tcp.c ****             TCP_FIN_WAIT_TIMEOUT / TCP_SLOW_INTERVAL) {
1091:Source\LwIP\src\core/tcp.c ****           ++pcb_remove;
1092:Source\LwIP\src\core/tcp.c ****           LWIP_DEBUGF(TCP_DEBUG, ("tcp_slowtmr: removing pcb stuck in FIN-WAIT-2\n"));
1093:Source\LwIP\src\core/tcp.c ****         }
1094:Source\LwIP\src\core/tcp.c ****       }
1095:Source\LwIP\src\core/tcp.c ****     }
1096:Source\LwIP\src\core/tcp.c **** 
1097:Source\LwIP\src\core/tcp.c ****     /* Check if KEEPALIVE should be sent */
1098:Source\LwIP\src\core/tcp.c ****     if (ip_get_option(pcb, SOF_KEEPALIVE) &&
1099:Source\LwIP\src\core/tcp.c ****        ((pcb->state == ESTABLISHED) ||
1100:Source\LwIP\src\core/tcp.c ****         (pcb->state == CLOSE_WAIT))) {
1101:Source\LwIP\src\core/tcp.c ****       if ((u32_t)(tcp_ticks - pcb->tmr) >
1102:Source\LwIP\src\core/tcp.c ****          (pcb->keep_idle + TCP_KEEP_DUR(pcb)) / TCP_SLOW_INTERVAL)
ARM GAS  C:\Users\Phuong\AppData\Local\Temp\cczg95Bp.s 			page 42


1103:Source\LwIP\src\core/tcp.c ****       {
1104:Source\LwIP\src\core/tcp.c ****         LWIP_DEBUGF(TCP_DEBUG, ("tcp_slowtmr: KEEPALIVE timeout. Aborting connection to "));
1105:Source\LwIP\src\core/tcp.c ****         ip_addr_debug_print(TCP_DEBUG, &pcb->remote_ip);
1106:Source\LwIP\src\core/tcp.c ****         LWIP_DEBUGF(TCP_DEBUG, ("\n"));
1107:Source\LwIP\src\core/tcp.c **** 
1108:Source\LwIP\src\core/tcp.c ****         ++pcb_remove;
1109:Source\LwIP\src\core/tcp.c ****         ++pcb_reset;
1110:Source\LwIP\src\core/tcp.c ****       } else if ((u32_t)(tcp_ticks - pcb->tmr) >
1111:Source\LwIP\src\core/tcp.c ****                 (pcb->keep_idle + pcb->keep_cnt_sent * TCP_KEEP_INTVL(pcb))
1112:Source\LwIP\src\core/tcp.c ****                 / TCP_SLOW_INTERVAL)
1113:Source\LwIP\src\core/tcp.c ****       {
1114:Source\LwIP\src\core/tcp.c ****         err = tcp_keepalive(pcb);
1115:Source\LwIP\src\core/tcp.c ****         if (err == ERR_OK) {
1116:Source\LwIP\src\core/tcp.c ****           pcb->keep_cnt_sent++;
1117:Source\LwIP\src\core/tcp.c ****         }
1118:Source\LwIP\src\core/tcp.c ****       }
1119:Source\LwIP\src\core/tcp.c ****     }
1120:Source\LwIP\src\core/tcp.c **** 
1121:Source\LwIP\src\core/tcp.c ****     /* If this PCB has queued out of sequence data, but has been
1122:Source\LwIP\src\core/tcp.c ****        inactive for too long, will drop the data (it will eventually
1123:Source\LwIP\src\core/tcp.c ****        be retransmitted). */
1124:Source\LwIP\src\core/tcp.c **** #if TCP_QUEUE_OOSEQ
1125:Source\LwIP\src\core/tcp.c ****     if (pcb->ooseq != NULL &&
1126:Source\LwIP\src\core/tcp.c ****         (u32_t)tcp_ticks - pcb->tmr >= pcb->rto * TCP_OOSEQ_TIMEOUT) {
1127:Source\LwIP\src\core/tcp.c ****       tcp_segs_free(pcb->ooseq);
1128:Source\LwIP\src\core/tcp.c ****       pcb->ooseq = NULL;
1129:Source\LwIP\src\core/tcp.c ****       LWIP_DEBUGF(TCP_CWND_DEBUG, ("tcp_slowtmr: dropping OOSEQ queued data\n"));
1130:Source\LwIP\src\core/tcp.c ****     }
1131:Source\LwIP\src\core/tcp.c **** #endif /* TCP_QUEUE_OOSEQ */
1132:Source\LwIP\src\core/tcp.c **** 
1133:Source\LwIP\src\core/tcp.c ****     /* Check if this PCB has stayed too long in SYN-RCVD */
1134:Source\LwIP\src\core/tcp.c ****     if (pcb->state == SYN_RCVD) {
1135:Source\LwIP\src\core/tcp.c ****       if ((u32_t)(tcp_ticks - pcb->tmr) >
1136:Source\LwIP\src\core/tcp.c ****           TCP_SYN_RCVD_TIMEOUT / TCP_SLOW_INTERVAL) {
1137:Source\LwIP\src\core/tcp.c ****         ++pcb_remove;
1138:Source\LwIP\src\core/tcp.c ****         LWIP_DEBUGF(TCP_DEBUG, ("tcp_slowtmr: removing pcb stuck in SYN-RCVD\n"));
1139:Source\LwIP\src\core/tcp.c ****       }
1140:Source\LwIP\src\core/tcp.c ****     }
1141:Source\LwIP\src\core/tcp.c **** 
1142:Source\LwIP\src\core/tcp.c ****     /* Check if this PCB has stayed too long in LAST-ACK */
1143:Source\LwIP\src\core/tcp.c ****     if (pcb->state == LAST_ACK) {
1144:Source\LwIP\src\core/tcp.c ****       if ((u32_t)(tcp_ticks - pcb->tmr) > 2 * TCP_MSL / TCP_SLOW_INTERVAL) {
1145:Source\LwIP\src\core/tcp.c ****         ++pcb_remove;
1146:Source\LwIP\src\core/tcp.c ****         LWIP_DEBUGF(TCP_DEBUG, ("tcp_slowtmr: removing pcb stuck in LAST-ACK\n"));
1147:Source\LwIP\src\core/tcp.c ****       }
1148:Source\LwIP\src\core/tcp.c ****     }
1149:Source\LwIP\src\core/tcp.c **** 
1150:Source\LwIP\src\core/tcp.c ****     /* If the PCB should be removed, do it. */
1151:Source\LwIP\src\core/tcp.c ****     if (pcb_remove) {
1152:Source\LwIP\src\core/tcp.c ****       struct tcp_pcb *pcb2;
1153:Source\LwIP\src\core/tcp.c **** #if LWIP_CALLBACK_API
1154:Source\LwIP\src\core/tcp.c ****       tcp_err_fn err_fn = pcb->errf;
1155:Source\LwIP\src\core/tcp.c **** #endif /* LWIP_CALLBACK_API */
1156:Source\LwIP\src\core/tcp.c ****       void *err_arg;
1157:Source\LwIP\src\core/tcp.c ****       enum tcp_state last_state;
1158:Source\LwIP\src\core/tcp.c ****       tcp_pcb_purge(pcb);
1159:Source\LwIP\src\core/tcp.c ****       /* Remove PCB from tcp_active_pcbs list. */
ARM GAS  C:\Users\Phuong\AppData\Local\Temp\cczg95Bp.s 			page 43


1160:Source\LwIP\src\core/tcp.c ****       if (prev != NULL) {
1161:Source\LwIP\src\core/tcp.c ****         LWIP_ASSERT("tcp_slowtmr: middle tcp != tcp_active_pcbs", pcb != tcp_active_pcbs);
1162:Source\LwIP\src\core/tcp.c ****         prev->next = pcb->next;
1163:Source\LwIP\src\core/tcp.c ****       } else {
1164:Source\LwIP\src\core/tcp.c ****         /* This PCB was the first. */
1165:Source\LwIP\src\core/tcp.c ****         LWIP_ASSERT("tcp_slowtmr: first pcb == tcp_active_pcbs", tcp_active_pcbs == pcb);
1166:Source\LwIP\src\core/tcp.c ****         tcp_active_pcbs = pcb->next;
1167:Source\LwIP\src\core/tcp.c ****       }
1168:Source\LwIP\src\core/tcp.c **** 
1169:Source\LwIP\src\core/tcp.c ****       if (pcb_reset) {
1170:Source\LwIP\src\core/tcp.c ****         tcp_rst(pcb->snd_nxt, pcb->rcv_nxt, &pcb->local_ip, &pcb->remote_ip,
1171:Source\LwIP\src\core/tcp.c ****                  pcb->local_port, pcb->remote_port);
1172:Source\LwIP\src\core/tcp.c ****       }
1173:Source\LwIP\src\core/tcp.c **** 
1174:Source\LwIP\src\core/tcp.c ****       err_arg = pcb->callback_arg;
1175:Source\LwIP\src\core/tcp.c ****       last_state = pcb->state;
1176:Source\LwIP\src\core/tcp.c ****       pcb2 = pcb;
1177:Source\LwIP\src\core/tcp.c ****       pcb = pcb->next;
1178:Source\LwIP\src\core/tcp.c ****       memp_free(MEMP_TCP_PCB, pcb2);
1179:Source\LwIP\src\core/tcp.c **** 
1180:Source\LwIP\src\core/tcp.c ****       tcp_active_pcbs_changed = 0;
1181:Source\LwIP\src\core/tcp.c ****       TCP_EVENT_ERR(last_state, err_fn, err_arg, ERR_ABRT);
1182:Source\LwIP\src\core/tcp.c ****       if (tcp_active_pcbs_changed) {
1183:Source\LwIP\src\core/tcp.c ****         goto tcp_slowtmr_start;
1184:Source\LwIP\src\core/tcp.c ****       }
1185:Source\LwIP\src\core/tcp.c ****     } else {
1186:Source\LwIP\src\core/tcp.c ****       /* get the 'next' element now and work with 'prev' below (in case of abort) */
1187:Source\LwIP\src\core/tcp.c ****       prev = pcb;
1188:Source\LwIP\src\core/tcp.c ****       pcb = pcb->next;
1189:Source\LwIP\src\core/tcp.c **** 
1190:Source\LwIP\src\core/tcp.c ****       /* We check if we should poll the connection. */
1191:Source\LwIP\src\core/tcp.c ****       ++prev->polltmr;
1192:Source\LwIP\src\core/tcp.c ****       if (prev->polltmr >= prev->pollinterval) {
1193:Source\LwIP\src\core/tcp.c ****         prev->polltmr = 0;
1194:Source\LwIP\src\core/tcp.c ****         LWIP_DEBUGF(TCP_DEBUG, ("tcp_slowtmr: polling application\n"));
1195:Source\LwIP\src\core/tcp.c ****         tcp_active_pcbs_changed = 0;
1196:Source\LwIP\src\core/tcp.c ****         TCP_EVENT_POLL(prev, err);
1197:Source\LwIP\src\core/tcp.c ****         if (tcp_active_pcbs_changed) {
1198:Source\LwIP\src\core/tcp.c ****           goto tcp_slowtmr_start;
1199:Source\LwIP\src\core/tcp.c ****         }
1200:Source\LwIP\src\core/tcp.c ****         /* if err == ERR_ABRT, 'prev' is already deallocated */
1201:Source\LwIP\src\core/tcp.c ****         if (err == ERR_OK) {
1202:Source\LwIP\src\core/tcp.c ****           tcp_output(prev);
1203:Source\LwIP\src\core/tcp.c ****         }
1204:Source\LwIP\src\core/tcp.c ****       }
1205:Source\LwIP\src\core/tcp.c ****     }
1206:Source\LwIP\src\core/tcp.c ****   }
1207:Source\LwIP\src\core/tcp.c **** 
1208:Source\LwIP\src\core/tcp.c **** 
1209:Source\LwIP\src\core/tcp.c ****   /* Steps through all of the TIME-WAIT PCBs. */
1210:Source\LwIP\src\core/tcp.c ****   prev = NULL;
1211:Source\LwIP\src\core/tcp.c ****   pcb = tcp_tw_pcbs;
1212:Source\LwIP\src\core/tcp.c ****   while (pcb != NULL) {
1213:Source\LwIP\src\core/tcp.c ****     LWIP_ASSERT("tcp_slowtmr: TIME-WAIT pcb->state == TIME-WAIT", pcb->state == TIME_WAIT);
1214:Source\LwIP\src\core/tcp.c ****     pcb_remove = 0;
1215:Source\LwIP\src\core/tcp.c **** 
1216:Source\LwIP\src\core/tcp.c ****     /* Check if this PCB has stayed long enough in TIME-WAIT */
ARM GAS  C:\Users\Phuong\AppData\Local\Temp\cczg95Bp.s 			page 44


1217:Source\LwIP\src\core/tcp.c ****     if ((u32_t)(tcp_ticks - pcb->tmr) > 2 * TCP_MSL / TCP_SLOW_INTERVAL) {
1218:Source\LwIP\src\core/tcp.c ****       ++pcb_remove;
1219:Source\LwIP\src\core/tcp.c ****     }
1220:Source\LwIP\src\core/tcp.c **** 
1221:Source\LwIP\src\core/tcp.c ****     /* If the PCB should be removed, do it. */
1222:Source\LwIP\src\core/tcp.c ****     if (pcb_remove) {
1223:Source\LwIP\src\core/tcp.c ****       struct tcp_pcb *pcb2;
1224:Source\LwIP\src\core/tcp.c ****       tcp_pcb_purge(pcb);
1225:Source\LwIP\src\core/tcp.c ****       /* Remove PCB from tcp_tw_pcbs list. */
1226:Source\LwIP\src\core/tcp.c ****       if (prev != NULL) {
1227:Source\LwIP\src\core/tcp.c ****         LWIP_ASSERT("tcp_slowtmr: middle tcp != tcp_tw_pcbs", pcb != tcp_tw_pcbs);
1228:Source\LwIP\src\core/tcp.c ****         prev->next = pcb->next;
1229:Source\LwIP\src\core/tcp.c ****       } else {
1230:Source\LwIP\src\core/tcp.c ****         /* This PCB was the first. */
1231:Source\LwIP\src\core/tcp.c ****         LWIP_ASSERT("tcp_slowtmr: first pcb == tcp_tw_pcbs", tcp_tw_pcbs == pcb);
1232:Source\LwIP\src\core/tcp.c ****         tcp_tw_pcbs = pcb->next;
1233:Source\LwIP\src\core/tcp.c ****       }
1234:Source\LwIP\src\core/tcp.c ****       pcb2 = pcb;
1235:Source\LwIP\src\core/tcp.c ****       pcb = pcb->next;
1236:Source\LwIP\src\core/tcp.c ****       memp_free(MEMP_TCP_PCB, pcb2);
1237:Source\LwIP\src\core/tcp.c ****     } else {
1238:Source\LwIP\src\core/tcp.c ****       prev = pcb;
1239:Source\LwIP\src\core/tcp.c ****       pcb = pcb->next;
1240:Source\LwIP\src\core/tcp.c ****     }
1241:Source\LwIP\src\core/tcp.c ****   }
1242:Source\LwIP\src\core/tcp.c **** }
1243:Source\LwIP\src\core/tcp.c **** 
1244:Source\LwIP\src\core/tcp.c **** /**
1245:Source\LwIP\src\core/tcp.c ****  * Is called every TCP_FAST_INTERVAL (250 ms) and process data previously
1246:Source\LwIP\src\core/tcp.c ****  * "refused" by upper layer (application) and sends delayed ACKs.
1247:Source\LwIP\src\core/tcp.c ****  *
1248:Source\LwIP\src\core/tcp.c ****  * Automatically called from tcp_tmr().
1249:Source\LwIP\src\core/tcp.c ****  */
1250:Source\LwIP\src\core/tcp.c **** void
1251:Source\LwIP\src\core/tcp.c **** tcp_fasttmr(void)
1252:Source\LwIP\src\core/tcp.c **** {
1253:Source\LwIP\src\core/tcp.c ****   struct tcp_pcb *pcb;
1254:Source\LwIP\src\core/tcp.c **** 
1255:Source\LwIP\src\core/tcp.c ****   ++tcp_timer_ctr;
1256:Source\LwIP\src\core/tcp.c **** 
1257:Source\LwIP\src\core/tcp.c **** tcp_fasttmr_start:
1258:Source\LwIP\src\core/tcp.c ****   pcb = tcp_active_pcbs;
1259:Source\LwIP\src\core/tcp.c **** 
1260:Source\LwIP\src\core/tcp.c ****   while (pcb != NULL) {
1261:Source\LwIP\src\core/tcp.c ****     if (pcb->last_timer != tcp_timer_ctr) {
1262:Source\LwIP\src\core/tcp.c ****       struct tcp_pcb *next;
1263:Source\LwIP\src\core/tcp.c ****       pcb->last_timer = tcp_timer_ctr;
1264:Source\LwIP\src\core/tcp.c ****       /* send delayed ACKs */
1265:Source\LwIP\src\core/tcp.c ****       if (pcb->flags & TF_ACK_DELAY) {
1266:Source\LwIP\src\core/tcp.c ****         LWIP_DEBUGF(TCP_DEBUG, ("tcp_fasttmr: delayed ACK\n"));
1267:Source\LwIP\src\core/tcp.c ****         tcp_ack_now(pcb);
1268:Source\LwIP\src\core/tcp.c ****         tcp_output(pcb);
1269:Source\LwIP\src\core/tcp.c ****         pcb->flags &= ~(TF_ACK_DELAY | TF_ACK_NOW);
1270:Source\LwIP\src\core/tcp.c ****       }
1271:Source\LwIP\src\core/tcp.c ****       /* send pending FIN */
1272:Source\LwIP\src\core/tcp.c ****       if (pcb->flags & TF_CLOSEPEND) {
1273:Source\LwIP\src\core/tcp.c ****         LWIP_DEBUGF(TCP_DEBUG, ("tcp_fasttmr: pending FIN\n"));
ARM GAS  C:\Users\Phuong\AppData\Local\Temp\cczg95Bp.s 			page 45


1274:Source\LwIP\src\core/tcp.c ****         pcb->flags &= ~(TF_CLOSEPEND);
1275:Source\LwIP\src\core/tcp.c ****         tcp_close_shutdown_fin(pcb);
1276:Source\LwIP\src\core/tcp.c ****       }
1277:Source\LwIP\src\core/tcp.c **** 
1278:Source\LwIP\src\core/tcp.c ****       next = pcb->next;
1279:Source\LwIP\src\core/tcp.c **** 
1280:Source\LwIP\src\core/tcp.c ****       /* If there is data which was previously "refused" by upper layer */
1281:Source\LwIP\src\core/tcp.c ****       if (pcb->refused_data != NULL) {
1282:Source\LwIP\src\core/tcp.c ****         tcp_active_pcbs_changed = 0;
1283:Source\LwIP\src\core/tcp.c ****         tcp_process_refused_data(pcb);
1284:Source\LwIP\src\core/tcp.c ****         if (tcp_active_pcbs_changed) {
1285:Source\LwIP\src\core/tcp.c ****           /* application callback has changed the pcb list: restart the loop */
1286:Source\LwIP\src\core/tcp.c ****           goto tcp_fasttmr_start;
1287:Source\LwIP\src\core/tcp.c ****         }
1288:Source\LwIP\src\core/tcp.c ****       }
1289:Source\LwIP\src\core/tcp.c ****       pcb = next;
1290:Source\LwIP\src\core/tcp.c ****     } else {
1291:Source\LwIP\src\core/tcp.c ****       pcb = pcb->next;
1292:Source\LwIP\src\core/tcp.c ****     }
1293:Source\LwIP\src\core/tcp.c ****   }
1294:Source\LwIP\src\core/tcp.c **** }
1295:Source\LwIP\src\core/tcp.c **** 
1296:Source\LwIP\src\core/tcp.c **** /** Call tcp_output for all active pcbs that have TF_NAGLEMEMERR set */
1297:Source\LwIP\src\core/tcp.c **** void
1298:Source\LwIP\src\core/tcp.c **** tcp_txnow(void)
1299:Source\LwIP\src\core/tcp.c **** {
 1080              		.loc 1 1299 0
 1081              		.cfi_startproc
 1082              		@ args = 0, pretend = 0, frame = 0
 1083              		@ frame_needed = 0, uses_anonymous_args = 0
 1084 0000 10B5     		push	{r4, lr}
 1085              		.cfi_def_cfa_offset 8
 1086              		.cfi_offset 4, -8
 1087              		.cfi_offset 14, -4
1300:Source\LwIP\src\core/tcp.c ****   struct tcp_pcb *pcb;
1301:Source\LwIP\src\core/tcp.c **** 
1302:Source\LwIP\src\core/tcp.c ****   for (pcb = tcp_active_pcbs; pcb != NULL; pcb = pcb->next) {
 1088              		.loc 1 1302 0
 1089 0002 064B     		ldr	r3, .L109
 1090 0004 1C68     		ldr	r4, [r3]
 1091              	.LVL114:
 1092 0006 06E0     		b	.L106
 1093              	.L108:
1303:Source\LwIP\src\core/tcp.c ****     if (pcb->flags & TF_NAGLEMEMERR) {
 1094              		.loc 1 1303 0
 1095 0008 638B     		ldrh	r3, [r4, #26]
 1096 000a 1B06     		lsls	r3, r3, #24
 1097 000c 02D5     		bpl	.L107
1304:Source\LwIP\src\core/tcp.c ****       tcp_output(pcb);
 1098              		.loc 1 1304 0
 1099 000e 2000     		movs	r0, r4
 1100 0010 FFF7FEFF 		bl	tcp_output
 1101              	.LVL115:
 1102              	.L107:
1302:Source\LwIP\src\core/tcp.c ****     if (pcb->flags & TF_NAGLEMEMERR) {
 1103              		.loc 1 1302 0 discriminator 2
 1104 0014 E468     		ldr	r4, [r4, #12]
ARM GAS  C:\Users\Phuong\AppData\Local\Temp\cczg95Bp.s 			page 46


 1105              	.LVL116:
 1106              	.L106:
1302:Source\LwIP\src\core/tcp.c ****     if (pcb->flags & TF_NAGLEMEMERR) {
 1107              		.loc 1 1302 0 is_stmt 0 discriminator 1
 1108 0016 002C     		cmp	r4, #0
 1109 0018 F6D1     		bne	.L108
1305:Source\LwIP\src\core/tcp.c ****     }
1306:Source\LwIP\src\core/tcp.c ****   }
1307:Source\LwIP\src\core/tcp.c **** }
 1110              		.loc 1 1307 0 is_stmt 1
 1111              		@ sp needed
 1112              	.LVL117:
 1113 001a 10BD     		pop	{r4, pc}
 1114              	.L110:
 1115              		.align	2
 1116              	.L109:
 1117 001c 00000000 		.word	tcp_active_pcbs
 1118              		.cfi_endproc
 1119              	.LFE75:
 1120              		.size	tcp_txnow, .-tcp_txnow
 1121              		.section	.text.tcp_seg_free,"ax",%progbits
 1122              		.align	2
 1123              		.global	tcp_seg_free
 1124              		.code	16
 1125              		.thumb_func
 1126              		.type	tcp_seg_free, %function
 1127              	tcp_seg_free:
 1128              	.LFB78:
1308:Source\LwIP\src\core/tcp.c **** 
1309:Source\LwIP\src\core/tcp.c **** /** Pass pcb->refused_data to the recv callback */
1310:Source\LwIP\src\core/tcp.c **** err_t
1311:Source\LwIP\src\core/tcp.c **** tcp_process_refused_data(struct tcp_pcb *pcb)
1312:Source\LwIP\src\core/tcp.c **** {
1313:Source\LwIP\src\core/tcp.c **** #if TCP_QUEUE_OOSEQ && LWIP_WND_SCALE
1314:Source\LwIP\src\core/tcp.c ****   struct pbuf *rest;
1315:Source\LwIP\src\core/tcp.c ****   while (pcb->refused_data != NULL)
1316:Source\LwIP\src\core/tcp.c **** #endif /* TCP_QUEUE_OOSEQ && LWIP_WND_SCALE */
1317:Source\LwIP\src\core/tcp.c ****   {
1318:Source\LwIP\src\core/tcp.c ****     err_t err;
1319:Source\LwIP\src\core/tcp.c ****     u8_t refused_flags = pcb->refused_data->flags;
1320:Source\LwIP\src\core/tcp.c ****     /* set pcb->refused_data to NULL in case the callback frees it and then
1321:Source\LwIP\src\core/tcp.c ****        closes the pcb */
1322:Source\LwIP\src\core/tcp.c ****     struct pbuf *refused_data = pcb->refused_data;
1323:Source\LwIP\src\core/tcp.c **** #if TCP_QUEUE_OOSEQ && LWIP_WND_SCALE
1324:Source\LwIP\src\core/tcp.c ****     pbuf_split_64k(refused_data, &rest);
1325:Source\LwIP\src\core/tcp.c ****     pcb->refused_data = rest;
1326:Source\LwIP\src\core/tcp.c **** #else /* TCP_QUEUE_OOSEQ && LWIP_WND_SCALE */
1327:Source\LwIP\src\core/tcp.c ****     pcb->refused_data = NULL;
1328:Source\LwIP\src\core/tcp.c **** #endif /* TCP_QUEUE_OOSEQ && LWIP_WND_SCALE */
1329:Source\LwIP\src\core/tcp.c ****     /* Notify again application with data previously received. */
1330:Source\LwIP\src\core/tcp.c ****     LWIP_DEBUGF(TCP_INPUT_DEBUG, ("tcp_input: notify kept packet\n"));
1331:Source\LwIP\src\core/tcp.c ****     TCP_EVENT_RECV(pcb, refused_data, ERR_OK, err);
1332:Source\LwIP\src\core/tcp.c ****     if (err == ERR_OK) {
1333:Source\LwIP\src\core/tcp.c ****       /* did refused_data include a FIN? */
1334:Source\LwIP\src\core/tcp.c ****       if (refused_flags & PBUF_FLAG_TCP_FIN
1335:Source\LwIP\src\core/tcp.c **** #if TCP_QUEUE_OOSEQ && LWIP_WND_SCALE
1336:Source\LwIP\src\core/tcp.c ****           && (rest == NULL)
ARM GAS  C:\Users\Phuong\AppData\Local\Temp\cczg95Bp.s 			page 47


1337:Source\LwIP\src\core/tcp.c **** #endif /* TCP_QUEUE_OOSEQ && LWIP_WND_SCALE */
1338:Source\LwIP\src\core/tcp.c ****          ) {
1339:Source\LwIP\src\core/tcp.c ****         /* correct rcv_wnd as the application won't call tcp_recved()
1340:Source\LwIP\src\core/tcp.c ****            for the FIN's seqno */
1341:Source\LwIP\src\core/tcp.c ****         if (pcb->rcv_wnd != TCP_WND_MAX(pcb)) {
1342:Source\LwIP\src\core/tcp.c ****           pcb->rcv_wnd++;
1343:Source\LwIP\src\core/tcp.c ****         }
1344:Source\LwIP\src\core/tcp.c ****         TCP_EVENT_CLOSED(pcb, err);
1345:Source\LwIP\src\core/tcp.c ****         if (err == ERR_ABRT) {
1346:Source\LwIP\src\core/tcp.c ****           return ERR_ABRT;
1347:Source\LwIP\src\core/tcp.c ****         }
1348:Source\LwIP\src\core/tcp.c ****       }
1349:Source\LwIP\src\core/tcp.c ****     } else if (err == ERR_ABRT) {
1350:Source\LwIP\src\core/tcp.c ****       /* if err == ERR_ABRT, 'pcb' is already deallocated */
1351:Source\LwIP\src\core/tcp.c ****       /* Drop incoming packets because pcb is "full" (only if the incoming
1352:Source\LwIP\src\core/tcp.c ****          segment contains data). */
1353:Source\LwIP\src\core/tcp.c ****       LWIP_DEBUGF(TCP_INPUT_DEBUG, ("tcp_input: drop incoming packets, because pcb is \"full\"\n"))
1354:Source\LwIP\src\core/tcp.c ****       return ERR_ABRT;
1355:Source\LwIP\src\core/tcp.c ****     } else {
1356:Source\LwIP\src\core/tcp.c ****       /* data is still refused, pbuf is still valid (go on for ACK-only packets) */
1357:Source\LwIP\src\core/tcp.c **** #if TCP_QUEUE_OOSEQ && LWIP_WND_SCALE
1358:Source\LwIP\src\core/tcp.c ****       if (rest != NULL) {
1359:Source\LwIP\src\core/tcp.c ****         pbuf_cat(refused_data, rest);
1360:Source\LwIP\src\core/tcp.c ****       }
1361:Source\LwIP\src\core/tcp.c **** #endif /* TCP_QUEUE_OOSEQ && LWIP_WND_SCALE */
1362:Source\LwIP\src\core/tcp.c ****       pcb->refused_data = refused_data;
1363:Source\LwIP\src\core/tcp.c ****       return ERR_INPROGRESS;
1364:Source\LwIP\src\core/tcp.c ****     }
1365:Source\LwIP\src\core/tcp.c ****   }
1366:Source\LwIP\src\core/tcp.c ****   return ERR_OK;
1367:Source\LwIP\src\core/tcp.c **** }
1368:Source\LwIP\src\core/tcp.c **** 
1369:Source\LwIP\src\core/tcp.c **** /**
1370:Source\LwIP\src\core/tcp.c ****  * Deallocates a list of TCP segments (tcp_seg structures).
1371:Source\LwIP\src\core/tcp.c ****  *
1372:Source\LwIP\src\core/tcp.c ****  * @param seg tcp_seg list of TCP segments to free
1373:Source\LwIP\src\core/tcp.c ****  */
1374:Source\LwIP\src\core/tcp.c **** void
1375:Source\LwIP\src\core/tcp.c **** tcp_segs_free(struct tcp_seg *seg)
1376:Source\LwIP\src\core/tcp.c **** {
1377:Source\LwIP\src\core/tcp.c ****   while (seg != NULL) {
1378:Source\LwIP\src\core/tcp.c ****     struct tcp_seg *next = seg->next;
1379:Source\LwIP\src\core/tcp.c ****     tcp_seg_free(seg);
1380:Source\LwIP\src\core/tcp.c ****     seg = next;
1381:Source\LwIP\src\core/tcp.c ****   }
1382:Source\LwIP\src\core/tcp.c **** }
1383:Source\LwIP\src\core/tcp.c **** 
1384:Source\LwIP\src\core/tcp.c **** /**
1385:Source\LwIP\src\core/tcp.c ****  * Frees a TCP segment (tcp_seg structure).
1386:Source\LwIP\src\core/tcp.c ****  *
1387:Source\LwIP\src\core/tcp.c ****  * @param seg single tcp_seg to free
1388:Source\LwIP\src\core/tcp.c ****  */
1389:Source\LwIP\src\core/tcp.c **** void
1390:Source\LwIP\src\core/tcp.c **** tcp_seg_free(struct tcp_seg *seg)
1391:Source\LwIP\src\core/tcp.c **** {
 1129              		.loc 1 1391 0
 1130              		.cfi_startproc
ARM GAS  C:\Users\Phuong\AppData\Local\Temp\cczg95Bp.s 			page 48


 1131              		@ args = 0, pretend = 0, frame = 0
 1132              		@ frame_needed = 0, uses_anonymous_args = 0
 1133              	.LVL118:
 1134 0000 10B5     		push	{r4, lr}
 1135              		.cfi_def_cfa_offset 8
 1136              		.cfi_offset 4, -8
 1137              		.cfi_offset 14, -4
 1138 0002 041E     		subs	r4, r0, #0
1392:Source\LwIP\src\core/tcp.c ****   if (seg != NULL) {
 1139              		.loc 1 1392 0
 1140 0004 08D0     		beq	.L111
1393:Source\LwIP\src\core/tcp.c ****     if (seg->p != NULL) {
 1141              		.loc 1 1393 0
 1142 0006 4068     		ldr	r0, [r0, #4]
 1143              	.LVL119:
 1144 0008 0028     		cmp	r0, #0
 1145 000a 01D0     		beq	.L113
1394:Source\LwIP\src\core/tcp.c ****       pbuf_free(seg->p);
 1146              		.loc 1 1394 0
 1147 000c FFF7FEFF 		bl	pbuf_free
 1148              	.LVL120:
 1149              	.L113:
1395:Source\LwIP\src\core/tcp.c **** #if TCP_DEBUG
1396:Source\LwIP\src\core/tcp.c ****       seg->p = NULL;
1397:Source\LwIP\src\core/tcp.c **** #endif /* TCP_DEBUG */
1398:Source\LwIP\src\core/tcp.c ****     }
1399:Source\LwIP\src\core/tcp.c ****     memp_free(MEMP_TCP_SEG, seg);
 1150              		.loc 1 1399 0
 1151 0010 2100     		movs	r1, r4
 1152 0012 0420     		movs	r0, #4
 1153 0014 FFF7FEFF 		bl	memp_free
 1154              	.LVL121:
 1155              	.L111:
1400:Source\LwIP\src\core/tcp.c ****   }
1401:Source\LwIP\src\core/tcp.c **** }
 1156              		.loc 1 1401 0
 1157              		@ sp needed
 1158              	.LVL122:
 1159 0018 10BD     		pop	{r4, pc}
 1160              		.cfi_endproc
 1161              	.LFE78:
 1162              		.size	tcp_seg_free, .-tcp_seg_free
 1163 001a C046     		.section	.text.tcp_segs_free,"ax",%progbits
 1164              		.align	2
 1165              		.global	tcp_segs_free
 1166              		.code	16
 1167              		.thumb_func
 1168              		.type	tcp_segs_free, %function
 1169              	tcp_segs_free:
 1170              	.LFB77:
1376:Source\LwIP\src\core/tcp.c ****   while (seg != NULL) {
 1171              		.loc 1 1376 0
 1172              		.cfi_startproc
 1173              		@ args = 0, pretend = 0, frame = 0
 1174              		@ frame_needed = 0, uses_anonymous_args = 0
 1175              	.LVL123:
 1176 0000 10B5     		push	{r4, lr}
ARM GAS  C:\Users\Phuong\AppData\Local\Temp\cczg95Bp.s 			page 49


 1177              		.cfi_def_cfa_offset 8
 1178              		.cfi_offset 4, -8
 1179              		.cfi_offset 14, -4
1377:Source\LwIP\src\core/tcp.c ****     struct tcp_seg *next = seg->next;
 1180              		.loc 1 1377 0
 1181 0002 03E0     		b	.L115
 1182              	.L116:
 1183              	.LBB4:
1378:Source\LwIP\src\core/tcp.c ****     tcp_seg_free(seg);
 1184              		.loc 1 1378 0
 1185 0004 0468     		ldr	r4, [r0]
 1186              	.LVL124:
1379:Source\LwIP\src\core/tcp.c ****     seg = next;
 1187              		.loc 1 1379 0
 1188 0006 FFF7FEFF 		bl	tcp_seg_free
 1189              	.LVL125:
1380:Source\LwIP\src\core/tcp.c ****   }
 1190              		.loc 1 1380 0
 1191 000a 2000     		movs	r0, r4
 1192              	.LVL126:
 1193              	.L115:
 1194              	.LBE4:
1377:Source\LwIP\src\core/tcp.c ****     struct tcp_seg *next = seg->next;
 1195              		.loc 1 1377 0
 1196 000c 0028     		cmp	r0, #0
 1197 000e F9D1     		bne	.L116
1382:Source\LwIP\src\core/tcp.c **** 
 1198              		.loc 1 1382 0
 1199              		@ sp needed
 1200 0010 10BD     		pop	{r4, pc}
 1201              		.cfi_endproc
 1202              	.LFE77:
 1203              		.size	tcp_segs_free, .-tcp_segs_free
 1204 0012 C046     		.section	.text.tcp_setprio,"ax",%progbits
 1205              		.align	2
 1206              		.global	tcp_setprio
 1207              		.code	16
 1208              		.thumb_func
 1209              		.type	tcp_setprio, %function
 1210              	tcp_setprio:
 1211              	.LFB79:
1402:Source\LwIP\src\core/tcp.c **** 
1403:Source\LwIP\src\core/tcp.c **** /**
1404:Source\LwIP\src\core/tcp.c ****  * Sets the priority of a connection.
1405:Source\LwIP\src\core/tcp.c ****  *
1406:Source\LwIP\src\core/tcp.c ****  * @param pcb the tcp_pcb to manipulate
1407:Source\LwIP\src\core/tcp.c ****  * @param prio new priority
1408:Source\LwIP\src\core/tcp.c ****  */
1409:Source\LwIP\src\core/tcp.c **** void
1410:Source\LwIP\src\core/tcp.c **** tcp_setprio(struct tcp_pcb *pcb, u8_t prio)
1411:Source\LwIP\src\core/tcp.c **** {
 1212              		.loc 1 1411 0
 1213              		.cfi_startproc
 1214              		@ args = 0, pretend = 0, frame = 0
 1215              		@ frame_needed = 0, uses_anonymous_args = 0
 1216              		@ link register save eliminated.
 1217              	.LVL127:
ARM GAS  C:\Users\Phuong\AppData\Local\Temp\cczg95Bp.s 			page 50


1412:Source\LwIP\src\core/tcp.c ****   pcb->prio = prio;
 1218              		.loc 1 1412 0
 1219 0000 4175     		strb	r1, [r0, #21]
1413:Source\LwIP\src\core/tcp.c **** }
 1220              		.loc 1 1413 0
 1221              		@ sp needed
 1222 0002 7047     		bx	lr
 1223              		.cfi_endproc
 1224              	.LFE79:
 1225              		.size	tcp_setprio, .-tcp_setprio
 1226              		.section	.text.tcp_seg_copy,"ax",%progbits
 1227              		.align	2
 1228              		.global	tcp_seg_copy
 1229              		.code	16
 1230              		.thumb_func
 1231              		.type	tcp_seg_copy, %function
 1232              	tcp_seg_copy:
 1233              	.LFB80:
1414:Source\LwIP\src\core/tcp.c **** 
1415:Source\LwIP\src\core/tcp.c **** #if TCP_QUEUE_OOSEQ
1416:Source\LwIP\src\core/tcp.c **** /**
1417:Source\LwIP\src\core/tcp.c ****  * Returns a copy of the given TCP segment.
1418:Source\LwIP\src\core/tcp.c ****  * The pbuf and data are not copied, only the pointers
1419:Source\LwIP\src\core/tcp.c ****  *
1420:Source\LwIP\src\core/tcp.c ****  * @param seg the old tcp_seg
1421:Source\LwIP\src\core/tcp.c ****  * @return a copy of seg
1422:Source\LwIP\src\core/tcp.c ****  */
1423:Source\LwIP\src\core/tcp.c **** struct tcp_seg *
1424:Source\LwIP\src\core/tcp.c **** tcp_seg_copy(struct tcp_seg *seg)
1425:Source\LwIP\src\core/tcp.c **** {
 1234              		.loc 1 1425 0
 1235              		.cfi_startproc
 1236              		@ args = 0, pretend = 0, frame = 0
 1237              		@ frame_needed = 0, uses_anonymous_args = 0
 1238              	.LVL128:
 1239 0000 70B5     		push	{r4, r5, r6, lr}
 1240              		.cfi_def_cfa_offset 16
 1241              		.cfi_offset 4, -16
 1242              		.cfi_offset 5, -12
 1243              		.cfi_offset 6, -8
 1244              		.cfi_offset 14, -4
 1245 0002 0500     		movs	r5, r0
1426:Source\LwIP\src\core/tcp.c ****   struct tcp_seg *cseg;
1427:Source\LwIP\src\core/tcp.c **** 
1428:Source\LwIP\src\core/tcp.c ****   cseg = (struct tcp_seg *)memp_malloc(MEMP_TCP_SEG);
 1246              		.loc 1 1428 0
 1247 0004 084A     		ldr	r2, .L121
 1248 0006 0949     		ldr	r1, .L121+4
 1249 0008 0420     		movs	r0, #4
 1250              	.LVL129:
 1251 000a FFF7FEFF 		bl	memp_malloc_fn
 1252              	.LVL130:
 1253 000e 041E     		subs	r4, r0, #0
 1254              	.LVL131:
1429:Source\LwIP\src\core/tcp.c ****   if (cseg == NULL) {
 1255              		.loc 1 1429 0
 1256 0010 08D0     		beq	.L120
ARM GAS  C:\Users\Phuong\AppData\Local\Temp\cczg95Bp.s 			page 51


1430:Source\LwIP\src\core/tcp.c ****     return NULL;
1431:Source\LwIP\src\core/tcp.c ****   }
1432:Source\LwIP\src\core/tcp.c ****   SMEMCPY((u8_t *)cseg, (const u8_t *)seg, sizeof(struct tcp_seg));
 1257              		.loc 1 1432 0
 1258 0012 1422     		movs	r2, #20
 1259 0014 2900     		movs	r1, r5
 1260 0016 FFF7FEFF 		bl	memcpy
 1261              	.LVL132:
1433:Source\LwIP\src\core/tcp.c ****   pbuf_ref(cseg->p);
 1262              		.loc 1 1433 0
 1263 001a 6068     		ldr	r0, [r4, #4]
 1264 001c FFF7FEFF 		bl	pbuf_ref
 1265              	.LVL133:
1434:Source\LwIP\src\core/tcp.c ****   return cseg;
 1266              		.loc 1 1434 0
 1267 0020 2000     		movs	r0, r4
 1268 0022 00E0     		b	.L119
 1269              	.L120:
1430:Source\LwIP\src\core/tcp.c ****     return NULL;
 1270              		.loc 1 1430 0
 1271 0024 0020     		movs	r0, #0
 1272              	.L119:
1435:Source\LwIP\src\core/tcp.c **** }
 1273              		.loc 1 1435 0
 1274              		@ sp needed
 1275              	.LVL134:
 1276              	.LVL135:
 1277 0026 70BD     		pop	{r4, r5, r6, pc}
 1278              	.L122:
 1279              		.align	2
 1280              	.L121:
 1281 0028 94050000 		.word	1428
 1282 002c 00000000 		.word	.LC8
 1283              		.cfi_endproc
 1284              	.LFE80:
 1285              		.size	tcp_seg_copy, .-tcp_seg_copy
 1286              		.section	.text.tcp_arg,"ax",%progbits
 1287              		.align	2
 1288              		.global	tcp_arg
 1289              		.code	16
 1290              		.thumb_func
 1291              		.type	tcp_arg, %function
 1292              	tcp_arg:
 1293              	.LFB88:
1436:Source\LwIP\src\core/tcp.c **** #endif /* TCP_QUEUE_OOSEQ */
1437:Source\LwIP\src\core/tcp.c **** 
1438:Source\LwIP\src\core/tcp.c **** #if LWIP_CALLBACK_API
1439:Source\LwIP\src\core/tcp.c **** /**
1440:Source\LwIP\src\core/tcp.c ****  * Default receive callback that is called if the user didn't register
1441:Source\LwIP\src\core/tcp.c ****  * a recv callback for the pcb.
1442:Source\LwIP\src\core/tcp.c ****  */
1443:Source\LwIP\src\core/tcp.c **** err_t
1444:Source\LwIP\src\core/tcp.c **** tcp_recv_null(void *arg, struct tcp_pcb *pcb, struct pbuf *p, err_t err)
1445:Source\LwIP\src\core/tcp.c **** {
1446:Source\LwIP\src\core/tcp.c ****   LWIP_UNUSED_ARG(arg);
1447:Source\LwIP\src\core/tcp.c ****   if (p != NULL) {
1448:Source\LwIP\src\core/tcp.c ****     tcp_recved(pcb, p->tot_len);
ARM GAS  C:\Users\Phuong\AppData\Local\Temp\cczg95Bp.s 			page 52


1449:Source\LwIP\src\core/tcp.c ****     pbuf_free(p);
1450:Source\LwIP\src\core/tcp.c ****   } else if (err == ERR_OK) {
1451:Source\LwIP\src\core/tcp.c ****     return tcp_close(pcb);
1452:Source\LwIP\src\core/tcp.c ****   }
1453:Source\LwIP\src\core/tcp.c ****   return ERR_OK;
1454:Source\LwIP\src\core/tcp.c **** }
1455:Source\LwIP\src\core/tcp.c **** #endif /* LWIP_CALLBACK_API */
1456:Source\LwIP\src\core/tcp.c **** 
1457:Source\LwIP\src\core/tcp.c **** /**
1458:Source\LwIP\src\core/tcp.c ****  * Kills the oldest active connection that has the same or lower priority than
1459:Source\LwIP\src\core/tcp.c ****  * 'prio'.
1460:Source\LwIP\src\core/tcp.c ****  *
1461:Source\LwIP\src\core/tcp.c ****  * @param prio minimum priority
1462:Source\LwIP\src\core/tcp.c ****  */
1463:Source\LwIP\src\core/tcp.c **** static void
1464:Source\LwIP\src\core/tcp.c **** tcp_kill_prio(u8_t prio)
1465:Source\LwIP\src\core/tcp.c **** {
1466:Source\LwIP\src\core/tcp.c ****   struct tcp_pcb *pcb, *inactive;
1467:Source\LwIP\src\core/tcp.c ****   u32_t inactivity;
1468:Source\LwIP\src\core/tcp.c ****   u8_t mprio;
1469:Source\LwIP\src\core/tcp.c **** 
1470:Source\LwIP\src\core/tcp.c ****   mprio = LWIP_MIN(TCP_PRIO_MAX, prio);
1471:Source\LwIP\src\core/tcp.c **** 
1472:Source\LwIP\src\core/tcp.c ****   /* We kill the oldest active connection that has lower priority than prio. */
1473:Source\LwIP\src\core/tcp.c ****   inactivity = 0;
1474:Source\LwIP\src\core/tcp.c ****   inactive = NULL;
1475:Source\LwIP\src\core/tcp.c ****   for (pcb = tcp_active_pcbs; pcb != NULL; pcb = pcb->next) {
1476:Source\LwIP\src\core/tcp.c ****     if (pcb->prio <= mprio &&
1477:Source\LwIP\src\core/tcp.c ****        (u32_t)(tcp_ticks - pcb->tmr) >= inactivity) {
1478:Source\LwIP\src\core/tcp.c ****       inactivity = tcp_ticks - pcb->tmr;
1479:Source\LwIP\src\core/tcp.c ****       inactive = pcb;
1480:Source\LwIP\src\core/tcp.c ****       mprio = pcb->prio;
1481:Source\LwIP\src\core/tcp.c ****     }
1482:Source\LwIP\src\core/tcp.c ****   }
1483:Source\LwIP\src\core/tcp.c ****   if (inactive != NULL) {
1484:Source\LwIP\src\core/tcp.c ****     LWIP_DEBUGF(TCP_DEBUG, ("tcp_kill_prio: killing oldest PCB %p (%"S32_F")\n",
1485:Source\LwIP\src\core/tcp.c ****            (void *)inactive, inactivity));
1486:Source\LwIP\src\core/tcp.c ****     tcp_abort(inactive);
1487:Source\LwIP\src\core/tcp.c ****   }
1488:Source\LwIP\src\core/tcp.c **** }
1489:Source\LwIP\src\core/tcp.c **** 
1490:Source\LwIP\src\core/tcp.c **** /**
1491:Source\LwIP\src\core/tcp.c ****  * Kills the oldest connection that is in specific state.
1492:Source\LwIP\src\core/tcp.c ****  * Called from tcp_alloc() for LAST_ACK and CLOSING if no more connections are available.
1493:Source\LwIP\src\core/tcp.c ****  */
1494:Source\LwIP\src\core/tcp.c **** static void
1495:Source\LwIP\src\core/tcp.c **** tcp_kill_state(enum tcp_state state)
1496:Source\LwIP\src\core/tcp.c **** {
1497:Source\LwIP\src\core/tcp.c ****   struct tcp_pcb *pcb, *inactive;
1498:Source\LwIP\src\core/tcp.c ****   u32_t inactivity;
1499:Source\LwIP\src\core/tcp.c **** 
1500:Source\LwIP\src\core/tcp.c ****   LWIP_ASSERT("invalid state", (state == CLOSING) || (state == LAST_ACK));
1501:Source\LwIP\src\core/tcp.c **** 
1502:Source\LwIP\src\core/tcp.c ****   inactivity = 0;
1503:Source\LwIP\src\core/tcp.c ****   inactive = NULL;
1504:Source\LwIP\src\core/tcp.c ****   /* Go through the list of active pcbs and get the oldest pcb that is in state
1505:Source\LwIP\src\core/tcp.c ****      CLOSING/LAST_ACK. */
ARM GAS  C:\Users\Phuong\AppData\Local\Temp\cczg95Bp.s 			page 53


1506:Source\LwIP\src\core/tcp.c ****   for (pcb = tcp_active_pcbs; pcb != NULL; pcb = pcb->next) {
1507:Source\LwIP\src\core/tcp.c ****     if (pcb->state == state) {
1508:Source\LwIP\src\core/tcp.c ****       if ((u32_t)(tcp_ticks - pcb->tmr) >= inactivity) {
1509:Source\LwIP\src\core/tcp.c ****         inactivity = tcp_ticks - pcb->tmr;
1510:Source\LwIP\src\core/tcp.c ****         inactive = pcb;
1511:Source\LwIP\src\core/tcp.c ****       }
1512:Source\LwIP\src\core/tcp.c ****     }
1513:Source\LwIP\src\core/tcp.c ****   }
1514:Source\LwIP\src\core/tcp.c ****   if (inactive != NULL) {
1515:Source\LwIP\src\core/tcp.c ****     LWIP_DEBUGF(TCP_DEBUG, ("tcp_kill_closing: killing oldest %s PCB %p (%"S32_F")\n",
1516:Source\LwIP\src\core/tcp.c ****            tcp_state_str[state], (void *)inactive, inactivity));
1517:Source\LwIP\src\core/tcp.c ****     /* Don't send a RST, since no data is lost. */
1518:Source\LwIP\src\core/tcp.c ****     tcp_abandon(inactive, 0);
1519:Source\LwIP\src\core/tcp.c ****   }
1520:Source\LwIP\src\core/tcp.c **** }
1521:Source\LwIP\src\core/tcp.c **** 
1522:Source\LwIP\src\core/tcp.c **** /**
1523:Source\LwIP\src\core/tcp.c ****  * Kills the oldest connection that is in TIME_WAIT state.
1524:Source\LwIP\src\core/tcp.c ****  * Called from tcp_alloc() if no more connections are available.
1525:Source\LwIP\src\core/tcp.c ****  */
1526:Source\LwIP\src\core/tcp.c **** static void
1527:Source\LwIP\src\core/tcp.c **** tcp_kill_timewait(void)
1528:Source\LwIP\src\core/tcp.c **** {
1529:Source\LwIP\src\core/tcp.c ****   struct tcp_pcb *pcb, *inactive;
1530:Source\LwIP\src\core/tcp.c ****   u32_t inactivity;
1531:Source\LwIP\src\core/tcp.c **** 
1532:Source\LwIP\src\core/tcp.c ****   inactivity = 0;
1533:Source\LwIP\src\core/tcp.c ****   inactive = NULL;
1534:Source\LwIP\src\core/tcp.c ****   /* Go through the list of TIME_WAIT pcbs and get the oldest pcb. */
1535:Source\LwIP\src\core/tcp.c ****   for (pcb = tcp_tw_pcbs; pcb != NULL; pcb = pcb->next) {
1536:Source\LwIP\src\core/tcp.c ****     if ((u32_t)(tcp_ticks - pcb->tmr) >= inactivity) {
1537:Source\LwIP\src\core/tcp.c ****       inactivity = tcp_ticks - pcb->tmr;
1538:Source\LwIP\src\core/tcp.c ****       inactive = pcb;
1539:Source\LwIP\src\core/tcp.c ****     }
1540:Source\LwIP\src\core/tcp.c ****   }
1541:Source\LwIP\src\core/tcp.c ****   if (inactive != NULL) {
1542:Source\LwIP\src\core/tcp.c ****     LWIP_DEBUGF(TCP_DEBUG, ("tcp_kill_timewait: killing oldest TIME-WAIT PCB %p (%"S32_F")\n",
1543:Source\LwIP\src\core/tcp.c ****            (void *)inactive, inactivity));
1544:Source\LwIP\src\core/tcp.c ****     tcp_abort(inactive);
1545:Source\LwIP\src\core/tcp.c ****   }
1546:Source\LwIP\src\core/tcp.c **** }
1547:Source\LwIP\src\core/tcp.c **** 
1548:Source\LwIP\src\core/tcp.c **** /**
1549:Source\LwIP\src\core/tcp.c ****  * Allocate a new tcp_pcb structure.
1550:Source\LwIP\src\core/tcp.c ****  *
1551:Source\LwIP\src\core/tcp.c ****  * @param prio priority for the new pcb
1552:Source\LwIP\src\core/tcp.c ****  * @return a new tcp_pcb that initially is in state CLOSED
1553:Source\LwIP\src\core/tcp.c ****  */
1554:Source\LwIP\src\core/tcp.c **** struct tcp_pcb *
1555:Source\LwIP\src\core/tcp.c **** tcp_alloc(u8_t prio)
1556:Source\LwIP\src\core/tcp.c **** {
1557:Source\LwIP\src\core/tcp.c ****   struct tcp_pcb *pcb;
1558:Source\LwIP\src\core/tcp.c **** 
1559:Source\LwIP\src\core/tcp.c ****   pcb = (struct tcp_pcb *)memp_malloc(MEMP_TCP_PCB);
1560:Source\LwIP\src\core/tcp.c ****   if (pcb == NULL) {
1561:Source\LwIP\src\core/tcp.c ****     /* Try killing oldest connection in TIME-WAIT. */
1562:Source\LwIP\src\core/tcp.c ****     LWIP_DEBUGF(TCP_DEBUG, ("tcp_alloc: killing off oldest TIME-WAIT connection\n"));
ARM GAS  C:\Users\Phuong\AppData\Local\Temp\cczg95Bp.s 			page 54


1563:Source\LwIP\src\core/tcp.c ****     tcp_kill_timewait();
1564:Source\LwIP\src\core/tcp.c ****     /* Try to allocate a tcp_pcb again. */
1565:Source\LwIP\src\core/tcp.c ****     pcb = (struct tcp_pcb *)memp_malloc(MEMP_TCP_PCB);
1566:Source\LwIP\src\core/tcp.c ****     if (pcb == NULL) {
1567:Source\LwIP\src\core/tcp.c ****       /* Try killing oldest connection in LAST-ACK (these wouldn't go to TIME-WAIT). */
1568:Source\LwIP\src\core/tcp.c ****       LWIP_DEBUGF(TCP_DEBUG, ("tcp_alloc: killing off oldest LAST-ACK connection\n"));
1569:Source\LwIP\src\core/tcp.c ****       tcp_kill_state(LAST_ACK);
1570:Source\LwIP\src\core/tcp.c ****       /* Try to allocate a tcp_pcb again. */
1571:Source\LwIP\src\core/tcp.c ****       pcb = (struct tcp_pcb *)memp_malloc(MEMP_TCP_PCB);
1572:Source\LwIP\src\core/tcp.c ****       if (pcb == NULL) {
1573:Source\LwIP\src\core/tcp.c ****         /* Try killing oldest connection in CLOSING. */
1574:Source\LwIP\src\core/tcp.c ****         LWIP_DEBUGF(TCP_DEBUG, ("tcp_alloc: killing off oldest CLOSING connection\n"));
1575:Source\LwIP\src\core/tcp.c ****         tcp_kill_state(CLOSING);
1576:Source\LwIP\src\core/tcp.c ****         /* Try to allocate a tcp_pcb again. */
1577:Source\LwIP\src\core/tcp.c ****         pcb = (struct tcp_pcb *)memp_malloc(MEMP_TCP_PCB);
1578:Source\LwIP\src\core/tcp.c ****         if (pcb == NULL) {
1579:Source\LwIP\src\core/tcp.c ****           /* Try killing active connections with lower priority than the new one. */
1580:Source\LwIP\src\core/tcp.c ****           LWIP_DEBUGF(TCP_DEBUG, ("tcp_alloc: killing connection with prio lower than %d\n", prio))
1581:Source\LwIP\src\core/tcp.c ****           tcp_kill_prio(prio);
1582:Source\LwIP\src\core/tcp.c ****           /* Try to allocate a tcp_pcb again. */
1583:Source\LwIP\src\core/tcp.c ****           pcb = (struct tcp_pcb *)memp_malloc(MEMP_TCP_PCB);
1584:Source\LwIP\src\core/tcp.c ****           if (pcb != NULL) {
1585:Source\LwIP\src\core/tcp.c ****             /* adjust err stats: memp_malloc failed multiple times before */
1586:Source\LwIP\src\core/tcp.c ****             MEMP_STATS_DEC(err, MEMP_TCP_PCB);
1587:Source\LwIP\src\core/tcp.c ****           }
1588:Source\LwIP\src\core/tcp.c ****         }
1589:Source\LwIP\src\core/tcp.c ****         if (pcb != NULL) {
1590:Source\LwIP\src\core/tcp.c ****           /* adjust err stats: memp_malloc failed multiple times before */
1591:Source\LwIP\src\core/tcp.c ****           MEMP_STATS_DEC(err, MEMP_TCP_PCB);
1592:Source\LwIP\src\core/tcp.c ****         }
1593:Source\LwIP\src\core/tcp.c ****       }
1594:Source\LwIP\src\core/tcp.c ****       if (pcb != NULL) {
1595:Source\LwIP\src\core/tcp.c ****         /* adjust err stats: memp_malloc failed multiple times before */
1596:Source\LwIP\src\core/tcp.c ****         MEMP_STATS_DEC(err, MEMP_TCP_PCB);
1597:Source\LwIP\src\core/tcp.c ****       }
1598:Source\LwIP\src\core/tcp.c ****     }
1599:Source\LwIP\src\core/tcp.c ****     if (pcb != NULL) {
1600:Source\LwIP\src\core/tcp.c ****       /* adjust err stats: memp_malloc failed above */
1601:Source\LwIP\src\core/tcp.c ****       MEMP_STATS_DEC(err, MEMP_TCP_PCB);
1602:Source\LwIP\src\core/tcp.c ****     }
1603:Source\LwIP\src\core/tcp.c ****   }
1604:Source\LwIP\src\core/tcp.c ****   if (pcb != NULL) {
1605:Source\LwIP\src\core/tcp.c ****     /* zero out the whole pcb, so there is no need to initialize members to zero */
1606:Source\LwIP\src\core/tcp.c ****     memset(pcb, 0, sizeof(struct tcp_pcb));
1607:Source\LwIP\src\core/tcp.c ****     pcb->prio = prio;
1608:Source\LwIP\src\core/tcp.c ****     pcb->snd_buf = TCP_SND_BUF;
1609:Source\LwIP\src\core/tcp.c ****     /* Start with a window that does not need scaling. When window scaling is
1610:Source\LwIP\src\core/tcp.c ****        enabled and used, the window is enlarged when both sides agree on scaling. */
1611:Source\LwIP\src\core/tcp.c ****     pcb->rcv_wnd = pcb->rcv_ann_wnd = TCPWND_MIN16(TCP_WND);
1612:Source\LwIP\src\core/tcp.c ****     pcb->ttl = TCP_TTL;
1613:Source\LwIP\src\core/tcp.c ****     /* As initial send MSS, we use TCP_MSS but limit it to 536.
1614:Source\LwIP\src\core/tcp.c ****        The send MSS is updated when an MSS option is received. */
1615:Source\LwIP\src\core/tcp.c ****     pcb->mss = INITIAL_MSS;
1616:Source\LwIP\src\core/tcp.c ****     pcb->rto = 3000 / TCP_SLOW_INTERVAL;
1617:Source\LwIP\src\core/tcp.c ****     pcb->sv = 3000 / TCP_SLOW_INTERVAL;
1618:Source\LwIP\src\core/tcp.c ****     pcb->rtime = -1;
1619:Source\LwIP\src\core/tcp.c ****     pcb->cwnd = 1;
ARM GAS  C:\Users\Phuong\AppData\Local\Temp\cczg95Bp.s 			page 55


1620:Source\LwIP\src\core/tcp.c ****     pcb->tmr = tcp_ticks;
1621:Source\LwIP\src\core/tcp.c ****     pcb->last_timer = tcp_timer_ctr;
1622:Source\LwIP\src\core/tcp.c **** 
1623:Source\LwIP\src\core/tcp.c ****     /* RFC 5681 recommends setting ssthresh abritrarily high and gives an example
1624:Source\LwIP\src\core/tcp.c ****     of using the largest advertised receive window.  We've seen complications with
1625:Source\LwIP\src\core/tcp.c ****     receiving TCPs that use window scaling and/or window auto-tuning where the
1626:Source\LwIP\src\core/tcp.c ****     initial advertised window is very small and then grows rapidly once the
1627:Source\LwIP\src\core/tcp.c ****     connection is established. To avoid these complications, we set ssthresh to the
1628:Source\LwIP\src\core/tcp.c ****     largest effective cwnd (amount of in-flight data) that the sender can have. */
1629:Source\LwIP\src\core/tcp.c ****     pcb->ssthresh = TCP_SND_BUF;
1630:Source\LwIP\src\core/tcp.c **** 
1631:Source\LwIP\src\core/tcp.c **** #if LWIP_CALLBACK_API
1632:Source\LwIP\src\core/tcp.c ****     pcb->recv = tcp_recv_null;
1633:Source\LwIP\src\core/tcp.c **** #endif /* LWIP_CALLBACK_API */
1634:Source\LwIP\src\core/tcp.c **** 
1635:Source\LwIP\src\core/tcp.c ****     /* Init KEEPALIVE timer */
1636:Source\LwIP\src\core/tcp.c ****     pcb->keep_idle  = TCP_KEEPIDLE_DEFAULT;
1637:Source\LwIP\src\core/tcp.c **** 
1638:Source\LwIP\src\core/tcp.c **** #if LWIP_TCP_KEEPALIVE
1639:Source\LwIP\src\core/tcp.c ****     pcb->keep_intvl = TCP_KEEPINTVL_DEFAULT;
1640:Source\LwIP\src\core/tcp.c ****     pcb->keep_cnt   = TCP_KEEPCNT_DEFAULT;
1641:Source\LwIP\src\core/tcp.c **** #endif /* LWIP_TCP_KEEPALIVE */
1642:Source\LwIP\src\core/tcp.c ****   }
1643:Source\LwIP\src\core/tcp.c ****   return pcb;
1644:Source\LwIP\src\core/tcp.c **** }
1645:Source\LwIP\src\core/tcp.c **** 
1646:Source\LwIP\src\core/tcp.c **** /**
1647:Source\LwIP\src\core/tcp.c ****  * @ingroup tcp_raw
1648:Source\LwIP\src\core/tcp.c ****  * Creates a new TCP protocol control block but doesn't place it on
1649:Source\LwIP\src\core/tcp.c ****  * any of the TCP PCB lists.
1650:Source\LwIP\src\core/tcp.c ****  * The pcb is not put on any list until binding using tcp_bind().
1651:Source\LwIP\src\core/tcp.c ****  *
1652:Source\LwIP\src\core/tcp.c ****  * @internal: Maybe there should be a idle TCP PCB list where these
1653:Source\LwIP\src\core/tcp.c ****  * PCBs are put on. Port reservation using tcp_bind() is implemented but
1654:Source\LwIP\src\core/tcp.c ****  * allocated pcbs that are not bound can't be killed automatically if wanting
1655:Source\LwIP\src\core/tcp.c ****  * to allocate a pcb with higher prio (@see tcp_kill_prio())
1656:Source\LwIP\src\core/tcp.c ****  *
1657:Source\LwIP\src\core/tcp.c ****  * @return a new tcp_pcb that initially is in state CLOSED
1658:Source\LwIP\src\core/tcp.c ****  */
1659:Source\LwIP\src\core/tcp.c **** struct tcp_pcb *
1660:Source\LwIP\src\core/tcp.c **** tcp_new(void)
1661:Source\LwIP\src\core/tcp.c **** {
1662:Source\LwIP\src\core/tcp.c ****   return tcp_alloc(TCP_PRIO_NORMAL);
1663:Source\LwIP\src\core/tcp.c **** }
1664:Source\LwIP\src\core/tcp.c **** 
1665:Source\LwIP\src\core/tcp.c **** /**
1666:Source\LwIP\src\core/tcp.c ****  * @ingroup tcp_raw
1667:Source\LwIP\src\core/tcp.c ****  * Creates a new TCP protocol control block but doesn't
1668:Source\LwIP\src\core/tcp.c ****  * place it on any of the TCP PCB lists.
1669:Source\LwIP\src\core/tcp.c ****  * The pcb is not put on any list until binding using tcp_bind().
1670:Source\LwIP\src\core/tcp.c ****  *
1671:Source\LwIP\src\core/tcp.c ****  * @param type IP address type, see @ref lwip_ip_addr_type definitions.
1672:Source\LwIP\src\core/tcp.c ****  * If you want to listen to IPv4 and IPv6 (dual-stack) connections,
1673:Source\LwIP\src\core/tcp.c ****  * supply @ref IPADDR_TYPE_ANY as argument and bind to @ref IP_ANY_TYPE.
1674:Source\LwIP\src\core/tcp.c ****  * @return a new tcp_pcb that initially is in state CLOSED
1675:Source\LwIP\src\core/tcp.c ****  */
1676:Source\LwIP\src\core/tcp.c **** struct tcp_pcb *
ARM GAS  C:\Users\Phuong\AppData\Local\Temp\cczg95Bp.s 			page 56


1677:Source\LwIP\src\core/tcp.c **** tcp_new_ip_type(u8_t type)
1678:Source\LwIP\src\core/tcp.c **** {
1679:Source\LwIP\src\core/tcp.c ****   struct tcp_pcb * pcb;
1680:Source\LwIP\src\core/tcp.c ****   pcb = tcp_alloc(TCP_PRIO_NORMAL);
1681:Source\LwIP\src\core/tcp.c **** #if LWIP_IPV4 && LWIP_IPV6
1682:Source\LwIP\src\core/tcp.c ****   if (pcb != NULL) {
1683:Source\LwIP\src\core/tcp.c ****     IP_SET_TYPE_VAL(pcb->local_ip, type);
1684:Source\LwIP\src\core/tcp.c ****     IP_SET_TYPE_VAL(pcb->remote_ip, type);
1685:Source\LwIP\src\core/tcp.c ****   }
1686:Source\LwIP\src\core/tcp.c **** #else
1687:Source\LwIP\src\core/tcp.c ****   LWIP_UNUSED_ARG(type);
1688:Source\LwIP\src\core/tcp.c **** #endif /* LWIP_IPV4 && LWIP_IPV6 */
1689:Source\LwIP\src\core/tcp.c ****   return pcb;
1690:Source\LwIP\src\core/tcp.c **** }
1691:Source\LwIP\src\core/tcp.c **** 
1692:Source\LwIP\src\core/tcp.c **** /**
1693:Source\LwIP\src\core/tcp.c ****  * @ingroup tcp_raw
1694:Source\LwIP\src\core/tcp.c ****  * Used to specify the argument that should be passed callback
1695:Source\LwIP\src\core/tcp.c ****  * functions.
1696:Source\LwIP\src\core/tcp.c ****  *
1697:Source\LwIP\src\core/tcp.c ****  * @param pcb tcp_pcb to set the callback argument
1698:Source\LwIP\src\core/tcp.c ****  * @param arg void pointer argument to pass to callback functions
1699:Source\LwIP\src\core/tcp.c ****  */
1700:Source\LwIP\src\core/tcp.c **** void
1701:Source\LwIP\src\core/tcp.c **** tcp_arg(struct tcp_pcb *pcb, void *arg)
1702:Source\LwIP\src\core/tcp.c **** {
 1294              		.loc 1 1702 0
 1295              		.cfi_startproc
 1296              		@ args = 0, pretend = 0, frame = 0
 1297              		@ frame_needed = 0, uses_anonymous_args = 0
 1298              		@ link register save eliminated.
 1299              	.LVL136:
1703:Source\LwIP\src\core/tcp.c ****   /* This function is allowed to be called for both listen pcbs and
1704:Source\LwIP\src\core/tcp.c ****      connection pcbs. */
1705:Source\LwIP\src\core/tcp.c ****   if (pcb != NULL) {
 1300              		.loc 1 1705 0
 1301 0000 0028     		cmp	r0, #0
 1302 0002 00D0     		beq	.L123
1706:Source\LwIP\src\core/tcp.c ****     pcb->callback_arg = arg;
 1303              		.loc 1 1706 0
 1304 0004 0161     		str	r1, [r0, #16]
 1305              	.L123:
1707:Source\LwIP\src\core/tcp.c ****   }
1708:Source\LwIP\src\core/tcp.c **** }
 1306              		.loc 1 1708 0
 1307              		@ sp needed
 1308 0006 7047     		bx	lr
 1309              		.cfi_endproc
 1310              	.LFE88:
 1311              		.size	tcp_arg, .-tcp_arg
 1312              		.section	.text.tcp_recv,"ax",%progbits
 1313              		.align	2
 1314              		.global	tcp_recv
 1315              		.code	16
 1316              		.thumb_func
 1317              		.type	tcp_recv, %function
 1318              	tcp_recv:
ARM GAS  C:\Users\Phuong\AppData\Local\Temp\cczg95Bp.s 			page 57


 1319              	.LFB89:
1709:Source\LwIP\src\core/tcp.c **** #if LWIP_CALLBACK_API
1710:Source\LwIP\src\core/tcp.c **** 
1711:Source\LwIP\src\core/tcp.c **** /**
1712:Source\LwIP\src\core/tcp.c ****  * @ingroup tcp_raw
1713:Source\LwIP\src\core/tcp.c ****  * Used to specify the function that should be called when a TCP
1714:Source\LwIP\src\core/tcp.c ****  * connection receives data.
1715:Source\LwIP\src\core/tcp.c ****  *
1716:Source\LwIP\src\core/tcp.c ****  * @param pcb tcp_pcb to set the recv callback
1717:Source\LwIP\src\core/tcp.c ****  * @param recv callback function to call for this pcb when data is received
1718:Source\LwIP\src\core/tcp.c ****  */
1719:Source\LwIP\src\core/tcp.c **** void
1720:Source\LwIP\src\core/tcp.c **** tcp_recv(struct tcp_pcb *pcb, tcp_recv_fn recv)
1721:Source\LwIP\src\core/tcp.c **** {
 1320              		.loc 1 1721 0
 1321              		.cfi_startproc
 1322              		@ args = 0, pretend = 0, frame = 0
 1323              		@ frame_needed = 0, uses_anonymous_args = 0
 1324              		@ link register save eliminated.
 1325              	.LVL137:
1722:Source\LwIP\src\core/tcp.c ****   if (pcb != NULL) {
 1326              		.loc 1 1722 0
 1327 0000 0028     		cmp	r0, #0
 1328 0002 01D0     		beq	.L125
1723:Source\LwIP\src\core/tcp.c ****     LWIP_ASSERT("invalid socket state for recv callback", pcb->state != LISTEN);
1724:Source\LwIP\src\core/tcp.c ****     pcb->recv = recv;
 1329              		.loc 1 1724 0
 1330 0004 8023     		movs	r3, #128
 1331 0006 C150     		str	r1, [r0, r3]
 1332              	.L125:
1725:Source\LwIP\src\core/tcp.c ****   }
1726:Source\LwIP\src\core/tcp.c **** }
 1333              		.loc 1 1726 0
 1334              		@ sp needed
 1335 0008 7047     		bx	lr
 1336              		.cfi_endproc
 1337              	.LFE89:
 1338              		.size	tcp_recv, .-tcp_recv
 1339 000a C046     		.section	.text.tcp_sent,"ax",%progbits
 1340              		.align	2
 1341              		.global	tcp_sent
 1342              		.code	16
 1343              		.thumb_func
 1344              		.type	tcp_sent, %function
 1345              	tcp_sent:
 1346              	.LFB90:
1727:Source\LwIP\src\core/tcp.c **** 
1728:Source\LwIP\src\core/tcp.c **** /**
1729:Source\LwIP\src\core/tcp.c ****  * @ingroup tcp_raw
1730:Source\LwIP\src\core/tcp.c ****  * Used to specify the function that should be called when TCP data
1731:Source\LwIP\src\core/tcp.c ****  * has been successfully delivered to the remote host.
1732:Source\LwIP\src\core/tcp.c ****  *
1733:Source\LwIP\src\core/tcp.c ****  * @param pcb tcp_pcb to set the sent callback
1734:Source\LwIP\src\core/tcp.c ****  * @param sent callback function to call for this pcb when data is successfully sent
1735:Source\LwIP\src\core/tcp.c ****  */
1736:Source\LwIP\src\core/tcp.c **** void
1737:Source\LwIP\src\core/tcp.c **** tcp_sent(struct tcp_pcb *pcb, tcp_sent_fn sent)
ARM GAS  C:\Users\Phuong\AppData\Local\Temp\cczg95Bp.s 			page 58


1738:Source\LwIP\src\core/tcp.c **** {
 1347              		.loc 1 1738 0
 1348              		.cfi_startproc
 1349              		@ args = 0, pretend = 0, frame = 0
 1350              		@ frame_needed = 0, uses_anonymous_args = 0
 1351              		@ link register save eliminated.
 1352              	.LVL138:
1739:Source\LwIP\src\core/tcp.c ****   if (pcb != NULL) {
 1353              		.loc 1 1739 0
 1354 0000 0028     		cmp	r0, #0
 1355 0002 00D0     		beq	.L127
1740:Source\LwIP\src\core/tcp.c ****     LWIP_ASSERT("invalid socket state for sent callback", pcb->state != LISTEN);
1741:Source\LwIP\src\core/tcp.c ****     pcb->sent = sent;
 1356              		.loc 1 1741 0
 1357 0004 C167     		str	r1, [r0, #124]
 1358              	.L127:
1742:Source\LwIP\src\core/tcp.c ****   }
1743:Source\LwIP\src\core/tcp.c **** }
 1359              		.loc 1 1743 0
 1360              		@ sp needed
 1361 0006 7047     		bx	lr
 1362              		.cfi_endproc
 1363              	.LFE90:
 1364              		.size	tcp_sent, .-tcp_sent
 1365              		.section	.text.tcp_err,"ax",%progbits
 1366              		.align	2
 1367              		.global	tcp_err
 1368              		.code	16
 1369              		.thumb_func
 1370              		.type	tcp_err, %function
 1371              	tcp_err:
 1372              	.LFB91:
1744:Source\LwIP\src\core/tcp.c **** 
1745:Source\LwIP\src\core/tcp.c **** /**
1746:Source\LwIP\src\core/tcp.c ****  * @ingroup tcp_raw
1747:Source\LwIP\src\core/tcp.c ****  * Used to specify the function that should be called when a fatal error
1748:Source\LwIP\src\core/tcp.c ****  * has occurred on the connection.
1749:Source\LwIP\src\core/tcp.c ****  *
1750:Source\LwIP\src\core/tcp.c ****  * @note The corresponding pcb is already freed when this callback is called!
1751:Source\LwIP\src\core/tcp.c ****  * 
1752:Source\LwIP\src\core/tcp.c ****  * @param pcb tcp_pcb to set the err callback
1753:Source\LwIP\src\core/tcp.c ****  * @param err callback function to call for this pcb when a fatal error
1754:Source\LwIP\src\core/tcp.c ****  *        has occurred on the connection
1755:Source\LwIP\src\core/tcp.c ****  */
1756:Source\LwIP\src\core/tcp.c **** void
1757:Source\LwIP\src\core/tcp.c **** tcp_err(struct tcp_pcb *pcb, tcp_err_fn err)
1758:Source\LwIP\src\core/tcp.c **** {
 1373              		.loc 1 1758 0
 1374              		.cfi_startproc
 1375              		@ args = 0, pretend = 0, frame = 0
 1376              		@ frame_needed = 0, uses_anonymous_args = 0
 1377              		@ link register save eliminated.
 1378              	.LVL139:
1759:Source\LwIP\src\core/tcp.c ****   if (pcb != NULL) {
 1379              		.loc 1 1759 0
 1380 0000 0028     		cmp	r0, #0
 1381 0002 01D0     		beq	.L129
ARM GAS  C:\Users\Phuong\AppData\Local\Temp\cczg95Bp.s 			page 59


1760:Source\LwIP\src\core/tcp.c ****     LWIP_ASSERT("invalid socket state for err callback", pcb->state != LISTEN);
1761:Source\LwIP\src\core/tcp.c ****     pcb->errf = err;
 1382              		.loc 1 1761 0
 1383 0004 8C23     		movs	r3, #140
 1384 0006 C150     		str	r1, [r0, r3]
 1385              	.L129:
1762:Source\LwIP\src\core/tcp.c ****   }
1763:Source\LwIP\src\core/tcp.c **** }
 1386              		.loc 1 1763 0
 1387              		@ sp needed
 1388 0008 7047     		bx	lr
 1389              		.cfi_endproc
 1390              	.LFE91:
 1391              		.size	tcp_err, .-tcp_err
 1392 000a C046     		.section	.text.tcp_accept,"ax",%progbits
 1393              		.align	2
 1394              		.global	tcp_accept
 1395              		.code	16
 1396              		.thumb_func
 1397              		.type	tcp_accept, %function
 1398              	tcp_accept:
 1399              	.LFB92:
1764:Source\LwIP\src\core/tcp.c **** 
1765:Source\LwIP\src\core/tcp.c **** /**
1766:Source\LwIP\src\core/tcp.c ****  * @ingroup tcp_raw
1767:Source\LwIP\src\core/tcp.c ****  * Used for specifying the function that should be called when a
1768:Source\LwIP\src\core/tcp.c ****  * LISTENing connection has been connected to another host.
1769:Source\LwIP\src\core/tcp.c ****  *
1770:Source\LwIP\src\core/tcp.c ****  * @param pcb tcp_pcb to set the accept callback
1771:Source\LwIP\src\core/tcp.c ****  * @param accept callback function to call for this pcb when LISTENing
1772:Source\LwIP\src\core/tcp.c ****  *        connection has been connected to another host
1773:Source\LwIP\src\core/tcp.c ****  */
1774:Source\LwIP\src\core/tcp.c **** void
1775:Source\LwIP\src\core/tcp.c **** tcp_accept(struct tcp_pcb *pcb, tcp_accept_fn accept)
1776:Source\LwIP\src\core/tcp.c **** {
 1400              		.loc 1 1776 0
 1401              		.cfi_startproc
 1402              		@ args = 0, pretend = 0, frame = 0
 1403              		@ frame_needed = 0, uses_anonymous_args = 0
 1404              		@ link register save eliminated.
 1405              	.LVL140:
1777:Source\LwIP\src\core/tcp.c ****   if ((pcb != NULL) && (pcb->state == LISTEN)) {
 1406              		.loc 1 1777 0
 1407 0000 0028     		cmp	r0, #0
 1408 0002 03D0     		beq	.L131
 1409              		.loc 1 1777 0 is_stmt 0 discriminator 1
 1410 0004 037D     		ldrb	r3, [r0, #20]
 1411 0006 012B     		cmp	r3, #1
 1412 0008 00D1     		bne	.L131
 1413              	.LVL141:
 1414              	.LBB5:
1778:Source\LwIP\src\core/tcp.c ****     struct tcp_pcb_listen *lpcb = (struct tcp_pcb_listen*)pcb;
1779:Source\LwIP\src\core/tcp.c ****     lpcb->accept = accept;
 1415              		.loc 1 1779 0 is_stmt 1
 1416 000a 8161     		str	r1, [r0, #24]
 1417              	.LVL142:
 1418              	.L131:
ARM GAS  C:\Users\Phuong\AppData\Local\Temp\cczg95Bp.s 			page 60


 1419              	.LBE5:
1780:Source\LwIP\src\core/tcp.c ****   }
1781:Source\LwIP\src\core/tcp.c **** }
 1420              		.loc 1 1781 0
 1421              		@ sp needed
 1422 000c 7047     		bx	lr
 1423              		.cfi_endproc
 1424              	.LFE92:
 1425              		.size	tcp_accept, .-tcp_accept
 1426 000e C046     		.section	.text.tcp_poll,"ax",%progbits
 1427              		.align	2
 1428              		.global	tcp_poll
 1429              		.code	16
 1430              		.thumb_func
 1431              		.type	tcp_poll, %function
 1432              	tcp_poll:
 1433              	.LFB93:
1782:Source\LwIP\src\core/tcp.c **** #endif /* LWIP_CALLBACK_API */
1783:Source\LwIP\src\core/tcp.c **** 
1784:Source\LwIP\src\core/tcp.c **** 
1785:Source\LwIP\src\core/tcp.c **** /**
1786:Source\LwIP\src\core/tcp.c ****  * @ingroup tcp_raw
1787:Source\LwIP\src\core/tcp.c ****  * Used to specify the function that should be called periodically
1788:Source\LwIP\src\core/tcp.c ****  * from TCP. The interval is specified in terms of the TCP coarse
1789:Source\LwIP\src\core/tcp.c ****  * timer interval, which is called twice a second.
1790:Source\LwIP\src\core/tcp.c ****  *
1791:Source\LwIP\src\core/tcp.c ****  */
1792:Source\LwIP\src\core/tcp.c **** void
1793:Source\LwIP\src\core/tcp.c **** tcp_poll(struct tcp_pcb *pcb, tcp_poll_fn poll, u8_t interval)
1794:Source\LwIP\src\core/tcp.c **** {
 1434              		.loc 1 1794 0
 1435              		.cfi_startproc
 1436              		@ args = 0, pretend = 0, frame = 0
 1437              		@ frame_needed = 0, uses_anonymous_args = 0
 1438              		@ link register save eliminated.
 1439              	.LVL143:
1795:Source\LwIP\src\core/tcp.c ****   LWIP_ASSERT("invalid socket state for poll", pcb->state != LISTEN);
1796:Source\LwIP\src\core/tcp.c **** #if LWIP_CALLBACK_API
1797:Source\LwIP\src\core/tcp.c ****   pcb->poll = poll;
 1440              		.loc 1 1797 0
 1441 0000 8823     		movs	r3, #136
 1442 0002 C150     		str	r1, [r0, r3]
1798:Source\LwIP\src\core/tcp.c **** #else /* LWIP_CALLBACK_API */
1799:Source\LwIP\src\core/tcp.c ****   LWIP_UNUSED_ARG(poll);
1800:Source\LwIP\src\core/tcp.c **** #endif /* LWIP_CALLBACK_API */
1801:Source\LwIP\src\core/tcp.c ****   pcb->pollinterval = interval;
 1443              		.loc 1 1801 0
 1444 0004 4277     		strb	r2, [r0, #29]
1802:Source\LwIP\src\core/tcp.c **** }
 1445              		.loc 1 1802 0
 1446              		@ sp needed
 1447 0006 7047     		bx	lr
 1448              		.cfi_endproc
 1449              	.LFE93:
 1450              		.size	tcp_poll, .-tcp_poll
 1451              		.section	.text.tcp_pcb_purge,"ax",%progbits
 1452              		.align	2
ARM GAS  C:\Users\Phuong\AppData\Local\Temp\cczg95Bp.s 			page 61


 1453              		.global	tcp_pcb_purge
 1454              		.code	16
 1455              		.thumb_func
 1456              		.type	tcp_pcb_purge, %function
 1457              	tcp_pcb_purge:
 1458              	.LFB94:
1803:Source\LwIP\src\core/tcp.c **** 
1804:Source\LwIP\src\core/tcp.c **** /**
1805:Source\LwIP\src\core/tcp.c ****  * Purges a TCP PCB. Removes any buffered data and frees the buffer memory
1806:Source\LwIP\src\core/tcp.c ****  * (pcb->ooseq, pcb->unsent and pcb->unacked are freed).
1807:Source\LwIP\src\core/tcp.c ****  *
1808:Source\LwIP\src\core/tcp.c ****  * @param pcb tcp_pcb to purge. The pcb itself is not deallocated!
1809:Source\LwIP\src\core/tcp.c ****  */
1810:Source\LwIP\src\core/tcp.c **** void
1811:Source\LwIP\src\core/tcp.c **** tcp_pcb_purge(struct tcp_pcb *pcb)
1812:Source\LwIP\src\core/tcp.c **** {
 1459              		.loc 1 1812 0
 1460              		.cfi_startproc
 1461              		@ args = 0, pretend = 0, frame = 0
 1462              		@ frame_needed = 0, uses_anonymous_args = 0
 1463              	.LVL144:
 1464 0000 70B5     		push	{r4, r5, r6, lr}
 1465              		.cfi_def_cfa_offset 16
 1466              		.cfi_offset 4, -16
 1467              		.cfi_offset 5, -12
 1468              		.cfi_offset 6, -8
 1469              		.cfi_offset 14, -4
 1470 0002 0400     		movs	r4, r0
1813:Source\LwIP\src\core/tcp.c ****   if (pcb->state != CLOSED &&
 1471              		.loc 1 1813 0
 1472 0004 037D     		ldrb	r3, [r0, #20]
 1473 0006 002B     		cmp	r3, #0
 1474 0008 1ED0     		beq	.L134
 1475              		.loc 1 1813 0 is_stmt 0 discriminator 1
 1476 000a 0A2B     		cmp	r3, #10
 1477 000c 1CD0     		beq	.L134
1814:Source\LwIP\src\core/tcp.c ****      pcb->state != TIME_WAIT &&
 1478              		.loc 1 1814 0 is_stmt 1
 1479 000e 012B     		cmp	r3, #1
 1480 0010 1AD0     		beq	.L134
1815:Source\LwIP\src\core/tcp.c ****      pcb->state != LISTEN) {
1816:Source\LwIP\src\core/tcp.c **** 
1817:Source\LwIP\src\core/tcp.c ****     LWIP_DEBUGF(TCP_DEBUG, ("tcp_pcb_purge\n"));
1818:Source\LwIP\src\core/tcp.c **** 
1819:Source\LwIP\src\core/tcp.c ****     tcp_backlog_accepted(pcb);
 1481              		.loc 1 1819 0
 1482 0012 FFF7FEFF 		bl	tcp_backlog_accepted
 1483              	.LVL145:
1820:Source\LwIP\src\core/tcp.c **** 
1821:Source\LwIP\src\core/tcp.c ****     if (pcb->refused_data != NULL) {
 1484              		.loc 1 1821 0
 1485 0016 606F     		ldr	r0, [r4, #116]
 1486 0018 0028     		cmp	r0, #0
 1487 001a 03D0     		beq	.L136
1822:Source\LwIP\src\core/tcp.c ****       LWIP_DEBUGF(TCP_DEBUG, ("tcp_pcb_purge: data left on ->refused_data\n"));
1823:Source\LwIP\src\core/tcp.c ****       pbuf_free(pcb->refused_data);
 1488              		.loc 1 1823 0
ARM GAS  C:\Users\Phuong\AppData\Local\Temp\cczg95Bp.s 			page 62


 1489 001c FFF7FEFF 		bl	pbuf_free
 1490              	.LVL146:
1824:Source\LwIP\src\core/tcp.c ****       pcb->refused_data = NULL;
 1491              		.loc 1 1824 0
 1492 0020 0023     		movs	r3, #0
 1493 0022 6367     		str	r3, [r4, #116]
 1494              	.L136:
1825:Source\LwIP\src\core/tcp.c ****     }
1826:Source\LwIP\src\core/tcp.c ****     if (pcb->unsent != NULL) {
1827:Source\LwIP\src\core/tcp.c ****       LWIP_DEBUGF(TCP_DEBUG, ("tcp_pcb_purge: not all data sent\n"));
1828:Source\LwIP\src\core/tcp.c ****     }
1829:Source\LwIP\src\core/tcp.c ****     if (pcb->unacked != NULL) {
1830:Source\LwIP\src\core/tcp.c ****       LWIP_DEBUGF(TCP_DEBUG, ("tcp_pcb_purge: data left on ->unacked\n"));
1831:Source\LwIP\src\core/tcp.c ****     }
1832:Source\LwIP\src\core/tcp.c **** #if TCP_QUEUE_OOSEQ
1833:Source\LwIP\src\core/tcp.c ****     if (pcb->ooseq != NULL) {
1834:Source\LwIP\src\core/tcp.c ****       LWIP_DEBUGF(TCP_DEBUG, ("tcp_pcb_purge: data left on ->ooseq\n"));
1835:Source\LwIP\src\core/tcp.c ****     }
1836:Source\LwIP\src\core/tcp.c ****     tcp_segs_free(pcb->ooseq);
 1495              		.loc 1 1836 0
 1496 0024 206F     		ldr	r0, [r4, #112]
 1497 0026 FFF7FEFF 		bl	tcp_segs_free
 1498              	.LVL147:
1837:Source\LwIP\src\core/tcp.c ****     pcb->ooseq = NULL;
 1499              		.loc 1 1837 0
 1500 002a 0025     		movs	r5, #0
 1501 002c 2567     		str	r5, [r4, #112]
1838:Source\LwIP\src\core/tcp.c **** #endif /* TCP_QUEUE_OOSEQ */
1839:Source\LwIP\src\core/tcp.c **** 
1840:Source\LwIP\src\core/tcp.c ****     /* Stop the retransmission timer as it will expect data on unacked
1841:Source\LwIP\src\core/tcp.c ****        queue if it fires */
1842:Source\LwIP\src\core/tcp.c ****     pcb->rtime = -1;
 1502              		.loc 1 1842 0
 1503 002e 0123     		movs	r3, #1
 1504 0030 5B42     		rsbs	r3, r3, #0
 1505 0032 2386     		strh	r3, [r4, #48]
1843:Source\LwIP\src\core/tcp.c **** 
1844:Source\LwIP\src\core/tcp.c ****     tcp_segs_free(pcb->unsent);
 1506              		.loc 1 1844 0
 1507 0034 A06E     		ldr	r0, [r4, #104]
 1508 0036 FFF7FEFF 		bl	tcp_segs_free
 1509              	.LVL148:
1845:Source\LwIP\src\core/tcp.c ****     tcp_segs_free(pcb->unacked);
 1510              		.loc 1 1845 0
 1511 003a E06E     		ldr	r0, [r4, #108]
 1512 003c FFF7FEFF 		bl	tcp_segs_free
 1513              	.LVL149:
1846:Source\LwIP\src\core/tcp.c ****     pcb->unacked = pcb->unsent = NULL;
 1514              		.loc 1 1846 0
 1515 0040 A566     		str	r5, [r4, #104]
 1516 0042 E566     		str	r5, [r4, #108]
1847:Source\LwIP\src\core/tcp.c **** #if TCP_OVERSIZE
1848:Source\LwIP\src\core/tcp.c ****     pcb->unsent_oversize = 0;
 1517              		.loc 1 1848 0
 1518 0044 6423     		movs	r3, #100
 1519 0046 E552     		strh	r5, [r4, r3]
 1520              	.L134:
ARM GAS  C:\Users\Phuong\AppData\Local\Temp\cczg95Bp.s 			page 63


1849:Source\LwIP\src\core/tcp.c **** #endif /* TCP_OVERSIZE */
1850:Source\LwIP\src\core/tcp.c ****   }
1851:Source\LwIP\src\core/tcp.c **** }
 1521              		.loc 1 1851 0
 1522              		@ sp needed
 1523              	.LVL150:
 1524 0048 70BD     		pop	{r4, r5, r6, pc}
 1525              		.cfi_endproc
 1526              	.LFE94:
 1527              		.size	tcp_pcb_purge, .-tcp_pcb_purge
 1528              		.global	__aeabi_uidiv
 1529 004a C046     		.section	.text.tcp_slowtmr,"ax",%progbits
 1530              		.align	2
 1531              		.global	tcp_slowtmr
 1532              		.code	16
 1533              		.thumb_func
 1534              		.type	tcp_slowtmr, %function
 1535              	tcp_slowtmr:
 1536              	.LFB73:
 987:Source\LwIP\src\core/tcp.c ****   struct tcp_pcb *pcb, *prev;
 1537              		.loc 1 987 0
 1538              		.cfi_startproc
 1539              		@ args = 0, pretend = 0, frame = 0
 1540              		@ frame_needed = 0, uses_anonymous_args = 0
 1541 0000 F0B5     		push	{r4, r5, r6, r7, lr}
 1542              		.cfi_def_cfa_offset 20
 1543              		.cfi_offset 4, -20
 1544              		.cfi_offset 5, -16
 1545              		.cfi_offset 6, -12
 1546              		.cfi_offset 7, -8
 1547              		.cfi_offset 14, -4
 1548 0002 4F46     		mov	r7, r9
 1549 0004 4646     		mov	r6, r8
 1550 0006 C0B4     		push	{r6, r7}
 1551              		.cfi_def_cfa_offset 28
 1552              		.cfi_offset 8, -28
 1553              		.cfi_offset 9, -24
 1554 0008 83B0     		sub	sp, sp, #12
 1555              		.cfi_def_cfa_offset 40
 1556              	.LVL151:
 996:Source\LwIP\src\core/tcp.c ****   ++tcp_timer_ctr;
 1557              		.loc 1 996 0
 1558 000a BE4A     		ldr	r2, .L188
 1559 000c 1368     		ldr	r3, [r2]
 1560 000e 0133     		adds	r3, r3, #1
 1561 0010 1360     		str	r3, [r2]
 997:Source\LwIP\src\core/tcp.c **** 
 1562              		.loc 1 997 0
 1563 0012 BD4A     		ldr	r2, .L188+4
 1564 0014 1378     		ldrb	r3, [r2]
 1565 0016 0133     		adds	r3, r3, #1
 1566 0018 1370     		strb	r3, [r2]
 1567              	.L139:
 1568              	.LVL152:
 1569              	.L138:
1002:Source\LwIP\src\core/tcp.c ****   if (pcb == NULL) {
 1570              		.loc 1 1002 0
ARM GAS  C:\Users\Phuong\AppData\Local\Temp\cczg95Bp.s 			page 64


 1571 001a BC4B     		ldr	r3, .L188+8
 1572 001c 1C68     		ldr	r4, [r3]
 1573              	.LVL153:
1001:Source\LwIP\src\core/tcp.c ****   pcb = tcp_active_pcbs;
 1574              		.loc 1 1001 0
 1575 001e 0026     		movs	r6, #0
 1576 0020 4CE1     		b	.L140
 1577              	.LVL154:
 1578              	.L165:
1011:Source\LwIP\src\core/tcp.c ****       /* skip this pcb, we have already processed it */
 1579              		.loc 1 1011 0
 1580 0022 A27F     		ldrb	r2, [r4, #30]
 1581 0024 B84B     		ldr	r3, .L188+4
 1582 0026 1B78     		ldrb	r3, [r3]
 1583 0028 9A42     		cmp	r2, r3
 1584 002a 01D1     		bne	.L141
1013:Source\LwIP\src\core/tcp.c ****       continue;
 1585              		.loc 1 1013 0
 1586 002c E468     		ldr	r4, [r4, #12]
 1587              	.LVL155:
1014:Source\LwIP\src\core/tcp.c ****     }
 1588              		.loc 1 1014 0
 1589 002e 45E1     		b	.L140
 1590              	.L141:
1016:Source\LwIP\src\core/tcp.c **** 
 1591              		.loc 1 1016 0
 1592 0030 A377     		strb	r3, [r4, #30]
 1593              	.LVL156:
1021:Source\LwIP\src\core/tcp.c ****       ++pcb_remove;
 1594              		.loc 1 1021 0
 1595 0032 237D     		ldrb	r3, [r4, #20]
 1596 0034 022B     		cmp	r3, #2
 1597 0036 03D1     		bne	.L143
1021:Source\LwIP\src\core/tcp.c ****       ++pcb_remove;
 1598              		.loc 1 1021 0 is_stmt 0 discriminator 1
 1599 0038 4222     		movs	r2, #66
 1600 003a A25C     		ldrb	r2, [r4, r2]
 1601 003c 052A     		cmp	r2, #5
 1602 003e 65D8     		bhi	.L173
 1603              	.L143:
1025:Source\LwIP\src\core/tcp.c ****       ++pcb_remove;
 1604              		.loc 1 1025 0 is_stmt 1
 1605 0040 4222     		movs	r2, #66
 1606 0042 A15C     		ldrb	r1, [r4, r2]
 1607 0044 0B29     		cmp	r1, #11
 1608 0046 63D8     		bhi	.L174
1029:Source\LwIP\src\core/tcp.c ****         /* If snd_wnd is zero, use persist timer to send 1 byte probes
 1609              		.loc 1 1029 0
 1610 0048 5B32     		adds	r2, r2, #91
 1611 004a A25C     		ldrb	r2, [r4, r2]
 1612 004c 002A     		cmp	r2, #0
 1613 004e 1FD0     		beq	.L145
 1614              	.LBB6:
1032:Source\LwIP\src\core/tcp.c ****         if (pcb->persist_cnt < backoff_cnt) {
 1615              		.loc 1 1032 0
 1616 0050 013A     		subs	r2, r2, #1
 1617 0052 AF4B     		ldr	r3, .L188+12
ARM GAS  C:\Users\Phuong\AppData\Local\Temp\cczg95Bp.s 			page 65


 1618 0054 9A18     		adds	r2, r3, r2
 1619 0056 127C     		ldrb	r2, [r2, #16]
 1620              	.LVL157:
1033:Source\LwIP\src\core/tcp.c ****           pcb->persist_cnt++;
 1621              		.loc 1 1033 0
 1622 0058 9C23     		movs	r3, #156
 1623 005a E35C     		ldrb	r3, [r4, r3]
 1624 005c 9A42     		cmp	r2, r3
 1625 005e 02D9     		bls	.L146
1034:Source\LwIP\src\core/tcp.c ****         }
 1626              		.loc 1 1034 0
 1627 0060 0133     		adds	r3, r3, #1
 1628 0062 9C21     		movs	r1, #156
 1629 0064 6354     		strb	r3, [r4, r1]
 1630              	.L146:
1036:Source\LwIP\src\core/tcp.c ****           if (tcp_zero_window_probe(pcb) == ERR_OK) {
 1631              		.loc 1 1036 0
 1632 0066 9C23     		movs	r3, #156
 1633 0068 E35C     		ldrb	r3, [r4, r3]
 1634 006a 9A42     		cmp	r2, r3
 1635 006c 52D8     		bhi	.L175
1037:Source\LwIP\src\core/tcp.c ****             pcb->persist_cnt = 0;
 1636              		.loc 1 1037 0
 1637 006e 2000     		movs	r0, r4
 1638 0070 FFF7FEFF 		bl	tcp_zero_window_probe
 1639              	.LVL158:
 1640 0074 0028     		cmp	r0, #0
 1641 0076 4FD1     		bne	.L176
1038:Source\LwIP\src\core/tcp.c ****             if (pcb->persist_backoff < sizeof(tcp_persist_backoff)) {
 1642              		.loc 1 1038 0
 1643 0078 0022     		movs	r2, #0
 1644 007a 9C23     		movs	r3, #156
 1645 007c E254     		strb	r2, [r4, r3]
1039:Source\LwIP\src\core/tcp.c ****               pcb->persist_backoff++;
 1646              		.loc 1 1039 0
 1647 007e 0133     		adds	r3, r3, #1
 1648 0080 E35C     		ldrb	r3, [r4, r3]
 1649 0082 062B     		cmp	r3, #6
 1650 0084 4AD8     		bhi	.L177
1040:Source\LwIP\src\core/tcp.c ****             }
 1651              		.loc 1 1040 0
 1652 0086 0133     		adds	r3, r3, #1
 1653 0088 9D32     		adds	r2, r2, #157
 1654 008a A354     		strb	r3, [r4, r2]
 1655              	.LBE6:
1018:Source\LwIP\src\core/tcp.c ****     pcb_reset = 0;
 1656              		.loc 1 1018 0
 1657 008c 0025     		movs	r5, #0
 1658 008e 4AE0     		b	.L144
 1659              	.L145:
1046:Source\LwIP\src\core/tcp.c ****           ++pcb->rtime;
 1660              		.loc 1 1046 0
 1661 0090 3020     		movs	r0, #48
 1662 0092 225E     		ldrsh	r2, [r4, r0]
 1663 0094 002A     		cmp	r2, #0
 1664 0096 01DB     		blt	.L147
1047:Source\LwIP\src\core/tcp.c ****         }
ARM GAS  C:\Users\Phuong\AppData\Local\Temp\cczg95Bp.s 			page 66


 1665              		.loc 1 1047 0
 1666 0098 0132     		adds	r2, r2, #1
 1667 009a 2286     		strh	r2, [r4, #48]
 1668              	.L147:
1050:Source\LwIP\src\core/tcp.c ****           /* Time for a retransmission. */
 1669              		.loc 1 1050 0
 1670 009c E26E     		ldr	r2, [r4, #108]
 1671 009e 002A     		cmp	r2, #0
 1672 00a0 3ED0     		beq	.L178
1050:Source\LwIP\src\core/tcp.c ****           /* Time for a retransmission. */
 1673              		.loc 1 1050 0 is_stmt 0 discriminator 1
 1674 00a2 3022     		movs	r2, #48
 1675 00a4 A05E     		ldrsh	r0, [r4, r2]
 1676 00a6 4022     		movs	r2, #64
 1677 00a8 A25E     		ldrsh	r2, [r4, r2]
 1678 00aa 9042     		cmp	r0, r2
 1679 00ac 3ADB     		blt	.L179
1058:Source\LwIP\src\core/tcp.c ****             u8_t backoff_idx = LWIP_MIN(pcb->nrtx, sizeof(tcp_backoff)-1);
 1680              		.loc 1 1058 0 is_stmt 1
 1681 00ae 022B     		cmp	r3, #2
 1682 00b0 10D0     		beq	.L148
 1683              	.LBB7:
1059:Source\LwIP\src\core/tcp.c ****             pcb->rto = ((pcb->sa >> 3) + pcb->sv) << tcp_backoff[backoff_idx];
 1684              		.loc 1 1059 0
 1685 00b2 0B1C     		adds	r3, r1, #0
 1686 00b4 0C29     		cmp	r1, #12
 1687 00b6 00D9     		bls	.L149
 1688 00b8 0C23     		movs	r3, #12
 1689              	.L149:
 1690 00ba DAB2     		uxtb	r2, r3
 1691              	.LVL159:
1060:Source\LwIP\src\core/tcp.c ****           }
 1692              		.loc 1 1060 0
 1693 00bc 3C21     		movs	r1, #60
 1694 00be 635E     		ldrsh	r3, [r4, r1]
 1695              	.LVL160:
 1696 00c0 DB10     		asrs	r3, r3, #3
 1697 00c2 3E20     		movs	r0, #62
 1698 00c4 215E     		ldrsh	r1, [r4, r0]
 1699 00c6 CB18     		adds	r3, r1, r3
 1700 00c8 9149     		ldr	r1, .L188+12
 1701 00ca 8A18     		adds	r2, r1, r2
 1702              	.LVL161:
 1703 00cc 127E     		ldrb	r2, [r2, #24]
 1704 00ce 9340     		lsls	r3, r3, r2
 1705 00d0 4022     		movs	r2, #64
 1706 00d2 A352     		strh	r3, [r4, r2]
 1707              	.L148:
 1708              	.LBE7:
1064:Source\LwIP\src\core/tcp.c **** 
 1709              		.loc 1 1064 0
 1710 00d4 0023     		movs	r3, #0
 1711 00d6 2386     		strh	r3, [r4, #48]
1067:Source\LwIP\src\core/tcp.c ****           pcb->ssthresh = eff_wnd >> 1;
 1712              		.loc 1 1067 0
 1713 00d8 5C33     		adds	r3, r3, #92
 1714 00da E25A     		ldrh	r2, [r4, r3]
ARM GAS  C:\Users\Phuong\AppData\Local\Temp\cczg95Bp.s 			page 67


 1715 00dc 143B     		subs	r3, r3, #20
 1716 00de E15A     		ldrh	r1, [r4, r3]
 1717 00e0 131C     		adds	r3, r2, #0
 1718 00e2 8A42     		cmp	r2, r1
 1719 00e4 00D9     		bls	.L150
 1720 00e6 0B1C     		adds	r3, r1, #0
 1721              	.L150:
 1722 00e8 9BB2     		uxth	r3, r3
 1723              	.LVL162:
1068:Source\LwIP\src\core/tcp.c ****           if (pcb->ssthresh < (tcpwnd_size_t)(pcb->mss << 1)) {
 1724              		.loc 1 1068 0
 1725 00ea 5B08     		lsrs	r3, r3, #1
 1726              	.LVL163:
 1727 00ec 4A22     		movs	r2, #74
 1728 00ee A352     		strh	r3, [r4, r2]
1069:Source\LwIP\src\core/tcp.c ****             pcb->ssthresh = (pcb->mss << 1);
 1729              		.loc 1 1069 0
 1730 00f0 618E     		ldrh	r1, [r4, #50]
 1731 00f2 4A00     		lsls	r2, r1, #1
 1732 00f4 92B2     		uxth	r2, r2
 1733 00f6 9342     		cmp	r3, r2
 1734 00f8 01D2     		bcs	.L151
1070:Source\LwIP\src\core/tcp.c ****           }
 1735              		.loc 1 1070 0
 1736 00fa 4A23     		movs	r3, #74
 1737 00fc E252     		strh	r2, [r4, r3]
 1738              	.L151:
1072:Source\LwIP\src\core/tcp.c ****           LWIP_DEBUGF(TCP_CWND_DEBUG, ("tcp_slowtmr: cwnd %"TCPWNDSIZE_F
 1739              		.loc 1 1072 0
 1740 00fe 4823     		movs	r3, #72
 1741 0100 E152     		strh	r1, [r4, r3]
1079:Source\LwIP\src\core/tcp.c ****         }
 1742              		.loc 1 1079 0
 1743 0102 2000     		movs	r0, r4
 1744 0104 FFF7FEFF 		bl	tcp_rexmit_rto
 1745              	.LVL164:
1018:Source\LwIP\src\core/tcp.c ****     pcb_reset = 0;
 1746              		.loc 1 1018 0
 1747 0108 0025     		movs	r5, #0
 1748 010a 0CE0     		b	.L144
 1749              	.L173:
1022:Source\LwIP\src\core/tcp.c ****       LWIP_DEBUGF(TCP_DEBUG, ("tcp_slowtmr: max SYN retries reached\n"));
 1750              		.loc 1 1022 0
 1751 010c 0125     		movs	r5, #1
 1752 010e 0AE0     		b	.L144
 1753              	.L174:
1026:Source\LwIP\src\core/tcp.c ****       LWIP_DEBUGF(TCP_DEBUG, ("tcp_slowtmr: max DATA retries reached\n"));
 1754              		.loc 1 1026 0
 1755 0110 0125     		movs	r5, #1
 1756 0112 08E0     		b	.L144
 1757              	.LVL165:
 1758              	.L175:
1018:Source\LwIP\src\core/tcp.c ****     pcb_reset = 0;
 1759              		.loc 1 1018 0
 1760 0114 0025     		movs	r5, #0
 1761 0116 06E0     		b	.L144
 1762              	.LVL166:
ARM GAS  C:\Users\Phuong\AppData\Local\Temp\cczg95Bp.s 			page 68


 1763              	.L176:
 1764 0118 0025     		movs	r5, #0
 1765 011a 04E0     		b	.L144
 1766              	.L177:
 1767 011c 0025     		movs	r5, #0
 1768 011e 02E0     		b	.L144
 1769              	.L178:
 1770 0120 0025     		movs	r5, #0
 1771 0122 00E0     		b	.L144
 1772              	.L179:
 1773 0124 0025     		movs	r5, #0
 1774              	.L144:
 1775              	.LVL167:
1084:Source\LwIP\src\core/tcp.c ****       /* If this PCB is in FIN_WAIT_2 because of SHUT_WR don't let it time out. */
 1776              		.loc 1 1084 0
 1777 0126 237D     		ldrb	r3, [r4, #20]
 1778 0128 062B     		cmp	r3, #6
 1779 012a 0AD1     		bne	.L152
1086:Source\LwIP\src\core/tcp.c ****         /* PCB was fully closed (either through close() or SHUT_RDWR):
 1780              		.loc 1 1086 0
 1781 012c 628B     		ldrh	r2, [r4, #26]
 1782 012e D206     		lsls	r2, r2, #27
 1783 0130 07D5     		bpl	.L152
1089:Source\LwIP\src\core/tcp.c ****             TCP_FIN_WAIT_TIMEOUT / TCP_SLOW_INTERVAL) {
 1784              		.loc 1 1089 0
 1785 0132 744A     		ldr	r2, .L188
 1786 0134 1268     		ldr	r2, [r2]
 1787 0136 216A     		ldr	r1, [r4, #32]
 1788 0138 521A     		subs	r2, r2, r1
 1789 013a 282A     		cmp	r2, #40
 1790 013c 01D9     		bls	.L152
1091:Source\LwIP\src\core/tcp.c ****           LWIP_DEBUGF(TCP_DEBUG, ("tcp_slowtmr: removing pcb stuck in FIN-WAIT-2\n"));
 1791              		.loc 1 1091 0
 1792 013e 0135     		adds	r5, r5, #1
 1793              	.LVL168:
 1794 0140 EDB2     		uxtb	r5, r5
 1795              	.LVL169:
 1796              	.L152:
1098:Source\LwIP\src\core/tcp.c ****        ((pcb->state == ESTABLISHED) ||
 1797              		.loc 1 1098 0
 1798 0142 227A     		ldrb	r2, [r4, #8]
 1799 0144 1207     		lsls	r2, r2, #28
 1800 0146 32D5     		bpl	.L180
1098:Source\LwIP\src\core/tcp.c ****        ((pcb->state == ESTABLISHED) ||
 1801              		.loc 1 1098 0 is_stmt 0 discriminator 1
 1802 0148 042B     		cmp	r3, #4
 1803 014a 01D0     		beq	.L154
1099:Source\LwIP\src\core/tcp.c ****         (pcb->state == CLOSE_WAIT))) {
 1804              		.loc 1 1099 0 is_stmt 1
 1805 014c 072B     		cmp	r3, #7
 1806 014e 30D1     		bne	.L181
 1807              	.L154:
1101:Source\LwIP\src\core/tcp.c ****          (pcb->keep_idle + TCP_KEEP_DUR(pcb)) / TCP_SLOW_INTERVAL)
 1808              		.loc 1 1101 0
 1809 0150 6C4B     		ldr	r3, .L188
 1810 0152 1F68     		ldr	r7, [r3]
 1811 0154 236A     		ldr	r3, [r4, #32]
ARM GAS  C:\Users\Phuong\AppData\Local\Temp\cczg95Bp.s 			page 69


 1812 0156 FF1A     		subs	r7, r7, r3
1102:Source\LwIP\src\core/tcp.c ****       {
 1813              		.loc 1 1102 0
 1814 0158 9023     		movs	r3, #144
 1815 015a E358     		ldr	r3, [r4, r3]
 1816 015c 9946     		mov	r9, r3
 1817 015e 9823     		movs	r3, #152
 1818 0160 E058     		ldr	r0, [r4, r3]
 1819 0162 043B     		subs	r3, r3, #4
 1820 0164 E358     		ldr	r3, [r4, r3]
 1821 0166 9846     		mov	r8, r3
 1822 0168 5843     		muls	r0, r3
 1823 016a 4844     		add	r0, r0, r9
 1824 016c FA21     		movs	r1, #250
 1825 016e 4900     		lsls	r1, r1, #1
 1826 0170 FFF7FEFF 		bl	__aeabi_uidiv
 1827              	.LVL170:
1101:Source\LwIP\src\core/tcp.c ****          (pcb->keep_idle + TCP_KEEP_DUR(pcb)) / TCP_SLOW_INTERVAL)
 1828              		.loc 1 1101 0
 1829 0174 8742     		cmp	r7, r0
 1830 0176 03D9     		bls	.L155
1108:Source\LwIP\src\core/tcp.c ****         ++pcb_reset;
 1831              		.loc 1 1108 0
 1832 0178 0135     		adds	r5, r5, #1
 1833              	.LVL171:
 1834 017a EDB2     		uxtb	r5, r5
 1835              	.LVL172:
1109:Source\LwIP\src\core/tcp.c ****       } else if ((u32_t)(tcp_ticks - pcb->tmr) >
 1836              		.loc 1 1109 0
 1837 017c 0127     		movs	r7, #1
 1838 017e 1DE0     		b	.L153
 1839              	.LVL173:
 1840              	.L155:
1111:Source\LwIP\src\core/tcp.c ****                 / TCP_SLOW_INTERVAL)
 1841              		.loc 1 1111 0
 1842 0180 9E23     		movs	r3, #158
 1843 0182 E05C     		ldrb	r0, [r4, r3]
 1844 0184 4346     		mov	r3, r8
 1845 0186 4343     		muls	r3, r0
 1846 0188 1800     		movs	r0, r3
 1847 018a 4844     		add	r0, r0, r9
1112:Source\LwIP\src\core/tcp.c ****       {
 1848              		.loc 1 1112 0
 1849 018c FA21     		movs	r1, #250
 1850 018e 4900     		lsls	r1, r1, #1
 1851 0190 FFF7FEFF 		bl	__aeabi_uidiv
 1852              	.LVL174:
1110:Source\LwIP\src\core/tcp.c ****                 (pcb->keep_idle + pcb->keep_cnt_sent * TCP_KEEP_INTVL(pcb))
 1853              		.loc 1 1110 0
 1854 0194 8742     		cmp	r7, r0
 1855 0196 0ED9     		bls	.L182
1114:Source\LwIP\src\core/tcp.c ****         if (err == ERR_OK) {
 1856              		.loc 1 1114 0
 1857 0198 2000     		movs	r0, r4
 1858 019a FFF7FEFF 		bl	tcp_keepalive
 1859              	.LVL175:
1115:Source\LwIP\src\core/tcp.c ****           pcb->keep_cnt_sent++;
ARM GAS  C:\Users\Phuong\AppData\Local\Temp\cczg95Bp.s 			page 70


 1860              		.loc 1 1115 0
 1861 019e 0028     		cmp	r0, #0
 1862 01a0 0BD1     		bne	.L183
1116:Source\LwIP\src\core/tcp.c ****         }
 1863              		.loc 1 1116 0
 1864 01a2 9E22     		movs	r2, #158
 1865 01a4 A35C     		ldrb	r3, [r4, r2]
 1866 01a6 0133     		adds	r3, r3, #1
 1867 01a8 A354     		strb	r3, [r4, r2]
1019:Source\LwIP\src\core/tcp.c **** 
 1868              		.loc 1 1019 0
 1869 01aa 0027     		movs	r7, #0
 1870 01ac 06E0     		b	.L153
 1871              	.LVL176:
 1872              	.L180:
 1873 01ae 0027     		movs	r7, #0
 1874 01b0 04E0     		b	.L153
 1875              	.L181:
 1876 01b2 0027     		movs	r7, #0
 1877 01b4 02E0     		b	.L153
 1878              	.L182:
 1879 01b6 0027     		movs	r7, #0
 1880 01b8 00E0     		b	.L153
 1881              	.LVL177:
 1882              	.L183:
 1883 01ba 0027     		movs	r7, #0
 1884              	.LVL178:
 1885              	.L153:
1125:Source\LwIP\src\core/tcp.c ****         (u32_t)tcp_ticks - pcb->tmr >= pcb->rto * TCP_OOSEQ_TIMEOUT) {
 1886              		.loc 1 1125 0
 1887 01bc 206F     		ldr	r0, [r4, #112]
 1888 01be 0028     		cmp	r0, #0
 1889 01c0 0ED0     		beq	.L156
1126:Source\LwIP\src\core/tcp.c ****       tcp_segs_free(pcb->ooseq);
 1890              		.loc 1 1126 0 discriminator 1
 1891 01c2 504B     		ldr	r3, .L188
 1892 01c4 1A68     		ldr	r2, [r3]
 1893 01c6 236A     		ldr	r3, [r4, #32]
 1894 01c8 D21A     		subs	r2, r2, r3
 1895 01ca 4023     		movs	r3, #64
 1896 01cc E35E     		ldrsh	r3, [r4, r3]
 1897 01ce 5900     		lsls	r1, r3, #1
 1898 01d0 CB18     		adds	r3, r1, r3
 1899 01d2 5900     		lsls	r1, r3, #1
1125:Source\LwIP\src\core/tcp.c ****         (u32_t)tcp_ticks - pcb->tmr >= pcb->rto * TCP_OOSEQ_TIMEOUT) {
 1900              		.loc 1 1125 0 discriminator 1
 1901 01d4 8A42     		cmp	r2, r1
 1902 01d6 03D3     		bcc	.L156
1127:Source\LwIP\src\core/tcp.c ****       pcb->ooseq = NULL;
 1903              		.loc 1 1127 0
 1904 01d8 FFF7FEFF 		bl	tcp_segs_free
 1905              	.LVL179:
1128:Source\LwIP\src\core/tcp.c ****       LWIP_DEBUGF(TCP_CWND_DEBUG, ("tcp_slowtmr: dropping OOSEQ queued data\n"));
 1906              		.loc 1 1128 0
 1907 01dc 0023     		movs	r3, #0
 1908 01de 2367     		str	r3, [r4, #112]
 1909              	.L156:
ARM GAS  C:\Users\Phuong\AppData\Local\Temp\cczg95Bp.s 			page 71


1134:Source\LwIP\src\core/tcp.c ****       if ((u32_t)(tcp_ticks - pcb->tmr) >
 1910              		.loc 1 1134 0
 1911 01e0 237D     		ldrb	r3, [r4, #20]
 1912 01e2 032B     		cmp	r3, #3
 1913 01e4 07D1     		bne	.L157
1135:Source\LwIP\src\core/tcp.c ****           TCP_SYN_RCVD_TIMEOUT / TCP_SLOW_INTERVAL) {
 1914              		.loc 1 1135 0
 1915 01e6 474A     		ldr	r2, .L188
 1916 01e8 1268     		ldr	r2, [r2]
 1917 01ea 216A     		ldr	r1, [r4, #32]
 1918 01ec 521A     		subs	r2, r2, r1
 1919 01ee 282A     		cmp	r2, #40
 1920 01f0 01D9     		bls	.L157
1137:Source\LwIP\src\core/tcp.c ****         LWIP_DEBUGF(TCP_DEBUG, ("tcp_slowtmr: removing pcb stuck in SYN-RCVD\n"));
 1921              		.loc 1 1137 0
 1922 01f2 0135     		adds	r5, r5, #1
 1923              	.LVL180:
 1924 01f4 EDB2     		uxtb	r5, r5
 1925              	.LVL181:
 1926              	.L157:
1143:Source\LwIP\src\core/tcp.c ****       if ((u32_t)(tcp_ticks - pcb->tmr) > 2 * TCP_MSL / TCP_SLOW_INTERVAL) {
 1927              		.loc 1 1143 0
 1928 01f6 092B     		cmp	r3, #9
 1929 01f8 07D1     		bne	.L158
1144:Source\LwIP\src\core/tcp.c ****         ++pcb_remove;
 1930              		.loc 1 1144 0
 1931 01fa 424B     		ldr	r3, .L188
 1932 01fc 1B68     		ldr	r3, [r3]
 1933 01fe 226A     		ldr	r2, [r4, #32]
 1934 0200 9B1A     		subs	r3, r3, r2
 1935 0202 F02B     		cmp	r3, #240
 1936 0204 01D9     		bls	.L158
1145:Source\LwIP\src\core/tcp.c ****         LWIP_DEBUGF(TCP_DEBUG, ("tcp_slowtmr: removing pcb stuck in LAST-ACK\n"));
 1937              		.loc 1 1145 0
 1938 0206 0135     		adds	r5, r5, #1
 1939              	.LVL182:
 1940 0208 EDB2     		uxtb	r5, r5
 1941              	.LVL183:
 1942              	.L158:
1151:Source\LwIP\src\core/tcp.c ****       struct tcp_pcb *pcb2;
 1943              		.loc 1 1151 0
 1944 020a 002D     		cmp	r5, #0
 1945 020c 2FD0     		beq	.L159
 1946              	.LBB8:
1154:Source\LwIP\src\core/tcp.c **** #endif /* LWIP_CALLBACK_API */
 1947              		.loc 1 1154 0
 1948 020e 8C23     		movs	r3, #140
 1949 0210 E558     		ldr	r5, [r4, r3]
 1950              	.LVL184:
1158:Source\LwIP\src\core/tcp.c ****       /* Remove PCB from tcp_active_pcbs list. */
 1951              		.loc 1 1158 0
 1952 0212 2000     		movs	r0, r4
 1953 0214 FFF7FEFF 		bl	tcp_pcb_purge
 1954              	.LVL185:
1160:Source\LwIP\src\core/tcp.c ****         LWIP_ASSERT("tcp_slowtmr: middle tcp != tcp_active_pcbs", pcb != tcp_active_pcbs);
 1955              		.loc 1 1160 0
 1956 0218 002E     		cmp	r6, #0
ARM GAS  C:\Users\Phuong\AppData\Local\Temp\cczg95Bp.s 			page 72


 1957 021a 02D0     		beq	.L160
1162:Source\LwIP\src\core/tcp.c ****       } else {
 1958              		.loc 1 1162 0
 1959 021c E368     		ldr	r3, [r4, #12]
 1960 021e F360     		str	r3, [r6, #12]
 1961 0220 02E0     		b	.L161
 1962              	.L160:
1166:Source\LwIP\src\core/tcp.c ****       }
 1963              		.loc 1 1166 0
 1964 0222 3A4B     		ldr	r3, .L188+8
 1965 0224 E268     		ldr	r2, [r4, #12]
 1966 0226 1A60     		str	r2, [r3]
 1967              	.L161:
1169:Source\LwIP\src\core/tcp.c ****         tcp_rst(pcb->snd_nxt, pcb->rcv_nxt, &pcb->local_ip, &pcb->remote_ip,
 1968              		.loc 1 1169 0
 1969 0228 002F     		cmp	r7, #0
 1970 022a 09D0     		beq	.L162
1170:Source\LwIP\src\core/tcp.c ****                  pcb->local_port, pcb->remote_port);
 1971              		.loc 1 1170 0
 1972 022c 231D     		adds	r3, r4, #4
 1973 022e 616A     		ldr	r1, [r4, #36]
 1974 0230 E06C     		ldr	r0, [r4, #76]
 1975 0232 228B     		ldrh	r2, [r4, #24]
 1976 0234 0192     		str	r2, [sp, #4]
 1977 0236 E28A     		ldrh	r2, [r4, #22]
 1978 0238 0092     		str	r2, [sp]
 1979 023a 2200     		movs	r2, r4
 1980 023c FFF7FEFF 		bl	tcp_rst
 1981              	.LVL186:
 1982              	.L162:
1174:Source\LwIP\src\core/tcp.c ****       last_state = pcb->state;
 1983              		.loc 1 1174 0
 1984 0240 2369     		ldr	r3, [r4, #16]
 1985 0242 9846     		mov	r8, r3
 1986              	.LVL187:
1177:Source\LwIP\src\core/tcp.c ****       memp_free(MEMP_TCP_PCB, pcb2);
 1987              		.loc 1 1177 0
 1988 0244 E768     		ldr	r7, [r4, #12]
 1989              	.LVL188:
1178:Source\LwIP\src\core/tcp.c **** 
 1990              		.loc 1 1178 0
 1991 0246 2100     		movs	r1, r4
 1992 0248 0220     		movs	r0, #2
 1993 024a FFF7FEFF 		bl	memp_free
 1994              	.LVL189:
1180:Source\LwIP\src\core/tcp.c ****       TCP_EVENT_ERR(last_state, err_fn, err_arg, ERR_ABRT);
 1995              		.loc 1 1180 0
 1996 024e 0022     		movs	r2, #0
 1997 0250 304B     		ldr	r3, .L188+16
 1998 0252 1A70     		strb	r2, [r3]
1181:Source\LwIP\src\core/tcp.c ****       if (tcp_active_pcbs_changed) {
 1999              		.loc 1 1181 0
 2000 0254 002D     		cmp	r5, #0
 2001 0256 03D0     		beq	.L163
1181:Source\LwIP\src\core/tcp.c ****       if (tcp_active_pcbs_changed) {
 2002              		.loc 1 1181 0 is_stmt 0 discriminator 1
 2003 0258 0D21     		movs	r1, #13
ARM GAS  C:\Users\Phuong\AppData\Local\Temp\cczg95Bp.s 			page 73


 2004 025a 4942     		rsbs	r1, r1, #0
 2005 025c 4046     		mov	r0, r8
 2006 025e A847     		blx	r5
 2007              	.LVL190:
 2008              	.L163:
1182:Source\LwIP\src\core/tcp.c ****         goto tcp_slowtmr_start;
 2009              		.loc 1 1182 0 is_stmt 1
 2010 0260 2C4B     		ldr	r3, .L188+16
 2011 0262 1B78     		ldrb	r3, [r3]
 2012 0264 002B     		cmp	r3, #0
 2013 0266 00D0     		beq	.LCB1956
 2014 0268 D7E6     		b	.L138	@long jump
 2015              	.LCB1956:
1177:Source\LwIP\src\core/tcp.c ****       memp_free(MEMP_TCP_PCB, pcb2);
 2016              		.loc 1 1177 0
 2017 026a 3C00     		movs	r4, r7
 2018              	.LVL191:
 2019 026c 26E0     		b	.L140
 2020              	.LVL192:
 2021              	.L159:
 2022              	.LBE8:
1188:Source\LwIP\src\core/tcp.c **** 
 2023              		.loc 1 1188 0
 2024 026e E568     		ldr	r5, [r4, #12]
 2025              	.LVL193:
1191:Source\LwIP\src\core/tcp.c ****       if (prev->polltmr >= prev->pollinterval) {
 2026              		.loc 1 1191 0
 2027 0270 237F     		ldrb	r3, [r4, #28]
 2028 0272 0133     		adds	r3, r3, #1
 2029 0274 DBB2     		uxtb	r3, r3
 2030 0276 2377     		strb	r3, [r4, #28]
1192:Source\LwIP\src\core/tcp.c ****         prev->polltmr = 0;
 2031              		.loc 1 1192 0
 2032 0278 627F     		ldrb	r2, [r4, #29]
 2033 027a 9342     		cmp	r3, r2
 2034 027c 19D3     		bcc	.L184
1193:Source\LwIP\src\core/tcp.c ****         LWIP_DEBUGF(TCP_DEBUG, ("tcp_slowtmr: polling application\n"));
 2035              		.loc 1 1193 0
 2036 027e 0023     		movs	r3, #0
 2037 0280 2377     		strb	r3, [r4, #28]
1195:Source\LwIP\src\core/tcp.c ****         TCP_EVENT_POLL(prev, err);
 2038              		.loc 1 1195 0
 2039 0282 244A     		ldr	r2, .L188+16
 2040 0284 1370     		strb	r3, [r2]
1196:Source\LwIP\src\core/tcp.c ****         if (tcp_active_pcbs_changed) {
 2041              		.loc 1 1196 0
 2042 0286 8833     		adds	r3, r3, #136
 2043 0288 E358     		ldr	r3, [r4, r3]
 2044 028a 002B     		cmp	r3, #0
 2045 028c 03D0     		beq	.L185
1196:Source\LwIP\src\core/tcp.c ****         if (tcp_active_pcbs_changed) {
 2046              		.loc 1 1196 0 is_stmt 0 discriminator 1
 2047 028e 2100     		movs	r1, r4
 2048 0290 2069     		ldr	r0, [r4, #16]
 2049 0292 9847     		blx	r3
 2050              	.LVL194:
 2051 0294 00E0     		b	.L164
ARM GAS  C:\Users\Phuong\AppData\Local\Temp\cczg95Bp.s 			page 74


 2052              	.LVL195:
 2053              	.L185:
1196:Source\LwIP\src\core/tcp.c ****         if (tcp_active_pcbs_changed) {
 2054              		.loc 1 1196 0
 2055 0296 0020     		movs	r0, #0
 2056              	.L164:
 2057              	.LVL196:
1197:Source\LwIP\src\core/tcp.c ****           goto tcp_slowtmr_start;
 2058              		.loc 1 1197 0 is_stmt 1
 2059 0298 1E4B     		ldr	r3, .L188+16
 2060 029a 1B78     		ldrb	r3, [r3]
 2061 029c 002B     		cmp	r3, #0
 2062 029e 00D0     		beq	.LCB2011
 2063 02a0 BBE6     		b	.L138	@long jump
 2064              	.LCB2011:
1201:Source\LwIP\src\core/tcp.c ****           tcp_output(prev);
 2065              		.loc 1 1201 0
 2066 02a2 0028     		cmp	r0, #0
 2067 02a4 08D1     		bne	.L186
1202:Source\LwIP\src\core/tcp.c ****         }
 2068              		.loc 1 1202 0
 2069 02a6 2000     		movs	r0, r4
 2070              	.LVL197:
 2071 02a8 FFF7FEFF 		bl	tcp_output
 2072              	.LVL198:
1187:Source\LwIP\src\core/tcp.c ****       pcb = pcb->next;
 2073              		.loc 1 1187 0
 2074 02ac 2600     		movs	r6, r4
1188:Source\LwIP\src\core/tcp.c **** 
 2075              		.loc 1 1188 0
 2076 02ae 2C00     		movs	r4, r5
 2077              	.LVL199:
 2078 02b0 04E0     		b	.L140
 2079              	.LVL200:
 2080              	.L184:
1187:Source\LwIP\src\core/tcp.c ****       pcb = pcb->next;
 2081              		.loc 1 1187 0
 2082 02b2 2600     		movs	r6, r4
1188:Source\LwIP\src\core/tcp.c **** 
 2083              		.loc 1 1188 0
 2084 02b4 2C00     		movs	r4, r5
 2085              	.LVL201:
 2086 02b6 01E0     		b	.L140
 2087              	.LVL202:
 2088              	.L186:
1187:Source\LwIP\src\core/tcp.c ****       pcb = pcb->next;
 2089              		.loc 1 1187 0
 2090 02b8 2600     		movs	r6, r4
1188:Source\LwIP\src\core/tcp.c **** 
 2091              		.loc 1 1188 0
 2092 02ba 2C00     		movs	r4, r5
 2093              	.LVL203:
 2094              	.L140:
1006:Source\LwIP\src\core/tcp.c ****     LWIP_DEBUGF(TCP_DEBUG, ("tcp_slowtmr: processing active pcb\n"));
 2095              		.loc 1 1006 0
 2096 02bc 002C     		cmp	r4, #0
 2097 02be 00D0     		beq	.LCB2051
ARM GAS  C:\Users\Phuong\AppData\Local\Temp\cczg95Bp.s 			page 75


 2098 02c0 AFE6     		b	.L165	@long jump
 2099              	.LCB2051:
 2100              	.LVL204:
1211:Source\LwIP\src\core/tcp.c ****   while (pcb != NULL) {
 2101              		.loc 1 1211 0
 2102 02c2 154B     		ldr	r3, .L188+20
 2103 02c4 1D68     		ldr	r5, [r3]
 2104              	.LVL205:
1212:Source\LwIP\src\core/tcp.c ****     LWIP_ASSERT("tcp_slowtmr: TIME-WAIT pcb->state == TIME-WAIT", pcb->state == TIME_WAIT);
 2105              		.loc 1 1212 0
 2106 02c6 2BE0     		b	.L166
 2107              	.LVL206:
 2108              	.L172:
1217:Source\LwIP\src\core/tcp.c ****       ++pcb_remove;
 2109              		.loc 1 1217 0
 2110 02c8 0E4B     		ldr	r3, .L188
 2111 02ca 1B68     		ldr	r3, [r3]
 2112 02cc 2A6A     		ldr	r2, [r5, #32]
 2113 02ce 9B1A     		subs	r3, r3, r2
 2114 02d0 F02B     		cmp	r3, #240
 2115 02d2 01D8     		bhi	.L187
1214:Source\LwIP\src\core/tcp.c **** 
 2116              		.loc 1 1214 0
 2117 02d4 0023     		movs	r3, #0
 2118 02d6 00E0     		b	.L167
 2119              	.L187:
1218:Source\LwIP\src\core/tcp.c ****     }
 2120              		.loc 1 1218 0
 2121 02d8 0123     		movs	r3, #1
 2122              	.L167:
 2123              	.LVL207:
1222:Source\LwIP\src\core/tcp.c ****       struct tcp_pcb *pcb2;
 2124              		.loc 1 1222 0
 2125 02da 002B     		cmp	r3, #0
 2126 02dc 1ED0     		beq	.L168
 2127              	.LBB9:
1224:Source\LwIP\src\core/tcp.c ****       /* Remove PCB from tcp_tw_pcbs list. */
 2128              		.loc 1 1224 0
 2129 02de 2800     		movs	r0, r5
 2130 02e0 FFF7FEFF 		bl	tcp_pcb_purge
 2131              	.LVL208:
1226:Source\LwIP\src\core/tcp.c ****         LWIP_ASSERT("tcp_slowtmr: middle tcp != tcp_tw_pcbs", pcb != tcp_tw_pcbs);
 2132              		.loc 1 1226 0
 2133 02e4 002C     		cmp	r4, #0
 2134 02e6 02D0     		beq	.L169
1228:Source\LwIP\src\core/tcp.c ****       } else {
 2135              		.loc 1 1228 0
 2136 02e8 EB68     		ldr	r3, [r5, #12]
 2137 02ea E360     		str	r3, [r4, #12]
 2138 02ec 02E0     		b	.L170
 2139              	.L169:
1232:Source\LwIP\src\core/tcp.c ****       }
 2140              		.loc 1 1232 0
 2141 02ee 0A4B     		ldr	r3, .L188+20
 2142 02f0 EA68     		ldr	r2, [r5, #12]
 2143 02f2 1A60     		str	r2, [r3]
 2144              	.L170:
ARM GAS  C:\Users\Phuong\AppData\Local\Temp\cczg95Bp.s 			page 76


 2145              	.LVL209:
1235:Source\LwIP\src\core/tcp.c ****       memp_free(MEMP_TCP_PCB, pcb2);
 2146              		.loc 1 1235 0
 2147 02f4 EE68     		ldr	r6, [r5, #12]
 2148              	.LVL210:
1236:Source\LwIP\src\core/tcp.c ****     } else {
 2149              		.loc 1 1236 0
 2150 02f6 2900     		movs	r1, r5
 2151 02f8 0220     		movs	r0, #2
 2152 02fa FFF7FEFF 		bl	memp_free
 2153              	.LVL211:
1235:Source\LwIP\src\core/tcp.c ****       memp_free(MEMP_TCP_PCB, pcb2);
 2154              		.loc 1 1235 0
 2155 02fe 3500     		movs	r5, r6
 2156              	.LVL212:
 2157              	.LBE9:
 2158 0300 0EE0     		b	.L166
 2159              	.L189:
 2160 0302 C046     		.align	2
 2161              	.L188:
 2162 0304 00000000 		.word	tcp_ticks
 2163 0308 00000000 		.word	.LANCHOR2
 2164 030c 00000000 		.word	tcp_active_pcbs
 2165 0310 00000000 		.word	.LANCHOR0
 2166 0314 00000000 		.word	tcp_active_pcbs_changed
 2167 0318 00000000 		.word	tcp_tw_pcbs
 2168              	.LVL213:
 2169              	.L168:
1238:Source\LwIP\src\core/tcp.c ****       pcb = pcb->next;
 2170              		.loc 1 1238 0
 2171 031c 2C00     		movs	r4, r5
1239:Source\LwIP\src\core/tcp.c ****     }
 2172              		.loc 1 1239 0
 2173 031e ED68     		ldr	r5, [r5, #12]
 2174              	.LVL214:
 2175              	.L166:
1212:Source\LwIP\src\core/tcp.c ****     LWIP_ASSERT("tcp_slowtmr: TIME-WAIT pcb->state == TIME-WAIT", pcb->state == TIME_WAIT);
 2176              		.loc 1 1212 0
 2177 0320 002D     		cmp	r5, #0
 2178 0322 D1D1     		bne	.L172
1242:Source\LwIP\src\core/tcp.c **** 
 2179              		.loc 1 1242 0
 2180 0324 03B0     		add	sp, sp, #12
 2181              		@ sp needed
 2182              	.LVL215:
 2183              	.LVL216:
 2184 0326 0CBC     		pop	{r2, r3}
 2185 0328 9046     		mov	r8, r2
 2186 032a 9946     		mov	r9, r3
 2187 032c F0BD     		pop	{r4, r5, r6, r7, pc}
 2188              		.cfi_endproc
 2189              	.LFE73:
 2190              		.size	tcp_slowtmr, .-tcp_slowtmr
 2191 032e C046     		.section	.text.tcp_pcb_remove,"ax",%progbits
 2192              		.align	2
 2193              		.global	tcp_pcb_remove
 2194              		.code	16
ARM GAS  C:\Users\Phuong\AppData\Local\Temp\cczg95Bp.s 			page 77


 2195              		.thumb_func
 2196              		.type	tcp_pcb_remove, %function
 2197              	tcp_pcb_remove:
 2198              	.LFB95:
1852:Source\LwIP\src\core/tcp.c **** 
1853:Source\LwIP\src\core/tcp.c **** /**
1854:Source\LwIP\src\core/tcp.c ****  * Purges the PCB and removes it from a PCB list. Any delayed ACKs are sent first.
1855:Source\LwIP\src\core/tcp.c ****  *
1856:Source\LwIP\src\core/tcp.c ****  * @param pcblist PCB list to purge.
1857:Source\LwIP\src\core/tcp.c ****  * @param pcb tcp_pcb to purge. The pcb itself is NOT deallocated!
1858:Source\LwIP\src\core/tcp.c ****  */
1859:Source\LwIP\src\core/tcp.c **** void
1860:Source\LwIP\src\core/tcp.c **** tcp_pcb_remove(struct tcp_pcb **pcblist, struct tcp_pcb *pcb)
1861:Source\LwIP\src\core/tcp.c **** {
 2199              		.loc 1 1861 0
 2200              		.cfi_startproc
 2201              		@ args = 0, pretend = 0, frame = 0
 2202              		@ frame_needed = 0, uses_anonymous_args = 0
 2203              	.LVL217:
 2204 0000 10B5     		push	{r4, lr}
 2205              		.cfi_def_cfa_offset 8
 2206              		.cfi_offset 4, -8
 2207              		.cfi_offset 14, -4
 2208 0002 0C00     		movs	r4, r1
1862:Source\LwIP\src\core/tcp.c ****   TCP_RMV(pcblist, pcb);
 2209              		.loc 1 1862 0
 2210 0004 0368     		ldr	r3, [r0]
 2211 0006 8B42     		cmp	r3, r1
 2212 0008 09D1     		bne	.L191
 2213              		.loc 1 1862 0 is_stmt 0 discriminator 1
 2214 000a DB68     		ldr	r3, [r3, #12]
 2215 000c 0360     		str	r3, [r0]
 2216 000e 08E0     		b	.L192
 2217              	.LVL218:
 2218              	.L193:
 2219              	.LBB10:
 2220              		.loc 1 1862 0 discriminator 9
 2221 0010 DA68     		ldr	r2, [r3, #12]
 2222 0012 9442     		cmp	r4, r2
 2223 0014 02D1     		bne	.L195
 2224              		.loc 1 1862 0 discriminator 5
 2225 0016 E268     		ldr	r2, [r4, #12]
 2226 0018 DA60     		str	r2, [r3, #12]
 2227 001a 02E0     		b	.L192
 2228              	.L195:
 2229              		.loc 1 1862 0
 2230 001c 1300     		movs	r3, r2
 2231              	.LVL219:
 2232              	.L191:
 2233              		.loc 1 1862 0 discriminator 8
 2234 001e 002B     		cmp	r3, #0
 2235 0020 F6D1     		bne	.L193
 2236              	.LVL220:
 2237              	.L192:
 2238              	.LBE10:
 2239              		.loc 1 1862 0 discriminator 10
 2240 0022 0023     		movs	r3, #0
ARM GAS  C:\Users\Phuong\AppData\Local\Temp\cczg95Bp.s 			page 78


 2241 0024 E360     		str	r3, [r4, #12]
1863:Source\LwIP\src\core/tcp.c **** 
1864:Source\LwIP\src\core/tcp.c ****   tcp_pcb_purge(pcb);
 2242              		.loc 1 1864 0 is_stmt 1 discriminator 10
 2243 0026 2000     		movs	r0, r4
 2244              	.LVL221:
 2245 0028 FFF7FEFF 		bl	tcp_pcb_purge
 2246              	.LVL222:
1865:Source\LwIP\src\core/tcp.c **** 
1866:Source\LwIP\src\core/tcp.c ****   /* if there is an outstanding delayed ACKs, send it */
1867:Source\LwIP\src\core/tcp.c ****   if (pcb->state != TIME_WAIT &&
 2247              		.loc 1 1867 0 discriminator 10
 2248 002c 237D     		ldrb	r3, [r4, #20]
 2249 002e 0A2B     		cmp	r3, #10
 2250 0030 0AD0     		beq	.L194
 2251              		.loc 1 1867 0 is_stmt 0 discriminator 1
 2252 0032 012B     		cmp	r3, #1
 2253 0034 08D0     		beq	.L194
1868:Source\LwIP\src\core/tcp.c ****      pcb->state != LISTEN &&
1869:Source\LwIP\src\core/tcp.c ****      pcb->flags & TF_ACK_DELAY) {
 2254              		.loc 1 1869 0 is_stmt 1
 2255 0036 638B     		ldrh	r3, [r4, #26]
1868:Source\LwIP\src\core/tcp.c ****      pcb->state != LISTEN &&
 2256              		.loc 1 1868 0
 2257 0038 DA07     		lsls	r2, r3, #31
 2258 003a 05D5     		bpl	.L194
1870:Source\LwIP\src\core/tcp.c ****     pcb->flags |= TF_ACK_NOW;
 2259              		.loc 1 1870 0
 2260 003c 0222     		movs	r2, #2
 2261 003e 1343     		orrs	r3, r2
 2262 0040 6383     		strh	r3, [r4, #26]
1871:Source\LwIP\src\core/tcp.c ****     tcp_output(pcb);
 2263              		.loc 1 1871 0
 2264 0042 2000     		movs	r0, r4
 2265 0044 FFF7FEFF 		bl	tcp_output
 2266              	.LVL223:
 2267              	.L194:
1872:Source\LwIP\src\core/tcp.c ****   }
1873:Source\LwIP\src\core/tcp.c **** 
1874:Source\LwIP\src\core/tcp.c ****   if (pcb->state != LISTEN) {
1875:Source\LwIP\src\core/tcp.c ****     LWIP_ASSERT("unsent segments leaking", pcb->unsent == NULL);
1876:Source\LwIP\src\core/tcp.c ****     LWIP_ASSERT("unacked segments leaking", pcb->unacked == NULL);
1877:Source\LwIP\src\core/tcp.c **** #if TCP_QUEUE_OOSEQ
1878:Source\LwIP\src\core/tcp.c ****     LWIP_ASSERT("ooseq segments leaking", pcb->ooseq == NULL);
1879:Source\LwIP\src\core/tcp.c **** #endif /* TCP_QUEUE_OOSEQ */
1880:Source\LwIP\src\core/tcp.c ****   }
1881:Source\LwIP\src\core/tcp.c **** 
1882:Source\LwIP\src\core/tcp.c ****   pcb->state = CLOSED;
 2268              		.loc 1 1882 0
 2269 0048 0023     		movs	r3, #0
 2270 004a 2375     		strb	r3, [r4, #20]
1883:Source\LwIP\src\core/tcp.c ****   /* reset the local port to prevent the pcb from being 'bound' */
1884:Source\LwIP\src\core/tcp.c ****   pcb->local_port = 0;
 2271              		.loc 1 1884 0
 2272 004c E382     		strh	r3, [r4, #22]
1885:Source\LwIP\src\core/tcp.c **** 
1886:Source\LwIP\src\core/tcp.c ****   LWIP_ASSERT("tcp_pcb_remove: tcp_pcbs_sane()", tcp_pcbs_sane());
ARM GAS  C:\Users\Phuong\AppData\Local\Temp\cczg95Bp.s 			page 79


1887:Source\LwIP\src\core/tcp.c **** }
 2273              		.loc 1 1887 0
 2274              		@ sp needed
 2275              	.LVL224:
 2276 004e 10BD     		pop	{r4, pc}
 2277              		.cfi_endproc
 2278              	.LFE95:
 2279              		.size	tcp_pcb_remove, .-tcp_pcb_remove
 2280              		.section	.text.tcp_close_shutdown,"ax",%progbits
 2281              		.align	2
 2282              		.code	16
 2283              		.thumb_func
 2284              		.type	tcp_close_shutdown, %function
 2285              	tcp_close_shutdown:
 2286              	.LFB59:
 266:Source\LwIP\src\core/tcp.c ****   if (rst_on_unacked_data && ((pcb->state == ESTABLISHED) || (pcb->state == CLOSE_WAIT))) {
 2287              		.loc 1 266 0
 2288              		.cfi_startproc
 2289              		@ args = 0, pretend = 0, frame = 0
 2290              		@ frame_needed = 0, uses_anonymous_args = 0
 2291              	.LVL225:
 2292 0000 10B5     		push	{r4, lr}
 2293              		.cfi_def_cfa_offset 8
 2294              		.cfi_offset 4, -8
 2295              		.cfi_offset 14, -4
 2296 0002 82B0     		sub	sp, sp, #8
 2297              		.cfi_def_cfa_offset 16
 2298 0004 0400     		movs	r4, r0
 267:Source\LwIP\src\core/tcp.c ****     if ((pcb->refused_data != NULL) || (pcb->rcv_wnd != TCP_WND_MAX(pcb))) {
 2299              		.loc 1 267 0
 2300 0006 0029     		cmp	r1, #0
 2301 0008 49D0     		beq	.L197
 267:Source\LwIP\src\core/tcp.c ****     if ((pcb->refused_data != NULL) || (pcb->rcv_wnd != TCP_WND_MAX(pcb))) {
 2302              		.loc 1 267 0 is_stmt 0 discriminator 1
 2303 000a 037D     		ldrb	r3, [r0, #20]
 2304 000c 042B     		cmp	r3, #4
 2305 000e 01D0     		beq	.L198
 267:Source\LwIP\src\core/tcp.c ****     if ((pcb->refused_data != NULL) || (pcb->rcv_wnd != TCP_WND_MAX(pcb))) {
 2306              		.loc 1 267 0 discriminator 2
 2307 0010 072B     		cmp	r3, #7
 2308 0012 44D1     		bne	.L197
 2309              	.L198:
 268:Source\LwIP\src\core/tcp.c ****       /* Not all data received by application, send RST to tell the remote
 2310              		.loc 1 268 0 is_stmt 1
 2311 0014 636F     		ldr	r3, [r4, #116]
 2312 0016 002B     		cmp	r3, #0
 2313 0018 03D1     		bne	.L199
 268:Source\LwIP\src\core/tcp.c ****       /* Not all data received by application, send RST to tell the remote
 2314              		.loc 1 268 0 is_stmt 0 discriminator 1
 2315 001a 228D     		ldrh	r2, [r4, #40]
 2316 001c 414B     		ldr	r3, .L217
 2317 001e 9A42     		cmp	r2, r3
 2318 0020 3DD0     		beq	.L197
 2319              	.L199:
 275:Source\LwIP\src\core/tcp.c ****                pcb->local_port, pcb->remote_port);
 2320              		.loc 1 275 0 is_stmt 1
 2321 0022 231D     		adds	r3, r4, #4
ARM GAS  C:\Users\Phuong\AppData\Local\Temp\cczg95Bp.s 			page 80


 2322 0024 228B     		ldrh	r2, [r4, #24]
 2323 0026 0192     		str	r2, [sp, #4]
 2324 0028 E28A     		ldrh	r2, [r4, #22]
 2325 002a 0092     		str	r2, [sp]
 2326 002c 2200     		movs	r2, r4
 2327 002e 616A     		ldr	r1, [r4, #36]
 2328              	.LVL226:
 2329 0030 E06C     		ldr	r0, [r4, #76]
 2330              	.LVL227:
 2331 0032 FFF7FEFF 		bl	tcp_rst
 2332              	.LVL228:
 278:Source\LwIP\src\core/tcp.c ****       TCP_RMV_ACTIVE(pcb);
 2333              		.loc 1 278 0
 2334 0036 2000     		movs	r0, r4
 2335 0038 FFF7FEFF 		bl	tcp_pcb_purge
 2336              	.LVL229:
 279:Source\LwIP\src\core/tcp.c ****       if (pcb->state == ESTABLISHED) {
 2337              		.loc 1 279 0
 2338 003c 3A4B     		ldr	r3, .L217+4
 2339 003e 1B68     		ldr	r3, [r3]
 2340 0040 9C42     		cmp	r4, r3
 2341 0042 0AD1     		bne	.L200
 279:Source\LwIP\src\core/tcp.c ****       if (pcb->state == ESTABLISHED) {
 2342              		.loc 1 279 0 is_stmt 0 discriminator 1
 2343 0044 DA68     		ldr	r2, [r3, #12]
 2344 0046 384B     		ldr	r3, .L217+4
 2345 0048 1A60     		str	r2, [r3]
 2346 004a 08E0     		b	.L201
 2347              	.LVL230:
 2348              	.L202:
 2349              	.LBB11:
 279:Source\LwIP\src\core/tcp.c ****       if (pcb->state == ESTABLISHED) {
 2350              		.loc 1 279 0 discriminator 9
 2351 004c DA68     		ldr	r2, [r3, #12]
 2352 004e 9442     		cmp	r4, r2
 2353 0050 02D1     		bne	.L214
 279:Source\LwIP\src\core/tcp.c ****       if (pcb->state == ESTABLISHED) {
 2354              		.loc 1 279 0 discriminator 5
 2355 0052 E268     		ldr	r2, [r4, #12]
 2356 0054 DA60     		str	r2, [r3, #12]
 2357 0056 02E0     		b	.L201
 2358              	.L214:
 279:Source\LwIP\src\core/tcp.c ****       if (pcb->state == ESTABLISHED) {
 2359              		.loc 1 279 0
 2360 0058 1300     		movs	r3, r2
 2361              	.LVL231:
 2362              	.L200:
 279:Source\LwIP\src\core/tcp.c ****       if (pcb->state == ESTABLISHED) {
 2363              		.loc 1 279 0 discriminator 8
 2364 005a 002B     		cmp	r3, #0
 2365 005c F6D1     		bne	.L202
 2366              	.LVL232:
 2367              	.L201:
 2368              	.LBE11:
 279:Source\LwIP\src\core/tcp.c ****       if (pcb->state == ESTABLISHED) {
 2369              		.loc 1 279 0 discriminator 10
 2370 005e 0023     		movs	r3, #0
ARM GAS  C:\Users\Phuong\AppData\Local\Temp\cczg95Bp.s 			page 81


 2371 0060 E360     		str	r3, [r4, #12]
 2372 0062 0122     		movs	r2, #1
 2373 0064 314B     		ldr	r3, .L217+8
 2374 0066 1A70     		strb	r2, [r3]
 280:Source\LwIP\src\core/tcp.c ****         /* move to TIME_WAIT since we close actively */
 2375              		.loc 1 280 0 is_stmt 1 discriminator 10
 2376 0068 237D     		ldrb	r3, [r4, #20]
 2377 006a 042B     		cmp	r3, #4
 2378 006c 09D1     		bne	.L203
 282:Source\LwIP\src\core/tcp.c ****         TCP_REG(&tcp_tw_pcbs, pcb);
 2379              		.loc 1 282 0
 2380 006e 0633     		adds	r3, r3, #6
 2381 0070 2375     		strb	r3, [r4, #20]
 283:Source\LwIP\src\core/tcp.c ****       } else {
 2382              		.loc 1 283 0
 2383 0072 2F4B     		ldr	r3, .L217+12
 2384 0074 1A68     		ldr	r2, [r3]
 2385 0076 E260     		str	r2, [r4, #12]
 2386 0078 1C60     		str	r4, [r3]
 2387 007a FFF7FEFF 		bl	tcp_timer_needed
 2388              	.LVL233:
 293:Source\LwIP\src\core/tcp.c ****     }
 2389              		.loc 1 293 0
 2390 007e 0020     		movs	r0, #0
 2391 0080 4EE0     		b	.L204
 2392              	.L203:
 286:Source\LwIP\src\core/tcp.c ****           /* prevent using a deallocated pcb: free it from tcp_input later */
 2393              		.loc 1 286 0
 2394 0082 2C4B     		ldr	r3, .L217+16
 2395 0084 1B68     		ldr	r3, [r3]
 2396 0086 9C42     		cmp	r4, r3
 2397 0088 03D1     		bne	.L205
 288:Source\LwIP\src\core/tcp.c ****         } else {
 2398              		.loc 1 288 0
 2399 008a FFF7FEFF 		bl	tcp_trigger_input_pcb_close
 2400              	.LVL234:
 293:Source\LwIP\src\core/tcp.c ****     }
 2401              		.loc 1 293 0
 2402 008e 0020     		movs	r0, #0
 2403 0090 46E0     		b	.L204
 2404              	.L205:
 290:Source\LwIP\src\core/tcp.c ****         }
 2405              		.loc 1 290 0
 2406 0092 2100     		movs	r1, r4
 2407 0094 0220     		movs	r0, #2
 2408 0096 FFF7FEFF 		bl	memp_free
 2409              	.LVL235:
 293:Source\LwIP\src\core/tcp.c ****     }
 2410              		.loc 1 293 0
 2411 009a 0020     		movs	r0, #0
 2412 009c 40E0     		b	.L204
 2413              	.LVL236:
 2414              	.L197:
 299:Source\LwIP\src\core/tcp.c ****   case CLOSED:
 2415              		.loc 1 299 0
 2416 009e 237D     		ldrb	r3, [r4, #20]
 2417 00a0 012B     		cmp	r3, #1
ARM GAS  C:\Users\Phuong\AppData\Local\Temp\cczg95Bp.s 			page 82


 2418 00a2 20D0     		beq	.L207
 2419 00a4 002B     		cmp	r3, #0
 2420 00a6 02D0     		beq	.L208
 2421 00a8 022B     		cmp	r3, #2
 2422 00aa 29D0     		beq	.L209
 2423 00ac 35E0     		b	.L216
 2424              	.L208:
 308:Source\LwIP\src\core/tcp.c ****       TCP_RMV(&tcp_bound_pcbs, pcb);
 2425              		.loc 1 308 0
 2426 00ae E38A     		ldrh	r3, [r4, #22]
 2427 00b0 002B     		cmp	r3, #0
 2428 00b2 12D0     		beq	.L210
 309:Source\LwIP\src\core/tcp.c ****     }
 2429              		.loc 1 309 0
 2430 00b4 204B     		ldr	r3, .L217+20
 2431 00b6 1B68     		ldr	r3, [r3]
 2432 00b8 9C42     		cmp	r4, r3
 2433 00ba 0AD1     		bne	.L211
 309:Source\LwIP\src\core/tcp.c ****     }
 2434              		.loc 1 309 0 is_stmt 0 discriminator 1
 2435 00bc DA68     		ldr	r2, [r3, #12]
 2436 00be 1E4B     		ldr	r3, .L217+20
 2437 00c0 1A60     		str	r2, [r3]
 2438 00c2 08E0     		b	.L212
 2439              	.LVL237:
 2440              	.L213:
 2441              	.LBB12:
 309:Source\LwIP\src\core/tcp.c ****     }
 2442              		.loc 1 309 0 discriminator 9
 2443 00c4 DA68     		ldr	r2, [r3, #12]
 2444 00c6 9442     		cmp	r4, r2
 2445 00c8 02D1     		bne	.L215
 309:Source\LwIP\src\core/tcp.c ****     }
 2446              		.loc 1 309 0 discriminator 5
 2447 00ca E268     		ldr	r2, [r4, #12]
 2448 00cc DA60     		str	r2, [r3, #12]
 2449 00ce 02E0     		b	.L212
 2450              	.L215:
 309:Source\LwIP\src\core/tcp.c ****     }
 2451              		.loc 1 309 0
 2452 00d0 1300     		movs	r3, r2
 2453              	.LVL238:
 2454              	.L211:
 309:Source\LwIP\src\core/tcp.c ****     }
 2455              		.loc 1 309 0 discriminator 8
 2456 00d2 002B     		cmp	r3, #0
 2457 00d4 F6D1     		bne	.L213
 2458              	.LVL239:
 2459              	.L212:
 2460              	.LBE12:
 309:Source\LwIP\src\core/tcp.c ****     }
 2461              		.loc 1 309 0 discriminator 10
 2462 00d6 0023     		movs	r3, #0
 2463 00d8 E360     		str	r3, [r4, #12]
 2464              	.L210:
 311:Source\LwIP\src\core/tcp.c ****     break;
 2465              		.loc 1 311 0 is_stmt 1
ARM GAS  C:\Users\Phuong\AppData\Local\Temp\cczg95Bp.s 			page 83


 2466 00da 2100     		movs	r1, r4
 2467              	.LVL240:
 2468 00dc 0220     		movs	r0, #2
 2469              	.LVL241:
 2470 00de FFF7FEFF 		bl	memp_free
 2471              	.LVL242:
 326:Source\LwIP\src\core/tcp.c **** }
 2472              		.loc 1 326 0
 2473 00e2 0020     		movs	r0, #0
 312:Source\LwIP\src\core/tcp.c ****   case LISTEN:
 2474              		.loc 1 312 0
 2475 00e4 1CE0     		b	.L204
 2476              	.LVL243:
 2477              	.L207:
 314:Source\LwIP\src\core/tcp.c ****     tcp_pcb_remove(&tcp_listen_pcbs.pcbs, pcb);
 2478              		.loc 1 314 0
 2479 00e6 2000     		movs	r0, r4
 2480              	.LVL244:
 2481 00e8 FFF7FEFF 		bl	tcp_listen_closed
 2482              	.LVL245:
 315:Source\LwIP\src\core/tcp.c ****     memp_free(MEMP_TCP_PCB_LISTEN, pcb);
 2483              		.loc 1 315 0
 2484 00ec 2100     		movs	r1, r4
 2485 00ee 1348     		ldr	r0, .L217+24
 2486 00f0 FFF7FEFF 		bl	tcp_pcb_remove
 2487              	.LVL246:
 316:Source\LwIP\src\core/tcp.c ****     break;
 2488              		.loc 1 316 0
 2489 00f4 2100     		movs	r1, r4
 2490 00f6 0320     		movs	r0, #3
 2491 00f8 FFF7FEFF 		bl	memp_free
 2492              	.LVL247:
 326:Source\LwIP\src\core/tcp.c **** }
 2493              		.loc 1 326 0
 2494 00fc 0020     		movs	r0, #0
 317:Source\LwIP\src\core/tcp.c ****   case SYN_SENT:
 2495              		.loc 1 317 0
 2496 00fe 0FE0     		b	.L204
 2497              	.LVL248:
 2498              	.L209:
 319:Source\LwIP\src\core/tcp.c ****     memp_free(MEMP_TCP_PCB, pcb);
 2499              		.loc 1 319 0
 2500 0100 2100     		movs	r1, r4
 2501              	.LVL249:
 2502 0102 0948     		ldr	r0, .L217+4
 2503              	.LVL250:
 2504 0104 FFF7FEFF 		bl	tcp_pcb_remove
 2505              	.LVL251:
 2506 0108 0122     		movs	r2, #1
 2507 010a 084B     		ldr	r3, .L217+8
 2508 010c 1A70     		strb	r2, [r3]
 320:Source\LwIP\src\core/tcp.c ****     MIB2_STATS_INC(mib2.tcpattemptfails);
 2509              		.loc 1 320 0
 2510 010e 2100     		movs	r1, r4
 2511 0110 0220     		movs	r0, #2
 2512 0112 FFF7FEFF 		bl	memp_free
 2513              	.LVL252:
ARM GAS  C:\Users\Phuong\AppData\Local\Temp\cczg95Bp.s 			page 84


 326:Source\LwIP\src\core/tcp.c **** }
 2514              		.loc 1 326 0
 2515 0116 0020     		movs	r0, #0
 322:Source\LwIP\src\core/tcp.c ****   default:
 2516              		.loc 1 322 0
 2517 0118 02E0     		b	.L204
 2518              	.LVL253:
 2519              	.L216:
 324:Source\LwIP\src\core/tcp.c ****   }
 2520              		.loc 1 324 0
 2521 011a 2000     		movs	r0, r4
 2522              	.LVL254:
 2523 011c FFF7FEFF 		bl	tcp_close_shutdown_fin
 2524              	.LVL255:
 2525              	.L204:
 327:Source\LwIP\src\core/tcp.c **** 
 2526              		.loc 1 327 0
 2527 0120 02B0     		add	sp, sp, #8
 2528              		@ sp needed
 2529              	.LVL256:
 2530 0122 10BD     		pop	{r4, pc}
 2531              	.L218:
 2532              		.align	2
 2533              	.L217:
 2534 0124 D0160000 		.word	5840
 2535 0128 00000000 		.word	tcp_active_pcbs
 2536 012c 00000000 		.word	tcp_active_pcbs_changed
 2537 0130 00000000 		.word	tcp_tw_pcbs
 2538 0134 00000000 		.word	tcp_input_pcb
 2539 0138 00000000 		.word	tcp_bound_pcbs
 2540 013c 00000000 		.word	tcp_listen_pcbs
 2541              		.cfi_endproc
 2542              	.LFE59:
 2543              		.size	tcp_close_shutdown, .-tcp_close_shutdown
 2544              		.section	.text.tcp_close,"ax",%progbits
 2545              		.align	2
 2546              		.global	tcp_close
 2547              		.code	16
 2548              		.thumb_func
 2549              		.type	tcp_close, %function
 2550              	tcp_close:
 2551              	.LFB61:
 400:Source\LwIP\src\core/tcp.c ****   LWIP_DEBUGF(TCP_DEBUG, ("tcp_close: closing in "));
 2552              		.loc 1 400 0
 2553              		.cfi_startproc
 2554              		@ args = 0, pretend = 0, frame = 0
 2555              		@ frame_needed = 0, uses_anonymous_args = 0
 2556              	.LVL257:
 2557 0000 10B5     		push	{r4, lr}
 2558              		.cfi_def_cfa_offset 8
 2559              		.cfi_offset 4, -8
 2560              		.cfi_offset 14, -4
 404:Source\LwIP\src\core/tcp.c ****     /* Set a flag not to receive any more data... */
 2561              		.loc 1 404 0
 2562 0002 037D     		ldrb	r3, [r0, #20]
 2563 0004 012B     		cmp	r3, #1
 2564 0006 03D0     		beq	.L220
ARM GAS  C:\Users\Phuong\AppData\Local\Temp\cczg95Bp.s 			page 85


 406:Source\LwIP\src\core/tcp.c ****   }
 2565              		.loc 1 406 0
 2566 0008 428B     		ldrh	r2, [r0, #26]
 2567 000a 1023     		movs	r3, #16
 2568 000c 1343     		orrs	r3, r2
 2569 000e 4383     		strh	r3, [r0, #26]
 2570              	.L220:
 409:Source\LwIP\src\core/tcp.c **** }
 2571              		.loc 1 409 0
 2572 0010 0121     		movs	r1, #1
 2573 0012 FFF7FEFF 		bl	tcp_close_shutdown
 2574              	.LVL258:
 410:Source\LwIP\src\core/tcp.c **** 
 2575              		.loc 1 410 0
 2576              		@ sp needed
 2577 0016 10BD     		pop	{r4, pc}
 2578              		.cfi_endproc
 2579              	.LFE61:
 2580              		.size	tcp_close, .-tcp_close
 2581              		.section	.text.tcp_recv_null,"ax",%progbits
 2582              		.align	2
 2583              		.global	tcp_recv_null
 2584              		.code	16
 2585              		.thumb_func
 2586              		.type	tcp_recv_null, %function
 2587              	tcp_recv_null:
 2588              	.LFB81:
1445:Source\LwIP\src\core/tcp.c ****   LWIP_UNUSED_ARG(arg);
 2589              		.loc 1 1445 0
 2590              		.cfi_startproc
 2591              		@ args = 0, pretend = 0, frame = 0
 2592              		@ frame_needed = 0, uses_anonymous_args = 0
 2593              	.LVL259:
 2594 0000 10B5     		push	{r4, lr}
 2595              		.cfi_def_cfa_offset 8
 2596              		.cfi_offset 4, -8
 2597              		.cfi_offset 14, -4
 2598 0002 0800     		movs	r0, r1
 2599              	.LVL260:
 2600 0004 141E     		subs	r4, r2, #0
1447:Source\LwIP\src\core/tcp.c ****     tcp_recved(pcb, p->tot_len);
 2601              		.loc 1 1447 0
 2602 0006 07D0     		beq	.L222
1448:Source\LwIP\src\core/tcp.c ****     pbuf_free(p);
 2603              		.loc 1 1448 0
 2604 0008 1189     		ldrh	r1, [r2, #8]
 2605              	.LVL261:
 2606 000a FFF7FEFF 		bl	tcp_recved
 2607              	.LVL262:
1449:Source\LwIP\src\core/tcp.c ****   } else if (err == ERR_OK) {
 2608              		.loc 1 1449 0
 2609 000e 2000     		movs	r0, r4
 2610 0010 FFF7FEFF 		bl	pbuf_free
 2611              	.LVL263:
1453:Source\LwIP\src\core/tcp.c **** }
 2612              		.loc 1 1453 0
 2613 0014 0020     		movs	r0, #0
ARM GAS  C:\Users\Phuong\AppData\Local\Temp\cczg95Bp.s 			page 86


 2614 0016 05E0     		b	.L223
 2615              	.LVL264:
 2616              	.L222:
1450:Source\LwIP\src\core/tcp.c ****     return tcp_close(pcb);
 2617              		.loc 1 1450 0
 2618 0018 002B     		cmp	r3, #0
 2619 001a 02D1     		bne	.L224
1451:Source\LwIP\src\core/tcp.c ****   }
 2620              		.loc 1 1451 0
 2621 001c FFF7FEFF 		bl	tcp_close
 2622              	.LVL265:
 2623 0020 00E0     		b	.L223
 2624              	.LVL266:
 2625              	.L224:
1453:Source\LwIP\src\core/tcp.c **** }
 2626              		.loc 1 1453 0
 2627 0022 0020     		movs	r0, #0
 2628              	.LVL267:
 2629              	.L223:
1454:Source\LwIP\src\core/tcp.c **** #endif /* LWIP_CALLBACK_API */
 2630              		.loc 1 1454 0
 2631              		@ sp needed
 2632              	.LVL268:
 2633 0024 10BD     		pop	{r4, pc}
 2634              		.cfi_endproc
 2635              	.LFE81:
 2636              		.size	tcp_recv_null, .-tcp_recv_null
 2637 0026 C046     		.section	.text.tcp_process_refused_data,"ax",%progbits
 2638              		.align	2
 2639              		.global	tcp_process_refused_data
 2640              		.code	16
 2641              		.thumb_func
 2642              		.type	tcp_process_refused_data, %function
 2643              	tcp_process_refused_data:
 2644              	.LFB76:
1312:Source\LwIP\src\core/tcp.c **** #if TCP_QUEUE_OOSEQ && LWIP_WND_SCALE
 2645              		.loc 1 1312 0
 2646              		.cfi_startproc
 2647              		@ args = 0, pretend = 0, frame = 0
 2648              		@ frame_needed = 0, uses_anonymous_args = 0
 2649              	.LVL269:
 2650 0000 F8B5     		push	{r3, r4, r5, r6, r7, lr}
 2651              		.cfi_def_cfa_offset 24
 2652              		.cfi_offset 3, -24
 2653              		.cfi_offset 4, -20
 2654              		.cfi_offset 5, -16
 2655              		.cfi_offset 6, -12
 2656              		.cfi_offset 7, -8
 2657              		.cfi_offset 14, -4
 2658 0002 0400     		movs	r4, r0
 2659              	.LBB13:
1319:Source\LwIP\src\core/tcp.c ****     /* set pcb->refused_data to NULL in case the callback frees it and then
 2660              		.loc 1 1319 0
 2661 0004 456F     		ldr	r5, [r0, #116]
 2662 0006 6F7B     		ldrb	r7, [r5, #13]
 2663              	.LVL270:
1327:Source\LwIP\src\core/tcp.c **** #endif /* TCP_QUEUE_OOSEQ && LWIP_WND_SCALE */
ARM GAS  C:\Users\Phuong\AppData\Local\Temp\cczg95Bp.s 			page 87


 2664              		.loc 1 1327 0
 2665 0008 0023     		movs	r3, #0
 2666 000a 4367     		str	r3, [r0, #116]
1331:Source\LwIP\src\core/tcp.c ****     if (err == ERR_OK) {
 2667              		.loc 1 1331 0
 2668 000c 8033     		adds	r3, r3, #128
 2669 000e C658     		ldr	r6, [r0, r3]
 2670 0010 002E     		cmp	r6, #0
 2671 0012 05D0     		beq	.L226
1331:Source\LwIP\src\core/tcp.c ****     if (err == ERR_OK) {
 2672              		.loc 1 1331 0 is_stmt 0 discriminator 1
 2673 0014 0023     		movs	r3, #0
 2674 0016 2A00     		movs	r2, r5
 2675 0018 0100     		movs	r1, r0
 2676 001a 0069     		ldr	r0, [r0, #16]
 2677              	.LVL271:
 2678 001c B047     		blx	r6
 2679              	.LVL272:
 2680 001e 05E0     		b	.L227
 2681              	.LVL273:
 2682              	.L226:
1331:Source\LwIP\src\core/tcp.c ****     if (err == ERR_OK) {
 2683              		.loc 1 1331 0 discriminator 2
 2684 0020 0023     		movs	r3, #0
 2685 0022 2A00     		movs	r2, r5
 2686 0024 0100     		movs	r1, r0
 2687 0026 0020     		movs	r0, #0
 2688              	.LVL274:
 2689 0028 FFF7FEFF 		bl	tcp_recv_null
 2690              	.LVL275:
 2691              	.L227:
1332:Source\LwIP\src\core/tcp.c ****       /* did refused_data include a FIN? */
 2692              		.loc 1 1332 0 is_stmt 1
 2693 002c 0028     		cmp	r0, #0
 2694 002e 15D1     		bne	.L228
1334:Source\LwIP\src\core/tcp.c **** #if TCP_QUEUE_OOSEQ && LWIP_WND_SCALE
 2695              		.loc 1 1334 0
 2696 0030 BB06     		lsls	r3, r7, #26
 2697 0032 19D5     		bpl	.L232
1341:Source\LwIP\src\core/tcp.c ****           pcb->rcv_wnd++;
 2698              		.loc 1 1341 0
 2699 0034 238D     		ldrh	r3, [r4, #40]
 2700 0036 104A     		ldr	r2, .L235
 2701 0038 9342     		cmp	r3, r2
 2702 003a 01D0     		beq	.L230
1342:Source\LwIP\src\core/tcp.c ****         }
 2703              		.loc 1 1342 0
 2704 003c 0133     		adds	r3, r3, #1
 2705 003e 2385     		strh	r3, [r4, #40]
 2706              	.L230:
1344:Source\LwIP\src\core/tcp.c ****         if (err == ERR_ABRT) {
 2707              		.loc 1 1344 0
 2708 0040 8023     		movs	r3, #128
 2709 0042 E558     		ldr	r5, [r4, r3]
 2710              	.LVL276:
 2711 0044 002D     		cmp	r5, #0
 2712 0046 04D0     		beq	.L231
ARM GAS  C:\Users\Phuong\AppData\Local\Temp\cczg95Bp.s 			page 88


1344:Source\LwIP\src\core/tcp.c ****         if (err == ERR_ABRT) {
 2713              		.loc 1 1344 0 is_stmt 0 discriminator 1
 2714 0048 2069     		ldr	r0, [r4, #16]
 2715              	.LVL277:
 2716 004a 0023     		movs	r3, #0
 2717 004c 0022     		movs	r2, #0
 2718 004e 2100     		movs	r1, r4
 2719 0050 A847     		blx	r5
 2720              	.LVL278:
 2721              	.L231:
1345:Source\LwIP\src\core/tcp.c ****           return ERR_ABRT;
 2722              		.loc 1 1345 0 is_stmt 1
 2723 0052 0D30     		adds	r0, r0, #13
 2724 0054 0AD1     		bne	.L233
 2725              	.LVL279:
1346:Source\LwIP\src\core/tcp.c ****         }
 2726              		.loc 1 1346 0
 2727 0056 0D20     		movs	r0, #13
 2728 0058 4042     		rsbs	r0, r0, #0
 2729 005a 0BE0     		b	.L229
 2730              	.LVL280:
 2731              	.L228:
1349:Source\LwIP\src\core/tcp.c ****       /* if err == ERR_ABRT, 'pcb' is already deallocated */
 2732              		.loc 1 1349 0
 2733 005c 0D30     		adds	r0, r0, #13
 2734 005e 07D0     		beq	.L234
 2735              	.LVL281:
1362:Source\LwIP\src\core/tcp.c ****       return ERR_INPROGRESS;
 2736              		.loc 1 1362 0
 2737 0060 6567     		str	r5, [r4, #116]
1363:Source\LwIP\src\core/tcp.c ****     }
 2738              		.loc 1 1363 0
 2739 0062 0520     		movs	r0, #5
 2740 0064 4042     		rsbs	r0, r0, #0
 2741 0066 05E0     		b	.L229
 2742              	.LVL282:
 2743              	.L232:
 2744              	.LBE13:
1366:Source\LwIP\src\core/tcp.c **** }
 2745              		.loc 1 1366 0
 2746 0068 0020     		movs	r0, #0
 2747              	.LVL283:
 2748 006a 03E0     		b	.L229
 2749              	.LVL284:
 2750              	.L233:
 2751 006c 0020     		movs	r0, #0
 2752 006e 01E0     		b	.L229
 2753              	.LVL285:
 2754              	.L234:
 2755              	.LBB14:
1354:Source\LwIP\src\core/tcp.c ****     } else {
 2756              		.loc 1 1354 0
 2757 0070 0D20     		movs	r0, #13
 2758 0072 4042     		rsbs	r0, r0, #0
 2759              	.LVL286:
 2760              	.L229:
 2761              	.LBE14:
ARM GAS  C:\Users\Phuong\AppData\Local\Temp\cczg95Bp.s 			page 89


1367:Source\LwIP\src\core/tcp.c **** 
 2762              		.loc 1 1367 0
 2763              		@ sp needed
 2764              	.LVL287:
 2765              	.LVL288:
 2766 0074 F8BD     		pop	{r3, r4, r5, r6, r7, pc}
 2767              	.L236:
 2768 0076 C046     		.align	2
 2769              	.L235:
 2770 0078 D0160000 		.word	5840
 2771              		.cfi_endproc
 2772              	.LFE76:
 2773              		.size	tcp_process_refused_data, .-tcp_process_refused_data
 2774              		.section	.text.tcp_fasttmr,"ax",%progbits
 2775              		.align	2
 2776              		.global	tcp_fasttmr
 2777              		.code	16
 2778              		.thumb_func
 2779              		.type	tcp_fasttmr, %function
 2780              	tcp_fasttmr:
 2781              	.LFB74:
1252:Source\LwIP\src\core/tcp.c ****   struct tcp_pcb *pcb;
 2782              		.loc 1 1252 0
 2783              		.cfi_startproc
 2784              		@ args = 0, pretend = 0, frame = 0
 2785              		@ frame_needed = 0, uses_anonymous_args = 0
 2786 0000 70B5     		push	{r4, r5, r6, lr}
 2787              		.cfi_def_cfa_offset 16
 2788              		.cfi_offset 4, -16
 2789              		.cfi_offset 5, -12
 2790              		.cfi_offset 6, -8
 2791              		.cfi_offset 14, -4
1255:Source\LwIP\src\core/tcp.c **** 
 2792              		.loc 1 1255 0
 2793 0002 1B4A     		ldr	r2, .L245
 2794 0004 1378     		ldrb	r3, [r2]
 2795 0006 0133     		adds	r3, r3, #1
 2796 0008 1370     		strb	r3, [r2]
 2797              	.L238:
1258:Source\LwIP\src\core/tcp.c **** 
 2798              		.loc 1 1258 0
 2799 000a 1A4B     		ldr	r3, .L245+4
 2800 000c 1C68     		ldr	r4, [r3]
 2801              	.LVL289:
1260:Source\LwIP\src\core/tcp.c ****     if (pcb->last_timer != tcp_timer_ctr) {
 2802              		.loc 1 1260 0
 2803 000e 2BE0     		b	.L239
 2804              	.L244:
1261:Source\LwIP\src\core/tcp.c ****       struct tcp_pcb *next;
 2805              		.loc 1 1261 0
 2806 0010 A27F     		ldrb	r2, [r4, #30]
 2807 0012 174B     		ldr	r3, .L245
 2808 0014 1B78     		ldrb	r3, [r3]
 2809 0016 9A42     		cmp	r2, r3
 2810 0018 24D0     		beq	.L240
 2811              	.LBB15:
1263:Source\LwIP\src\core/tcp.c ****       /* send delayed ACKs */
ARM GAS  C:\Users\Phuong\AppData\Local\Temp\cczg95Bp.s 			page 90


 2812              		.loc 1 1263 0
 2813 001a A377     		strb	r3, [r4, #30]
1265:Source\LwIP\src\core/tcp.c ****         LWIP_DEBUGF(TCP_DEBUG, ("tcp_fasttmr: delayed ACK\n"));
 2814              		.loc 1 1265 0
 2815 001c 638B     		ldrh	r3, [r4, #26]
 2816 001e DA07     		lsls	r2, r3, #31
 2817 0020 09D5     		bpl	.L241
1267:Source\LwIP\src\core/tcp.c ****         tcp_output(pcb);
 2818              		.loc 1 1267 0
 2819 0022 0222     		movs	r2, #2
 2820 0024 1343     		orrs	r3, r2
 2821 0026 6383     		strh	r3, [r4, #26]
1268:Source\LwIP\src\core/tcp.c ****         pcb->flags &= ~(TF_ACK_DELAY | TF_ACK_NOW);
 2822              		.loc 1 1268 0
 2823 0028 2000     		movs	r0, r4
 2824 002a FFF7FEFF 		bl	tcp_output
 2825              	.LVL290:
1269:Source\LwIP\src\core/tcp.c ****       }
 2826              		.loc 1 1269 0
 2827 002e 638B     		ldrh	r3, [r4, #26]
 2828 0030 0322     		movs	r2, #3
 2829 0032 9343     		bics	r3, r2
 2830 0034 6383     		strh	r3, [r4, #26]
 2831              	.L241:
1272:Source\LwIP\src\core/tcp.c ****         LWIP_DEBUGF(TCP_DEBUG, ("tcp_fasttmr: pending FIN\n"));
 2832              		.loc 1 1272 0
 2833 0036 638B     		ldrh	r3, [r4, #26]
 2834 0038 1A07     		lsls	r2, r3, #28
 2835 003a 05D5     		bpl	.L242
1274:Source\LwIP\src\core/tcp.c ****         tcp_close_shutdown_fin(pcb);
 2836              		.loc 1 1274 0
 2837 003c 0822     		movs	r2, #8
 2838 003e 9343     		bics	r3, r2
 2839 0040 6383     		strh	r3, [r4, #26]
1275:Source\LwIP\src\core/tcp.c ****       }
 2840              		.loc 1 1275 0
 2841 0042 2000     		movs	r0, r4
 2842 0044 FFF7FEFF 		bl	tcp_close_shutdown_fin
 2843              	.LVL291:
 2844              	.L242:
1278:Source\LwIP\src\core/tcp.c **** 
 2845              		.loc 1 1278 0
 2846 0048 E568     		ldr	r5, [r4, #12]
 2847              	.LVL292:
1281:Source\LwIP\src\core/tcp.c ****         tcp_active_pcbs_changed = 0;
 2848              		.loc 1 1281 0
 2849 004a 636F     		ldr	r3, [r4, #116]
 2850 004c 002B     		cmp	r3, #0
 2851 004e 0AD0     		beq	.L243
1282:Source\LwIP\src\core/tcp.c ****         tcp_process_refused_data(pcb);
 2852              		.loc 1 1282 0
 2853 0050 094E     		ldr	r6, .L245+8
 2854 0052 0023     		movs	r3, #0
 2855 0054 3370     		strb	r3, [r6]
1283:Source\LwIP\src\core/tcp.c ****         if (tcp_active_pcbs_changed) {
 2856              		.loc 1 1283 0
 2857 0056 2000     		movs	r0, r4
ARM GAS  C:\Users\Phuong\AppData\Local\Temp\cczg95Bp.s 			page 91


 2858 0058 FFF7FEFF 		bl	tcp_process_refused_data
 2859              	.LVL293:
1284:Source\LwIP\src\core/tcp.c ****           /* application callback has changed the pcb list: restart the loop */
 2860              		.loc 1 1284 0
 2861 005c 3378     		ldrb	r3, [r6]
 2862 005e 002B     		cmp	r3, #0
 2863 0060 01D0     		beq	.L243
 2864              	.LBE15:
 2865 0062 D2E7     		b	.L238
 2866              	.LVL294:
 2867              	.L240:
1291:Source\LwIP\src\core/tcp.c ****     }
 2868              		.loc 1 1291 0
 2869 0064 E568     		ldr	r5, [r4, #12]
 2870              	.LVL295:
 2871              	.L243:
1252:Source\LwIP\src\core/tcp.c ****   struct tcp_pcb *pcb;
 2872              		.loc 1 1252 0
 2873 0066 2C00     		movs	r4, r5
 2874              	.L239:
 2875              	.LVL296:
1260:Source\LwIP\src\core/tcp.c ****     if (pcb->last_timer != tcp_timer_ctr) {
 2876              		.loc 1 1260 0
 2877 0068 002C     		cmp	r4, #0
 2878 006a D1D1     		bne	.L244
1294:Source\LwIP\src\core/tcp.c **** 
 2879              		.loc 1 1294 0
 2880              		@ sp needed
 2881              	.LVL297:
 2882 006c 70BD     		pop	{r4, r5, r6, pc}
 2883              	.L246:
 2884 006e C046     		.align	2
 2885              	.L245:
 2886 0070 00000000 		.word	.LANCHOR2
 2887 0074 00000000 		.word	tcp_active_pcbs
 2888 0078 00000000 		.word	tcp_active_pcbs_changed
 2889              		.cfi_endproc
 2890              	.LFE74:
 2891              		.size	tcp_fasttmr, .-tcp_fasttmr
 2892              		.section	.text.tcp_tmr,"ax",%progbits
 2893              		.align	2
 2894              		.global	tcp_tmr
 2895              		.code	16
 2896              		.thumb_func
 2897              		.type	tcp_tmr, %function
 2898              	tcp_tmr:
 2899              	.LFB54:
 157:Source\LwIP\src\core/tcp.c ****   /* Call tcp_fasttmr() every 250 ms */
 2900              		.loc 1 157 0
 2901              		.cfi_startproc
 2902              		@ args = 0, pretend = 0, frame = 0
 2903              		@ frame_needed = 0, uses_anonymous_args = 0
 2904 0000 10B5     		push	{r4, lr}
 2905              		.cfi_def_cfa_offset 8
 2906              		.cfi_offset 4, -8
 2907              		.cfi_offset 14, -4
 159:Source\LwIP\src\core/tcp.c **** 
ARM GAS  C:\Users\Phuong\AppData\Local\Temp\cczg95Bp.s 			page 92


 2908              		.loc 1 159 0
 2909 0002 FFF7FEFF 		bl	tcp_fasttmr
 2910              	.LVL298:
 161:Source\LwIP\src\core/tcp.c ****     /* Call tcp_slowtmr() every 500 ms, i.e., every other timer
 2911              		.loc 1 161 0
 2912 0006 054A     		ldr	r2, .L249
 2913 0008 5378     		ldrb	r3, [r2, #1]
 2914 000a 0133     		adds	r3, r3, #1
 2915 000c DBB2     		uxtb	r3, r3
 2916 000e 5370     		strb	r3, [r2, #1]
 2917 0010 DB07     		lsls	r3, r3, #31
 2918 0012 01D5     		bpl	.L247
 164:Source\LwIP\src\core/tcp.c ****   }
 2919              		.loc 1 164 0
 2920 0014 FFF7FEFF 		bl	tcp_slowtmr
 2921              	.LVL299:
 2922              	.L247:
 166:Source\LwIP\src\core/tcp.c **** 
 2923              		.loc 1 166 0
 2924              		@ sp needed
 2925 0018 10BD     		pop	{r4, pc}
 2926              	.L250:
 2927 001a C046     		.align	2
 2928              	.L249:
 2929 001c 00000000 		.word	.LANCHOR2
 2930              		.cfi_endproc
 2931              	.LFE54:
 2932              		.size	tcp_tmr, .-tcp_tmr
 2933              		.section	.text.tcp_shutdown,"ax",%progbits
 2934              		.align	2
 2935              		.global	tcp_shutdown
 2936              		.code	16
 2937              		.thumb_func
 2938              		.type	tcp_shutdown, %function
 2939              	tcp_shutdown:
 2940              	.LFB62:
 427:Source\LwIP\src\core/tcp.c ****   if (pcb->state == LISTEN) {
 2941              		.loc 1 427 0
 2942              		.cfi_startproc
 2943              		@ args = 0, pretend = 0, frame = 0
 2944              		@ frame_needed = 0, uses_anonymous_args = 0
 2945              	.LVL300:
 2946 0000 70B5     		push	{r4, r5, r6, lr}
 2947              		.cfi_def_cfa_offset 16
 2948              		.cfi_offset 4, -16
 2949              		.cfi_offset 5, -12
 2950              		.cfi_offset 6, -8
 2951              		.cfi_offset 14, -4
 2952 0002 0400     		movs	r4, r0
 2953 0004 0D00     		movs	r5, r1
 2954 0006 1600     		movs	r6, r2
 428:Source\LwIP\src\core/tcp.c ****     return ERR_CONN;
 2955              		.loc 1 428 0
 2956 0008 037D     		ldrb	r3, [r0, #20]
 2957 000a 012B     		cmp	r3, #1
 2958 000c 20D0     		beq	.L256
 431:Source\LwIP\src\core/tcp.c ****     /* shut down the receive side: set a flag not to receive any more data... */
ARM GAS  C:\Users\Phuong\AppData\Local\Temp\cczg95Bp.s 			page 93


 2959              		.loc 1 431 0
 2960 000e 0029     		cmp	r1, #0
 2961 0010 10D0     		beq	.L253
 433:Source\LwIP\src\core/tcp.c ****     if (shut_tx) {
 2962              		.loc 1 433 0
 2963 0012 428B     		ldrh	r2, [r0, #26]
 2964              	.LVL301:
 2965 0014 1023     		movs	r3, #16
 2966 0016 1343     		orrs	r3, r2
 2967 0018 4383     		strh	r3, [r0, #26]
 434:Source\LwIP\src\core/tcp.c ****       /* shutting down the tx AND rx side is the same as closing for the raw API */
 2968              		.loc 1 434 0
 2969 001a 002E     		cmp	r6, #0
 2970 001c 03D0     		beq	.L254
 436:Source\LwIP\src\core/tcp.c ****     }
 2971              		.loc 1 436 0
 2972 001e 0121     		movs	r1, #1
 2973              	.LVL302:
 2974 0020 FFF7FEFF 		bl	tcp_close_shutdown
 2975              	.LVL303:
 2976 0024 1BE0     		b	.L252
 2977              	.LVL304:
 2978              	.L254:
 439:Source\LwIP\src\core/tcp.c ****       pbuf_free(pcb->refused_data);
 2979              		.loc 1 439 0
 2980 0026 406F     		ldr	r0, [r0, #116]
 2981              	.LVL305:
 2982 0028 0028     		cmp	r0, #0
 2983 002a 03D0     		beq	.L253
 440:Source\LwIP\src\core/tcp.c ****       pcb->refused_data = NULL;
 2984              		.loc 1 440 0
 2985 002c FFF7FEFF 		bl	pbuf_free
 2986              	.LVL306:
 441:Source\LwIP\src\core/tcp.c ****     }
 2987              		.loc 1 441 0
 2988 0030 0023     		movs	r3, #0
 2989 0032 6367     		str	r3, [r4, #116]
 2990              	.L253:
 444:Source\LwIP\src\core/tcp.c ****     /* This can't happen twice since if it succeeds, the pcb's state is changed.
 2991              		.loc 1 444 0
 2992 0034 002E     		cmp	r6, #0
 2993 0036 0ED0     		beq	.L257
 447:Source\LwIP\src\core/tcp.c ****     case SYN_RCVD:
 2994              		.loc 1 447 0
 2995 0038 237D     		ldrb	r3, [r4, #20]
 2996 003a 032B     		cmp	r3, #3
 2997 003c 0DD3     		bcc	.L258
 2998 003e 042B     		cmp	r3, #4
 2999 0040 01D9     		bls	.L255
 3000 0042 072B     		cmp	r3, #7
 3001 0044 09D1     		bne	.L258
 3002              	.L255:
 451:Source\LwIP\src\core/tcp.c ****     default:
 3003              		.loc 1 451 0
 3004 0046 E9B2     		uxtb	r1, r5
 3005 0048 2000     		movs	r0, r4
 3006 004a FFF7FEFF 		bl	tcp_close_shutdown
ARM GAS  C:\Users\Phuong\AppData\Local\Temp\cczg95Bp.s 			page 94


 3007              	.LVL307:
 3008 004e 06E0     		b	.L252
 3009              	.LVL308:
 3010              	.L256:
 429:Source\LwIP\src\core/tcp.c ****   }
 3011              		.loc 1 429 0
 3012 0050 0B20     		movs	r0, #11
 3013              	.LVL309:
 3014 0052 4042     		rsbs	r0, r0, #0
 3015 0054 03E0     		b	.L252
 3016              	.LVL310:
 3017              	.L257:
 458:Source\LwIP\src\core/tcp.c **** }
 3018              		.loc 1 458 0
 3019 0056 0020     		movs	r0, #0
 3020 0058 01E0     		b	.L252
 3021              	.L258:
 455:Source\LwIP\src\core/tcp.c ****     }
 3022              		.loc 1 455 0
 3023 005a 0B20     		movs	r0, #11
 3024 005c 4042     		rsbs	r0, r0, #0
 3025              	.L252:
 459:Source\LwIP\src\core/tcp.c **** 
 3026              		.loc 1 459 0
 3027              		@ sp needed
 3028              	.LVL311:
 3029              	.LVL312:
 3030              	.LVL313:
 3031 005e 70BD     		pop	{r4, r5, r6, pc}
 3032              		.cfi_endproc
 3033              	.LFE62:
 3034              		.size	tcp_shutdown, .-tcp_shutdown
 3035              		.section	.text.tcp_abandon,"ax",%progbits
 3036              		.align	2
 3037              		.global	tcp_abandon
 3038              		.code	16
 3039              		.thumb_func
 3040              		.type	tcp_abandon, %function
 3041              	tcp_abandon:
 3042              	.LFB63:
 471:Source\LwIP\src\core/tcp.c ****   u32_t seqno, ackno;
 3043              		.loc 1 471 0
 3044              		.cfi_startproc
 3045              		@ args = 0, pretend = 0, frame = 0
 3046              		@ frame_needed = 0, uses_anonymous_args = 0
 3047              	.LVL314:
 3048 0000 F0B5     		push	{r4, r5, r6, r7, lr}
 3049              		.cfi_def_cfa_offset 20
 3050              		.cfi_offset 4, -20
 3051              		.cfi_offset 5, -16
 3052              		.cfi_offset 6, -12
 3053              		.cfi_offset 7, -8
 3054              		.cfi_offset 14, -4
 3055 0002 5746     		mov	r7, r10
 3056 0004 4E46     		mov	r6, r9
 3057 0006 4546     		mov	r5, r8
 3058 0008 E0B4     		push	{r5, r6, r7}
ARM GAS  C:\Users\Phuong\AppData\Local\Temp\cczg95Bp.s 			page 95


 3059              		.cfi_def_cfa_offset 32
 3060              		.cfi_offset 8, -32
 3061              		.cfi_offset 9, -28
 3062              		.cfi_offset 10, -24
 3063 000a 82B0     		sub	sp, sp, #8
 3064              		.cfi_def_cfa_offset 40
 3065 000c 0400     		movs	r4, r0
 3066 000e 0F00     		movs	r7, r1
 484:Source\LwIP\src\core/tcp.c ****     tcp_pcb_remove(&tcp_tw_pcbs, pcb);
 3067              		.loc 1 484 0
 3068 0010 037D     		ldrb	r3, [r0, #20]
 3069 0012 0A2B     		cmp	r3, #10
 3070 0014 08D1     		bne	.L260
 485:Source\LwIP\src\core/tcp.c ****     memp_free(MEMP_TCP_PCB, pcb);
 3071              		.loc 1 485 0
 3072 0016 0100     		movs	r1, r0
 3073              	.LVL315:
 3074 0018 3248     		ldr	r0, .L273
 3075              	.LVL316:
 3076 001a FFF7FEFF 		bl	tcp_pcb_remove
 3077              	.LVL317:
 486:Source\LwIP\src\core/tcp.c ****   } else {
 3078              		.loc 1 486 0
 3079 001e 2100     		movs	r1, r4
 3080 0020 0220     		movs	r0, #2
 3081 0022 FFF7FEFF 		bl	memp_free
 3082              	.LVL318:
 3083 0026 56E0     		b	.L259
 3084              	.LVL319:
 3085              	.L260:
 3086              	.LBB16:
 491:Source\LwIP\src\core/tcp.c ****     ackno = pcb->rcv_nxt;
 3087              		.loc 1 491 0
 3088 0028 C26C     		ldr	r2, [r0, #76]
 3089 002a 9146     		mov	r9, r2
 3090              	.LVL320:
 492:Source\LwIP\src\core/tcp.c **** #if LWIP_CALLBACK_API
 3091              		.loc 1 492 0
 3092 002c 426A     		ldr	r2, [r0, #36]
 3093              	.LVL321:
 3094 002e 9046     		mov	r8, r2
 3095              	.LVL322:
 494:Source\LwIP\src\core/tcp.c **** #endif /* LWIP_CALLBACK_API */
 3096              		.loc 1 494 0
 3097 0030 8C22     		movs	r2, #140
 3098              	.LVL323:
 3099 0032 8558     		ldr	r5, [r0, r2]
 3100              	.LVL324:
 496:Source\LwIP\src\core/tcp.c ****     if (pcb->state == CLOSED) {
 3101              		.loc 1 496 0
 3102 0034 0669     		ldr	r6, [r0, #16]
 3103              	.LVL325:
 497:Source\LwIP\src\core/tcp.c ****       if (pcb->local_port != 0) {
 3104              		.loc 1 497 0
 3105 0036 002B     		cmp	r3, #0
 3106 0038 18D1     		bne	.L262
 498:Source\LwIP\src\core/tcp.c ****         /* bound, not yet opened */
ARM GAS  C:\Users\Phuong\AppData\Local\Temp\cczg95Bp.s 			page 96


 3107              		.loc 1 498 0
 3108 003a C38A     		ldrh	r3, [r0, #22]
 3109 003c 002B     		cmp	r3, #0
 3110 003e 1FD0     		beq	.L271
 500:Source\LwIP\src\core/tcp.c ****       }
 3111              		.loc 1 500 0
 3112 0040 294B     		ldr	r3, .L273+4
 3113 0042 1B68     		ldr	r3, [r3]
 3114 0044 9842     		cmp	r0, r3
 3115 0046 0AD1     		bne	.L264
 500:Source\LwIP\src\core/tcp.c ****       }
 3116              		.loc 1 500 0 is_stmt 0 discriminator 1
 3117 0048 DA68     		ldr	r2, [r3, #12]
 3118 004a 274B     		ldr	r3, .L273+4
 3119 004c 1A60     		str	r2, [r3]
 3120 004e 08E0     		b	.L265
 3121              	.LVL326:
 3122              	.L266:
 3123              	.LBB17:
 500:Source\LwIP\src\core/tcp.c ****       }
 3124              		.loc 1 500 0 discriminator 9
 3125 0050 DA68     		ldr	r2, [r3, #12]
 3126 0052 9442     		cmp	r4, r2
 3127 0054 02D1     		bne	.L272
 500:Source\LwIP\src\core/tcp.c ****       }
 3128              		.loc 1 500 0 discriminator 5
 3129 0056 E268     		ldr	r2, [r4, #12]
 3130 0058 DA60     		str	r2, [r3, #12]
 3131 005a 02E0     		b	.L265
 3132              	.L272:
 500:Source\LwIP\src\core/tcp.c ****       }
 3133              		.loc 1 500 0
 3134 005c 1300     		movs	r3, r2
 3135              	.LVL327:
 3136              	.L264:
 500:Source\LwIP\src\core/tcp.c ****       }
 3137              		.loc 1 500 0 discriminator 8
 3138 005e 002B     		cmp	r3, #0
 3139 0060 F6D1     		bne	.L266
 3140              	.LVL328:
 3141              	.L265:
 3142              	.LBE17:
 500:Source\LwIP\src\core/tcp.c ****       }
 3143              		.loc 1 500 0 discriminator 10
 3144 0062 0023     		movs	r3, #0
 3145 0064 E360     		str	r3, [r4, #12]
 489:Source\LwIP\src\core/tcp.c ****     enum tcp_state last_state;
 3146              		.loc 1 489 0 is_stmt 1 discriminator 10
 3147 0066 9A46     		mov	r10, r3
 488:Source\LwIP\src\core/tcp.c ****     u16_t local_port = 0;
 3148              		.loc 1 488 0 discriminator 10
 3149 0068 0027     		movs	r7, #0
 3150 006a 0CE0     		b	.L263
 3151              	.L262:
 3152              	.LVL329:
 504:Source\LwIP\src\core/tcp.c ****       TCP_PCB_REMOVE_ACTIVE(pcb);
 3153              		.loc 1 504 0
ARM GAS  C:\Users\Phuong\AppData\Local\Temp\cczg95Bp.s 			page 97


 3154 006c C38A     		ldrh	r3, [r0, #22]
 3155 006e 9A46     		mov	r10, r3
 3156              	.LVL330:
 505:Source\LwIP\src\core/tcp.c ****     }
 3157              		.loc 1 505 0
 3158 0070 0100     		movs	r1, r0
 3159              	.LVL331:
 3160 0072 1E48     		ldr	r0, .L273+8
 3161              	.LVL332:
 3162 0074 FFF7FEFF 		bl	tcp_pcb_remove
 3163              	.LVL333:
 3164 0078 0122     		movs	r2, #1
 3165 007a 1D4B     		ldr	r3, .L273+12
 3166 007c 1A70     		strb	r2, [r3]
 3167 007e 02E0     		b	.L263
 3168              	.LVL334:
 3169              	.L271:
 489:Source\LwIP\src\core/tcp.c ****     enum tcp_state last_state;
 3170              		.loc 1 489 0
 3171 0080 0023     		movs	r3, #0
 3172 0082 9A46     		mov	r10, r3
 488:Source\LwIP\src\core/tcp.c ****     u16_t local_port = 0;
 3173              		.loc 1 488 0
 3174 0084 0027     		movs	r7, #0
 3175              	.LVL335:
 3176              	.L263:
 507:Source\LwIP\src\core/tcp.c ****       tcp_segs_free(pcb->unacked);
 3177              		.loc 1 507 0
 3178 0086 E06E     		ldr	r0, [r4, #108]
 3179 0088 0028     		cmp	r0, #0
 3180 008a 01D0     		beq	.L267
 508:Source\LwIP\src\core/tcp.c ****     }
 3181              		.loc 1 508 0
 3182 008c FFF7FEFF 		bl	tcp_segs_free
 3183              	.LVL336:
 3184              	.L267:
 510:Source\LwIP\src\core/tcp.c ****       tcp_segs_free(pcb->unsent);
 3185              		.loc 1 510 0
 3186 0090 A06E     		ldr	r0, [r4, #104]
 3187 0092 0028     		cmp	r0, #0
 3188 0094 01D0     		beq	.L268
 511:Source\LwIP\src\core/tcp.c ****     }
 3189              		.loc 1 511 0
 3190 0096 FFF7FEFF 		bl	tcp_segs_free
 3191              	.LVL337:
 3192              	.L268:
 514:Source\LwIP\src\core/tcp.c ****       tcp_segs_free(pcb->ooseq);
 3193              		.loc 1 514 0
 3194 009a 206F     		ldr	r0, [r4, #112]
 3195 009c 0028     		cmp	r0, #0
 3196 009e 01D0     		beq	.L269
 515:Source\LwIP\src\core/tcp.c ****     }
 3197              		.loc 1 515 0
 3198 00a0 FFF7FEFF 		bl	tcp_segs_free
 3199              	.LVL338:
 3200              	.L269:
 518:Source\LwIP\src\core/tcp.c ****     if (send_rst) {
ARM GAS  C:\Users\Phuong\AppData\Local\Temp\cczg95Bp.s 			page 98


 3201              		.loc 1 518 0
 3202 00a4 2000     		movs	r0, r4
 3203 00a6 FFF7FEFF 		bl	tcp_backlog_accepted
 3204              	.LVL339:
 519:Source\LwIP\src\core/tcp.c ****       LWIP_DEBUGF(TCP_RST_DEBUG, ("tcp_abandon: sending RST\n"));
 3205              		.loc 1 519 0
 3206 00aa 002F     		cmp	r7, #0
 3207 00ac 09D0     		beq	.L270
 521:Source\LwIP\src\core/tcp.c ****     }
 3208              		.loc 1 521 0
 3209 00ae 231D     		adds	r3, r4, #4
 3210 00b0 228B     		ldrh	r2, [r4, #24]
 3211 00b2 0192     		str	r2, [sp, #4]
 3212 00b4 5246     		mov	r2, r10
 3213 00b6 0092     		str	r2, [sp]
 3214 00b8 2200     		movs	r2, r4
 3215 00ba 4146     		mov	r1, r8
 3216 00bc 4846     		mov	r0, r9
 3217 00be FFF7FEFF 		bl	tcp_rst
 3218              	.LVL340:
 3219              	.L270:
 524:Source\LwIP\src\core/tcp.c ****     TCP_EVENT_ERR(last_state, errf, errf_arg, ERR_ABRT);
 3220              		.loc 1 524 0
 3221 00c2 2100     		movs	r1, r4
 3222 00c4 0220     		movs	r0, #2
 3223 00c6 FFF7FEFF 		bl	memp_free
 3224              	.LVL341:
 525:Source\LwIP\src\core/tcp.c ****   }
 3225              		.loc 1 525 0
 3226 00ca 002D     		cmp	r5, #0
 3227 00cc 03D0     		beq	.L259
 525:Source\LwIP\src\core/tcp.c ****   }
 3228              		.loc 1 525 0 is_stmt 0 discriminator 1
 3229 00ce 0D21     		movs	r1, #13
 3230 00d0 4942     		rsbs	r1, r1, #0
 3231 00d2 3000     		movs	r0, r6
 3232 00d4 A847     		blx	r5
 3233              	.LVL342:
 3234              	.L259:
 3235              	.LBE16:
 527:Source\LwIP\src\core/tcp.c **** 
 3236              		.loc 1 527 0 is_stmt 1
 3237 00d6 02B0     		add	sp, sp, #8
 3238              		@ sp needed
 3239              	.LVL343:
 3240 00d8 1CBC     		pop	{r2, r3, r4}
 3241 00da 9046     		mov	r8, r2
 3242 00dc 9946     		mov	r9, r3
 3243 00de A246     		mov	r10, r4
 3244 00e0 F0BD     		pop	{r4, r5, r6, r7, pc}
 3245              	.L274:
 3246 00e2 C046     		.align	2
 3247              	.L273:
 3248 00e4 00000000 		.word	tcp_tw_pcbs
 3249 00e8 00000000 		.word	tcp_bound_pcbs
 3250 00ec 00000000 		.word	tcp_active_pcbs
 3251 00f0 00000000 		.word	tcp_active_pcbs_changed
ARM GAS  C:\Users\Phuong\AppData\Local\Temp\cczg95Bp.s 			page 99


 3252              		.cfi_endproc
 3253              	.LFE63:
 3254              		.size	tcp_abandon, .-tcp_abandon
 3255              		.section	.text.tcp_abort,"ax",%progbits
 3256              		.align	2
 3257              		.global	tcp_abort
 3258              		.code	16
 3259              		.thumb_func
 3260              		.type	tcp_abort, %function
 3261              	tcp_abort:
 3262              	.LFB64:
 542:Source\LwIP\src\core/tcp.c ****   tcp_abandon(pcb, 1);
 3263              		.loc 1 542 0
 3264              		.cfi_startproc
 3265              		@ args = 0, pretend = 0, frame = 0
 3266              		@ frame_needed = 0, uses_anonymous_args = 0
 3267              	.LVL344:
 3268 0000 10B5     		push	{r4, lr}
 3269              		.cfi_def_cfa_offset 8
 3270              		.cfi_offset 4, -8
 3271              		.cfi_offset 14, -4
 543:Source\LwIP\src\core/tcp.c **** }
 3272              		.loc 1 543 0
 3273 0002 0121     		movs	r1, #1
 3274 0004 FFF7FEFF 		bl	tcp_abandon
 3275              	.LVL345:
 544:Source\LwIP\src\core/tcp.c **** 
 3276              		.loc 1 544 0
 3277              		@ sp needed
 3278 0008 10BD     		pop	{r4, pc}
 3279              		.cfi_endproc
 3280              	.LFE64:
 3281              		.size	tcp_abort, .-tcp_abort
 3282 000a C046     		.section	.text.tcp_accept_null,"ax",%progbits
 3283              		.align	2
 3284              		.code	16
 3285              		.thumb_func
 3286              		.type	tcp_accept_null, %function
 3287              	tcp_accept_null:
 3288              	.LFB66:
 638:Source\LwIP\src\core/tcp.c ****   LWIP_UNUSED_ARG(arg);
 3289              		.loc 1 638 0
 3290              		.cfi_startproc
 3291              		@ args = 0, pretend = 0, frame = 0
 3292              		@ frame_needed = 0, uses_anonymous_args = 0
 3293              	.LVL346:
 3294 0000 10B5     		push	{r4, lr}
 3295              		.cfi_def_cfa_offset 8
 3296              		.cfi_offset 4, -8
 3297              		.cfi_offset 14, -4
 642:Source\LwIP\src\core/tcp.c **** 
 3298              		.loc 1 642 0
 3299 0002 0800     		movs	r0, r1
 3300              	.LVL347:
 3301 0004 FFF7FEFF 		bl	tcp_abort
 3302              	.LVL348:
 645:Source\LwIP\src\core/tcp.c **** #endif /* LWIP_CALLBACK_API */
ARM GAS  C:\Users\Phuong\AppData\Local\Temp\cczg95Bp.s 			page 100


 3303              		.loc 1 645 0
 3304 0008 0D20     		movs	r0, #13
 3305 000a 4042     		rsbs	r0, r0, #0
 3306              		@ sp needed
 3307 000c 10BD     		pop	{r4, pc}
 3308              		.cfi_endproc
 3309              	.LFE66:
 3310              		.size	tcp_accept_null, .-tcp_accept_null
 3311 000e C046     		.section	.text.tcp_kill_timewait,"ax",%progbits
 3312              		.align	2
 3313              		.code	16
 3314              		.thumb_func
 3315              		.type	tcp_kill_timewait, %function
 3316              	tcp_kill_timewait:
 3317              	.LFB84:
1528:Source\LwIP\src\core/tcp.c ****   struct tcp_pcb *pcb, *inactive;
 3318              		.loc 1 1528 0
 3319              		.cfi_startproc
 3320              		@ args = 0, pretend = 0, frame = 0
 3321              		@ frame_needed = 0, uses_anonymous_args = 0
 3322 0000 10B5     		push	{r4, lr}
 3323              		.cfi_def_cfa_offset 8
 3324              		.cfi_offset 4, -8
 3325              		.cfi_offset 14, -4
 3326              	.LVL349:
1535:Source\LwIP\src\core/tcp.c ****     if ((u32_t)(tcp_ticks - pcb->tmr) >= inactivity) {
 3327              		.loc 1 1535 0
 3328 0002 0A4B     		ldr	r3, .L283
 3329 0004 1B68     		ldr	r3, [r3]
 3330              	.LVL350:
1532:Source\LwIP\src\core/tcp.c ****   inactive = NULL;
 3331              		.loc 1 1532 0
 3332 0006 0021     		movs	r1, #0
1533:Source\LwIP\src\core/tcp.c ****   /* Go through the list of TIME_WAIT pcbs and get the oldest pcb. */
 3333              		.loc 1 1533 0
 3334 0008 0020     		movs	r0, #0
1535:Source\LwIP\src\core/tcp.c ****     if ((u32_t)(tcp_ticks - pcb->tmr) >= inactivity) {
 3335              		.loc 1 1535 0
 3336 000a 08E0     		b	.L278
 3337              	.LVL351:
 3338              	.L280:
1536:Source\LwIP\src\core/tcp.c ****       inactivity = tcp_ticks - pcb->tmr;
 3339              		.loc 1 1536 0
 3340 000c 084A     		ldr	r2, .L283+4
 3341 000e 1268     		ldr	r2, [r2]
 3342 0010 1C6A     		ldr	r4, [r3, #32]
 3343 0012 121B     		subs	r2, r2, r4
 3344 0014 9142     		cmp	r1, r2
 3345 0016 01D8     		bhi	.L279
1537:Source\LwIP\src\core/tcp.c ****       inactive = pcb;
 3346              		.loc 1 1537 0
 3347 0018 1100     		movs	r1, r2
 3348              	.LVL352:
1538:Source\LwIP\src\core/tcp.c ****     }
 3349              		.loc 1 1538 0
 3350 001a 1800     		movs	r0, r3
 3351              	.LVL353:
ARM GAS  C:\Users\Phuong\AppData\Local\Temp\cczg95Bp.s 			page 101


 3352              	.L279:
1535:Source\LwIP\src\core/tcp.c ****     if ((u32_t)(tcp_ticks - pcb->tmr) >= inactivity) {
 3353              		.loc 1 1535 0 discriminator 2
 3354 001c DB68     		ldr	r3, [r3, #12]
 3355              	.LVL354:
 3356              	.L278:
1535:Source\LwIP\src\core/tcp.c ****     if ((u32_t)(tcp_ticks - pcb->tmr) >= inactivity) {
 3357              		.loc 1 1535 0 is_stmt 0 discriminator 1
 3358 001e 002B     		cmp	r3, #0
 3359 0020 F4D1     		bne	.L280
1541:Source\LwIP\src\core/tcp.c ****     LWIP_DEBUGF(TCP_DEBUG, ("tcp_kill_timewait: killing oldest TIME-WAIT PCB %p (%"S32_F")\n",
 3360              		.loc 1 1541 0 is_stmt 1
 3361 0022 0028     		cmp	r0, #0
 3362 0024 01D0     		beq	.L277
1544:Source\LwIP\src\core/tcp.c ****   }
 3363              		.loc 1 1544 0
 3364 0026 FFF7FEFF 		bl	tcp_abort
 3365              	.LVL355:
 3366              	.L277:
1546:Source\LwIP\src\core/tcp.c **** 
 3367              		.loc 1 1546 0
 3368              		@ sp needed
 3369 002a 10BD     		pop	{r4, pc}
 3370              	.L284:
 3371              		.align	2
 3372              	.L283:
 3373 002c 00000000 		.word	tcp_tw_pcbs
 3374 0030 00000000 		.word	tcp_ticks
 3375              		.cfi_endproc
 3376              	.LFE84:
 3377              		.size	tcp_kill_timewait, .-tcp_kill_timewait
 3378              		.section	.text.tcp_kill_prio,"ax",%progbits
 3379              		.align	2
 3380              		.code	16
 3381              		.thumb_func
 3382              		.type	tcp_kill_prio, %function
 3383              	tcp_kill_prio:
 3384              	.LFB82:
1465:Source\LwIP\src\core/tcp.c ****   struct tcp_pcb *pcb, *inactive;
 3385              		.loc 1 1465 0
 3386              		.cfi_startproc
 3387              		@ args = 0, pretend = 0, frame = 0
 3388              		@ frame_needed = 0, uses_anonymous_args = 0
 3389              	.LVL356:
 3390 0000 70B5     		push	{r4, r5, r6, lr}
 3391              		.cfi_def_cfa_offset 16
 3392              		.cfi_offset 4, -16
 3393              		.cfi_offset 5, -12
 3394              		.cfi_offset 6, -8
 3395              		.cfi_offset 14, -4
 3396 0002 0200     		movs	r2, r0
1470:Source\LwIP\src\core/tcp.c **** 
 3397              		.loc 1 1470 0
 3398 0004 43B2     		sxtb	r3, r0
 3399 0006 002B     		cmp	r3, #0
 3400 0008 00DA     		bge	.L286
 3401 000a 7F22     		movs	r2, #127
ARM GAS  C:\Users\Phuong\AppData\Local\Temp\cczg95Bp.s 			page 102


 3402              	.L286:
 3403              	.LVL357:
1475:Source\LwIP\src\core/tcp.c ****     if (pcb->prio <= mprio &&
 3404              		.loc 1 1475 0 discriminator 4
 3405 000c 0C4B     		ldr	r3, .L292
 3406 000e 1B68     		ldr	r3, [r3]
 3407              	.LVL358:
1473:Source\LwIP\src\core/tcp.c ****   inactive = NULL;
 3408              		.loc 1 1473 0 discriminator 4
 3409 0010 0024     		movs	r4, #0
1474:Source\LwIP\src\core/tcp.c ****   for (pcb = tcp_active_pcbs; pcb != NULL; pcb = pcb->next) {
 3410              		.loc 1 1474 0 discriminator 4
 3411 0012 2000     		movs	r0, r4
 3412              	.LVL359:
1475:Source\LwIP\src\core/tcp.c ****     if (pcb->prio <= mprio &&
 3413              		.loc 1 1475 0 discriminator 4
 3414 0014 0CE0     		b	.L287
 3415              	.LVL360:
 3416              	.L289:
1476:Source\LwIP\src\core/tcp.c ****        (u32_t)(tcp_ticks - pcb->tmr) >= inactivity) {
 3417              		.loc 1 1476 0
 3418 0016 5D7D     		ldrb	r5, [r3, #21]
 3419 0018 AA42     		cmp	r2, r5
 3420 001a 08D3     		bcc	.L288
1477:Source\LwIP\src\core/tcp.c ****       inactivity = tcp_ticks - pcb->tmr;
 3421              		.loc 1 1477 0 discriminator 1
 3422 001c 0949     		ldr	r1, .L292+4
 3423 001e 0968     		ldr	r1, [r1]
 3424 0020 1E6A     		ldr	r6, [r3, #32]
 3425 0022 891B     		subs	r1, r1, r6
1476:Source\LwIP\src\core/tcp.c ****        (u32_t)(tcp_ticks - pcb->tmr) >= inactivity) {
 3426              		.loc 1 1476 0 discriminator 1
 3427 0024 8C42     		cmp	r4, r1
 3428 0026 02D8     		bhi	.L288
1480:Source\LwIP\src\core/tcp.c ****     }
 3429              		.loc 1 1480 0
 3430 0028 2A00     		movs	r2, r5
 3431              	.LVL361:
1478:Source\LwIP\src\core/tcp.c ****       inactive = pcb;
 3432              		.loc 1 1478 0
 3433 002a 0C00     		movs	r4, r1
 3434              	.LVL362:
1479:Source\LwIP\src\core/tcp.c ****       mprio = pcb->prio;
 3435              		.loc 1 1479 0
 3436 002c 1800     		movs	r0, r3
 3437              	.LVL363:
 3438              	.L288:
1475:Source\LwIP\src\core/tcp.c ****     if (pcb->prio <= mprio &&
 3439              		.loc 1 1475 0 discriminator 2
 3440 002e DB68     		ldr	r3, [r3, #12]
 3441              	.LVL364:
 3442              	.L287:
1475:Source\LwIP\src\core/tcp.c ****     if (pcb->prio <= mprio &&
 3443              		.loc 1 1475 0 is_stmt 0 discriminator 1
 3444 0030 002B     		cmp	r3, #0
 3445 0032 F0D1     		bne	.L289
1483:Source\LwIP\src\core/tcp.c ****     LWIP_DEBUGF(TCP_DEBUG, ("tcp_kill_prio: killing oldest PCB %p (%"S32_F")\n",
ARM GAS  C:\Users\Phuong\AppData\Local\Temp\cczg95Bp.s 			page 103


 3446              		.loc 1 1483 0 is_stmt 1
 3447 0034 0028     		cmp	r0, #0
 3448 0036 01D0     		beq	.L285
1486:Source\LwIP\src\core/tcp.c ****   }
 3449              		.loc 1 1486 0
 3450 0038 FFF7FEFF 		bl	tcp_abort
 3451              	.LVL365:
 3452              	.L285:
1488:Source\LwIP\src\core/tcp.c **** 
 3453              		.loc 1 1488 0
 3454              		@ sp needed
 3455              	.LVL366:
 3456 003c 70BD     		pop	{r4, r5, r6, pc}
 3457              	.L293:
 3458 003e C046     		.align	2
 3459              	.L292:
 3460 0040 00000000 		.word	tcp_active_pcbs
 3461 0044 00000000 		.word	tcp_ticks
 3462              		.cfi_endproc
 3463              	.LFE82:
 3464              		.size	tcp_kill_prio, .-tcp_kill_prio
 3465              		.section	.text.tcp_netif_ip_addr_changed_pcblist,"ax",%progbits
 3466              		.align	2
 3467              		.code	16
 3468              		.thumb_func
 3469              		.type	tcp_netif_ip_addr_changed_pcblist, %function
 3470              	tcp_netif_ip_addr_changed_pcblist:
 3471              	.LFB98:
1888:Source\LwIP\src\core/tcp.c **** 
1889:Source\LwIP\src\core/tcp.c **** /**
1890:Source\LwIP\src\core/tcp.c ****  * Calculates a new initial sequence number for new connections.
1891:Source\LwIP\src\core/tcp.c ****  *
1892:Source\LwIP\src\core/tcp.c ****  * @return u32_t pseudo random sequence number
1893:Source\LwIP\src\core/tcp.c ****  */
1894:Source\LwIP\src\core/tcp.c **** u32_t
1895:Source\LwIP\src\core/tcp.c **** tcp_next_iss(struct tcp_pcb *pcb)
1896:Source\LwIP\src\core/tcp.c **** {
1897:Source\LwIP\src\core/tcp.c **** #ifdef LWIP_HOOK_TCP_ISN
1898:Source\LwIP\src\core/tcp.c ****   return LWIP_HOOK_TCP_ISN(&pcb->local_ip, pcb->local_port, &pcb->remote_ip, pcb->remote_port);
1899:Source\LwIP\src\core/tcp.c **** #else /* LWIP_HOOK_TCP_ISN */
1900:Source\LwIP\src\core/tcp.c ****   static u32_t iss = 6510;
1901:Source\LwIP\src\core/tcp.c **** 
1902:Source\LwIP\src\core/tcp.c ****   LWIP_UNUSED_ARG(pcb);
1903:Source\LwIP\src\core/tcp.c **** 
1904:Source\LwIP\src\core/tcp.c ****   iss += tcp_ticks;       /* XXX */
1905:Source\LwIP\src\core/tcp.c ****   return iss;
1906:Source\LwIP\src\core/tcp.c **** #endif /* LWIP_HOOK_TCP_ISN */
1907:Source\LwIP\src\core/tcp.c **** }
1908:Source\LwIP\src\core/tcp.c **** 
1909:Source\LwIP\src\core/tcp.c **** #if TCP_CALCULATE_EFF_SEND_MSS
1910:Source\LwIP\src\core/tcp.c **** /**
1911:Source\LwIP\src\core/tcp.c ****  * Calculates the effective send mss that can be used for a specific IP address
1912:Source\LwIP\src\core/tcp.c ****  * by using ip_route to determine the netif used to send to the address and
1913:Source\LwIP\src\core/tcp.c ****  * calculating the minimum of TCP_MSS and that netif's mtu (if set).
1914:Source\LwIP\src\core/tcp.c ****  */
1915:Source\LwIP\src\core/tcp.c **** u16_t
1916:Source\LwIP\src\core/tcp.c **** tcp_eff_send_mss_impl(u16_t sendmss, const ip_addr_t *dest
ARM GAS  C:\Users\Phuong\AppData\Local\Temp\cczg95Bp.s 			page 104


1917:Source\LwIP\src\core/tcp.c **** #if LWIP_IPV6 || LWIP_IPV4_SRC_ROUTING
1918:Source\LwIP\src\core/tcp.c ****                      , const ip_addr_t *src
1919:Source\LwIP\src\core/tcp.c **** #endif /* LWIP_IPV6 || LWIP_IPV4_SRC_ROUTING */
1920:Source\LwIP\src\core/tcp.c ****                      )
1921:Source\LwIP\src\core/tcp.c **** {
1922:Source\LwIP\src\core/tcp.c ****   u16_t mss_s;
1923:Source\LwIP\src\core/tcp.c ****   struct netif *outif;
1924:Source\LwIP\src\core/tcp.c ****   s16_t mtu;
1925:Source\LwIP\src\core/tcp.c **** 
1926:Source\LwIP\src\core/tcp.c ****   outif = ip_route(src, dest);
1927:Source\LwIP\src\core/tcp.c **** #if LWIP_IPV6
1928:Source\LwIP\src\core/tcp.c **** #if LWIP_IPV4
1929:Source\LwIP\src\core/tcp.c ****   if (IP_IS_V6(dest))
1930:Source\LwIP\src\core/tcp.c **** #endif /* LWIP_IPV4 */
1931:Source\LwIP\src\core/tcp.c ****   {
1932:Source\LwIP\src\core/tcp.c ****     /* First look in destination cache, to see if there is a Path MTU. */
1933:Source\LwIP\src\core/tcp.c ****     mtu = nd6_get_destination_mtu(ip_2_ip6(dest), outif);
1934:Source\LwIP\src\core/tcp.c ****   }
1935:Source\LwIP\src\core/tcp.c **** #if LWIP_IPV4
1936:Source\LwIP\src\core/tcp.c ****   else
1937:Source\LwIP\src\core/tcp.c **** #endif /* LWIP_IPV4 */
1938:Source\LwIP\src\core/tcp.c **** #endif /* LWIP_IPV6 */
1939:Source\LwIP\src\core/tcp.c **** #if LWIP_IPV4
1940:Source\LwIP\src\core/tcp.c ****   {
1941:Source\LwIP\src\core/tcp.c ****     if (outif == NULL) {
1942:Source\LwIP\src\core/tcp.c ****       return sendmss;
1943:Source\LwIP\src\core/tcp.c ****     }
1944:Source\LwIP\src\core/tcp.c ****     mtu = outif->mtu;
1945:Source\LwIP\src\core/tcp.c ****   }
1946:Source\LwIP\src\core/tcp.c **** #endif /* LWIP_IPV4 */
1947:Source\LwIP\src\core/tcp.c **** 
1948:Source\LwIP\src\core/tcp.c ****   if (mtu != 0) {
1949:Source\LwIP\src\core/tcp.c **** #if LWIP_IPV6
1950:Source\LwIP\src\core/tcp.c **** #if LWIP_IPV4
1951:Source\LwIP\src\core/tcp.c ****     if (IP_IS_V6(dest))
1952:Source\LwIP\src\core/tcp.c **** #endif /* LWIP_IPV4 */
1953:Source\LwIP\src\core/tcp.c ****     {
1954:Source\LwIP\src\core/tcp.c ****       mss_s = mtu - IP6_HLEN - TCP_HLEN;
1955:Source\LwIP\src\core/tcp.c ****     }
1956:Source\LwIP\src\core/tcp.c **** #if LWIP_IPV4
1957:Source\LwIP\src\core/tcp.c ****     else
1958:Source\LwIP\src\core/tcp.c **** #endif /* LWIP_IPV4 */
1959:Source\LwIP\src\core/tcp.c **** #endif /* LWIP_IPV6 */
1960:Source\LwIP\src\core/tcp.c **** #if LWIP_IPV4
1961:Source\LwIP\src\core/tcp.c ****     {
1962:Source\LwIP\src\core/tcp.c ****       mss_s = mtu - IP_HLEN - TCP_HLEN;
1963:Source\LwIP\src\core/tcp.c ****     }
1964:Source\LwIP\src\core/tcp.c **** #endif /* LWIP_IPV4 */
1965:Source\LwIP\src\core/tcp.c ****     /* RFC 1122, chap 4.2.2.6:
1966:Source\LwIP\src\core/tcp.c ****      * Eff.snd.MSS = min(SendMSS+20, MMS_S) - TCPhdrsize - IPoptionsize
1967:Source\LwIP\src\core/tcp.c ****      * We correct for TCP options in tcp_write(), and don't support IP options.
1968:Source\LwIP\src\core/tcp.c ****      */
1969:Source\LwIP\src\core/tcp.c ****     sendmss = LWIP_MIN(sendmss, mss_s);
1970:Source\LwIP\src\core/tcp.c ****   }
1971:Source\LwIP\src\core/tcp.c ****   return sendmss;
1972:Source\LwIP\src\core/tcp.c **** }
1973:Source\LwIP\src\core/tcp.c **** #endif /* TCP_CALCULATE_EFF_SEND_MSS */
ARM GAS  C:\Users\Phuong\AppData\Local\Temp\cczg95Bp.s 			page 105


1974:Source\LwIP\src\core/tcp.c **** 
1975:Source\LwIP\src\core/tcp.c **** /** Helper function for tcp_netif_ip_addr_changed() that iterates a pcb list */
1976:Source\LwIP\src\core/tcp.c **** static void
1977:Source\LwIP\src\core/tcp.c **** tcp_netif_ip_addr_changed_pcblist(const ip_addr_t* old_addr, struct tcp_pcb* pcb_list)
1978:Source\LwIP\src\core/tcp.c **** {
 3472              		.loc 1 1978 0
 3473              		.cfi_startproc
 3474              		@ args = 0, pretend = 0, frame = 0
 3475              		@ frame_needed = 0, uses_anonymous_args = 0
 3476              	.LVL367:
 3477 0000 70B5     		push	{r4, r5, r6, lr}
 3478              		.cfi_def_cfa_offset 16
 3479              		.cfi_offset 4, -16
 3480              		.cfi_offset 5, -12
 3481              		.cfi_offset 6, -8
 3482              		.cfi_offset 14, -4
 3483 0002 0400     		movs	r4, r0
 3484 0004 0800     		movs	r0, r1
 3485              	.LVL368:
1979:Source\LwIP\src\core/tcp.c ****   struct tcp_pcb *pcb;
1980:Source\LwIP\src\core/tcp.c ****   pcb = pcb_list;
1981:Source\LwIP\src\core/tcp.c ****   while (pcb != NULL) {
 3486              		.loc 1 1981 0
 3487 0006 09E0     		b	.L295
 3488              	.LVL369:
 3489              	.L298:
1982:Source\LwIP\src\core/tcp.c ****     /* PCB bound to current local interface address? */
1983:Source\LwIP\src\core/tcp.c ****     if (ip_addr_cmp(&pcb->local_ip, old_addr)
 3490              		.loc 1 1983 0
 3491 0008 0368     		ldr	r3, [r0]
 3492 000a 2268     		ldr	r2, [r4]
 3493 000c 9342     		cmp	r3, r2
 3494 000e 04D1     		bne	.L296
 3495              	.LBB18:
1984:Source\LwIP\src\core/tcp.c **** #if LWIP_AUTOIP
1985:Source\LwIP\src\core/tcp.c ****       /* connections to link-local addresses must persist (RFC3927 ch. 1.9) */
1986:Source\LwIP\src\core/tcp.c ****       && (!IP_IS_V4_VAL(pcb->local_ip) || !ip4_addr_islinklocal(ip_2_ip4(&pcb->local_ip)))
1987:Source\LwIP\src\core/tcp.c **** #endif /* LWIP_AUTOIP */
1988:Source\LwIP\src\core/tcp.c ****       ) {
1989:Source\LwIP\src\core/tcp.c ****       /* this connection must be aborted */
1990:Source\LwIP\src\core/tcp.c ****       struct tcp_pcb *next = pcb->next;
 3496              		.loc 1 1990 0
 3497 0010 C568     		ldr	r5, [r0, #12]
 3498              	.LVL370:
1991:Source\LwIP\src\core/tcp.c ****       LWIP_DEBUGF(NETIF_DEBUG | LWIP_DBG_STATE, ("netif_set_ipaddr: aborting TCP pcb %p\n", (void *
1992:Source\LwIP\src\core/tcp.c ****       tcp_abort(pcb);
 3499              		.loc 1 1992 0
 3500 0012 FFF7FEFF 		bl	tcp_abort
 3501              	.LVL371:
1993:Source\LwIP\src\core/tcp.c ****       pcb = next;
 3502              		.loc 1 1993 0
 3503 0016 2800     		movs	r0, r5
 3504              	.LBE18:
 3505 0018 00E0     		b	.L295
 3506              	.LVL372:
 3507              	.L296:
1994:Source\LwIP\src\core/tcp.c ****     } else {
ARM GAS  C:\Users\Phuong\AppData\Local\Temp\cczg95Bp.s 			page 106


1995:Source\LwIP\src\core/tcp.c ****       pcb = pcb->next;
 3508              		.loc 1 1995 0
 3509 001a C068     		ldr	r0, [r0, #12]
 3510              	.LVL373:
 3511              	.L295:
1981:Source\LwIP\src\core/tcp.c ****     /* PCB bound to current local interface address? */
 3512              		.loc 1 1981 0
 3513 001c 0028     		cmp	r0, #0
 3514 001e F3D1     		bne	.L298
1996:Source\LwIP\src\core/tcp.c ****     }
1997:Source\LwIP\src\core/tcp.c ****   }
1998:Source\LwIP\src\core/tcp.c **** }
 3515              		.loc 1 1998 0
 3516              		@ sp needed
 3517              	.LVL374:
 3518 0020 70BD     		pop	{r4, r5, r6, pc}
 3519              		.cfi_endproc
 3520              	.LFE98:
 3521              		.size	tcp_netif_ip_addr_changed_pcblist, .-tcp_netif_ip_addr_changed_pcblist
 3522 0022 C046     		.section	.text.tcp_kill_state,"ax",%progbits
 3523              		.align	2
 3524              		.code	16
 3525              		.thumb_func
 3526              		.type	tcp_kill_state, %function
 3527              	tcp_kill_state:
 3528              	.LFB83:
1496:Source\LwIP\src\core/tcp.c ****   struct tcp_pcb *pcb, *inactive;
 3529              		.loc 1 1496 0
 3530              		.cfi_startproc
 3531              		@ args = 0, pretend = 0, frame = 0
 3532              		@ frame_needed = 0, uses_anonymous_args = 0
 3533              	.LVL375:
 3534 0000 70B5     		push	{r4, r5, r6, lr}
 3535              		.cfi_def_cfa_offset 16
 3536              		.cfi_offset 4, -16
 3537              		.cfi_offset 5, -12
 3538              		.cfi_offset 6, -8
 3539              		.cfi_offset 14, -4
 3540              	.LVL376:
1506:Source\LwIP\src\core/tcp.c ****     if (pcb->state == state) {
 3541              		.loc 1 1506 0
 3542 0002 0D4B     		ldr	r3, .L305
 3543 0004 1B68     		ldr	r3, [r3]
 3544              	.LVL377:
1502:Source\LwIP\src\core/tcp.c ****   inactive = NULL;
 3545              		.loc 1 1502 0
 3546 0006 0021     		movs	r1, #0
1503:Source\LwIP\src\core/tcp.c ****   /* Go through the list of active pcbs and get the oldest pcb that is in state
 3547              		.loc 1 1503 0
 3548 0008 0024     		movs	r4, #0
1506:Source\LwIP\src\core/tcp.c ****     if (pcb->state == state) {
 3549              		.loc 1 1506 0
 3550 000a 0BE0     		b	.L300
 3551              	.LVL378:
 3552              	.L302:
1507:Source\LwIP\src\core/tcp.c ****       if ((u32_t)(tcp_ticks - pcb->tmr) >= inactivity) {
 3553              		.loc 1 1507 0
ARM GAS  C:\Users\Phuong\AppData\Local\Temp\cczg95Bp.s 			page 107


 3554 000c 1A7D     		ldrb	r2, [r3, #20]
 3555 000e 9042     		cmp	r0, r2
 3556 0010 07D1     		bne	.L301
1508:Source\LwIP\src\core/tcp.c ****         inactivity = tcp_ticks - pcb->tmr;
 3557              		.loc 1 1508 0
 3558 0012 0A4A     		ldr	r2, .L305+4
 3559 0014 1268     		ldr	r2, [r2]
 3560 0016 1D6A     		ldr	r5, [r3, #32]
 3561 0018 521B     		subs	r2, r2, r5
 3562 001a 9142     		cmp	r1, r2
 3563 001c 01D8     		bhi	.L301
1509:Source\LwIP\src\core/tcp.c ****         inactive = pcb;
 3564              		.loc 1 1509 0
 3565 001e 1100     		movs	r1, r2
 3566              	.LVL379:
1510:Source\LwIP\src\core/tcp.c ****       }
 3567              		.loc 1 1510 0
 3568 0020 1C00     		movs	r4, r3
 3569              	.LVL380:
 3570              	.L301:
1506:Source\LwIP\src\core/tcp.c ****     if (pcb->state == state) {
 3571              		.loc 1 1506 0 discriminator 2
 3572 0022 DB68     		ldr	r3, [r3, #12]
 3573              	.LVL381:
 3574              	.L300:
1506:Source\LwIP\src\core/tcp.c ****     if (pcb->state == state) {
 3575              		.loc 1 1506 0 is_stmt 0 discriminator 1
 3576 0024 002B     		cmp	r3, #0
 3577 0026 F1D1     		bne	.L302
1514:Source\LwIP\src\core/tcp.c ****     LWIP_DEBUGF(TCP_DEBUG, ("tcp_kill_closing: killing oldest %s PCB %p (%"S32_F")\n",
 3578              		.loc 1 1514 0 is_stmt 1
 3579 0028 002C     		cmp	r4, #0
 3580 002a 03D0     		beq	.L299
1518:Source\LwIP\src\core/tcp.c ****   }
 3581              		.loc 1 1518 0
 3582 002c 0021     		movs	r1, #0
 3583              	.LVL382:
 3584 002e 2000     		movs	r0, r4
 3585              	.LVL383:
 3586 0030 FFF7FEFF 		bl	tcp_abandon
 3587              	.LVL384:
 3588              	.L299:
1520:Source\LwIP\src\core/tcp.c **** 
 3589              		.loc 1 1520 0
 3590              		@ sp needed
 3591              	.LVL385:
 3592 0034 70BD     		pop	{r4, r5, r6, pc}
 3593              	.L306:
 3594 0036 C046     		.align	2
 3595              	.L305:
 3596 0038 00000000 		.word	tcp_active_pcbs
 3597 003c 00000000 		.word	tcp_ticks
 3598              		.cfi_endproc
 3599              	.LFE83:
 3600              		.size	tcp_kill_state, .-tcp_kill_state
 3601              		.section	.text.tcp_alloc,"ax",%progbits
 3602              		.align	2
ARM GAS  C:\Users\Phuong\AppData\Local\Temp\cczg95Bp.s 			page 108


 3603              		.global	tcp_alloc
 3604              		.code	16
 3605              		.thumb_func
 3606              		.type	tcp_alloc, %function
 3607              	tcp_alloc:
 3608              	.LFB85:
1556:Source\LwIP\src\core/tcp.c ****   struct tcp_pcb *pcb;
 3609              		.loc 1 1556 0
 3610              		.cfi_startproc
 3611              		@ args = 0, pretend = 0, frame = 0
 3612              		@ frame_needed = 0, uses_anonymous_args = 0
 3613              	.LVL386:
 3614 0000 70B5     		push	{r4, r5, r6, lr}
 3615              		.cfi_def_cfa_offset 16
 3616              		.cfi_offset 4, -16
 3617              		.cfi_offset 5, -12
 3618              		.cfi_offset 6, -8
 3619              		.cfi_offset 14, -4
 3620 0002 0500     		movs	r5, r0
1559:Source\LwIP\src\core/tcp.c ****   if (pcb == NULL) {
 3621              		.loc 1 1559 0
 3622 0004 3E4A     		ldr	r2, .L313
 3623 0006 3F49     		ldr	r1, .L313+4
 3624 0008 0220     		movs	r0, #2
 3625              	.LVL387:
 3626 000a FFF7FEFF 		bl	memp_malloc_fn
 3627              	.LVL388:
 3628 000e 041E     		subs	r4, r0, #0
 3629              	.LVL389:
1560:Source\LwIP\src\core/tcp.c ****     /* Try killing oldest connection in TIME-WAIT. */
 3630              		.loc 1 1560 0
 3631 0010 44D1     		bne	.L308
1563:Source\LwIP\src\core/tcp.c ****     /* Try to allocate a tcp_pcb again. */
 3632              		.loc 1 1563 0
 3633 0012 FFF7FEFF 		bl	tcp_kill_timewait
 3634              	.LVL390:
1565:Source\LwIP\src\core/tcp.c ****     if (pcb == NULL) {
 3635              		.loc 1 1565 0
 3636 0016 3C4A     		ldr	r2, .L313+8
 3637 0018 3A49     		ldr	r1, .L313+4
 3638 001a 0220     		movs	r0, #2
 3639 001c FFF7FEFF 		bl	memp_malloc_fn
 3640              	.LVL391:
 3641 0020 041E     		subs	r4, r0, #0
 3642              	.LVL392:
1566:Source\LwIP\src\core/tcp.c ****       /* Try killing oldest connection in LAST-ACK (these wouldn't go to TIME-WAIT). */
 3643              		.loc 1 1566 0
 3644 0022 33D1     		bne	.L309
1569:Source\LwIP\src\core/tcp.c ****       /* Try to allocate a tcp_pcb again. */
 3645              		.loc 1 1569 0
 3646 0024 0920     		movs	r0, #9
 3647              	.LVL393:
 3648 0026 FFF7FEFF 		bl	tcp_kill_state
 3649              	.LVL394:
1571:Source\LwIP\src\core/tcp.c ****       if (pcb == NULL) {
 3650              		.loc 1 1571 0
 3651 002a 384A     		ldr	r2, .L313+12
ARM GAS  C:\Users\Phuong\AppData\Local\Temp\cczg95Bp.s 			page 109


 3652 002c 3549     		ldr	r1, .L313+4
 3653 002e 0220     		movs	r0, #2
 3654 0030 FFF7FEFF 		bl	memp_malloc_fn
 3655              	.LVL395:
 3656 0034 041E     		subs	r4, r0, #0
 3657              	.LVL396:
1572:Source\LwIP\src\core/tcp.c ****         /* Try killing oldest connection in CLOSING. */
 3658              		.loc 1 1572 0
 3659 0036 21D1     		bne	.L310
1575:Source\LwIP\src\core/tcp.c ****         /* Try to allocate a tcp_pcb again. */
 3660              		.loc 1 1575 0
 3661 0038 0820     		movs	r0, #8
 3662              	.LVL397:
 3663 003a FFF7FEFF 		bl	tcp_kill_state
 3664              	.LVL398:
1577:Source\LwIP\src\core/tcp.c ****         if (pcb == NULL) {
 3665              		.loc 1 1577 0
 3666 003e 344A     		ldr	r2, .L313+16
 3667 0040 3049     		ldr	r1, .L313+4
 3668 0042 0220     		movs	r0, #2
 3669 0044 FFF7FEFF 		bl	memp_malloc_fn
 3670              	.LVL399:
 3671 0048 041E     		subs	r4, r0, #0
 3672              	.LVL400:
1578:Source\LwIP\src\core/tcp.c ****           /* Try killing active connections with lower priority than the new one. */
 3673              		.loc 1 1578 0
 3674 004a 0FD1     		bne	.L311
1581:Source\LwIP\src\core/tcp.c ****           /* Try to allocate a tcp_pcb again. */
 3675              		.loc 1 1581 0
 3676 004c 2800     		movs	r0, r5
 3677              	.LVL401:
 3678 004e FFF7FEFF 		bl	tcp_kill_prio
 3679              	.LVL402:
1583:Source\LwIP\src\core/tcp.c ****           if (pcb != NULL) {
 3680              		.loc 1 1583 0
 3681 0052 304A     		ldr	r2, .L313+20
 3682 0054 2B49     		ldr	r1, .L313+4
 3683 0056 0220     		movs	r0, #2
 3684 0058 FFF7FEFF 		bl	memp_malloc_fn
 3685              	.LVL403:
 3686 005c 041E     		subs	r4, r0, #0
 3687              	.LVL404:
1584:Source\LwIP\src\core/tcp.c ****             /* adjust err stats: memp_malloc failed multiple times before */
 3688              		.loc 1 1584 0
 3689 005e 05D0     		beq	.L311
1586:Source\LwIP\src\core/tcp.c ****           }
 3690              		.loc 1 1586 0
 3691 0060 CC23     		movs	r3, #204
 3692 0062 2D4A     		ldr	r2, .L313+24
 3693 0064 D258     		ldr	r2, [r2, r3]
 3694 0066 9388     		ldrh	r3, [r2, #4]
 3695 0068 013B     		subs	r3, r3, #1
 3696 006a 9380     		strh	r3, [r2, #4]
 3697              	.L311:
1589:Source\LwIP\src\core/tcp.c ****           /* adjust err stats: memp_malloc failed multiple times before */
 3698              		.loc 1 1589 0
 3699 006c 002C     		cmp	r4, #0
ARM GAS  C:\Users\Phuong\AppData\Local\Temp\cczg95Bp.s 			page 110


 3700 006e 05D0     		beq	.L310
1591:Source\LwIP\src\core/tcp.c ****         }
 3701              		.loc 1 1591 0
 3702 0070 CC23     		movs	r3, #204
 3703 0072 294A     		ldr	r2, .L313+24
 3704 0074 D258     		ldr	r2, [r2, r3]
 3705 0076 9388     		ldrh	r3, [r2, #4]
 3706 0078 013B     		subs	r3, r3, #1
 3707 007a 9380     		strh	r3, [r2, #4]
 3708              	.L310:
1594:Source\LwIP\src\core/tcp.c ****         /* adjust err stats: memp_malloc failed multiple times before */
 3709              		.loc 1 1594 0
 3710 007c 002C     		cmp	r4, #0
 3711 007e 05D0     		beq	.L309
1596:Source\LwIP\src\core/tcp.c ****       }
 3712              		.loc 1 1596 0
 3713 0080 CC23     		movs	r3, #204
 3714 0082 254A     		ldr	r2, .L313+24
 3715 0084 D258     		ldr	r2, [r2, r3]
 3716 0086 9388     		ldrh	r3, [r2, #4]
 3717 0088 013B     		subs	r3, r3, #1
 3718 008a 9380     		strh	r3, [r2, #4]
 3719              	.L309:
1599:Source\LwIP\src\core/tcp.c ****       /* adjust err stats: memp_malloc failed above */
 3720              		.loc 1 1599 0
 3721 008c 002C     		cmp	r4, #0
 3722 008e 05D0     		beq	.L308
1601:Source\LwIP\src\core/tcp.c ****     }
 3723              		.loc 1 1601 0
 3724 0090 CC23     		movs	r3, #204
 3725 0092 214A     		ldr	r2, .L313+24
 3726 0094 D258     		ldr	r2, [r2, r3]
 3727 0096 9388     		ldrh	r3, [r2, #4]
 3728 0098 013B     		subs	r3, r3, #1
 3729 009a 9380     		strh	r3, [r2, #4]
 3730              	.L308:
1604:Source\LwIP\src\core/tcp.c ****     /* zero out the whole pcb, so there is no need to initialize members to zero */
 3731              		.loc 1 1604 0
 3732 009c 002C     		cmp	r4, #0
 3733 009e 2DD0     		beq	.L312
1606:Source\LwIP\src\core/tcp.c ****     pcb->prio = prio;
 3734              		.loc 1 1606 0
 3735 00a0 A022     		movs	r2, #160
 3736 00a2 0021     		movs	r1, #0
 3737 00a4 2000     		movs	r0, r4
 3738 00a6 FFF7FEFF 		bl	memset
 3739              	.LVL405:
1607:Source\LwIP\src\core/tcp.c ****     pcb->snd_buf = TCP_SND_BUF;
 3740              		.loc 1 1607 0
 3741 00aa 6575     		strb	r5, [r4, #21]
1608:Source\LwIP\src\core/tcp.c ****     /* Start with a window that does not need scaling. When window scaling is
 3742              		.loc 1 1608 0
 3743 00ac 1B4B     		ldr	r3, .L313+28
 3744 00ae 6022     		movs	r2, #96
 3745 00b0 A352     		strh	r3, [r4, r2]
1611:Source\LwIP\src\core/tcp.c ****     pcb->ttl = TCP_TTL;
 3746              		.loc 1 1611 0
ARM GAS  C:\Users\Phuong\AppData\Local\Temp\cczg95Bp.s 			page 111


 3747 00b2 1B4A     		ldr	r2, .L313+32
 3748 00b4 6285     		strh	r2, [r4, #42]
 3749 00b6 2285     		strh	r2, [r4, #40]
1612:Source\LwIP\src\core/tcp.c ****     /* As initial send MSS, we use TCP_MSS but limit it to 536.
 3750              		.loc 1 1612 0
 3751 00b8 FF22     		movs	r2, #255
 3752 00ba A272     		strb	r2, [r4, #10]
1615:Source\LwIP\src\core/tcp.c ****     pcb->rto = 3000 / TCP_SLOW_INTERVAL;
 3753              		.loc 1 1615 0
 3754 00bc 1A32     		adds	r2, r2, #26
 3755 00be FF32     		adds	r2, r2, #255
 3756 00c0 6286     		strh	r2, [r4, #50]
1616:Source\LwIP\src\core/tcp.c ****     pcb->sv = 3000 / TCP_SLOW_INTERVAL;
 3757              		.loc 1 1616 0
 3758 00c2 0622     		movs	r2, #6
 3759 00c4 4021     		movs	r1, #64
 3760 00c6 6252     		strh	r2, [r4, r1]
1617:Source\LwIP\src\core/tcp.c ****     pcb->rtime = -1;
 3761              		.loc 1 1617 0
 3762 00c8 E287     		strh	r2, [r4, #62]
1618:Source\LwIP\src\core/tcp.c ****     pcb->cwnd = 1;
 3763              		.loc 1 1618 0
 3764 00ca 073A     		subs	r2, r2, #7
 3765 00cc 2286     		strh	r2, [r4, #48]
1619:Source\LwIP\src\core/tcp.c ****     pcb->tmr = tcp_ticks;
 3766              		.loc 1 1619 0
 3767 00ce 3F39     		subs	r1, r1, #63
 3768 00d0 4932     		adds	r2, r2, #73
 3769 00d2 A152     		strh	r1, [r4, r2]
1620:Source\LwIP\src\core/tcp.c ****     pcb->last_timer = tcp_timer_ctr;
 3770              		.loc 1 1620 0
 3771 00d4 134A     		ldr	r2, .L313+36
 3772 00d6 1268     		ldr	r2, [r2]
 3773 00d8 2262     		str	r2, [r4, #32]
1621:Source\LwIP\src\core/tcp.c **** 
 3774              		.loc 1 1621 0
 3775 00da 134A     		ldr	r2, .L313+40
 3776 00dc 1278     		ldrb	r2, [r2]
 3777 00de A277     		strb	r2, [r4, #30]
1629:Source\LwIP\src\core/tcp.c **** 
 3778              		.loc 1 1629 0
 3779 00e0 4A22     		movs	r2, #74
 3780 00e2 A352     		strh	r3, [r4, r2]
1632:Source\LwIP\src\core/tcp.c **** #endif /* LWIP_CALLBACK_API */
 3781              		.loc 1 1632 0
 3782 00e4 114A     		ldr	r2, .L313+44
 3783 00e6 8023     		movs	r3, #128
 3784 00e8 E250     		str	r2, [r4, r3]
1636:Source\LwIP\src\core/tcp.c **** 
 3785              		.loc 1 1636 0
 3786 00ea 114A     		ldr	r2, .L313+48
 3787 00ec 1033     		adds	r3, r3, #16
 3788 00ee E250     		str	r2, [r4, r3]
1639:Source\LwIP\src\core/tcp.c ****     pcb->keep_cnt   = TCP_KEEPCNT_DEFAULT;
 3789              		.loc 1 1639 0
 3790 00f0 104A     		ldr	r2, .L313+52
 3791 00f2 0433     		adds	r3, r3, #4
ARM GAS  C:\Users\Phuong\AppData\Local\Temp\cczg95Bp.s 			page 112


 3792 00f4 E250     		str	r2, [r4, r3]
1640:Source\LwIP\src\core/tcp.c **** #endif /* LWIP_TCP_KEEPALIVE */
 3793              		.loc 1 1640 0
 3794 00f6 0922     		movs	r2, #9
 3795 00f8 0433     		adds	r3, r3, #4
 3796 00fa E250     		str	r2, [r4, r3]
 3797              	.L312:
1644:Source\LwIP\src\core/tcp.c **** 
 3798              		.loc 1 1644 0
 3799 00fc 2000     		movs	r0, r4
 3800              		@ sp needed
 3801              	.LVL406:
 3802 00fe 70BD     		pop	{r4, r5, r6, pc}
 3803              	.L314:
 3804              		.align	2
 3805              	.L313:
 3806 0100 17060000 		.word	1559
 3807 0104 00000000 		.word	.LC8
 3808 0108 1D060000 		.word	1565
 3809 010c 23060000 		.word	1571
 3810 0110 29060000 		.word	1577
 3811 0114 2F060000 		.word	1583
 3812 0118 00000000 		.word	lwip_stats
 3813 011c 38220000 		.word	8760
 3814 0120 D0160000 		.word	5840
 3815 0124 00000000 		.word	tcp_ticks
 3816 0128 00000000 		.word	.LANCHOR2
 3817 012c 00000000 		.word	tcp_recv_null
 3818 0130 00DD6D00 		.word	7200000
 3819 0134 F8240100 		.word	75000
 3820              		.cfi_endproc
 3821              	.LFE85:
 3822              		.size	tcp_alloc, .-tcp_alloc
 3823              		.section	.text.tcp_new,"ax",%progbits
 3824              		.align	2
 3825              		.global	tcp_new
 3826              		.code	16
 3827              		.thumb_func
 3828              		.type	tcp_new, %function
 3829              	tcp_new:
 3830              	.LFB86:
1661:Source\LwIP\src\core/tcp.c ****   return tcp_alloc(TCP_PRIO_NORMAL);
 3831              		.loc 1 1661 0
 3832              		.cfi_startproc
 3833              		@ args = 0, pretend = 0, frame = 0
 3834              		@ frame_needed = 0, uses_anonymous_args = 0
 3835 0000 10B5     		push	{r4, lr}
 3836              		.cfi_def_cfa_offset 8
 3837              		.cfi_offset 4, -8
 3838              		.cfi_offset 14, -4
1662:Source\LwIP\src\core/tcp.c **** }
 3839              		.loc 1 1662 0
 3840 0002 4020     		movs	r0, #64
 3841 0004 FFF7FEFF 		bl	tcp_alloc
 3842              	.LVL407:
1663:Source\LwIP\src\core/tcp.c **** 
 3843              		.loc 1 1663 0
ARM GAS  C:\Users\Phuong\AppData\Local\Temp\cczg95Bp.s 			page 113


 3844              		@ sp needed
 3845 0008 10BD     		pop	{r4, pc}
 3846              		.cfi_endproc
 3847              	.LFE86:
 3848              		.size	tcp_new, .-tcp_new
 3849 000a C046     		.section	.text.tcp_new_ip_type,"ax",%progbits
 3850              		.align	2
 3851              		.global	tcp_new_ip_type
 3852              		.code	16
 3853              		.thumb_func
 3854              		.type	tcp_new_ip_type, %function
 3855              	tcp_new_ip_type:
 3856              	.LFB87:
1678:Source\LwIP\src\core/tcp.c ****   struct tcp_pcb * pcb;
 3857              		.loc 1 1678 0
 3858              		.cfi_startproc
 3859              		@ args = 0, pretend = 0, frame = 0
 3860              		@ frame_needed = 0, uses_anonymous_args = 0
 3861              	.LVL408:
 3862 0000 10B5     		push	{r4, lr}
 3863              		.cfi_def_cfa_offset 8
 3864              		.cfi_offset 4, -8
 3865              		.cfi_offset 14, -4
1680:Source\LwIP\src\core/tcp.c **** #if LWIP_IPV4 && LWIP_IPV6
 3866              		.loc 1 1680 0
 3867 0002 4020     		movs	r0, #64
 3868              	.LVL409:
 3869 0004 FFF7FEFF 		bl	tcp_alloc
 3870              	.LVL410:
1690:Source\LwIP\src\core/tcp.c **** 
 3871              		.loc 1 1690 0
 3872              		@ sp needed
 3873 0008 10BD     		pop	{r4, pc}
 3874              		.cfi_endproc
 3875              	.LFE87:
 3876              		.size	tcp_new_ip_type, .-tcp_new_ip_type
 3877 000a C046     		.section	.text.tcp_next_iss,"ax",%progbits
 3878              		.align	2
 3879              		.global	tcp_next_iss
 3880              		.code	16
 3881              		.thumb_func
 3882              		.type	tcp_next_iss, %function
 3883              	tcp_next_iss:
 3884              	.LFB96:
1896:Source\LwIP\src\core/tcp.c **** #ifdef LWIP_HOOK_TCP_ISN
 3885              		.loc 1 1896 0
 3886              		.cfi_startproc
 3887              		@ args = 0, pretend = 0, frame = 0
 3888              		@ frame_needed = 0, uses_anonymous_args = 0
 3889              		@ link register save eliminated.
 3890              	.LVL411:
1904:Source\LwIP\src\core/tcp.c ****   return iss;
 3891              		.loc 1 1904 0
 3892 0000 034B     		ldr	r3, .L318
 3893 0002 044A     		ldr	r2, .L318+4
 3894 0004 1068     		ldr	r0, [r2]
 3895              	.LVL412:
ARM GAS  C:\Users\Phuong\AppData\Local\Temp\cczg95Bp.s 			page 114


 3896 0006 5A68     		ldr	r2, [r3, #4]
 3897 0008 9446     		mov	ip, r2
 3898 000a 6044     		add	r0, r0, ip
 3899 000c 5860     		str	r0, [r3, #4]
1907:Source\LwIP\src\core/tcp.c **** 
 3900              		.loc 1 1907 0
 3901              		@ sp needed
 3902 000e 7047     		bx	lr
 3903              	.L319:
 3904              		.align	2
 3905              	.L318:
 3906 0010 00000000 		.word	.LANCHOR1
 3907 0014 00000000 		.word	tcp_ticks
 3908              		.cfi_endproc
 3909              	.LFE96:
 3910              		.size	tcp_next_iss, .-tcp_next_iss
 3911              		.section	.text.tcp_eff_send_mss_impl,"ax",%progbits
 3912              		.align	2
 3913              		.global	tcp_eff_send_mss_impl
 3914              		.code	16
 3915              		.thumb_func
 3916              		.type	tcp_eff_send_mss_impl, %function
 3917              	tcp_eff_send_mss_impl:
 3918              	.LFB97:
1921:Source\LwIP\src\core/tcp.c ****   u16_t mss_s;
 3919              		.loc 1 1921 0
 3920              		.cfi_startproc
 3921              		@ args = 0, pretend = 0, frame = 0
 3922              		@ frame_needed = 0, uses_anonymous_args = 0
 3923              	.LVL413:
 3924 0000 10B5     		push	{r4, lr}
 3925              		.cfi_def_cfa_offset 8
 3926              		.cfi_offset 4, -8
 3927              		.cfi_offset 14, -4
 3928 0002 0400     		movs	r4, r0
1926:Source\LwIP\src\core/tcp.c **** #if LWIP_IPV6
 3929              		.loc 1 1926 0
 3930 0004 0800     		movs	r0, r1
 3931              	.LVL414:
 3932 0006 FFF7FEFF 		bl	ip4_route
 3933              	.LVL415:
1941:Source\LwIP\src\core/tcp.c ****       return sendmss;
 3934              		.loc 1 1941 0
 3935 000a 0028     		cmp	r0, #0
 3936 000c 0AD0     		beq	.L321
1944:Source\LwIP\src\core/tcp.c ****   }
 3937              		.loc 1 1944 0
 3938 000e 838E     		ldrh	r3, [r0, #52]
 3939 0010 1AB2     		sxth	r2, r3
 3940              	.LVL416:
1948:Source\LwIP\src\core/tcp.c **** #if LWIP_IPV6
 3941              		.loc 1 1948 0
 3942 0012 002A     		cmp	r2, #0
 3943 0014 06D0     		beq	.L321
1962:Source\LwIP\src\core/tcp.c ****     }
 3944              		.loc 1 1962 0
 3945 0016 283B     		subs	r3, r3, #40
ARM GAS  C:\Users\Phuong\AppData\Local\Temp\cczg95Bp.s 			page 115


 3946 0018 9BB2     		uxth	r3, r3
 3947              	.LVL417:
1969:Source\LwIP\src\core/tcp.c ****   }
 3948              		.loc 1 1969 0
 3949 001a 221C     		adds	r2, r4, #0
 3950              	.LVL418:
 3951 001c 9C42     		cmp	r4, r3
 3952 001e 00D9     		bls	.L322
 3953 0020 1A1C     		adds	r2, r3, #0
 3954              	.L322:
 3955 0022 94B2     		uxth	r4, r2
 3956              	.LVL419:
 3957              	.L321:
1972:Source\LwIP\src\core/tcp.c **** #endif /* TCP_CALCULATE_EFF_SEND_MSS */
 3958              		.loc 1 1972 0
 3959 0024 2000     		movs	r0, r4
 3960              	.LVL420:
 3961              		@ sp needed
 3962 0026 10BD     		pop	{r4, pc}
 3963              		.cfi_endproc
 3964              	.LFE97:
 3965              		.size	tcp_eff_send_mss_impl, .-tcp_eff_send_mss_impl
 3966              		.section	.text.tcp_connect,"ax",%progbits
 3967              		.align	2
 3968              		.global	tcp_connect
 3969              		.code	16
 3970              		.thumb_func
 3971              		.type	tcp_connect, %function
 3972              	tcp_connect:
 3973              	.LFB72:
 879:Source\LwIP\src\core/tcp.c ****   err_t ret;
 3974              		.loc 1 879 0
 3975              		.cfi_startproc
 3976              		@ args = 0, pretend = 0, frame = 0
 3977              		@ frame_needed = 0, uses_anonymous_args = 0
 3978              	.LVL421:
 3979 0000 F0B5     		push	{r4, r5, r6, r7, lr}
 3980              		.cfi_def_cfa_offset 20
 3981              		.cfi_offset 4, -20
 3982              		.cfi_offset 5, -16
 3983              		.cfi_offset 6, -12
 3984              		.cfi_offset 7, -8
 3985              		.cfi_offset 14, -4
 3986 0002 4746     		mov	r7, r8
 3987 0004 80B4     		push	{r7}
 3988              		.cfi_def_cfa_offset 24
 3989              		.cfi_offset 8, -24
 3990 0006 0400     		movs	r4, r0
 3991 0008 0E00     		movs	r6, r1
 3992 000a 1700     		movs	r7, r2
 3993 000c 9846     		mov	r8, r3
 884:Source\LwIP\src\core/tcp.c ****     return ERR_VAL;
 3994              		.loc 1 884 0
 3995 000e 0028     		cmp	r0, #0
 3996 0010 00D1     		bne	.LCB3983
 3997 0012 92E0     		b	.L340	@long jump
 3998              	.LCB3983:
ARM GAS  C:\Users\Phuong\AppData\Local\Temp\cczg95Bp.s 			page 116


 884:Source\LwIP\src\core/tcp.c ****     return ERR_VAL;
 3999              		.loc 1 884 0 is_stmt 0 discriminator 1
 4000 0014 0029     		cmp	r1, #0
 4001 0016 00D1     		bne	.LCB3985
 4002 0018 92E0     		b	.L341	@long jump
 4003              	.LCB3985:
 888:Source\LwIP\src\core/tcp.c **** 
 4004              		.loc 1 888 0 is_stmt 1
 4005 001a 037D     		ldrb	r3, [r0, #20]
 4006              	.LVL422:
 4007 001c 002B     		cmp	r3, #0
 4008 001e 00D0     		beq	.LCB3989
 4009 0020 91E0     		b	.L342	@long jump
 4010              	.LCB3989:
 891:Source\LwIP\src\core/tcp.c ****   pcb->remote_port = port;
 4011              		.loc 1 891 0
 4012 0022 0029     		cmp	r1, #0
 4013 0024 01D0     		beq	.L343
 891:Source\LwIP\src\core/tcp.c ****   pcb->remote_port = port;
 4014              		.loc 1 891 0 is_stmt 0 discriminator 1
 4015 0026 0B68     		ldr	r3, [r1]
 4016 0028 00E0     		b	.L325
 4017              	.L343:
 891:Source\LwIP\src\core/tcp.c ****   pcb->remote_port = port;
 4018              		.loc 1 891 0
 4019 002a 0023     		movs	r3, #0
 4020              	.L325:
 891:Source\LwIP\src\core/tcp.c ****   pcb->remote_port = port;
 4021              		.loc 1 891 0 discriminator 4
 4022 002c 6360     		str	r3, [r4, #4]
 892:Source\LwIP\src\core/tcp.c **** 
 4023              		.loc 1 892 0 is_stmt 1 discriminator 4
 4024 002e 2783     		strh	r7, [r4, #24]
 895:Source\LwIP\src\core/tcp.c ****     /* no local IP address set, yet. */
 4025              		.loc 1 895 0 discriminator 4
 4026 0030 002C     		cmp	r4, #0
 4027 0032 02D0     		beq	.L326
 895:Source\LwIP\src\core/tcp.c ****     /* no local IP address set, yet. */
 4028              		.loc 1 895 0 is_stmt 0 discriminator 1
 4029 0034 2368     		ldr	r3, [r4]
 4030 0036 002B     		cmp	r3, #0
 4031 0038 0FD1     		bne	.L327
 4032              	.L326:
 4033              	.LBB19:
 899:Source\LwIP\src\core/tcp.c ****     if ((netif == NULL) || (local_ip == NULL)) {
 4034              		.loc 1 899 0 is_stmt 1
 4035 003a 201D     		adds	r0, r4, #4
 4036              	.LVL423:
 4037 003c FFF7FEFF 		bl	ip4_route
 4038              	.LVL424:
 4039 0040 0028     		cmp	r0, #0
 4040 0042 01D0     		beq	.L344
 899:Source\LwIP\src\core/tcp.c ****     if ((netif == NULL) || (local_ip == NULL)) {
 4041              		.loc 1 899 0 is_stmt 0 discriminator 1
 4042 0044 031D     		adds	r3, r0, #4
 4043 0046 00E0     		b	.L328
 4044              	.L344:
ARM GAS  C:\Users\Phuong\AppData\Local\Temp\cczg95Bp.s 			page 117


 899:Source\LwIP\src\core/tcp.c ****     if ((netif == NULL) || (local_ip == NULL)) {
 4045              		.loc 1 899 0
 4046 0048 0023     		movs	r3, #0
 4047              	.L328:
 4048              	.LVL425:
 900:Source\LwIP\src\core/tcp.c ****       /* Don't even try to send a SYN packet if we have no route
 4049              		.loc 1 900 0 is_stmt 1 discriminator 4
 4050 004a 0028     		cmp	r0, #0
 4051 004c 00D1     		bne	.LCB4029
 4052 004e 7DE0     		b	.L345	@long jump
 4053              	.LCB4029:
 900:Source\LwIP\src\core/tcp.c ****       /* Don't even try to send a SYN packet if we have no route
 4054              		.loc 1 900 0 is_stmt 0 discriminator 1
 4055 0050 002B     		cmp	r3, #0
 4056 0052 00D1     		bne	.LCB4031
 4057 0054 7DE0     		b	.L346	@long jump
 4058              	.LCB4031:
 906:Source\LwIP\src\core/tcp.c ****   }
 4059              		.loc 1 906 0 is_stmt 1
 4060 0056 1B68     		ldr	r3, [r3]
 4061              	.LVL426:
 4062 0058 2360     		str	r3, [r4]
 4063              	.LVL427:
 4064              	.L327:
 4065              	.LBE19:
 909:Source\LwIP\src\core/tcp.c ****   if (pcb->local_port == 0) {
 4066              		.loc 1 909 0
 4067 005a E58A     		ldrh	r5, [r4, #22]
 4068              	.LVL428:
 910:Source\LwIP\src\core/tcp.c ****     pcb->local_port = tcp_new_port();
 4069              		.loc 1 910 0
 4070 005c 002D     		cmp	r5, #0
 4071 005e 05D1     		bne	.L329
 911:Source\LwIP\src\core/tcp.c ****     if (pcb->local_port == 0) {
 4072              		.loc 1 911 0
 4073 0060 FFF7FEFF 		bl	tcp_new_port
 4074              	.LVL429:
 4075 0064 E082     		strh	r0, [r4, #22]
 912:Source\LwIP\src\core/tcp.c ****       return ERR_BUF;
 4076              		.loc 1 912 0
 4077 0066 0028     		cmp	r0, #0
 4078 0068 1FD1     		bne	.L330
 4079 006a 75E0     		b	.L347
 4080              	.L329:
 917:Source\LwIP\src\core/tcp.c ****       /* Since SOF_REUSEADDR allows reusing a local address, we have to make sure
 4081              		.loc 1 917 0
 4082 006c 237A     		ldrb	r3, [r4, #8]
 4083 006e 5B07     		lsls	r3, r3, #29
 4084 0070 18D4     		bmi	.L348
 4085              	.LBB20:
 4086 0072 1AE0     		b	.L330
 4087              	.LVL430:
 4088              	.L335:
 924:Source\LwIP\src\core/tcp.c ****           if ((cpcb->local_port == pcb->local_port) &&
 4089              		.loc 1 924 0
 4090 0074 8B00     		lsls	r3, r1, #2
 4091 0076 3D4A     		ldr	r2, .L352
ARM GAS  C:\Users\Phuong\AppData\Local\Temp\cczg95Bp.s 			page 118


 4092 0078 9B58     		ldr	r3, [r3, r2]
 4093 007a 1B68     		ldr	r3, [r3]
 4094              	.LVL431:
 4095 007c 0EE0     		b	.L332
 4096              	.L334:
 925:Source\LwIP\src\core/tcp.c ****               (cpcb->remote_port == port) &&
 4097              		.loc 1 925 0
 4098 007e DA8A     		ldrh	r2, [r3, #22]
 4099 0080 9542     		cmp	r5, r2
 4100 0082 0AD1     		bne	.L333
 926:Source\LwIP\src\core/tcp.c ****               ip_addr_cmp(&cpcb->local_ip, &pcb->local_ip) &&
 4101              		.loc 1 926 0 discriminator 1
 4102 0084 1A8B     		ldrh	r2, [r3, #24]
 925:Source\LwIP\src\core/tcp.c ****               (cpcb->remote_port == port) &&
 4103              		.loc 1 925 0 discriminator 1
 4104 0086 9742     		cmp	r7, r2
 4105 0088 07D1     		bne	.L333
 926:Source\LwIP\src\core/tcp.c ****               ip_addr_cmp(&cpcb->local_ip, &pcb->local_ip) &&
 4106              		.loc 1 926 0
 4107 008a 1A68     		ldr	r2, [r3]
 4108 008c 2068     		ldr	r0, [r4]
 4109 008e 8242     		cmp	r2, r0
 4110 0090 03D1     		bne	.L333
 927:Source\LwIP\src\core/tcp.c ****               ip_addr_cmp(&cpcb->remote_ip, ipaddr)) {
 4111              		.loc 1 927 0
 4112 0092 5A68     		ldr	r2, [r3, #4]
 4113 0094 3068     		ldr	r0, [r6]
 4114 0096 8242     		cmp	r2, r0
 4115 0098 61D0     		beq	.L349
 4116              	.L333:
 924:Source\LwIP\src\core/tcp.c ****           if ((cpcb->local_port == pcb->local_port) &&
 4117              		.loc 1 924 0 discriminator 2
 4118 009a DB68     		ldr	r3, [r3, #12]
 4119              	.LVL432:
 4120              	.L332:
 924:Source\LwIP\src\core/tcp.c ****           if ((cpcb->local_port == pcb->local_port) &&
 4121              		.loc 1 924 0 is_stmt 0 discriminator 1
 4122 009c 002B     		cmp	r3, #0
 4123 009e EED1     		bne	.L334
 923:Source\LwIP\src\core/tcp.c ****         for (cpcb = *tcp_pcb_lists[i]; cpcb != NULL; cpcb = cpcb->next) {
 4124              		.loc 1 923 0 is_stmt 1 discriminator 2
 4125 00a0 0131     		adds	r1, r1, #1
 4126              	.LVL433:
 4127 00a2 00E0     		b	.L331
 4128              	.LVL434:
 4129              	.L348:
 4130              	.LBE20:
 4131 00a4 0221     		movs	r1, #2
 4132              	.L331:
 4133              	.LVL435:
 4134              	.LBB21:
 923:Source\LwIP\src\core/tcp.c ****         for (cpcb = *tcp_pcb_lists[i]; cpcb != NULL; cpcb = cpcb->next) {
 4135              		.loc 1 923 0 is_stmt 0 discriminator 1
 4136 00a6 0329     		cmp	r1, #3
 4137 00a8 E4DD     		ble	.L335
 4138              	.LVL436:
 4139              	.L330:
ARM GAS  C:\Users\Phuong\AppData\Local\Temp\cczg95Bp.s 			page 119


 4140              	.LBE21:
 938:Source\LwIP\src\core/tcp.c ****   pcb->rcv_nxt = 0;
 4141              		.loc 1 938 0 is_stmt 1
 4142 00aa 2000     		movs	r0, r4
 4143 00ac FFF7FEFF 		bl	tcp_next_iss
 4144              	.LVL437:
 939:Source\LwIP\src\core/tcp.c ****   pcb->snd_nxt = iss;
 4145              		.loc 1 939 0
 4146 00b0 0022     		movs	r2, #0
 4147 00b2 6262     		str	r2, [r4, #36]
 940:Source\LwIP\src\core/tcp.c ****   pcb->lastack = iss - 1;
 4148              		.loc 1 940 0
 4149 00b4 E064     		str	r0, [r4, #76]
 941:Source\LwIP\src\core/tcp.c ****   pcb->snd_wl2 = iss - 1;
 4150              		.loc 1 941 0
 4151 00b6 0138     		subs	r0, r0, #1
 4152              	.LVL438:
 4153 00b8 6064     		str	r0, [r4, #68]
 942:Source\LwIP\src\core/tcp.c ****   pcb->snd_lbb = iss - 1;
 4154              		.loc 1 942 0
 4155 00ba 6065     		str	r0, [r4, #84]
 943:Source\LwIP\src\core/tcp.c ****   /* Start with a window that does not need scaling. When window scaling is
 4156              		.loc 1 943 0
 4157 00bc A065     		str	r0, [r4, #88]
 946:Source\LwIP\src\core/tcp.c ****   pcb->rcv_ann_right_edge = pcb->rcv_nxt;
 4158              		.loc 1 946 0
 4159 00be 2C4B     		ldr	r3, .L352+4
 4160 00c0 6385     		strh	r3, [r4, #42]
 4161 00c2 2385     		strh	r3, [r4, #40]
 947:Source\LwIP\src\core/tcp.c ****   pcb->snd_wnd = TCP_WND;
 4162              		.loc 1 947 0
 4163 00c4 E262     		str	r2, [r4, #44]
 948:Source\LwIP\src\core/tcp.c ****   /* As initial send MSS, we use TCP_MSS but limit it to 536.
 4164              		.loc 1 948 0
 4165 00c6 5C32     		adds	r2, r2, #92
 4166 00c8 A352     		strh	r3, [r4, r2]
 4167              	.LVL439:
 951:Source\LwIP\src\core/tcp.c **** #if TCP_CALCULATE_EFF_SEND_MSS
 4168              		.loc 1 951 0
 4169 00ca 8620     		movs	r0, #134
 4170              	.LVL440:
 4171 00cc 8000     		lsls	r0, r0, #2
 4172 00ce 6086     		strh	r0, [r4, #50]
 953:Source\LwIP\src\core/tcp.c **** #endif /* TCP_CALCULATE_EFF_SEND_MSS */
 4173              		.loc 1 953 0
 4174 00d0 211D     		adds	r1, r4, #4
 4175 00d2 FFF7FEFF 		bl	tcp_eff_send_mss_impl
 4176              	.LVL441:
 4177 00d6 6086     		strh	r0, [r4, #50]
 955:Source\LwIP\src\core/tcp.c **** #if LWIP_CALLBACK_API
 4178              		.loc 1 955 0
 4179 00d8 0122     		movs	r2, #1
 4180 00da 4823     		movs	r3, #72
 4181 00dc E252     		strh	r2, [r4, r3]
 957:Source\LwIP\src\core/tcp.c **** #else /* LWIP_CALLBACK_API */
 4182              		.loc 1 957 0
 4183 00de 3C33     		adds	r3, r3, #60
ARM GAS  C:\Users\Phuong\AppData\Local\Temp\cczg95Bp.s 			page 120


 4184 00e0 4246     		mov	r2, r8
 4185 00e2 E250     		str	r2, [r4, r3]
 963:Source\LwIP\src\core/tcp.c ****   if (ret == ERR_OK) {
 4186              		.loc 1 963 0
 4187 00e4 0221     		movs	r1, #2
 4188 00e6 2000     		movs	r0, r4
 4189 00e8 FFF7FEFF 		bl	tcp_enqueue_flags
 4190              	.LVL442:
 4191 00ec 061E     		subs	r6, r0, #0
 4192              	.LVL443:
 964:Source\LwIP\src\core/tcp.c ****     /* SYN segment was enqueued, changed the pcbs state now */
 4193              		.loc 1 964 0
 4194 00ee 39D1     		bne	.L350
 966:Source\LwIP\src\core/tcp.c ****     if (old_local_port != 0) {
 4195              		.loc 1 966 0
 4196 00f0 0223     		movs	r3, #2
 4197 00f2 2375     		strb	r3, [r4, #20]
 967:Source\LwIP\src\core/tcp.c ****       TCP_RMV(&tcp_bound_pcbs, pcb);
 4198              		.loc 1 967 0
 4199 00f4 002D     		cmp	r5, #0
 4200 00f6 12D0     		beq	.L336
 968:Source\LwIP\src\core/tcp.c ****     }
 4201              		.loc 1 968 0
 4202 00f8 1E4B     		ldr	r3, .L352+8
 4203 00fa 1B68     		ldr	r3, [r3]
 4204 00fc 9C42     		cmp	r4, r3
 4205 00fe 0AD1     		bne	.L337
 968:Source\LwIP\src\core/tcp.c ****     }
 4206              		.loc 1 968 0 is_stmt 0 discriminator 1
 4207 0100 DA68     		ldr	r2, [r3, #12]
 4208 0102 1C4B     		ldr	r3, .L352+8
 4209 0104 1A60     		str	r2, [r3]
 4210 0106 08E0     		b	.L338
 4211              	.LVL444:
 4212              	.L339:
 4213              	.LBB22:
 968:Source\LwIP\src\core/tcp.c ****     }
 4214              		.loc 1 968 0 discriminator 9
 4215 0108 DA68     		ldr	r2, [r3, #12]
 4216 010a 9442     		cmp	r4, r2
 4217 010c 02D1     		bne	.L351
 968:Source\LwIP\src\core/tcp.c ****     }
 4218              		.loc 1 968 0 discriminator 5
 4219 010e E268     		ldr	r2, [r4, #12]
 4220 0110 DA60     		str	r2, [r3, #12]
 4221 0112 02E0     		b	.L338
 4222              	.L351:
 968:Source\LwIP\src\core/tcp.c ****     }
 4223              		.loc 1 968 0
 4224 0114 1300     		movs	r3, r2
 4225              	.LVL445:
 4226              	.L337:
 968:Source\LwIP\src\core/tcp.c ****     }
 4227              		.loc 1 968 0 discriminator 8
 4228 0116 002B     		cmp	r3, #0
 4229 0118 F6D1     		bne	.L339
 4230              	.LVL446:
ARM GAS  C:\Users\Phuong\AppData\Local\Temp\cczg95Bp.s 			page 121


 4231              	.L338:
 4232              	.LBE22:
 968:Source\LwIP\src\core/tcp.c ****     }
 4233              		.loc 1 968 0 discriminator 10
 4234 011a 0023     		movs	r3, #0
 4235 011c E360     		str	r3, [r4, #12]
 4236              	.L336:
 970:Source\LwIP\src\core/tcp.c ****     MIB2_STATS_INC(mib2.tcpactiveopens);
 4237              		.loc 1 970 0 is_stmt 1
 4238 011e 164B     		ldr	r3, .L352+12
 4239 0120 1A68     		ldr	r2, [r3]
 4240 0122 E260     		str	r2, [r4, #12]
 4241 0124 1C60     		str	r4, [r3]
 4242 0126 FFF7FEFF 		bl	tcp_timer_needed
 4243              	.LVL447:
 4244 012a 0122     		movs	r2, #1
 4245 012c 134B     		ldr	r3, .L352+16
 4246 012e 1A70     		strb	r2, [r3]
 973:Source\LwIP\src\core/tcp.c ****   }
 4247              		.loc 1 973 0
 4248 0130 2000     		movs	r0, r4
 4249 0132 FFF7FEFF 		bl	tcp_output
 4250              	.LVL448:
 975:Source\LwIP\src\core/tcp.c **** }
 4251              		.loc 1 975 0
 4252 0136 3000     		movs	r0, r6
 4253 0138 14E0     		b	.L324
 4254              	.LVL449:
 4255              	.L340:
 885:Source\LwIP\src\core/tcp.c ****   }
 4256              		.loc 1 885 0
 4257 013a 0620     		movs	r0, #6
 4258              	.LVL450:
 4259 013c 4042     		rsbs	r0, r0, #0
 4260 013e 11E0     		b	.L324
 4261              	.LVL451:
 4262              	.L341:
 4263 0140 0620     		movs	r0, #6
 4264              	.LVL452:
 4265 0142 4042     		rsbs	r0, r0, #0
 4266 0144 0EE0     		b	.L324
 4267              	.LVL453:
 4268              	.L342:
 888:Source\LwIP\src\core/tcp.c **** 
 4269              		.loc 1 888 0
 4270 0146 0A20     		movs	r0, #10
 4271              	.LVL454:
 4272 0148 4042     		rsbs	r0, r0, #0
 4273 014a 0BE0     		b	.L324
 4274              	.LVL455:
 4275              	.L345:
 4276              	.LBB23:
 903:Source\LwIP\src\core/tcp.c ****     }
 4277              		.loc 1 903 0
 4278 014c 0420     		movs	r0, #4
 4279              	.LVL456:
 4280 014e 4042     		rsbs	r0, r0, #0
ARM GAS  C:\Users\Phuong\AppData\Local\Temp\cczg95Bp.s 			page 122


 4281 0150 08E0     		b	.L324
 4282              	.LVL457:
 4283              	.L346:
 4284 0152 0420     		movs	r0, #4
 4285              	.LVL458:
 4286 0154 4042     		rsbs	r0, r0, #0
 4287 0156 05E0     		b	.L324
 4288              	.LVL459:
 4289              	.L347:
 4290              	.LBE23:
 913:Source\LwIP\src\core/tcp.c ****     }
 4291              		.loc 1 913 0
 4292 0158 0220     		movs	r0, #2
 4293 015a 4042     		rsbs	r0, r0, #0
 4294 015c 02E0     		b	.L324
 4295              	.LVL460:
 4296              	.L349:
 4297              	.LBB24:
 930:Source\LwIP\src\core/tcp.c ****           }
 4298              		.loc 1 930 0
 4299 015e 0820     		movs	r0, #8
 4300 0160 4042     		rsbs	r0, r0, #0
 4301 0162 FFE7     		b	.L324
 4302              	.LVL461:
 4303              	.L350:
 4304              	.L324:
 4305              	.LBE24:
 976:Source\LwIP\src\core/tcp.c **** 
 4306              		.loc 1 976 0
 4307              		@ sp needed
 4308              	.LVL462:
 4309              	.LVL463:
 4310 0164 04BC     		pop	{r2}
 4311 0166 9046     		mov	r8, r2
 4312 0168 F0BD     		pop	{r4, r5, r6, r7, pc}
 4313              	.L353:
 4314 016a C046     		.align	2
 4315              	.L352:
 4316 016c 00000000 		.word	.LANCHOR0
 4317 0170 D0160000 		.word	5840
 4318 0174 00000000 		.word	tcp_bound_pcbs
 4319 0178 00000000 		.word	tcp_active_pcbs
 4320 017c 00000000 		.word	tcp_active_pcbs_changed
 4321              		.cfi_endproc
 4322              	.LFE72:
 4323              		.size	tcp_connect, .-tcp_connect
 4324              		.section	.text.tcp_netif_ip_addr_changed,"ax",%progbits
 4325              		.align	2
 4326              		.global	tcp_netif_ip_addr_changed
 4327              		.code	16
 4328              		.thumb_func
 4329              		.type	tcp_netif_ip_addr_changed, %function
 4330              	tcp_netif_ip_addr_changed:
 4331              	.LFB99:
1999:Source\LwIP\src\core/tcp.c **** 
2000:Source\LwIP\src\core/tcp.c **** /** This function is called from netif.c when address is changed or netif is removed
2001:Source\LwIP\src\core/tcp.c ****  *
ARM GAS  C:\Users\Phuong\AppData\Local\Temp\cczg95Bp.s 			page 123


2002:Source\LwIP\src\core/tcp.c ****  * @param old_addr IP address of the netif before change
2003:Source\LwIP\src\core/tcp.c ****  * @param new_addr IP address of the netif after change or NULL if netif has been removed
2004:Source\LwIP\src\core/tcp.c ****  */
2005:Source\LwIP\src\core/tcp.c **** void
2006:Source\LwIP\src\core/tcp.c **** tcp_netif_ip_addr_changed(const ip_addr_t* old_addr, const ip_addr_t* new_addr)
2007:Source\LwIP\src\core/tcp.c **** {
 4332              		.loc 1 2007 0
 4333              		.cfi_startproc
 4334              		@ args = 0, pretend = 0, frame = 0
 4335              		@ frame_needed = 0, uses_anonymous_args = 0
 4336              	.LVL464:
 4337 0000 70B5     		push	{r4, r5, r6, lr}
 4338              		.cfi_def_cfa_offset 16
 4339              		.cfi_offset 4, -16
 4340              		.cfi_offset 5, -12
 4341              		.cfi_offset 6, -8
 4342              		.cfi_offset 14, -4
 4343 0002 0400     		movs	r4, r0
 4344 0004 0D00     		movs	r5, r1
2008:Source\LwIP\src\core/tcp.c ****   struct tcp_pcb_listen *lpcb, *next;
2009:Source\LwIP\src\core/tcp.c **** 
2010:Source\LwIP\src\core/tcp.c ****   if (!ip_addr_isany(old_addr)) {
 4345              		.loc 1 2010 0
 4346 0006 0028     		cmp	r0, #0
 4347 0008 1DD0     		beq	.L354
 4348              		.loc 1 2010 0 is_stmt 0 discriminator 1
 4349 000a 0368     		ldr	r3, [r0]
 4350 000c 002B     		cmp	r3, #0
 4351 000e 1AD0     		beq	.L354
2011:Source\LwIP\src\core/tcp.c ****     tcp_netif_ip_addr_changed_pcblist(old_addr, tcp_active_pcbs);
 4352              		.loc 1 2011 0 is_stmt 1
 4353 0010 0D4B     		ldr	r3, .L359
 4354 0012 1968     		ldr	r1, [r3]
 4355              	.LVL465:
 4356 0014 FFF7FEFF 		bl	tcp_netif_ip_addr_changed_pcblist
 4357              	.LVL466:
2012:Source\LwIP\src\core/tcp.c ****     tcp_netif_ip_addr_changed_pcblist(old_addr, tcp_bound_pcbs);
 4358              		.loc 1 2012 0
 4359 0018 0C4B     		ldr	r3, .L359+4
 4360 001a 1968     		ldr	r1, [r3]
 4361 001c 2000     		movs	r0, r4
 4362 001e FFF7FEFF 		bl	tcp_netif_ip_addr_changed_pcblist
 4363              	.LVL467:
2013:Source\LwIP\src\core/tcp.c **** 
2014:Source\LwIP\src\core/tcp.c ****     if (!ip_addr_isany(new_addr)) {
 4364              		.loc 1 2014 0
 4365 0022 002D     		cmp	r5, #0
 4366 0024 0FD0     		beq	.L354
 4367              		.loc 1 2014 0 is_stmt 0 discriminator 1
 4368 0026 2B68     		ldr	r3, [r5]
 4369 0028 002B     		cmp	r3, #0
 4370 002a 0CD0     		beq	.L354
2015:Source\LwIP\src\core/tcp.c ****       /* PCB bound to current local interface address? */
2016:Source\LwIP\src\core/tcp.c ****       for (lpcb = tcp_listen_pcbs.listen_pcbs; lpcb != NULL; lpcb = next) {
 4371              		.loc 1 2016 0 is_stmt 1
 4372 002c 084B     		ldr	r3, .L359+8
 4373 002e 1B68     		ldr	r3, [r3]
ARM GAS  C:\Users\Phuong\AppData\Local\Temp\cczg95Bp.s 			page 124


 4374              	.LVL468:
 4375 0030 07E0     		b	.L356
 4376              	.L358:
2017:Source\LwIP\src\core/tcp.c ****         next = lpcb->next;
 4377              		.loc 1 2017 0
 4378 0032 DA68     		ldr	r2, [r3, #12]
 4379              	.LVL469:
2018:Source\LwIP\src\core/tcp.c ****         /* PCB bound to current local interface address? */
2019:Source\LwIP\src\core/tcp.c ****         if (ip_addr_cmp(&lpcb->local_ip, old_addr)) {
 4380              		.loc 1 2019 0
 4381 0034 1968     		ldr	r1, [r3]
 4382 0036 2068     		ldr	r0, [r4]
 4383 0038 8142     		cmp	r1, r0
 4384 003a 01D1     		bne	.L357
2020:Source\LwIP\src\core/tcp.c ****           /* The PCB is listening to the old ipaddr and
2021:Source\LwIP\src\core/tcp.c ****             * is set to listen to the new one instead */
2022:Source\LwIP\src\core/tcp.c ****           ip_addr_copy(lpcb->local_ip, *new_addr);
 4385              		.loc 1 2022 0
 4386 003c 2968     		ldr	r1, [r5]
 4387 003e 1960     		str	r1, [r3]
 4388              	.L357:
2007:Source\LwIP\src\core/tcp.c ****   struct tcp_pcb_listen *lpcb, *next;
 4389              		.loc 1 2007 0 discriminator 1
 4390 0040 1300     		movs	r3, r2
 4391              	.LVL470:
 4392              	.L356:
2016:Source\LwIP\src\core/tcp.c ****         next = lpcb->next;
 4393              		.loc 1 2016 0 discriminator 1
 4394 0042 002B     		cmp	r3, #0
 4395 0044 F5D1     		bne	.L358
 4396              	.LVL471:
 4397              	.L354:
2023:Source\LwIP\src\core/tcp.c ****         }
2024:Source\LwIP\src\core/tcp.c ****       }
2025:Source\LwIP\src\core/tcp.c ****     }
2026:Source\LwIP\src\core/tcp.c ****   }
2027:Source\LwIP\src\core/tcp.c **** }
 4398              		.loc 1 2027 0
 4399              		@ sp needed
 4400              	.LVL472:
 4401              	.LVL473:
 4402 0046 70BD     		pop	{r4, r5, r6, pc}
 4403              	.L360:
 4404              		.align	2
 4405              	.L359:
 4406 0048 00000000 		.word	tcp_active_pcbs
 4407 004c 00000000 		.word	tcp_bound_pcbs
 4408 0050 00000000 		.word	tcp_listen_pcbs
 4409              		.cfi_endproc
 4410              	.LFE99:
 4411              		.size	tcp_netif_ip_addr_changed, .-tcp_netif_ip_addr_changed
 4412              		.section	.text.tcp_debug_state_str,"ax",%progbits
 4413              		.align	2
 4414              		.global	tcp_debug_state_str
 4415              		.code	16
 4416              		.thumb_func
 4417              		.type	tcp_debug_state_str, %function
ARM GAS  C:\Users\Phuong\AppData\Local\Temp\cczg95Bp.s 			page 125


 4418              	tcp_debug_state_str:
 4419              	.LFB100:
2028:Source\LwIP\src\core/tcp.c **** 
2029:Source\LwIP\src\core/tcp.c **** const char*
2030:Source\LwIP\src\core/tcp.c **** tcp_debug_state_str(enum tcp_state s)
2031:Source\LwIP\src\core/tcp.c **** {
 4420              		.loc 1 2031 0
 4421              		.cfi_startproc
 4422              		@ args = 0, pretend = 0, frame = 0
 4423              		@ frame_needed = 0, uses_anonymous_args = 0
 4424              		@ link register save eliminated.
 4425              	.LVL474:
2032:Source\LwIP\src\core/tcp.c ****   return tcp_state_str[s];
 4426              		.loc 1 2032 0
 4427 0000 8000     		lsls	r0, r0, #2
 4428              	.LVL475:
 4429 0002 024B     		ldr	r3, .L362
 4430 0004 1818     		adds	r0, r3, r0
 4431 0006 806A     		ldr	r0, [r0, #40]
2033:Source\LwIP\src\core/tcp.c **** }
 4432              		.loc 1 2033 0
 4433              		@ sp needed
 4434 0008 7047     		bx	lr
 4435              	.L363:
 4436 000a C046     		.align	2
 4437              	.L362:
 4438 000c 00000000 		.word	.LANCHOR0
 4439              		.cfi_endproc
 4440              	.LFE100:
 4441              		.size	tcp_debug_state_str, .-tcp_debug_state_str
 4442              		.comm	tcp_active_pcbs_changed,1,1
 4443              		.global	tcp_pcb_lists
 4444              		.comm	tcp_tw_pcbs,4,4
 4445              		.comm	tcp_active_pcbs,4,4
 4446              		.comm	tcp_listen_pcbs,4,4
 4447              		.comm	tcp_bound_pcbs,4,4
 4448              		.comm	tcp_ticks,4,4
 4449              		.section	.rodata
 4450              		.align	2
 4451              		.set	.LANCHOR0,. + 0
 4452              		.type	tcp_pcb_lists, %object
 4453              		.size	tcp_pcb_lists, 16
 4454              	tcp_pcb_lists:
 4455 0000 00000000 		.word	tcp_listen_pcbs
 4456 0004 00000000 		.word	tcp_bound_pcbs
 4457 0008 00000000 		.word	tcp_active_pcbs
 4458 000c 00000000 		.word	tcp_tw_pcbs
 4459              		.type	tcp_persist_backoff, %object
 4460              		.size	tcp_persist_backoff, 7
 4461              	tcp_persist_backoff:
 4462 0010 03       		.byte	3
 4463 0011 06       		.byte	6
 4464 0012 0C       		.byte	12
 4465 0013 18       		.byte	24
 4466 0014 30       		.byte	48
 4467 0015 60       		.byte	96
 4468 0016 78       		.byte	120
ARM GAS  C:\Users\Phuong\AppData\Local\Temp\cczg95Bp.s 			page 126


 4469 0017 00       		.space	1
 4470              		.type	tcp_backoff, %object
 4471              		.size	tcp_backoff, 13
 4472              	tcp_backoff:
 4473 0018 01       		.byte	1
 4474 0019 02       		.byte	2
 4475 001a 03       		.byte	3
 4476 001b 04       		.byte	4
 4477 001c 05       		.byte	5
 4478 001d 06       		.byte	6
 4479 001e 07       		.byte	7
 4480 001f 07       		.byte	7
 4481 0020 07       		.byte	7
 4482 0021 07       		.byte	7
 4483 0022 07       		.byte	7
 4484 0023 07       		.byte	7
 4485 0024 07       		.byte	7
 4486 0025 000000   		.space	3
 4487              		.type	tcp_state_str, %object
 4488              		.size	tcp_state_str, 44
 4489              	tcp_state_str:
 4490 0028 1C000000 		.word	.LC55
 4491 002c 24000000 		.word	.LC56
 4492 0030 2C000000 		.word	.LC57
 4493 0034 38000000 		.word	.LC58
 4494 0038 44000000 		.word	.LC59
 4495 003c 50000000 		.word	.LC60
 4496 0040 5C000000 		.word	.LC61
 4497 0044 68000000 		.word	.LC62
 4498 0048 74000000 		.word	.LC63
 4499 004c 7C000000 		.word	.LC64
 4500 0050 88000000 		.word	.LC65
 4501              		.data
 4502              		.align	2
 4503              		.set	.LANCHOR1,. + 0
 4504              		.type	tcp_port, %object
 4505              		.size	tcp_port, 2
 4506              	tcp_port:
 4507 0000 00C0     		.short	-16384
 4508 0002 0000     		.space	2
 4509              		.type	iss.12762, %object
 4510              		.size	iss.12762, 4
 4511              	iss.12762:
 4512 0004 6E190000 		.word	6510
 4513              		.section	.rodata.str1.4,"aMS",%progbits,1
 4514              		.align	2
 4515              	.LC8:
 4516 0000 536F7572 		.ascii	"Source\\LwIP\\src\\core\\tcp.c\000"
 4516      63655C4C 
 4516      7749505C 
 4516      7372635C 
 4516      636F7265 
 4517 001b 00       		.space	1
 4518              	.LC55:
 4519 001c 434C4F53 		.ascii	"CLOSED\000"
 4519      454400
 4520 0023 00       		.space	1
ARM GAS  C:\Users\Phuong\AppData\Local\Temp\cczg95Bp.s 			page 127


 4521              	.LC56:
 4522 0024 4C495354 		.ascii	"LISTEN\000"
 4522      454E00
 4523 002b 00       		.space	1
 4524              	.LC57:
 4525 002c 53594E5F 		.ascii	"SYN_SENT\000"
 4525      53454E54 
 4525      00
 4526 0035 000000   		.space	3
 4527              	.LC58:
 4528 0038 53594E5F 		.ascii	"SYN_RCVD\000"
 4528      52435644 
 4528      00
 4529 0041 000000   		.space	3
 4530              	.LC59:
 4531 0044 45535441 		.ascii	"ESTABLISHED\000"
 4531      424C4953 
 4531      48454400 
 4532              	.LC60:
 4533 0050 46494E5F 		.ascii	"FIN_WAIT_1\000"
 4533      57414954 
 4533      5F3100
 4534 005b 00       		.space	1
 4535              	.LC61:
 4536 005c 46494E5F 		.ascii	"FIN_WAIT_2\000"
 4536      57414954 
 4536      5F3200
 4537 0067 00       		.space	1
 4538              	.LC62:
 4539 0068 434C4F53 		.ascii	"CLOSE_WAIT\000"
 4539      455F5741 
 4539      495400
 4540 0073 00       		.space	1
 4541              	.LC63:
 4542 0074 434C4F53 		.ascii	"CLOSING\000"
 4542      494E4700 
 4543              	.LC64:
 4544 007c 4C415354 		.ascii	"LAST_ACK\000"
 4544      5F41434B 
 4544      00
 4545 0085 000000   		.space	3
 4546              	.LC65:
 4547 0088 54494D45 		.ascii	"TIME_WAIT\000"
 4547      5F574149 
 4547      5400
 4548              		.bss
 4549              		.set	.LANCHOR2,. + 0
 4550              		.type	tcp_timer_ctr, %object
 4551              		.size	tcp_timer_ctr, 1
 4552              	tcp_timer_ctr:
 4553 0000 00       		.space	1
 4554              		.type	tcp_timer, %object
 4555              		.size	tcp_timer, 1
 4556              	tcp_timer:
 4557 0001 00       		.space	1
 4558              		.text
 4559              	.Letext0:
ARM GAS  C:\Users\Phuong\AppData\Local\Temp\cczg95Bp.s 			page 128


 4560              		.file 2 "c:\\program files (x86)\\cypress\\psoc creator\\4.2\\psoc creator\\import\\gnu\\arm\\5.4.
 4561              		.file 3 "c:\\program files (x86)\\cypress\\psoc creator\\4.2\\psoc creator\\import\\gnu\\arm\\5.4.
 4562              		.file 4 "c:\\program files (x86)\\cypress\\psoc creator\\4.2\\psoc creator\\import\\gnu\\arm\\5.4.
 4563              		.file 5 ".\\Source\\LwIP\\src\\include/arch/cc.h"
 4564              		.file 6 ".\\Source\\LwIP\\src\\include/lwip/mem.h"
 4565              		.file 7 ".\\Source\\LwIP\\src\\include/lwip/stats.h"
 4566              		.file 8 ".\\Source\\LwIP\\src\\include/lwip/err.h"
 4567              		.file 9 ".\\Source\\LwIP\\src\\include/lwip/memp.h"
 4568              		.file 10 ".\\Source\\LwIP\\src\\include/lwip/pbuf.h"
 4569              		.file 11 ".\\Source\\LwIP\\src\\include/lwip/ip4_addr.h"
 4570              		.file 12 ".\\Source\\LwIP\\src\\include/lwip/ip_addr.h"
 4571              		.file 13 ".\\Source\\LwIP\\src\\include/lwip/netif.h"
 4572              		.file 14 ".\\Source\\LwIP\\src\\include/lwip/tcp.h"
 4573              		.file 15 ".\\Source\\LwIP\\src\\include/lwip/priv/tcp_priv.h"
 4574              		.file 16 ".\\Source\\LwIP\\src\\include/lwip/prot/tcp.h"
 4575              		.file 17 ".\\Source\\LwIP\\src\\include/arch/sys_arch.h"
 4576              		.file 18 ".\\Source\\LwIP\\src\\include/lwip/ip4.h"
 4577              		.section	.debug_info,"",%progbits
 4578              	.Ldebug_info0:
 4579 0000 E1250000 		.4byte	0x25e1
 4580 0004 0400     		.2byte	0x4
 4581 0006 00000000 		.4byte	.Ldebug_abbrev0
 4582 000a 04       		.byte	0x4
 4583 000b 01       		.uleb128 0x1
 4584 000c 3D030000 		.4byte	.LASF338
 4585 0010 0C       		.byte	0xc
 4586 0011 430D0000 		.4byte	.LASF339
 4587 0015 D6040000 		.4byte	.LASF340
 4588 0019 50000000 		.4byte	.Ldebug_ranges0+0x50
 4589 001d 00000000 		.4byte	0
 4590 0021 00000000 		.4byte	.Ldebug_line0
 4591 0025 02       		.uleb128 0x2
 4592 0026 01       		.byte	0x1
 4593 0027 06       		.byte	0x6
 4594 0028 0C0F0000 		.4byte	.LASF0
 4595 002c 02       		.uleb128 0x2
 4596 002d 01       		.byte	0x1
 4597 002e 08       		.byte	0x8
 4598 002f BF0A0000 		.4byte	.LASF1
 4599 0033 02       		.uleb128 0x2
 4600 0034 02       		.byte	0x2
 4601 0035 05       		.byte	0x5
 4602 0036 1E0B0000 		.4byte	.LASF2
 4603 003a 02       		.uleb128 0x2
 4604 003b 02       		.byte	0x2
 4605 003c 07       		.byte	0x7
 4606 003d 280F0000 		.4byte	.LASF3
 4607 0041 02       		.uleb128 0x2
 4608 0042 04       		.byte	0x4
 4609 0043 05       		.byte	0x5
 4610 0044 380B0000 		.4byte	.LASF4
 4611 0048 03       		.uleb128 0x3
 4612 0049 9F0A0000 		.4byte	.LASF9
 4613 004d 02       		.byte	0x2
 4614 004e 41       		.byte	0x41
 4615 004f 53000000 		.4byte	0x53
 4616 0053 02       		.uleb128 0x2
ARM GAS  C:\Users\Phuong\AppData\Local\Temp\cczg95Bp.s 			page 129


 4617 0054 04       		.byte	0x4
 4618 0055 07       		.byte	0x7
 4619 0056 C70C0000 		.4byte	.LASF5
 4620 005a 02       		.uleb128 0x2
 4621 005b 08       		.byte	0x8
 4622 005c 05       		.byte	0x5
 4623 005d 4B080000 		.4byte	.LASF6
 4624 0061 02       		.uleb128 0x2
 4625 0062 08       		.byte	0x8
 4626 0063 07       		.byte	0x7
 4627 0064 25040000 		.4byte	.LASF7
 4628 0068 04       		.uleb128 0x4
 4629 0069 04       		.byte	0x4
 4630 006a 05       		.byte	0x5
 4631 006b 696E7400 		.ascii	"int\000"
 4632 006f 02       		.uleb128 0x2
 4633 0070 04       		.byte	0x4
 4634 0071 07       		.byte	0x7
 4635 0072 0D010000 		.4byte	.LASF8
 4636 0076 03       		.uleb128 0x3
 4637 0077 EF050000 		.4byte	.LASF10
 4638 007b 03       		.byte	0x3
 4639 007c D8       		.byte	0xd8
 4640 007d 6F000000 		.4byte	0x6f
 4641 0081 02       		.uleb128 0x2
 4642 0082 08       		.byte	0x8
 4643 0083 04       		.byte	0x4
 4644 0084 510A0000 		.4byte	.LASF11
 4645 0088 05       		.uleb128 0x5
 4646 0089 04       		.byte	0x4
 4647 008a 02       		.uleb128 0x2
 4648 008b 04       		.byte	0x4
 4649 008c 07       		.byte	0x7
 4650 008d BE0C0000 		.4byte	.LASF12
 4651 0091 02       		.uleb128 0x2
 4652 0092 01       		.byte	0x1
 4653 0093 08       		.byte	0x8
 4654 0094 63000000 		.4byte	.LASF13
 4655 0098 06       		.uleb128 0x6
 4656 0099 04       		.byte	0x4
 4657 009a 9E000000 		.4byte	0x9e
 4658 009e 07       		.uleb128 0x7
 4659 009f 91000000 		.4byte	0x91
 4660 00a3 03       		.uleb128 0x3
 4661 00a4 B6020000 		.4byte	.LASF14
 4662 00a8 04       		.byte	0x4
 4663 00a9 30       		.byte	0x30
 4664 00aa 48000000 		.4byte	0x48
 4665 00ae 02       		.uleb128 0x2
 4666 00af 04       		.byte	0x4
 4667 00b0 04       		.byte	0x4
 4668 00b1 F70C0000 		.4byte	.LASF15
 4669 00b5 02       		.uleb128 0x2
 4670 00b6 08       		.byte	0x8
 4671 00b7 04       		.byte	0x4
 4672 00b8 740F0000 		.4byte	.LASF16
 4673 00bc 08       		.uleb128 0x8
ARM GAS  C:\Users\Phuong\AppData\Local\Temp\cczg95Bp.s 			page 130


 4674 00bd 88000000 		.4byte	0x88
 4675 00c1 CC000000 		.4byte	0xcc
 4676 00c5 09       		.uleb128 0x9
 4677 00c6 8A000000 		.4byte	0x8a
 4678 00ca 01       		.byte	0x1
 4679 00cb 00       		.byte	0
 4680 00cc 07       		.uleb128 0x7
 4681 00cd 98000000 		.4byte	0x98
 4682 00d1 03       		.uleb128 0x3
 4683 00d2 D1080000 		.4byte	.LASF17
 4684 00d6 05       		.byte	0x5
 4685 00d7 31       		.byte	0x31
 4686 00d8 2C000000 		.4byte	0x2c
 4687 00dc 03       		.uleb128 0x3
 4688 00dd AC060000 		.4byte	.LASF18
 4689 00e1 05       		.byte	0x5
 4690 00e2 32       		.byte	0x32
 4691 00e3 25000000 		.4byte	0x25
 4692 00e7 03       		.uleb128 0x3
 4693 00e8 990A0000 		.4byte	.LASF19
 4694 00ec 05       		.byte	0x5
 4695 00ed 33       		.byte	0x33
 4696 00ee 3A000000 		.4byte	0x3a
 4697 00f2 03       		.uleb128 0x3
 4698 00f3 040D0000 		.4byte	.LASF20
 4699 00f7 05       		.byte	0x5
 4700 00f8 34       		.byte	0x34
 4701 00f9 33000000 		.4byte	0x33
 4702 00fd 03       		.uleb128 0x3
 4703 00fe 180B0000 		.4byte	.LASF21
 4704 0102 05       		.byte	0x5
 4705 0103 35       		.byte	0x35
 4706 0104 53000000 		.4byte	0x53
 4707 0108 03       		.uleb128 0x3
 4708 0109 B1060000 		.4byte	.LASF22
 4709 010d 05       		.byte	0x5
 4710 010e 36       		.byte	0x36
 4711 010f 41000000 		.4byte	0x41
 4712 0113 03       		.uleb128 0x3
 4713 0114 4C070000 		.4byte	.LASF23
 4714 0118 06       		.byte	0x6
 4715 0119 32       		.byte	0x32
 4716 011a 76000000 		.4byte	0x76
 4717 011e 0A       		.uleb128 0xa
 4718 011f 01       		.byte	0x1
 4719 0120 2C000000 		.4byte	0x2c
 4720 0124 09       		.byte	0x9
 4721 0125 34       		.byte	0x34
 4722 0126 91010000 		.4byte	0x191
 4723 012a 0B       		.uleb128 0xb
 4724 012b FB0A0000 		.4byte	.LASF24
 4725 012f 00       		.byte	0
 4726 0130 0B       		.uleb128 0xb
 4727 0131 8D0B0000 		.4byte	.LASF25
 4728 0135 01       		.byte	0x1
 4729 0136 0B       		.uleb128 0xb
 4730 0137 C4080000 		.4byte	.LASF26
ARM GAS  C:\Users\Phuong\AppData\Local\Temp\cczg95Bp.s 			page 131


 4731 013b 02       		.byte	0x2
 4732 013c 0B       		.uleb128 0xb
 4733 013d 2A000000 		.4byte	.LASF27
 4734 0141 03       		.byte	0x3
 4735 0142 0B       		.uleb128 0xb
 4736 0143 BE0D0000 		.4byte	.LASF28
 4737 0147 04       		.byte	0x4
 4738 0148 0B       		.uleb128 0xb
 4739 0149 8E090000 		.4byte	.LASF29
 4740 014d 05       		.byte	0x5
 4741 014e 0B       		.uleb128 0xb
 4742 014f 37080000 		.4byte	.LASF30
 4743 0153 06       		.byte	0x6
 4744 0154 0B       		.uleb128 0xb
 4745 0155 BF020000 		.4byte	.LASF31
 4746 0159 07       		.byte	0x7
 4747 015a 0B       		.uleb128 0xb
 4748 015b 05030000 		.4byte	.LASF32
 4749 015f 08       		.byte	0x8
 4750 0160 0B       		.uleb128 0xb
 4751 0161 83050000 		.4byte	.LASF33
 4752 0165 09       		.byte	0x9
 4753 0166 0B       		.uleb128 0xb
 4754 0167 DF030000 		.4byte	.LASF34
 4755 016b 0A       		.byte	0xa
 4756 016c 0B       		.uleb128 0xb
 4757 016d D1020000 		.4byte	.LASF35
 4758 0171 0B       		.byte	0xb
 4759 0172 0B       		.uleb128 0xb
 4760 0173 710B0000 		.4byte	.LASF36
 4761 0177 0C       		.byte	0xc
 4762 0178 0B       		.uleb128 0xb
 4763 0179 C80F0000 		.4byte	.LASF37
 4764 017d 0D       		.byte	0xd
 4765 017e 0B       		.uleb128 0xb
 4766 017f 29070000 		.4byte	.LASF38
 4767 0183 0E       		.byte	0xe
 4768 0184 0B       		.uleb128 0xb
 4769 0185 13020000 		.4byte	.LASF39
 4770 0189 0F       		.byte	0xf
 4771 018a 0B       		.uleb128 0xb
 4772 018b 99060000 		.4byte	.LASF40
 4773 018f 10       		.byte	0x10
 4774 0190 00       		.byte	0
 4775 0191 0C       		.uleb128 0xc
 4776 0192 D0010000 		.4byte	.LASF45
 4777 0196 18       		.byte	0x18
 4778 0197 07       		.byte	0x7
 4779 0198 62       		.byte	0x62
 4780 0199 E6010000 		.4byte	0x1e6
 4781 019d 0D       		.uleb128 0xd
 4782 019e 2E0C0000 		.4byte	.LASF41
 4783 01a2 07       		.byte	0x7
 4784 01a3 64       		.byte	0x64
 4785 01a4 98000000 		.4byte	0x98
 4786 01a8 00       		.byte	0
 4787 01a9 0E       		.uleb128 0xe
ARM GAS  C:\Users\Phuong\AppData\Local\Temp\cczg95Bp.s 			page 132


 4788 01aa 65727200 		.ascii	"err\000"
 4789 01ae 07       		.byte	0x7
 4790 01af 66       		.byte	0x66
 4791 01b0 E7000000 		.4byte	0xe7
 4792 01b4 04       		.byte	0x4
 4793 01b5 0D       		.uleb128 0xd
 4794 01b6 470B0000 		.4byte	.LASF42
 4795 01ba 07       		.byte	0x7
 4796 01bb 67       		.byte	0x67
 4797 01bc 13010000 		.4byte	0x113
 4798 01c0 08       		.byte	0x8
 4799 01c1 0D       		.uleb128 0xd
 4800 01c2 98050000 		.4byte	.LASF43
 4801 01c6 07       		.byte	0x7
 4802 01c7 68       		.byte	0x68
 4803 01c8 13010000 		.4byte	0x113
 4804 01cc 0C       		.byte	0xc
 4805 01cd 0E       		.uleb128 0xe
 4806 01ce 6D617800 		.ascii	"max\000"
 4807 01d2 07       		.byte	0x7
 4808 01d3 69       		.byte	0x69
 4809 01d4 13010000 		.4byte	0x113
 4810 01d8 10       		.byte	0x10
 4811 01d9 0D       		.uleb128 0xd
 4812 01da 44070000 		.4byte	.LASF44
 4813 01de 07       		.byte	0x7
 4814 01df 6A       		.byte	0x6a
 4815 01e0 E7000000 		.4byte	0xe7
 4816 01e4 14       		.byte	0x14
 4817 01e5 00       		.byte	0
 4818 01e6 06       		.uleb128 0x6
 4819 01e7 04       		.byte	0x4
 4820 01e8 91010000 		.4byte	0x191
 4821 01ec 0C       		.uleb128 0xc
 4822 01ed 67070000 		.4byte	.LASF46
 4823 01f1 18       		.byte	0x18
 4824 01f2 07       		.byte	0x7
 4825 01f3 40       		.byte	0x40
 4826 01f4 88020000 		.4byte	0x288
 4827 01f8 0D       		.uleb128 0xd
 4828 01f9 320E0000 		.4byte	.LASF47
 4829 01fd 07       		.byte	0x7
 4830 01fe 41       		.byte	0x41
 4831 01ff E7000000 		.4byte	0xe7
 4832 0203 00       		.byte	0
 4833 0204 0D       		.uleb128 0xd
 4834 0205 E50E0000 		.4byte	.LASF48
 4835 0209 07       		.byte	0x7
 4836 020a 42       		.byte	0x42
 4837 020b E7000000 		.4byte	0xe7
 4838 020f 02       		.byte	0x2
 4839 0210 0E       		.uleb128 0xe
 4840 0211 667700   		.ascii	"fw\000"
 4841 0214 07       		.byte	0x7
 4842 0215 43       		.byte	0x43
 4843 0216 E7000000 		.4byte	0xe7
 4844 021a 04       		.byte	0x4
ARM GAS  C:\Users\Phuong\AppData\Local\Temp\cczg95Bp.s 			page 133


 4845 021b 0D       		.uleb128 0xd
 4846 021c 370E0000 		.4byte	.LASF49
 4847 0220 07       		.byte	0x7
 4848 0221 44       		.byte	0x44
 4849 0222 E7000000 		.4byte	0xe7
 4850 0226 06       		.byte	0x6
 4851 0227 0D       		.uleb128 0xd
 4852 0228 87090000 		.4byte	.LASF50
 4853 022c 07       		.byte	0x7
 4854 022d 45       		.byte	0x45
 4855 022e E7000000 		.4byte	0xe7
 4856 0232 08       		.byte	0x8
 4857 0233 0D       		.uleb128 0xd
 4858 0234 B70C0000 		.4byte	.LASF51
 4859 0238 07       		.byte	0x7
 4860 0239 46       		.byte	0x46
 4861 023a E7000000 		.4byte	0xe7
 4862 023e 0A       		.byte	0xa
 4863 023f 0D       		.uleb128 0xd
 4864 0240 B70D0000 		.4byte	.LASF52
 4865 0244 07       		.byte	0x7
 4866 0245 47       		.byte	0x47
 4867 0246 E7000000 		.4byte	0xe7
 4868 024a 0C       		.byte	0xc
 4869 024b 0D       		.uleb128 0xd
 4870 024c 410B0000 		.4byte	.LASF53
 4871 0250 07       		.byte	0x7
 4872 0251 48       		.byte	0x48
 4873 0252 E7000000 		.4byte	0xe7
 4874 0256 0E       		.byte	0xe
 4875 0257 0D       		.uleb128 0xd
 4876 0258 C6040000 		.4byte	.LASF54
 4877 025c 07       		.byte	0x7
 4878 025d 49       		.byte	0x49
 4879 025e E7000000 		.4byte	0xe7
 4880 0262 10       		.byte	0x10
 4881 0263 0D       		.uleb128 0xd
 4882 0264 25030000 		.4byte	.LASF55
 4883 0268 07       		.byte	0x7
 4884 0269 4A       		.byte	0x4a
 4885 026a E7000000 		.4byte	0xe7
 4886 026e 12       		.byte	0x12
 4887 026f 0E       		.uleb128 0xe
 4888 0270 65727200 		.ascii	"err\000"
 4889 0274 07       		.byte	0x7
 4890 0275 4B       		.byte	0x4b
 4891 0276 E7000000 		.4byte	0xe7
 4892 027a 14       		.byte	0x14
 4893 027b 0D       		.uleb128 0xd
 4894 027c 0A0C0000 		.4byte	.LASF56
 4895 0280 07       		.byte	0x7
 4896 0281 4C       		.byte	0x4c
 4897 0282 E7000000 		.4byte	0xe7
 4898 0286 16       		.byte	0x16
 4899 0287 00       		.byte	0
 4900 0288 0C       		.uleb128 0xc
 4901 0289 420F0000 		.4byte	.LASF57
ARM GAS  C:\Users\Phuong\AppData\Local\Temp\cczg95Bp.s 			page 134


 4902 028d 1C       		.byte	0x1c
 4903 028e 07       		.byte	0x7
 4904 028f 50       		.byte	0x50
 4905 0290 3D030000 		.4byte	0x33d
 4906 0294 0D       		.uleb128 0xd
 4907 0295 320E0000 		.4byte	.LASF47
 4908 0299 07       		.byte	0x7
 4909 029a 51       		.byte	0x51
 4910 029b E7000000 		.4byte	0xe7
 4911 029f 00       		.byte	0
 4912 02a0 0D       		.uleb128 0xd
 4913 02a1 E50E0000 		.4byte	.LASF48
 4914 02a5 07       		.byte	0x7
 4915 02a6 52       		.byte	0x52
 4916 02a7 E7000000 		.4byte	0xe7
 4917 02ab 02       		.byte	0x2
 4918 02ac 0D       		.uleb128 0xd
 4919 02ad 370E0000 		.4byte	.LASF49
 4920 02b1 07       		.byte	0x7
 4921 02b2 53       		.byte	0x53
 4922 02b3 E7000000 		.4byte	0xe7
 4923 02b7 04       		.byte	0x4
 4924 02b8 0D       		.uleb128 0xd
 4925 02b9 87090000 		.4byte	.LASF50
 4926 02bd 07       		.byte	0x7
 4927 02be 54       		.byte	0x54
 4928 02bf E7000000 		.4byte	0xe7
 4929 02c3 06       		.byte	0x6
 4930 02c4 0D       		.uleb128 0xd
 4931 02c5 B70C0000 		.4byte	.LASF51
 4932 02c9 07       		.byte	0x7
 4933 02ca 55       		.byte	0x55
 4934 02cb E7000000 		.4byte	0xe7
 4935 02cf 08       		.byte	0x8
 4936 02d0 0D       		.uleb128 0xd
 4937 02d1 B70D0000 		.4byte	.LASF52
 4938 02d5 07       		.byte	0x7
 4939 02d6 56       		.byte	0x56
 4940 02d7 E7000000 		.4byte	0xe7
 4941 02db 0A       		.byte	0xa
 4942 02dc 0D       		.uleb128 0xd
 4943 02dd C6040000 		.4byte	.LASF54
 4944 02e1 07       		.byte	0x7
 4945 02e2 57       		.byte	0x57
 4946 02e3 E7000000 		.4byte	0xe7
 4947 02e7 0C       		.byte	0xc
 4948 02e8 0D       		.uleb128 0xd
 4949 02e9 47040000 		.4byte	.LASF58
 4950 02ed 07       		.byte	0x7
 4951 02ee 58       		.byte	0x58
 4952 02ef E7000000 		.4byte	0xe7
 4953 02f3 0E       		.byte	0xe
 4954 02f4 0D       		.uleb128 0xd
 4955 02f5 4E100000 		.4byte	.LASF59
 4956 02f9 07       		.byte	0x7
 4957 02fa 59       		.byte	0x59
 4958 02fb E7000000 		.4byte	0xe7
ARM GAS  C:\Users\Phuong\AppData\Local\Temp\cczg95Bp.s 			page 135


 4959 02ff 10       		.byte	0x10
 4960 0300 0D       		.uleb128 0xd
 4961 0301 DF090000 		.4byte	.LASF60
 4962 0305 07       		.byte	0x7
 4963 0306 5A       		.byte	0x5a
 4964 0307 E7000000 		.4byte	0xe7
 4965 030b 12       		.byte	0x12
 4966 030c 0D       		.uleb128 0xd
 4967 030d DC060000 		.4byte	.LASF61
 4968 0311 07       		.byte	0x7
 4969 0312 5B       		.byte	0x5b
 4970 0313 E7000000 		.4byte	0xe7
 4971 0317 14       		.byte	0x14
 4972 0318 0D       		.uleb128 0xd
 4973 0319 2A0E0000 		.4byte	.LASF62
 4974 031d 07       		.byte	0x7
 4975 031e 5C       		.byte	0x5c
 4976 031f E7000000 		.4byte	0xe7
 4977 0323 16       		.byte	0x16
 4978 0324 0D       		.uleb128 0xd
 4979 0325 06040000 		.4byte	.LASF63
 4980 0329 07       		.byte	0x7
 4981 032a 5D       		.byte	0x5d
 4982 032b E7000000 		.4byte	0xe7
 4983 032f 18       		.byte	0x18
 4984 0330 0D       		.uleb128 0xd
 4985 0331 E40F0000 		.4byte	.LASF64
 4986 0335 07       		.byte	0x7
 4987 0336 5E       		.byte	0x5e
 4988 0337 E7000000 		.4byte	0xe7
 4989 033b 1A       		.byte	0x1a
 4990 033c 00       		.byte	0
 4991 033d 0C       		.uleb128 0xc
 4992 033e 76020000 		.4byte	.LASF65
 4993 0342 06       		.byte	0x6
 4994 0343 07       		.byte	0x7
 4995 0344 6E       		.byte	0x6e
 4996 0345 6E030000 		.4byte	0x36e
 4997 0349 0D       		.uleb128 0xd
 4998 034a 98050000 		.4byte	.LASF43
 4999 034e 07       		.byte	0x7
 5000 034f 6F       		.byte	0x6f
 5001 0350 E7000000 		.4byte	0xe7
 5002 0354 00       		.byte	0
 5003 0355 0E       		.uleb128 0xe
 5004 0356 6D617800 		.ascii	"max\000"
 5005 035a 07       		.byte	0x7
 5006 035b 70       		.byte	0x70
 5007 035c E7000000 		.4byte	0xe7
 5008 0360 02       		.byte	0x2
 5009 0361 0E       		.uleb128 0xe
 5010 0362 65727200 		.ascii	"err\000"
 5011 0366 07       		.byte	0x7
 5012 0367 71       		.byte	0x71
 5013 0368 E7000000 		.4byte	0xe7
 5014 036c 04       		.byte	0x4
 5015 036d 00       		.byte	0
ARM GAS  C:\Users\Phuong\AppData\Local\Temp\cczg95Bp.s 			page 136


 5016 036e 0C       		.uleb128 0xc
 5017 036f 770D0000 		.4byte	.LASF66
 5018 0373 12       		.byte	0x12
 5019 0374 07       		.byte	0x7
 5020 0375 75       		.byte	0x75
 5021 0376 9F030000 		.4byte	0x39f
 5022 037a 0E       		.uleb128 0xe
 5023 037b 73656D00 		.ascii	"sem\000"
 5024 037f 07       		.byte	0x7
 5025 0380 76       		.byte	0x76
 5026 0381 3D030000 		.4byte	0x33d
 5027 0385 00       		.byte	0
 5028 0386 0D       		.uleb128 0xd
 5029 0387 37030000 		.4byte	.LASF67
 5030 038b 07       		.byte	0x7
 5031 038c 77       		.byte	0x77
 5032 038d 3D030000 		.4byte	0x33d
 5033 0391 06       		.byte	0x6
 5034 0392 0D       		.uleb128 0xd
 5035 0393 AD0B0000 		.4byte	.LASF68
 5036 0397 07       		.byte	0x7
 5037 0398 78       		.byte	0x78
 5038 0399 3D030000 		.4byte	0x33d
 5039 039d 0C       		.byte	0xc
 5040 039e 00       		.byte	0
 5041 039f 0F       		.uleb128 0xf
 5042 03a0 B0050000 		.4byte	.LASF69
 5043 03a4 1801     		.2byte	0x118
 5044 03a6 07       		.byte	0x7
 5045 03a7 E8       		.byte	0xe8
 5046 03a8 29040000 		.4byte	0x429
 5047 03ac 0D       		.uleb128 0xd
 5048 03ad E40D0000 		.4byte	.LASF70
 5049 03b1 07       		.byte	0x7
 5050 03b2 EB       		.byte	0xeb
 5051 03b3 EC010000 		.4byte	0x1ec
 5052 03b7 00       		.byte	0
 5053 03b8 0D       		.uleb128 0xd
 5054 03b9 16040000 		.4byte	.LASF71
 5055 03bd 07       		.byte	0x7
 5056 03be EF       		.byte	0xef
 5057 03bf EC010000 		.4byte	0x1ec
 5058 03c3 18       		.byte	0x18
 5059 03c4 0D       		.uleb128 0xd
 5060 03c5 CF030000 		.4byte	.LASF72
 5061 03c9 07       		.byte	0x7
 5062 03ca F3       		.byte	0xf3
 5063 03cb EC010000 		.4byte	0x1ec
 5064 03cf 30       		.byte	0x30
 5065 03d0 0E       		.uleb128 0xe
 5066 03d1 697000   		.ascii	"ip\000"
 5067 03d4 07       		.byte	0x7
 5068 03d5 F7       		.byte	0xf7
 5069 03d6 EC010000 		.4byte	0x1ec
 5070 03da 48       		.byte	0x48
 5071 03db 0D       		.uleb128 0xd
 5072 03dc 280B0000 		.4byte	.LASF73
ARM GAS  C:\Users\Phuong\AppData\Local\Temp\cczg95Bp.s 			page 137


 5073 03e0 07       		.byte	0x7
 5074 03e1 FB       		.byte	0xfb
 5075 03e2 EC010000 		.4byte	0x1ec
 5076 03e6 60       		.byte	0x60
 5077 03e7 0D       		.uleb128 0xd
 5078 03e8 4D040000 		.4byte	.LASF74
 5079 03ec 07       		.byte	0x7
 5080 03ed FF       		.byte	0xff
 5081 03ee 88020000 		.4byte	0x288
 5082 03f2 78       		.byte	0x78
 5083 03f3 10       		.uleb128 0x10
 5084 03f4 75647000 		.ascii	"udp\000"
 5085 03f8 07       		.byte	0x7
 5086 03f9 0301     		.2byte	0x103
 5087 03fb EC010000 		.4byte	0x1ec
 5088 03ff 94       		.byte	0x94
 5089 0400 10       		.uleb128 0x10
 5090 0401 74637000 		.ascii	"tcp\000"
 5091 0405 07       		.byte	0x7
 5092 0406 0701     		.2byte	0x107
 5093 0408 EC010000 		.4byte	0x1ec
 5094 040c AC       		.byte	0xac
 5095 040d 11       		.uleb128 0x11
 5096 040e 9F0C0000 		.4byte	.LASF75
 5097 0412 07       		.byte	0x7
 5098 0413 0F01     		.2byte	0x10f
 5099 0415 29040000 		.4byte	0x429
 5100 0419 C4       		.byte	0xc4
 5101 041a 12       		.uleb128 0x12
 5102 041b 73797300 		.ascii	"sys\000"
 5103 041f 07       		.byte	0x7
 5104 0420 1301     		.2byte	0x113
 5105 0422 6E030000 		.4byte	0x36e
 5106 0426 0401     		.2byte	0x104
 5107 0428 00       		.byte	0
 5108 0429 08       		.uleb128 0x8
 5109 042a E6010000 		.4byte	0x1e6
 5110 042e 39040000 		.4byte	0x439
 5111 0432 09       		.uleb128 0x9
 5112 0433 8A000000 		.4byte	0x8a
 5113 0437 0F       		.byte	0xf
 5114 0438 00       		.byte	0
 5115 0439 03       		.uleb128 0x3
 5116 043a 63010000 		.4byte	.LASF76
 5117 043e 08       		.byte	0x8
 5118 043f 39       		.byte	0x39
 5119 0440 DC000000 		.4byte	0xdc
 5120 0444 0A       		.uleb128 0xa
 5121 0445 01       		.byte	0x1
 5122 0446 25000000 		.4byte	0x25
 5123 044a 08       		.byte	0x8
 5124 044b 3D       		.byte	0x3d
 5125 044c B7040000 		.4byte	0x4b7
 5126 0450 0B       		.uleb128 0xb
 5127 0451 D40E0000 		.4byte	.LASF77
 5128 0455 00       		.byte	0
 5129 0456 13       		.uleb128 0x13
ARM GAS  C:\Users\Phuong\AppData\Local\Temp\cczg95Bp.s 			page 138


 5130 0457 23100000 		.4byte	.LASF78
 5131 045b 7F       		.sleb128 -1
 5132 045c 13       		.uleb128 0x13
 5133 045d F30A0000 		.4byte	.LASF79
 5134 0461 7E       		.sleb128 -2
 5135 0462 13       		.uleb128 0x13
 5136 0463 EE030000 		.4byte	.LASF80
 5137 0467 7D       		.sleb128 -3
 5138 0468 13       		.uleb128 0x13
 5139 0469 6C0F0000 		.4byte	.LASF81
 5140 046d 7C       		.sleb128 -4
 5141 046e 13       		.uleb128 0x13
 5142 046f D50B0000 		.4byte	.LASF82
 5143 0473 7B       		.sleb128 -5
 5144 0474 13       		.uleb128 0x13
 5145 0475 CE040000 		.4byte	.LASF83
 5146 0479 7A       		.sleb128 -6
 5147 047a 13       		.uleb128 0x13
 5148 047b E6060000 		.4byte	.LASF84
 5149 047f 79       		.sleb128 -7
 5150 0480 13       		.uleb128 0x13
 5151 0481 0D090000 		.4byte	.LASF85
 5152 0485 78       		.sleb128 -8
 5153 0486 13       		.uleb128 0x13
 5154 0487 6A020000 		.4byte	.LASF86
 5155 048b 77       		.sleb128 -9
 5156 048c 13       		.uleb128 0x13
 5157 048d FF0B0000 		.4byte	.LASF87
 5158 0491 76       		.sleb128 -10
 5159 0492 13       		.uleb128 0x13
 5160 0493 4D0F0000 		.4byte	.LASF88
 5161 0497 75       		.sleb128 -11
 5162 0498 13       		.uleb128 0x13
 5163 0499 77080000 		.4byte	.LASF89
 5164 049d 74       		.sleb128 -12
 5165 049e 13       		.uleb128 0x13
 5166 049f 7A000000 		.4byte	.LASF90
 5167 04a3 73       		.sleb128 -13
 5168 04a4 13       		.uleb128 0x13
 5169 04a5 960E0000 		.4byte	.LASF91
 5170 04a9 72       		.sleb128 -14
 5171 04aa 13       		.uleb128 0x13
 5172 04ab D5000000 		.4byte	.LASF92
 5173 04af 71       		.sleb128 -15
 5174 04b0 13       		.uleb128 0x13
 5175 04b1 00100000 		.4byte	.LASF93
 5176 04b5 70       		.sleb128 -16
 5177 04b6 00       		.byte	0
 5178 04b7 0C       		.uleb128 0xc
 5179 04b8 810D0000 		.4byte	.LASF94
 5180 04bc 10       		.byte	0x10
 5181 04bd 0A       		.byte	0xa
 5182 04be 8E       		.byte	0x8e
 5183 04bf 18050000 		.4byte	0x518
 5184 04c3 0D       		.uleb128 0xd
 5185 04c4 2B010000 		.4byte	.LASF95
 5186 04c8 0A       		.byte	0xa
ARM GAS  C:\Users\Phuong\AppData\Local\Temp\cczg95Bp.s 			page 139


 5187 04c9 90       		.byte	0x90
 5188 04ca 18050000 		.4byte	0x518
 5189 04ce 00       		.byte	0
 5190 04cf 0D       		.uleb128 0xd
 5191 04d0 F6050000 		.4byte	.LASF96
 5192 04d4 0A       		.byte	0xa
 5193 04d5 93       		.byte	0x93
 5194 04d6 88000000 		.4byte	0x88
 5195 04da 04       		.byte	0x4
 5196 04db 0D       		.uleb128 0xd
 5197 04dc 420E0000 		.4byte	.LASF97
 5198 04e0 0A       		.byte	0xa
 5199 04e1 9C       		.byte	0x9c
 5200 04e2 E7000000 		.4byte	0xe7
 5201 04e6 08       		.byte	0x8
 5202 04e7 0E       		.uleb128 0xe
 5203 04e8 6C656E00 		.ascii	"len\000"
 5204 04ec 0A       		.byte	0xa
 5205 04ed 9F       		.byte	0x9f
 5206 04ee E7000000 		.4byte	0xe7
 5207 04f2 0A       		.byte	0xa
 5208 04f3 0D       		.uleb128 0xd
 5209 04f4 720D0000 		.4byte	.LASF98
 5210 04f8 0A       		.byte	0xa
 5211 04f9 A2       		.byte	0xa2
 5212 04fa D1000000 		.4byte	0xd1
 5213 04fe 0C       		.byte	0xc
 5214 04ff 0D       		.uleb128 0xd
 5215 0500 CF000000 		.4byte	.LASF99
 5216 0504 0A       		.byte	0xa
 5217 0505 A5       		.byte	0xa5
 5218 0506 D1000000 		.4byte	0xd1
 5219 050a 0D       		.byte	0xd
 5220 050b 0E       		.uleb128 0xe
 5221 050c 72656600 		.ascii	"ref\000"
 5222 0510 0A       		.byte	0xa
 5223 0511 AC       		.byte	0xac
 5224 0512 E7000000 		.4byte	0xe7
 5225 0516 0E       		.byte	0xe
 5226 0517 00       		.byte	0
 5227 0518 06       		.uleb128 0x6
 5228 0519 04       		.byte	0x4
 5229 051a B7040000 		.4byte	0x4b7
 5230 051e 0C       		.uleb128 0xc
 5231 051f EA0B0000 		.4byte	.LASF100
 5232 0523 04       		.byte	0x4
 5233 0524 0B       		.byte	0xb
 5234 0525 33       		.byte	0x33
 5235 0526 37050000 		.4byte	0x537
 5236 052a 0D       		.uleb128 0xd
 5237 052b 250E0000 		.4byte	.LASF101
 5238 052f 0B       		.byte	0xb
 5239 0530 34       		.byte	0x34
 5240 0531 FD000000 		.4byte	0xfd
 5241 0535 00       		.byte	0
 5242 0536 00       		.byte	0
 5243 0537 03       		.uleb128 0x3
ARM GAS  C:\Users\Phuong\AppData\Local\Temp\cczg95Bp.s 			page 140


 5244 0538 2D0B0000 		.4byte	.LASF102
 5245 053c 0B       		.byte	0xb
 5246 053d 39       		.byte	0x39
 5247 053e 1E050000 		.4byte	0x51e
 5248 0542 03       		.uleb128 0x3
 5249 0543 A80F0000 		.4byte	.LASF103
 5250 0547 0C       		.byte	0xc
 5251 0548 F4       		.byte	0xf4
 5252 0549 37050000 		.4byte	0x537
 5253 054d 14       		.uleb128 0x14
 5254 054e 860D0000 		.4byte	.LASF107
 5255 0552 01       		.byte	0x1
 5256 0553 2C000000 		.4byte	0x2c
 5257 0557 0D       		.byte	0xd
 5258 0558 6B       		.byte	0x6b
 5259 0559 70050000 		.4byte	0x570
 5260 055d 0B       		.uleb128 0xb
 5261 055e EA0E0000 		.4byte	.LASF104
 5262 0562 00       		.byte	0
 5263 0563 0B       		.uleb128 0xb
 5264 0564 97000000 		.4byte	.LASF105
 5265 0568 01       		.byte	0x1
 5266 0569 0B       		.uleb128 0xb
 5267 056a 530E0000 		.4byte	.LASF106
 5268 056e 02       		.byte	0x2
 5269 056f 00       		.byte	0
 5270 0570 14       		.uleb128 0x14
 5271 0571 D90C0000 		.4byte	.LASF108
 5272 0575 01       		.byte	0x1
 5273 0576 2C000000 		.4byte	0x2c
 5274 057a 0D       		.byte	0xd
 5275 057b 8F       		.byte	0x8f
 5276 057c 8D050000 		.4byte	0x58d
 5277 0580 0B       		.uleb128 0xb
 5278 0581 EF090000 		.4byte	.LASF109
 5279 0585 00       		.byte	0
 5280 0586 0B       		.uleb128 0xb
 5281 0587 9B070000 		.4byte	.LASF110
 5282 058b 01       		.byte	0x1
 5283 058c 00       		.byte	0
 5284 058d 06       		.uleb128 0x6
 5285 058e 04       		.byte	0x4
 5286 058f 93050000 		.4byte	0x593
 5287 0593 0C       		.uleb128 0xc
 5288 0594 740E0000 		.4byte	.LASF111
 5289 0598 48       		.byte	0x48
 5290 0599 0D       		.byte	0xd
 5291 059a E1       		.byte	0xe1
 5292 059b 8F060000 		.4byte	0x68f
 5293 059f 0D       		.uleb128 0xd
 5294 05a0 2B010000 		.4byte	.LASF95
 5295 05a4 0D       		.byte	0xd
 5296 05a5 E3       		.byte	0xe3
 5297 05a6 8D050000 		.4byte	0x58d
 5298 05aa 00       		.byte	0
 5299 05ab 0D       		.uleb128 0xd
 5300 05ac 41100000 		.4byte	.LASF112
ARM GAS  C:\Users\Phuong\AppData\Local\Temp\cczg95Bp.s 			page 141


 5301 05b0 0D       		.byte	0xd
 5302 05b1 E7       		.byte	0xe7
 5303 05b2 42050000 		.4byte	0x542
 5304 05b6 04       		.byte	0x4
 5305 05b7 0D       		.uleb128 0xd
 5306 05b8 43080000 		.4byte	.LASF113
 5307 05bc 0D       		.byte	0xd
 5308 05bd E8       		.byte	0xe8
 5309 05be 42050000 		.4byte	0x542
 5310 05c2 08       		.byte	0x8
 5311 05c3 0E       		.uleb128 0xe
 5312 05c4 677700   		.ascii	"gw\000"
 5313 05c7 0D       		.byte	0xd
 5314 05c8 E9       		.byte	0xe9
 5315 05c9 42050000 		.4byte	0x542
 5316 05cd 0C       		.byte	0xc
 5317 05ce 0D       		.uleb128 0xd
 5318 05cf 74000000 		.4byte	.LASF114
 5319 05d3 0D       		.byte	0xd
 5320 05d4 F4       		.byte	0xf4
 5321 05d5 8F060000 		.4byte	0x68f
 5322 05d9 10       		.byte	0x10
 5323 05da 0D       		.uleb128 0xd
 5324 05db 07060000 		.4byte	.LASF115
 5325 05df 0D       		.byte	0xd
 5326 05e0 FA       		.byte	0xfa
 5327 05e1 B4060000 		.4byte	0x6b4
 5328 05e5 14       		.byte	0x14
 5329 05e6 0D       		.uleb128 0xd
 5330 05e7 69010000 		.4byte	.LASF116
 5331 05eb 0D       		.byte	0xd
 5332 05ec FF       		.byte	0xff
 5333 05ed E9060000 		.4byte	0x6e9
 5334 05f1 18       		.byte	0x18
 5335 05f2 11       		.uleb128 0x11
 5336 05f3 7E080000 		.4byte	.LASF117
 5337 05f7 0D       		.byte	0xd
 5338 05f8 0A01     		.2byte	0x10a
 5339 05fa 0E070000 		.4byte	0x70e
 5340 05fe 1C       		.byte	0x1c
 5341 05ff 11       		.uleb128 0x11
 5342 0600 3C0E0000 		.4byte	.LASF118
 5343 0604 0D       		.byte	0xd
 5344 0605 1701     		.2byte	0x117
 5345 0607 88000000 		.4byte	0x88
 5346 060b 20       		.byte	0x20
 5347 060c 11       		.uleb128 0x11
 5348 060d 38070000 		.4byte	.LASF119
 5349 0611 0D       		.byte	0xd
 5350 0612 1901     		.2byte	0x119
 5351 0614 BC000000 		.4byte	0xbc
 5352 0618 24       		.byte	0x24
 5353 0619 11       		.uleb128 0x11
 5354 061a 470C0000 		.4byte	.LASF120
 5355 061e 0D       		.byte	0xd
 5356 061f 2101     		.2byte	0x121
 5357 0621 D1000000 		.4byte	0xd1
ARM GAS  C:\Users\Phuong\AppData\Local\Temp\cczg95Bp.s 			page 142


 5358 0625 2C       		.byte	0x2c
 5359 0626 11       		.uleb128 0x11
 5360 0627 74010000 		.4byte	.LASF121
 5361 062b 0D       		.byte	0xd
 5362 062c 2501     		.2byte	0x125
 5363 062e 98000000 		.4byte	0x98
 5364 0632 30       		.byte	0x30
 5365 0633 10       		.uleb128 0x10
 5366 0634 6D747500 		.ascii	"mtu\000"
 5367 0638 0D       		.byte	0xd
 5368 0639 2B01     		.2byte	0x12b
 5369 063b E7000000 		.4byte	0xe7
 5370 063f 34       		.byte	0x34
 5371 0640 11       		.uleb128 0x11
 5372 0641 A8040000 		.4byte	.LASF122
 5373 0645 0D       		.byte	0xd
 5374 0646 2D01     		.2byte	0x12d
 5375 0648 D1000000 		.4byte	0xd1
 5376 064c 36       		.byte	0x36
 5377 064d 11       		.uleb128 0x11
 5378 064e 0F040000 		.4byte	.LASF123
 5379 0652 0D       		.byte	0xd
 5380 0653 2F01     		.2byte	0x12f
 5381 0655 54070000 		.4byte	0x754
 5382 0659 37       		.byte	0x37
 5383 065a 11       		.uleb128 0x11
 5384 065b CF000000 		.4byte	.LASF99
 5385 065f 0D       		.byte	0xd
 5386 0660 3101     		.2byte	0x131
 5387 0662 D1000000 		.4byte	0xd1
 5388 0666 3D       		.byte	0x3d
 5389 0667 11       		.uleb128 0x11
 5390 0668 2E0C0000 		.4byte	.LASF41
 5391 066c 0D       		.byte	0xd
 5392 066d 3301     		.2byte	0x133
 5393 066f 64070000 		.4byte	0x764
 5394 0673 3E       		.byte	0x3e
 5395 0674 10       		.uleb128 0x10
 5396 0675 6E756D00 		.ascii	"num\000"
 5397 0679 0D       		.byte	0xd
 5398 067a 3501     		.2byte	0x135
 5399 067c D1000000 		.4byte	0xd1
 5400 0680 40       		.byte	0x40
 5401 0681 11       		.uleb128 0x11
 5402 0682 57070000 		.4byte	.LASF124
 5403 0686 0D       		.byte	0xd
 5404 0687 4301     		.2byte	0x143
 5405 0689 2A070000 		.4byte	0x72a
 5406 068d 44       		.byte	0x44
 5407 068e 00       		.byte	0
 5408 068f 03       		.uleb128 0x3
 5409 0690 9D020000 		.4byte	.LASF125
 5410 0694 0D       		.byte	0xd
 5411 0695 A2       		.byte	0xa2
 5412 0696 9A060000 		.4byte	0x69a
 5413 069a 06       		.uleb128 0x6
 5414 069b 04       		.byte	0x4
ARM GAS  C:\Users\Phuong\AppData\Local\Temp\cczg95Bp.s 			page 143


 5415 069c A0060000 		.4byte	0x6a0
 5416 06a0 15       		.uleb128 0x15
 5417 06a1 39040000 		.4byte	0x439
 5418 06a5 B4060000 		.4byte	0x6b4
 5419 06a9 16       		.uleb128 0x16
 5420 06aa 18050000 		.4byte	0x518
 5421 06ae 16       		.uleb128 0x16
 5422 06af 8D050000 		.4byte	0x58d
 5423 06b3 00       		.byte	0
 5424 06b4 03       		.uleb128 0x3
 5425 06b5 F5010000 		.4byte	.LASF126
 5426 06b9 0D       		.byte	0xd
 5427 06ba AD       		.byte	0xad
 5428 06bb BF060000 		.4byte	0x6bf
 5429 06bf 06       		.uleb128 0x6
 5430 06c0 04       		.byte	0x4
 5431 06c1 C5060000 		.4byte	0x6c5
 5432 06c5 15       		.uleb128 0x15
 5433 06c6 39040000 		.4byte	0x439
 5434 06ca DE060000 		.4byte	0x6de
 5435 06ce 16       		.uleb128 0x16
 5436 06cf 8D050000 		.4byte	0x58d
 5437 06d3 16       		.uleb128 0x16
 5438 06d4 18050000 		.4byte	0x518
 5439 06d8 16       		.uleb128 0x16
 5440 06d9 DE060000 		.4byte	0x6de
 5441 06dd 00       		.byte	0
 5442 06de 06       		.uleb128 0x6
 5443 06df 04       		.byte	0x4
 5444 06e0 E4060000 		.4byte	0x6e4
 5445 06e4 07       		.uleb128 0x7
 5446 06e5 37050000 		.4byte	0x537
 5447 06e9 03       		.uleb128 0x3
 5448 06ea 330C0000 		.4byte	.LASF127
 5449 06ee 0D       		.byte	0xd
 5450 06ef C4       		.byte	0xc4
 5451 06f0 F4060000 		.4byte	0x6f4
 5452 06f4 06       		.uleb128 0x6
 5453 06f5 04       		.byte	0x4
 5454 06f6 FA060000 		.4byte	0x6fa
 5455 06fa 15       		.uleb128 0x15
 5456 06fb 39040000 		.4byte	0x439
 5457 06ff 0E070000 		.4byte	0x70e
 5458 0703 16       		.uleb128 0x16
 5459 0704 8D050000 		.4byte	0x58d
 5460 0708 16       		.uleb128 0x16
 5461 0709 18050000 		.4byte	0x518
 5462 070d 00       		.byte	0
 5463 070e 03       		.uleb128 0x3
 5464 070f CB0D0000 		.4byte	.LASF128
 5465 0713 0D       		.byte	0xd
 5466 0714 C6       		.byte	0xc6
 5467 0715 19070000 		.4byte	0x719
 5468 0719 06       		.uleb128 0x6
 5469 071a 04       		.byte	0x4
 5470 071b 1F070000 		.4byte	0x71f
 5471 071f 17       		.uleb128 0x17
ARM GAS  C:\Users\Phuong\AppData\Local\Temp\cczg95Bp.s 			page 144


 5472 0720 2A070000 		.4byte	0x72a
 5473 0724 16       		.uleb128 0x16
 5474 0725 8D050000 		.4byte	0x58d
 5475 0729 00       		.byte	0
 5476 072a 03       		.uleb128 0x3
 5477 072b BB0E0000 		.4byte	.LASF129
 5478 072f 0D       		.byte	0xd
 5479 0730 C9       		.byte	0xc9
 5480 0731 35070000 		.4byte	0x735
 5481 0735 06       		.uleb128 0x6
 5482 0736 04       		.byte	0x4
 5483 0737 3B070000 		.4byte	0x73b
 5484 073b 15       		.uleb128 0x15
 5485 073c 39040000 		.4byte	0x439
 5486 0740 54070000 		.4byte	0x754
 5487 0744 16       		.uleb128 0x16
 5488 0745 8D050000 		.4byte	0x58d
 5489 0749 16       		.uleb128 0x16
 5490 074a DE060000 		.4byte	0x6de
 5491 074e 16       		.uleb128 0x16
 5492 074f 70050000 		.4byte	0x570
 5493 0753 00       		.byte	0
 5494 0754 08       		.uleb128 0x8
 5495 0755 D1000000 		.4byte	0xd1
 5496 0759 64070000 		.4byte	0x764
 5497 075d 09       		.uleb128 0x9
 5498 075e 8A000000 		.4byte	0x8a
 5499 0762 05       		.byte	0x5
 5500 0763 00       		.byte	0
 5501 0764 08       		.uleb128 0x8
 5502 0765 91000000 		.4byte	0x91
 5503 0769 74070000 		.4byte	0x774
 5504 076d 09       		.uleb128 0x9
 5505 076e 8A000000 		.4byte	0x8a
 5506 0772 01       		.byte	0x1
 5507 0773 00       		.byte	0
 5508 0774 03       		.uleb128 0x3
 5509 0775 C1000000 		.4byte	.LASF130
 5510 0779 0E       		.byte	0xe
 5511 077a 44       		.byte	0x44
 5512 077b 7F070000 		.4byte	0x77f
 5513 077f 06       		.uleb128 0x6
 5514 0780 04       		.byte	0x4
 5515 0781 85070000 		.4byte	0x785
 5516 0785 15       		.uleb128 0x15
 5517 0786 39040000 		.4byte	0x439
 5518 078a 9E070000 		.4byte	0x79e
 5519 078e 16       		.uleb128 0x16
 5520 078f 88000000 		.4byte	0x88
 5521 0793 16       		.uleb128 0x16
 5522 0794 9E070000 		.4byte	0x79e
 5523 0798 16       		.uleb128 0x16
 5524 0799 39040000 		.4byte	0x439
 5525 079d 00       		.byte	0
 5526 079e 06       		.uleb128 0x6
 5527 079f 04       		.byte	0x4
 5528 07a0 A4070000 		.4byte	0x7a4
ARM GAS  C:\Users\Phuong\AppData\Local\Temp\cczg95Bp.s 			page 145


 5529 07a4 0C       		.uleb128 0xc
 5530 07a5 200F0000 		.4byte	.LASF131
 5531 07a9 A0       		.byte	0xa0
 5532 07aa 0E       		.byte	0xe
 5533 07ab C8       		.byte	0xc8
 5534 07ac 780A0000 		.4byte	0xa78
 5535 07b0 0D       		.uleb128 0xd
 5536 07b1 9A0B0000 		.4byte	.LASF132
 5537 07b5 0E       		.byte	0xe
 5538 07b6 CA       		.byte	0xca
 5539 07b7 42050000 		.4byte	0x542
 5540 07bb 00       		.byte	0
 5541 07bc 0D       		.uleb128 0xd
 5542 07bd 620F0000 		.4byte	.LASF133
 5543 07c1 0E       		.byte	0xe
 5544 07c2 CA       		.byte	0xca
 5545 07c3 42050000 		.4byte	0x542
 5546 07c7 04       		.byte	0x4
 5547 07c8 0D       		.uleb128 0xd
 5548 07c9 15090000 		.4byte	.LASF134
 5549 07cd 0E       		.byte	0xe
 5550 07ce CA       		.byte	0xca
 5551 07cf D1000000 		.4byte	0xd1
 5552 07d3 08       		.byte	0x8
 5553 07d4 0E       		.uleb128 0xe
 5554 07d5 746F7300 		.ascii	"tos\000"
 5555 07d9 0E       		.byte	0xe
 5556 07da CA       		.byte	0xca
 5557 07db D1000000 		.4byte	0xd1
 5558 07df 09       		.byte	0x9
 5559 07e0 0E       		.uleb128 0xe
 5560 07e1 74746C00 		.ascii	"ttl\000"
 5561 07e5 0E       		.byte	0xe
 5562 07e6 CA       		.byte	0xca
 5563 07e7 D1000000 		.4byte	0xd1
 5564 07eb 0A       		.byte	0xa
 5565 07ec 0D       		.uleb128 0xd
 5566 07ed 2B010000 		.4byte	.LASF95
 5567 07f1 0E       		.byte	0xe
 5568 07f2 CC       		.byte	0xcc
 5569 07f3 9E070000 		.4byte	0x79e
 5570 07f7 0C       		.byte	0xc
 5571 07f8 0D       		.uleb128 0xd
 5572 07f9 020E0000 		.4byte	.LASF135
 5573 07fd 0E       		.byte	0xe
 5574 07fe CC       		.byte	0xcc
 5575 07ff 88000000 		.4byte	0x88
 5576 0803 10       		.byte	0x10
 5577 0804 0D       		.uleb128 0xd
 5578 0805 3C0E0000 		.4byte	.LASF118
 5579 0809 0E       		.byte	0xe
 5580 080a CC       		.byte	0xcc
 5581 080b 380B0000 		.4byte	0xb38
 5582 080f 14       		.byte	0x14
 5583 0810 0D       		.uleb128 0xd
 5584 0811 1D070000 		.4byte	.LASF136
 5585 0815 0E       		.byte	0xe
ARM GAS  C:\Users\Phuong\AppData\Local\Temp\cczg95Bp.s 			page 146


 5586 0816 CC       		.byte	0xcc
 5587 0817 D1000000 		.4byte	0xd1
 5588 081b 15       		.byte	0x15
 5589 081c 0D       		.uleb128 0xd
 5590 081d 2C030000 		.4byte	.LASF137
 5591 0821 0E       		.byte	0xe
 5592 0822 CC       		.byte	0xcc
 5593 0823 E7000000 		.4byte	0xe7
 5594 0827 16       		.byte	0x16
 5595 0828 0D       		.uleb128 0xd
 5596 0829 59090000 		.4byte	.LASF138
 5597 082d 0E       		.byte	0xe
 5598 082e CF       		.byte	0xcf
 5599 082f E7000000 		.4byte	0xe7
 5600 0833 18       		.byte	0x18
 5601 0834 0D       		.uleb128 0xd
 5602 0835 CF000000 		.4byte	.LASF99
 5603 0839 0E       		.byte	0xe
 5604 083a D1       		.byte	0xd1
 5605 083b 2D0B0000 		.4byte	0xb2d
 5606 083f 1A       		.byte	0x1a
 5607 0840 0D       		.uleb128 0xd
 5608 0841 B9000000 		.4byte	.LASF139
 5609 0845 0E       		.byte	0xe
 5610 0846 E8       		.byte	0xe8
 5611 0847 D1000000 		.4byte	0xd1
 5612 084b 1C       		.byte	0x1c
 5613 084c 0D       		.uleb128 0xd
 5614 084d 920C0000 		.4byte	.LASF140
 5615 0851 0E       		.byte	0xe
 5616 0852 E8       		.byte	0xe8
 5617 0853 D1000000 		.4byte	0xd1
 5618 0857 1D       		.byte	0x1d
 5619 0858 0D       		.uleb128 0xd
 5620 0859 820B0000 		.4byte	.LASF141
 5621 085d 0E       		.byte	0xe
 5622 085e E9       		.byte	0xe9
 5623 085f D1000000 		.4byte	0xd1
 5624 0863 1E       		.byte	0x1e
 5625 0864 0E       		.uleb128 0xe
 5626 0865 746D7200 		.ascii	"tmr\000"
 5627 0869 0E       		.byte	0xe
 5628 086a EA       		.byte	0xea
 5629 086b FD000000 		.4byte	0xfd
 5630 086f 20       		.byte	0x20
 5631 0870 0D       		.uleb128 0xd
 5632 0871 7B050000 		.4byte	.LASF142
 5633 0875 0E       		.byte	0xe
 5634 0876 ED       		.byte	0xed
 5635 0877 FD000000 		.4byte	0xfd
 5636 087b 24       		.byte	0x24
 5637 087c 0D       		.uleb128 0xd
 5638 087d 5D0B0000 		.4byte	.LASF143
 5639 0881 0E       		.byte	0xe
 5640 0882 EE       		.byte	0xee
 5641 0883 220B0000 		.4byte	0xb22
 5642 0887 28       		.byte	0x28
ARM GAS  C:\Users\Phuong\AppData\Local\Temp\cczg95Bp.s 			page 147


 5643 0888 0D       		.uleb128 0xd
 5644 0889 F9020000 		.4byte	.LASF144
 5645 088d 0E       		.byte	0xe
 5646 088e EF       		.byte	0xef
 5647 088f 220B0000 		.4byte	0xb22
 5648 0893 2A       		.byte	0x2a
 5649 0894 0D       		.uleb128 0xd
 5650 0895 B6010000 		.4byte	.LASF145
 5651 0899 0E       		.byte	0xe
 5652 089a F0       		.byte	0xf0
 5653 089b FD000000 		.4byte	0xfd
 5654 089f 2C       		.byte	0x2c
 5655 08a0 0D       		.uleb128 0xd
 5656 08a1 040A0000 		.4byte	.LASF146
 5657 08a5 0E       		.byte	0xe
 5658 08a6 F3       		.byte	0xf3
 5659 08a7 F2000000 		.4byte	0xf2
 5660 08ab 30       		.byte	0x30
 5661 08ac 0E       		.uleb128 0xe
 5662 08ad 6D737300 		.ascii	"mss\000"
 5663 08b1 0E       		.byte	0xe
 5664 08b2 F5       		.byte	0xf5
 5665 08b3 E7000000 		.4byte	0xe7
 5666 08b7 32       		.byte	0x32
 5667 08b8 0D       		.uleb128 0xd
 5668 08b9 650B0000 		.4byte	.LASF147
 5669 08bd 0E       		.byte	0xe
 5670 08be F8       		.byte	0xf8
 5671 08bf FD000000 		.4byte	0xfd
 5672 08c3 34       		.byte	0x34
 5673 08c4 0D       		.uleb128 0xd
 5674 08c5 F5060000 		.4byte	.LASF148
 5675 08c9 0E       		.byte	0xe
 5676 08ca F9       		.byte	0xf9
 5677 08cb FD000000 		.4byte	0xfd
 5678 08cf 38       		.byte	0x38
 5679 08d0 0E       		.uleb128 0xe
 5680 08d1 736100   		.ascii	"sa\000"
 5681 08d4 0E       		.byte	0xe
 5682 08d5 FA       		.byte	0xfa
 5683 08d6 F2000000 		.4byte	0xf2
 5684 08da 3C       		.byte	0x3c
 5685 08db 0E       		.uleb128 0xe
 5686 08dc 737600   		.ascii	"sv\000"
 5687 08df 0E       		.byte	0xe
 5688 08e0 FA       		.byte	0xfa
 5689 08e1 F2000000 		.4byte	0xf2
 5690 08e5 3E       		.byte	0x3e
 5691 08e6 0E       		.uleb128 0xe
 5692 08e7 72746F00 		.ascii	"rto\000"
 5693 08eb 0E       		.byte	0xe
 5694 08ec FC       		.byte	0xfc
 5695 08ed F2000000 		.4byte	0xf2
 5696 08f1 40       		.byte	0x40
 5697 08f2 0D       		.uleb128 0xd
 5698 08f3 11100000 		.4byte	.LASF149
 5699 08f7 0E       		.byte	0xe
ARM GAS  C:\Users\Phuong\AppData\Local\Temp\cczg95Bp.s 			page 148


 5700 08f8 FD       		.byte	0xfd
 5701 08f9 D1000000 		.4byte	0xd1
 5702 08fd 42       		.byte	0x42
 5703 08fe 11       		.uleb128 0x11
 5704 08ff 15070000 		.4byte	.LASF150
 5705 0903 0E       		.byte	0xe
 5706 0904 0001     		.2byte	0x100
 5707 0906 D1000000 		.4byte	0xd1
 5708 090a 43       		.byte	0x43
 5709 090b 11       		.uleb128 0x11
 5710 090c 91060000 		.4byte	.LASF151
 5711 0910 0E       		.byte	0xe
 5712 0911 0101     		.2byte	0x101
 5713 0913 FD000000 		.4byte	0xfd
 5714 0917 44       		.byte	0x44
 5715 0918 11       		.uleb128 0x11
 5716 0919 CC020000 		.4byte	.LASF152
 5717 091d 0E       		.byte	0xe
 5718 091e 0401     		.2byte	0x104
 5719 0920 220B0000 		.4byte	0xb22
 5720 0924 48       		.byte	0x48
 5721 0925 11       		.uleb128 0x11
 5722 0926 560C0000 		.4byte	.LASF153
 5723 092a 0E       		.byte	0xe
 5724 092b 0501     		.2byte	0x105
 5725 092d 220B0000 		.4byte	0xb22
 5726 0931 4A       		.byte	0x4a
 5727 0932 11       		.uleb128 0x11
 5728 0933 180F0000 		.4byte	.LASF154
 5729 0937 0E       		.byte	0xe
 5730 0938 0801     		.2byte	0x108
 5731 093a FD000000 		.4byte	0xfd
 5732 093e 4C       		.byte	0x4c
 5733 093f 11       		.uleb128 0x11
 5734 0940 B5070000 		.4byte	.LASF155
 5735 0944 0E       		.byte	0xe
 5736 0945 0901     		.2byte	0x109
 5737 0947 FD000000 		.4byte	0xfd
 5738 094b 50       		.byte	0x50
 5739 094c 11       		.uleb128 0x11
 5740 094d BD070000 		.4byte	.LASF156
 5741 0951 0E       		.byte	0xe
 5742 0952 0901     		.2byte	0x109
 5743 0954 FD000000 		.4byte	0xfd
 5744 0958 54       		.byte	0x54
 5745 0959 11       		.uleb128 0x11
 5746 095a 21080000 		.4byte	.LASF157
 5747 095e 0E       		.byte	0xe
 5748 095f 0B01     		.2byte	0x10b
 5749 0961 FD000000 		.4byte	0xfd
 5750 0965 58       		.byte	0x58
 5751 0966 11       		.uleb128 0x11
 5752 0967 860A0000 		.4byte	.LASF158
 5753 096b 0E       		.byte	0xe
 5754 096c 0C01     		.2byte	0x10c
 5755 096e 220B0000 		.4byte	0xb22
 5756 0972 5C       		.byte	0x5c
ARM GAS  C:\Users\Phuong\AppData\Local\Temp\cczg95Bp.s 			page 149


 5757 0973 11       		.uleb128 0x11
 5758 0974 220C0000 		.4byte	.LASF159
 5759 0978 0E       		.byte	0xe
 5760 0979 0D01     		.2byte	0x10d
 5761 097b 220B0000 		.4byte	0xb22
 5762 097f 5E       		.byte	0x5e
 5763 0980 11       		.uleb128 0x11
 5764 0981 8A0C0000 		.4byte	.LASF160
 5765 0985 0E       		.byte	0xe
 5766 0986 0F01     		.2byte	0x10f
 5767 0988 220B0000 		.4byte	0xb22
 5768 098c 60       		.byte	0x60
 5769 098d 11       		.uleb128 0x11
 5770 098e 16100000 		.4byte	.LASF161
 5771 0992 0E       		.byte	0xe
 5772 0993 1101     		.2byte	0x111
 5773 0995 E7000000 		.4byte	0xe7
 5774 0999 62       		.byte	0x62
 5775 099a 11       		.uleb128 0x11
 5776 099b BC0B0000 		.4byte	.LASF162
 5777 099f 0E       		.byte	0xe
 5778 09a0 1501     		.2byte	0x115
 5779 09a2 E7000000 		.4byte	0xe7
 5780 09a6 64       		.byte	0x64
 5781 09a7 11       		.uleb128 0x11
 5782 09a8 560B0000 		.4byte	.LASF163
 5783 09ac 0E       		.byte	0xe
 5784 09ad 1901     		.2byte	0x119
 5785 09af 8F0C0000 		.4byte	0xc8f
 5786 09b3 68       		.byte	0x68
 5787 09b4 11       		.uleb128 0x11
 5788 09b5 9D050000 		.4byte	.LASF164
 5789 09b9 0E       		.byte	0xe
 5790 09ba 1A01     		.2byte	0x11a
 5791 09bc 8F0C0000 		.4byte	0xc8f
 5792 09c0 6C       		.byte	0x6c
 5793 09c1 11       		.uleb128 0x11
 5794 09c2 CD0A0000 		.4byte	.LASF165
 5795 09c6 0E       		.byte	0xe
 5796 09c7 1C01     		.2byte	0x11c
 5797 09c9 8F0C0000 		.4byte	0xc8f
 5798 09cd 70       		.byte	0x70
 5799 09ce 11       		.uleb128 0x11
 5800 09cf 280D0000 		.4byte	.LASF166
 5801 09d3 0E       		.byte	0xe
 5802 09d4 1F01     		.2byte	0x11f
 5803 09d6 18050000 		.4byte	0x518
 5804 09da 74       		.byte	0x74
 5805 09db 11       		.uleb128 0x11
 5806 09dc 8E000000 		.4byte	.LASF167
 5807 09e0 0E       		.byte	0xe
 5808 09e1 2201     		.2byte	0x122
 5809 09e3 340C0000 		.4byte	0xc34
 5810 09e7 78       		.byte	0x78
 5811 09e8 11       		.uleb128 0x11
 5812 09e9 B0070000 		.4byte	.LASF168
 5813 09ed 0E       		.byte	0xe
ARM GAS  C:\Users\Phuong\AppData\Local\Temp\cczg95Bp.s 			page 150


 5814 09ee 2701     		.2byte	0x127
 5815 09f0 A70A0000 		.4byte	0xaa7
 5816 09f4 7C       		.byte	0x7c
 5817 09f5 11       		.uleb128 0x11
 5818 09f6 E50E0000 		.4byte	.LASF48
 5819 09fa 0E       		.byte	0xe
 5820 09fb 2901     		.2byte	0x129
 5821 09fd 780A0000 		.4byte	0xa78
 5822 0a01 80       		.byte	0x80
 5823 0a02 11       		.uleb128 0x11
 5824 0a03 16060000 		.4byte	.LASF169
 5825 0a07 0E       		.byte	0xe
 5826 0a08 2B01     		.2byte	0x12b
 5827 0a0a 170B0000 		.4byte	0xb17
 5828 0a0e 84       		.byte	0x84
 5829 0a0f 11       		.uleb128 0x11
 5830 0a10 33070000 		.4byte	.LASF170
 5831 0a14 0E       		.byte	0xe
 5832 0a15 2D01     		.2byte	0x12d
 5833 0a17 D10A0000 		.4byte	0xad1
 5834 0a1b 88       		.byte	0x88
 5835 0a1c 11       		.uleb128 0x11
 5836 0a1d 750A0000 		.4byte	.LASF171
 5837 0a21 0E       		.byte	0xe
 5838 0a22 2F01     		.2byte	0x12f
 5839 0a24 F60A0000 		.4byte	0xaf6
 5840 0a28 8C       		.byte	0x8c
 5841 0a29 11       		.uleb128 0x11
 5842 0a2a F80D0000 		.4byte	.LASF172
 5843 0a2e 0E       		.byte	0xe
 5844 0a2f 3801     		.2byte	0x138
 5845 0a31 FD000000 		.4byte	0xfd
 5846 0a35 90       		.byte	0x90
 5847 0a36 11       		.uleb128 0x11
 5848 0a37 870F0000 		.4byte	.LASF173
 5849 0a3b 0E       		.byte	0xe
 5850 0a3c 3A01     		.2byte	0x13a
 5851 0a3e FD000000 		.4byte	0xfd
 5852 0a42 94       		.byte	0x94
 5853 0a43 11       		.uleb128 0x11
 5854 0a44 52020000 		.4byte	.LASF174
 5855 0a48 0E       		.byte	0xe
 5856 0a49 3B01     		.2byte	0x13b
 5857 0a4b FD000000 		.4byte	0xfd
 5858 0a4f 98       		.byte	0x98
 5859 0a50 11       		.uleb128 0x11
 5860 0a51 560F0000 		.4byte	.LASF175
 5861 0a55 0E       		.byte	0xe
 5862 0a56 3F01     		.2byte	0x13f
 5863 0a58 D1000000 		.4byte	0xd1
 5864 0a5c 9C       		.byte	0x9c
 5865 0a5d 11       		.uleb128 0x11
 5866 0a5e A2080000 		.4byte	.LASF176
 5867 0a62 0E       		.byte	0xe
 5868 0a63 4101     		.2byte	0x141
 5869 0a65 D1000000 		.4byte	0xd1
 5870 0a69 9D       		.byte	0x9d
ARM GAS  C:\Users\Phuong\AppData\Local\Temp\cczg95Bp.s 			page 151


 5871 0a6a 11       		.uleb128 0x11
 5872 0a6b 05020000 		.4byte	.LASF177
 5873 0a6f 0E       		.byte	0xe
 5874 0a70 4401     		.2byte	0x144
 5875 0a72 D1000000 		.4byte	0xd1
 5876 0a76 9E       		.byte	0x9e
 5877 0a77 00       		.byte	0
 5878 0a78 03       		.uleb128 0x3
 5879 0a79 9D090000 		.4byte	.LASF178
 5880 0a7d 0E       		.byte	0xe
 5881 0a7e 50       		.byte	0x50
 5882 0a7f 830A0000 		.4byte	0xa83
 5883 0a83 06       		.uleb128 0x6
 5884 0a84 04       		.byte	0x4
 5885 0a85 890A0000 		.4byte	0xa89
 5886 0a89 15       		.uleb128 0x15
 5887 0a8a 39040000 		.4byte	0x439
 5888 0a8e A70A0000 		.4byte	0xaa7
 5889 0a92 16       		.uleb128 0x16
 5890 0a93 88000000 		.4byte	0x88
 5891 0a97 16       		.uleb128 0x16
 5892 0a98 9E070000 		.4byte	0x79e
 5893 0a9c 16       		.uleb128 0x16
 5894 0a9d 18050000 		.4byte	0x518
 5895 0aa1 16       		.uleb128 0x16
 5896 0aa2 39040000 		.4byte	0x439
 5897 0aa6 00       		.byte	0
 5898 0aa7 03       		.uleb128 0x3
 5899 0aa8 32020000 		.4byte	.LASF179
 5900 0aac 0E       		.byte	0xe
 5901 0aad 5E       		.byte	0x5e
 5902 0aae B20A0000 		.4byte	0xab2
 5903 0ab2 06       		.uleb128 0x6
 5904 0ab3 04       		.byte	0x4
 5905 0ab4 B80A0000 		.4byte	0xab8
 5906 0ab8 15       		.uleb128 0x15
 5907 0ab9 39040000 		.4byte	0x439
 5908 0abd D10A0000 		.4byte	0xad1
 5909 0ac1 16       		.uleb128 0x16
 5910 0ac2 88000000 		.4byte	0x88
 5911 0ac6 16       		.uleb128 0x16
 5912 0ac7 9E070000 		.4byte	0x79e
 5913 0acb 16       		.uleb128 0x16
 5914 0acc E7000000 		.4byte	0xe7
 5915 0ad0 00       		.byte	0
 5916 0ad1 03       		.uleb128 0x3
 5917 0ad2 7A0A0000 		.4byte	.LASF180
 5918 0ad6 0E       		.byte	0xe
 5919 0ad7 6A       		.byte	0x6a
 5920 0ad8 DC0A0000 		.4byte	0xadc
 5921 0adc 06       		.uleb128 0x6
 5922 0add 04       		.byte	0x4
 5923 0ade E20A0000 		.4byte	0xae2
 5924 0ae2 15       		.uleb128 0x15
 5925 0ae3 39040000 		.4byte	0x439
 5926 0ae7 F60A0000 		.4byte	0xaf6
 5927 0aeb 16       		.uleb128 0x16
ARM GAS  C:\Users\Phuong\AppData\Local\Temp\cczg95Bp.s 			page 152


 5928 0aec 88000000 		.4byte	0x88
 5929 0af0 16       		.uleb128 0x16
 5930 0af1 9E070000 		.4byte	0x79e
 5931 0af5 00       		.byte	0
 5932 0af6 03       		.uleb128 0x3
 5933 0af7 FA070000 		.4byte	.LASF181
 5934 0afb 0E       		.byte	0xe
 5935 0afc 76       		.byte	0x76
 5936 0afd 010B0000 		.4byte	0xb01
 5937 0b01 06       		.uleb128 0x6
 5938 0b02 04       		.byte	0x4
 5939 0b03 070B0000 		.4byte	0xb07
 5940 0b07 17       		.uleb128 0x17
 5941 0b08 170B0000 		.4byte	0xb17
 5942 0b0c 16       		.uleb128 0x16
 5943 0b0d 88000000 		.4byte	0x88
 5944 0b11 16       		.uleb128 0x16
 5945 0b12 39040000 		.4byte	0x439
 5946 0b16 00       		.byte	0
 5947 0b17 03       		.uleb128 0x3
 5948 0b18 1A010000 		.4byte	.LASF182
 5949 0b1c 0E       		.byte	0xe
 5950 0b1d 84       		.byte	0x84
 5951 0b1e 7F070000 		.4byte	0x77f
 5952 0b22 03       		.uleb128 0x3
 5953 0b23 350D0000 		.4byte	.LASF183
 5954 0b27 0E       		.byte	0xe
 5955 0b28 91       		.byte	0x91
 5956 0b29 E7000000 		.4byte	0xe7
 5957 0b2d 03       		.uleb128 0x3
 5958 0b2e 6A0A0000 		.4byte	.LASF184
 5959 0b32 0E       		.byte	0xe
 5960 0b33 95       		.byte	0x95
 5961 0b34 E7000000 		.4byte	0xe7
 5962 0b38 14       		.uleb128 0x14
 5963 0b39 7D040000 		.4byte	.LASF185
 5964 0b3d 01       		.byte	0x1
 5965 0b3e 2C000000 		.4byte	0x2c
 5966 0b42 0E       		.byte	0xe
 5967 0b43 9A       		.byte	0x9a
 5968 0b44 8B0B0000 		.4byte	0xb8b
 5969 0b48 0B       		.uleb128 0xb
 5970 0b49 080B0000 		.4byte	.LASF186
 5971 0b4d 00       		.byte	0
 5972 0b4e 0B       		.uleb128 0xb
 5973 0b4f 0F0E0000 		.4byte	.LASF187
 5974 0b53 01       		.byte	0x1
 5975 0b54 0B       		.uleb128 0xb
 5976 0b55 CC0B0000 		.4byte	.LASF188
 5977 0b59 02       		.byte	0x2
 5978 0b5a 0B       		.uleb128 0xb
 5979 0b5b 38100000 		.4byte	.LASF189
 5980 0b5f 03       		.byte	0x3
 5981 0b60 0B       		.uleb128 0xb
 5982 0b61 F30B0000 		.4byte	.LASF190
 5983 0b65 04       		.byte	0x4
 5984 0b66 0B       		.uleb128 0xb
ARM GAS  C:\Users\Phuong\AppData\Local\Temp\cczg95Bp.s 			page 153


 5985 0b67 A5050000 		.4byte	.LASF191
 5986 0b6b 05       		.byte	0x5
 5987 0b6c 0B       		.uleb128 0xb
 5988 0b6d AC0D0000 		.4byte	.LASF192
 5989 0b71 06       		.byte	0x6
 5990 0b72 0B       		.uleb128 0xb
 5991 0b73 73070000 		.4byte	.LASF193
 5992 0b77 07       		.byte	0x7
 5993 0b78 0B       		.uleb128 0xb
 5994 0b79 6C060000 		.4byte	.LASF194
 5995 0b7d 08       		.byte	0x8
 5996 0b7e 0B       		.uleb128 0xb
 5997 0b7f 65090000 		.4byte	.LASF195
 5998 0b83 09       		.byte	0x9
 5999 0b84 0B       		.uleb128 0xb
 6000 0b85 FA000000 		.4byte	.LASF196
 6001 0b89 0A       		.byte	0xa
 6002 0b8a 00       		.byte	0
 6003 0b8b 0C       		.uleb128 0xc
 6004 0b8c 59080000 		.4byte	.LASF197
 6005 0b90 20       		.byte	0x20
 6006 0b91 0E       		.byte	0xe
 6007 0b92 B5       		.byte	0xb5
 6008 0b93 340C0000 		.4byte	0xc34
 6009 0b97 0D       		.uleb128 0xd
 6010 0b98 9A0B0000 		.4byte	.LASF132
 6011 0b9c 0E       		.byte	0xe
 6012 0b9d B7       		.byte	0xb7
 6013 0b9e 42050000 		.4byte	0x542
 6014 0ba2 00       		.byte	0
 6015 0ba3 0D       		.uleb128 0xd
 6016 0ba4 620F0000 		.4byte	.LASF133
 6017 0ba8 0E       		.byte	0xe
 6018 0ba9 B7       		.byte	0xb7
 6019 0baa 42050000 		.4byte	0x542
 6020 0bae 04       		.byte	0x4
 6021 0baf 0D       		.uleb128 0xd
 6022 0bb0 15090000 		.4byte	.LASF134
 6023 0bb4 0E       		.byte	0xe
 6024 0bb5 B7       		.byte	0xb7
 6025 0bb6 D1000000 		.4byte	0xd1
 6026 0bba 08       		.byte	0x8
 6027 0bbb 0E       		.uleb128 0xe
 6028 0bbc 746F7300 		.ascii	"tos\000"
 6029 0bc0 0E       		.byte	0xe
 6030 0bc1 B7       		.byte	0xb7
 6031 0bc2 D1000000 		.4byte	0xd1
 6032 0bc6 09       		.byte	0x9
 6033 0bc7 0E       		.uleb128 0xe
 6034 0bc8 74746C00 		.ascii	"ttl\000"
 6035 0bcc 0E       		.byte	0xe
 6036 0bcd B7       		.byte	0xb7
 6037 0bce D1000000 		.4byte	0xd1
 6038 0bd2 0A       		.byte	0xa
 6039 0bd3 0D       		.uleb128 0xd
 6040 0bd4 2B010000 		.4byte	.LASF95
 6041 0bd8 0E       		.byte	0xe
ARM GAS  C:\Users\Phuong\AppData\Local\Temp\cczg95Bp.s 			page 154


 6042 0bd9 B9       		.byte	0xb9
 6043 0bda 340C0000 		.4byte	0xc34
 6044 0bde 0C       		.byte	0xc
 6045 0bdf 0D       		.uleb128 0xd
 6046 0be0 020E0000 		.4byte	.LASF135
 6047 0be4 0E       		.byte	0xe
 6048 0be5 B9       		.byte	0xb9
 6049 0be6 88000000 		.4byte	0x88
 6050 0bea 10       		.byte	0x10
 6051 0beb 0D       		.uleb128 0xd
 6052 0bec 3C0E0000 		.4byte	.LASF118
 6053 0bf0 0E       		.byte	0xe
 6054 0bf1 B9       		.byte	0xb9
 6055 0bf2 380B0000 		.4byte	0xb38
 6056 0bf6 14       		.byte	0x14
 6057 0bf7 0D       		.uleb128 0xd
 6058 0bf8 1D070000 		.4byte	.LASF136
 6059 0bfc 0E       		.byte	0xe
 6060 0bfd B9       		.byte	0xb9
 6061 0bfe D1000000 		.4byte	0xd1
 6062 0c02 15       		.byte	0x15
 6063 0c03 0D       		.uleb128 0xd
 6064 0c04 2C030000 		.4byte	.LASF137
 6065 0c08 0E       		.byte	0xe
 6066 0c09 B9       		.byte	0xb9
 6067 0c0a E7000000 		.4byte	0xe7
 6068 0c0e 16       		.byte	0x16
 6069 0c0f 0D       		.uleb128 0xd
 6070 0c10 22070000 		.4byte	.LASF198
 6071 0c14 0E       		.byte	0xe
 6072 0c15 BD       		.byte	0xbd
 6073 0c16 74070000 		.4byte	0x774
 6074 0c1a 18       		.byte	0x18
 6075 0c1b 0D       		.uleb128 0xd
 6076 0c1c 89060000 		.4byte	.LASF199
 6077 0c20 0E       		.byte	0xe
 6078 0c21 C1       		.byte	0xc1
 6079 0c22 D1000000 		.4byte	0xd1
 6080 0c26 1C       		.byte	0x1c
 6081 0c27 0D       		.uleb128 0xd
 6082 0c28 D1050000 		.4byte	.LASF200
 6083 0c2c 0E       		.byte	0xe
 6084 0c2d C2       		.byte	0xc2
 6085 0c2e D1000000 		.4byte	0xd1
 6086 0c32 1D       		.byte	0x1d
 6087 0c33 00       		.byte	0
 6088 0c34 06       		.uleb128 0x6
 6089 0c35 04       		.byte	0x4
 6090 0c36 8B0B0000 		.4byte	0xb8b
 6091 0c3a 0C       		.uleb128 0xc
 6092 0c3b 1D040000 		.4byte	.LASF201
 6093 0c3f 14       		.byte	0x14
 6094 0c40 0F       		.byte	0xf
 6095 0c41 F8       		.byte	0xf8
 6096 0c42 8F0C0000 		.4byte	0xc8f
 6097 0c46 0D       		.uleb128 0xd
 6098 0c47 2B010000 		.4byte	.LASF95
ARM GAS  C:\Users\Phuong\AppData\Local\Temp\cczg95Bp.s 			page 155


 6099 0c4b 0F       		.byte	0xf
 6100 0c4c F9       		.byte	0xf9
 6101 0c4d 8F0C0000 		.4byte	0xc8f
 6102 0c51 00       		.byte	0
 6103 0c52 0E       		.uleb128 0xe
 6104 0c53 7000     		.ascii	"p\000"
 6105 0c55 0F       		.byte	0xf
 6106 0c56 FA       		.byte	0xfa
 6107 0c57 18050000 		.4byte	0x518
 6108 0c5b 04       		.byte	0x4
 6109 0c5c 0E       		.uleb128 0xe
 6110 0c5d 6C656E00 		.ascii	"len\000"
 6111 0c61 0F       		.byte	0xf
 6112 0c62 FB       		.byte	0xfb
 6113 0c63 E7000000 		.4byte	0xe7
 6114 0c67 08       		.byte	0x8
 6115 0c68 0D       		.uleb128 0xd
 6116 0c69 C5070000 		.4byte	.LASF202
 6117 0c6d 0F       		.byte	0xf
 6118 0c6e FD       		.byte	0xfd
 6119 0c6f E7000000 		.4byte	0xe7
 6120 0c73 0A       		.byte	0xa
 6121 0c74 11       		.uleb128 0x11
 6122 0c75 CF000000 		.4byte	.LASF99
 6123 0c79 0F       		.byte	0xf
 6124 0c7a 0501     		.2byte	0x105
 6125 0c7c D1000000 		.4byte	0xd1
 6126 0c80 0C       		.byte	0xc
 6127 0c81 11       		.uleb128 0x11
 6128 0c82 FD0C0000 		.4byte	.LASF203
 6129 0c86 0F       		.byte	0xf
 6130 0c87 0B01     		.2byte	0x10b
 6131 0c89 020D0000 		.4byte	0xd02
 6132 0c8d 10       		.byte	0x10
 6133 0c8e 00       		.byte	0
 6134 0c8f 06       		.uleb128 0x6
 6135 0c90 04       		.byte	0x4
 6136 0c91 3A0C0000 		.4byte	0xc3a
 6137 0c95 0C       		.uleb128 0xc
 6138 0c96 6A0D0000 		.4byte	.LASF204
 6139 0c9a 14       		.byte	0x14
 6140 0c9b 10       		.byte	0x10
 6141 0c9c 38       		.byte	0x38
 6142 0c9d 020D0000 		.4byte	0xd02
 6143 0ca1 0E       		.uleb128 0xe
 6144 0ca2 73726300 		.ascii	"src\000"
 6145 0ca6 10       		.byte	0x10
 6146 0ca7 39       		.byte	0x39
 6147 0ca8 E7000000 		.4byte	0xe7
 6148 0cac 00       		.byte	0
 6149 0cad 0D       		.uleb128 0xd
 6150 0cae 2B100000 		.4byte	.LASF205
 6151 0cb2 10       		.byte	0x10
 6152 0cb3 3A       		.byte	0x3a
 6153 0cb4 E7000000 		.4byte	0xe7
 6154 0cb8 02       		.byte	0x2
 6155 0cb9 0D       		.uleb128 0xd
ARM GAS  C:\Users\Phuong\AppData\Local\Temp\cczg95Bp.s 			page 156


 6156 0cba 84020000 		.4byte	.LASF206
 6157 0cbe 10       		.byte	0x10
 6158 0cbf 3B       		.byte	0x3b
 6159 0cc0 FD000000 		.4byte	0xfd
 6160 0cc4 04       		.byte	0x4
 6161 0cc5 0D       		.uleb128 0xd
 6162 0cc6 51000000 		.4byte	.LASF207
 6163 0cca 10       		.byte	0x10
 6164 0ccb 3C       		.byte	0x3c
 6165 0ccc FD000000 		.4byte	0xfd
 6166 0cd0 08       		.byte	0x8
 6167 0cd1 0D       		.uleb128 0xd
 6168 0cd2 A40C0000 		.4byte	.LASF208
 6169 0cd6 10       		.byte	0x10
 6170 0cd7 3D       		.byte	0x3d
 6171 0cd8 E7000000 		.4byte	0xe7
 6172 0cdc 0C       		.byte	0xc
 6173 0cdd 0E       		.uleb128 0xe
 6174 0cde 776E6400 		.ascii	"wnd\000"
 6175 0ce2 10       		.byte	0x10
 6176 0ce3 3E       		.byte	0x3e
 6177 0ce4 E7000000 		.4byte	0xe7
 6178 0ce8 0E       		.byte	0xe
 6179 0ce9 0D       		.uleb128 0xd
 6180 0cea E1050000 		.4byte	.LASF209
 6181 0cee 10       		.byte	0x10
 6182 0cef 3F       		.byte	0x3f
 6183 0cf0 E7000000 		.4byte	0xe7
 6184 0cf4 10       		.byte	0x10
 6185 0cf5 0D       		.uleb128 0xd
 6186 0cf6 89000000 		.4byte	.LASF210
 6187 0cfa 10       		.byte	0x10
 6188 0cfb 40       		.byte	0x40
 6189 0cfc E7000000 		.4byte	0xe7
 6190 0d00 12       		.byte	0x12
 6191 0d01 00       		.byte	0
 6192 0d02 06       		.uleb128 0x6
 6193 0d03 04       		.byte	0x4
 6194 0d04 950C0000 		.4byte	0xc95
 6195 0d08 18       		.uleb128 0x18
 6196 0d09 05080000 		.4byte	.LASF341
 6197 0d0d 04       		.byte	0x4
 6198 0d0e 0F       		.byte	0xf
 6199 0d0f 3C01     		.2byte	0x13c
 6200 0d11 2E0D0000 		.4byte	0xd2e
 6201 0d15 19       		.uleb128 0x19
 6202 0d16 15000000 		.4byte	.LASF211
 6203 0d1a 0F       		.byte	0xf
 6204 0d1b 3D01     		.2byte	0x13d
 6205 0d1d 340C0000 		.4byte	0xc34
 6206 0d21 19       		.uleb128 0x19
 6207 0d22 49100000 		.4byte	.LASF212
 6208 0d26 0F       		.byte	0xf
 6209 0d27 3E01     		.2byte	0x13e
 6210 0d29 9E070000 		.4byte	0x79e
 6211 0d2d 00       		.byte	0
 6212 0d2e 1A       		.uleb128 0x1a
ARM GAS  C:\Users\Phuong\AppData\Local\Temp\cczg95Bp.s 			page 157


 6213 0d2f 4A060000 		.4byte	.LASF215
 6214 0d33 01       		.byte	0x1
 6215 0d34 AD       		.byte	0xad
 6216 0d35 00000000 		.4byte	.LFB55
 6217 0d39 14000000 		.4byte	.LFE55-.LFB55
 6218 0d3d 01       		.uleb128 0x1
 6219 0d3e 9C       		.byte	0x9c
 6220 0d3f 6D0D0000 		.4byte	0xd6d
 6221 0d43 1B       		.uleb128 0x1b
 6222 0d44 8A020000 		.4byte	.LASF213
 6223 0d48 01       		.byte	0x1
 6224 0d49 AD       		.byte	0xad
 6225 0d4a 9E070000 		.4byte	0x79e
 6226 0d4e 00000000 		.4byte	.LLST0
 6227 0d52 1C       		.uleb128 0x1c
 6228 0d53 9E0E0000 		.4byte	.LASF214
 6229 0d57 01       		.byte	0x1
 6230 0d58 AD       		.byte	0xad
 6231 0d59 340C0000 		.4byte	0xc34
 6232 0d5d 01       		.uleb128 0x1
 6233 0d5e 51       		.byte	0x51
 6234 0d5f 1D       		.uleb128 0x1d
 6235 0d60 70636200 		.ascii	"pcb\000"
 6236 0d64 01       		.byte	0x1
 6237 0d65 AF       		.byte	0xaf
 6238 0d66 9E070000 		.4byte	0x79e
 6239 0d6a 01       		.uleb128 0x1
 6240 0d6b 50       		.byte	0x50
 6241 0d6c 00       		.byte	0
 6242 0d6d 1A       		.uleb128 0x1a
 6243 0d6e 20060000 		.4byte	.LASF216
 6244 0d72 01       		.byte	0x1
 6245 0d73 BC       		.byte	0xbc
 6246 0d74 00000000 		.4byte	.LFB56
 6247 0d78 24000000 		.4byte	.LFE56-.LFB56
 6248 0d7c 01       		.uleb128 0x1
 6249 0d7d 9C       		.byte	0x9c
 6250 0d7e AF0D0000 		.4byte	0xdaf
 6251 0d82 1E       		.uleb128 0x1e
 6252 0d83 70636200 		.ascii	"pcb\000"
 6253 0d87 01       		.byte	0x1
 6254 0d88 BC       		.byte	0xbc
 6255 0d89 9E070000 		.4byte	0x79e
 6256 0d8d 21000000 		.4byte	.LLST1
 6257 0d91 1F       		.uleb128 0x1f
 6258 0d92 6900     		.ascii	"i\000"
 6259 0d94 01       		.byte	0x1
 6260 0d95 BF       		.byte	0xbf
 6261 0d96 76000000 		.4byte	0x76
 6262 0d9a 4D000000 		.4byte	.LLST2
 6263 0d9e 20       		.uleb128 0x20
 6264 0d9f 16000000 		.4byte	.LVL6
 6265 0da3 2E0D0000 		.4byte	0xd2e
 6266 0da7 21       		.uleb128 0x21
 6267 0da8 01       		.uleb128 0x1
 6268 0da9 51       		.byte	0x51
 6269 0daa 02       		.uleb128 0x2
ARM GAS  C:\Users\Phuong\AppData\Local\Temp\cczg95Bp.s 			page 158


 6270 0dab 75       		.byte	0x75
 6271 0dac 00       		.sleb128 0
 6272 0dad 00       		.byte	0
 6273 0dae 00       		.byte	0
 6274 0daf 22       		.uleb128 0x22
 6275 0db0 08000000 		.4byte	.LASF220
 6276 0db4 01       		.byte	0x1
 6277 0db5 4603     		.2byte	0x346
 6278 0db7 E7000000 		.4byte	0xe7
 6279 0dbb 00000000 		.4byte	.LFB71
 6280 0dbf 68000000 		.4byte	.LFE71-.LFB71
 6281 0dc3 01       		.uleb128 0x1
 6282 0dc4 9C       		.byte	0x9c
 6283 0dc5 020E0000 		.4byte	0xe02
 6284 0dc9 23       		.uleb128 0x23
 6285 0dca 6900     		.ascii	"i\000"
 6286 0dcc 01       		.byte	0x1
 6287 0dcd 4803     		.2byte	0x348
 6288 0dcf D1000000 		.4byte	0xd1
 6289 0dd3 6C000000 		.4byte	.LLST3
 6290 0dd7 23       		.uleb128 0x23
 6291 0dd8 6E00     		.ascii	"n\000"
 6292 0dda 01       		.byte	0x1
 6293 0ddb 4903     		.2byte	0x349
 6294 0ddd E7000000 		.4byte	0xe7
 6295 0de1 A1000000 		.4byte	.LLST4
 6296 0de5 23       		.uleb128 0x23
 6297 0de6 70636200 		.ascii	"pcb\000"
 6298 0dea 01       		.byte	0x1
 6299 0deb 4A03     		.2byte	0x34a
 6300 0ded 9E070000 		.4byte	0x79e
 6301 0df1 CB000000 		.4byte	.LLST5
 6302 0df5 24       		.uleb128 0x24
 6303 0df6 83000000 		.4byte	.LASF228
 6304 0dfa 01       		.byte	0x1
 6305 0dfb 4C03     		.2byte	0x34c
 6306 0dfd 04000000 		.4byte	.L11
 6307 0e01 00       		.byte	0
 6308 0e02 25       		.uleb128 0x25
 6309 0e03 7E090000 		.4byte	.LASF217
 6310 0e07 01       		.byte	0x1
 6311 0e08 91       		.byte	0x91
 6312 0e09 00000000 		.4byte	.LFB53
 6313 0e0d 20000000 		.4byte	.LFE53-.LFB53
 6314 0e11 01       		.uleb128 0x1
 6315 0e12 9C       		.byte	0x9c
 6316 0e13 210E0000 		.4byte	0xe21
 6317 0e17 26       		.uleb128 0x26
 6318 0e18 06000000 		.4byte	.LVL26
 6319 0e1c 25250000 		.4byte	0x2525
 6320 0e20 00       		.byte	0
 6321 0e21 25       		.uleb128 0x25
 6322 0e22 60040000 		.4byte	.LASF218
 6323 0e26 01       		.byte	0x1
 6324 0e27 D5       		.byte	0xd5
 6325 0e28 00000000 		.4byte	.LFB57
 6326 0e2c 1E000000 		.4byte	.LFE57-.LFB57
ARM GAS  C:\Users\Phuong\AppData\Local\Temp\cczg95Bp.s 			page 159


 6327 0e30 01       		.uleb128 0x1
 6328 0e31 9C       		.byte	0x9c
 6329 0e32 440E0000 		.4byte	0xe44
 6330 0e36 27       		.uleb128 0x27
 6331 0e37 70636200 		.ascii	"pcb\000"
 6332 0e3b 01       		.byte	0x1
 6333 0e3c D5       		.byte	0xd5
 6334 0e3d 9E070000 		.4byte	0x79e
 6335 0e41 01       		.uleb128 0x1
 6336 0e42 50       		.byte	0x50
 6337 0e43 00       		.byte	0
 6338 0e44 25       		.uleb128 0x25
 6339 0e45 74060000 		.4byte	.LASF219
 6340 0e49 01       		.byte	0x1
 6341 0e4a EB       		.byte	0xeb
 6342 0e4b 00000000 		.4byte	.LFB58
 6343 0e4f 20000000 		.4byte	.LFE58-.LFB58
 6344 0e53 01       		.uleb128 0x1
 6345 0e54 9C       		.byte	0x9c
 6346 0e55 670E0000 		.4byte	0xe67
 6347 0e59 27       		.uleb128 0x27
 6348 0e5a 70636200 		.ascii	"pcb\000"
 6349 0e5e 01       		.byte	0x1
 6350 0e5f EB       		.byte	0xeb
 6351 0e60 9E070000 		.4byte	0x79e
 6352 0e64 01       		.uleb128 0x1
 6353 0e65 50       		.byte	0x50
 6354 0e66 00       		.byte	0
 6355 0e67 22       		.uleb128 0x22
 6356 0e68 BE090000 		.4byte	.LASF221
 6357 0e6c 01       		.byte	0x1
 6358 0e6d 4A01     		.2byte	0x14a
 6359 0e6f 39040000 		.4byte	0x439
 6360 0e73 00000000 		.4byte	.LFB60
 6361 0e77 66000000 		.4byte	.LFE60-.LFB60
 6362 0e7b 01       		.uleb128 0x1
 6363 0e7c 9C       		.byte	0x9c
 6364 0e7d EC0E0000 		.4byte	0xeec
 6365 0e81 28       		.uleb128 0x28
 6366 0e82 70636200 		.ascii	"pcb\000"
 6367 0e86 01       		.byte	0x1
 6368 0e87 4A01     		.2byte	0x14a
 6369 0e89 9E070000 		.4byte	0x79e
 6370 0e8d E9000000 		.4byte	.LLST6
 6371 0e91 23       		.uleb128 0x23
 6372 0e92 65727200 		.ascii	"err\000"
 6373 0e96 01       		.byte	0x1
 6374 0e97 4C01     		.2byte	0x14c
 6375 0e99 39040000 		.4byte	0x439
 6376 0e9d 57010000 		.4byte	.LLST7
 6377 0ea1 29       		.uleb128 0x29
 6378 0ea2 16000000 		.4byte	.LVL30
 6379 0ea6 30250000 		.4byte	0x2530
 6380 0eaa B50E0000 		.4byte	0xeb5
 6381 0eae 21       		.uleb128 0x21
 6382 0eaf 01       		.uleb128 0x1
 6383 0eb0 50       		.byte	0x50
ARM GAS  C:\Users\Phuong\AppData\Local\Temp\cczg95Bp.s 			page 160


 6384 0eb1 02       		.uleb128 0x2
 6385 0eb2 75       		.byte	0x75
 6386 0eb3 00       		.sleb128 0
 6387 0eb4 00       		.byte	0
 6388 0eb5 29       		.uleb128 0x29
 6389 0eb6 20000000 		.4byte	.LVL33
 6390 0eba 440E0000 		.4byte	0xe44
 6391 0ebe C90E0000 		.4byte	0xec9
 6392 0ec2 21       		.uleb128 0x21
 6393 0ec3 01       		.uleb128 0x1
 6394 0ec4 50       		.byte	0x50
 6395 0ec5 02       		.uleb128 0x2
 6396 0ec6 75       		.byte	0x75
 6397 0ec7 00       		.sleb128 0
 6398 0ec8 00       		.byte	0
 6399 0ec9 26       		.uleb128 0x26
 6400 0eca 2A000000 		.4byte	.LVL35
 6401 0ece 30250000 		.4byte	0x2530
 6402 0ed2 26       		.uleb128 0x26
 6403 0ed3 38000000 		.4byte	.LVL38
 6404 0ed7 30250000 		.4byte	0x2530
 6405 0edb 20       		.uleb128 0x20
 6406 0edc 4A000000 		.4byte	.LVL41
 6407 0ee0 3C250000 		.4byte	0x253c
 6408 0ee4 21       		.uleb128 0x21
 6409 0ee5 01       		.uleb128 0x1
 6410 0ee6 50       		.byte	0x50
 6411 0ee7 02       		.uleb128 0x2
 6412 0ee8 75       		.byte	0x75
 6413 0ee9 00       		.sleb128 0
 6414 0eea 00       		.byte	0
 6415 0eeb 00       		.byte	0
 6416 0eec 2A       		.uleb128 0x2a
 6417 0eed DE000000 		.4byte	.LASF226
 6418 0ef1 01       		.byte	0x1
 6419 0ef2 3202     		.2byte	0x232
 6420 0ef4 39040000 		.4byte	0x439
 6421 0ef8 00000000 		.4byte	.LFB65
 6422 0efc E0000000 		.4byte	.LFE65-.LFB65
 6423 0f00 01       		.uleb128 0x1
 6424 0f01 9C       		.byte	0x9c
 6425 0f02 770F0000 		.4byte	0xf77
 6426 0f06 28       		.uleb128 0x28
 6427 0f07 70636200 		.ascii	"pcb\000"
 6428 0f0b 01       		.byte	0x1
 6429 0f0c 3202     		.2byte	0x232
 6430 0f0e 9E070000 		.4byte	0x79e
 6431 0f12 A1010000 		.4byte	.LLST8
 6432 0f16 2B       		.uleb128 0x2b
 6433 0f17 E8050000 		.4byte	.LASF222
 6434 0f1b 01       		.byte	0x1
 6435 0f1c 3202     		.2byte	0x232
 6436 0f1e 770F0000 		.4byte	0xf77
 6437 0f22 25020000 		.4byte	.LLST9
 6438 0f26 2B       		.uleb128 0x2b
 6439 0f27 230D0000 		.4byte	.LASF223
 6440 0f2b 01       		.byte	0x1
ARM GAS  C:\Users\Phuong\AppData\Local\Temp\cczg95Bp.s 			page 161


 6441 0f2c 3202     		.2byte	0x232
 6442 0f2e E7000000 		.4byte	0xe7
 6443 0f32 43020000 		.4byte	.LLST10
 6444 0f36 23       		.uleb128 0x23
 6445 0f37 6900     		.ascii	"i\000"
 6446 0f39 01       		.byte	0x1
 6447 0f3a 3402     		.2byte	0x234
 6448 0f3c 68000000 		.4byte	0x68
 6449 0f40 A7020000 		.4byte	.LLST11
 6450 0f44 2C       		.uleb128 0x2c
 6451 0f45 18030000 		.4byte	.LASF224
 6452 0f49 01       		.byte	0x1
 6453 0f4a 3502     		.2byte	0x235
 6454 0f4c 68000000 		.4byte	0x68
 6455 0f50 D0020000 		.4byte	.LLST12
 6456 0f54 2C       		.uleb128 0x2c
 6457 0f55 6C0B0000 		.4byte	.LASF225
 6458 0f59 01       		.byte	0x1
 6459 0f5a 3602     		.2byte	0x236
 6460 0f5c 9E070000 		.4byte	0x79e
 6461 0f60 11030000 		.4byte	.LLST13
 6462 0f64 26       		.uleb128 0x26
 6463 0f65 32000000 		.4byte	.LVL51
 6464 0f69 AF0D0000 		.4byte	0xdaf
 6465 0f6d 26       		.uleb128 0x26
 6466 0f6e 9A000000 		.4byte	.LVL61
 6467 0f72 48250000 		.4byte	0x2548
 6468 0f76 00       		.byte	0
 6469 0f77 06       		.uleb128 0x6
 6470 0f78 04       		.byte	0x4
 6471 0f79 7D0F0000 		.4byte	0xf7d
 6472 0f7d 07       		.uleb128 0x7
 6473 0f7e 42050000 		.4byte	0x542
 6474 0f82 2A       		.uleb128 0x2a
 6475 0f83 D30A0000 		.4byte	.LASF227
 6476 0f87 01       		.byte	0x1
 6477 0f88 AE02     		.2byte	0x2ae
 6478 0f8a 9E070000 		.4byte	0x79e
 6479 0f8e 00000000 		.4byte	.LFB68
 6480 0f92 F0000000 		.4byte	.LFE68-.LFB68
 6481 0f96 01       		.uleb128 0x1
 6482 0f97 9C       		.byte	0x9c
 6483 0f98 5C100000 		.4byte	0x105c
 6484 0f9c 28       		.uleb128 0x28
 6485 0f9d 70636200 		.ascii	"pcb\000"
 6486 0fa1 01       		.byte	0x1
 6487 0fa2 AE02     		.2byte	0x2ae
 6488 0fa4 9E070000 		.4byte	0x79e
 6489 0fa8 2F030000 		.4byte	.LLST14
 6490 0fac 2B       		.uleb128 0x2b
 6491 0fad 89060000 		.4byte	.LASF199
 6492 0fb1 01       		.byte	0x1
 6493 0fb2 AE02     		.2byte	0x2ae
 6494 0fb4 D1000000 		.4byte	0xd1
 6495 0fb8 71030000 		.4byte	.LLST15
 6496 0fbc 28       		.uleb128 0x28
 6497 0fbd 65727200 		.ascii	"err\000"
ARM GAS  C:\Users\Phuong\AppData\Local\Temp\cczg95Bp.s 			page 162


 6498 0fc1 01       		.byte	0x1
 6499 0fc2 AE02     		.2byte	0x2ae
 6500 0fc4 5C100000 		.4byte	0x105c
 6501 0fc8 AB030000 		.4byte	.LLST16
 6502 0fcc 2C       		.uleb128 0x2c
 6503 0fcd 9E0E0000 		.4byte	.LASF214
 6504 0fd1 01       		.byte	0x1
 6505 0fd2 B002     		.2byte	0x2b0
 6506 0fd4 340C0000 		.4byte	0xc34
 6507 0fd8 ED030000 		.4byte	.LLST17
 6508 0fdc 23       		.uleb128 0x23
 6509 0fdd 72657300 		.ascii	"res\000"
 6510 0fe1 01       		.byte	0x1
 6511 0fe2 B102     		.2byte	0x2b1
 6512 0fe4 39040000 		.4byte	0x439
 6513 0fe8 5A040000 		.4byte	.LLST18
 6514 0fec 24       		.uleb128 0x24
 6515 0fed EA090000 		.4byte	.LASF229
 6516 0ff1 01       		.byte	0x1
 6517 0ff2 E902     		.2byte	0x2e9
 6518 0ff4 D4000000 		.4byte	.L70
 6519 0ff8 2D       		.uleb128 0x2d
 6520 0ff9 7A000000 		.4byte	.LBB2
 6521 0ffd 12000000 		.4byte	.LBE2-.LBB2
 6522 1001 16100000 		.4byte	0x1016
 6523 1005 2C       		.uleb128 0x2c
 6524 1006 3E060000 		.4byte	.LASF230
 6525 100a 01       		.byte	0x1
 6526 100b DD02     		.2byte	0x2dd
 6527 100d 9E070000 		.4byte	0x79e
 6528 1011 79040000 		.4byte	.LLST19
 6529 1015 00       		.byte	0
 6530 1016 29       		.uleb128 0x29
 6531 1017 40000000 		.4byte	.LVL81
 6532 101b 54250000 		.4byte	0x2554
 6533 101f 39100000 		.4byte	0x1039
 6534 1023 21       		.uleb128 0x21
 6535 1024 01       		.uleb128 0x1
 6536 1025 50       		.byte	0x50
 6537 1026 01       		.uleb128 0x1
 6538 1027 33       		.byte	0x33
 6539 1028 21       		.uleb128 0x21
 6540 1029 01       		.uleb128 0x1
 6541 102a 51       		.byte	0x51
 6542 102b 05       		.uleb128 0x5
 6543 102c 03       		.byte	0x3
 6544 102d 00000000 		.4byte	.LC8
 6545 1031 21       		.uleb128 0x21
 6546 1032 01       		.uleb128 0x1
 6547 1033 52       		.byte	0x52
 6548 1034 03       		.uleb128 0x3
 6549 1035 0A       		.byte	0xa
 6550 1036 CC02     		.2byte	0x2cc
 6551 1038 00       		.byte	0
 6552 1039 29       		.uleb128 0x29
 6553 103a 98000000 		.4byte	.LVL87
 6554 103e 5F250000 		.4byte	0x255f
ARM GAS  C:\Users\Phuong\AppData\Local\Temp\cczg95Bp.s 			page 163


 6555 1042 52100000 		.4byte	0x1052
 6556 1046 21       		.uleb128 0x21
 6557 1047 01       		.uleb128 0x1
 6558 1048 50       		.byte	0x50
 6559 1049 01       		.uleb128 0x1
 6560 104a 32       		.byte	0x32
 6561 104b 21       		.uleb128 0x21
 6562 104c 01       		.uleb128 0x1
 6563 104d 51       		.byte	0x51
 6564 104e 02       		.uleb128 0x2
 6565 104f 74       		.byte	0x74
 6566 1050 00       		.sleb128 0
 6567 1051 00       		.byte	0
 6568 1052 26       		.uleb128 0x26
 6569 1053 B4000000 		.4byte	.LVL88
 6570 1057 48250000 		.4byte	0x2548
 6571 105b 00       		.byte	0
 6572 105c 06       		.uleb128 0x6
 6573 105d 04       		.byte	0x4
 6574 105e 39040000 		.4byte	0x439
 6575 1062 2A       		.uleb128 0x2a
 6576 1063 39090000 		.4byte	.LASF231
 6577 1067 01       		.byte	0x1
 6578 1068 9802     		.2byte	0x298
 6579 106a 9E070000 		.4byte	0x79e
 6580 106e 00000000 		.4byte	.LFB67
 6581 1072 0A000000 		.4byte	.LFE67-.LFB67
 6582 1076 01       		.uleb128 0x1
 6583 1077 9C       		.byte	0x9c
 6584 1078 B3100000 		.4byte	0x10b3
 6585 107c 28       		.uleb128 0x28
 6586 107d 70636200 		.ascii	"pcb\000"
 6587 1081 01       		.byte	0x1
 6588 1082 9802     		.2byte	0x298
 6589 1084 9E070000 		.4byte	0x79e
 6590 1088 8C040000 		.4byte	.LLST20
 6591 108c 2B       		.uleb128 0x2b
 6592 108d 89060000 		.4byte	.LASF199
 6593 1091 01       		.byte	0x1
 6594 1092 9802     		.2byte	0x298
 6595 1094 D1000000 		.4byte	0xd1
 6596 1098 AD040000 		.4byte	.LLST21
 6597 109c 20       		.uleb128 0x20
 6598 109d 08000000 		.4byte	.LVL98
 6599 10a1 820F0000 		.4byte	0xf82
 6600 10a5 21       		.uleb128 0x21
 6601 10a6 01       		.uleb128 0x1
 6602 10a7 50       		.byte	0x50
 6603 10a8 03       		.uleb128 0x3
 6604 10a9 F3       		.byte	0xf3
 6605 10aa 01       		.uleb128 0x1
 6606 10ab 50       		.byte	0x50
 6607 10ac 21       		.uleb128 0x21
 6608 10ad 01       		.uleb128 0x1
 6609 10ae 52       		.byte	0x52
 6610 10af 01       		.uleb128 0x1
 6611 10b0 30       		.byte	0x30
ARM GAS  C:\Users\Phuong\AppData\Local\Temp\cczg95Bp.s 			page 164


 6612 10b1 00       		.byte	0
 6613 10b2 00       		.byte	0
 6614 10b3 2A       		.uleb128 0x2a
 6615 10b4 160A0000 		.4byte	.LASF232
 6616 10b8 01       		.byte	0x1
 6617 10b9 F702     		.2byte	0x2f7
 6618 10bb FD000000 		.4byte	0xfd
 6619 10bf 00000000 		.4byte	.LFB69
 6620 10c3 3C000000 		.4byte	.LFE69-.LFB69
 6621 10c7 01       		.uleb128 0x1
 6622 10c8 9C       		.byte	0x9c
 6623 10c9 06110000 		.4byte	0x1106
 6624 10cd 28       		.uleb128 0x28
 6625 10ce 70636200 		.ascii	"pcb\000"
 6626 10d2 01       		.byte	0x1
 6627 10d3 F702     		.2byte	0x2f7
 6628 10d5 9E070000 		.4byte	0x79e
 6629 10d9 CE040000 		.4byte	.LLST22
 6630 10dd 2E       		.uleb128 0x2e
 6631 10de 54010000 		.4byte	.LASF233
 6632 10e2 01       		.byte	0x1
 6633 10e3 F902     		.2byte	0x2f9
 6634 10e5 FD000000 		.4byte	0xfd
 6635 10e9 01       		.uleb128 0x1
 6636 10ea 52       		.byte	0x52
 6637 10eb 2F       		.uleb128 0x2f
 6638 10ec 2E000000 		.4byte	.LBB3
 6639 10f0 04000000 		.4byte	.LBE3-.LBB3
 6640 10f4 2C       		.uleb128 0x2c
 6641 10f5 6E090000 		.4byte	.LASF234
 6642 10f9 01       		.byte	0x1
 6643 10fa 0603     		.2byte	0x306
 6644 10fc FD000000 		.4byte	0xfd
 6645 1100 21050000 		.4byte	.LLST23
 6646 1104 00       		.byte	0
 6647 1105 00       		.byte	0
 6648 1106 30       		.uleb128 0x30
 6649 1107 BB040000 		.4byte	.LASF235
 6650 110b 01       		.byte	0x1
 6651 110c 1A03     		.2byte	0x31a
 6652 110e 00000000 		.4byte	.LFB70
 6653 1112 4C000000 		.4byte	.LFE70-.LFB70
 6654 1116 01       		.uleb128 0x1
 6655 1117 9C       		.byte	0x9c
 6656 1118 71110000 		.4byte	0x1171
 6657 111c 28       		.uleb128 0x28
 6658 111d 70636200 		.ascii	"pcb\000"
 6659 1121 01       		.byte	0x1
 6660 1122 1A03     		.2byte	0x31a
 6661 1124 9E070000 		.4byte	0x79e
 6662 1128 34050000 		.4byte	.LLST24
 6663 112c 28       		.uleb128 0x28
 6664 112d 6C656E00 		.ascii	"len\000"
 6665 1131 01       		.byte	0x1
 6666 1132 1A03     		.2byte	0x31a
 6667 1134 E7000000 		.4byte	0xe7
 6668 1138 60050000 		.4byte	.LLST25
ARM GAS  C:\Users\Phuong\AppData\Local\Temp\cczg95Bp.s 			page 165


 6669 113c 2C       		.uleb128 0x2c
 6670 113d 8D070000 		.4byte	.LASF236
 6671 1141 01       		.byte	0x1
 6672 1142 1C03     		.2byte	0x31c
 6673 1144 68000000 		.4byte	0x68
 6674 1148 81050000 		.4byte	.LLST26
 6675 114c 29       		.uleb128 0x29
 6676 114d 2E000000 		.4byte	.LVL110
 6677 1151 B3100000 		.4byte	0x10b3
 6678 1155 60110000 		.4byte	0x1160
 6679 1159 21       		.uleb128 0x21
 6680 115a 01       		.uleb128 0x1
 6681 115b 50       		.byte	0x50
 6682 115c 02       		.uleb128 0x2
 6683 115d 74       		.byte	0x74
 6684 115e 00       		.sleb128 0
 6685 115f 00       		.byte	0
 6686 1160 20       		.uleb128 0x20
 6687 1161 42000000 		.4byte	.LVL112
 6688 1165 3C250000 		.4byte	0x253c
 6689 1169 21       		.uleb128 0x21
 6690 116a 01       		.uleb128 0x1
 6691 116b 50       		.byte	0x50
 6692 116c 02       		.uleb128 0x2
 6693 116d 74       		.byte	0x74
 6694 116e 00       		.sleb128 0
 6695 116f 00       		.byte	0
 6696 1170 00       		.byte	0
 6697 1171 30       		.uleb128 0x30
 6698 1172 B20B0000 		.4byte	.LASF237
 6699 1176 01       		.byte	0x1
 6700 1177 1205     		.2byte	0x512
 6701 1179 00000000 		.4byte	.LFB75
 6702 117d 20000000 		.4byte	.LFE75-.LFB75
 6703 1181 01       		.uleb128 0x1
 6704 1182 9C       		.byte	0x9c
 6705 1183 A8110000 		.4byte	0x11a8
 6706 1187 23       		.uleb128 0x23
 6707 1188 70636200 		.ascii	"pcb\000"
 6708 118c 01       		.byte	0x1
 6709 118d 1405     		.2byte	0x514
 6710 118f 9E070000 		.4byte	0x79e
 6711 1193 94050000 		.4byte	.LLST27
 6712 1197 20       		.uleb128 0x20
 6713 1198 14000000 		.4byte	.LVL115
 6714 119c 3C250000 		.4byte	0x253c
 6715 11a0 21       		.uleb128 0x21
 6716 11a1 01       		.uleb128 0x1
 6717 11a2 50       		.byte	0x50
 6718 11a3 02       		.uleb128 0x2
 6719 11a4 74       		.byte	0x74
 6720 11a5 00       		.sleb128 0
 6721 11a6 00       		.byte	0
 6722 11a7 00       		.byte	0
 6723 11a8 30       		.uleb128 0x30
 6724 11a9 AA0A0000 		.4byte	.LASF238
 6725 11ad 01       		.byte	0x1
ARM GAS  C:\Users\Phuong\AppData\Local\Temp\cczg95Bp.s 			page 166


 6726 11ae 6E05     		.2byte	0x56e
 6727 11b0 00000000 		.4byte	.LFB78
 6728 11b4 1A000000 		.4byte	.LFE78-.LFB78
 6729 11b8 01       		.uleb128 0x1
 6730 11b9 9C       		.byte	0x9c
 6731 11ba ED110000 		.4byte	0x11ed
 6732 11be 28       		.uleb128 0x28
 6733 11bf 73656700 		.ascii	"seg\000"
 6734 11c3 01       		.byte	0x1
 6735 11c4 6E05     		.2byte	0x56e
 6736 11c6 8F0C0000 		.4byte	0xc8f
 6737 11ca A7050000 		.4byte	.LLST28
 6738 11ce 26       		.uleb128 0x26
 6739 11cf 10000000 		.4byte	.LVL120
 6740 11d3 6A250000 		.4byte	0x256a
 6741 11d7 20       		.uleb128 0x20
 6742 11d8 18000000 		.4byte	.LVL121
 6743 11dc 5F250000 		.4byte	0x255f
 6744 11e0 21       		.uleb128 0x21
 6745 11e1 01       		.uleb128 0x1
 6746 11e2 50       		.byte	0x50
 6747 11e3 01       		.uleb128 0x1
 6748 11e4 34       		.byte	0x34
 6749 11e5 21       		.uleb128 0x21
 6750 11e6 01       		.uleb128 0x1
 6751 11e7 51       		.byte	0x51
 6752 11e8 02       		.uleb128 0x2
 6753 11e9 74       		.byte	0x74
 6754 11ea 00       		.sleb128 0
 6755 11eb 00       		.byte	0
 6756 11ec 00       		.byte	0
 6757 11ed 30       		.uleb128 0x30
 6758 11ee BA0F0000 		.4byte	.LASF239
 6759 11f2 01       		.byte	0x1
 6760 11f3 5F05     		.2byte	0x55f
 6761 11f5 00000000 		.4byte	.LFB77
 6762 11f9 12000000 		.4byte	.LFE77-.LFB77
 6763 11fd 01       		.uleb128 0x1
 6764 11fe 9C       		.byte	0x9c
 6765 11ff 37120000 		.4byte	0x1237
 6766 1203 28       		.uleb128 0x28
 6767 1204 73656700 		.ascii	"seg\000"
 6768 1208 01       		.byte	0x1
 6769 1209 5F05     		.2byte	0x55f
 6770 120b 8F0C0000 		.4byte	0xc8f
 6771 120f D3050000 		.4byte	.LLST29
 6772 1213 2F       		.uleb128 0x2f
 6773 1214 04000000 		.4byte	.LBB4
 6774 1218 08000000 		.4byte	.LBE4-.LBB4
 6775 121c 2C       		.uleb128 0x2c
 6776 121d 2B010000 		.4byte	.LASF95
 6777 1221 01       		.byte	0x1
 6778 1222 6205     		.2byte	0x562
 6779 1224 8F0C0000 		.4byte	0xc8f
 6780 1228 FC050000 		.4byte	.LLST30
 6781 122c 26       		.uleb128 0x26
 6782 122d 0A000000 		.4byte	.LVL125
ARM GAS  C:\Users\Phuong\AppData\Local\Temp\cczg95Bp.s 			page 167


 6783 1231 A8110000 		.4byte	0x11a8
 6784 1235 00       		.byte	0
 6785 1236 00       		.byte	0
 6786 1237 30       		.uleb128 0x30
 6787 1238 5E0D0000 		.4byte	.LASF240
 6788 123c 01       		.byte	0x1
 6789 123d 8205     		.2byte	0x582
 6790 123f 00000000 		.4byte	.LFB79
 6791 1243 04000000 		.4byte	.LFE79-.LFB79
 6792 1247 01       		.uleb128 0x1
 6793 1248 9C       		.byte	0x9c
 6794 1249 6A120000 		.4byte	0x126a
 6795 124d 31       		.uleb128 0x31
 6796 124e 70636200 		.ascii	"pcb\000"
 6797 1252 01       		.byte	0x1
 6798 1253 8205     		.2byte	0x582
 6799 1255 9E070000 		.4byte	0x79e
 6800 1259 01       		.uleb128 0x1
 6801 125a 50       		.byte	0x50
 6802 125b 32       		.uleb128 0x32
 6803 125c 1D070000 		.4byte	.LASF136
 6804 1260 01       		.byte	0x1
 6805 1261 8205     		.2byte	0x582
 6806 1263 D1000000 		.4byte	0xd1
 6807 1267 01       		.uleb128 0x1
 6808 1268 51       		.byte	0x51
 6809 1269 00       		.byte	0
 6810 126a 2A       		.uleb128 0x2a
 6811 126b D3070000 		.4byte	.LASF241
 6812 126f 01       		.byte	0x1
 6813 1270 9005     		.2byte	0x590
 6814 1272 8F0C0000 		.4byte	0xc8f
 6815 1276 00000000 		.4byte	.LFB80
 6816 127a 30000000 		.4byte	.LFE80-.LFB80
 6817 127e 01       		.uleb128 0x1
 6818 127f 9C       		.byte	0x9c
 6819 1280 F0120000 		.4byte	0x12f0
 6820 1284 28       		.uleb128 0x28
 6821 1285 73656700 		.ascii	"seg\000"
 6822 1289 01       		.byte	0x1
 6823 128a 9005     		.2byte	0x590
 6824 128c 8F0C0000 		.4byte	0xc8f
 6825 1290 0F060000 		.4byte	.LLST31
 6826 1294 2C       		.uleb128 0x2c
 6827 1295 3E000000 		.4byte	.LASF242
 6828 1299 01       		.byte	0x1
 6829 129a 9205     		.2byte	0x592
 6830 129c 8F0C0000 		.4byte	0xc8f
 6831 12a0 3B060000 		.4byte	.LLST32
 6832 12a4 29       		.uleb128 0x29
 6833 12a5 0E000000 		.4byte	.LVL130
 6834 12a9 54250000 		.4byte	0x2554
 6835 12ad C7120000 		.4byte	0x12c7
 6836 12b1 21       		.uleb128 0x21
 6837 12b2 01       		.uleb128 0x1
 6838 12b3 50       		.byte	0x50
 6839 12b4 01       		.uleb128 0x1
ARM GAS  C:\Users\Phuong\AppData\Local\Temp\cczg95Bp.s 			page 168


 6840 12b5 34       		.byte	0x34
 6841 12b6 21       		.uleb128 0x21
 6842 12b7 01       		.uleb128 0x1
 6843 12b8 51       		.byte	0x51
 6844 12b9 05       		.uleb128 0x5
 6845 12ba 03       		.byte	0x3
 6846 12bb 00000000 		.4byte	.LC8
 6847 12bf 21       		.uleb128 0x21
 6848 12c0 01       		.uleb128 0x1
 6849 12c1 52       		.byte	0x52
 6850 12c2 03       		.uleb128 0x3
 6851 12c3 0A       		.byte	0xa
 6852 12c4 9405     		.2byte	0x594
 6853 12c6 00       		.byte	0
 6854 12c7 29       		.uleb128 0x29
 6855 12c8 1A000000 		.4byte	.LVL132
 6856 12cc 75250000 		.4byte	0x2575
 6857 12d0 E6120000 		.4byte	0x12e6
 6858 12d4 21       		.uleb128 0x21
 6859 12d5 01       		.uleb128 0x1
 6860 12d6 50       		.byte	0x50
 6861 12d7 02       		.uleb128 0x2
 6862 12d8 74       		.byte	0x74
 6863 12d9 00       		.sleb128 0
 6864 12da 21       		.uleb128 0x21
 6865 12db 01       		.uleb128 0x1
 6866 12dc 51       		.byte	0x51
 6867 12dd 02       		.uleb128 0x2
 6868 12de 75       		.byte	0x75
 6869 12df 00       		.sleb128 0
 6870 12e0 21       		.uleb128 0x21
 6871 12e1 01       		.uleb128 0x1
 6872 12e2 52       		.byte	0x52
 6873 12e3 01       		.uleb128 0x1
 6874 12e4 44       		.byte	0x44
 6875 12e5 00       		.byte	0
 6876 12e6 26       		.uleb128 0x26
 6877 12e7 20000000 		.4byte	.LVL133
 6878 12eb 7E250000 		.4byte	0x257e
 6879 12ef 00       		.byte	0
 6880 12f0 30       		.uleb128 0x30
 6881 12f1 D30F0000 		.4byte	.LASF243
 6882 12f5 01       		.byte	0x1
 6883 12f6 A506     		.2byte	0x6a5
 6884 12f8 00000000 		.4byte	.LFB88
 6885 12fc 08000000 		.4byte	.LFE88-.LFB88
 6886 1300 01       		.uleb128 0x1
 6887 1301 9C       		.byte	0x9c
 6888 1302 23130000 		.4byte	0x1323
 6889 1306 31       		.uleb128 0x31
 6890 1307 70636200 		.ascii	"pcb\000"
 6891 130b 01       		.byte	0x1
 6892 130c A506     		.2byte	0x6a5
 6893 130e 9E070000 		.4byte	0x79e
 6894 1312 01       		.uleb128 0x1
 6895 1313 50       		.byte	0x50
 6896 1314 31       		.uleb128 0x31
ARM GAS  C:\Users\Phuong\AppData\Local\Temp\cczg95Bp.s 			page 169


 6897 1315 61726700 		.ascii	"arg\000"
 6898 1319 01       		.byte	0x1
 6899 131a A506     		.2byte	0x6a5
 6900 131c 88000000 		.4byte	0x88
 6901 1320 01       		.uleb128 0x1
 6902 1321 51       		.byte	0x51
 6903 1322 00       		.byte	0
 6904 1323 30       		.uleb128 0x30
 6905 1324 4A0E0000 		.4byte	.LASF244
 6906 1328 01       		.byte	0x1
 6907 1329 B806     		.2byte	0x6b8
 6908 132b 00000000 		.4byte	.LFB89
 6909 132f 0A000000 		.4byte	.LFE89-.LFB89
 6910 1333 01       		.uleb128 0x1
 6911 1334 9C       		.byte	0x9c
 6912 1335 56130000 		.4byte	0x1356
 6913 1339 31       		.uleb128 0x31
 6914 133a 70636200 		.ascii	"pcb\000"
 6915 133e 01       		.byte	0x1
 6916 133f B806     		.2byte	0x6b8
 6917 1341 9E070000 		.4byte	0x79e
 6918 1345 01       		.uleb128 0x1
 6919 1346 50       		.byte	0x50
 6920 1347 32       		.uleb128 0x32
 6921 1348 E50E0000 		.4byte	.LASF48
 6922 134c 01       		.byte	0x1
 6923 134d B806     		.2byte	0x6b8
 6924 134f 780A0000 		.4byte	0xa78
 6925 1353 01       		.uleb128 0x1
 6926 1354 51       		.byte	0x51
 6927 1355 00       		.byte	0
 6928 1356 30       		.uleb128 0x30
 6929 1357 FE050000 		.4byte	.LASF245
 6930 135b 01       		.byte	0x1
 6931 135c C906     		.2byte	0x6c9
 6932 135e 00000000 		.4byte	.LFB90
 6933 1362 08000000 		.4byte	.LFE90-.LFB90
 6934 1366 01       		.uleb128 0x1
 6935 1367 9C       		.byte	0x9c
 6936 1368 89130000 		.4byte	0x1389
 6937 136c 31       		.uleb128 0x31
 6938 136d 70636200 		.ascii	"pcb\000"
 6939 1371 01       		.byte	0x1
 6940 1372 C906     		.2byte	0x6c9
 6941 1374 9E070000 		.4byte	0x79e
 6942 1378 01       		.uleb128 0x1
 6943 1379 50       		.byte	0x50
 6944 137a 32       		.uleb128 0x32
 6945 137b B0070000 		.4byte	.LASF168
 6946 137f 01       		.byte	0x1
 6947 1380 C906     		.2byte	0x6c9
 6948 1382 A70A0000 		.4byte	0xaa7
 6949 1386 01       		.uleb128 0x1
 6950 1387 51       		.byte	0x51
 6951 1388 00       		.byte	0
 6952 1389 30       		.uleb128 0x30
 6953 138a 51090000 		.4byte	.LASF246
ARM GAS  C:\Users\Phuong\AppData\Local\Temp\cczg95Bp.s 			page 170


 6954 138e 01       		.byte	0x1
 6955 138f DD06     		.2byte	0x6dd
 6956 1391 00000000 		.4byte	.LFB91
 6957 1395 0A000000 		.4byte	.LFE91-.LFB91
 6958 1399 01       		.uleb128 0x1
 6959 139a 9C       		.byte	0x9c
 6960 139b BC130000 		.4byte	0x13bc
 6961 139f 31       		.uleb128 0x31
 6962 13a0 70636200 		.ascii	"pcb\000"
 6963 13a4 01       		.byte	0x1
 6964 13a5 DD06     		.2byte	0x6dd
 6965 13a7 9E070000 		.4byte	0x79e
 6966 13ab 01       		.uleb128 0x1
 6967 13ac 50       		.byte	0x50
 6968 13ad 31       		.uleb128 0x31
 6969 13ae 65727200 		.ascii	"err\000"
 6970 13b2 01       		.byte	0x1
 6971 13b3 DD06     		.2byte	0x6dd
 6972 13b5 F60A0000 		.4byte	0xaf6
 6973 13b9 01       		.uleb128 0x1
 6974 13ba 51       		.byte	0x51
 6975 13bb 00       		.byte	0
 6976 13bc 30       		.uleb128 0x30
 6977 13bd 8E0A0000 		.4byte	.LASF247
 6978 13c1 01       		.byte	0x1
 6979 13c2 EF06     		.2byte	0x6ef
 6980 13c4 00000000 		.4byte	.LFB92
 6981 13c8 0E000000 		.4byte	.LFE92-.LFB92
 6982 13cc 01       		.uleb128 0x1
 6983 13cd 9C       		.byte	0x9c
 6984 13ce 09140000 		.4byte	0x1409
 6985 13d2 31       		.uleb128 0x31
 6986 13d3 70636200 		.ascii	"pcb\000"
 6987 13d7 01       		.byte	0x1
 6988 13d8 EF06     		.2byte	0x6ef
 6989 13da 9E070000 		.4byte	0x79e
 6990 13de 01       		.uleb128 0x1
 6991 13df 50       		.byte	0x50
 6992 13e0 32       		.uleb128 0x32
 6993 13e1 22070000 		.4byte	.LASF198
 6994 13e5 01       		.byte	0x1
 6995 13e6 EF06     		.2byte	0x6ef
 6996 13e8 74070000 		.4byte	0x774
 6997 13ec 01       		.uleb128 0x1
 6998 13ed 51       		.byte	0x51
 6999 13ee 2F       		.uleb128 0x2f
 7000 13ef 0A000000 		.4byte	.LBB5
 7001 13f3 02000000 		.4byte	.LBE5-.LBB5
 7002 13f7 2C       		.uleb128 0x2c
 7003 13f8 9E0E0000 		.4byte	.LASF214
 7004 13fc 01       		.byte	0x1
 7005 13fd F206     		.2byte	0x6f2
 7006 13ff 340C0000 		.4byte	0xc34
 7007 1403 59060000 		.4byte	.LLST33
 7008 1407 00       		.byte	0
 7009 1408 00       		.byte	0
 7010 1409 30       		.uleb128 0x30
ARM GAS  C:\Users\Phuong\AppData\Local\Temp\cczg95Bp.s 			page 171


 7011 140a 74040000 		.4byte	.LASF248
 7012 140e 01       		.byte	0x1
 7013 140f 0107     		.2byte	0x701
 7014 1411 00000000 		.4byte	.LFB93
 7015 1415 08000000 		.4byte	.LFE93-.LFB93
 7016 1419 01       		.uleb128 0x1
 7017 141a 9C       		.byte	0x9c
 7018 141b 4A140000 		.4byte	0x144a
 7019 141f 31       		.uleb128 0x31
 7020 1420 70636200 		.ascii	"pcb\000"
 7021 1424 01       		.byte	0x1
 7022 1425 0107     		.2byte	0x701
 7023 1427 9E070000 		.4byte	0x79e
 7024 142b 01       		.uleb128 0x1
 7025 142c 50       		.byte	0x50
 7026 142d 32       		.uleb128 0x32
 7027 142e 33070000 		.4byte	.LASF170
 7028 1432 01       		.byte	0x1
 7029 1433 0107     		.2byte	0x701
 7030 1435 D10A0000 		.4byte	0xad1
 7031 1439 01       		.uleb128 0x1
 7032 143a 51       		.byte	0x51
 7033 143b 32       		.uleb128 0x32
 7034 143c 21000000 		.4byte	.LASF249
 7035 1440 01       		.byte	0x1
 7036 1441 0107     		.2byte	0x701
 7037 1443 D1000000 		.4byte	0xd1
 7038 1447 01       		.uleb128 0x1
 7039 1448 52       		.byte	0x52
 7040 1449 00       		.byte	0
 7041 144a 30       		.uleb128 0x30
 7042 144b 5E060000 		.4byte	.LASF250
 7043 144f 01       		.byte	0x1
 7044 1450 1307     		.2byte	0x713
 7045 1452 00000000 		.4byte	.LFB94
 7046 1456 4A000000 		.4byte	.LFE94-.LFB94
 7047 145a 01       		.uleb128 0x1
 7048 145b 9C       		.byte	0x9c
 7049 145c A9140000 		.4byte	0x14a9
 7050 1460 28       		.uleb128 0x28
 7051 1461 70636200 		.ascii	"pcb\000"
 7052 1465 01       		.byte	0x1
 7053 1466 1307     		.2byte	0x713
 7054 1468 9E070000 		.4byte	0x79e
 7055 146c 6C060000 		.4byte	.LLST34
 7056 1470 29       		.uleb128 0x29
 7057 1471 16000000 		.4byte	.LVL145
 7058 1475 440E0000 		.4byte	0xe44
 7059 1479 84140000 		.4byte	0x1484
 7060 147d 21       		.uleb128 0x21
 7061 147e 01       		.uleb128 0x1
 7062 147f 50       		.byte	0x50
 7063 1480 02       		.uleb128 0x2
 7064 1481 74       		.byte	0x74
 7065 1482 00       		.sleb128 0
 7066 1483 00       		.byte	0
 7067 1484 26       		.uleb128 0x26
ARM GAS  C:\Users\Phuong\AppData\Local\Temp\cczg95Bp.s 			page 172


 7068 1485 20000000 		.4byte	.LVL146
 7069 1489 6A250000 		.4byte	0x256a
 7070 148d 26       		.uleb128 0x26
 7071 148e 2A000000 		.4byte	.LVL147
 7072 1492 ED110000 		.4byte	0x11ed
 7073 1496 26       		.uleb128 0x26
 7074 1497 3A000000 		.4byte	.LVL148
 7075 149b ED110000 		.4byte	0x11ed
 7076 149f 26       		.uleb128 0x26
 7077 14a0 40000000 		.4byte	.LVL149
 7078 14a4 ED110000 		.4byte	0x11ed
 7079 14a8 00       		.byte	0
 7080 14a9 33       		.uleb128 0x33
 7081 14aa B2090000 		.4byte	.LASF251
 7082 14ae 01       		.byte	0x1
 7083 14af DA03     		.2byte	0x3da
 7084 14b1 00000000 		.4byte	.LFB73
 7085 14b5 2E030000 		.4byte	.LFE73-.LFB73
 7086 14b9 01       		.uleb128 0x1
 7087 14ba 9C       		.byte	0x9c
 7088 14bb B7160000 		.4byte	0x16b7
 7089 14bf 23       		.uleb128 0x23
 7090 14c0 70636200 		.ascii	"pcb\000"
 7091 14c4 01       		.byte	0x1
 7092 14c5 DC03     		.2byte	0x3dc
 7093 14c7 9E070000 		.4byte	0x79e
 7094 14cb 98060000 		.4byte	.LLST35
 7095 14cf 2C       		.uleb128 0x2c
 7096 14d0 8A010000 		.4byte	.LASF252
 7097 14d4 01       		.byte	0x1
 7098 14d5 DC03     		.2byte	0x3dc
 7099 14d7 9E070000 		.4byte	0x79e
 7100 14db 04070000 		.4byte	.LLST36
 7101 14df 2C       		.uleb128 0x2c
 7102 14e0 D7030000 		.4byte	.LASF253
 7103 14e4 01       		.byte	0x1
 7104 14e5 DD03     		.2byte	0x3dd
 7105 14e7 220B0000 		.4byte	0xb22
 7106 14eb 92070000 		.4byte	.LLST37
 7107 14ef 2C       		.uleb128 0x2c
 7108 14f0 AB010000 		.4byte	.LASF254
 7109 14f4 01       		.byte	0x1
 7110 14f5 DE03     		.2byte	0x3de
 7111 14f7 D1000000 		.4byte	0xd1
 7112 14fb A5070000 		.4byte	.LLST38
 7113 14ff 2C       		.uleb128 0x2c
 7114 1500 AC020000 		.4byte	.LASF255
 7115 1504 01       		.byte	0x1
 7116 1505 DF03     		.2byte	0x3df
 7117 1507 D1000000 		.4byte	0xd1
 7118 150b 1D080000 		.4byte	.LLST39
 7119 150f 23       		.uleb128 0x23
 7120 1510 65727200 		.ascii	"err\000"
 7121 1514 01       		.byte	0x1
 7122 1515 E003     		.2byte	0x3e0
 7123 1517 39040000 		.4byte	0x439
 7124 151b 5F080000 		.4byte	.LLST40
ARM GAS  C:\Users\Phuong\AppData\Local\Temp\cczg95Bp.s 			page 173


 7125 151f 24       		.uleb128 0x24
 7126 1520 27090000 		.4byte	.LASF256
 7127 1524 01       		.byte	0x1
 7128 1525 E703     		.2byte	0x3e7
 7129 1527 1A000000 		.4byte	.L139
 7130 152b 2D       		.uleb128 0x2d
 7131 152c 50000000 		.4byte	.LBB6
 7132 1530 3C000000 		.4byte	.LBE6-.LBB6
 7133 1534 59150000 		.4byte	0x1559
 7134 1538 2C       		.uleb128 0x2c
 7135 1539 0A0A0000 		.4byte	.LASF257
 7136 153d 01       		.byte	0x1
 7137 153e 0804     		.2byte	0x408
 7138 1540 D1000000 		.4byte	0xd1
 7139 1544 AA080000 		.4byte	.LLST41
 7140 1548 20       		.uleb128 0x20
 7141 1549 74000000 		.4byte	.LVL158
 7142 154d 89250000 		.4byte	0x2589
 7143 1551 21       		.uleb128 0x21
 7144 1552 01       		.uleb128 0x1
 7145 1553 50       		.byte	0x50
 7146 1554 02       		.uleb128 0x2
 7147 1555 74       		.byte	0x74
 7148 1556 00       		.sleb128 0
 7149 1557 00       		.byte	0
 7150 1558 00       		.byte	0
 7151 1559 2D       		.uleb128 0x2d
 7152 155a B2000000 		.4byte	.LBB7
 7153 155e 22000000 		.4byte	.LBE7-.LBB7
 7154 1562 77150000 		.4byte	0x1577
 7155 1566 2C       		.uleb128 0x2c
 7156 1567 32060000 		.4byte	.LASF258
 7157 156b 01       		.byte	0x1
 7158 156c 2304     		.2byte	0x423
 7159 156e D1000000 		.4byte	0xd1
 7160 1572 C8080000 		.4byte	.LLST42
 7161 1576 00       		.byte	0
 7162 1577 2D       		.uleb128 0x2d
 7163 1578 0E020000 		.4byte	.LBB8
 7164 157c 60000000 		.4byte	.LBE8-.LBB8
 7165 1580 1E160000 		.4byte	0x161e
 7166 1584 2C       		.uleb128 0x2c
 7167 1585 2D020000 		.4byte	.LASF259
 7168 1589 01       		.byte	0x1
 7169 158a 8004     		.2byte	0x480
 7170 158c 9E070000 		.4byte	0x79e
 7171 1590 E6080000 		.4byte	.LLST43
 7172 1594 2C       		.uleb128 0x2c
 7173 1595 C9010000 		.4byte	.LASF260
 7174 1599 01       		.byte	0x1
 7175 159a 8204     		.2byte	0x482
 7176 159c F60A0000 		.4byte	0xaf6
 7177 15a0 F9080000 		.4byte	.LLST44
 7178 15a4 2C       		.uleb128 0x2c
 7179 15a5 B20F0000 		.4byte	.LASF261
 7180 15a9 01       		.byte	0x1
 7181 15aa 8404     		.2byte	0x484
ARM GAS  C:\Users\Phuong\AppData\Local\Temp\cczg95Bp.s 			page 174


 7182 15ac 88000000 		.4byte	0x88
 7183 15b0 0C090000 		.4byte	.LLST45
 7184 15b4 2C       		.uleb128 0x2c
 7185 15b5 460A0000 		.4byte	.LASF262
 7186 15b9 01       		.byte	0x1
 7187 15ba 8504     		.2byte	0x485
 7188 15bc 380B0000 		.4byte	0xb38
 7189 15c0 2A090000 		.4byte	.LLST46
 7190 15c4 29       		.uleb128 0x29
 7191 15c5 18020000 		.4byte	.LVL185
 7192 15c9 4A140000 		.4byte	0x144a
 7193 15cd D8150000 		.4byte	0x15d8
 7194 15d1 21       		.uleb128 0x21
 7195 15d2 01       		.uleb128 0x1
 7196 15d3 50       		.byte	0x50
 7197 15d4 02       		.uleb128 0x2
 7198 15d5 74       		.byte	0x74
 7199 15d6 00       		.sleb128 0
 7200 15d7 00       		.byte	0
 7201 15d8 29       		.uleb128 0x29
 7202 15d9 40020000 		.4byte	.LVL186
 7203 15dd 95250000 		.4byte	0x2595
 7204 15e1 F2150000 		.4byte	0x15f2
 7205 15e5 21       		.uleb128 0x21
 7206 15e6 01       		.uleb128 0x1
 7207 15e7 52       		.byte	0x52
 7208 15e8 02       		.uleb128 0x2
 7209 15e9 74       		.byte	0x74
 7210 15ea 00       		.sleb128 0
 7211 15eb 21       		.uleb128 0x21
 7212 15ec 01       		.uleb128 0x1
 7213 15ed 53       		.byte	0x53
 7214 15ee 02       		.uleb128 0x2
 7215 15ef 74       		.byte	0x74
 7216 15f0 04       		.sleb128 4
 7217 15f1 00       		.byte	0
 7218 15f2 29       		.uleb128 0x29
 7219 15f3 4E020000 		.4byte	.LVL189
 7220 15f7 5F250000 		.4byte	0x255f
 7221 15fb 0B160000 		.4byte	0x160b
 7222 15ff 21       		.uleb128 0x21
 7223 1600 01       		.uleb128 0x1
 7224 1601 50       		.byte	0x50
 7225 1602 01       		.uleb128 0x1
 7226 1603 32       		.byte	0x32
 7227 1604 21       		.uleb128 0x21
 7228 1605 01       		.uleb128 0x1
 7229 1606 51       		.byte	0x51
 7230 1607 02       		.uleb128 0x2
 7231 1608 74       		.byte	0x74
 7232 1609 00       		.sleb128 0
 7233 160a 00       		.byte	0
 7234 160b 34       		.uleb128 0x34
 7235 160c 60020000 		.4byte	.LVL190
 7236 1610 21       		.uleb128 0x21
 7237 1611 01       		.uleb128 0x1
 7238 1612 50       		.byte	0x50
ARM GAS  C:\Users\Phuong\AppData\Local\Temp\cczg95Bp.s 			page 175


 7239 1613 02       		.uleb128 0x2
 7240 1614 78       		.byte	0x78
 7241 1615 00       		.sleb128 0
 7242 1616 21       		.uleb128 0x21
 7243 1617 01       		.uleb128 0x1
 7244 1618 51       		.byte	0x51
 7245 1619 02       		.uleb128 0x2
 7246 161a 09       		.byte	0x9
 7247 161b F3       		.byte	0xf3
 7248 161c 00       		.byte	0
 7249 161d 00       		.byte	0
 7250 161e 2D       		.uleb128 0x2d
 7251 161f DE020000 		.4byte	.LBB9
 7252 1623 22000000 		.4byte	.LBE9-.LBB9
 7253 1627 65160000 		.4byte	0x1665
 7254 162b 2C       		.uleb128 0x2c
 7255 162c 2D020000 		.4byte	.LASF259
 7256 1630 01       		.byte	0x1
 7257 1631 C704     		.2byte	0x4c7
 7258 1633 9E070000 		.4byte	0x79e
 7259 1637 3E090000 		.4byte	.LLST47
 7260 163b 29       		.uleb128 0x29
 7261 163c E4020000 		.4byte	.LVL208
 7262 1640 4A140000 		.4byte	0x144a
 7263 1644 4F160000 		.4byte	0x164f
 7264 1648 21       		.uleb128 0x21
 7265 1649 01       		.uleb128 0x1
 7266 164a 50       		.byte	0x50
 7267 164b 02       		.uleb128 0x2
 7268 164c 75       		.byte	0x75
 7269 164d 00       		.sleb128 0
 7270 164e 00       		.byte	0
 7271 164f 20       		.uleb128 0x20
 7272 1650 FE020000 		.4byte	.LVL211
 7273 1654 5F250000 		.4byte	0x255f
 7274 1658 21       		.uleb128 0x21
 7275 1659 01       		.uleb128 0x1
 7276 165a 50       		.byte	0x50
 7277 165b 01       		.uleb128 0x1
 7278 165c 32       		.byte	0x32
 7279 165d 21       		.uleb128 0x21
 7280 165e 01       		.uleb128 0x1
 7281 165f 51       		.byte	0x51
 7282 1660 02       		.uleb128 0x2
 7283 1661 75       		.byte	0x75
 7284 1662 00       		.sleb128 0
 7285 1663 00       		.byte	0
 7286 1664 00       		.byte	0
 7287 1665 29       		.uleb128 0x29
 7288 1666 08010000 		.4byte	.LVL164
 7289 166a A1250000 		.4byte	0x25a1
 7290 166e 79160000 		.4byte	0x1679
 7291 1672 21       		.uleb128 0x21
 7292 1673 01       		.uleb128 0x1
 7293 1674 50       		.byte	0x50
 7294 1675 02       		.uleb128 0x2
 7295 1676 74       		.byte	0x74
ARM GAS  C:\Users\Phuong\AppData\Local\Temp\cczg95Bp.s 			page 176


 7296 1677 00       		.sleb128 0
 7297 1678 00       		.byte	0
 7298 1679 29       		.uleb128 0x29
 7299 167a 9E010000 		.4byte	.LVL175
 7300 167e AC250000 		.4byte	0x25ac
 7301 1682 8D160000 		.4byte	0x168d
 7302 1686 21       		.uleb128 0x21
 7303 1687 01       		.uleb128 0x1
 7304 1688 50       		.byte	0x50
 7305 1689 02       		.uleb128 0x2
 7306 168a 74       		.byte	0x74
 7307 168b 00       		.sleb128 0
 7308 168c 00       		.byte	0
 7309 168d 26       		.uleb128 0x26
 7310 168e DC010000 		.4byte	.LVL179
 7311 1692 ED110000 		.4byte	0x11ed
 7312 1696 35       		.uleb128 0x35
 7313 1697 94020000 		.4byte	.LVL194
 7314 169b A6160000 		.4byte	0x16a6
 7315 169f 21       		.uleb128 0x21
 7316 16a0 01       		.uleb128 0x1
 7317 16a1 51       		.byte	0x51
 7318 16a2 02       		.uleb128 0x2
 7319 16a3 74       		.byte	0x74
 7320 16a4 00       		.sleb128 0
 7321 16a5 00       		.byte	0
 7322 16a6 20       		.uleb128 0x20
 7323 16a7 AC020000 		.4byte	.LVL198
 7324 16ab 3C250000 		.4byte	0x253c
 7325 16af 21       		.uleb128 0x21
 7326 16b0 01       		.uleb128 0x1
 7327 16b1 50       		.byte	0x50
 7328 16b2 02       		.uleb128 0x2
 7329 16b3 74       		.byte	0x74
 7330 16b4 00       		.sleb128 0
 7331 16b5 00       		.byte	0
 7332 16b6 00       		.byte	0
 7333 16b7 30       		.uleb128 0x30
 7334 16b8 5B020000 		.4byte	.LASF263
 7335 16bc 01       		.byte	0x1
 7336 16bd 4407     		.2byte	0x744
 7337 16bf 00000000 		.4byte	.LFB95
 7338 16c3 50000000 		.4byte	.LFE95-.LFB95
 7339 16c7 01       		.uleb128 0x1
 7340 16c8 9C       		.byte	0x9c
 7341 16c9 30170000 		.4byte	0x1730
 7342 16cd 2B       		.uleb128 0x2b
 7343 16ce 0E060000 		.4byte	.LASF264
 7344 16d2 01       		.byte	0x1
 7345 16d3 4407     		.2byte	0x744
 7346 16d5 30170000 		.4byte	0x1730
 7347 16d9 51090000 		.4byte	.LLST48
 7348 16dd 28       		.uleb128 0x28
 7349 16de 70636200 		.ascii	"pcb\000"
 7350 16e2 01       		.byte	0x1
 7351 16e3 4407     		.2byte	0x744
 7352 16e5 9E070000 		.4byte	0x79e
ARM GAS  C:\Users\Phuong\AppData\Local\Temp\cczg95Bp.s 			page 177


 7353 16e9 72090000 		.4byte	.LLST49
 7354 16ed 2D       		.uleb128 0x2d
 7355 16ee 10000000 		.4byte	.LBB10
 7356 16f2 12000000 		.4byte	.LBE10-.LBB10
 7357 16f6 0B170000 		.4byte	0x170b
 7358 16fa 2C       		.uleb128 0x2c
 7359 16fb 3E060000 		.4byte	.LASF230
 7360 16ff 01       		.byte	0x1
 7361 1700 4607     		.2byte	0x746
 7362 1702 9E070000 		.4byte	0x79e
 7363 1706 9E090000 		.4byte	.LLST50
 7364 170a 00       		.byte	0
 7365 170b 29       		.uleb128 0x29
 7366 170c 2C000000 		.4byte	.LVL222
 7367 1710 4A140000 		.4byte	0x144a
 7368 1714 1F170000 		.4byte	0x171f
 7369 1718 21       		.uleb128 0x21
 7370 1719 01       		.uleb128 0x1
 7371 171a 50       		.byte	0x50
 7372 171b 02       		.uleb128 0x2
 7373 171c 74       		.byte	0x74
 7374 171d 00       		.sleb128 0
 7375 171e 00       		.byte	0
 7376 171f 20       		.uleb128 0x20
 7377 1720 48000000 		.4byte	.LVL223
 7378 1724 3C250000 		.4byte	0x253c
 7379 1728 21       		.uleb128 0x21
 7380 1729 01       		.uleb128 0x1
 7381 172a 50       		.byte	0x50
 7382 172b 02       		.uleb128 0x2
 7383 172c 74       		.byte	0x74
 7384 172d 00       		.sleb128 0
 7385 172e 00       		.byte	0
 7386 172f 00       		.byte	0
 7387 1730 06       		.uleb128 0x6
 7388 1731 04       		.byte	0x4
 7389 1732 9E070000 		.4byte	0x79e
 7390 1736 22       		.uleb128 0x22
 7391 1737 E7000000 		.4byte	.LASF265
 7392 173b 01       		.byte	0x1
 7393 173c 0901     		.2byte	0x109
 7394 173e 39040000 		.4byte	0x439
 7395 1742 00000000 		.4byte	.LFB59
 7396 1746 40010000 		.4byte	.LFE59-.LFB59
 7397 174a 01       		.uleb128 0x1
 7398 174b 9C       		.byte	0x9c
 7399 174c AF180000 		.4byte	0x18af
 7400 1750 28       		.uleb128 0x28
 7401 1751 70636200 		.ascii	"pcb\000"
 7402 1755 01       		.byte	0x1
 7403 1756 0901     		.2byte	0x109
 7404 1758 9E070000 		.4byte	0x79e
 7405 175c B1090000 		.4byte	.LLST51
 7406 1760 2B       		.uleb128 0x2b
 7407 1761 3E020000 		.4byte	.LASF266
 7408 1765 01       		.byte	0x1
 7409 1766 0901     		.2byte	0x109
ARM GAS  C:\Users\Phuong\AppData\Local\Temp\cczg95Bp.s 			page 178


 7410 1768 D1000000 		.4byte	0xd1
 7411 176c 350A0000 		.4byte	.LLST52
 7412 1770 2D       		.uleb128 0x2d
 7413 1771 4C000000 		.4byte	.LBB11
 7414 1775 12000000 		.4byte	.LBE11-.LBB11
 7415 1779 8E170000 		.4byte	0x178e
 7416 177d 2C       		.uleb128 0x2c
 7417 177e 3E060000 		.4byte	.LASF230
 7418 1782 01       		.byte	0x1
 7419 1783 1701     		.2byte	0x117
 7420 1785 9E070000 		.4byte	0x79e
 7421 1789 BA0A0000 		.4byte	.LLST53
 7422 178d 00       		.byte	0
 7423 178e 2D       		.uleb128 0x2d
 7424 178f C4000000 		.4byte	.LBB12
 7425 1793 12000000 		.4byte	.LBE12-.LBB12
 7426 1797 AC170000 		.4byte	0x17ac
 7427 179b 2C       		.uleb128 0x2c
 7428 179c 3E060000 		.4byte	.LASF230
 7429 17a0 01       		.byte	0x1
 7430 17a1 3501     		.2byte	0x135
 7431 17a3 9E070000 		.4byte	0x79e
 7432 17a7 CD0A0000 		.4byte	.LLST54
 7433 17ab 00       		.byte	0
 7434 17ac 29       		.uleb128 0x29
 7435 17ad 36000000 		.4byte	.LVL228
 7436 17b1 95250000 		.4byte	0x2595
 7437 17b5 C6170000 		.4byte	0x17c6
 7438 17b9 21       		.uleb128 0x21
 7439 17ba 01       		.uleb128 0x1
 7440 17bb 52       		.byte	0x52
 7441 17bc 02       		.uleb128 0x2
 7442 17bd 74       		.byte	0x74
 7443 17be 00       		.sleb128 0
 7444 17bf 21       		.uleb128 0x21
 7445 17c0 01       		.uleb128 0x1
 7446 17c1 53       		.byte	0x53
 7447 17c2 02       		.uleb128 0x2
 7448 17c3 74       		.byte	0x74
 7449 17c4 04       		.sleb128 4
 7450 17c5 00       		.byte	0
 7451 17c6 29       		.uleb128 0x29
 7452 17c7 3C000000 		.4byte	.LVL229
 7453 17cb 4A140000 		.4byte	0x144a
 7454 17cf DA170000 		.4byte	0x17da
 7455 17d3 21       		.uleb128 0x21
 7456 17d4 01       		.uleb128 0x1
 7457 17d5 50       		.byte	0x50
 7458 17d6 02       		.uleb128 0x2
 7459 17d7 74       		.byte	0x74
 7460 17d8 00       		.sleb128 0
 7461 17d9 00       		.byte	0
 7462 17da 26       		.uleb128 0x26
 7463 17db 7E000000 		.4byte	.LVL233
 7464 17df 48250000 		.4byte	0x2548
 7465 17e3 26       		.uleb128 0x26
 7466 17e4 8E000000 		.4byte	.LVL234
ARM GAS  C:\Users\Phuong\AppData\Local\Temp\cczg95Bp.s 			page 179


 7467 17e8 B8250000 		.4byte	0x25b8
 7468 17ec 29       		.uleb128 0x29
 7469 17ed 9A000000 		.4byte	.LVL235
 7470 17f1 5F250000 		.4byte	0x255f
 7471 17f5 05180000 		.4byte	0x1805
 7472 17f9 21       		.uleb128 0x21
 7473 17fa 01       		.uleb128 0x1
 7474 17fb 50       		.byte	0x50
 7475 17fc 01       		.uleb128 0x1
 7476 17fd 32       		.byte	0x32
 7477 17fe 21       		.uleb128 0x21
 7478 17ff 01       		.uleb128 0x1
 7479 1800 51       		.byte	0x51
 7480 1801 02       		.uleb128 0x2
 7481 1802 74       		.byte	0x74
 7482 1803 00       		.sleb128 0
 7483 1804 00       		.byte	0
 7484 1805 29       		.uleb128 0x29
 7485 1806 E2000000 		.4byte	.LVL242
 7486 180a 5F250000 		.4byte	0x255f
 7487 180e 1E180000 		.4byte	0x181e
 7488 1812 21       		.uleb128 0x21
 7489 1813 01       		.uleb128 0x1
 7490 1814 50       		.byte	0x50
 7491 1815 01       		.uleb128 0x1
 7492 1816 32       		.byte	0x32
 7493 1817 21       		.uleb128 0x21
 7494 1818 01       		.uleb128 0x1
 7495 1819 51       		.byte	0x51
 7496 181a 02       		.uleb128 0x2
 7497 181b 74       		.byte	0x74
 7498 181c 00       		.sleb128 0
 7499 181d 00       		.byte	0
 7500 181e 29       		.uleb128 0x29
 7501 181f EC000000 		.4byte	.LVL245
 7502 1823 6D0D0000 		.4byte	0xd6d
 7503 1827 32180000 		.4byte	0x1832
 7504 182b 21       		.uleb128 0x21
 7505 182c 01       		.uleb128 0x1
 7506 182d 50       		.byte	0x50
 7507 182e 02       		.uleb128 0x2
 7508 182f 74       		.byte	0x74
 7509 1830 00       		.sleb128 0
 7510 1831 00       		.byte	0
 7511 1832 29       		.uleb128 0x29
 7512 1833 F4000000 		.4byte	.LVL246
 7513 1837 B7160000 		.4byte	0x16b7
 7514 183b 4F180000 		.4byte	0x184f
 7515 183f 21       		.uleb128 0x21
 7516 1840 01       		.uleb128 0x1
 7517 1841 50       		.byte	0x50
 7518 1842 05       		.uleb128 0x5
 7519 1843 03       		.byte	0x3
 7520 1844 00000000 		.4byte	tcp_listen_pcbs
 7521 1848 21       		.uleb128 0x21
 7522 1849 01       		.uleb128 0x1
 7523 184a 51       		.byte	0x51
ARM GAS  C:\Users\Phuong\AppData\Local\Temp\cczg95Bp.s 			page 180


 7524 184b 02       		.uleb128 0x2
 7525 184c 74       		.byte	0x74
 7526 184d 00       		.sleb128 0
 7527 184e 00       		.byte	0
 7528 184f 29       		.uleb128 0x29
 7529 1850 FC000000 		.4byte	.LVL247
 7530 1854 5F250000 		.4byte	0x255f
 7531 1858 68180000 		.4byte	0x1868
 7532 185c 21       		.uleb128 0x21
 7533 185d 01       		.uleb128 0x1
 7534 185e 50       		.byte	0x50
 7535 185f 01       		.uleb128 0x1
 7536 1860 33       		.byte	0x33
 7537 1861 21       		.uleb128 0x21
 7538 1862 01       		.uleb128 0x1
 7539 1863 51       		.byte	0x51
 7540 1864 02       		.uleb128 0x2
 7541 1865 74       		.byte	0x74
 7542 1866 00       		.sleb128 0
 7543 1867 00       		.byte	0
 7544 1868 29       		.uleb128 0x29
 7545 1869 08010000 		.4byte	.LVL251
 7546 186d B7160000 		.4byte	0x16b7
 7547 1871 85180000 		.4byte	0x1885
 7548 1875 21       		.uleb128 0x21
 7549 1876 01       		.uleb128 0x1
 7550 1877 50       		.byte	0x50
 7551 1878 05       		.uleb128 0x5
 7552 1879 03       		.byte	0x3
 7553 187a 00000000 		.4byte	tcp_active_pcbs
 7554 187e 21       		.uleb128 0x21
 7555 187f 01       		.uleb128 0x1
 7556 1880 51       		.byte	0x51
 7557 1881 02       		.uleb128 0x2
 7558 1882 74       		.byte	0x74
 7559 1883 00       		.sleb128 0
 7560 1884 00       		.byte	0
 7561 1885 29       		.uleb128 0x29
 7562 1886 16010000 		.4byte	.LVL252
 7563 188a 5F250000 		.4byte	0x255f
 7564 188e 9E180000 		.4byte	0x189e
 7565 1892 21       		.uleb128 0x21
 7566 1893 01       		.uleb128 0x1
 7567 1894 50       		.byte	0x50
 7568 1895 01       		.uleb128 0x1
 7569 1896 32       		.byte	0x32
 7570 1897 21       		.uleb128 0x21
 7571 1898 01       		.uleb128 0x1
 7572 1899 51       		.byte	0x51
 7573 189a 02       		.uleb128 0x2
 7574 189b 74       		.byte	0x74
 7575 189c 00       		.sleb128 0
 7576 189d 00       		.byte	0
 7577 189e 20       		.uleb128 0x20
 7578 189f 20010000 		.4byte	.LVL255
 7579 18a3 670E0000 		.4byte	0xe67
 7580 18a7 21       		.uleb128 0x21
ARM GAS  C:\Users\Phuong\AppData\Local\Temp\cczg95Bp.s 			page 181


 7581 18a8 01       		.uleb128 0x1
 7582 18a9 50       		.byte	0x50
 7583 18aa 02       		.uleb128 0x2
 7584 18ab 74       		.byte	0x74
 7585 18ac 00       		.sleb128 0
 7586 18ad 00       		.byte	0
 7587 18ae 00       		.byte	0
 7588 18af 2A       		.uleb128 0x2a
 7589 18b0 A30B0000 		.4byte	.LASF267
 7590 18b4 01       		.byte	0x1
 7591 18b5 8F01     		.2byte	0x18f
 7592 18b7 39040000 		.4byte	0x439
 7593 18bb 00000000 		.4byte	.LFB61
 7594 18bf 18000000 		.4byte	.LFE61-.LFB61
 7595 18c3 01       		.uleb128 0x1
 7596 18c4 9C       		.byte	0x9c
 7597 18c5 E9180000 		.4byte	0x18e9
 7598 18c9 28       		.uleb128 0x28
 7599 18ca 70636200 		.ascii	"pcb\000"
 7600 18ce 01       		.byte	0x1
 7601 18cf 8F01     		.2byte	0x18f
 7602 18d1 9E070000 		.4byte	0x79e
 7603 18d5 E00A0000 		.4byte	.LLST55
 7604 18d9 20       		.uleb128 0x20
 7605 18da 16000000 		.4byte	.LVL258
 7606 18de 36170000 		.4byte	0x1736
 7607 18e2 21       		.uleb128 0x21
 7608 18e3 01       		.uleb128 0x1
 7609 18e4 51       		.byte	0x51
 7610 18e5 01       		.uleb128 0x1
 7611 18e6 31       		.byte	0x31
 7612 18e7 00       		.byte	0
 7613 18e8 00       		.byte	0
 7614 18e9 2A       		.uleb128 0x2a
 7615 18ea 29080000 		.4byte	.LASF268
 7616 18ee 01       		.byte	0x1
 7617 18ef A405     		.2byte	0x5a4
 7618 18f1 39040000 		.4byte	0x439
 7619 18f5 00000000 		.4byte	.LFB81
 7620 18f9 26000000 		.4byte	.LFE81-.LFB81
 7621 18fd 01       		.uleb128 0x1
 7622 18fe 9C       		.byte	0x9c
 7623 18ff 74190000 		.4byte	0x1974
 7624 1903 28       		.uleb128 0x28
 7625 1904 61726700 		.ascii	"arg\000"
 7626 1908 01       		.byte	0x1
 7627 1909 A405     		.2byte	0x5a4
 7628 190b 88000000 		.4byte	0x88
 7629 190f 010B0000 		.4byte	.LLST56
 7630 1913 28       		.uleb128 0x28
 7631 1914 70636200 		.ascii	"pcb\000"
 7632 1918 01       		.byte	0x1
 7633 1919 A405     		.2byte	0x5a4
 7634 191b 9E070000 		.4byte	0x79e
 7635 191f 220B0000 		.4byte	.LLST57
 7636 1923 28       		.uleb128 0x28
 7637 1924 7000     		.ascii	"p\000"
ARM GAS  C:\Users\Phuong\AppData\Local\Temp\cczg95Bp.s 			page 182


 7638 1926 01       		.byte	0x1
 7639 1927 A405     		.2byte	0x5a4
 7640 1929 18050000 		.4byte	0x518
 7641 192d 800B0000 		.4byte	.LLST58
 7642 1931 28       		.uleb128 0x28
 7643 1932 65727200 		.ascii	"err\000"
 7644 1936 01       		.byte	0x1
 7645 1937 A405     		.2byte	0x5a4
 7646 1939 39040000 		.4byte	0x439
 7647 193d D80B0000 		.4byte	.LLST59
 7648 1941 29       		.uleb128 0x29
 7649 1942 0E000000 		.4byte	.LVL262
 7650 1946 06110000 		.4byte	0x1106
 7651 194a 56190000 		.4byte	0x1956
 7652 194e 21       		.uleb128 0x21
 7653 194f 01       		.uleb128 0x1
 7654 1950 50       		.byte	0x50
 7655 1951 03       		.uleb128 0x3
 7656 1952 F3       		.byte	0xf3
 7657 1953 01       		.uleb128 0x1
 7658 1954 51       		.byte	0x51
 7659 1955 00       		.byte	0
 7660 1956 29       		.uleb128 0x29
 7661 1957 14000000 		.4byte	.LVL263
 7662 195b 6A250000 		.4byte	0x256a
 7663 195f 6A190000 		.4byte	0x196a
 7664 1963 21       		.uleb128 0x21
 7665 1964 01       		.uleb128 0x1
 7666 1965 50       		.byte	0x50
 7667 1966 02       		.uleb128 0x2
 7668 1967 74       		.byte	0x74
 7669 1968 00       		.sleb128 0
 7670 1969 00       		.byte	0
 7671 196a 26       		.uleb128 0x26
 7672 196b 20000000 		.4byte	.LVL265
 7673 196f AF180000 		.4byte	0x18af
 7674 1973 00       		.byte	0
 7675 1974 2A       		.uleb128 0x2a
 7676 1975 0A0D0000 		.4byte	.LASF269
 7677 1979 01       		.byte	0x1
 7678 197a 1F05     		.2byte	0x51f
 7679 197c 39040000 		.4byte	0x439
 7680 1980 00000000 		.4byte	.LFB76
 7681 1984 7C000000 		.4byte	.LFE76-.LFB76
 7682 1988 01       		.uleb128 0x1
 7683 1989 9C       		.byte	0x9c
 7684 198a 301A0000 		.4byte	0x1a30
 7685 198e 28       		.uleb128 0x28
 7686 198f 70636200 		.ascii	"pcb\000"
 7687 1993 01       		.byte	0x1
 7688 1994 1F05     		.2byte	0x51f
 7689 1996 9E070000 		.4byte	0x79e
 7690 199a 2B0C0000 		.4byte	.LLST60
 7691 199e 36       		.uleb128 0x36
 7692 199f 00000000 		.4byte	.Ldebug_ranges0+0
 7693 19a3 23       		.uleb128 0x23
 7694 19a4 65727200 		.ascii	"err\000"
ARM GAS  C:\Users\Phuong\AppData\Local\Temp\cczg95Bp.s 			page 183


 7695 19a8 01       		.byte	0x1
 7696 19a9 2605     		.2byte	0x526
 7697 19ab 39040000 		.4byte	0x439
 7698 19af 780C0000 		.4byte	.LLST61
 7699 19b3 2C       		.uleb128 0x2c
 7700 19b4 8F020000 		.4byte	.LASF270
 7701 19b8 01       		.byte	0x1
 7702 19b9 2705     		.2byte	0x527
 7703 19bb D1000000 		.4byte	0xd1
 7704 19bf B70C0000 		.4byte	.LLST62
 7705 19c3 2C       		.uleb128 0x2c
 7706 19c4 280D0000 		.4byte	.LASF166
 7707 19c8 01       		.byte	0x1
 7708 19c9 2A05     		.2byte	0x52a
 7709 19cb 18050000 		.4byte	0x518
 7710 19cf CA0C0000 		.4byte	.LLST63
 7711 19d3 37       		.uleb128 0x37
 7712 19d4 1E000000 		.4byte	.LVL272
 7713 19d8 02       		.uleb128 0x2
 7714 19d9 76       		.byte	0x76
 7715 19da 00       		.sleb128 0
 7716 19db F1190000 		.4byte	0x19f1
 7717 19df 21       		.uleb128 0x21
 7718 19e0 01       		.uleb128 0x1
 7719 19e1 51       		.byte	0x51
 7720 19e2 02       		.uleb128 0x2
 7721 19e3 74       		.byte	0x74
 7722 19e4 00       		.sleb128 0
 7723 19e5 21       		.uleb128 0x21
 7724 19e6 01       		.uleb128 0x1
 7725 19e7 52       		.byte	0x52
 7726 19e8 02       		.uleb128 0x2
 7727 19e9 75       		.byte	0x75
 7728 19ea 00       		.sleb128 0
 7729 19eb 21       		.uleb128 0x21
 7730 19ec 01       		.uleb128 0x1
 7731 19ed 53       		.byte	0x53
 7732 19ee 01       		.uleb128 0x1
 7733 19ef 30       		.byte	0x30
 7734 19f0 00       		.byte	0
 7735 19f1 29       		.uleb128 0x29
 7736 19f2 2C000000 		.4byte	.LVL275
 7737 19f6 E9180000 		.4byte	0x18e9
 7738 19fa 151A0000 		.4byte	0x1a15
 7739 19fe 21       		.uleb128 0x21
 7740 19ff 01       		.uleb128 0x1
 7741 1a00 50       		.byte	0x50
 7742 1a01 01       		.uleb128 0x1
 7743 1a02 30       		.byte	0x30
 7744 1a03 21       		.uleb128 0x21
 7745 1a04 01       		.uleb128 0x1
 7746 1a05 51       		.byte	0x51
 7747 1a06 02       		.uleb128 0x2
 7748 1a07 74       		.byte	0x74
 7749 1a08 00       		.sleb128 0
 7750 1a09 21       		.uleb128 0x21
 7751 1a0a 01       		.uleb128 0x1
ARM GAS  C:\Users\Phuong\AppData\Local\Temp\cczg95Bp.s 			page 184


 7752 1a0b 52       		.byte	0x52
 7753 1a0c 02       		.uleb128 0x2
 7754 1a0d 75       		.byte	0x75
 7755 1a0e 00       		.sleb128 0
 7756 1a0f 21       		.uleb128 0x21
 7757 1a10 01       		.uleb128 0x1
 7758 1a11 53       		.byte	0x53
 7759 1a12 01       		.uleb128 0x1
 7760 1a13 30       		.byte	0x30
 7761 1a14 00       		.byte	0
 7762 1a15 38       		.uleb128 0x38
 7763 1a16 52000000 		.4byte	.LVL278
 7764 1a1a 02       		.uleb128 0x2
 7765 1a1b 75       		.byte	0x75
 7766 1a1c 00       		.sleb128 0
 7767 1a1d 21       		.uleb128 0x21
 7768 1a1e 01       		.uleb128 0x1
 7769 1a1f 51       		.byte	0x51
 7770 1a20 02       		.uleb128 0x2
 7771 1a21 74       		.byte	0x74
 7772 1a22 00       		.sleb128 0
 7773 1a23 21       		.uleb128 0x21
 7774 1a24 01       		.uleb128 0x1
 7775 1a25 52       		.byte	0x52
 7776 1a26 01       		.uleb128 0x1
 7777 1a27 30       		.byte	0x30
 7778 1a28 21       		.uleb128 0x21
 7779 1a29 01       		.uleb128 0x1
 7780 1a2a 53       		.byte	0x53
 7781 1a2b 01       		.uleb128 0x1
 7782 1a2c 30       		.byte	0x30
 7783 1a2d 00       		.byte	0
 7784 1a2e 00       		.byte	0
 7785 1a2f 00       		.byte	0
 7786 1a30 30       		.uleb128 0x30
 7787 1a31 F1080000 		.4byte	.LASF271
 7788 1a35 01       		.byte	0x1
 7789 1a36 E304     		.2byte	0x4e3
 7790 1a38 00000000 		.4byte	.LFB74
 7791 1a3c 7C000000 		.4byte	.LFE74-.LFB74
 7792 1a40 01       		.uleb128 0x1
 7793 1a41 9C       		.byte	0x9c
 7794 1a42 B51A0000 		.4byte	0x1ab5
 7795 1a46 23       		.uleb128 0x23
 7796 1a47 70636200 		.ascii	"pcb\000"
 7797 1a4b 01       		.byte	0x1
 7798 1a4c E504     		.2byte	0x4e5
 7799 1a4e 9E070000 		.4byte	0x79e
 7800 1a52 F30C0000 		.4byte	.LLST64
 7801 1a56 24       		.uleb128 0x24
 7802 1a57 A90E0000 		.4byte	.LASF272
 7803 1a5b 01       		.byte	0x1
 7804 1a5c E904     		.2byte	0x4e9
 7805 1a5e 0A000000 		.4byte	.L238
 7806 1a62 2F       		.uleb128 0x2f
 7807 1a63 1A000000 		.4byte	.LBB15
 7808 1a67 48000000 		.4byte	.LBE15-.LBB15
ARM GAS  C:\Users\Phuong\AppData\Local\Temp\cczg95Bp.s 			page 185


 7809 1a6b 2C       		.uleb128 0x2c
 7810 1a6c 2B010000 		.4byte	.LASF95
 7811 1a70 01       		.byte	0x1
 7812 1a71 EE04     		.2byte	0x4ee
 7813 1a73 9E070000 		.4byte	0x79e
 7814 1a77 110D0000 		.4byte	.LLST65
 7815 1a7b 29       		.uleb128 0x29
 7816 1a7c 2E000000 		.4byte	.LVL290
 7817 1a80 3C250000 		.4byte	0x253c
 7818 1a84 8F1A0000 		.4byte	0x1a8f
 7819 1a88 21       		.uleb128 0x21
 7820 1a89 01       		.uleb128 0x1
 7821 1a8a 50       		.byte	0x50
 7822 1a8b 02       		.uleb128 0x2
 7823 1a8c 74       		.byte	0x74
 7824 1a8d 00       		.sleb128 0
 7825 1a8e 00       		.byte	0
 7826 1a8f 29       		.uleb128 0x29
 7827 1a90 48000000 		.4byte	.LVL291
 7828 1a94 670E0000 		.4byte	0xe67
 7829 1a98 A31A0000 		.4byte	0x1aa3
 7830 1a9c 21       		.uleb128 0x21
 7831 1a9d 01       		.uleb128 0x1
 7832 1a9e 50       		.byte	0x50
 7833 1a9f 02       		.uleb128 0x2
 7834 1aa0 74       		.byte	0x74
 7835 1aa1 00       		.sleb128 0
 7836 1aa2 00       		.byte	0
 7837 1aa3 20       		.uleb128 0x20
 7838 1aa4 5C000000 		.4byte	.LVL293
 7839 1aa8 74190000 		.4byte	0x1974
 7840 1aac 21       		.uleb128 0x21
 7841 1aad 01       		.uleb128 0x1
 7842 1aae 50       		.byte	0x50
 7843 1aaf 02       		.uleb128 0x2
 7844 1ab0 74       		.byte	0x74
 7845 1ab1 00       		.sleb128 0
 7846 1ab2 00       		.byte	0
 7847 1ab3 00       		.byte	0
 7848 1ab4 00       		.byte	0
 7849 1ab5 25       		.uleb128 0x25
 7850 1ab6 3E0A0000 		.4byte	.LASF273
 7851 1aba 01       		.byte	0x1
 7852 1abb 9C       		.byte	0x9c
 7853 1abc 00000000 		.4byte	.LFB54
 7854 1ac0 20000000 		.4byte	.LFE54-.LFB54
 7855 1ac4 01       		.uleb128 0x1
 7856 1ac5 9C       		.byte	0x9c
 7857 1ac6 DD1A0000 		.4byte	0x1add
 7858 1aca 26       		.uleb128 0x26
 7859 1acb 06000000 		.4byte	.LVL298
 7860 1acf 301A0000 		.4byte	0x1a30
 7861 1ad3 26       		.uleb128 0x26
 7862 1ad4 18000000 		.4byte	.LVL299
 7863 1ad8 A9140000 		.4byte	0x14a9
 7864 1adc 00       		.byte	0
 7865 1add 2A       		.uleb128 0x2a
ARM GAS  C:\Users\Phuong\AppData\Local\Temp\cczg95Bp.s 			page 186


 7866 1ade 9B040000 		.4byte	.LASF274
 7867 1ae2 01       		.byte	0x1
 7868 1ae3 AA01     		.2byte	0x1aa
 7869 1ae5 39040000 		.4byte	0x439
 7870 1ae9 00000000 		.4byte	.LFB62
 7871 1aed 60000000 		.4byte	.LFE62-.LFB62
 7872 1af1 01       		.uleb128 0x1
 7873 1af2 9C       		.byte	0x9c
 7874 1af3 601B0000 		.4byte	0x1b60
 7875 1af7 28       		.uleb128 0x28
 7876 1af8 70636200 		.ascii	"pcb\000"
 7877 1afc 01       		.byte	0x1
 7878 1afd AA01     		.2byte	0x1aa
 7879 1aff 9E070000 		.4byte	0x79e
 7880 1b03 240D0000 		.4byte	.LLST66
 7881 1b07 2B       		.uleb128 0x2b
 7882 1b08 F80F0000 		.4byte	.LASF275
 7883 1b0c 01       		.byte	0x1
 7884 1b0d AA01     		.2byte	0x1aa
 7885 1b0f 68000000 		.4byte	0x68
 7886 1b13 7C0D0000 		.4byte	.LLST67
 7887 1b17 2B       		.uleb128 0x2b
 7888 1b18 00000000 		.4byte	.LASF276
 7889 1b1c 01       		.byte	0x1
 7890 1b1d AA01     		.2byte	0x1aa
 7891 1b1f 68000000 		.4byte	0x68
 7892 1b23 D40D0000 		.4byte	.LLST68
 7893 1b27 29       		.uleb128 0x29
 7894 1b28 24000000 		.4byte	.LVL303
 7895 1b2c 36170000 		.4byte	0x1736
 7896 1b30 401B0000 		.4byte	0x1b40
 7897 1b34 21       		.uleb128 0x21
 7898 1b35 01       		.uleb128 0x1
 7899 1b36 50       		.byte	0x50
 7900 1b37 02       		.uleb128 0x2
 7901 1b38 74       		.byte	0x74
 7902 1b39 00       		.sleb128 0
 7903 1b3a 21       		.uleb128 0x21
 7904 1b3b 01       		.uleb128 0x1
 7905 1b3c 51       		.byte	0x51
 7906 1b3d 01       		.uleb128 0x1
 7907 1b3e 31       		.byte	0x31
 7908 1b3f 00       		.byte	0
 7909 1b40 26       		.uleb128 0x26
 7910 1b41 30000000 		.4byte	.LVL306
 7911 1b45 6A250000 		.4byte	0x256a
 7912 1b49 20       		.uleb128 0x20
 7913 1b4a 4E000000 		.4byte	.LVL307
 7914 1b4e 36170000 		.4byte	0x1736
 7915 1b52 21       		.uleb128 0x21
 7916 1b53 01       		.uleb128 0x1
 7917 1b54 50       		.byte	0x50
 7918 1b55 02       		.uleb128 0x2
 7919 1b56 74       		.byte	0x74
 7920 1b57 00       		.sleb128 0
 7921 1b58 21       		.uleb128 0x21
 7922 1b59 01       		.uleb128 0x1
ARM GAS  C:\Users\Phuong\AppData\Local\Temp\cczg95Bp.s 			page 187


 7923 1b5a 51       		.byte	0x51
 7924 1b5b 02       		.uleb128 0x2
 7925 1b5c 75       		.byte	0x75
 7926 1b5d 00       		.sleb128 0
 7927 1b5e 00       		.byte	0
 7928 1b5f 00       		.byte	0
 7929 1b60 30       		.uleb128 0x30
 7930 1b61 7B0F0000 		.4byte	.LASF277
 7931 1b65 01       		.byte	0x1
 7932 1b66 D601     		.2byte	0x1d6
 7933 1b68 00000000 		.4byte	.LFB63
 7934 1b6c F4000000 		.4byte	.LFE63-.LFB63
 7935 1b70 01       		.uleb128 0x1
 7936 1b71 9C       		.byte	0x9c
 7937 1b72 091D0000 		.4byte	0x1d09
 7938 1b76 28       		.uleb128 0x28
 7939 1b77 70636200 		.ascii	"pcb\000"
 7940 1b7b 01       		.byte	0x1
 7941 1b7c D601     		.2byte	0x1d6
 7942 1b7e 9E070000 		.4byte	0x79e
 7943 1b82 160E0000 		.4byte	.LLST69
 7944 1b86 2B       		.uleb128 0x2b
 7945 1b87 E40B0000 		.4byte	.LASF278
 7946 1b8b 01       		.byte	0x1
 7947 1b8c D601     		.2byte	0x1d6
 7948 1b8e 68000000 		.4byte	0x68
 7949 1b92 790E0000 		.4byte	.LLST70
 7950 1b96 2C       		.uleb128 0x2c
 7951 1b97 84020000 		.4byte	.LASF206
 7952 1b9b 01       		.byte	0x1
 7953 1b9c D801     		.2byte	0x1d8
 7954 1b9e FD000000 		.4byte	0xfd
 7955 1ba2 C60E0000 		.4byte	.LLST71
 7956 1ba6 2C       		.uleb128 0x2c
 7957 1ba7 51000000 		.4byte	.LASF207
 7958 1bab 01       		.byte	0x1
 7959 1bac D801     		.2byte	0x1d8
 7960 1bae FD000000 		.4byte	0xfd
 7961 1bb2 E40E0000 		.4byte	.LLST72
 7962 1bb6 2C       		.uleb128 0x2c
 7963 1bb7 750A0000 		.4byte	.LASF171
 7964 1bbb 01       		.byte	0x1
 7965 1bbc DA01     		.2byte	0x1da
 7966 1bbe F60A0000 		.4byte	0xaf6
 7967 1bc2 020F0000 		.4byte	.LLST73
 7968 1bc6 2C       		.uleb128 0x2c
 7969 1bc7 04010000 		.4byte	.LASF279
 7970 1bcb 01       		.byte	0x1
 7971 1bcc DC01     		.2byte	0x1dc
 7972 1bce 88000000 		.4byte	0x88
 7973 1bd2 150F0000 		.4byte	.LLST74
 7974 1bd6 2D       		.uleb128 0x2d
 7975 1bd7 28000000 		.4byte	.LBB16
 7976 1bdb AE000000 		.4byte	.LBE16-.LBB16
 7977 1bdf D61C0000 		.4byte	0x1cd6
 7978 1be3 2C       		.uleb128 0x2c
 7979 1be4 DB0F0000 		.4byte	.LASF280
ARM GAS  C:\Users\Phuong\AppData\Local\Temp\cczg95Bp.s 			page 188


 7980 1be8 01       		.byte	0x1
 7981 1be9 E801     		.2byte	0x1e8
 7982 1beb 68000000 		.4byte	0x68
 7983 1bef 280F0000 		.4byte	.LLST75
 7984 1bf3 2C       		.uleb128 0x2c
 7985 1bf4 2C030000 		.4byte	.LASF137
 7986 1bf8 01       		.byte	0x1
 7987 1bf9 E901     		.2byte	0x1e9
 7988 1bfb E7000000 		.4byte	0xe7
 7989 1bff 690F0000 		.4byte	.LLST76
 7990 1c03 2C       		.uleb128 0x2c
 7991 1c04 460A0000 		.4byte	.LASF262
 7992 1c08 01       		.byte	0x1
 7993 1c09 EA01     		.2byte	0x1ea
 7994 1c0b 380B0000 		.4byte	0xb38
 7995 1c0f 9F0F0000 		.4byte	.LLST77
 7996 1c13 2D       		.uleb128 0x2d
 7997 1c14 50000000 		.4byte	.LBB17
 7998 1c18 12000000 		.4byte	.LBE17-.LBB17
 7999 1c1c 311C0000 		.4byte	0x1c31
 8000 1c20 2C       		.uleb128 0x2c
 8001 1c21 3E060000 		.4byte	.LASF230
 8002 1c25 01       		.byte	0x1
 8003 1c26 F401     		.2byte	0x1f4
 8004 1c28 9E070000 		.4byte	0x79e
 8005 1c2c B30F0000 		.4byte	.LLST78
 8006 1c30 00       		.byte	0
 8007 1c31 29       		.uleb128 0x29
 8008 1c32 78000000 		.4byte	.LVL333
 8009 1c36 B7160000 		.4byte	0x16b7
 8010 1c3a 4E1C0000 		.4byte	0x1c4e
 8011 1c3e 21       		.uleb128 0x21
 8012 1c3f 01       		.uleb128 0x1
 8013 1c40 50       		.byte	0x50
 8014 1c41 05       		.uleb128 0x5
 8015 1c42 03       		.byte	0x3
 8016 1c43 00000000 		.4byte	tcp_active_pcbs
 8017 1c47 21       		.uleb128 0x21
 8018 1c48 01       		.uleb128 0x1
 8019 1c49 51       		.byte	0x51
 8020 1c4a 02       		.uleb128 0x2
 8021 1c4b 74       		.byte	0x74
 8022 1c4c 00       		.sleb128 0
 8023 1c4d 00       		.byte	0
 8024 1c4e 26       		.uleb128 0x26
 8025 1c4f 90000000 		.4byte	.LVL336
 8026 1c53 ED110000 		.4byte	0x11ed
 8027 1c57 26       		.uleb128 0x26
 8028 1c58 9A000000 		.4byte	.LVL337
 8029 1c5c ED110000 		.4byte	0x11ed
 8030 1c60 26       		.uleb128 0x26
 8031 1c61 A4000000 		.4byte	.LVL338
 8032 1c65 ED110000 		.4byte	0x11ed
 8033 1c69 29       		.uleb128 0x29
 8034 1c6a AA000000 		.4byte	.LVL339
 8035 1c6e 440E0000 		.4byte	0xe44
 8036 1c72 7D1C0000 		.4byte	0x1c7d
ARM GAS  C:\Users\Phuong\AppData\Local\Temp\cczg95Bp.s 			page 189


 8037 1c76 21       		.uleb128 0x21
 8038 1c77 01       		.uleb128 0x1
 8039 1c78 50       		.byte	0x50
 8040 1c79 02       		.uleb128 0x2
 8041 1c7a 74       		.byte	0x74
 8042 1c7b 00       		.sleb128 0
 8043 1c7c 00       		.byte	0
 8044 1c7d 29       		.uleb128 0x29
 8045 1c7e C2000000 		.4byte	.LVL340
 8046 1c82 95250000 		.4byte	0x2595
 8047 1c86 AA1C0000 		.4byte	0x1caa
 8048 1c8a 21       		.uleb128 0x21
 8049 1c8b 01       		.uleb128 0x1
 8050 1c8c 50       		.byte	0x50
 8051 1c8d 02       		.uleb128 0x2
 8052 1c8e 79       		.byte	0x79
 8053 1c8f 00       		.sleb128 0
 8054 1c90 21       		.uleb128 0x21
 8055 1c91 01       		.uleb128 0x1
 8056 1c92 51       		.byte	0x51
 8057 1c93 02       		.uleb128 0x2
 8058 1c94 78       		.byte	0x78
 8059 1c95 00       		.sleb128 0
 8060 1c96 21       		.uleb128 0x21
 8061 1c97 01       		.uleb128 0x1
 8062 1c98 52       		.byte	0x52
 8063 1c99 02       		.uleb128 0x2
 8064 1c9a 74       		.byte	0x74
 8065 1c9b 00       		.sleb128 0
 8066 1c9c 21       		.uleb128 0x21
 8067 1c9d 01       		.uleb128 0x1
 8068 1c9e 53       		.byte	0x53
 8069 1c9f 02       		.uleb128 0x2
 8070 1ca0 74       		.byte	0x74
 8071 1ca1 04       		.sleb128 4
 8072 1ca2 21       		.uleb128 0x21
 8073 1ca3 02       		.uleb128 0x2
 8074 1ca4 7D       		.byte	0x7d
 8075 1ca5 00       		.sleb128 0
 8076 1ca6 02       		.uleb128 0x2
 8077 1ca7 7A       		.byte	0x7a
 8078 1ca8 00       		.sleb128 0
 8079 1ca9 00       		.byte	0
 8080 1caa 29       		.uleb128 0x29
 8081 1cab CA000000 		.4byte	.LVL341
 8082 1caf 5F250000 		.4byte	0x255f
 8083 1cb3 C31C0000 		.4byte	0x1cc3
 8084 1cb7 21       		.uleb128 0x21
 8085 1cb8 01       		.uleb128 0x1
 8086 1cb9 50       		.byte	0x50
 8087 1cba 01       		.uleb128 0x1
 8088 1cbb 32       		.byte	0x32
 8089 1cbc 21       		.uleb128 0x21
 8090 1cbd 01       		.uleb128 0x1
 8091 1cbe 51       		.byte	0x51
 8092 1cbf 02       		.uleb128 0x2
 8093 1cc0 74       		.byte	0x74
ARM GAS  C:\Users\Phuong\AppData\Local\Temp\cczg95Bp.s 			page 190


 8094 1cc1 00       		.sleb128 0
 8095 1cc2 00       		.byte	0
 8096 1cc3 34       		.uleb128 0x34
 8097 1cc4 D6000000 		.4byte	.LVL342
 8098 1cc8 21       		.uleb128 0x21
 8099 1cc9 01       		.uleb128 0x1
 8100 1cca 50       		.byte	0x50
 8101 1ccb 02       		.uleb128 0x2
 8102 1ccc 76       		.byte	0x76
 8103 1ccd 00       		.sleb128 0
 8104 1cce 21       		.uleb128 0x21
 8105 1ccf 01       		.uleb128 0x1
 8106 1cd0 51       		.byte	0x51
 8107 1cd1 02       		.uleb128 0x2
 8108 1cd2 09       		.byte	0x9
 8109 1cd3 F3       		.byte	0xf3
 8110 1cd4 00       		.byte	0
 8111 1cd5 00       		.byte	0
 8112 1cd6 29       		.uleb128 0x29
 8113 1cd7 1E000000 		.4byte	.LVL317
 8114 1cdb B7160000 		.4byte	0x16b7
 8115 1cdf F31C0000 		.4byte	0x1cf3
 8116 1ce3 21       		.uleb128 0x21
 8117 1ce4 01       		.uleb128 0x1
 8118 1ce5 50       		.byte	0x50
 8119 1ce6 05       		.uleb128 0x5
 8120 1ce7 03       		.byte	0x3
 8121 1ce8 00000000 		.4byte	tcp_tw_pcbs
 8122 1cec 21       		.uleb128 0x21
 8123 1ced 01       		.uleb128 0x1
 8124 1cee 51       		.byte	0x51
 8125 1cef 02       		.uleb128 0x2
 8126 1cf0 74       		.byte	0x74
 8127 1cf1 00       		.sleb128 0
 8128 1cf2 00       		.byte	0
 8129 1cf3 20       		.uleb128 0x20
 8130 1cf4 26000000 		.4byte	.LVL318
 8131 1cf8 5F250000 		.4byte	0x255f
 8132 1cfc 21       		.uleb128 0x21
 8133 1cfd 01       		.uleb128 0x1
 8134 1cfe 50       		.byte	0x50
 8135 1cff 01       		.uleb128 0x1
 8136 1d00 32       		.byte	0x32
 8137 1d01 21       		.uleb128 0x21
 8138 1d02 01       		.uleb128 0x1
 8139 1d03 51       		.byte	0x51
 8140 1d04 02       		.uleb128 0x2
 8141 1d05 74       		.byte	0x74
 8142 1d06 00       		.sleb128 0
 8143 1d07 00       		.byte	0
 8144 1d08 00       		.byte	0
 8145 1d09 30       		.uleb128 0x30
 8146 1d0a D5090000 		.4byte	.LASF281
 8147 1d0e 01       		.byte	0x1
 8148 1d0f 1D02     		.2byte	0x21d
 8149 1d11 00000000 		.4byte	.LFB64
 8150 1d15 0A000000 		.4byte	.LFE64-.LFB64
ARM GAS  C:\Users\Phuong\AppData\Local\Temp\cczg95Bp.s 			page 191


 8151 1d19 01       		.uleb128 0x1
 8152 1d1a 9C       		.byte	0x9c
 8153 1d1b 461D0000 		.4byte	0x1d46
 8154 1d1f 28       		.uleb128 0x28
 8155 1d20 70636200 		.ascii	"pcb\000"
 8156 1d24 01       		.byte	0x1
 8157 1d25 1D02     		.2byte	0x21d
 8158 1d27 9E070000 		.4byte	0x79e
 8159 1d2b C60F0000 		.4byte	.LLST79
 8160 1d2f 20       		.uleb128 0x20
 8161 1d30 08000000 		.4byte	.LVL345
 8162 1d34 601B0000 		.4byte	0x1b60
 8163 1d38 21       		.uleb128 0x21
 8164 1d39 01       		.uleb128 0x1
 8165 1d3a 50       		.byte	0x50
 8166 1d3b 03       		.uleb128 0x3
 8167 1d3c F3       		.byte	0xf3
 8168 1d3d 01       		.uleb128 0x1
 8169 1d3e 50       		.byte	0x50
 8170 1d3f 21       		.uleb128 0x21
 8171 1d40 01       		.uleb128 0x1
 8172 1d41 51       		.byte	0x51
 8173 1d42 01       		.uleb128 0x1
 8174 1d43 31       		.byte	0x31
 8175 1d44 00       		.byte	0
 8176 1d45 00       		.byte	0
 8177 1d46 22       		.uleb128 0x22
 8178 1d47 E1080000 		.4byte	.LASF282
 8179 1d4b 01       		.byte	0x1
 8180 1d4c 7D02     		.2byte	0x27d
 8181 1d4e 39040000 		.4byte	0x439
 8182 1d52 00000000 		.4byte	.LFB66
 8183 1d56 0E000000 		.4byte	.LFE66-.LFB66
 8184 1d5a 01       		.uleb128 0x1
 8185 1d5b 9C       		.byte	0x9c
 8186 1d5c A21D0000 		.4byte	0x1da2
 8187 1d60 28       		.uleb128 0x28
 8188 1d61 61726700 		.ascii	"arg\000"
 8189 1d65 01       		.byte	0x1
 8190 1d66 7D02     		.2byte	0x27d
 8191 1d68 88000000 		.4byte	0x88
 8192 1d6c E70F0000 		.4byte	.LLST80
 8193 1d70 28       		.uleb128 0x28
 8194 1d71 70636200 		.ascii	"pcb\000"
 8195 1d75 01       		.byte	0x1
 8196 1d76 7D02     		.2byte	0x27d
 8197 1d78 9E070000 		.4byte	0x79e
 8198 1d7c 08100000 		.4byte	.LLST81
 8199 1d80 28       		.uleb128 0x28
 8200 1d81 65727200 		.ascii	"err\000"
 8201 1d85 01       		.byte	0x1
 8202 1d86 7D02     		.2byte	0x27d
 8203 1d88 39040000 		.4byte	0x439
 8204 1d8c 29100000 		.4byte	.LLST82
 8205 1d90 20       		.uleb128 0x20
 8206 1d91 08000000 		.4byte	.LVL348
 8207 1d95 091D0000 		.4byte	0x1d09
ARM GAS  C:\Users\Phuong\AppData\Local\Temp\cczg95Bp.s 			page 192


 8208 1d99 21       		.uleb128 0x21
 8209 1d9a 01       		.uleb128 0x1
 8210 1d9b 50       		.byte	0x50
 8211 1d9c 03       		.uleb128 0x3
 8212 1d9d F3       		.byte	0xf3
 8213 1d9e 01       		.uleb128 0x1
 8214 1d9f 51       		.byte	0x51
 8215 1da0 00       		.byte	0
 8216 1da1 00       		.byte	0
 8217 1da2 39       		.uleb128 0x39
 8218 1da3 B2080000 		.4byte	.LASF283
 8219 1da7 01       		.byte	0x1
 8220 1da8 F705     		.2byte	0x5f7
 8221 1daa 00000000 		.4byte	.LFB84
 8222 1dae 34000000 		.4byte	.LFE84-.LFB84
 8223 1db2 01       		.uleb128 0x1
 8224 1db3 9C       		.byte	0x9c
 8225 1db4 F21D0000 		.4byte	0x1df2
 8226 1db8 23       		.uleb128 0x23
 8227 1db9 70636200 		.ascii	"pcb\000"
 8228 1dbd 01       		.byte	0x1
 8229 1dbe F905     		.2byte	0x5f9
 8230 1dc0 9E070000 		.4byte	0x79e
 8231 1dc4 4A100000 		.4byte	.LLST83
 8232 1dc8 2C       		.uleb128 0x2c
 8233 1dc9 A9090000 		.4byte	.LASF284
 8234 1dcd 01       		.byte	0x1
 8235 1dce F905     		.2byte	0x5f9
 8236 1dd0 9E070000 		.4byte	0x79e
 8237 1dd4 5D100000 		.4byte	.LLST84
 8238 1dd8 2C       		.uleb128 0x2c
 8239 1dd9 3C040000 		.4byte	.LASF285
 8240 1ddd 01       		.byte	0x1
 8241 1dde FA05     		.2byte	0x5fa
 8242 1de0 FD000000 		.4byte	0xfd
 8243 1de4 7C100000 		.4byte	.LLST85
 8244 1de8 26       		.uleb128 0x26
 8245 1de9 2A000000 		.4byte	.LVL355
 8246 1ded 091D0000 		.4byte	0x1d09
 8247 1df1 00       		.byte	0
 8248 1df2 39       		.uleb128 0x39
 8249 1df3 52040000 		.4byte	.LASF286
 8250 1df7 01       		.byte	0x1
 8251 1df8 B805     		.2byte	0x5b8
 8252 1dfa 00000000 		.4byte	.LFB82
 8253 1dfe 48000000 		.4byte	.LFE82-.LFB82
 8254 1e02 01       		.uleb128 0x1
 8255 1e03 9C       		.byte	0x9c
 8256 1e04 621E0000 		.4byte	0x1e62
 8257 1e08 2B       		.uleb128 0x2b
 8258 1e09 1D070000 		.4byte	.LASF136
 8259 1e0d 01       		.byte	0x1
 8260 1e0e B805     		.2byte	0x5b8
 8261 1e10 D1000000 		.4byte	0xd1
 8262 1e14 A6100000 		.4byte	.LLST86
 8263 1e18 23       		.uleb128 0x23
 8264 1e19 70636200 		.ascii	"pcb\000"
ARM GAS  C:\Users\Phuong\AppData\Local\Temp\cczg95Bp.s 			page 193


 8265 1e1d 01       		.byte	0x1
 8266 1e1e BA05     		.2byte	0x5ba
 8267 1e20 9E070000 		.4byte	0x79e
 8268 1e24 C7100000 		.4byte	.LLST87
 8269 1e28 2C       		.uleb128 0x2c
 8270 1e29 A9090000 		.4byte	.LASF284
 8271 1e2d 01       		.byte	0x1
 8272 1e2e BA05     		.2byte	0x5ba
 8273 1e30 9E070000 		.4byte	0x79e
 8274 1e34 DA100000 		.4byte	.LLST88
 8275 1e38 2C       		.uleb128 0x2c
 8276 1e39 3C040000 		.4byte	.LASF285
 8277 1e3d 01       		.byte	0x1
 8278 1e3e BB05     		.2byte	0x5bb
 8279 1e40 FD000000 		.4byte	0xfd
 8280 1e44 F9100000 		.4byte	.LLST89
 8281 1e48 2C       		.uleb128 0x2c
 8282 1e49 F10C0000 		.4byte	.LASF287
 8283 1e4d 01       		.byte	0x1
 8284 1e4e BC05     		.2byte	0x5bc
 8285 1e50 D1000000 		.4byte	0xd1
 8286 1e54 23110000 		.4byte	.LLST90
 8287 1e58 26       		.uleb128 0x26
 8288 1e59 3C000000 		.4byte	.LVL365
 8289 1e5d 091D0000 		.4byte	0x1d09
 8290 1e61 00       		.byte	0
 8291 1e62 39       		.uleb128 0x39
 8292 1e63 680C0000 		.4byte	.LASF288
 8293 1e67 01       		.byte	0x1
 8294 1e68 B907     		.2byte	0x7b9
 8295 1e6a 00000000 		.4byte	.LFB98
 8296 1e6e 22000000 		.4byte	.LFE98-.LFB98
 8297 1e72 01       		.uleb128 0x1
 8298 1e73 9C       		.byte	0x9c
 8299 1e74 CC1E0000 		.4byte	0x1ecc
 8300 1e78 2B       		.uleb128 0x2b
 8301 1e79 4D0B0000 		.4byte	.LASF289
 8302 1e7d 01       		.byte	0x1
 8303 1e7e B907     		.2byte	0x7b9
 8304 1e80 770F0000 		.4byte	0xf77
 8305 1e84 41110000 		.4byte	.LLST91
 8306 1e88 2B       		.uleb128 0x2b
 8307 1e89 EC010000 		.4byte	.LASF290
 8308 1e8d 01       		.byte	0x1
 8309 1e8e B907     		.2byte	0x7b9
 8310 1e90 9E070000 		.4byte	0x79e
 8311 1e94 6D110000 		.4byte	.LLST92
 8312 1e98 23       		.uleb128 0x23
 8313 1e99 70636200 		.ascii	"pcb\000"
 8314 1e9d 01       		.byte	0x1
 8315 1e9e BB07     		.2byte	0x7bb
 8316 1ea0 9E070000 		.4byte	0x79e
 8317 1ea4 8E110000 		.4byte	.LLST93
 8318 1ea8 2F       		.uleb128 0x2f
 8319 1ea9 10000000 		.4byte	.LBB18
 8320 1ead 08000000 		.4byte	.LBE18-.LBB18
 8321 1eb1 2C       		.uleb128 0x2c
ARM GAS  C:\Users\Phuong\AppData\Local\Temp\cczg95Bp.s 			page 194


 8322 1eb2 2B010000 		.4byte	.LASF95
 8323 1eb6 01       		.byte	0x1
 8324 1eb7 C607     		.2byte	0x7c6
 8325 1eb9 9E070000 		.4byte	0x79e
 8326 1ebd C2110000 		.4byte	.LLST94
 8327 1ec1 26       		.uleb128 0x26
 8328 1ec2 16000000 		.4byte	.LVL371
 8329 1ec6 091D0000 		.4byte	0x1d09
 8330 1eca 00       		.byte	0
 8331 1ecb 00       		.byte	0
 8332 1ecc 39       		.uleb128 0x39
 8333 1ecd 68080000 		.4byte	.LASF291
 8334 1ed1 01       		.byte	0x1
 8335 1ed2 D705     		.2byte	0x5d7
 8336 1ed4 00000000 		.4byte	.LFB83
 8337 1ed8 40000000 		.4byte	.LFE83-.LFB83
 8338 1edc 01       		.uleb128 0x1
 8339 1edd 9C       		.byte	0x9c
 8340 1ede 381F0000 		.4byte	0x1f38
 8341 1ee2 2B       		.uleb128 0x2b
 8342 1ee3 3C0E0000 		.4byte	.LASF118
 8343 1ee7 01       		.byte	0x1
 8344 1ee8 D705     		.2byte	0x5d7
 8345 1eea 380B0000 		.4byte	0xb38
 8346 1eee D5110000 		.4byte	.LLST95
 8347 1ef2 23       		.uleb128 0x23
 8348 1ef3 70636200 		.ascii	"pcb\000"
 8349 1ef7 01       		.byte	0x1
 8350 1ef8 D905     		.2byte	0x5d9
 8351 1efa 9E070000 		.4byte	0x79e
 8352 1efe F6110000 		.4byte	.LLST96
 8353 1f02 2C       		.uleb128 0x2c
 8354 1f03 A9090000 		.4byte	.LASF284
 8355 1f07 01       		.byte	0x1
 8356 1f08 D905     		.2byte	0x5d9
 8357 1f0a 9E070000 		.4byte	0x79e
 8358 1f0e 09120000 		.4byte	.LLST97
 8359 1f12 2C       		.uleb128 0x2c
 8360 1f13 3C040000 		.4byte	.LASF285
 8361 1f17 01       		.byte	0x1
 8362 1f18 DA05     		.2byte	0x5da
 8363 1f1a FD000000 		.4byte	0xfd
 8364 1f1e 28120000 		.4byte	.LLST98
 8365 1f22 20       		.uleb128 0x20
 8366 1f23 34000000 		.4byte	.LVL384
 8367 1f27 601B0000 		.4byte	0x1b60
 8368 1f2b 21       		.uleb128 0x21
 8369 1f2c 01       		.uleb128 0x1
 8370 1f2d 50       		.byte	0x50
 8371 1f2e 02       		.uleb128 0x2
 8372 1f2f 74       		.byte	0x74
 8373 1f30 00       		.sleb128 0
 8374 1f31 21       		.uleb128 0x21
 8375 1f32 01       		.uleb128 0x1
 8376 1f33 51       		.byte	0x51
 8377 1f34 01       		.uleb128 0x1
 8378 1f35 30       		.byte	0x30
ARM GAS  C:\Users\Phuong\AppData\Local\Temp\cczg95Bp.s 			page 195


 8379 1f36 00       		.byte	0
 8380 1f37 00       		.byte	0
 8381 1f38 2A       		.uleb128 0x2a
 8382 1f39 EE0F0000 		.4byte	.LASF292
 8383 1f3d 01       		.byte	0x1
 8384 1f3e 1306     		.2byte	0x613
 8385 1f40 9E070000 		.4byte	0x79e
 8386 1f44 00000000 		.4byte	.LFB85
 8387 1f48 38010000 		.4byte	.LFE85-.LFB85
 8388 1f4c 01       		.uleb128 0x1
 8389 1f4d 9C       		.byte	0x9c
 8390 1f4e 80200000 		.4byte	0x2080
 8391 1f52 2B       		.uleb128 0x2b
 8392 1f53 1D070000 		.4byte	.LASF136
 8393 1f57 01       		.byte	0x1
 8394 1f58 1306     		.2byte	0x613
 8395 1f5a D1000000 		.4byte	0xd1
 8396 1f5e 52120000 		.4byte	.LLST99
 8397 1f62 23       		.uleb128 0x23
 8398 1f63 70636200 		.ascii	"pcb\000"
 8399 1f67 01       		.byte	0x1
 8400 1f68 1506     		.2byte	0x615
 8401 1f6a 9E070000 		.4byte	0x79e
 8402 1f6e 73120000 		.4byte	.LLST100
 8403 1f72 29       		.uleb128 0x29
 8404 1f73 0E000000 		.4byte	.LVL388
 8405 1f77 54250000 		.4byte	0x2554
 8406 1f7b 951F0000 		.4byte	0x1f95
 8407 1f7f 21       		.uleb128 0x21
 8408 1f80 01       		.uleb128 0x1
 8409 1f81 50       		.byte	0x50
 8410 1f82 01       		.uleb128 0x1
 8411 1f83 32       		.byte	0x32
 8412 1f84 21       		.uleb128 0x21
 8413 1f85 01       		.uleb128 0x1
 8414 1f86 51       		.byte	0x51
 8415 1f87 05       		.uleb128 0x5
 8416 1f88 03       		.byte	0x3
 8417 1f89 00000000 		.4byte	.LC8
 8418 1f8d 21       		.uleb128 0x21
 8419 1f8e 01       		.uleb128 0x1
 8420 1f8f 52       		.byte	0x52
 8421 1f90 03       		.uleb128 0x3
 8422 1f91 0A       		.byte	0xa
 8423 1f92 1706     		.2byte	0x617
 8424 1f94 00       		.byte	0
 8425 1f95 26       		.uleb128 0x26
 8426 1f96 16000000 		.4byte	.LVL390
 8427 1f9a A21D0000 		.4byte	0x1da2
 8428 1f9e 29       		.uleb128 0x29
 8429 1f9f 20000000 		.4byte	.LVL391
 8430 1fa3 54250000 		.4byte	0x2554
 8431 1fa7 C11F0000 		.4byte	0x1fc1
 8432 1fab 21       		.uleb128 0x21
 8433 1fac 01       		.uleb128 0x1
 8434 1fad 50       		.byte	0x50
 8435 1fae 01       		.uleb128 0x1
ARM GAS  C:\Users\Phuong\AppData\Local\Temp\cczg95Bp.s 			page 196


 8436 1faf 32       		.byte	0x32
 8437 1fb0 21       		.uleb128 0x21
 8438 1fb1 01       		.uleb128 0x1
 8439 1fb2 51       		.byte	0x51
 8440 1fb3 05       		.uleb128 0x5
 8441 1fb4 03       		.byte	0x3
 8442 1fb5 00000000 		.4byte	.LC8
 8443 1fb9 21       		.uleb128 0x21
 8444 1fba 01       		.uleb128 0x1
 8445 1fbb 52       		.byte	0x52
 8446 1fbc 03       		.uleb128 0x3
 8447 1fbd 0A       		.byte	0xa
 8448 1fbe 1D06     		.2byte	0x61d
 8449 1fc0 00       		.byte	0
 8450 1fc1 29       		.uleb128 0x29
 8451 1fc2 2A000000 		.4byte	.LVL394
 8452 1fc6 CC1E0000 		.4byte	0x1ecc
 8453 1fca D41F0000 		.4byte	0x1fd4
 8454 1fce 21       		.uleb128 0x21
 8455 1fcf 01       		.uleb128 0x1
 8456 1fd0 50       		.byte	0x50
 8457 1fd1 01       		.uleb128 0x1
 8458 1fd2 39       		.byte	0x39
 8459 1fd3 00       		.byte	0
 8460 1fd4 29       		.uleb128 0x29
 8461 1fd5 34000000 		.4byte	.LVL395
 8462 1fd9 54250000 		.4byte	0x2554
 8463 1fdd F71F0000 		.4byte	0x1ff7
 8464 1fe1 21       		.uleb128 0x21
 8465 1fe2 01       		.uleb128 0x1
 8466 1fe3 50       		.byte	0x50
 8467 1fe4 01       		.uleb128 0x1
 8468 1fe5 32       		.byte	0x32
 8469 1fe6 21       		.uleb128 0x21
 8470 1fe7 01       		.uleb128 0x1
 8471 1fe8 51       		.byte	0x51
 8472 1fe9 05       		.uleb128 0x5
 8473 1fea 03       		.byte	0x3
 8474 1feb 00000000 		.4byte	.LC8
 8475 1fef 21       		.uleb128 0x21
 8476 1ff0 01       		.uleb128 0x1
 8477 1ff1 52       		.byte	0x52
 8478 1ff2 03       		.uleb128 0x3
 8479 1ff3 0A       		.byte	0xa
 8480 1ff4 2306     		.2byte	0x623
 8481 1ff6 00       		.byte	0
 8482 1ff7 29       		.uleb128 0x29
 8483 1ff8 3E000000 		.4byte	.LVL398
 8484 1ffc CC1E0000 		.4byte	0x1ecc
 8485 2000 0A200000 		.4byte	0x200a
 8486 2004 21       		.uleb128 0x21
 8487 2005 01       		.uleb128 0x1
 8488 2006 50       		.byte	0x50
 8489 2007 01       		.uleb128 0x1
 8490 2008 38       		.byte	0x38
 8491 2009 00       		.byte	0
 8492 200a 29       		.uleb128 0x29
ARM GAS  C:\Users\Phuong\AppData\Local\Temp\cczg95Bp.s 			page 197


 8493 200b 48000000 		.4byte	.LVL399
 8494 200f 54250000 		.4byte	0x2554
 8495 2013 2D200000 		.4byte	0x202d
 8496 2017 21       		.uleb128 0x21
 8497 2018 01       		.uleb128 0x1
 8498 2019 50       		.byte	0x50
 8499 201a 01       		.uleb128 0x1
 8500 201b 32       		.byte	0x32
 8501 201c 21       		.uleb128 0x21
 8502 201d 01       		.uleb128 0x1
 8503 201e 51       		.byte	0x51
 8504 201f 05       		.uleb128 0x5
 8505 2020 03       		.byte	0x3
 8506 2021 00000000 		.4byte	.LC8
 8507 2025 21       		.uleb128 0x21
 8508 2026 01       		.uleb128 0x1
 8509 2027 52       		.byte	0x52
 8510 2028 03       		.uleb128 0x3
 8511 2029 0A       		.byte	0xa
 8512 202a 2906     		.2byte	0x629
 8513 202c 00       		.byte	0
 8514 202d 29       		.uleb128 0x29
 8515 202e 52000000 		.4byte	.LVL402
 8516 2032 F21D0000 		.4byte	0x1df2
 8517 2036 41200000 		.4byte	0x2041
 8518 203a 21       		.uleb128 0x21
 8519 203b 01       		.uleb128 0x1
 8520 203c 50       		.byte	0x50
 8521 203d 02       		.uleb128 0x2
 8522 203e 75       		.byte	0x75
 8523 203f 00       		.sleb128 0
 8524 2040 00       		.byte	0
 8525 2041 29       		.uleb128 0x29
 8526 2042 5C000000 		.4byte	.LVL403
 8527 2046 54250000 		.4byte	0x2554
 8528 204a 64200000 		.4byte	0x2064
 8529 204e 21       		.uleb128 0x21
 8530 204f 01       		.uleb128 0x1
 8531 2050 50       		.byte	0x50
 8532 2051 01       		.uleb128 0x1
 8533 2052 32       		.byte	0x32
 8534 2053 21       		.uleb128 0x21
 8535 2054 01       		.uleb128 0x1
 8536 2055 51       		.byte	0x51
 8537 2056 05       		.uleb128 0x5
 8538 2057 03       		.byte	0x3
 8539 2058 00000000 		.4byte	.LC8
 8540 205c 21       		.uleb128 0x21
 8541 205d 01       		.uleb128 0x1
 8542 205e 52       		.byte	0x52
 8543 205f 03       		.uleb128 0x3
 8544 2060 0A       		.byte	0xa
 8545 2061 2F06     		.2byte	0x62f
 8546 2063 00       		.byte	0
 8547 2064 20       		.uleb128 0x20
 8548 2065 AA000000 		.4byte	.LVL405
 8549 2069 C4250000 		.4byte	0x25c4
ARM GAS  C:\Users\Phuong\AppData\Local\Temp\cczg95Bp.s 			page 198


 8550 206d 21       		.uleb128 0x21
 8551 206e 01       		.uleb128 0x1
 8552 206f 50       		.byte	0x50
 8553 2070 02       		.uleb128 0x2
 8554 2071 74       		.byte	0x74
 8555 2072 00       		.sleb128 0
 8556 2073 21       		.uleb128 0x21
 8557 2074 01       		.uleb128 0x1
 8558 2075 51       		.byte	0x51
 8559 2076 01       		.uleb128 0x1
 8560 2077 30       		.byte	0x30
 8561 2078 21       		.uleb128 0x21
 8562 2079 01       		.uleb128 0x1
 8563 207a 52       		.byte	0x52
 8564 207b 02       		.uleb128 0x2
 8565 207c 08       		.byte	0x8
 8566 207d A0       		.byte	0xa0
 8567 207e 00       		.byte	0
 8568 207f 00       		.byte	0
 8569 2080 2A       		.uleb128 0x2a
 8570 2081 B3040000 		.4byte	.LASF293
 8571 2085 01       		.byte	0x1
 8572 2086 7C06     		.2byte	0x67c
 8573 2088 9E070000 		.4byte	0x79e
 8574 208c 00000000 		.4byte	.LFB86
 8575 2090 0A000000 		.4byte	.LFE86-.LFB86
 8576 2094 01       		.uleb128 0x1
 8577 2095 9C       		.byte	0x9c
 8578 2096 AB200000 		.4byte	0x20ab
 8579 209a 20       		.uleb128 0x20
 8580 209b 08000000 		.4byte	.LVL407
 8581 209f 381F0000 		.4byte	0x1f38
 8582 20a3 21       		.uleb128 0x21
 8583 20a4 01       		.uleb128 0x1
 8584 20a5 50       		.byte	0x50
 8585 20a6 02       		.uleb128 0x2
 8586 20a7 08       		.byte	0x8
 8587 20a8 40       		.byte	0x40
 8588 20a9 00       		.byte	0
 8589 20aa 00       		.byte	0
 8590 20ab 2A       		.uleb128 0x2a
 8591 20ac CC060000 		.4byte	.LASF294
 8592 20b0 01       		.byte	0x1
 8593 20b1 8D06     		.2byte	0x68d
 8594 20b3 9E070000 		.4byte	0x79e
 8595 20b7 00000000 		.4byte	.LFB87
 8596 20bb 0A000000 		.4byte	.LFE87-.LFB87
 8597 20bf 01       		.uleb128 0x1
 8598 20c0 9C       		.byte	0x9c
 8599 20c1 F4200000 		.4byte	0x20f4
 8600 20c5 2B       		.uleb128 0x2b
 8601 20c6 720D0000 		.4byte	.LASF98
 8602 20ca 01       		.byte	0x1
 8603 20cb 8D06     		.2byte	0x68d
 8604 20cd D1000000 		.4byte	0xd1
 8605 20d1 F4120000 		.4byte	.LLST101
 8606 20d5 3A       		.uleb128 0x3a
ARM GAS  C:\Users\Phuong\AppData\Local\Temp\cczg95Bp.s 			page 199


 8607 20d6 70636200 		.ascii	"pcb\000"
 8608 20da 01       		.byte	0x1
 8609 20db 8F06     		.2byte	0x68f
 8610 20dd 9E070000 		.4byte	0x79e
 8611 20e1 01       		.uleb128 0x1
 8612 20e2 50       		.byte	0x50
 8613 20e3 20       		.uleb128 0x20
 8614 20e4 08000000 		.4byte	.LVL410
 8615 20e8 381F0000 		.4byte	0x1f38
 8616 20ec 21       		.uleb128 0x21
 8617 20ed 01       		.uleb128 0x1
 8618 20ee 50       		.byte	0x50
 8619 20ef 02       		.uleb128 0x2
 8620 20f0 08       		.byte	0x8
 8621 20f1 40       		.byte	0x40
 8622 20f2 00       		.byte	0
 8623 20f3 00       		.byte	0
 8624 20f4 2A       		.uleb128 0x2a
 8625 20f5 7D010000 		.4byte	.LASF295
 8626 20f9 01       		.byte	0x1
 8627 20fa 6707     		.2byte	0x767
 8628 20fc FD000000 		.4byte	0xfd
 8629 2100 00000000 		.4byte	.LFB96
 8630 2104 18000000 		.4byte	.LFE96-.LFB96
 8631 2108 01       		.uleb128 0x1
 8632 2109 9C       		.byte	0x9c
 8633 210a 31210000 		.4byte	0x2131
 8634 210e 28       		.uleb128 0x28
 8635 210f 70636200 		.ascii	"pcb\000"
 8636 2113 01       		.byte	0x1
 8637 2114 6707     		.2byte	0x767
 8638 2116 9E070000 		.4byte	0x79e
 8639 211a 15130000 		.4byte	.LLST102
 8640 211e 3A       		.uleb128 0x3a
 8641 211f 69737300 		.ascii	"iss\000"
 8642 2123 01       		.byte	0x1
 8643 2124 6C07     		.2byte	0x76c
 8644 2126 FD000000 		.4byte	0xfd
 8645 212a 05       		.uleb128 0x5
 8646 212b 03       		.byte	0x3
 8647 212c 04000000 		.4byte	iss.12762
 8648 2130 00       		.byte	0
 8649 2131 2A       		.uleb128 0x2a
 8650 2132 920F0000 		.4byte	.LASF296
 8651 2136 01       		.byte	0x1
 8652 2137 7C07     		.2byte	0x77c
 8653 2139 E7000000 		.4byte	0xe7
 8654 213d 00000000 		.4byte	.LFB97
 8655 2141 28000000 		.4byte	.LFE97-.LFB97
 8656 2145 01       		.uleb128 0x1
 8657 2146 9C       		.byte	0x9c
 8658 2147 AD210000 		.4byte	0x21ad
 8659 214b 2B       		.uleb128 0x2b
 8660 214c 30100000 		.4byte	.LASF297
 8661 2150 01       		.byte	0x1
 8662 2151 7C07     		.2byte	0x77c
 8663 2153 E7000000 		.4byte	0xe7
ARM GAS  C:\Users\Phuong\AppData\Local\Temp\cczg95Bp.s 			page 200


 8664 2157 36130000 		.4byte	.LLST103
 8665 215b 2B       		.uleb128 0x2b
 8666 215c 2B100000 		.4byte	.LASF205
 8667 2160 01       		.byte	0x1
 8668 2161 7C07     		.2byte	0x77c
 8669 2163 770F0000 		.4byte	0xf77
 8670 2167 57130000 		.4byte	.LLST104
 8671 216b 2C       		.uleb128 0x2c
 8672 216c A30E0000 		.4byte	.LASF298
 8673 2170 01       		.byte	0x1
 8674 2171 8207     		.2byte	0x782
 8675 2173 E7000000 		.4byte	0xe7
 8676 2177 78130000 		.4byte	.LLST105
 8677 217b 2C       		.uleb128 0x2c
 8678 217c 500C0000 		.4byte	.LASF299
 8679 2180 01       		.byte	0x1
 8680 2181 8307     		.2byte	0x783
 8681 2183 8D050000 		.4byte	0x58d
 8682 2187 8B130000 		.4byte	.LLST106
 8683 218b 23       		.uleb128 0x23
 8684 218c 6D747500 		.ascii	"mtu\000"
 8685 2190 01       		.byte	0x1
 8686 2191 8407     		.2byte	0x784
 8687 2193 F2000000 		.4byte	0xf2
 8688 2197 9E130000 		.4byte	.LLST107
 8689 219b 20       		.uleb128 0x20
 8690 219c 0A000000 		.4byte	.LVL415
 8691 21a0 CD250000 		.4byte	0x25cd
 8692 21a4 21       		.uleb128 0x21
 8693 21a5 01       		.uleb128 0x1
 8694 21a6 50       		.byte	0x50
 8695 21a7 03       		.uleb128 0x3
 8696 21a8 F3       		.byte	0xf3
 8697 21a9 01       		.uleb128 0x1
 8698 21aa 51       		.byte	0x51
 8699 21ab 00       		.byte	0
 8700 21ac 00       		.byte	0
 8701 21ad 2A       		.uleb128 0x2a
 8702 21ae 68000000 		.4byte	.LASF300
 8703 21b2 01       		.byte	0x1
 8704 21b3 6D03     		.2byte	0x36d
 8705 21b5 39040000 		.4byte	0x439
 8706 21b9 00000000 		.4byte	.LFB72
 8707 21bd 80010000 		.4byte	.LFE72-.LFB72
 8708 21c1 01       		.uleb128 0x1
 8709 21c2 9C       		.byte	0x9c
 8710 21c3 22230000 		.4byte	0x2322
 8711 21c7 28       		.uleb128 0x28
 8712 21c8 70636200 		.ascii	"pcb\000"
 8713 21cc 01       		.byte	0x1
 8714 21cd 6D03     		.2byte	0x36d
 8715 21cf 9E070000 		.4byte	0x79e
 8716 21d3 BD130000 		.4byte	.LLST108
 8717 21d7 2B       		.uleb128 0x2b
 8718 21d8 E8050000 		.4byte	.LASF222
 8719 21dc 01       		.byte	0x1
 8720 21dd 6D03     		.2byte	0x36d
ARM GAS  C:\Users\Phuong\AppData\Local\Temp\cczg95Bp.s 			page 201


 8721 21df 770F0000 		.4byte	0xf77
 8722 21e3 2B140000 		.4byte	.LLST109
 8723 21e7 2B       		.uleb128 0x2b
 8724 21e8 230D0000 		.4byte	.LASF223
 8725 21ec 01       		.byte	0x1
 8726 21ed 6D03     		.2byte	0x36d
 8727 21ef E7000000 		.4byte	0xe7
 8728 21f3 7B140000 		.4byte	.LLST110
 8729 21f7 2B       		.uleb128 0x2b
 8730 21f8 16060000 		.4byte	.LASF169
 8731 21fc 01       		.byte	0x1
 8732 21fd 6E03     		.2byte	0x36e
 8733 21ff 170B0000 		.4byte	0xb17
 8734 2203 B5140000 		.4byte	.LLST111
 8735 2207 23       		.uleb128 0x23
 8736 2208 72657400 		.ascii	"ret\000"
 8737 220c 01       		.byte	0x1
 8738 220d 7003     		.2byte	0x370
 8739 220f 39040000 		.4byte	0x439
 8740 2213 F7140000 		.4byte	.LLST112
 8741 2217 23       		.uleb128 0x23
 8742 2218 69737300 		.ascii	"iss\000"
 8743 221c 01       		.byte	0x1
 8744 221d 7103     		.2byte	0x371
 8745 221f FD000000 		.4byte	0xfd
 8746 2223 0A150000 		.4byte	.LLST113
 8747 2227 2C       		.uleb128 0x2c
 8748 2228 7E070000 		.4byte	.LASF301
 8749 222c 01       		.byte	0x1
 8750 222d 7203     		.2byte	0x372
 8751 222f E7000000 		.4byte	0xe7
 8752 2233 37150000 		.4byte	.LLST114
 8753 2237 3B       		.uleb128 0x3b
 8754 2238 18000000 		.4byte	.Ldebug_ranges0+0x18
 8755 223c 71220000 		.4byte	0x2271
 8756 2240 2C       		.uleb128 0x2c
 8757 2241 740E0000 		.4byte	.LASF111
 8758 2245 01       		.byte	0x1
 8759 2246 8103     		.2byte	0x381
 8760 2248 8D050000 		.4byte	0x58d
 8761 224c 55150000 		.4byte	.LLST115
 8762 2250 2C       		.uleb128 0x2c
 8763 2251 9A0B0000 		.4byte	.LASF132
 8764 2255 01       		.byte	0x1
 8765 2256 8203     		.2byte	0x382
 8766 2258 770F0000 		.4byte	0xf77
 8767 225c 7E150000 		.4byte	.LLST116
 8768 2260 20       		.uleb128 0x20
 8769 2261 40000000 		.4byte	.LVL424
 8770 2265 CD250000 		.4byte	0x25cd
 8771 2269 21       		.uleb128 0x21
 8772 226a 01       		.uleb128 0x1
 8773 226b 50       		.byte	0x50
 8774 226c 02       		.uleb128 0x2
 8775 226d 74       		.byte	0x74
 8776 226e 04       		.sleb128 4
 8777 226f 00       		.byte	0
ARM GAS  C:\Users\Phuong\AppData\Local\Temp\cczg95Bp.s 			page 202


 8778 2270 00       		.byte	0
 8779 2271 3B       		.uleb128 0x3b
 8780 2272 30000000 		.4byte	.Ldebug_ranges0+0x30
 8781 2276 99220000 		.4byte	0x2299
 8782 227a 2C       		.uleb128 0x2c
 8783 227b 6C0B0000 		.4byte	.LASF225
 8784 227f 01       		.byte	0x1
 8785 2280 9803     		.2byte	0x398
 8786 2282 9E070000 		.4byte	0x79e
 8787 2286 9C150000 		.4byte	.LLST117
 8788 228a 23       		.uleb128 0x23
 8789 228b 6900     		.ascii	"i\000"
 8790 228d 01       		.byte	0x1
 8791 228e 9903     		.2byte	0x399
 8792 2290 68000000 		.4byte	0x68
 8793 2294 BA150000 		.4byte	.LLST118
 8794 2298 00       		.byte	0
 8795 2299 2D       		.uleb128 0x2d
 8796 229a 08010000 		.4byte	.LBB22
 8797 229e 12000000 		.4byte	.LBE22-.LBB22
 8798 22a2 B7220000 		.4byte	0x22b7
 8799 22a6 2C       		.uleb128 0x2c
 8800 22a7 3E060000 		.4byte	.LASF230
 8801 22ab 01       		.byte	0x1
 8802 22ac C803     		.2byte	0x3c8
 8803 22ae 9E070000 		.4byte	0x79e
 8804 22b2 E3150000 		.4byte	.LLST119
 8805 22b6 00       		.byte	0
 8806 22b7 26       		.uleb128 0x26
 8807 22b8 64000000 		.4byte	.LVL429
 8808 22bc AF0D0000 		.4byte	0xdaf
 8809 22c0 29       		.uleb128 0x29
 8810 22c1 B0000000 		.4byte	.LVL437
 8811 22c5 F4200000 		.4byte	0x20f4
 8812 22c9 D4220000 		.4byte	0x22d4
 8813 22cd 21       		.uleb128 0x21
 8814 22ce 01       		.uleb128 0x1
 8815 22cf 50       		.byte	0x50
 8816 22d0 02       		.uleb128 0x2
 8817 22d1 74       		.byte	0x74
 8818 22d2 00       		.sleb128 0
 8819 22d3 00       		.byte	0
 8820 22d4 29       		.uleb128 0x29
 8821 22d5 D6000000 		.4byte	.LVL441
 8822 22d9 31210000 		.4byte	0x2131
 8823 22dd EF220000 		.4byte	0x22ef
 8824 22e1 21       		.uleb128 0x21
 8825 22e2 01       		.uleb128 0x1
 8826 22e3 50       		.byte	0x50
 8827 22e4 03       		.uleb128 0x3
 8828 22e5 0A       		.byte	0xa
 8829 22e6 1802     		.2byte	0x218
 8830 22e8 21       		.uleb128 0x21
 8831 22e9 01       		.uleb128 0x1
 8832 22ea 51       		.byte	0x51
 8833 22eb 02       		.uleb128 0x2
 8834 22ec 74       		.byte	0x74
ARM GAS  C:\Users\Phuong\AppData\Local\Temp\cczg95Bp.s 			page 203


 8835 22ed 04       		.sleb128 4
 8836 22ee 00       		.byte	0
 8837 22ef 29       		.uleb128 0x29
 8838 22f0 EC000000 		.4byte	.LVL442
 8839 22f4 D8250000 		.4byte	0x25d8
 8840 22f8 08230000 		.4byte	0x2308
 8841 22fc 21       		.uleb128 0x21
 8842 22fd 01       		.uleb128 0x1
 8843 22fe 50       		.byte	0x50
 8844 22ff 02       		.uleb128 0x2
 8845 2300 74       		.byte	0x74
 8846 2301 00       		.sleb128 0
 8847 2302 21       		.uleb128 0x21
 8848 2303 01       		.uleb128 0x1
 8849 2304 51       		.byte	0x51
 8850 2305 01       		.uleb128 0x1
 8851 2306 32       		.byte	0x32
 8852 2307 00       		.byte	0
 8853 2308 26       		.uleb128 0x26
 8854 2309 2A010000 		.4byte	.LVL447
 8855 230d 48250000 		.4byte	0x2548
 8856 2311 20       		.uleb128 0x20
 8857 2312 36010000 		.4byte	.LVL448
 8858 2316 3C250000 		.4byte	0x253c
 8859 231a 21       		.uleb128 0x21
 8860 231b 01       		.uleb128 0x1
 8861 231c 50       		.byte	0x50
 8862 231d 02       		.uleb128 0x2
 8863 231e 74       		.byte	0x74
 8864 231f 00       		.sleb128 0
 8865 2320 00       		.byte	0
 8866 2321 00       		.byte	0
 8867 2322 30       		.uleb128 0x30
 8868 2323 E0070000 		.4byte	.LASF302
 8869 2327 01       		.byte	0x1
 8870 2328 D607     		.2byte	0x7d6
 8871 232a 00000000 		.4byte	.LFB99
 8872 232e 54000000 		.4byte	.LFE99-.LFB99
 8873 2332 01       		.uleb128 0x1
 8874 2333 9C       		.byte	0x9c
 8875 2334 9D230000 		.4byte	0x239d
 8876 2338 2B       		.uleb128 0x2b
 8877 2339 4D0B0000 		.4byte	.LASF289
 8878 233d 01       		.byte	0x1
 8879 233e D607     		.2byte	0x7d6
 8880 2340 770F0000 		.4byte	0xf77
 8881 2344 F6150000 		.4byte	.LLST120
 8882 2348 2B       		.uleb128 0x2b
 8883 2349 08100000 		.4byte	.LASF303
 8884 234d 01       		.byte	0x1
 8885 234e D607     		.2byte	0x7d6
 8886 2350 770F0000 		.4byte	0xf77
 8887 2354 22160000 		.4byte	.LLST121
 8888 2358 2C       		.uleb128 0x2c
 8889 2359 9E0E0000 		.4byte	.LASF214
 8890 235d 01       		.byte	0x1
 8891 235e D807     		.2byte	0x7d8
ARM GAS  C:\Users\Phuong\AppData\Local\Temp\cczg95Bp.s 			page 204


 8892 2360 340C0000 		.4byte	0xc34
 8893 2364 4E160000 		.4byte	.LLST122
 8894 2368 2C       		.uleb128 0x2c
 8895 2369 2B010000 		.4byte	.LASF95
 8896 236d 01       		.byte	0x1
 8897 236e D807     		.2byte	0x7d8
 8898 2370 340C0000 		.4byte	0xc34
 8899 2374 61160000 		.4byte	.LLST123
 8900 2378 29       		.uleb128 0x29
 8901 2379 18000000 		.4byte	.LVL466
 8902 237d 621E0000 		.4byte	0x1e62
 8903 2381 8C230000 		.4byte	0x238c
 8904 2385 21       		.uleb128 0x21
 8905 2386 01       		.uleb128 0x1
 8906 2387 50       		.byte	0x50
 8907 2388 02       		.uleb128 0x2
 8908 2389 74       		.byte	0x74
 8909 238a 00       		.sleb128 0
 8910 238b 00       		.byte	0
 8911 238c 20       		.uleb128 0x20
 8912 238d 22000000 		.4byte	.LVL467
 8913 2391 621E0000 		.4byte	0x1e62
 8914 2395 21       		.uleb128 0x21
 8915 2396 01       		.uleb128 0x1
 8916 2397 50       		.byte	0x50
 8917 2398 02       		.uleb128 0x2
 8918 2399 74       		.byte	0x74
 8919 239a 00       		.sleb128 0
 8920 239b 00       		.byte	0
 8921 239c 00       		.byte	0
 8922 239d 2A       		.uleb128 0x2a
 8923 239e 8E080000 		.4byte	.LASF304
 8924 23a2 01       		.byte	0x1
 8925 23a3 EE07     		.2byte	0x7ee
 8926 23a5 98000000 		.4byte	0x98
 8927 23a9 00000000 		.4byte	.LFB100
 8928 23ad 10000000 		.4byte	.LFE100-.LFB100
 8929 23b1 01       		.uleb128 0x1
 8930 23b2 9C       		.byte	0x9c
 8931 23b3 C6230000 		.4byte	0x23c6
 8932 23b7 28       		.uleb128 0x28
 8933 23b8 7300     		.ascii	"s\000"
 8934 23ba 01       		.byte	0x1
 8935 23bb EE07     		.2byte	0x7ee
 8936 23bd 380B0000 		.4byte	0xb38
 8937 23c1 74160000 		.4byte	.LLST124
 8938 23c5 00       		.byte	0
 8939 23c6 08       		.uleb128 0x8
 8940 23c7 CC000000 		.4byte	0xcc
 8941 23cb D6230000 		.4byte	0x23d6
 8942 23cf 09       		.uleb128 0x9
 8943 23d0 8A000000 		.4byte	0x8a
 8944 23d4 0A       		.byte	0xa
 8945 23d5 00       		.byte	0
 8946 23d6 3C       		.uleb128 0x3c
 8947 23d7 7A0E0000 		.4byte	.LASF305
 8948 23db 01       		.byte	0x1
ARM GAS  C:\Users\Phuong\AppData\Local\Temp\cczg95Bp.s 			page 205


 8949 23dc 5C       		.byte	0x5c
 8950 23dd E7230000 		.4byte	0x23e7
 8951 23e1 05       		.uleb128 0x5
 8952 23e2 03       		.byte	0x3
 8953 23e3 28000000 		.4byte	tcp_state_str
 8954 23e7 07       		.uleb128 0x7
 8955 23e8 C6230000 		.4byte	0x23c6
 8956 23ec 3C       		.uleb128 0x3c
 8957 23ed 0F0B0000 		.4byte	.LASF306
 8958 23f1 01       		.byte	0x1
 8959 23f2 6B       		.byte	0x6b
 8960 23f3 E7000000 		.4byte	0xe7
 8961 23f7 05       		.uleb128 0x5
 8962 23f8 03       		.byte	0x3
 8963 23f9 00000000 		.4byte	tcp_port
 8964 23fd 08       		.uleb128 0x8
 8965 23fe 0D240000 		.4byte	0x240d
 8966 2402 0D240000 		.4byte	0x240d
 8967 2406 09       		.uleb128 0x9
 8968 2407 8A000000 		.4byte	0x8a
 8969 240b 0C       		.byte	0xc
 8970 240c 00       		.byte	0
 8971 240d 07       		.uleb128 0x7
 8972 240e D1000000 		.4byte	0xd1
 8973 2412 3C       		.uleb128 0x3c
 8974 2413 B7050000 		.4byte	.LASF307
 8975 2417 01       		.byte	0x1
 8976 2418 6F       		.byte	0x6f
 8977 2419 23240000 		.4byte	0x2423
 8978 241d 05       		.uleb128 0x5
 8979 241e 03       		.byte	0x3
 8980 241f 18000000 		.4byte	tcp_backoff
 8981 2423 07       		.uleb128 0x7
 8982 2424 FD230000 		.4byte	0x23fd
 8983 2428 08       		.uleb128 0x8
 8984 2429 0D240000 		.4byte	0x240d
 8985 242d 38240000 		.4byte	0x2438
 8986 2431 09       		.uleb128 0x9
 8987 2432 8A000000 		.4byte	0x8a
 8988 2436 06       		.byte	0x6
 8989 2437 00       		.byte	0
 8990 2438 3C       		.uleb128 0x3c
 8991 2439 87040000 		.4byte	.LASF308
 8992 243d 01       		.byte	0x1
 8993 243e 72       		.byte	0x72
 8994 243f 49240000 		.4byte	0x2449
 8995 2443 05       		.uleb128 0x5
 8996 2444 03       		.byte	0x3
 8997 2445 10000000 		.4byte	tcp_persist_backoff
 8998 2449 07       		.uleb128 0x7
 8999 244a 28240000 		.4byte	0x2428
 9000 244e 3C       		.uleb128 0x3c
 9001 244f A2060000 		.4byte	.LASF309
 9002 2453 01       		.byte	0x1
 9003 2454 87       		.byte	0x87
 9004 2455 D1000000 		.4byte	0xd1
 9005 2459 05       		.uleb128 0x5
ARM GAS  C:\Users\Phuong\AppData\Local\Temp\cczg95Bp.s 			page 206


 9006 245a 03       		.byte	0x3
 9007 245b 01000000 		.4byte	tcp_timer
 9008 245f 3C       		.uleb128 0x3c
 9009 2460 880E0000 		.4byte	.LASF310
 9010 2464 01       		.byte	0x1
 9011 2465 88       		.byte	0x88
 9012 2466 D1000000 		.4byte	0xd1
 9013 246a 05       		.uleb128 0x5
 9014 246b 03       		.byte	0x3
 9015 246c 00000000 		.4byte	tcp_timer_ctr
 9016 2470 3D       		.uleb128 0x3d
 9017 2471 22020000 		.4byte	.LASF311
 9018 2475 07       		.byte	0x7
 9019 2476 3001     		.2byte	0x130
 9020 2478 9F030000 		.4byte	0x39f
 9021 247c 3D       		.uleb128 0x3d
 9022 247d FA030000 		.4byte	.LASF312
 9023 2481 0C       		.byte	0xc
 9024 2482 5201     		.2byte	0x152
 9025 2484 7D0F0000 		.4byte	0xf7d
 9026 2488 3D       		.uleb128 0x3d
 9027 2489 C3050000 		.4byte	.LASF313
 9028 248d 0F       		.byte	0xf
 9029 248e 3701     		.2byte	0x137
 9030 2490 9E070000 		.4byte	0x79e
 9031 2494 3E       		.uleb128 0x3e
 9032 2495 0B070000 		.4byte	.LASF314
 9033 2499 01       		.byte	0x1
 9034 249a 6E       		.byte	0x6e
 9035 249b FD000000 		.4byte	0xfd
 9036 249f 05       		.uleb128 0x5
 9037 24a0 03       		.byte	0x3
 9038 24a1 00000000 		.4byte	tcp_ticks
 9039 24a5 3E       		.uleb128 0x3e
 9040 24a6 E1020000 		.4byte	.LASF315
 9041 24aa 01       		.byte	0x1
 9042 24ab 84       		.byte	0x84
 9043 24ac D1000000 		.4byte	0xd1
 9044 24b0 05       		.uleb128 0x5
 9045 24b1 03       		.byte	0x3
 9046 24b2 00000000 		.4byte	tcp_active_pcbs_changed
 9047 24b6 3E       		.uleb128 0x3e
 9048 24b7 E90D0000 		.4byte	.LASF316
 9049 24bb 01       		.byte	0x1
 9050 24bc 77       		.byte	0x77
 9051 24bd 9E070000 		.4byte	0x79e
 9052 24c1 05       		.uleb128 0x5
 9053 24c2 03       		.byte	0x3
 9054 24c3 00000000 		.4byte	tcp_bound_pcbs
 9055 24c7 3E       		.uleb128 0x3e
 9056 24c8 FD080000 		.4byte	.LASF317
 9057 24cc 01       		.byte	0x1
 9058 24cd 79       		.byte	0x79
 9059 24ce 080D0000 		.4byte	0xd08
 9060 24d2 05       		.uleb128 0x5
 9061 24d3 03       		.byte	0x3
 9062 24d4 00000000 		.4byte	tcp_listen_pcbs
ARM GAS  C:\Users\Phuong\AppData\Local\Temp\cczg95Bp.s 			page 207


 9063 24d8 3E       		.uleb128 0x3e
 9064 24d9 FB060000 		.4byte	.LASF318
 9065 24dd 01       		.byte	0x1
 9066 24de 7C       		.byte	0x7c
 9067 24df 9E070000 		.4byte	0x79e
 9068 24e3 05       		.uleb128 0x5
 9069 24e4 03       		.byte	0x3
 9070 24e5 00000000 		.4byte	tcp_active_pcbs
 9071 24e9 3E       		.uleb128 0x3e
 9072 24ea 57000000 		.4byte	.LASF319
 9073 24ee 01       		.byte	0x1
 9074 24ef 7E       		.byte	0x7e
 9075 24f0 9E070000 		.4byte	0x79e
 9076 24f4 05       		.uleb128 0x5
 9077 24f5 03       		.byte	0x3
 9078 24f6 00000000 		.4byte	tcp_tw_pcbs
 9079 24fa 08       		.uleb128 0x8
 9080 24fb 0A250000 		.4byte	0x250a
 9081 24ff 0A250000 		.4byte	0x250a
 9082 2503 09       		.uleb128 0x9
 9083 2504 8A000000 		.4byte	0x8a
 9084 2508 03       		.byte	0x3
 9085 2509 00       		.byte	0
 9086 250a 07       		.uleb128 0x7
 9087 250b 30170000 		.4byte	0x1730
 9088 250f 3E       		.uleb128 0x3e
 9089 2510 30010000 		.4byte	.LASF320
 9090 2514 01       		.byte	0x1
 9091 2515 81       		.byte	0x81
 9092 2516 20250000 		.4byte	0x2520
 9093 251a 05       		.uleb128 0x5
 9094 251b 03       		.byte	0x3
 9095 251c 00000000 		.4byte	tcp_pcb_lists
 9096 2520 07       		.uleb128 0x7
 9097 2521 FA240000 		.4byte	0x24fa
 9098 2525 3F       		.uleb128 0x3f
 9099 2526 D6080000 		.4byte	.LASF321
 9100 252a D6080000 		.4byte	.LASF321
 9101 252e 11       		.byte	0x11
 9102 252f 36       		.byte	0x36
 9103 2530 40       		.uleb128 0x40
 9104 2531 5D0A0000 		.4byte	.LASF322
 9105 2535 5D0A0000 		.4byte	.LASF322
 9106 2539 0F       		.byte	0xf
 9107 253a C101     		.2byte	0x1c1
 9108 253c 40       		.uleb128 0x40
 9109 253d B7060000 		.4byte	.LASF323
 9110 2541 B7060000 		.4byte	.LASF323
 9111 2545 0E       		.byte	0xe
 9112 2546 A301     		.2byte	0x1a3
 9113 2548 40       		.uleb128 0x40
 9114 2549 2D0A0000 		.4byte	.LASF324
 9115 254d 2D0A0000 		.4byte	.LASF324
 9116 2551 0F       		.byte	0xf
 9117 2552 F101     		.2byte	0x1f1
 9118 2554 3F       		.uleb128 0x3f
 9119 2555 130C0000 		.4byte	.LASF325
ARM GAS  C:\Users\Phuong\AppData\Local\Temp\cczg95Bp.s 			page 208


 9120 2559 130C0000 		.4byte	.LASF325
 9121 255d 09       		.byte	0x9
 9122 255e 90       		.byte	0x90
 9123 255f 3F       		.uleb128 0x3f
 9124 2560 DB0E0000 		.4byte	.LASF326
 9125 2564 DB0E0000 		.4byte	.LASF326
 9126 2568 09       		.byte	0x9
 9127 2569 95       		.byte	0x95
 9128 256a 3F       		.uleb128 0x3f
 9129 256b 17080000 		.4byte	.LASF327
 9130 256f 17080000 		.4byte	.LASF327
 9131 2573 0A       		.byte	0xa
 9132 2574 E9       		.byte	0xe9
 9133 2575 41       		.uleb128 0x41
 9134 2576 3B0F0000 		.4byte	.LASF334
 9135 257a 3B0F0000 		.4byte	.LASF334
 9136 257e 3F       		.uleb128 0x3f
 9137 257f 5F0C0000 		.4byte	.LASF328
 9138 2583 5F0C0000 		.4byte	.LASF328
 9139 2587 0A       		.byte	0xa
 9140 2588 E8       		.byte	0xe8
 9141 2589 40       		.uleb128 0x40
 9142 258a 3E010000 		.4byte	.LASF329
 9143 258e 3E010000 		.4byte	.LASF329
 9144 2592 0F       		.byte	0xf
 9145 2593 CD01     		.2byte	0x1cd
 9146 2595 40       		.uleb128 0x40
 9147 2596 B70A0000 		.4byte	.LASF330
 9148 259a B70A0000 		.4byte	.LASF330
 9149 259e 0F       		.byte	0xf
 9150 259f C601     		.2byte	0x1c6
 9151 25a1 3F       		.uleb128 0x3f
 9152 25a2 160E0000 		.4byte	.LASF331
 9153 25a6 160E0000 		.4byte	.LASF331
 9154 25aa 0F       		.byte	0xf
 9155 25ab 53       		.byte	0x53
 9156 25ac 40       		.uleb128 0x40
 9157 25ad 43000000 		.4byte	.LASF332
 9158 25b1 43000000 		.4byte	.LASF332
 9159 25b5 0F       		.byte	0xf
 9160 25b6 CC01     		.2byte	0x1cc
 9161 25b8 40       		.uleb128 0x40
 9162 25b9 8F010000 		.4byte	.LASF333
 9163 25bd 8F010000 		.4byte	.LASF333
 9164 25c1 0F       		.byte	0xf
 9165 25c2 CE01     		.2byte	0x1ce
 9166 25c4 41       		.uleb128 0x41
 9167 25c5 20090000 		.4byte	.LASF335
 9168 25c9 20090000 		.4byte	.LASF335
 9169 25cd 3F       		.uleb128 0x3f
 9170 25ce C2060000 		.4byte	.LASF336
 9171 25d2 C2060000 		.4byte	.LASF336
 9172 25d6 12       		.byte	0x12
 9173 25d7 41       		.byte	0x41
 9174 25d8 40       		.uleb128 0x40
 9175 25d9 DA010000 		.4byte	.LASF337
 9176 25dd DA010000 		.4byte	.LASF337
ARM GAS  C:\Users\Phuong\AppData\Local\Temp\cczg95Bp.s 			page 209


 9177 25e1 0F       		.byte	0xf
 9178 25e2 C201     		.2byte	0x1c2
 9179 25e4 00       		.byte	0
 9180              		.section	.debug_abbrev,"",%progbits
 9181              	.Ldebug_abbrev0:
 9182 0000 01       		.uleb128 0x1
 9183 0001 11       		.uleb128 0x11
 9184 0002 01       		.byte	0x1
 9185 0003 25       		.uleb128 0x25
 9186 0004 0E       		.uleb128 0xe
 9187 0005 13       		.uleb128 0x13
 9188 0006 0B       		.uleb128 0xb
 9189 0007 03       		.uleb128 0x3
 9190 0008 0E       		.uleb128 0xe
 9191 0009 1B       		.uleb128 0x1b
 9192 000a 0E       		.uleb128 0xe
 9193 000b 55       		.uleb128 0x55
 9194 000c 17       		.uleb128 0x17
 9195 000d 11       		.uleb128 0x11
 9196 000e 01       		.uleb128 0x1
 9197 000f 10       		.uleb128 0x10
 9198 0010 17       		.uleb128 0x17
 9199 0011 00       		.byte	0
 9200 0012 00       		.byte	0
 9201 0013 02       		.uleb128 0x2
 9202 0014 24       		.uleb128 0x24
 9203 0015 00       		.byte	0
 9204 0016 0B       		.uleb128 0xb
 9205 0017 0B       		.uleb128 0xb
 9206 0018 3E       		.uleb128 0x3e
 9207 0019 0B       		.uleb128 0xb
 9208 001a 03       		.uleb128 0x3
 9209 001b 0E       		.uleb128 0xe
 9210 001c 00       		.byte	0
 9211 001d 00       		.byte	0
 9212 001e 03       		.uleb128 0x3
 9213 001f 16       		.uleb128 0x16
 9214 0020 00       		.byte	0
 9215 0021 03       		.uleb128 0x3
 9216 0022 0E       		.uleb128 0xe
 9217 0023 3A       		.uleb128 0x3a
 9218 0024 0B       		.uleb128 0xb
 9219 0025 3B       		.uleb128 0x3b
 9220 0026 0B       		.uleb128 0xb
 9221 0027 49       		.uleb128 0x49
 9222 0028 13       		.uleb128 0x13
 9223 0029 00       		.byte	0
 9224 002a 00       		.byte	0
 9225 002b 04       		.uleb128 0x4
 9226 002c 24       		.uleb128 0x24
 9227 002d 00       		.byte	0
 9228 002e 0B       		.uleb128 0xb
 9229 002f 0B       		.uleb128 0xb
 9230 0030 3E       		.uleb128 0x3e
 9231 0031 0B       		.uleb128 0xb
 9232 0032 03       		.uleb128 0x3
 9233 0033 08       		.uleb128 0x8
ARM GAS  C:\Users\Phuong\AppData\Local\Temp\cczg95Bp.s 			page 210


 9234 0034 00       		.byte	0
 9235 0035 00       		.byte	0
 9236 0036 05       		.uleb128 0x5
 9237 0037 0F       		.uleb128 0xf
 9238 0038 00       		.byte	0
 9239 0039 0B       		.uleb128 0xb
 9240 003a 0B       		.uleb128 0xb
 9241 003b 00       		.byte	0
 9242 003c 00       		.byte	0
 9243 003d 06       		.uleb128 0x6
 9244 003e 0F       		.uleb128 0xf
 9245 003f 00       		.byte	0
 9246 0040 0B       		.uleb128 0xb
 9247 0041 0B       		.uleb128 0xb
 9248 0042 49       		.uleb128 0x49
 9249 0043 13       		.uleb128 0x13
 9250 0044 00       		.byte	0
 9251 0045 00       		.byte	0
 9252 0046 07       		.uleb128 0x7
 9253 0047 26       		.uleb128 0x26
 9254 0048 00       		.byte	0
 9255 0049 49       		.uleb128 0x49
 9256 004a 13       		.uleb128 0x13
 9257 004b 00       		.byte	0
 9258 004c 00       		.byte	0
 9259 004d 08       		.uleb128 0x8
 9260 004e 01       		.uleb128 0x1
 9261 004f 01       		.byte	0x1
 9262 0050 49       		.uleb128 0x49
 9263 0051 13       		.uleb128 0x13
 9264 0052 01       		.uleb128 0x1
 9265 0053 13       		.uleb128 0x13
 9266 0054 00       		.byte	0
 9267 0055 00       		.byte	0
 9268 0056 09       		.uleb128 0x9
 9269 0057 21       		.uleb128 0x21
 9270 0058 00       		.byte	0
 9271 0059 49       		.uleb128 0x49
 9272 005a 13       		.uleb128 0x13
 9273 005b 2F       		.uleb128 0x2f
 9274 005c 0B       		.uleb128 0xb
 9275 005d 00       		.byte	0
 9276 005e 00       		.byte	0
 9277 005f 0A       		.uleb128 0xa
 9278 0060 04       		.uleb128 0x4
 9279 0061 01       		.byte	0x1
 9280 0062 0B       		.uleb128 0xb
 9281 0063 0B       		.uleb128 0xb
 9282 0064 49       		.uleb128 0x49
 9283 0065 13       		.uleb128 0x13
 9284 0066 3A       		.uleb128 0x3a
 9285 0067 0B       		.uleb128 0xb
 9286 0068 3B       		.uleb128 0x3b
 9287 0069 0B       		.uleb128 0xb
 9288 006a 01       		.uleb128 0x1
 9289 006b 13       		.uleb128 0x13
 9290 006c 00       		.byte	0
ARM GAS  C:\Users\Phuong\AppData\Local\Temp\cczg95Bp.s 			page 211


 9291 006d 00       		.byte	0
 9292 006e 0B       		.uleb128 0xb
 9293 006f 28       		.uleb128 0x28
 9294 0070 00       		.byte	0
 9295 0071 03       		.uleb128 0x3
 9296 0072 0E       		.uleb128 0xe
 9297 0073 1C       		.uleb128 0x1c
 9298 0074 0B       		.uleb128 0xb
 9299 0075 00       		.byte	0
 9300 0076 00       		.byte	0
 9301 0077 0C       		.uleb128 0xc
 9302 0078 13       		.uleb128 0x13
 9303 0079 01       		.byte	0x1
 9304 007a 03       		.uleb128 0x3
 9305 007b 0E       		.uleb128 0xe
 9306 007c 0B       		.uleb128 0xb
 9307 007d 0B       		.uleb128 0xb
 9308 007e 3A       		.uleb128 0x3a
 9309 007f 0B       		.uleb128 0xb
 9310 0080 3B       		.uleb128 0x3b
 9311 0081 0B       		.uleb128 0xb
 9312 0082 01       		.uleb128 0x1
 9313 0083 13       		.uleb128 0x13
 9314 0084 00       		.byte	0
 9315 0085 00       		.byte	0
 9316 0086 0D       		.uleb128 0xd
 9317 0087 0D       		.uleb128 0xd
 9318 0088 00       		.byte	0
 9319 0089 03       		.uleb128 0x3
 9320 008a 0E       		.uleb128 0xe
 9321 008b 3A       		.uleb128 0x3a
 9322 008c 0B       		.uleb128 0xb
 9323 008d 3B       		.uleb128 0x3b
 9324 008e 0B       		.uleb128 0xb
 9325 008f 49       		.uleb128 0x49
 9326 0090 13       		.uleb128 0x13
 9327 0091 38       		.uleb128 0x38
 9328 0092 0B       		.uleb128 0xb
 9329 0093 00       		.byte	0
 9330 0094 00       		.byte	0
 9331 0095 0E       		.uleb128 0xe
 9332 0096 0D       		.uleb128 0xd
 9333 0097 00       		.byte	0
 9334 0098 03       		.uleb128 0x3
 9335 0099 08       		.uleb128 0x8
 9336 009a 3A       		.uleb128 0x3a
 9337 009b 0B       		.uleb128 0xb
 9338 009c 3B       		.uleb128 0x3b
 9339 009d 0B       		.uleb128 0xb
 9340 009e 49       		.uleb128 0x49
 9341 009f 13       		.uleb128 0x13
 9342 00a0 38       		.uleb128 0x38
 9343 00a1 0B       		.uleb128 0xb
 9344 00a2 00       		.byte	0
 9345 00a3 00       		.byte	0
 9346 00a4 0F       		.uleb128 0xf
 9347 00a5 13       		.uleb128 0x13
ARM GAS  C:\Users\Phuong\AppData\Local\Temp\cczg95Bp.s 			page 212


 9348 00a6 01       		.byte	0x1
 9349 00a7 03       		.uleb128 0x3
 9350 00a8 0E       		.uleb128 0xe
 9351 00a9 0B       		.uleb128 0xb
 9352 00aa 05       		.uleb128 0x5
 9353 00ab 3A       		.uleb128 0x3a
 9354 00ac 0B       		.uleb128 0xb
 9355 00ad 3B       		.uleb128 0x3b
 9356 00ae 0B       		.uleb128 0xb
 9357 00af 01       		.uleb128 0x1
 9358 00b0 13       		.uleb128 0x13
 9359 00b1 00       		.byte	0
 9360 00b2 00       		.byte	0
 9361 00b3 10       		.uleb128 0x10
 9362 00b4 0D       		.uleb128 0xd
 9363 00b5 00       		.byte	0
 9364 00b6 03       		.uleb128 0x3
 9365 00b7 08       		.uleb128 0x8
 9366 00b8 3A       		.uleb128 0x3a
 9367 00b9 0B       		.uleb128 0xb
 9368 00ba 3B       		.uleb128 0x3b
 9369 00bb 05       		.uleb128 0x5
 9370 00bc 49       		.uleb128 0x49
 9371 00bd 13       		.uleb128 0x13
 9372 00be 38       		.uleb128 0x38
 9373 00bf 0B       		.uleb128 0xb
 9374 00c0 00       		.byte	0
 9375 00c1 00       		.byte	0
 9376 00c2 11       		.uleb128 0x11
 9377 00c3 0D       		.uleb128 0xd
 9378 00c4 00       		.byte	0
 9379 00c5 03       		.uleb128 0x3
 9380 00c6 0E       		.uleb128 0xe
 9381 00c7 3A       		.uleb128 0x3a
 9382 00c8 0B       		.uleb128 0xb
 9383 00c9 3B       		.uleb128 0x3b
 9384 00ca 05       		.uleb128 0x5
 9385 00cb 49       		.uleb128 0x49
 9386 00cc 13       		.uleb128 0x13
 9387 00cd 38       		.uleb128 0x38
 9388 00ce 0B       		.uleb128 0xb
 9389 00cf 00       		.byte	0
 9390 00d0 00       		.byte	0
 9391 00d1 12       		.uleb128 0x12
 9392 00d2 0D       		.uleb128 0xd
 9393 00d3 00       		.byte	0
 9394 00d4 03       		.uleb128 0x3
 9395 00d5 08       		.uleb128 0x8
 9396 00d6 3A       		.uleb128 0x3a
 9397 00d7 0B       		.uleb128 0xb
 9398 00d8 3B       		.uleb128 0x3b
 9399 00d9 05       		.uleb128 0x5
 9400 00da 49       		.uleb128 0x49
 9401 00db 13       		.uleb128 0x13
 9402 00dc 38       		.uleb128 0x38
 9403 00dd 05       		.uleb128 0x5
 9404 00de 00       		.byte	0
ARM GAS  C:\Users\Phuong\AppData\Local\Temp\cczg95Bp.s 			page 213


 9405 00df 00       		.byte	0
 9406 00e0 13       		.uleb128 0x13
 9407 00e1 28       		.uleb128 0x28
 9408 00e2 00       		.byte	0
 9409 00e3 03       		.uleb128 0x3
 9410 00e4 0E       		.uleb128 0xe
 9411 00e5 1C       		.uleb128 0x1c
 9412 00e6 0D       		.uleb128 0xd
 9413 00e7 00       		.byte	0
 9414 00e8 00       		.byte	0
 9415 00e9 14       		.uleb128 0x14
 9416 00ea 04       		.uleb128 0x4
 9417 00eb 01       		.byte	0x1
 9418 00ec 03       		.uleb128 0x3
 9419 00ed 0E       		.uleb128 0xe
 9420 00ee 0B       		.uleb128 0xb
 9421 00ef 0B       		.uleb128 0xb
 9422 00f0 49       		.uleb128 0x49
 9423 00f1 13       		.uleb128 0x13
 9424 00f2 3A       		.uleb128 0x3a
 9425 00f3 0B       		.uleb128 0xb
 9426 00f4 3B       		.uleb128 0x3b
 9427 00f5 0B       		.uleb128 0xb
 9428 00f6 01       		.uleb128 0x1
 9429 00f7 13       		.uleb128 0x13
 9430 00f8 00       		.byte	0
 9431 00f9 00       		.byte	0
 9432 00fa 15       		.uleb128 0x15
 9433 00fb 15       		.uleb128 0x15
 9434 00fc 01       		.byte	0x1
 9435 00fd 27       		.uleb128 0x27
 9436 00fe 19       		.uleb128 0x19
 9437 00ff 49       		.uleb128 0x49
 9438 0100 13       		.uleb128 0x13
 9439 0101 01       		.uleb128 0x1
 9440 0102 13       		.uleb128 0x13
 9441 0103 00       		.byte	0
 9442 0104 00       		.byte	0
 9443 0105 16       		.uleb128 0x16
 9444 0106 05       		.uleb128 0x5
 9445 0107 00       		.byte	0
 9446 0108 49       		.uleb128 0x49
 9447 0109 13       		.uleb128 0x13
 9448 010a 00       		.byte	0
 9449 010b 00       		.byte	0
 9450 010c 17       		.uleb128 0x17
 9451 010d 15       		.uleb128 0x15
 9452 010e 01       		.byte	0x1
 9453 010f 27       		.uleb128 0x27
 9454 0110 19       		.uleb128 0x19
 9455 0111 01       		.uleb128 0x1
 9456 0112 13       		.uleb128 0x13
 9457 0113 00       		.byte	0
 9458 0114 00       		.byte	0
 9459 0115 18       		.uleb128 0x18
 9460 0116 17       		.uleb128 0x17
 9461 0117 01       		.byte	0x1
ARM GAS  C:\Users\Phuong\AppData\Local\Temp\cczg95Bp.s 			page 214


 9462 0118 03       		.uleb128 0x3
 9463 0119 0E       		.uleb128 0xe
 9464 011a 0B       		.uleb128 0xb
 9465 011b 0B       		.uleb128 0xb
 9466 011c 3A       		.uleb128 0x3a
 9467 011d 0B       		.uleb128 0xb
 9468 011e 3B       		.uleb128 0x3b
 9469 011f 05       		.uleb128 0x5
 9470 0120 01       		.uleb128 0x1
 9471 0121 13       		.uleb128 0x13
 9472 0122 00       		.byte	0
 9473 0123 00       		.byte	0
 9474 0124 19       		.uleb128 0x19
 9475 0125 0D       		.uleb128 0xd
 9476 0126 00       		.byte	0
 9477 0127 03       		.uleb128 0x3
 9478 0128 0E       		.uleb128 0xe
 9479 0129 3A       		.uleb128 0x3a
 9480 012a 0B       		.uleb128 0xb
 9481 012b 3B       		.uleb128 0x3b
 9482 012c 05       		.uleb128 0x5
 9483 012d 49       		.uleb128 0x49
 9484 012e 13       		.uleb128 0x13
 9485 012f 00       		.byte	0
 9486 0130 00       		.byte	0
 9487 0131 1A       		.uleb128 0x1a
 9488 0132 2E       		.uleb128 0x2e
 9489 0133 01       		.byte	0x1
 9490 0134 03       		.uleb128 0x3
 9491 0135 0E       		.uleb128 0xe
 9492 0136 3A       		.uleb128 0x3a
 9493 0137 0B       		.uleb128 0xb
 9494 0138 3B       		.uleb128 0x3b
 9495 0139 0B       		.uleb128 0xb
 9496 013a 27       		.uleb128 0x27
 9497 013b 19       		.uleb128 0x19
 9498 013c 11       		.uleb128 0x11
 9499 013d 01       		.uleb128 0x1
 9500 013e 12       		.uleb128 0x12
 9501 013f 06       		.uleb128 0x6
 9502 0140 40       		.uleb128 0x40
 9503 0141 18       		.uleb128 0x18
 9504 0142 9742     		.uleb128 0x2117
 9505 0144 19       		.uleb128 0x19
 9506 0145 01       		.uleb128 0x1
 9507 0146 13       		.uleb128 0x13
 9508 0147 00       		.byte	0
 9509 0148 00       		.byte	0
 9510 0149 1B       		.uleb128 0x1b
 9511 014a 05       		.uleb128 0x5
 9512 014b 00       		.byte	0
 9513 014c 03       		.uleb128 0x3
 9514 014d 0E       		.uleb128 0xe
 9515 014e 3A       		.uleb128 0x3a
 9516 014f 0B       		.uleb128 0xb
 9517 0150 3B       		.uleb128 0x3b
 9518 0151 0B       		.uleb128 0xb
ARM GAS  C:\Users\Phuong\AppData\Local\Temp\cczg95Bp.s 			page 215


 9519 0152 49       		.uleb128 0x49
 9520 0153 13       		.uleb128 0x13
 9521 0154 02       		.uleb128 0x2
 9522 0155 17       		.uleb128 0x17
 9523 0156 00       		.byte	0
 9524 0157 00       		.byte	0
 9525 0158 1C       		.uleb128 0x1c
 9526 0159 05       		.uleb128 0x5
 9527 015a 00       		.byte	0
 9528 015b 03       		.uleb128 0x3
 9529 015c 0E       		.uleb128 0xe
 9530 015d 3A       		.uleb128 0x3a
 9531 015e 0B       		.uleb128 0xb
 9532 015f 3B       		.uleb128 0x3b
 9533 0160 0B       		.uleb128 0xb
 9534 0161 49       		.uleb128 0x49
 9535 0162 13       		.uleb128 0x13
 9536 0163 02       		.uleb128 0x2
 9537 0164 18       		.uleb128 0x18
 9538 0165 00       		.byte	0
 9539 0166 00       		.byte	0
 9540 0167 1D       		.uleb128 0x1d
 9541 0168 34       		.uleb128 0x34
 9542 0169 00       		.byte	0
 9543 016a 03       		.uleb128 0x3
 9544 016b 08       		.uleb128 0x8
 9545 016c 3A       		.uleb128 0x3a
 9546 016d 0B       		.uleb128 0xb
 9547 016e 3B       		.uleb128 0x3b
 9548 016f 0B       		.uleb128 0xb
 9549 0170 49       		.uleb128 0x49
 9550 0171 13       		.uleb128 0x13
 9551 0172 02       		.uleb128 0x2
 9552 0173 18       		.uleb128 0x18
 9553 0174 00       		.byte	0
 9554 0175 00       		.byte	0
 9555 0176 1E       		.uleb128 0x1e
 9556 0177 05       		.uleb128 0x5
 9557 0178 00       		.byte	0
 9558 0179 03       		.uleb128 0x3
 9559 017a 08       		.uleb128 0x8
 9560 017b 3A       		.uleb128 0x3a
 9561 017c 0B       		.uleb128 0xb
 9562 017d 3B       		.uleb128 0x3b
 9563 017e 0B       		.uleb128 0xb
 9564 017f 49       		.uleb128 0x49
 9565 0180 13       		.uleb128 0x13
 9566 0181 02       		.uleb128 0x2
 9567 0182 17       		.uleb128 0x17
 9568 0183 00       		.byte	0
 9569 0184 00       		.byte	0
 9570 0185 1F       		.uleb128 0x1f
 9571 0186 34       		.uleb128 0x34
 9572 0187 00       		.byte	0
 9573 0188 03       		.uleb128 0x3
 9574 0189 08       		.uleb128 0x8
 9575 018a 3A       		.uleb128 0x3a
ARM GAS  C:\Users\Phuong\AppData\Local\Temp\cczg95Bp.s 			page 216


 9576 018b 0B       		.uleb128 0xb
 9577 018c 3B       		.uleb128 0x3b
 9578 018d 0B       		.uleb128 0xb
 9579 018e 49       		.uleb128 0x49
 9580 018f 13       		.uleb128 0x13
 9581 0190 02       		.uleb128 0x2
 9582 0191 17       		.uleb128 0x17
 9583 0192 00       		.byte	0
 9584 0193 00       		.byte	0
 9585 0194 20       		.uleb128 0x20
 9586 0195 898201   		.uleb128 0x4109
 9587 0198 01       		.byte	0x1
 9588 0199 11       		.uleb128 0x11
 9589 019a 01       		.uleb128 0x1
 9590 019b 31       		.uleb128 0x31
 9591 019c 13       		.uleb128 0x13
 9592 019d 00       		.byte	0
 9593 019e 00       		.byte	0
 9594 019f 21       		.uleb128 0x21
 9595 01a0 8A8201   		.uleb128 0x410a
 9596 01a3 00       		.byte	0
 9597 01a4 02       		.uleb128 0x2
 9598 01a5 18       		.uleb128 0x18
 9599 01a6 9142     		.uleb128 0x2111
 9600 01a8 18       		.uleb128 0x18
 9601 01a9 00       		.byte	0
 9602 01aa 00       		.byte	0
 9603 01ab 22       		.uleb128 0x22
 9604 01ac 2E       		.uleb128 0x2e
 9605 01ad 01       		.byte	0x1
 9606 01ae 03       		.uleb128 0x3
 9607 01af 0E       		.uleb128 0xe
 9608 01b0 3A       		.uleb128 0x3a
 9609 01b1 0B       		.uleb128 0xb
 9610 01b2 3B       		.uleb128 0x3b
 9611 01b3 05       		.uleb128 0x5
 9612 01b4 27       		.uleb128 0x27
 9613 01b5 19       		.uleb128 0x19
 9614 01b6 49       		.uleb128 0x49
 9615 01b7 13       		.uleb128 0x13
 9616 01b8 11       		.uleb128 0x11
 9617 01b9 01       		.uleb128 0x1
 9618 01ba 12       		.uleb128 0x12
 9619 01bb 06       		.uleb128 0x6
 9620 01bc 40       		.uleb128 0x40
 9621 01bd 18       		.uleb128 0x18
 9622 01be 9742     		.uleb128 0x2117
 9623 01c0 19       		.uleb128 0x19
 9624 01c1 01       		.uleb128 0x1
 9625 01c2 13       		.uleb128 0x13
 9626 01c3 00       		.byte	0
 9627 01c4 00       		.byte	0
 9628 01c5 23       		.uleb128 0x23
 9629 01c6 34       		.uleb128 0x34
 9630 01c7 00       		.byte	0
 9631 01c8 03       		.uleb128 0x3
 9632 01c9 08       		.uleb128 0x8
ARM GAS  C:\Users\Phuong\AppData\Local\Temp\cczg95Bp.s 			page 217


 9633 01ca 3A       		.uleb128 0x3a
 9634 01cb 0B       		.uleb128 0xb
 9635 01cc 3B       		.uleb128 0x3b
 9636 01cd 05       		.uleb128 0x5
 9637 01ce 49       		.uleb128 0x49
 9638 01cf 13       		.uleb128 0x13
 9639 01d0 02       		.uleb128 0x2
 9640 01d1 17       		.uleb128 0x17
 9641 01d2 00       		.byte	0
 9642 01d3 00       		.byte	0
 9643 01d4 24       		.uleb128 0x24
 9644 01d5 0A       		.uleb128 0xa
 9645 01d6 00       		.byte	0
 9646 01d7 03       		.uleb128 0x3
 9647 01d8 0E       		.uleb128 0xe
 9648 01d9 3A       		.uleb128 0x3a
 9649 01da 0B       		.uleb128 0xb
 9650 01db 3B       		.uleb128 0x3b
 9651 01dc 05       		.uleb128 0x5
 9652 01dd 11       		.uleb128 0x11
 9653 01de 01       		.uleb128 0x1
 9654 01df 00       		.byte	0
 9655 01e0 00       		.byte	0
 9656 01e1 25       		.uleb128 0x25
 9657 01e2 2E       		.uleb128 0x2e
 9658 01e3 01       		.byte	0x1
 9659 01e4 3F       		.uleb128 0x3f
 9660 01e5 19       		.uleb128 0x19
 9661 01e6 03       		.uleb128 0x3
 9662 01e7 0E       		.uleb128 0xe
 9663 01e8 3A       		.uleb128 0x3a
 9664 01e9 0B       		.uleb128 0xb
 9665 01ea 3B       		.uleb128 0x3b
 9666 01eb 0B       		.uleb128 0xb
 9667 01ec 27       		.uleb128 0x27
 9668 01ed 19       		.uleb128 0x19
 9669 01ee 11       		.uleb128 0x11
 9670 01ef 01       		.uleb128 0x1
 9671 01f0 12       		.uleb128 0x12
 9672 01f1 06       		.uleb128 0x6
 9673 01f2 40       		.uleb128 0x40
 9674 01f3 18       		.uleb128 0x18
 9675 01f4 9742     		.uleb128 0x2117
 9676 01f6 19       		.uleb128 0x19
 9677 01f7 01       		.uleb128 0x1
 9678 01f8 13       		.uleb128 0x13
 9679 01f9 00       		.byte	0
 9680 01fa 00       		.byte	0
 9681 01fb 26       		.uleb128 0x26
 9682 01fc 898201   		.uleb128 0x4109
 9683 01ff 00       		.byte	0
 9684 0200 11       		.uleb128 0x11
 9685 0201 01       		.uleb128 0x1
 9686 0202 31       		.uleb128 0x31
 9687 0203 13       		.uleb128 0x13
 9688 0204 00       		.byte	0
 9689 0205 00       		.byte	0
ARM GAS  C:\Users\Phuong\AppData\Local\Temp\cczg95Bp.s 			page 218


 9690 0206 27       		.uleb128 0x27
 9691 0207 05       		.uleb128 0x5
 9692 0208 00       		.byte	0
 9693 0209 03       		.uleb128 0x3
 9694 020a 08       		.uleb128 0x8
 9695 020b 3A       		.uleb128 0x3a
 9696 020c 0B       		.uleb128 0xb
 9697 020d 3B       		.uleb128 0x3b
 9698 020e 0B       		.uleb128 0xb
 9699 020f 49       		.uleb128 0x49
 9700 0210 13       		.uleb128 0x13
 9701 0211 02       		.uleb128 0x2
 9702 0212 18       		.uleb128 0x18
 9703 0213 00       		.byte	0
 9704 0214 00       		.byte	0
 9705 0215 28       		.uleb128 0x28
 9706 0216 05       		.uleb128 0x5
 9707 0217 00       		.byte	0
 9708 0218 03       		.uleb128 0x3
 9709 0219 08       		.uleb128 0x8
 9710 021a 3A       		.uleb128 0x3a
 9711 021b 0B       		.uleb128 0xb
 9712 021c 3B       		.uleb128 0x3b
 9713 021d 05       		.uleb128 0x5
 9714 021e 49       		.uleb128 0x49
 9715 021f 13       		.uleb128 0x13
 9716 0220 02       		.uleb128 0x2
 9717 0221 17       		.uleb128 0x17
 9718 0222 00       		.byte	0
 9719 0223 00       		.byte	0
 9720 0224 29       		.uleb128 0x29
 9721 0225 898201   		.uleb128 0x4109
 9722 0228 01       		.byte	0x1
 9723 0229 11       		.uleb128 0x11
 9724 022a 01       		.uleb128 0x1
 9725 022b 31       		.uleb128 0x31
 9726 022c 13       		.uleb128 0x13
 9727 022d 01       		.uleb128 0x1
 9728 022e 13       		.uleb128 0x13
 9729 022f 00       		.byte	0
 9730 0230 00       		.byte	0
 9731 0231 2A       		.uleb128 0x2a
 9732 0232 2E       		.uleb128 0x2e
 9733 0233 01       		.byte	0x1
 9734 0234 3F       		.uleb128 0x3f
 9735 0235 19       		.uleb128 0x19
 9736 0236 03       		.uleb128 0x3
 9737 0237 0E       		.uleb128 0xe
 9738 0238 3A       		.uleb128 0x3a
 9739 0239 0B       		.uleb128 0xb
 9740 023a 3B       		.uleb128 0x3b
 9741 023b 05       		.uleb128 0x5
 9742 023c 27       		.uleb128 0x27
 9743 023d 19       		.uleb128 0x19
 9744 023e 49       		.uleb128 0x49
 9745 023f 13       		.uleb128 0x13
 9746 0240 11       		.uleb128 0x11
ARM GAS  C:\Users\Phuong\AppData\Local\Temp\cczg95Bp.s 			page 219


 9747 0241 01       		.uleb128 0x1
 9748 0242 12       		.uleb128 0x12
 9749 0243 06       		.uleb128 0x6
 9750 0244 40       		.uleb128 0x40
 9751 0245 18       		.uleb128 0x18
 9752 0246 9742     		.uleb128 0x2117
 9753 0248 19       		.uleb128 0x19
 9754 0249 01       		.uleb128 0x1
 9755 024a 13       		.uleb128 0x13
 9756 024b 00       		.byte	0
 9757 024c 00       		.byte	0
 9758 024d 2B       		.uleb128 0x2b
 9759 024e 05       		.uleb128 0x5
 9760 024f 00       		.byte	0
 9761 0250 03       		.uleb128 0x3
 9762 0251 0E       		.uleb128 0xe
 9763 0252 3A       		.uleb128 0x3a
 9764 0253 0B       		.uleb128 0xb
 9765 0254 3B       		.uleb128 0x3b
 9766 0255 05       		.uleb128 0x5
 9767 0256 49       		.uleb128 0x49
 9768 0257 13       		.uleb128 0x13
 9769 0258 02       		.uleb128 0x2
 9770 0259 17       		.uleb128 0x17
 9771 025a 00       		.byte	0
 9772 025b 00       		.byte	0
 9773 025c 2C       		.uleb128 0x2c
 9774 025d 34       		.uleb128 0x34
 9775 025e 00       		.byte	0
 9776 025f 03       		.uleb128 0x3
 9777 0260 0E       		.uleb128 0xe
 9778 0261 3A       		.uleb128 0x3a
 9779 0262 0B       		.uleb128 0xb
 9780 0263 3B       		.uleb128 0x3b
 9781 0264 05       		.uleb128 0x5
 9782 0265 49       		.uleb128 0x49
 9783 0266 13       		.uleb128 0x13
 9784 0267 02       		.uleb128 0x2
 9785 0268 17       		.uleb128 0x17
 9786 0269 00       		.byte	0
 9787 026a 00       		.byte	0
 9788 026b 2D       		.uleb128 0x2d
 9789 026c 0B       		.uleb128 0xb
 9790 026d 01       		.byte	0x1
 9791 026e 11       		.uleb128 0x11
 9792 026f 01       		.uleb128 0x1
 9793 0270 12       		.uleb128 0x12
 9794 0271 06       		.uleb128 0x6
 9795 0272 01       		.uleb128 0x1
 9796 0273 13       		.uleb128 0x13
 9797 0274 00       		.byte	0
 9798 0275 00       		.byte	0
 9799 0276 2E       		.uleb128 0x2e
 9800 0277 34       		.uleb128 0x34
 9801 0278 00       		.byte	0
 9802 0279 03       		.uleb128 0x3
 9803 027a 0E       		.uleb128 0xe
ARM GAS  C:\Users\Phuong\AppData\Local\Temp\cczg95Bp.s 			page 220


 9804 027b 3A       		.uleb128 0x3a
 9805 027c 0B       		.uleb128 0xb
 9806 027d 3B       		.uleb128 0x3b
 9807 027e 05       		.uleb128 0x5
 9808 027f 49       		.uleb128 0x49
 9809 0280 13       		.uleb128 0x13
 9810 0281 02       		.uleb128 0x2
 9811 0282 18       		.uleb128 0x18
 9812 0283 00       		.byte	0
 9813 0284 00       		.byte	0
 9814 0285 2F       		.uleb128 0x2f
 9815 0286 0B       		.uleb128 0xb
 9816 0287 01       		.byte	0x1
 9817 0288 11       		.uleb128 0x11
 9818 0289 01       		.uleb128 0x1
 9819 028a 12       		.uleb128 0x12
 9820 028b 06       		.uleb128 0x6
 9821 028c 00       		.byte	0
 9822 028d 00       		.byte	0
 9823 028e 30       		.uleb128 0x30
 9824 028f 2E       		.uleb128 0x2e
 9825 0290 01       		.byte	0x1
 9826 0291 3F       		.uleb128 0x3f
 9827 0292 19       		.uleb128 0x19
 9828 0293 03       		.uleb128 0x3
 9829 0294 0E       		.uleb128 0xe
 9830 0295 3A       		.uleb128 0x3a
 9831 0296 0B       		.uleb128 0xb
 9832 0297 3B       		.uleb128 0x3b
 9833 0298 05       		.uleb128 0x5
 9834 0299 27       		.uleb128 0x27
 9835 029a 19       		.uleb128 0x19
 9836 029b 11       		.uleb128 0x11
 9837 029c 01       		.uleb128 0x1
 9838 029d 12       		.uleb128 0x12
 9839 029e 06       		.uleb128 0x6
 9840 029f 40       		.uleb128 0x40
 9841 02a0 18       		.uleb128 0x18
 9842 02a1 9742     		.uleb128 0x2117
 9843 02a3 19       		.uleb128 0x19
 9844 02a4 01       		.uleb128 0x1
 9845 02a5 13       		.uleb128 0x13
 9846 02a6 00       		.byte	0
 9847 02a7 00       		.byte	0
 9848 02a8 31       		.uleb128 0x31
 9849 02a9 05       		.uleb128 0x5
 9850 02aa 00       		.byte	0
 9851 02ab 03       		.uleb128 0x3
 9852 02ac 08       		.uleb128 0x8
 9853 02ad 3A       		.uleb128 0x3a
 9854 02ae 0B       		.uleb128 0xb
 9855 02af 3B       		.uleb128 0x3b
 9856 02b0 05       		.uleb128 0x5
 9857 02b1 49       		.uleb128 0x49
 9858 02b2 13       		.uleb128 0x13
 9859 02b3 02       		.uleb128 0x2
 9860 02b4 18       		.uleb128 0x18
ARM GAS  C:\Users\Phuong\AppData\Local\Temp\cczg95Bp.s 			page 221


 9861 02b5 00       		.byte	0
 9862 02b6 00       		.byte	0
 9863 02b7 32       		.uleb128 0x32
 9864 02b8 05       		.uleb128 0x5
 9865 02b9 00       		.byte	0
 9866 02ba 03       		.uleb128 0x3
 9867 02bb 0E       		.uleb128 0xe
 9868 02bc 3A       		.uleb128 0x3a
 9869 02bd 0B       		.uleb128 0xb
 9870 02be 3B       		.uleb128 0x3b
 9871 02bf 05       		.uleb128 0x5
 9872 02c0 49       		.uleb128 0x49
 9873 02c1 13       		.uleb128 0x13
 9874 02c2 02       		.uleb128 0x2
 9875 02c3 18       		.uleb128 0x18
 9876 02c4 00       		.byte	0
 9877 02c5 00       		.byte	0
 9878 02c6 33       		.uleb128 0x33
 9879 02c7 2E       		.uleb128 0x2e
 9880 02c8 01       		.byte	0x1
 9881 02c9 3F       		.uleb128 0x3f
 9882 02ca 19       		.uleb128 0x19
 9883 02cb 03       		.uleb128 0x3
 9884 02cc 0E       		.uleb128 0xe
 9885 02cd 3A       		.uleb128 0x3a
 9886 02ce 0B       		.uleb128 0xb
 9887 02cf 3B       		.uleb128 0x3b
 9888 02d0 05       		.uleb128 0x5
 9889 02d1 27       		.uleb128 0x27
 9890 02d2 19       		.uleb128 0x19
 9891 02d3 11       		.uleb128 0x11
 9892 02d4 01       		.uleb128 0x1
 9893 02d5 12       		.uleb128 0x12
 9894 02d6 06       		.uleb128 0x6
 9895 02d7 40       		.uleb128 0x40
 9896 02d8 18       		.uleb128 0x18
 9897 02d9 9642     		.uleb128 0x2116
 9898 02db 19       		.uleb128 0x19
 9899 02dc 01       		.uleb128 0x1
 9900 02dd 13       		.uleb128 0x13
 9901 02de 00       		.byte	0
 9902 02df 00       		.byte	0
 9903 02e0 34       		.uleb128 0x34
 9904 02e1 898201   		.uleb128 0x4109
 9905 02e4 01       		.byte	0x1
 9906 02e5 11       		.uleb128 0x11
 9907 02e6 01       		.uleb128 0x1
 9908 02e7 00       		.byte	0
 9909 02e8 00       		.byte	0
 9910 02e9 35       		.uleb128 0x35
 9911 02ea 898201   		.uleb128 0x4109
 9912 02ed 01       		.byte	0x1
 9913 02ee 11       		.uleb128 0x11
 9914 02ef 01       		.uleb128 0x1
 9915 02f0 01       		.uleb128 0x1
 9916 02f1 13       		.uleb128 0x13
 9917 02f2 00       		.byte	0
ARM GAS  C:\Users\Phuong\AppData\Local\Temp\cczg95Bp.s 			page 222


 9918 02f3 00       		.byte	0
 9919 02f4 36       		.uleb128 0x36
 9920 02f5 0B       		.uleb128 0xb
 9921 02f6 01       		.byte	0x1
 9922 02f7 55       		.uleb128 0x55
 9923 02f8 17       		.uleb128 0x17
 9924 02f9 00       		.byte	0
 9925 02fa 00       		.byte	0
 9926 02fb 37       		.uleb128 0x37
 9927 02fc 898201   		.uleb128 0x4109
 9928 02ff 01       		.byte	0x1
 9929 0300 11       		.uleb128 0x11
 9930 0301 01       		.uleb128 0x1
 9931 0302 9342     		.uleb128 0x2113
 9932 0304 18       		.uleb128 0x18
 9933 0305 01       		.uleb128 0x1
 9934 0306 13       		.uleb128 0x13
 9935 0307 00       		.byte	0
 9936 0308 00       		.byte	0
 9937 0309 38       		.uleb128 0x38
 9938 030a 898201   		.uleb128 0x4109
 9939 030d 01       		.byte	0x1
 9940 030e 11       		.uleb128 0x11
 9941 030f 01       		.uleb128 0x1
 9942 0310 9342     		.uleb128 0x2113
 9943 0312 18       		.uleb128 0x18
 9944 0313 00       		.byte	0
 9945 0314 00       		.byte	0
 9946 0315 39       		.uleb128 0x39
 9947 0316 2E       		.uleb128 0x2e
 9948 0317 01       		.byte	0x1
 9949 0318 03       		.uleb128 0x3
 9950 0319 0E       		.uleb128 0xe
 9951 031a 3A       		.uleb128 0x3a
 9952 031b 0B       		.uleb128 0xb
 9953 031c 3B       		.uleb128 0x3b
 9954 031d 05       		.uleb128 0x5
 9955 031e 27       		.uleb128 0x27
 9956 031f 19       		.uleb128 0x19
 9957 0320 11       		.uleb128 0x11
 9958 0321 01       		.uleb128 0x1
 9959 0322 12       		.uleb128 0x12
 9960 0323 06       		.uleb128 0x6
 9961 0324 40       		.uleb128 0x40
 9962 0325 18       		.uleb128 0x18
 9963 0326 9742     		.uleb128 0x2117
 9964 0328 19       		.uleb128 0x19
 9965 0329 01       		.uleb128 0x1
 9966 032a 13       		.uleb128 0x13
 9967 032b 00       		.byte	0
 9968 032c 00       		.byte	0
 9969 032d 3A       		.uleb128 0x3a
 9970 032e 34       		.uleb128 0x34
 9971 032f 00       		.byte	0
 9972 0330 03       		.uleb128 0x3
 9973 0331 08       		.uleb128 0x8
 9974 0332 3A       		.uleb128 0x3a
ARM GAS  C:\Users\Phuong\AppData\Local\Temp\cczg95Bp.s 			page 223


 9975 0333 0B       		.uleb128 0xb
 9976 0334 3B       		.uleb128 0x3b
 9977 0335 05       		.uleb128 0x5
 9978 0336 49       		.uleb128 0x49
 9979 0337 13       		.uleb128 0x13
 9980 0338 02       		.uleb128 0x2
 9981 0339 18       		.uleb128 0x18
 9982 033a 00       		.byte	0
 9983 033b 00       		.byte	0
 9984 033c 3B       		.uleb128 0x3b
 9985 033d 0B       		.uleb128 0xb
 9986 033e 01       		.byte	0x1
 9987 033f 55       		.uleb128 0x55
 9988 0340 17       		.uleb128 0x17
 9989 0341 01       		.uleb128 0x1
 9990 0342 13       		.uleb128 0x13
 9991 0343 00       		.byte	0
 9992 0344 00       		.byte	0
 9993 0345 3C       		.uleb128 0x3c
 9994 0346 34       		.uleb128 0x34
 9995 0347 00       		.byte	0
 9996 0348 03       		.uleb128 0x3
 9997 0349 0E       		.uleb128 0xe
 9998 034a 3A       		.uleb128 0x3a
 9999 034b 0B       		.uleb128 0xb
 10000 034c 3B       		.uleb128 0x3b
 10001 034d 0B       		.uleb128 0xb
 10002 034e 49       		.uleb128 0x49
 10003 034f 13       		.uleb128 0x13
 10004 0350 02       		.uleb128 0x2
 10005 0351 18       		.uleb128 0x18
 10006 0352 00       		.byte	0
 10007 0353 00       		.byte	0
 10008 0354 3D       		.uleb128 0x3d
 10009 0355 34       		.uleb128 0x34
 10010 0356 00       		.byte	0
 10011 0357 03       		.uleb128 0x3
 10012 0358 0E       		.uleb128 0xe
 10013 0359 3A       		.uleb128 0x3a
 10014 035a 0B       		.uleb128 0xb
 10015 035b 3B       		.uleb128 0x3b
 10016 035c 05       		.uleb128 0x5
 10017 035d 49       		.uleb128 0x49
 10018 035e 13       		.uleb128 0x13
 10019 035f 3F       		.uleb128 0x3f
 10020 0360 19       		.uleb128 0x19
 10021 0361 3C       		.uleb128 0x3c
 10022 0362 19       		.uleb128 0x19
 10023 0363 00       		.byte	0
 10024 0364 00       		.byte	0
 10025 0365 3E       		.uleb128 0x3e
 10026 0366 34       		.uleb128 0x34
 10027 0367 00       		.byte	0
 10028 0368 03       		.uleb128 0x3
 10029 0369 0E       		.uleb128 0xe
 10030 036a 3A       		.uleb128 0x3a
 10031 036b 0B       		.uleb128 0xb
ARM GAS  C:\Users\Phuong\AppData\Local\Temp\cczg95Bp.s 			page 224


 10032 036c 3B       		.uleb128 0x3b
 10033 036d 0B       		.uleb128 0xb
 10034 036e 49       		.uleb128 0x49
 10035 036f 13       		.uleb128 0x13
 10036 0370 3F       		.uleb128 0x3f
 10037 0371 19       		.uleb128 0x19
 10038 0372 02       		.uleb128 0x2
 10039 0373 18       		.uleb128 0x18
 10040 0374 00       		.byte	0
 10041 0375 00       		.byte	0
 10042 0376 3F       		.uleb128 0x3f
 10043 0377 2E       		.uleb128 0x2e
 10044 0378 00       		.byte	0
 10045 0379 3F       		.uleb128 0x3f
 10046 037a 19       		.uleb128 0x19
 10047 037b 3C       		.uleb128 0x3c
 10048 037c 19       		.uleb128 0x19
 10049 037d 6E       		.uleb128 0x6e
 10050 037e 0E       		.uleb128 0xe
 10051 037f 03       		.uleb128 0x3
 10052 0380 0E       		.uleb128 0xe
 10053 0381 3A       		.uleb128 0x3a
 10054 0382 0B       		.uleb128 0xb
 10055 0383 3B       		.uleb128 0x3b
 10056 0384 0B       		.uleb128 0xb
 10057 0385 00       		.byte	0
 10058 0386 00       		.byte	0
 10059 0387 40       		.uleb128 0x40
 10060 0388 2E       		.uleb128 0x2e
 10061 0389 00       		.byte	0
 10062 038a 3F       		.uleb128 0x3f
 10063 038b 19       		.uleb128 0x19
 10064 038c 3C       		.uleb128 0x3c
 10065 038d 19       		.uleb128 0x19
 10066 038e 6E       		.uleb128 0x6e
 10067 038f 0E       		.uleb128 0xe
 10068 0390 03       		.uleb128 0x3
 10069 0391 0E       		.uleb128 0xe
 10070 0392 3A       		.uleb128 0x3a
 10071 0393 0B       		.uleb128 0xb
 10072 0394 3B       		.uleb128 0x3b
 10073 0395 05       		.uleb128 0x5
 10074 0396 00       		.byte	0
 10075 0397 00       		.byte	0
 10076 0398 41       		.uleb128 0x41
 10077 0399 2E       		.uleb128 0x2e
 10078 039a 00       		.byte	0
 10079 039b 3F       		.uleb128 0x3f
 10080 039c 19       		.uleb128 0x19
 10081 039d 3C       		.uleb128 0x3c
 10082 039e 19       		.uleb128 0x19
 10083 039f 6E       		.uleb128 0x6e
 10084 03a0 0E       		.uleb128 0xe
 10085 03a1 03       		.uleb128 0x3
 10086 03a2 0E       		.uleb128 0xe
 10087 03a3 00       		.byte	0
 10088 03a4 00       		.byte	0
ARM GAS  C:\Users\Phuong\AppData\Local\Temp\cczg95Bp.s 			page 225


 10089 03a5 00       		.byte	0
 10090              		.section	.debug_loc,"",%progbits
 10091              	.Ldebug_loc0:
 10092              	.LLST0:
 10093 0000 00000000 		.4byte	.LVL0
 10094 0004 02000000 		.4byte	.LVL1
 10095 0008 0100     		.2byte	0x1
 10096 000a 50       		.byte	0x50
 10097 000b 02000000 		.4byte	.LVL1
 10098 000f 14000000 		.4byte	.LFE55
 10099 0013 0400     		.2byte	0x4
 10100 0015 F3       		.byte	0xf3
 10101 0016 01       		.uleb128 0x1
 10102 0017 50       		.byte	0x50
 10103 0018 9F       		.byte	0x9f
 10104 0019 00000000 		.4byte	0
 10105 001d 00000000 		.4byte	0
 10106              	.LLST1:
 10107 0021 00000000 		.4byte	.LVL3
 10108 0025 08000000 		.4byte	.LVL5
 10109 0029 0100     		.2byte	0x1
 10110 002b 50       		.byte	0x50
 10111 002c 08000000 		.4byte	.LVL5
 10112 0030 1C000000 		.4byte	.LVL9
 10113 0034 0100     		.2byte	0x1
 10114 0036 55       		.byte	0x55
 10115 0037 1C000000 		.4byte	.LVL9
 10116 003b 24000000 		.4byte	.LFE56
 10117 003f 0400     		.2byte	0x4
 10118 0041 F3       		.byte	0xf3
 10119 0042 01       		.uleb128 0x1
 10120 0043 50       		.byte	0x50
 10121 0044 9F       		.byte	0x9f
 10122 0045 00000000 		.4byte	0
 10123 0049 00000000 		.4byte	0
 10124              	.LLST2:
 10125 004d 04000000 		.4byte	.LVL4
 10126 0051 08000000 		.4byte	.LVL5
 10127 0055 0200     		.2byte	0x2
 10128 0057 31       		.byte	0x31
 10129 0058 9F       		.byte	0x9f
 10130 0059 08000000 		.4byte	.LVL5
 10131 005d 1C000000 		.4byte	.LVL8
 10132 0061 0100     		.2byte	0x1
 10133 0063 54       		.byte	0x54
 10134 0064 00000000 		.4byte	0
 10135 0068 00000000 		.4byte	0
 10136              	.LLST3:
 10137 006c 18000000 		.4byte	.LVL12
 10138 0070 1C000000 		.4byte	.LVL13
 10139 0074 0200     		.2byte	0x2
 10140 0076 30       		.byte	0x30
 10141 0077 9F       		.byte	0x9f
 10142 0078 1C000000 		.4byte	.LVL13
 10143 007c 44000000 		.4byte	.LVL20
 10144 0080 0100     		.2byte	0x1
 10145 0082 50       		.byte	0x50
ARM GAS  C:\Users\Phuong\AppData\Local\Temp\cczg95Bp.s 			page 226


 10146 0083 46000000 		.4byte	.LVL21
 10147 0087 4E000000 		.4byte	.LVL22
 10148 008b 0100     		.2byte	0x1
 10149 008d 50       		.byte	0x50
 10150 008e 50000000 		.4byte	.LVL23
 10151 0092 52000000 		.4byte	.LVL24
 10152 0096 0100     		.2byte	0x1
 10153 0098 50       		.byte	0x50
 10154 0099 00000000 		.4byte	0
 10155 009d 00000000 		.4byte	0
 10156              	.LLST4:
 10157 00a1 02000000 		.4byte	.LVL10
 10158 00a5 04000000 		.4byte	.LVL11
 10159 00a9 0200     		.2byte	0x2
 10160 00ab 30       		.byte	0x30
 10161 00ac 9F       		.byte	0x9f
 10162 00ad 04000000 		.4byte	.LVL11
 10163 00b1 32000000 		.4byte	.LVL15
 10164 00b5 0100     		.2byte	0x1
 10165 00b7 54       		.byte	0x54
 10166 00b8 34000000 		.4byte	.LVL16
 10167 00bc 52000000 		.4byte	.LVL25
 10168 00c0 0100     		.2byte	0x1
 10169 00c2 54       		.byte	0x54
 10170 00c3 00000000 		.4byte	0
 10171 00c7 00000000 		.4byte	0
 10172              	.LLST5:
 10173 00cb 24000000 		.4byte	.LVL14
 10174 00cf 36000000 		.4byte	.LVL17
 10175 00d3 0100     		.2byte	0x1
 10176 00d5 53       		.byte	0x53
 10177 00d6 3C000000 		.4byte	.LVL18
 10178 00da 46000000 		.4byte	.LVL21
 10179 00de 0100     		.2byte	0x1
 10180 00e0 53       		.byte	0x53
 10181 00e1 00000000 		.4byte	0
 10182 00e5 00000000 		.4byte	0
 10183              	.LLST6:
 10184 00e9 00000000 		.4byte	.LVL29
 10185 00ed 15000000 		.4byte	.LVL30-1
 10186 00f1 0100     		.2byte	0x1
 10187 00f3 50       		.byte	0x50
 10188 00f4 15000000 		.4byte	.LVL30-1
 10189 00f8 26000000 		.4byte	.LVL34
 10190 00fc 0100     		.2byte	0x1
 10191 00fe 55       		.byte	0x55
 10192 00ff 26000000 		.4byte	.LVL34
 10193 0103 29000000 		.4byte	.LVL35-1
 10194 0107 0100     		.2byte	0x1
 10195 0109 50       		.byte	0x50
 10196 010a 29000000 		.4byte	.LVL35-1
 10197 010e 34000000 		.4byte	.LVL37
 10198 0112 0100     		.2byte	0x1
 10199 0114 55       		.byte	0x55
 10200 0115 34000000 		.4byte	.LVL37
 10201 0119 37000000 		.4byte	.LVL38-1
 10202 011d 0100     		.2byte	0x1
ARM GAS  C:\Users\Phuong\AppData\Local\Temp\cczg95Bp.s 			page 227


 10203 011f 50       		.byte	0x50
 10204 0120 37000000 		.4byte	.LVL38-1
 10205 0124 5E000000 		.4byte	.LVL42
 10206 0128 0100     		.2byte	0x1
 10207 012a 55       		.byte	0x55
 10208 012b 5E000000 		.4byte	.LVL42
 10209 012f 60000000 		.4byte	.LVL43
 10210 0133 0100     		.2byte	0x1
 10211 0135 50       		.byte	0x50
 10212 0136 60000000 		.4byte	.LVL43
 10213 013a 64000000 		.4byte	.LVL46
 10214 013e 0100     		.2byte	0x1
 10215 0140 55       		.byte	0x55
 10216 0141 64000000 		.4byte	.LVL46
 10217 0145 66000000 		.4byte	.LFE60
 10218 0149 0400     		.2byte	0x4
 10219 014b F3       		.byte	0xf3
 10220 014c 01       		.uleb128 0x1
 10221 014d 50       		.byte	0x50
 10222 014e 9F       		.byte	0x9f
 10223 014f 00000000 		.4byte	0
 10224 0153 00000000 		.4byte	0
 10225              	.LLST7:
 10226 0157 18000000 		.4byte	.LVL31
 10227 015b 1C000000 		.4byte	.LVL32
 10228 015f 0100     		.2byte	0x1
 10229 0161 50       		.byte	0x50
 10230 0162 1C000000 		.4byte	.LVL32
 10231 0166 26000000 		.4byte	.LVL34
 10232 016a 0100     		.2byte	0x1
 10233 016c 54       		.byte	0x54
 10234 016d 2C000000 		.4byte	.LVL36
 10235 0171 34000000 		.4byte	.LVL37
 10236 0175 0100     		.2byte	0x1
 10237 0177 50       		.byte	0x50
 10238 0178 3A000000 		.4byte	.LVL39
 10239 017c 40000000 		.4byte	.LVL40
 10240 0180 0100     		.2byte	0x1
 10241 0182 50       		.byte	0x50
 10242 0183 40000000 		.4byte	.LVL40
 10243 0187 5E000000 		.4byte	.LVL42
 10244 018b 0100     		.2byte	0x1
 10245 018d 54       		.byte	0x54
 10246 018e 62000000 		.4byte	.LVL44
 10247 0192 64000000 		.4byte	.LVL45
 10248 0196 0100     		.2byte	0x1
 10249 0198 54       		.byte	0x54
 10250 0199 00000000 		.4byte	0
 10251 019d 00000000 		.4byte	0
 10252              	.LLST8:
 10253 01a1 00000000 		.4byte	.LVL47
 10254 01a5 31000000 		.4byte	.LVL51-1
 10255 01a9 0100     		.2byte	0x1
 10256 01ab 50       		.byte	0x50
 10257 01ac 31000000 		.4byte	.LVL51-1
 10258 01b0 74000000 		.4byte	.LVL57
 10259 01b4 0100     		.2byte	0x1
ARM GAS  C:\Users\Phuong\AppData\Local\Temp\cczg95Bp.s 			page 228


 10260 01b6 56       		.byte	0x56
 10261 01b7 74000000 		.4byte	.LVL57
 10262 01bb 76000000 		.4byte	.LVL58
 10263 01bf 0100     		.2byte	0x1
 10264 01c1 50       		.byte	0x50
 10265 01c2 76000000 		.4byte	.LVL58
 10266 01c6 9E000000 		.4byte	.LVL62
 10267 01ca 0100     		.2byte	0x1
 10268 01cc 56       		.byte	0x56
 10269 01cd 9E000000 		.4byte	.LVL62
 10270 01d1 A0000000 		.4byte	.LVL63
 10271 01d5 0100     		.2byte	0x1
 10272 01d7 50       		.byte	0x50
 10273 01d8 A0000000 		.4byte	.LVL63
 10274 01dc A4000000 		.4byte	.LVL64
 10275 01e0 0100     		.2byte	0x1
 10276 01e2 56       		.byte	0x56
 10277 01e3 A4000000 		.4byte	.LVL64
 10278 01e7 A6000000 		.4byte	.LVL65
 10279 01eb 0100     		.2byte	0x1
 10280 01ed 50       		.byte	0x50
 10281 01ee A6000000 		.4byte	.LVL65
 10282 01f2 AA000000 		.4byte	.LVL66
 10283 01f6 0100     		.2byte	0x1
 10284 01f8 56       		.byte	0x56
 10285 01f9 AA000000 		.4byte	.LVL66
 10286 01fd AC000000 		.4byte	.LVL67
 10287 0201 0100     		.2byte	0x1
 10288 0203 50       		.byte	0x50
 10289 0204 AC000000 		.4byte	.LVL67
 10290 0208 D2000000 		.4byte	.LVL73
 10291 020c 0100     		.2byte	0x1
 10292 020e 56       		.byte	0x56
 10293 020f D2000000 		.4byte	.LVL73
 10294 0213 E0000000 		.4byte	.LFE65
 10295 0217 0400     		.2byte	0x4
 10296 0219 F3       		.byte	0xf3
 10297 021a 01       		.uleb128 0x1
 10298 021b 50       		.byte	0x50
 10299 021c 9F       		.byte	0x9f
 10300 021d 00000000 		.4byte	0
 10301 0221 00000000 		.4byte	0
 10302              	.LLST9:
 10303 0225 00000000 		.4byte	.LVL47
 10304 0229 0A000000 		.4byte	.LVL49
 10305 022d 0100     		.2byte	0x1
 10306 022f 51       		.byte	0x51
 10307 0230 0A000000 		.4byte	.LVL49
 10308 0234 D2000000 		.4byte	.LVL72
 10309 0238 0100     		.2byte	0x1
 10310 023a 54       		.byte	0x54
 10311 023b 00000000 		.4byte	0
 10312 023f 00000000 		.4byte	0
 10313              	.LLST10:
 10314 0243 00000000 		.4byte	.LVL47
 10315 0247 31000000 		.4byte	.LVL51-1
 10316 024b 0100     		.2byte	0x1
ARM GAS  C:\Users\Phuong\AppData\Local\Temp\cczg95Bp.s 			page 229


 10317 024d 52       		.byte	0x52
 10318 024e 31000000 		.4byte	.LVL51-1
 10319 0252 34000000 		.4byte	.LVL52
 10320 0256 0400     		.2byte	0x4
 10321 0258 F3       		.byte	0xf3
 10322 0259 01       		.uleb128 0x1
 10323 025a 52       		.byte	0x52
 10324 025b 9F       		.byte	0x9f
 10325 025c 34000000 		.4byte	.LVL52
 10326 0260 38000000 		.4byte	.LVL53
 10327 0264 0100     		.2byte	0x1
 10328 0266 50       		.byte	0x50
 10329 0267 38000000 		.4byte	.LVL53
 10330 026b 92000000 		.4byte	.LVL60
 10331 026f 0100     		.2byte	0x1
 10332 0271 52       		.byte	0x52
 10333 0272 92000000 		.4byte	.LVL60
 10334 0276 99000000 		.4byte	.LVL61-1
 10335 027a 0200     		.2byte	0x2
 10336 027c 76       		.byte	0x76
 10337 027d 16       		.sleb128 22
 10338 027e 9E000000 		.4byte	.LVL62
 10339 0282 B0000000 		.4byte	.LVL68
 10340 0286 0100     		.2byte	0x1
 10341 0288 52       		.byte	0x52
 10342 0289 B0000000 		.4byte	.LVL68
 10343 028d B2000000 		.4byte	.LVL69
 10344 0291 0100     		.2byte	0x1
 10345 0293 50       		.byte	0x50
 10346 0294 B2000000 		.4byte	.LVL69
 10347 0298 D2000000 		.4byte	.LVL71
 10348 029c 0100     		.2byte	0x1
 10349 029e 52       		.byte	0x52
 10350 029f 00000000 		.4byte	0
 10351 02a3 00000000 		.4byte	0
 10352              	.LLST11:
 10353 02a7 38000000 		.4byte	.LVL53
 10354 02ab 74000000 		.4byte	.LVL57
 10355 02af 0100     		.2byte	0x1
 10356 02b1 57       		.byte	0x57
 10357 02b2 76000000 		.4byte	.LVL58
 10358 02b6 7A000000 		.4byte	.LVL59
 10359 02ba 0100     		.2byte	0x1
 10360 02bc 57       		.byte	0x57
 10361 02bd B6000000 		.4byte	.LVL70
 10362 02c1 D2000000 		.4byte	.LVL71
 10363 02c5 0100     		.2byte	0x1
 10364 02c7 57       		.byte	0x57
 10365 02c8 00000000 		.4byte	0
 10366 02cc 00000000 		.4byte	0
 10367              	.LLST12:
 10368 02d0 06000000 		.4byte	.LVL48
 10369 02d4 2A000000 		.4byte	.LVL50
 10370 02d8 0200     		.2byte	0x2
 10371 02da 34       		.byte	0x34
 10372 02db 9F       		.byte	0x9f
 10373 02dc 2A000000 		.4byte	.LVL50
ARM GAS  C:\Users\Phuong\AppData\Local\Temp\cczg95Bp.s 			page 230


 10374 02e0 31000000 		.4byte	.LVL51-1
 10375 02e4 0100     		.2byte	0x1
 10376 02e6 5C       		.byte	0x5c
 10377 02e7 38000000 		.4byte	.LVL53
 10378 02eb 7A000000 		.4byte	.LVL59
 10379 02ef 0100     		.2byte	0x1
 10380 02f1 5C       		.byte	0x5c
 10381 02f2 9E000000 		.4byte	.LVL62
 10382 02f6 B0000000 		.4byte	.LVL68
 10383 02fa 0200     		.2byte	0x2
 10384 02fc 34       		.byte	0x34
 10385 02fd 9F       		.byte	0x9f
 10386 02fe B6000000 		.4byte	.LVL70
 10387 0302 D2000000 		.4byte	.LVL71
 10388 0306 0100     		.2byte	0x1
 10389 0308 5C       		.byte	0x5c
 10390 0309 00000000 		.4byte	0
 10391 030d 00000000 		.4byte	0
 10392              	.LLST13:
 10393 0311 40000000 		.4byte	.LVL54
 10394 0315 74000000 		.4byte	.LVL57
 10395 0319 0100     		.2byte	0x1
 10396 031b 53       		.byte	0x53
 10397 031c B6000000 		.4byte	.LVL70
 10398 0320 D2000000 		.4byte	.LVL71
 10399 0324 0100     		.2byte	0x1
 10400 0326 53       		.byte	0x53
 10401 0327 00000000 		.4byte	0
 10402 032b 00000000 		.4byte	0
 10403              	.LLST14:
 10404 032f 00000000 		.4byte	.LVL74
 10405 0333 3C000000 		.4byte	.LVL80
 10406 0337 0100     		.2byte	0x1
 10407 0339 50       		.byte	0x50
 10408 033a 3C000000 		.4byte	.LVL80
 10409 033e B8000000 		.4byte	.LVL89
 10410 0342 0100     		.2byte	0x1
 10411 0344 54       		.byte	0x54
 10412 0345 B8000000 		.4byte	.LVL89
 10413 0349 D0000000 		.4byte	.LVL92
 10414 034d 0100     		.2byte	0x1
 10415 034f 50       		.byte	0x50
 10416 0350 D0000000 		.4byte	.LVL92
 10417 0354 DC000000 		.4byte	.LVL94
 10418 0358 0100     		.2byte	0x1
 10419 035a 54       		.byte	0x54
 10420 035b DC000000 		.4byte	.LVL94
 10421 035f F0000000 		.4byte	.LFE68
 10422 0363 0400     		.2byte	0x4
 10423 0365 F3       		.byte	0xf3
 10424 0366 01       		.uleb128 0x1
 10425 0367 50       		.byte	0x50
 10426 0368 9F       		.byte	0x9f
 10427 0369 00000000 		.4byte	0
 10428 036d 00000000 		.4byte	0
 10429              	.LLST15:
 10430 0371 00000000 		.4byte	.LVL74
ARM GAS  C:\Users\Phuong\AppData\Local\Temp\cczg95Bp.s 			page 231


 10431 0375 1E000000 		.4byte	.LVL77
 10432 0379 0100     		.2byte	0x1
 10433 037b 51       		.byte	0x51
 10434 037c 1E000000 		.4byte	.LVL77
 10435 0380 B8000000 		.4byte	.LVL89
 10436 0384 0400     		.2byte	0x4
 10437 0386 F3       		.byte	0xf3
 10438 0387 01       		.uleb128 0x1
 10439 0388 51       		.byte	0x51
 10440 0389 9F       		.byte	0x9f
 10441 038a B8000000 		.4byte	.LVL89
 10442 038e C8000000 		.4byte	.LVL90
 10443 0392 0100     		.2byte	0x1
 10444 0394 51       		.byte	0x51
 10445 0395 C8000000 		.4byte	.LVL90
 10446 0399 F0000000 		.4byte	.LFE68
 10447 039d 0400     		.2byte	0x4
 10448 039f F3       		.byte	0xf3
 10449 03a0 01       		.uleb128 0x1
 10450 03a1 51       		.byte	0x51
 10451 03a2 9F       		.byte	0x9f
 10452 03a3 00000000 		.4byte	0
 10453 03a7 00000000 		.4byte	0
 10454              	.LLST16:
 10455 03ab 00000000 		.4byte	.LVL74
 10456 03af 1E000000 		.4byte	.LVL77
 10457 03b3 0100     		.2byte	0x1
 10458 03b5 52       		.byte	0x52
 10459 03b6 1E000000 		.4byte	.LVL77
 10460 03ba B8000000 		.4byte	.LVL89
 10461 03be 0100     		.2byte	0x1
 10462 03c0 57       		.byte	0x57
 10463 03c1 B8000000 		.4byte	.LVL89
 10464 03c5 C8000000 		.4byte	.LVL90
 10465 03c9 0100     		.2byte	0x1
 10466 03cb 52       		.byte	0x52
 10467 03cc C8000000 		.4byte	.LVL90
 10468 03d0 DC000000 		.4byte	.LVL96
 10469 03d4 0100     		.2byte	0x1
 10470 03d6 57       		.byte	0x57
 10471 03d7 DC000000 		.4byte	.LVL96
 10472 03db F0000000 		.4byte	.LFE68
 10473 03df 0400     		.2byte	0x4
 10474 03e1 F3       		.byte	0xf3
 10475 03e2 01       		.uleb128 0x1
 10476 03e3 52       		.byte	0x52
 10477 03e4 9F       		.byte	0x9f
 10478 03e5 00000000 		.4byte	0
 10479 03e9 00000000 		.4byte	0
 10480              	.LLST17:
 10481 03ed 08000000 		.4byte	.LVL75
 10482 03f1 1C000000 		.4byte	.LVL76
 10483 03f5 0200     		.2byte	0x2
 10484 03f7 30       		.byte	0x30
 10485 03f8 9F       		.byte	0x9f
 10486 03f9 1C000000 		.4byte	.LVL76
 10487 03fd 34000000 		.4byte	.LVL79
ARM GAS  C:\Users\Phuong\AppData\Local\Temp\cczg95Bp.s 			page 232


 10488 0401 0100     		.2byte	0x1
 10489 0403 53       		.byte	0x53
 10490 0404 42000000 		.4byte	.LVL82
 10491 0408 94000000 		.4byte	.LVL86
 10492 040c 0100     		.2byte	0x1
 10493 040e 50       		.byte	0x50
 10494 040f 94000000 		.4byte	.LVL86
 10495 0413 B8000000 		.4byte	.LVL89
 10496 0417 0100     		.2byte	0x1
 10497 0419 56       		.byte	0x56
 10498 041a B8000000 		.4byte	.LVL89
 10499 041e C8000000 		.4byte	.LVL90
 10500 0422 0200     		.2byte	0x2
 10501 0424 30       		.byte	0x30
 10502 0425 9F       		.byte	0x9f
 10503 0426 C8000000 		.4byte	.LVL90
 10504 042a CA000000 		.4byte	.LVL91
 10505 042e 0100     		.2byte	0x1
 10506 0430 53       		.byte	0x53
 10507 0431 D0000000 		.4byte	.LVL92
 10508 0435 D4000000 		.4byte	.LVL93
 10509 0439 0100     		.2byte	0x1
 10510 043b 50       		.byte	0x50
 10511 043c D4000000 		.4byte	.LVL93
 10512 0440 DC000000 		.4byte	.LVL95
 10513 0444 0100     		.2byte	0x1
 10514 0446 56       		.byte	0x56
 10515 0447 DC000000 		.4byte	.LVL95
 10516 044b F0000000 		.4byte	.LFE68
 10517 044f 0100     		.2byte	0x1
 10518 0451 50       		.byte	0x50
 10519 0452 00000000 		.4byte	0
 10520 0456 00000000 		.4byte	0
 10521              	.LLST18:
 10522 045a B4000000 		.4byte	.LVL88
 10523 045e B8000000 		.4byte	.LVL89
 10524 0462 0200     		.2byte	0x2
 10525 0464 30       		.byte	0x30
 10526 0465 9F       		.byte	0x9f
 10527 0466 D4000000 		.4byte	.LVL93
 10528 046a F0000000 		.4byte	.LFE68
 10529 046e 0100     		.2byte	0x1
 10530 0470 53       		.byte	0x53
 10531 0471 00000000 		.4byte	0
 10532 0475 00000000 		.4byte	0
 10533              	.LLST19:
 10534 0479 7A000000 		.4byte	.LVL83
 10535 047d 8C000000 		.4byte	.LVL85
 10536 0481 0100     		.2byte	0x1
 10537 0483 53       		.byte	0x53
 10538 0484 00000000 		.4byte	0
 10539 0488 00000000 		.4byte	0
 10540              	.LLST20:
 10541 048c 00000000 		.4byte	.LVL97
 10542 0490 07000000 		.4byte	.LVL98-1
 10543 0494 0100     		.2byte	0x1
 10544 0496 50       		.byte	0x50
ARM GAS  C:\Users\Phuong\AppData\Local\Temp\cczg95Bp.s 			page 233


 10545 0497 07000000 		.4byte	.LVL98-1
 10546 049b 0A000000 		.4byte	.LFE67
 10547 049f 0400     		.2byte	0x4
 10548 04a1 F3       		.byte	0xf3
 10549 04a2 01       		.uleb128 0x1
 10550 04a3 50       		.byte	0x50
 10551 04a4 9F       		.byte	0x9f
 10552 04a5 00000000 		.4byte	0
 10553 04a9 00000000 		.4byte	0
 10554              	.LLST21:
 10555 04ad 00000000 		.4byte	.LVL97
 10556 04b1 07000000 		.4byte	.LVL98-1
 10557 04b5 0100     		.2byte	0x1
 10558 04b7 51       		.byte	0x51
 10559 04b8 07000000 		.4byte	.LVL98-1
 10560 04bc 0A000000 		.4byte	.LFE67
 10561 04c0 0400     		.2byte	0x4
 10562 04c2 F3       		.byte	0xf3
 10563 04c3 01       		.uleb128 0x1
 10564 04c4 51       		.byte	0x51
 10565 04c5 9F       		.byte	0x9f
 10566 04c6 00000000 		.4byte	0
 10567 04ca 00000000 		.4byte	0
 10568              	.LLST22:
 10569 04ce 00000000 		.4byte	.LVL99
 10570 04d2 1E000000 		.4byte	.LVL101
 10571 04d6 0100     		.2byte	0x1
 10572 04d8 50       		.byte	0x50
 10573 04d9 1E000000 		.4byte	.LVL101
 10574 04dd 20000000 		.4byte	.LVL102
 10575 04e1 0400     		.2byte	0x4
 10576 04e3 F3       		.byte	0xf3
 10577 04e4 01       		.uleb128 0x1
 10578 04e5 50       		.byte	0x50
 10579 04e6 9F       		.byte	0x9f
 10580 04e7 20000000 		.4byte	.LVL102
 10581 04eb 2C000000 		.4byte	.LVL103
 10582 04ef 0100     		.2byte	0x1
 10583 04f1 50       		.byte	0x50
 10584 04f2 2C000000 		.4byte	.LVL103
 10585 04f6 2E000000 		.4byte	.LVL104
 10586 04fa 0400     		.2byte	0x4
 10587 04fc F3       		.byte	0xf3
 10588 04fd 01       		.uleb128 0x1
 10589 04fe 50       		.byte	0x50
 10590 04ff 9F       		.byte	0x9f
 10591 0500 2E000000 		.4byte	.LVL104
 10592 0504 34000000 		.4byte	.LVL106
 10593 0508 0100     		.2byte	0x1
 10594 050a 50       		.byte	0x50
 10595 050b 34000000 		.4byte	.LVL106
 10596 050f 3C000000 		.4byte	.LFE69
 10597 0513 0400     		.2byte	0x4
 10598 0515 F3       		.byte	0xf3
 10599 0516 01       		.uleb128 0x1
 10600 0517 50       		.byte	0x50
 10601 0518 9F       		.byte	0x9f
ARM GAS  C:\Users\Phuong\AppData\Local\Temp\cczg95Bp.s 			page 234


 10602 0519 00000000 		.4byte	0
 10603 051d 00000000 		.4byte	0
 10604              	.LLST23:
 10605 0521 30000000 		.4byte	.LVL105
 10606 0525 34000000 		.4byte	.LVL106
 10607 0529 0100     		.2byte	0x1
 10608 052b 51       		.byte	0x51
 10609 052c 00000000 		.4byte	0
 10610 0530 00000000 		.4byte	0
 10611              	.LLST24:
 10612 0534 00000000 		.4byte	.LVL107
 10613 0538 2A000000 		.4byte	.LVL109
 10614 053c 0100     		.2byte	0x1
 10615 053e 50       		.byte	0x50
 10616 053f 2A000000 		.4byte	.LVL109
 10617 0543 42000000 		.4byte	.LVL113
 10618 0547 0100     		.2byte	0x1
 10619 0549 54       		.byte	0x54
 10620 054a 42000000 		.4byte	.LVL113
 10621 054e 4C000000 		.4byte	.LFE70
 10622 0552 0400     		.2byte	0x4
 10623 0554 F3       		.byte	0xf3
 10624 0555 01       		.uleb128 0x1
 10625 0556 50       		.byte	0x50
 10626 0557 9F       		.byte	0x9f
 10627 0558 00000000 		.4byte	0
 10628 055c 00000000 		.4byte	0
 10629              	.LLST25:
 10630 0560 00000000 		.4byte	.LVL107
 10631 0564 08000000 		.4byte	.LVL108
 10632 0568 0100     		.2byte	0x1
 10633 056a 51       		.byte	0x51
 10634 056b 08000000 		.4byte	.LVL108
 10635 056f 4C000000 		.4byte	.LFE70
 10636 0573 0400     		.2byte	0x4
 10637 0575 F3       		.byte	0xf3
 10638 0576 01       		.uleb128 0x1
 10639 0577 51       		.byte	0x51
 10640 0578 9F       		.byte	0x9f
 10641 0579 00000000 		.4byte	0
 10642 057d 00000000 		.4byte	0
 10643              	.LLST26:
 10644 0581 2E000000 		.4byte	.LVL110
 10645 0585 3E000000 		.4byte	.LVL111
 10646 0589 0100     		.2byte	0x1
 10647 058b 50       		.byte	0x50
 10648 058c 00000000 		.4byte	0
 10649 0590 00000000 		.4byte	0
 10650              	.LLST27:
 10651 0594 06000000 		.4byte	.LVL114
 10652 0598 1A000000 		.4byte	.LVL117
 10653 059c 0100     		.2byte	0x1
 10654 059e 54       		.byte	0x54
 10655 059f 00000000 		.4byte	0
 10656 05a3 00000000 		.4byte	0
 10657              	.LLST28:
 10658 05a7 00000000 		.4byte	.LVL118
ARM GAS  C:\Users\Phuong\AppData\Local\Temp\cczg95Bp.s 			page 235


 10659 05ab 08000000 		.4byte	.LVL119
 10660 05af 0100     		.2byte	0x1
 10661 05b1 50       		.byte	0x50
 10662 05b2 08000000 		.4byte	.LVL119
 10663 05b6 18000000 		.4byte	.LVL122
 10664 05ba 0100     		.2byte	0x1
 10665 05bc 54       		.byte	0x54
 10666 05bd 18000000 		.4byte	.LVL122
 10667 05c1 1A000000 		.4byte	.LFE78
 10668 05c5 0400     		.2byte	0x4
 10669 05c7 F3       		.byte	0xf3
 10670 05c8 01       		.uleb128 0x1
 10671 05c9 50       		.byte	0x50
 10672 05ca 9F       		.byte	0x9f
 10673 05cb 00000000 		.4byte	0
 10674 05cf 00000000 		.4byte	0
 10675              	.LLST29:
 10676 05d3 00000000 		.4byte	.LVL123
 10677 05d7 09000000 		.4byte	.LVL125-1
 10678 05db 0100     		.2byte	0x1
 10679 05dd 50       		.byte	0x50
 10680 05de 0A000000 		.4byte	.LVL125
 10681 05e2 0C000000 		.4byte	.LVL126
 10682 05e6 0100     		.2byte	0x1
 10683 05e8 54       		.byte	0x54
 10684 05e9 0C000000 		.4byte	.LVL126
 10685 05ed 12000000 		.4byte	.LFE77
 10686 05f1 0100     		.2byte	0x1
 10687 05f3 50       		.byte	0x50
 10688 05f4 00000000 		.4byte	0
 10689 05f8 00000000 		.4byte	0
 10690              	.LLST30:
 10691 05fc 06000000 		.4byte	.LVL124
 10692 0600 0C000000 		.4byte	.LVL126
 10693 0604 0100     		.2byte	0x1
 10694 0606 54       		.byte	0x54
 10695 0607 00000000 		.4byte	0
 10696 060b 00000000 		.4byte	0
 10697              	.LLST31:
 10698 060f 00000000 		.4byte	.LVL128
 10699 0613 0A000000 		.4byte	.LVL129
 10700 0617 0100     		.2byte	0x1
 10701 0619 50       		.byte	0x50
 10702 061a 0A000000 		.4byte	.LVL129
 10703 061e 26000000 		.4byte	.LVL135
 10704 0622 0100     		.2byte	0x1
 10705 0624 55       		.byte	0x55
 10706 0625 26000000 		.4byte	.LVL135
 10707 0629 30000000 		.4byte	.LFE80
 10708 062d 0400     		.2byte	0x4
 10709 062f F3       		.byte	0xf3
 10710 0630 01       		.uleb128 0x1
 10711 0631 50       		.byte	0x50
 10712 0632 9F       		.byte	0x9f
 10713 0633 00000000 		.4byte	0
 10714 0637 00000000 		.4byte	0
 10715              	.LLST32:
ARM GAS  C:\Users\Phuong\AppData\Local\Temp\cczg95Bp.s 			page 236


 10716 063b 10000000 		.4byte	.LVL131
 10717 063f 19000000 		.4byte	.LVL132-1
 10718 0643 0100     		.2byte	0x1
 10719 0645 50       		.byte	0x50
 10720 0646 19000000 		.4byte	.LVL132-1
 10721 064a 26000000 		.4byte	.LVL134
 10722 064e 0100     		.2byte	0x1
 10723 0650 54       		.byte	0x54
 10724 0651 00000000 		.4byte	0
 10725 0655 00000000 		.4byte	0
 10726              	.LLST33:
 10727 0659 0A000000 		.4byte	.LVL141
 10728 065d 0C000000 		.4byte	.LVL142
 10729 0661 0100     		.2byte	0x1
 10730 0663 50       		.byte	0x50
 10731 0664 00000000 		.4byte	0
 10732 0668 00000000 		.4byte	0
 10733              	.LLST34:
 10734 066c 00000000 		.4byte	.LVL144
 10735 0670 15000000 		.4byte	.LVL145-1
 10736 0674 0100     		.2byte	0x1
 10737 0676 50       		.byte	0x50
 10738 0677 15000000 		.4byte	.LVL145-1
 10739 067b 48000000 		.4byte	.LVL150
 10740 067f 0100     		.2byte	0x1
 10741 0681 54       		.byte	0x54
 10742 0682 48000000 		.4byte	.LVL150
 10743 0686 4A000000 		.4byte	.LFE94
 10744 068a 0400     		.2byte	0x4
 10745 068c F3       		.byte	0xf3
 10746 068d 01       		.uleb128 0x1
 10747 068e 50       		.byte	0x50
 10748 068f 9F       		.byte	0x9f
 10749 0690 00000000 		.4byte	0
 10750 0694 00000000 		.4byte	0
 10751              	.LLST35:
 10752 0698 1E000000 		.4byte	.LVL153
 10753 069c 46020000 		.4byte	.LVL188
 10754 06a0 0100     		.2byte	0x1
 10755 06a2 54       		.byte	0x54
 10756 06a3 46020000 		.4byte	.LVL188
 10757 06a7 6E020000 		.4byte	.LVL192
 10758 06ab 0100     		.2byte	0x1
 10759 06ad 57       		.byte	0x57
 10760 06ae 6E020000 		.4byte	.LVL192
 10761 06b2 70020000 		.4byte	.LVL193
 10762 06b6 0100     		.2byte	0x1
 10763 06b8 54       		.byte	0x54
 10764 06b9 70020000 		.4byte	.LVL193
 10765 06bd BC020000 		.4byte	.LVL203
 10766 06c1 0100     		.2byte	0x1
 10767 06c3 55       		.byte	0x55
 10768 06c4 BC020000 		.4byte	.LVL203
 10769 06c8 C6020000 		.4byte	.LVL205
 10770 06cc 0100     		.2byte	0x1
 10771 06ce 54       		.byte	0x54
 10772 06cf C6020000 		.4byte	.LVL205
ARM GAS  C:\Users\Phuong\AppData\Local\Temp\cczg95Bp.s 			page 237


 10773 06d3 F6020000 		.4byte	.LVL210
 10774 06d7 0100     		.2byte	0x1
 10775 06d9 55       		.byte	0x55
 10776 06da F6020000 		.4byte	.LVL210
 10777 06de 1C030000 		.4byte	.LVL213
 10778 06e2 0100     		.2byte	0x1
 10779 06e4 56       		.byte	0x56
 10780 06e5 1C030000 		.4byte	.LVL213
 10781 06e9 20030000 		.4byte	.LVL214
 10782 06ed 0200     		.2byte	0x2
 10783 06ef 75       		.byte	0x75
 10784 06f0 0C       		.sleb128 12
 10785 06f1 20030000 		.4byte	.LVL214
 10786 06f5 26030000 		.4byte	.LVL216
 10787 06f9 0100     		.2byte	0x1
 10788 06fb 55       		.byte	0x55
 10789 06fc 00000000 		.4byte	0
 10790 0700 00000000 		.4byte	0
 10791              	.LLST36:
 10792 0704 1A000000 		.4byte	.LVL152
 10793 0708 22000000 		.4byte	.LVL154
 10794 070c 0200     		.2byte	0x2
 10795 070e 30       		.byte	0x30
 10796 070f 9F       		.byte	0x9f
 10797 0710 22000000 		.4byte	.LVL154
 10798 0714 6E020000 		.4byte	.LVL192
 10799 0718 0100     		.2byte	0x1
 10800 071a 56       		.byte	0x56
 10801 071b 6E020000 		.4byte	.LVL192
 10802 071f B0020000 		.4byte	.LVL199
 10803 0723 0100     		.2byte	0x1
 10804 0725 54       		.byte	0x54
 10805 0726 B0020000 		.4byte	.LVL199
 10806 072a B2020000 		.4byte	.LVL200
 10807 072e 0100     		.2byte	0x1
 10808 0730 56       		.byte	0x56
 10809 0731 B2020000 		.4byte	.LVL200
 10810 0735 B6020000 		.4byte	.LVL201
 10811 0739 0100     		.2byte	0x1
 10812 073b 54       		.byte	0x54
 10813 073c B6020000 		.4byte	.LVL201
 10814 0740 B8020000 		.4byte	.LVL202
 10815 0744 0100     		.2byte	0x1
 10816 0746 56       		.byte	0x56
 10817 0747 B8020000 		.4byte	.LVL202
 10818 074b BC020000 		.4byte	.LVL203
 10819 074f 0100     		.2byte	0x1
 10820 0751 54       		.byte	0x54
 10821 0752 BC020000 		.4byte	.LVL203
 10822 0756 C2020000 		.4byte	.LVL204
 10823 075a 0100     		.2byte	0x1
 10824 075c 56       		.byte	0x56
 10825 075d C2020000 		.4byte	.LVL204
 10826 0761 C8020000 		.4byte	.LVL206
 10827 0765 0200     		.2byte	0x2
 10828 0767 30       		.byte	0x30
 10829 0768 9F       		.byte	0x9f
ARM GAS  C:\Users\Phuong\AppData\Local\Temp\cczg95Bp.s 			page 238


 10830 0769 C8020000 		.4byte	.LVL206
 10831 076d 1C030000 		.4byte	.LVL213
 10832 0771 0100     		.2byte	0x1
 10833 0773 54       		.byte	0x54
 10834 0774 1C030000 		.4byte	.LVL213
 10835 0778 20030000 		.4byte	.LVL214
 10836 077c 0100     		.2byte	0x1
 10837 077e 55       		.byte	0x55
 10838 077f 20030000 		.4byte	.LVL214
 10839 0783 26030000 		.4byte	.LVL215
 10840 0787 0100     		.2byte	0x1
 10841 0789 54       		.byte	0x54
 10842 078a 00000000 		.4byte	0
 10843 078e 00000000 		.4byte	0
 10844              	.LLST37:
 10845 0792 EA000000 		.4byte	.LVL162
 10846 0796 EC000000 		.4byte	.LVL163
 10847 079a 0100     		.2byte	0x1
 10848 079c 53       		.byte	0x53
 10849 079d 00000000 		.4byte	0
 10850 07a1 00000000 		.4byte	0
 10851              	.LLST38:
 10852 07a5 32000000 		.4byte	.LVL156
 10853 07a9 26010000 		.4byte	.LVL167
 10854 07ad 0200     		.2byte	0x2
 10855 07af 30       		.byte	0x30
 10856 07b0 9F       		.byte	0x9f
 10857 07b1 26010000 		.4byte	.LVL167
 10858 07b5 40010000 		.4byte	.LVL168
 10859 07b9 0100     		.2byte	0x1
 10860 07bb 55       		.byte	0x55
 10861 07bc 42010000 		.4byte	.LVL169
 10862 07c0 7A010000 		.4byte	.LVL171
 10863 07c4 0100     		.2byte	0x1
 10864 07c6 55       		.byte	0x55
 10865 07c7 7C010000 		.4byte	.LVL172
 10866 07cb F4010000 		.4byte	.LVL180
 10867 07cf 0100     		.2byte	0x1
 10868 07d1 55       		.byte	0x55
 10869 07d2 F6010000 		.4byte	.LVL181
 10870 07d6 08020000 		.4byte	.LVL182
 10871 07da 0100     		.2byte	0x1
 10872 07dc 55       		.byte	0x55
 10873 07dd 0A020000 		.4byte	.LVL183
 10874 07e1 12020000 		.4byte	.LVL184
 10875 07e5 0100     		.2byte	0x1
 10876 07e7 55       		.byte	0x55
 10877 07e8 6E020000 		.4byte	.LVL192
 10878 07ec 70020000 		.4byte	.LVL193
 10879 07f0 0100     		.2byte	0x1
 10880 07f2 55       		.byte	0x55
 10881 07f3 C8020000 		.4byte	.LVL206
 10882 07f7 DA020000 		.4byte	.LVL207
 10883 07fb 0200     		.2byte	0x2
 10884 07fd 30       		.byte	0x30
 10885 07fe 9F       		.byte	0x9f
 10886 07ff DA020000 		.4byte	.LVL207
ARM GAS  C:\Users\Phuong\AppData\Local\Temp\cczg95Bp.s 			page 239


 10887 0803 E3020000 		.4byte	.LVL208-1
 10888 0807 0100     		.2byte	0x1
 10889 0809 53       		.byte	0x53
 10890 080a 1C030000 		.4byte	.LVL213
 10891 080e 20030000 		.4byte	.LVL214
 10892 0812 0100     		.2byte	0x1
 10893 0814 53       		.byte	0x53
 10894 0815 00000000 		.4byte	0
 10895 0819 00000000 		.4byte	0
 10896              	.LLST39:
 10897 081d 32000000 		.4byte	.LVL156
 10898 0821 7C010000 		.4byte	.LVL172
 10899 0825 0200     		.2byte	0x2
 10900 0827 30       		.byte	0x30
 10901 0828 9F       		.byte	0x9f
 10902 0829 7C010000 		.4byte	.LVL172
 10903 082d 80010000 		.4byte	.LVL173
 10904 0831 0200     		.2byte	0x2
 10905 0833 31       		.byte	0x31
 10906 0834 9F       		.byte	0x9f
 10907 0835 80010000 		.4byte	.LVL173
 10908 0839 BC010000 		.4byte	.LVL178
 10909 083d 0200     		.2byte	0x2
 10910 083f 30       		.byte	0x30
 10911 0840 9F       		.byte	0x9f
 10912 0841 BC010000 		.4byte	.LVL178
 10913 0845 46020000 		.4byte	.LVL188
 10914 0849 0100     		.2byte	0x1
 10915 084b 57       		.byte	0x57
 10916 084c 6E020000 		.4byte	.LVL192
 10917 0850 BC020000 		.4byte	.LVL203
 10918 0854 0100     		.2byte	0x1
 10919 0856 57       		.byte	0x57
 10920 0857 00000000 		.4byte	0
 10921 085b 00000000 		.4byte	0
 10922              	.LLST40:
 10923 085f 0A000000 		.4byte	.LVL151
 10924 0863 1A000000 		.4byte	.LVL152
 10925 0867 0200     		.2byte	0x2
 10926 0869 30       		.byte	0x30
 10927 086a 9F       		.byte	0x9f
 10928 086b 9E010000 		.4byte	.LVL175
 10929 086f AE010000 		.4byte	.LVL176
 10930 0873 0100     		.2byte	0x1
 10931 0875 50       		.byte	0x50
 10932 0876 BA010000 		.4byte	.LVL177
 10933 087a BC010000 		.4byte	.LVL178
 10934 087e 0100     		.2byte	0x1
 10935 0880 50       		.byte	0x50
 10936 0881 94020000 		.4byte	.LVL194
 10937 0885 96020000 		.4byte	.LVL195
 10938 0889 0100     		.2byte	0x1
 10939 088b 50       		.byte	0x50
 10940 088c 98020000 		.4byte	.LVL196
 10941 0890 A8020000 		.4byte	.LVL197
 10942 0894 0100     		.2byte	0x1
 10943 0896 50       		.byte	0x50
ARM GAS  C:\Users\Phuong\AppData\Local\Temp\cczg95Bp.s 			page 240


 10944 0897 B8020000 		.4byte	.LVL202
 10945 089b BC020000 		.4byte	.LVL203
 10946 089f 0100     		.2byte	0x1
 10947 08a1 50       		.byte	0x50
 10948 08a2 00000000 		.4byte	0
 10949 08a6 00000000 		.4byte	0
 10950              	.LLST41:
 10951 08aa 58000000 		.4byte	.LVL157
 10952 08ae 73000000 		.4byte	.LVL158-1
 10953 08b2 0100     		.2byte	0x1
 10954 08b4 52       		.byte	0x52
 10955 08b5 14010000 		.4byte	.LVL165
 10956 08b9 18010000 		.4byte	.LVL166
 10957 08bd 0100     		.2byte	0x1
 10958 08bf 52       		.byte	0x52
 10959 08c0 00000000 		.4byte	0
 10960 08c4 00000000 		.4byte	0
 10961              	.LLST42:
 10962 08c8 BC000000 		.4byte	.LVL159
 10963 08cc C0000000 		.4byte	.LVL160
 10964 08d0 0100     		.2byte	0x1
 10965 08d2 53       		.byte	0x53
 10966 08d3 C0000000 		.4byte	.LVL160
 10967 08d7 CC000000 		.4byte	.LVL161
 10968 08db 0100     		.2byte	0x1
 10969 08dd 52       		.byte	0x52
 10970 08de 00000000 		.4byte	0
 10971 08e2 00000000 		.4byte	0
 10972              	.LLST43:
 10973 08e6 44020000 		.4byte	.LVL187
 10974 08ea 6C020000 		.4byte	.LVL191
 10975 08ee 0100     		.2byte	0x1
 10976 08f0 54       		.byte	0x54
 10977 08f1 00000000 		.4byte	0
 10978 08f5 00000000 		.4byte	0
 10979              	.LLST44:
 10980 08f9 12020000 		.4byte	.LVL184
 10981 08fd 6E020000 		.4byte	.LVL192
 10982 0901 0100     		.2byte	0x1
 10983 0903 55       		.byte	0x55
 10984 0904 00000000 		.4byte	0
 10985 0908 00000000 		.4byte	0
 10986              	.LLST45:
 10987 090c 44020000 		.4byte	.LVL187
 10988 0910 4D020000 		.4byte	.LVL189-1
 10989 0914 0100     		.2byte	0x1
 10990 0916 53       		.byte	0x53
 10991 0917 4D020000 		.4byte	.LVL189-1
 10992 091b 6E020000 		.4byte	.LVL192
 10993 091f 0100     		.2byte	0x1
 10994 0921 58       		.byte	0x58
 10995 0922 00000000 		.4byte	0
 10996 0926 00000000 		.4byte	0
 10997              	.LLST46:
 10998 092a 44020000 		.4byte	.LVL187
 10999 092e 4D020000 		.4byte	.LVL189-1
 11000 0932 0200     		.2byte	0x2
ARM GAS  C:\Users\Phuong\AppData\Local\Temp\cczg95Bp.s 			page 241


 11001 0934 74       		.byte	0x74
 11002 0935 14       		.sleb128 20
 11003 0936 00000000 		.4byte	0
 11004 093a 00000000 		.4byte	0
 11005              	.LLST47:
 11006 093e F4020000 		.4byte	.LVL209
 11007 0942 00030000 		.4byte	.LVL212
 11008 0946 0100     		.2byte	0x1
 11009 0948 55       		.byte	0x55
 11010 0949 00000000 		.4byte	0
 11011 094d 00000000 		.4byte	0
 11012              	.LLST48:
 11013 0951 00000000 		.4byte	.LVL217
 11014 0955 28000000 		.4byte	.LVL221
 11015 0959 0100     		.2byte	0x1
 11016 095b 50       		.byte	0x50
 11017 095c 28000000 		.4byte	.LVL221
 11018 0960 50000000 		.4byte	.LFE95
 11019 0964 0400     		.2byte	0x4
 11020 0966 F3       		.byte	0xf3
 11021 0967 01       		.uleb128 0x1
 11022 0968 50       		.byte	0x50
 11023 0969 9F       		.byte	0x9f
 11024 096a 00000000 		.4byte	0
 11025 096e 00000000 		.4byte	0
 11026              	.LLST49:
 11027 0972 00000000 		.4byte	.LVL217
 11028 0976 2B000000 		.4byte	.LVL222-1
 11029 097a 0100     		.2byte	0x1
 11030 097c 51       		.byte	0x51
 11031 097d 2B000000 		.4byte	.LVL222-1
 11032 0981 4E000000 		.4byte	.LVL224
 11033 0985 0100     		.2byte	0x1
 11034 0987 54       		.byte	0x54
 11035 0988 4E000000 		.4byte	.LVL224
 11036 098c 50000000 		.4byte	.LFE95
 11037 0990 0400     		.2byte	0x4
 11038 0992 F3       		.byte	0xf3
 11039 0993 01       		.uleb128 0x1
 11040 0994 51       		.byte	0x51
 11041 0995 9F       		.byte	0x9f
 11042 0996 00000000 		.4byte	0
 11043 099a 00000000 		.4byte	0
 11044              	.LLST50:
 11045 099e 10000000 		.4byte	.LVL218
 11046 09a2 22000000 		.4byte	.LVL220
 11047 09a6 0100     		.2byte	0x1
 11048 09a8 53       		.byte	0x53
 11049 09a9 00000000 		.4byte	0
 11050 09ad 00000000 		.4byte	0
 11051              	.LLST51:
 11052 09b1 00000000 		.4byte	.LVL225
 11053 09b5 32000000 		.4byte	.LVL227
 11054 09b9 0100     		.2byte	0x1
 11055 09bb 50       		.byte	0x50
 11056 09bc 32000000 		.4byte	.LVL227
 11057 09c0 9E000000 		.4byte	.LVL236
ARM GAS  C:\Users\Phuong\AppData\Local\Temp\cczg95Bp.s 			page 242


 11058 09c4 0100     		.2byte	0x1
 11059 09c6 54       		.byte	0x54
 11060 09c7 9E000000 		.4byte	.LVL236
 11061 09cb DE000000 		.4byte	.LVL241
 11062 09cf 0100     		.2byte	0x1
 11063 09d1 50       		.byte	0x50
 11064 09d2 DE000000 		.4byte	.LVL241
 11065 09d6 E6000000 		.4byte	.LVL243
 11066 09da 0100     		.2byte	0x1
 11067 09dc 54       		.byte	0x54
 11068 09dd E6000000 		.4byte	.LVL243
 11069 09e1 E8000000 		.4byte	.LVL244
 11070 09e5 0100     		.2byte	0x1
 11071 09e7 50       		.byte	0x50
 11072 09e8 E8000000 		.4byte	.LVL244
 11073 09ec 00010000 		.4byte	.LVL248
 11074 09f0 0100     		.2byte	0x1
 11075 09f2 54       		.byte	0x54
 11076 09f3 00010000 		.4byte	.LVL248
 11077 09f7 04010000 		.4byte	.LVL250
 11078 09fb 0100     		.2byte	0x1
 11079 09fd 50       		.byte	0x50
 11080 09fe 04010000 		.4byte	.LVL250
 11081 0a02 1A010000 		.4byte	.LVL253
 11082 0a06 0100     		.2byte	0x1
 11083 0a08 54       		.byte	0x54
 11084 0a09 1A010000 		.4byte	.LVL253
 11085 0a0d 1C010000 		.4byte	.LVL254
 11086 0a11 0100     		.2byte	0x1
 11087 0a13 50       		.byte	0x50
 11088 0a14 1C010000 		.4byte	.LVL254
 11089 0a18 22010000 		.4byte	.LVL256
 11090 0a1c 0100     		.2byte	0x1
 11091 0a1e 54       		.byte	0x54
 11092 0a1f 22010000 		.4byte	.LVL256
 11093 0a23 40010000 		.4byte	.LFE59
 11094 0a27 0400     		.2byte	0x4
 11095 0a29 F3       		.byte	0xf3
 11096 0a2a 01       		.uleb128 0x1
 11097 0a2b 50       		.byte	0x50
 11098 0a2c 9F       		.byte	0x9f
 11099 0a2d 00000000 		.4byte	0
 11100 0a31 00000000 		.4byte	0
 11101              	.LLST52:
 11102 0a35 00000000 		.4byte	.LVL225
 11103 0a39 30000000 		.4byte	.LVL226
 11104 0a3d 0100     		.2byte	0x1
 11105 0a3f 51       		.byte	0x51
 11106 0a40 30000000 		.4byte	.LVL226
 11107 0a44 9E000000 		.4byte	.LVL236
 11108 0a48 0400     		.2byte	0x4
 11109 0a4a F3       		.byte	0xf3
 11110 0a4b 01       		.uleb128 0x1
 11111 0a4c 51       		.byte	0x51
 11112 0a4d 9F       		.byte	0x9f
 11113 0a4e 9E000000 		.4byte	.LVL236
 11114 0a52 DC000000 		.4byte	.LVL240
ARM GAS  C:\Users\Phuong\AppData\Local\Temp\cczg95Bp.s 			page 243


 11115 0a56 0100     		.2byte	0x1
 11116 0a58 51       		.byte	0x51
 11117 0a59 DC000000 		.4byte	.LVL240
 11118 0a5d E6000000 		.4byte	.LVL243
 11119 0a61 0400     		.2byte	0x4
 11120 0a63 F3       		.byte	0xf3
 11121 0a64 01       		.uleb128 0x1
 11122 0a65 51       		.byte	0x51
 11123 0a66 9F       		.byte	0x9f
 11124 0a67 E6000000 		.4byte	.LVL243
 11125 0a6b EB000000 		.4byte	.LVL245-1
 11126 0a6f 0100     		.2byte	0x1
 11127 0a71 51       		.byte	0x51
 11128 0a72 EB000000 		.4byte	.LVL245-1
 11129 0a76 00010000 		.4byte	.LVL248
 11130 0a7a 0400     		.2byte	0x4
 11131 0a7c F3       		.byte	0xf3
 11132 0a7d 01       		.uleb128 0x1
 11133 0a7e 51       		.byte	0x51
 11134 0a7f 9F       		.byte	0x9f
 11135 0a80 00010000 		.4byte	.LVL248
 11136 0a84 02010000 		.4byte	.LVL249
 11137 0a88 0100     		.2byte	0x1
 11138 0a8a 51       		.byte	0x51
 11139 0a8b 02010000 		.4byte	.LVL249
 11140 0a8f 1A010000 		.4byte	.LVL253
 11141 0a93 0400     		.2byte	0x4
 11142 0a95 F3       		.byte	0xf3
 11143 0a96 01       		.uleb128 0x1
 11144 0a97 51       		.byte	0x51
 11145 0a98 9F       		.byte	0x9f
 11146 0a99 1A010000 		.4byte	.LVL253
 11147 0a9d 1F010000 		.4byte	.LVL255-1
 11148 0aa1 0100     		.2byte	0x1
 11149 0aa3 51       		.byte	0x51
 11150 0aa4 1F010000 		.4byte	.LVL255-1
 11151 0aa8 40010000 		.4byte	.LFE59
 11152 0aac 0400     		.2byte	0x4
 11153 0aae F3       		.byte	0xf3
 11154 0aaf 01       		.uleb128 0x1
 11155 0ab0 51       		.byte	0x51
 11156 0ab1 9F       		.byte	0x9f
 11157 0ab2 00000000 		.4byte	0
 11158 0ab6 00000000 		.4byte	0
 11159              	.LLST53:
 11160 0aba 4C000000 		.4byte	.LVL230
 11161 0abe 5E000000 		.4byte	.LVL232
 11162 0ac2 0100     		.2byte	0x1
 11163 0ac4 53       		.byte	0x53
 11164 0ac5 00000000 		.4byte	0
 11165 0ac9 00000000 		.4byte	0
 11166              	.LLST54:
 11167 0acd C4000000 		.4byte	.LVL237
 11168 0ad1 D6000000 		.4byte	.LVL239
 11169 0ad5 0100     		.2byte	0x1
 11170 0ad7 53       		.byte	0x53
 11171 0ad8 00000000 		.4byte	0
ARM GAS  C:\Users\Phuong\AppData\Local\Temp\cczg95Bp.s 			page 244


 11172 0adc 00000000 		.4byte	0
 11173              	.LLST55:
 11174 0ae0 00000000 		.4byte	.LVL257
 11175 0ae4 15000000 		.4byte	.LVL258-1
 11176 0ae8 0100     		.2byte	0x1
 11177 0aea 50       		.byte	0x50
 11178 0aeb 15000000 		.4byte	.LVL258-1
 11179 0aef 18000000 		.4byte	.LFE61
 11180 0af3 0400     		.2byte	0x4
 11181 0af5 F3       		.byte	0xf3
 11182 0af6 01       		.uleb128 0x1
 11183 0af7 50       		.byte	0x50
 11184 0af8 9F       		.byte	0x9f
 11185 0af9 00000000 		.4byte	0
 11186 0afd 00000000 		.4byte	0
 11187              	.LLST56:
 11188 0b01 00000000 		.4byte	.LVL259
 11189 0b05 04000000 		.4byte	.LVL260
 11190 0b09 0100     		.2byte	0x1
 11191 0b0b 50       		.byte	0x50
 11192 0b0c 04000000 		.4byte	.LVL260
 11193 0b10 26000000 		.4byte	.LFE81
 11194 0b14 0400     		.2byte	0x4
 11195 0b16 F3       		.byte	0xf3
 11196 0b17 01       		.uleb128 0x1
 11197 0b18 50       		.byte	0x50
 11198 0b19 9F       		.byte	0x9f
 11199 0b1a 00000000 		.4byte	0
 11200 0b1e 00000000 		.4byte	0
 11201              	.LLST57:
 11202 0b22 00000000 		.4byte	.LVL259
 11203 0b26 0A000000 		.4byte	.LVL261
 11204 0b2a 0100     		.2byte	0x1
 11205 0b2c 51       		.byte	0x51
 11206 0b2d 0A000000 		.4byte	.LVL261
 11207 0b31 0D000000 		.4byte	.LVL262-1
 11208 0b35 0100     		.2byte	0x1
 11209 0b37 50       		.byte	0x50
 11210 0b38 0D000000 		.4byte	.LVL262-1
 11211 0b3c 18000000 		.4byte	.LVL264
 11212 0b40 0400     		.2byte	0x4
 11213 0b42 F3       		.byte	0xf3
 11214 0b43 01       		.uleb128 0x1
 11215 0b44 51       		.byte	0x51
 11216 0b45 9F       		.byte	0x9f
 11217 0b46 18000000 		.4byte	.LVL264
 11218 0b4a 1F000000 		.4byte	.LVL265-1
 11219 0b4e 0100     		.2byte	0x1
 11220 0b50 50       		.byte	0x50
 11221 0b51 1F000000 		.4byte	.LVL265-1
 11222 0b55 22000000 		.4byte	.LVL266
 11223 0b59 0400     		.2byte	0x4
 11224 0b5b F3       		.byte	0xf3
 11225 0b5c 01       		.uleb128 0x1
 11226 0b5d 51       		.byte	0x51
 11227 0b5e 9F       		.byte	0x9f
 11228 0b5f 22000000 		.4byte	.LVL266
ARM GAS  C:\Users\Phuong\AppData\Local\Temp\cczg95Bp.s 			page 245


 11229 0b63 24000000 		.4byte	.LVL267
 11230 0b67 0100     		.2byte	0x1
 11231 0b69 50       		.byte	0x50
 11232 0b6a 24000000 		.4byte	.LVL267
 11233 0b6e 26000000 		.4byte	.LFE81
 11234 0b72 0400     		.2byte	0x4
 11235 0b74 F3       		.byte	0xf3
 11236 0b75 01       		.uleb128 0x1
 11237 0b76 51       		.byte	0x51
 11238 0b77 9F       		.byte	0x9f
 11239 0b78 00000000 		.4byte	0
 11240 0b7c 00000000 		.4byte	0
 11241              	.LLST58:
 11242 0b80 00000000 		.4byte	.LVL259
 11243 0b84 0D000000 		.4byte	.LVL262-1
 11244 0b88 0100     		.2byte	0x1
 11245 0b8a 52       		.byte	0x52
 11246 0b8b 0D000000 		.4byte	.LVL262-1
 11247 0b8f 18000000 		.4byte	.LVL264
 11248 0b93 0100     		.2byte	0x1
 11249 0b95 54       		.byte	0x54
 11250 0b96 18000000 		.4byte	.LVL264
 11251 0b9a 1F000000 		.4byte	.LVL265-1
 11252 0b9e 0100     		.2byte	0x1
 11253 0ba0 52       		.byte	0x52
 11254 0ba1 1F000000 		.4byte	.LVL265-1
 11255 0ba5 22000000 		.4byte	.LVL266
 11256 0ba9 0100     		.2byte	0x1
 11257 0bab 54       		.byte	0x54
 11258 0bac 22000000 		.4byte	.LVL266
 11259 0bb0 24000000 		.4byte	.LVL267
 11260 0bb4 0100     		.2byte	0x1
 11261 0bb6 52       		.byte	0x52
 11262 0bb7 24000000 		.4byte	.LVL267
 11263 0bbb 24000000 		.4byte	.LVL268
 11264 0bbf 0100     		.2byte	0x1
 11265 0bc1 54       		.byte	0x54
 11266 0bc2 24000000 		.4byte	.LVL268
 11267 0bc6 26000000 		.4byte	.LFE81
 11268 0bca 0400     		.2byte	0x4
 11269 0bcc F3       		.byte	0xf3
 11270 0bcd 01       		.uleb128 0x1
 11271 0bce 52       		.byte	0x52
 11272 0bcf 9F       		.byte	0x9f
 11273 0bd0 00000000 		.4byte	0
 11274 0bd4 00000000 		.4byte	0
 11275              	.LLST59:
 11276 0bd8 00000000 		.4byte	.LVL259
 11277 0bdc 0D000000 		.4byte	.LVL262-1
 11278 0be0 0100     		.2byte	0x1
 11279 0be2 53       		.byte	0x53
 11280 0be3 0D000000 		.4byte	.LVL262-1
 11281 0be7 18000000 		.4byte	.LVL264
 11282 0beb 0400     		.2byte	0x4
 11283 0bed F3       		.byte	0xf3
 11284 0bee 01       		.uleb128 0x1
 11285 0bef 53       		.byte	0x53
ARM GAS  C:\Users\Phuong\AppData\Local\Temp\cczg95Bp.s 			page 246


 11286 0bf0 9F       		.byte	0x9f
 11287 0bf1 18000000 		.4byte	.LVL264
 11288 0bf5 1F000000 		.4byte	.LVL265-1
 11289 0bf9 0100     		.2byte	0x1
 11290 0bfb 53       		.byte	0x53
 11291 0bfc 1F000000 		.4byte	.LVL265-1
 11292 0c00 22000000 		.4byte	.LVL266
 11293 0c04 0400     		.2byte	0x4
 11294 0c06 F3       		.byte	0xf3
 11295 0c07 01       		.uleb128 0x1
 11296 0c08 53       		.byte	0x53
 11297 0c09 9F       		.byte	0x9f
 11298 0c0a 22000000 		.4byte	.LVL266
 11299 0c0e 24000000 		.4byte	.LVL267
 11300 0c12 0100     		.2byte	0x1
 11301 0c14 53       		.byte	0x53
 11302 0c15 24000000 		.4byte	.LVL267
 11303 0c19 26000000 		.4byte	.LFE81
 11304 0c1d 0400     		.2byte	0x4
 11305 0c1f F3       		.byte	0xf3
 11306 0c20 01       		.uleb128 0x1
 11307 0c21 53       		.byte	0x53
 11308 0c22 9F       		.byte	0x9f
 11309 0c23 00000000 		.4byte	0
 11310 0c27 00000000 		.4byte	0
 11311              	.LLST60:
 11312 0c2b 00000000 		.4byte	.LVL269
 11313 0c2f 1C000000 		.4byte	.LVL271
 11314 0c33 0100     		.2byte	0x1
 11315 0c35 50       		.byte	0x50
 11316 0c36 1C000000 		.4byte	.LVL271
 11317 0c3a 1D000000 		.4byte	.LVL272-1
 11318 0c3e 0100     		.2byte	0x1
 11319 0c40 51       		.byte	0x51
 11320 0c41 1D000000 		.4byte	.LVL272-1
 11321 0c45 20000000 		.4byte	.LVL273
 11322 0c49 0100     		.2byte	0x1
 11323 0c4b 54       		.byte	0x54
 11324 0c4c 20000000 		.4byte	.LVL273
 11325 0c50 28000000 		.4byte	.LVL274
 11326 0c54 0100     		.2byte	0x1
 11327 0c56 50       		.byte	0x50
 11328 0c57 28000000 		.4byte	.LVL274
 11329 0c5b 74000000 		.4byte	.LVL287
 11330 0c5f 0100     		.2byte	0x1
 11331 0c61 54       		.byte	0x54
 11332 0c62 74000000 		.4byte	.LVL287
 11333 0c66 7C000000 		.4byte	.LFE76
 11334 0c6a 0400     		.2byte	0x4
 11335 0c6c F3       		.byte	0xf3
 11336 0c6d 01       		.uleb128 0x1
 11337 0c6e 50       		.byte	0x50
 11338 0c6f 9F       		.byte	0x9f
 11339 0c70 00000000 		.4byte	0
 11340 0c74 00000000 		.4byte	0
 11341              	.LLST61:
 11342 0c78 1E000000 		.4byte	.LVL272
ARM GAS  C:\Users\Phuong\AppData\Local\Temp\cczg95Bp.s 			page 247


 11343 0c7c 20000000 		.4byte	.LVL273
 11344 0c80 0100     		.2byte	0x1
 11345 0c82 50       		.byte	0x50
 11346 0c83 2C000000 		.4byte	.LVL275
 11347 0c87 4A000000 		.4byte	.LVL277
 11348 0c8b 0100     		.2byte	0x1
 11349 0c8d 50       		.byte	0x50
 11350 0c8e 52000000 		.4byte	.LVL278
 11351 0c92 56000000 		.4byte	.LVL279
 11352 0c96 0100     		.2byte	0x1
 11353 0c98 50       		.byte	0x50
 11354 0c99 5C000000 		.4byte	.LVL280
 11355 0c9d 60000000 		.4byte	.LVL281
 11356 0ca1 0100     		.2byte	0x1
 11357 0ca3 50       		.byte	0x50
 11358 0ca4 68000000 		.4byte	.LVL282
 11359 0ca8 6A000000 		.4byte	.LVL283
 11360 0cac 0100     		.2byte	0x1
 11361 0cae 50       		.byte	0x50
 11362 0caf 00000000 		.4byte	0
 11363 0cb3 00000000 		.4byte	0
 11364              	.LLST62:
 11365 0cb7 08000000 		.4byte	.LVL270
 11366 0cbb 74000000 		.4byte	.LVL288
 11367 0cbf 0100     		.2byte	0x1
 11368 0cc1 57       		.byte	0x57
 11369 0cc2 00000000 		.4byte	0
 11370 0cc6 00000000 		.4byte	0
 11371              	.LLST63:
 11372 0cca 08000000 		.4byte	.LVL270
 11373 0cce 44000000 		.4byte	.LVL276
 11374 0cd2 0100     		.2byte	0x1
 11375 0cd4 55       		.byte	0x55
 11376 0cd5 5C000000 		.4byte	.LVL280
 11377 0cd9 6C000000 		.4byte	.LVL284
 11378 0cdd 0100     		.2byte	0x1
 11379 0cdf 55       		.byte	0x55
 11380 0ce0 70000000 		.4byte	.LVL285
 11381 0ce4 74000000 		.4byte	.LVL286
 11382 0ce8 0100     		.2byte	0x1
 11383 0cea 55       		.byte	0x55
 11384 0ceb 00000000 		.4byte	0
 11385 0cef 00000000 		.4byte	0
 11386              	.LLST64:
 11387 0cf3 0E000000 		.4byte	.LVL289
 11388 0cf7 66000000 		.4byte	.LVL295
 11389 0cfb 0100     		.2byte	0x1
 11390 0cfd 54       		.byte	0x54
 11391 0cfe 68000000 		.4byte	.LVL296
 11392 0d02 6C000000 		.4byte	.LVL297
 11393 0d06 0100     		.2byte	0x1
 11394 0d08 54       		.byte	0x54
 11395 0d09 00000000 		.4byte	0
 11396 0d0d 00000000 		.4byte	0
 11397              	.LLST65:
 11398 0d11 4A000000 		.4byte	.LVL292
 11399 0d15 64000000 		.4byte	.LVL294
ARM GAS  C:\Users\Phuong\AppData\Local\Temp\cczg95Bp.s 			page 248


 11400 0d19 0100     		.2byte	0x1
 11401 0d1b 55       		.byte	0x55
 11402 0d1c 00000000 		.4byte	0
 11403 0d20 00000000 		.4byte	0
 11404              	.LLST66:
 11405 0d24 00000000 		.4byte	.LVL300
 11406 0d28 23000000 		.4byte	.LVL303-1
 11407 0d2c 0100     		.2byte	0x1
 11408 0d2e 50       		.byte	0x50
 11409 0d2f 23000000 		.4byte	.LVL303-1
 11410 0d33 26000000 		.4byte	.LVL304
 11411 0d37 0100     		.2byte	0x1
 11412 0d39 54       		.byte	0x54
 11413 0d3a 26000000 		.4byte	.LVL304
 11414 0d3e 28000000 		.4byte	.LVL305
 11415 0d42 0100     		.2byte	0x1
 11416 0d44 50       		.byte	0x50
 11417 0d45 28000000 		.4byte	.LVL305
 11418 0d49 50000000 		.4byte	.LVL308
 11419 0d4d 0100     		.2byte	0x1
 11420 0d4f 54       		.byte	0x54
 11421 0d50 50000000 		.4byte	.LVL308
 11422 0d54 52000000 		.4byte	.LVL309
 11423 0d58 0100     		.2byte	0x1
 11424 0d5a 50       		.byte	0x50
 11425 0d5b 52000000 		.4byte	.LVL309
 11426 0d5f 5E000000 		.4byte	.LVL311
 11427 0d63 0100     		.2byte	0x1
 11428 0d65 54       		.byte	0x54
 11429 0d66 5E000000 		.4byte	.LVL311
 11430 0d6a 60000000 		.4byte	.LFE62
 11431 0d6e 0400     		.2byte	0x4
 11432 0d70 F3       		.byte	0xf3
 11433 0d71 01       		.uleb128 0x1
 11434 0d72 50       		.byte	0x50
 11435 0d73 9F       		.byte	0x9f
 11436 0d74 00000000 		.4byte	0
 11437 0d78 00000000 		.4byte	0
 11438              	.LLST67:
 11439 0d7c 00000000 		.4byte	.LVL300
 11440 0d80 20000000 		.4byte	.LVL302
 11441 0d84 0100     		.2byte	0x1
 11442 0d86 51       		.byte	0x51
 11443 0d87 20000000 		.4byte	.LVL302
 11444 0d8b 26000000 		.4byte	.LVL304
 11445 0d8f 0100     		.2byte	0x1
 11446 0d91 55       		.byte	0x55
 11447 0d92 26000000 		.4byte	.LVL304
 11448 0d96 2F000000 		.4byte	.LVL306-1
 11449 0d9a 0100     		.2byte	0x1
 11450 0d9c 51       		.byte	0x51
 11451 0d9d 2F000000 		.4byte	.LVL306-1
 11452 0da1 50000000 		.4byte	.LVL308
 11453 0da5 0100     		.2byte	0x1
 11454 0da7 55       		.byte	0x55
 11455 0da8 50000000 		.4byte	.LVL308
 11456 0dac 56000000 		.4byte	.LVL310
ARM GAS  C:\Users\Phuong\AppData\Local\Temp\cczg95Bp.s 			page 249


 11457 0db0 0100     		.2byte	0x1
 11458 0db2 51       		.byte	0x51
 11459 0db3 56000000 		.4byte	.LVL310
 11460 0db7 5E000000 		.4byte	.LVL312
 11461 0dbb 0100     		.2byte	0x1
 11462 0dbd 55       		.byte	0x55
 11463 0dbe 5E000000 		.4byte	.LVL312
 11464 0dc2 60000000 		.4byte	.LFE62
 11465 0dc6 0400     		.2byte	0x4
 11466 0dc8 F3       		.byte	0xf3
 11467 0dc9 01       		.uleb128 0x1
 11468 0dca 51       		.byte	0x51
 11469 0dcb 9F       		.byte	0x9f
 11470 0dcc 00000000 		.4byte	0
 11471 0dd0 00000000 		.4byte	0
 11472              	.LLST68:
 11473 0dd4 00000000 		.4byte	.LVL300
 11474 0dd8 14000000 		.4byte	.LVL301
 11475 0ddc 0100     		.2byte	0x1
 11476 0dde 52       		.byte	0x52
 11477 0ddf 14000000 		.4byte	.LVL301
 11478 0de3 50000000 		.4byte	.LVL308
 11479 0de7 0100     		.2byte	0x1
 11480 0de9 56       		.byte	0x56
 11481 0dea 50000000 		.4byte	.LVL308
 11482 0dee 56000000 		.4byte	.LVL310
 11483 0df2 0100     		.2byte	0x1
 11484 0df4 52       		.byte	0x52
 11485 0df5 56000000 		.4byte	.LVL310
 11486 0df9 5E000000 		.4byte	.LVL313
 11487 0dfd 0100     		.2byte	0x1
 11488 0dff 56       		.byte	0x56
 11489 0e00 5E000000 		.4byte	.LVL313
 11490 0e04 60000000 		.4byte	.LFE62
 11491 0e08 0400     		.2byte	0x4
 11492 0e0a F3       		.byte	0xf3
 11493 0e0b 01       		.uleb128 0x1
 11494 0e0c 52       		.byte	0x52
 11495 0e0d 9F       		.byte	0x9f
 11496 0e0e 00000000 		.4byte	0
 11497 0e12 00000000 		.4byte	0
 11498              	.LLST69:
 11499 0e16 00000000 		.4byte	.LVL314
 11500 0e1a 1A000000 		.4byte	.LVL316
 11501 0e1e 0100     		.2byte	0x1
 11502 0e20 50       		.byte	0x50
 11503 0e21 1A000000 		.4byte	.LVL316
 11504 0e25 1D000000 		.4byte	.LVL317-1
 11505 0e29 0100     		.2byte	0x1
 11506 0e2b 51       		.byte	0x51
 11507 0e2c 1D000000 		.4byte	.LVL317-1
 11508 0e30 28000000 		.4byte	.LVL319
 11509 0e34 0100     		.2byte	0x1
 11510 0e36 54       		.byte	0x54
 11511 0e37 28000000 		.4byte	.LVL319
 11512 0e3b 74000000 		.4byte	.LVL332
 11513 0e3f 0100     		.2byte	0x1
ARM GAS  C:\Users\Phuong\AppData\Local\Temp\cczg95Bp.s 			page 250


 11514 0e41 50       		.byte	0x50
 11515 0e42 74000000 		.4byte	.LVL332
 11516 0e46 80000000 		.4byte	.LVL334
 11517 0e4a 0100     		.2byte	0x1
 11518 0e4c 54       		.byte	0x54
 11519 0e4d 80000000 		.4byte	.LVL334
 11520 0e51 86000000 		.4byte	.LVL335
 11521 0e55 0100     		.2byte	0x1
 11522 0e57 50       		.byte	0x50
 11523 0e58 86000000 		.4byte	.LVL335
 11524 0e5c D8000000 		.4byte	.LVL343
 11525 0e60 0100     		.2byte	0x1
 11526 0e62 54       		.byte	0x54
 11527 0e63 D8000000 		.4byte	.LVL343
 11528 0e67 F4000000 		.4byte	.LFE63
 11529 0e6b 0400     		.2byte	0x4
 11530 0e6d F3       		.byte	0xf3
 11531 0e6e 01       		.uleb128 0x1
 11532 0e6f 50       		.byte	0x50
 11533 0e70 9F       		.byte	0x9f
 11534 0e71 00000000 		.4byte	0
 11535 0e75 00000000 		.4byte	0
 11536              	.LLST70:
 11537 0e79 00000000 		.4byte	.LVL314
 11538 0e7d 18000000 		.4byte	.LVL315
 11539 0e81 0100     		.2byte	0x1
 11540 0e83 51       		.byte	0x51
 11541 0e84 18000000 		.4byte	.LVL315
 11542 0e88 28000000 		.4byte	.LVL319
 11543 0e8c 0100     		.2byte	0x1
 11544 0e8e 57       		.byte	0x57
 11545 0e8f 28000000 		.4byte	.LVL319
 11546 0e93 72000000 		.4byte	.LVL331
 11547 0e97 0100     		.2byte	0x1
 11548 0e99 51       		.byte	0x51
 11549 0e9a 72000000 		.4byte	.LVL331
 11550 0e9e 80000000 		.4byte	.LVL334
 11551 0ea2 0100     		.2byte	0x1
 11552 0ea4 57       		.byte	0x57
 11553 0ea5 80000000 		.4byte	.LVL334
 11554 0ea9 86000000 		.4byte	.LVL335
 11555 0ead 0100     		.2byte	0x1
 11556 0eaf 51       		.byte	0x51
 11557 0eb0 86000000 		.4byte	.LVL335
 11558 0eb4 F4000000 		.4byte	.LFE63
 11559 0eb8 0400     		.2byte	0x4
 11560 0eba F3       		.byte	0xf3
 11561 0ebb 01       		.uleb128 0x1
 11562 0ebc 51       		.byte	0x51
 11563 0ebd 9F       		.byte	0x9f
 11564 0ebe 00000000 		.4byte	0
 11565 0ec2 00000000 		.4byte	0
 11566              	.LLST71:
 11567 0ec6 2C000000 		.4byte	.LVL320
 11568 0eca 2E000000 		.4byte	.LVL321
 11569 0ece 0100     		.2byte	0x1
 11570 0ed0 52       		.byte	0x52
ARM GAS  C:\Users\Phuong\AppData\Local\Temp\cczg95Bp.s 			page 251


 11571 0ed1 2E000000 		.4byte	.LVL321
 11572 0ed5 D6000000 		.4byte	.LVL342
 11573 0ed9 0100     		.2byte	0x1
 11574 0edb 59       		.byte	0x59
 11575 0edc 00000000 		.4byte	0
 11576 0ee0 00000000 		.4byte	0
 11577              	.LLST72:
 11578 0ee4 30000000 		.4byte	.LVL322
 11579 0ee8 32000000 		.4byte	.LVL323
 11580 0eec 0100     		.2byte	0x1
 11581 0eee 52       		.byte	0x52
 11582 0eef 32000000 		.4byte	.LVL323
 11583 0ef3 D6000000 		.4byte	.LVL342
 11584 0ef7 0100     		.2byte	0x1
 11585 0ef9 58       		.byte	0x58
 11586 0efa 00000000 		.4byte	0
 11587 0efe 00000000 		.4byte	0
 11588              	.LLST73:
 11589 0f02 34000000 		.4byte	.LVL324
 11590 0f06 D6000000 		.4byte	.LVL342
 11591 0f0a 0100     		.2byte	0x1
 11592 0f0c 55       		.byte	0x55
 11593 0f0d 00000000 		.4byte	0
 11594 0f11 00000000 		.4byte	0
 11595              	.LLST74:
 11596 0f15 36000000 		.4byte	.LVL325
 11597 0f19 D6000000 		.4byte	.LVL342
 11598 0f1d 0100     		.2byte	0x1
 11599 0f1f 56       		.byte	0x56
 11600 0f20 00000000 		.4byte	0
 11601 0f24 00000000 		.4byte	0
 11602              	.LLST75:
 11603 0f28 28000000 		.4byte	.LVL319
 11604 0f2c 6C000000 		.4byte	.LVL329
 11605 0f30 0200     		.2byte	0x2
 11606 0f32 30       		.byte	0x30
 11607 0f33 9F       		.byte	0x9f
 11608 0f34 6C000000 		.4byte	.LVL329
 11609 0f38 72000000 		.4byte	.LVL331
 11610 0f3c 0100     		.2byte	0x1
 11611 0f3e 51       		.byte	0x51
 11612 0f3f 72000000 		.4byte	.LVL331
 11613 0f43 80000000 		.4byte	.LVL334
 11614 0f47 0100     		.2byte	0x1
 11615 0f49 57       		.byte	0x57
 11616 0f4a 80000000 		.4byte	.LVL334
 11617 0f4e 86000000 		.4byte	.LVL335
 11618 0f52 0200     		.2byte	0x2
 11619 0f54 30       		.byte	0x30
 11620 0f55 9F       		.byte	0x9f
 11621 0f56 86000000 		.4byte	.LVL335
 11622 0f5a D6000000 		.4byte	.LVL342
 11623 0f5e 0100     		.2byte	0x1
 11624 0f60 57       		.byte	0x57
 11625 0f61 00000000 		.4byte	0
 11626 0f65 00000000 		.4byte	0
 11627              	.LLST76:
ARM GAS  C:\Users\Phuong\AppData\Local\Temp\cczg95Bp.s 			page 252


 11628 0f69 28000000 		.4byte	.LVL319
 11629 0f6d 70000000 		.4byte	.LVL330
 11630 0f71 0200     		.2byte	0x2
 11631 0f73 30       		.byte	0x30
 11632 0f74 9F       		.byte	0x9f
 11633 0f75 70000000 		.4byte	.LVL330
 11634 0f79 80000000 		.4byte	.LVL334
 11635 0f7d 0100     		.2byte	0x1
 11636 0f7f 5A       		.byte	0x5a
 11637 0f80 80000000 		.4byte	.LVL334
 11638 0f84 86000000 		.4byte	.LVL335
 11639 0f88 0200     		.2byte	0x2
 11640 0f8a 30       		.byte	0x30
 11641 0f8b 9F       		.byte	0x9f
 11642 0f8c 86000000 		.4byte	.LVL335
 11643 0f90 D6000000 		.4byte	.LVL342
 11644 0f94 0100     		.2byte	0x1
 11645 0f96 5A       		.byte	0x5a
 11646 0f97 00000000 		.4byte	0
 11647 0f9b 00000000 		.4byte	0
 11648              	.LLST77:
 11649 0f9f C2000000 		.4byte	.LVL340
 11650 0fa3 C9000000 		.4byte	.LVL341-1
 11651 0fa7 0200     		.2byte	0x2
 11652 0fa9 74       		.byte	0x74
 11653 0faa 14       		.sleb128 20
 11654 0fab 00000000 		.4byte	0
 11655 0faf 00000000 		.4byte	0
 11656              	.LLST78:
 11657 0fb3 50000000 		.4byte	.LVL326
 11658 0fb7 62000000 		.4byte	.LVL328
 11659 0fbb 0100     		.2byte	0x1
 11660 0fbd 53       		.byte	0x53
 11661 0fbe 00000000 		.4byte	0
 11662 0fc2 00000000 		.4byte	0
 11663              	.LLST79:
 11664 0fc6 00000000 		.4byte	.LVL344
 11665 0fca 07000000 		.4byte	.LVL345-1
 11666 0fce 0100     		.2byte	0x1
 11667 0fd0 50       		.byte	0x50
 11668 0fd1 07000000 		.4byte	.LVL345-1
 11669 0fd5 0A000000 		.4byte	.LFE64
 11670 0fd9 0400     		.2byte	0x4
 11671 0fdb F3       		.byte	0xf3
 11672 0fdc 01       		.uleb128 0x1
 11673 0fdd 50       		.byte	0x50
 11674 0fde 9F       		.byte	0x9f
 11675 0fdf 00000000 		.4byte	0
 11676 0fe3 00000000 		.4byte	0
 11677              	.LLST80:
 11678 0fe7 00000000 		.4byte	.LVL346
 11679 0feb 04000000 		.4byte	.LVL347
 11680 0fef 0100     		.2byte	0x1
 11681 0ff1 50       		.byte	0x50
 11682 0ff2 04000000 		.4byte	.LVL347
 11683 0ff6 0E000000 		.4byte	.LFE66
 11684 0ffa 0400     		.2byte	0x4
ARM GAS  C:\Users\Phuong\AppData\Local\Temp\cczg95Bp.s 			page 253


 11685 0ffc F3       		.byte	0xf3
 11686 0ffd 01       		.uleb128 0x1
 11687 0ffe 50       		.byte	0x50
 11688 0fff 9F       		.byte	0x9f
 11689 1000 00000000 		.4byte	0
 11690 1004 00000000 		.4byte	0
 11691              	.LLST81:
 11692 1008 00000000 		.4byte	.LVL346
 11693 100c 07000000 		.4byte	.LVL348-1
 11694 1010 0100     		.2byte	0x1
 11695 1012 51       		.byte	0x51
 11696 1013 07000000 		.4byte	.LVL348-1
 11697 1017 0E000000 		.4byte	.LFE66
 11698 101b 0400     		.2byte	0x4
 11699 101d F3       		.byte	0xf3
 11700 101e 01       		.uleb128 0x1
 11701 101f 51       		.byte	0x51
 11702 1020 9F       		.byte	0x9f
 11703 1021 00000000 		.4byte	0
 11704 1025 00000000 		.4byte	0
 11705              	.LLST82:
 11706 1029 00000000 		.4byte	.LVL346
 11707 102d 07000000 		.4byte	.LVL348-1
 11708 1031 0100     		.2byte	0x1
 11709 1033 52       		.byte	0x52
 11710 1034 07000000 		.4byte	.LVL348-1
 11711 1038 0E000000 		.4byte	.LFE66
 11712 103c 0400     		.2byte	0x4
 11713 103e F3       		.byte	0xf3
 11714 103f 01       		.uleb128 0x1
 11715 1040 52       		.byte	0x52
 11716 1041 9F       		.byte	0x9f
 11717 1042 00000000 		.4byte	0
 11718 1046 00000000 		.4byte	0
 11719              	.LLST83:
 11720 104a 06000000 		.4byte	.LVL350
 11721 104e 29000000 		.4byte	.LVL355-1
 11722 1052 0100     		.2byte	0x1
 11723 1054 53       		.byte	0x53
 11724 1055 00000000 		.4byte	0
 11725 1059 00000000 		.4byte	0
 11726              	.LLST84:
 11727 105d 02000000 		.4byte	.LVL349
 11728 1061 0C000000 		.4byte	.LVL351
 11729 1065 0200     		.2byte	0x2
 11730 1067 30       		.byte	0x30
 11731 1068 9F       		.byte	0x9f
 11732 1069 0C000000 		.4byte	.LVL351
 11733 106d 29000000 		.4byte	.LVL355-1
 11734 1071 0100     		.2byte	0x1
 11735 1073 50       		.byte	0x50
 11736 1074 00000000 		.4byte	0
 11737 1078 00000000 		.4byte	0
 11738              	.LLST85:
 11739 107c 02000000 		.4byte	.LVL349
 11740 1080 0C000000 		.4byte	.LVL351
 11741 1084 0200     		.2byte	0x2
ARM GAS  C:\Users\Phuong\AppData\Local\Temp\cczg95Bp.s 			page 254


 11742 1086 30       		.byte	0x30
 11743 1087 9F       		.byte	0x9f
 11744 1088 0C000000 		.4byte	.LVL351
 11745 108c 1A000000 		.4byte	.LVL352
 11746 1090 0100     		.2byte	0x1
 11747 1092 51       		.byte	0x51
 11748 1093 1C000000 		.4byte	.LVL353
 11749 1097 29000000 		.4byte	.LVL355-1
 11750 109b 0100     		.2byte	0x1
 11751 109d 51       		.byte	0x51
 11752 109e 00000000 		.4byte	0
 11753 10a2 00000000 		.4byte	0
 11754              	.LLST86:
 11755 10a6 00000000 		.4byte	.LVL356
 11756 10aa 14000000 		.4byte	.LVL359
 11757 10ae 0100     		.2byte	0x1
 11758 10b0 50       		.byte	0x50
 11759 10b1 14000000 		.4byte	.LVL359
 11760 10b5 48000000 		.4byte	.LFE82
 11761 10b9 0400     		.2byte	0x4
 11762 10bb F3       		.byte	0xf3
 11763 10bc 01       		.uleb128 0x1
 11764 10bd 50       		.byte	0x50
 11765 10be 9F       		.byte	0x9f
 11766 10bf 00000000 		.4byte	0
 11767 10c3 00000000 		.4byte	0
 11768              	.LLST87:
 11769 10c7 10000000 		.4byte	.LVL358
 11770 10cb 3B000000 		.4byte	.LVL365-1
 11771 10cf 0100     		.2byte	0x1
 11772 10d1 53       		.byte	0x53
 11773 10d2 00000000 		.4byte	0
 11774 10d6 00000000 		.4byte	0
 11775              	.LLST88:
 11776 10da 0C000000 		.4byte	.LVL357
 11777 10de 16000000 		.4byte	.LVL360
 11778 10e2 0200     		.2byte	0x2
 11779 10e4 30       		.byte	0x30
 11780 10e5 9F       		.byte	0x9f
 11781 10e6 16000000 		.4byte	.LVL360
 11782 10ea 3B000000 		.4byte	.LVL365-1
 11783 10ee 0100     		.2byte	0x1
 11784 10f0 50       		.byte	0x50
 11785 10f1 00000000 		.4byte	0
 11786 10f5 00000000 		.4byte	0
 11787              	.LLST89:
 11788 10f9 0C000000 		.4byte	.LVL357
 11789 10fd 16000000 		.4byte	.LVL360
 11790 1101 0200     		.2byte	0x2
 11791 1103 30       		.byte	0x30
 11792 1104 9F       		.byte	0x9f
 11793 1105 16000000 		.4byte	.LVL360
 11794 1109 2C000000 		.4byte	.LVL362
 11795 110d 0100     		.2byte	0x1
 11796 110f 54       		.byte	0x54
 11797 1110 2E000000 		.4byte	.LVL363
 11798 1114 3C000000 		.4byte	.LVL366
ARM GAS  C:\Users\Phuong\AppData\Local\Temp\cczg95Bp.s 			page 255


 11799 1118 0100     		.2byte	0x1
 11800 111a 54       		.byte	0x54
 11801 111b 00000000 		.4byte	0
 11802 111f 00000000 		.4byte	0
 11803              	.LLST90:
 11804 1123 0C000000 		.4byte	.LVL357
 11805 1127 2A000000 		.4byte	.LVL361
 11806 112b 0100     		.2byte	0x1
 11807 112d 52       		.byte	0x52
 11808 112e 2E000000 		.4byte	.LVL363
 11809 1132 3B000000 		.4byte	.LVL365-1
 11810 1136 0100     		.2byte	0x1
 11811 1138 52       		.byte	0x52
 11812 1139 00000000 		.4byte	0
 11813 113d 00000000 		.4byte	0
 11814              	.LLST91:
 11815 1141 00000000 		.4byte	.LVL367
 11816 1145 06000000 		.4byte	.LVL368
 11817 1149 0100     		.2byte	0x1
 11818 114b 50       		.byte	0x50
 11819 114c 06000000 		.4byte	.LVL368
 11820 1150 20000000 		.4byte	.LVL374
 11821 1154 0100     		.2byte	0x1
 11822 1156 54       		.byte	0x54
 11823 1157 20000000 		.4byte	.LVL374
 11824 115b 22000000 		.4byte	.LFE98
 11825 115f 0400     		.2byte	0x4
 11826 1161 F3       		.byte	0xf3
 11827 1162 01       		.uleb128 0x1
 11828 1163 50       		.byte	0x50
 11829 1164 9F       		.byte	0x9f
 11830 1165 00000000 		.4byte	0
 11831 1169 00000000 		.4byte	0
 11832              	.LLST92:
 11833 116d 00000000 		.4byte	.LVL367
 11834 1171 08000000 		.4byte	.LVL369
 11835 1175 0100     		.2byte	0x1
 11836 1177 51       		.byte	0x51
 11837 1178 08000000 		.4byte	.LVL369
 11838 117c 22000000 		.4byte	.LFE98
 11839 1180 0400     		.2byte	0x4
 11840 1182 F3       		.byte	0xf3
 11841 1183 01       		.uleb128 0x1
 11842 1184 51       		.byte	0x51
 11843 1185 9F       		.byte	0x9f
 11844 1186 00000000 		.4byte	0
 11845 118a 00000000 		.4byte	0
 11846              	.LLST93:
 11847 118e 06000000 		.4byte	.LVL368
 11848 1192 08000000 		.4byte	.LVL369
 11849 1196 0100     		.2byte	0x1
 11850 1198 51       		.byte	0x51
 11851 1199 08000000 		.4byte	.LVL369
 11852 119d 15000000 		.4byte	.LVL371-1
 11853 11a1 0100     		.2byte	0x1
 11854 11a3 50       		.byte	0x50
 11855 11a4 16000000 		.4byte	.LVL371
ARM GAS  C:\Users\Phuong\AppData\Local\Temp\cczg95Bp.s 			page 256


 11856 11a8 1A000000 		.4byte	.LVL372
 11857 11ac 0100     		.2byte	0x1
 11858 11ae 55       		.byte	0x55
 11859 11af 1A000000 		.4byte	.LVL372
 11860 11b3 22000000 		.4byte	.LFE98
 11861 11b7 0100     		.2byte	0x1
 11862 11b9 50       		.byte	0x50
 11863 11ba 00000000 		.4byte	0
 11864 11be 00000000 		.4byte	0
 11865              	.LLST94:
 11866 11c2 12000000 		.4byte	.LVL370
 11867 11c6 1A000000 		.4byte	.LVL372
 11868 11ca 0100     		.2byte	0x1
 11869 11cc 55       		.byte	0x55
 11870 11cd 00000000 		.4byte	0
 11871 11d1 00000000 		.4byte	0
 11872              	.LLST95:
 11873 11d5 00000000 		.4byte	.LVL375
 11874 11d9 30000000 		.4byte	.LVL383
 11875 11dd 0100     		.2byte	0x1
 11876 11df 50       		.byte	0x50
 11877 11e0 30000000 		.4byte	.LVL383
 11878 11e4 40000000 		.4byte	.LFE83
 11879 11e8 0400     		.2byte	0x4
 11880 11ea F3       		.byte	0xf3
 11881 11eb 01       		.uleb128 0x1
 11882 11ec 50       		.byte	0x50
 11883 11ed 9F       		.byte	0x9f
 11884 11ee 00000000 		.4byte	0
 11885 11f2 00000000 		.4byte	0
 11886              	.LLST96:
 11887 11f6 06000000 		.4byte	.LVL377
 11888 11fa 33000000 		.4byte	.LVL384-1
 11889 11fe 0100     		.2byte	0x1
 11890 1200 53       		.byte	0x53
 11891 1201 00000000 		.4byte	0
 11892 1205 00000000 		.4byte	0
 11893              	.LLST97:
 11894 1209 02000000 		.4byte	.LVL376
 11895 120d 0C000000 		.4byte	.LVL378
 11896 1211 0200     		.2byte	0x2
 11897 1213 30       		.byte	0x30
 11898 1214 9F       		.byte	0x9f
 11899 1215 0C000000 		.4byte	.LVL378
 11900 1219 34000000 		.4byte	.LVL385
 11901 121d 0100     		.2byte	0x1
 11902 121f 54       		.byte	0x54
 11903 1220 00000000 		.4byte	0
 11904 1224 00000000 		.4byte	0
 11905              	.LLST98:
 11906 1228 02000000 		.4byte	.LVL376
 11907 122c 0C000000 		.4byte	.LVL378
 11908 1230 0200     		.2byte	0x2
 11909 1232 30       		.byte	0x30
 11910 1233 9F       		.byte	0x9f
 11911 1234 0C000000 		.4byte	.LVL378
 11912 1238 20000000 		.4byte	.LVL379
ARM GAS  C:\Users\Phuong\AppData\Local\Temp\cczg95Bp.s 			page 257


 11913 123c 0100     		.2byte	0x1
 11914 123e 51       		.byte	0x51
 11915 123f 22000000 		.4byte	.LVL380
 11916 1243 2E000000 		.4byte	.LVL382
 11917 1247 0100     		.2byte	0x1
 11918 1249 51       		.byte	0x51
 11919 124a 00000000 		.4byte	0
 11920 124e 00000000 		.4byte	0
 11921              	.LLST99:
 11922 1252 00000000 		.4byte	.LVL386
 11923 1256 0A000000 		.4byte	.LVL387
 11924 125a 0100     		.2byte	0x1
 11925 125c 50       		.byte	0x50
 11926 125d 0A000000 		.4byte	.LVL387
 11927 1261 38010000 		.4byte	.LFE85
 11928 1265 0400     		.2byte	0x4
 11929 1267 F3       		.byte	0xf3
 11930 1268 01       		.uleb128 0x1
 11931 1269 50       		.byte	0x50
 11932 126a 9F       		.byte	0x9f
 11933 126b 00000000 		.4byte	0
 11934 126f 00000000 		.4byte	0
 11935              	.LLST100:
 11936 1273 10000000 		.4byte	.LVL389
 11937 1277 15000000 		.4byte	.LVL390-1
 11938 127b 0100     		.2byte	0x1
 11939 127d 50       		.byte	0x50
 11940 127e 15000000 		.4byte	.LVL390-1
 11941 1282 22000000 		.4byte	.LVL392
 11942 1286 0100     		.2byte	0x1
 11943 1288 54       		.byte	0x54
 11944 1289 22000000 		.4byte	.LVL392
 11945 128d 26000000 		.4byte	.LVL393
 11946 1291 0100     		.2byte	0x1
 11947 1293 50       		.byte	0x50
 11948 1294 26000000 		.4byte	.LVL393
 11949 1298 36000000 		.4byte	.LVL396
 11950 129c 0100     		.2byte	0x1
 11951 129e 54       		.byte	0x54
 11952 129f 36000000 		.4byte	.LVL396
 11953 12a3 3A000000 		.4byte	.LVL397
 11954 12a7 0100     		.2byte	0x1
 11955 12a9 50       		.byte	0x50
 11956 12aa 3A000000 		.4byte	.LVL397
 11957 12ae 4A000000 		.4byte	.LVL400
 11958 12b2 0100     		.2byte	0x1
 11959 12b4 54       		.byte	0x54
 11960 12b5 4A000000 		.4byte	.LVL400
 11961 12b9 4E000000 		.4byte	.LVL401
 11962 12bd 0100     		.2byte	0x1
 11963 12bf 50       		.byte	0x50
 11964 12c0 4E000000 		.4byte	.LVL401
 11965 12c4 5E000000 		.4byte	.LVL404
 11966 12c8 0100     		.2byte	0x1
 11967 12ca 54       		.byte	0x54
 11968 12cb 5E000000 		.4byte	.LVL404
 11969 12cf A9000000 		.4byte	.LVL405-1
ARM GAS  C:\Users\Phuong\AppData\Local\Temp\cczg95Bp.s 			page 258


 11970 12d3 0100     		.2byte	0x1
 11971 12d5 50       		.byte	0x50
 11972 12d6 A9000000 		.4byte	.LVL405-1
 11973 12da FE000000 		.4byte	.LVL406
 11974 12de 0100     		.2byte	0x1
 11975 12e0 54       		.byte	0x54
 11976 12e1 FE000000 		.4byte	.LVL406
 11977 12e5 38010000 		.4byte	.LFE85
 11978 12e9 0100     		.2byte	0x1
 11979 12eb 50       		.byte	0x50
 11980 12ec 00000000 		.4byte	0
 11981 12f0 00000000 		.4byte	0
 11982              	.LLST101:
 11983 12f4 00000000 		.4byte	.LVL408
 11984 12f8 04000000 		.4byte	.LVL409
 11985 12fc 0100     		.2byte	0x1
 11986 12fe 50       		.byte	0x50
 11987 12ff 04000000 		.4byte	.LVL409
 11988 1303 0A000000 		.4byte	.LFE87
 11989 1307 0400     		.2byte	0x4
 11990 1309 F3       		.byte	0xf3
 11991 130a 01       		.uleb128 0x1
 11992 130b 50       		.byte	0x50
 11993 130c 9F       		.byte	0x9f
 11994 130d 00000000 		.4byte	0
 11995 1311 00000000 		.4byte	0
 11996              	.LLST102:
 11997 1315 00000000 		.4byte	.LVL411
 11998 1319 06000000 		.4byte	.LVL412
 11999 131d 0100     		.2byte	0x1
 12000 131f 50       		.byte	0x50
 12001 1320 06000000 		.4byte	.LVL412
 12002 1324 18000000 		.4byte	.LFE96
 12003 1328 0400     		.2byte	0x4
 12004 132a F3       		.byte	0xf3
 12005 132b 01       		.uleb128 0x1
 12006 132c 50       		.byte	0x50
 12007 132d 9F       		.byte	0x9f
 12008 132e 00000000 		.4byte	0
 12009 1332 00000000 		.4byte	0
 12010              	.LLST103:
 12011 1336 00000000 		.4byte	.LVL413
 12012 133a 06000000 		.4byte	.LVL414
 12013 133e 0100     		.2byte	0x1
 12014 1340 50       		.byte	0x50
 12015 1341 06000000 		.4byte	.LVL414
 12016 1345 24000000 		.4byte	.LVL419
 12017 1349 0400     		.2byte	0x4
 12018 134b F3       		.byte	0xf3
 12019 134c 01       		.uleb128 0x1
 12020 134d 50       		.byte	0x50
 12021 134e 9F       		.byte	0x9f
 12022 134f 00000000 		.4byte	0
 12023 1353 00000000 		.4byte	0
 12024              	.LLST104:
 12025 1357 00000000 		.4byte	.LVL413
 12026 135b 09000000 		.4byte	.LVL415-1
ARM GAS  C:\Users\Phuong\AppData\Local\Temp\cczg95Bp.s 			page 259


 12027 135f 0100     		.2byte	0x1
 12028 1361 51       		.byte	0x51
 12029 1362 09000000 		.4byte	.LVL415-1
 12030 1366 28000000 		.4byte	.LFE97
 12031 136a 0400     		.2byte	0x4
 12032 136c F3       		.byte	0xf3
 12033 136d 01       		.uleb128 0x1
 12034 136e 51       		.byte	0x51
 12035 136f 9F       		.byte	0x9f
 12036 1370 00000000 		.4byte	0
 12037 1374 00000000 		.4byte	0
 12038              	.LLST105:
 12039 1378 1A000000 		.4byte	.LVL417
 12040 137c 24000000 		.4byte	.LVL419
 12041 1380 0100     		.2byte	0x1
 12042 1382 53       		.byte	0x53
 12043 1383 00000000 		.4byte	0
 12044 1387 00000000 		.4byte	0
 12045              	.LLST106:
 12046 138b 0A000000 		.4byte	.LVL415
 12047 138f 26000000 		.4byte	.LVL420
 12048 1393 0100     		.2byte	0x1
 12049 1395 50       		.byte	0x50
 12050 1396 00000000 		.4byte	0
 12051 139a 00000000 		.4byte	0
 12052              	.LLST107:
 12053 139e 12000000 		.4byte	.LVL416
 12054 13a2 1C000000 		.4byte	.LVL418
 12055 13a6 0100     		.2byte	0x1
 12056 13a8 52       		.byte	0x52
 12057 13a9 1C000000 		.4byte	.LVL418
 12058 13ad 24000000 		.4byte	.LVL419
 12059 13b1 0200     		.2byte	0x2
 12060 13b3 70       		.byte	0x70
 12061 13b4 34       		.sleb128 52
 12062 13b5 00000000 		.4byte	0
 12063 13b9 00000000 		.4byte	0
 12064              	.LLST108:
 12065 13bd 00000000 		.4byte	.LVL421
 12066 13c1 3C000000 		.4byte	.LVL423
 12067 13c5 0100     		.2byte	0x1
 12068 13c7 50       		.byte	0x50
 12069 13c8 3C000000 		.4byte	.LVL423
 12070 13cc 3A010000 		.4byte	.LVL449
 12071 13d0 0100     		.2byte	0x1
 12072 13d2 54       		.byte	0x54
 12073 13d3 3A010000 		.4byte	.LVL449
 12074 13d7 3C010000 		.4byte	.LVL450
 12075 13db 0100     		.2byte	0x1
 12076 13dd 50       		.byte	0x50
 12077 13de 3C010000 		.4byte	.LVL450
 12078 13e2 40010000 		.4byte	.LVL451
 12079 13e6 0100     		.2byte	0x1
 12080 13e8 54       		.byte	0x54
 12081 13e9 40010000 		.4byte	.LVL451
 12082 13ed 42010000 		.4byte	.LVL452
 12083 13f1 0100     		.2byte	0x1
ARM GAS  C:\Users\Phuong\AppData\Local\Temp\cczg95Bp.s 			page 260


 12084 13f3 50       		.byte	0x50
 12085 13f4 42010000 		.4byte	.LVL452
 12086 13f8 46010000 		.4byte	.LVL453
 12087 13fc 0100     		.2byte	0x1
 12088 13fe 54       		.byte	0x54
 12089 13ff 46010000 		.4byte	.LVL453
 12090 1403 48010000 		.4byte	.LVL454
 12091 1407 0100     		.2byte	0x1
 12092 1409 50       		.byte	0x50
 12093 140a 48010000 		.4byte	.LVL454
 12094 140e 64010000 		.4byte	.LVL462
 12095 1412 0100     		.2byte	0x1
 12096 1414 54       		.byte	0x54
 12097 1415 64010000 		.4byte	.LVL462
 12098 1419 80010000 		.4byte	.LFE72
 12099 141d 0400     		.2byte	0x4
 12100 141f F3       		.byte	0xf3
 12101 1420 01       		.uleb128 0x1
 12102 1421 50       		.byte	0x50
 12103 1422 9F       		.byte	0x9f
 12104 1423 00000000 		.4byte	0
 12105 1427 00000000 		.4byte	0
 12106              	.LLST109:
 12107 142b 00000000 		.4byte	.LVL421
 12108 142f 3F000000 		.4byte	.LVL424-1
 12109 1433 0100     		.2byte	0x1
 12110 1435 51       		.byte	0x51
 12111 1436 3F000000 		.4byte	.LVL424-1
 12112 143a EE000000 		.4byte	.LVL443
 12113 143e 0100     		.2byte	0x1
 12114 1440 56       		.byte	0x56
 12115 1441 EE000000 		.4byte	.LVL443
 12116 1445 3A010000 		.4byte	.LVL449
 12117 1449 0400     		.2byte	0x4
 12118 144b F3       		.byte	0xf3
 12119 144c 01       		.uleb128 0x1
 12120 144d 51       		.byte	0x51
 12121 144e 9F       		.byte	0x9f
 12122 144f 3A010000 		.4byte	.LVL449
 12123 1453 4C010000 		.4byte	.LVL455
 12124 1457 0100     		.2byte	0x1
 12125 1459 51       		.byte	0x51
 12126 145a 4C010000 		.4byte	.LVL455
 12127 145e 64010000 		.4byte	.LVL461
 12128 1462 0100     		.2byte	0x1
 12129 1464 56       		.byte	0x56
 12130 1465 64010000 		.4byte	.LVL461
 12131 1469 80010000 		.4byte	.LFE72
 12132 146d 0400     		.2byte	0x4
 12133 146f F3       		.byte	0xf3
 12134 1470 01       		.uleb128 0x1
 12135 1471 51       		.byte	0x51
 12136 1472 9F       		.byte	0x9f
 12137 1473 00000000 		.4byte	0
 12138 1477 00000000 		.4byte	0
 12139              	.LLST110:
 12140 147b 00000000 		.4byte	.LVL421
ARM GAS  C:\Users\Phuong\AppData\Local\Temp\cczg95Bp.s 			page 261


 12141 147f 3F000000 		.4byte	.LVL424-1
 12142 1483 0100     		.2byte	0x1
 12143 1485 52       		.byte	0x52
 12144 1486 3F000000 		.4byte	.LVL424-1
 12145 148a 3A010000 		.4byte	.LVL449
 12146 148e 0400     		.2byte	0x4
 12147 1490 F3       		.byte	0xf3
 12148 1491 01       		.uleb128 0x1
 12149 1492 52       		.byte	0x52
 12150 1493 9F       		.byte	0x9f
 12151 1494 3A010000 		.4byte	.LVL449
 12152 1498 4C010000 		.4byte	.LVL455
 12153 149c 0100     		.2byte	0x1
 12154 149e 52       		.byte	0x52
 12155 149f 4C010000 		.4byte	.LVL455
 12156 14a3 80010000 		.4byte	.LFE72
 12157 14a7 0400     		.2byte	0x4
 12158 14a9 F3       		.byte	0xf3
 12159 14aa 01       		.uleb128 0x1
 12160 14ab 52       		.byte	0x52
 12161 14ac 9F       		.byte	0x9f
 12162 14ad 00000000 		.4byte	0
 12163 14b1 00000000 		.4byte	0
 12164              	.LLST111:
 12165 14b5 00000000 		.4byte	.LVL421
 12166 14b9 1C000000 		.4byte	.LVL422
 12167 14bd 0100     		.2byte	0x1
 12168 14bf 53       		.byte	0x53
 12169 14c0 1C000000 		.4byte	.LVL422
 12170 14c4 3A010000 		.4byte	.LVL449
 12171 14c8 0100     		.2byte	0x1
 12172 14ca 58       		.byte	0x58
 12173 14cb 3A010000 		.4byte	.LVL449
 12174 14cf 46010000 		.4byte	.LVL453
 12175 14d3 0100     		.2byte	0x1
 12176 14d5 53       		.byte	0x53
 12177 14d6 46010000 		.4byte	.LVL453
 12178 14da 64010000 		.4byte	.LVL463
 12179 14de 0100     		.2byte	0x1
 12180 14e0 58       		.byte	0x58
 12181 14e1 64010000 		.4byte	.LVL463
 12182 14e5 80010000 		.4byte	.LFE72
 12183 14e9 0400     		.2byte	0x4
 12184 14eb F3       		.byte	0xf3
 12185 14ec 01       		.uleb128 0x1
 12186 14ed 53       		.byte	0x53
 12187 14ee 9F       		.byte	0x9f
 12188 14ef 00000000 		.4byte	0
 12189 14f3 00000000 		.4byte	0
 12190              	.LLST112:
 12191 14f7 EE000000 		.4byte	.LVL443
 12192 14fb 29010000 		.4byte	.LVL447-1
 12193 14ff 0100     		.2byte	0x1
 12194 1501 50       		.byte	0x50
 12195 1502 00000000 		.4byte	0
 12196 1506 00000000 		.4byte	0
 12197              	.LLST113:
ARM GAS  C:\Users\Phuong\AppData\Local\Temp\cczg95Bp.s 			page 262


 12198 150a B0000000 		.4byte	.LVL437
 12199 150e B8000000 		.4byte	.LVL438
 12200 1512 0100     		.2byte	0x1
 12201 1514 50       		.byte	0x50
 12202 1515 B8000000 		.4byte	.LVL438
 12203 1519 CA000000 		.4byte	.LVL439
 12204 151d 0300     		.2byte	0x3
 12205 151f 74       		.byte	0x74
 12206 1520 CC00     		.sleb128 76
 12207 1522 CA000000 		.4byte	.LVL439
 12208 1526 CC000000 		.4byte	.LVL440
 12209 152a 0300     		.2byte	0x3
 12210 152c 70       		.byte	0x70
 12211 152d 01       		.sleb128 1
 12212 152e 9F       		.byte	0x9f
 12213 152f 00000000 		.4byte	0
 12214 1533 00000000 		.4byte	0
 12215              	.LLST114:
 12216 1537 5C000000 		.4byte	.LVL428
 12217 153b 3A010000 		.4byte	.LVL449
 12218 153f 0100     		.2byte	0x1
 12219 1541 55       		.byte	0x55
 12220 1542 58010000 		.4byte	.LVL459
 12221 1546 64010000 		.4byte	.LVL461
 12222 154a 0100     		.2byte	0x1
 12223 154c 55       		.byte	0x55
 12224 154d 00000000 		.4byte	0
 12225 1551 00000000 		.4byte	0
 12226              	.LLST115:
 12227 1555 40000000 		.4byte	.LVL424
 12228 1559 5A000000 		.4byte	.LVL427
 12229 155d 0100     		.2byte	0x1
 12230 155f 50       		.byte	0x50
 12231 1560 4C010000 		.4byte	.LVL455
 12232 1564 4E010000 		.4byte	.LVL456
 12233 1568 0100     		.2byte	0x1
 12234 156a 50       		.byte	0x50
 12235 156b 52010000 		.4byte	.LVL457
 12236 156f 54010000 		.4byte	.LVL458
 12237 1573 0100     		.2byte	0x1
 12238 1575 50       		.byte	0x50
 12239 1576 00000000 		.4byte	0
 12240 157a 00000000 		.4byte	0
 12241              	.LLST116:
 12242 157e 4A000000 		.4byte	.LVL425
 12243 1582 58000000 		.4byte	.LVL426
 12244 1586 0100     		.2byte	0x1
 12245 1588 53       		.byte	0x53
 12246 1589 4C010000 		.4byte	.LVL455
 12247 158d 58010000 		.4byte	.LVL459
 12248 1591 0100     		.2byte	0x1
 12249 1593 53       		.byte	0x53
 12250 1594 00000000 		.4byte	0
 12251 1598 00000000 		.4byte	0
 12252              	.LLST117:
 12253 159c 7C000000 		.4byte	.LVL431
 12254 15a0 A4000000 		.4byte	.LVL434
ARM GAS  C:\Users\Phuong\AppData\Local\Temp\cczg95Bp.s 			page 263


 12255 15a4 0100     		.2byte	0x1
 12256 15a6 53       		.byte	0x53
 12257 15a7 5E010000 		.4byte	.LVL460
 12258 15ab 64010000 		.4byte	.LVL461
 12259 15af 0100     		.2byte	0x1
 12260 15b1 53       		.byte	0x53
 12261 15b2 00000000 		.4byte	0
 12262 15b6 00000000 		.4byte	0
 12263              	.LLST118:
 12264 15ba 74000000 		.4byte	.LVL430
 12265 15be A4000000 		.4byte	.LVL434
 12266 15c2 0100     		.2byte	0x1
 12267 15c4 51       		.byte	0x51
 12268 15c5 A6000000 		.4byte	.LVL435
 12269 15c9 AA000000 		.4byte	.LVL436
 12270 15cd 0100     		.2byte	0x1
 12271 15cf 51       		.byte	0x51
 12272 15d0 5E010000 		.4byte	.LVL460
 12273 15d4 64010000 		.4byte	.LVL461
 12274 15d8 0100     		.2byte	0x1
 12275 15da 51       		.byte	0x51
 12276 15db 00000000 		.4byte	0
 12277 15df 00000000 		.4byte	0
 12278              	.LLST119:
 12279 15e3 08010000 		.4byte	.LVL444
 12280 15e7 1A010000 		.4byte	.LVL446
 12281 15eb 0100     		.2byte	0x1
 12282 15ed 53       		.byte	0x53
 12283 15ee 00000000 		.4byte	0
 12284 15f2 00000000 		.4byte	0
 12285              	.LLST120:
 12286 15f6 00000000 		.4byte	.LVL464
 12287 15fa 17000000 		.4byte	.LVL466-1
 12288 15fe 0100     		.2byte	0x1
 12289 1600 50       		.byte	0x50
 12290 1601 17000000 		.4byte	.LVL466-1
 12291 1605 46000000 		.4byte	.LVL472
 12292 1609 0100     		.2byte	0x1
 12293 160b 54       		.byte	0x54
 12294 160c 46000000 		.4byte	.LVL472
 12295 1610 54000000 		.4byte	.LFE99
 12296 1614 0400     		.2byte	0x4
 12297 1616 F3       		.byte	0xf3
 12298 1617 01       		.uleb128 0x1
 12299 1618 50       		.byte	0x50
 12300 1619 9F       		.byte	0x9f
 12301 161a 00000000 		.4byte	0
 12302 161e 00000000 		.4byte	0
 12303              	.LLST121:
 12304 1622 00000000 		.4byte	.LVL464
 12305 1626 14000000 		.4byte	.LVL465
 12306 162a 0100     		.2byte	0x1
 12307 162c 51       		.byte	0x51
 12308 162d 14000000 		.4byte	.LVL465
 12309 1631 46000000 		.4byte	.LVL473
 12310 1635 0100     		.2byte	0x1
 12311 1637 55       		.byte	0x55
ARM GAS  C:\Users\Phuong\AppData\Local\Temp\cczg95Bp.s 			page 264


 12312 1638 46000000 		.4byte	.LVL473
 12313 163c 54000000 		.4byte	.LFE99
 12314 1640 0400     		.2byte	0x4
 12315 1642 F3       		.byte	0xf3
 12316 1643 01       		.uleb128 0x1
 12317 1644 51       		.byte	0x51
 12318 1645 9F       		.byte	0x9f
 12319 1646 00000000 		.4byte	0
 12320 164a 00000000 		.4byte	0
 12321              	.LLST122:
 12322 164e 30000000 		.4byte	.LVL468
 12323 1652 46000000 		.4byte	.LVL471
 12324 1656 0100     		.2byte	0x1
 12325 1658 53       		.byte	0x53
 12326 1659 00000000 		.4byte	0
 12327 165d 00000000 		.4byte	0
 12328              	.LLST123:
 12329 1661 34000000 		.4byte	.LVL469
 12330 1665 42000000 		.4byte	.LVL470
 12331 1669 0100     		.2byte	0x1
 12332 166b 52       		.byte	0x52
 12333 166c 00000000 		.4byte	0
 12334 1670 00000000 		.4byte	0
 12335              	.LLST124:
 12336 1674 00000000 		.4byte	.LVL474
 12337 1678 02000000 		.4byte	.LVL475
 12338 167c 0100     		.2byte	0x1
 12339 167e 50       		.byte	0x50
 12340 167f 02000000 		.4byte	.LVL475
 12341 1683 10000000 		.4byte	.LFE100
 12342 1687 0400     		.2byte	0x4
 12343 1689 F3       		.byte	0xf3
 12344 168a 01       		.uleb128 0x1
 12345 168b 50       		.byte	0x50
 12346 168c 9F       		.byte	0x9f
 12347 168d 00000000 		.4byte	0
 12348 1691 00000000 		.4byte	0
 12349              		.section	.debug_aranges,"",%progbits
 12350 0000 94010000 		.4byte	0x194
 12351 0004 0200     		.2byte	0x2
 12352 0006 00000000 		.4byte	.Ldebug_info0
 12353 000a 04       		.byte	0x4
 12354 000b 00       		.byte	0
 12355 000c 0000     		.2byte	0
 12356 000e 0000     		.2byte	0
 12357 0010 00000000 		.4byte	.LFB55
 12358 0014 14000000 		.4byte	.LFE55-.LFB55
 12359 0018 00000000 		.4byte	.LFB56
 12360 001c 24000000 		.4byte	.LFE56-.LFB56
 12361 0020 00000000 		.4byte	.LFB71
 12362 0024 68000000 		.4byte	.LFE71-.LFB71
 12363 0028 00000000 		.4byte	.LFB53
 12364 002c 20000000 		.4byte	.LFE53-.LFB53
 12365 0030 00000000 		.4byte	.LFB57
 12366 0034 1E000000 		.4byte	.LFE57-.LFB57
 12367 0038 00000000 		.4byte	.LFB58
 12368 003c 20000000 		.4byte	.LFE58-.LFB58
ARM GAS  C:\Users\Phuong\AppData\Local\Temp\cczg95Bp.s 			page 265


 12369 0040 00000000 		.4byte	.LFB60
 12370 0044 66000000 		.4byte	.LFE60-.LFB60
 12371 0048 00000000 		.4byte	.LFB65
 12372 004c E0000000 		.4byte	.LFE65-.LFB65
 12373 0050 00000000 		.4byte	.LFB68
 12374 0054 F0000000 		.4byte	.LFE68-.LFB68
 12375 0058 00000000 		.4byte	.LFB67
 12376 005c 0A000000 		.4byte	.LFE67-.LFB67
 12377 0060 00000000 		.4byte	.LFB69
 12378 0064 3C000000 		.4byte	.LFE69-.LFB69
 12379 0068 00000000 		.4byte	.LFB70
 12380 006c 4C000000 		.4byte	.LFE70-.LFB70
 12381 0070 00000000 		.4byte	.LFB75
 12382 0074 20000000 		.4byte	.LFE75-.LFB75
 12383 0078 00000000 		.4byte	.LFB78
 12384 007c 1A000000 		.4byte	.LFE78-.LFB78
 12385 0080 00000000 		.4byte	.LFB77
 12386 0084 12000000 		.4byte	.LFE77-.LFB77
 12387 0088 00000000 		.4byte	.LFB79
 12388 008c 04000000 		.4byte	.LFE79-.LFB79
 12389 0090 00000000 		.4byte	.LFB80
 12390 0094 30000000 		.4byte	.LFE80-.LFB80
 12391 0098 00000000 		.4byte	.LFB88
 12392 009c 08000000 		.4byte	.LFE88-.LFB88
 12393 00a0 00000000 		.4byte	.LFB89
 12394 00a4 0A000000 		.4byte	.LFE89-.LFB89
 12395 00a8 00000000 		.4byte	.LFB90
 12396 00ac 08000000 		.4byte	.LFE90-.LFB90
 12397 00b0 00000000 		.4byte	.LFB91
 12398 00b4 0A000000 		.4byte	.LFE91-.LFB91
 12399 00b8 00000000 		.4byte	.LFB92
 12400 00bc 0E000000 		.4byte	.LFE92-.LFB92
 12401 00c0 00000000 		.4byte	.LFB93
 12402 00c4 08000000 		.4byte	.LFE93-.LFB93
 12403 00c8 00000000 		.4byte	.LFB94
 12404 00cc 4A000000 		.4byte	.LFE94-.LFB94
 12405 00d0 00000000 		.4byte	.LFB73
 12406 00d4 2E030000 		.4byte	.LFE73-.LFB73
 12407 00d8 00000000 		.4byte	.LFB95
 12408 00dc 50000000 		.4byte	.LFE95-.LFB95
 12409 00e0 00000000 		.4byte	.LFB59
 12410 00e4 40010000 		.4byte	.LFE59-.LFB59
 12411 00e8 00000000 		.4byte	.LFB61
 12412 00ec 18000000 		.4byte	.LFE61-.LFB61
 12413 00f0 00000000 		.4byte	.LFB81
 12414 00f4 26000000 		.4byte	.LFE81-.LFB81
 12415 00f8 00000000 		.4byte	.LFB76
 12416 00fc 7C000000 		.4byte	.LFE76-.LFB76
 12417 0100 00000000 		.4byte	.LFB74
 12418 0104 7C000000 		.4byte	.LFE74-.LFB74
 12419 0108 00000000 		.4byte	.LFB54
 12420 010c 20000000 		.4byte	.LFE54-.LFB54
 12421 0110 00000000 		.4byte	.LFB62
 12422 0114 60000000 		.4byte	.LFE62-.LFB62
 12423 0118 00000000 		.4byte	.LFB63
 12424 011c F4000000 		.4byte	.LFE63-.LFB63
 12425 0120 00000000 		.4byte	.LFB64
ARM GAS  C:\Users\Phuong\AppData\Local\Temp\cczg95Bp.s 			page 266


 12426 0124 0A000000 		.4byte	.LFE64-.LFB64
 12427 0128 00000000 		.4byte	.LFB66
 12428 012c 0E000000 		.4byte	.LFE66-.LFB66
 12429 0130 00000000 		.4byte	.LFB84
 12430 0134 34000000 		.4byte	.LFE84-.LFB84
 12431 0138 00000000 		.4byte	.LFB82
 12432 013c 48000000 		.4byte	.LFE82-.LFB82
 12433 0140 00000000 		.4byte	.LFB98
 12434 0144 22000000 		.4byte	.LFE98-.LFB98
 12435 0148 00000000 		.4byte	.LFB83
 12436 014c 40000000 		.4byte	.LFE83-.LFB83
 12437 0150 00000000 		.4byte	.LFB85
 12438 0154 38010000 		.4byte	.LFE85-.LFB85
 12439 0158 00000000 		.4byte	.LFB86
 12440 015c 0A000000 		.4byte	.LFE86-.LFB86
 12441 0160 00000000 		.4byte	.LFB87
 12442 0164 0A000000 		.4byte	.LFE87-.LFB87
 12443 0168 00000000 		.4byte	.LFB96
 12444 016c 18000000 		.4byte	.LFE96-.LFB96
 12445 0170 00000000 		.4byte	.LFB97
 12446 0174 28000000 		.4byte	.LFE97-.LFB97
 12447 0178 00000000 		.4byte	.LFB72
 12448 017c 80010000 		.4byte	.LFE72-.LFB72
 12449 0180 00000000 		.4byte	.LFB99
 12450 0184 54000000 		.4byte	.LFE99-.LFB99
 12451 0188 00000000 		.4byte	.LFB100
 12452 018c 10000000 		.4byte	.LFE100-.LFB100
 12453 0190 00000000 		.4byte	0
 12454 0194 00000000 		.4byte	0
 12455              		.section	.debug_ranges,"",%progbits
 12456              	.Ldebug_ranges0:
 12457 0000 04000000 		.4byte	.LBB13
 12458 0004 68000000 		.4byte	.LBE13
 12459 0008 70000000 		.4byte	.LBB14
 12460 000c 74000000 		.4byte	.LBE14
 12461 0010 00000000 		.4byte	0
 12462 0014 00000000 		.4byte	0
 12463 0018 3A000000 		.4byte	.LBB19
 12464 001c 5A000000 		.4byte	.LBE19
 12465 0020 4C010000 		.4byte	.LBB23
 12466 0024 58010000 		.4byte	.LBE23
 12467 0028 00000000 		.4byte	0
 12468 002c 00000000 		.4byte	0
 12469 0030 72000000 		.4byte	.LBB20
 12470 0034 A4000000 		.4byte	.LBE20
 12471 0038 A6000000 		.4byte	.LBB21
 12472 003c AA000000 		.4byte	.LBE21
 12473 0040 5E010000 		.4byte	.LBB24
 12474 0044 64010000 		.4byte	.LBE24
 12475 0048 00000000 		.4byte	0
 12476 004c 00000000 		.4byte	0
 12477 0050 00000000 		.4byte	.LFB55
 12478 0054 14000000 		.4byte	.LFE55
 12479 0058 00000000 		.4byte	.LFB56
 12480 005c 24000000 		.4byte	.LFE56
 12481 0060 00000000 		.4byte	.LFB71
 12482 0064 68000000 		.4byte	.LFE71
ARM GAS  C:\Users\Phuong\AppData\Local\Temp\cczg95Bp.s 			page 267


 12483 0068 00000000 		.4byte	.LFB53
 12484 006c 20000000 		.4byte	.LFE53
 12485 0070 00000000 		.4byte	.LFB57
 12486 0074 1E000000 		.4byte	.LFE57
 12487 0078 00000000 		.4byte	.LFB58
 12488 007c 20000000 		.4byte	.LFE58
 12489 0080 00000000 		.4byte	.LFB60
 12490 0084 66000000 		.4byte	.LFE60
 12491 0088 00000000 		.4byte	.LFB65
 12492 008c E0000000 		.4byte	.LFE65
 12493 0090 00000000 		.4byte	.LFB68
 12494 0094 F0000000 		.4byte	.LFE68
 12495 0098 00000000 		.4byte	.LFB67
 12496 009c 0A000000 		.4byte	.LFE67
 12497 00a0 00000000 		.4byte	.LFB69
 12498 00a4 3C000000 		.4byte	.LFE69
 12499 00a8 00000000 		.4byte	.LFB70
 12500 00ac 4C000000 		.4byte	.LFE70
 12501 00b0 00000000 		.4byte	.LFB75
 12502 00b4 20000000 		.4byte	.LFE75
 12503 00b8 00000000 		.4byte	.LFB78
 12504 00bc 1A000000 		.4byte	.LFE78
 12505 00c0 00000000 		.4byte	.LFB77
 12506 00c4 12000000 		.4byte	.LFE77
 12507 00c8 00000000 		.4byte	.LFB79
 12508 00cc 04000000 		.4byte	.LFE79
 12509 00d0 00000000 		.4byte	.LFB80
 12510 00d4 30000000 		.4byte	.LFE80
 12511 00d8 00000000 		.4byte	.LFB88
 12512 00dc 08000000 		.4byte	.LFE88
 12513 00e0 00000000 		.4byte	.LFB89
 12514 00e4 0A000000 		.4byte	.LFE89
 12515 00e8 00000000 		.4byte	.LFB90
 12516 00ec 08000000 		.4byte	.LFE90
 12517 00f0 00000000 		.4byte	.LFB91
 12518 00f4 0A000000 		.4byte	.LFE91
 12519 00f8 00000000 		.4byte	.LFB92
 12520 00fc 0E000000 		.4byte	.LFE92
 12521 0100 00000000 		.4byte	.LFB93
 12522 0104 08000000 		.4byte	.LFE93
 12523 0108 00000000 		.4byte	.LFB94
 12524 010c 4A000000 		.4byte	.LFE94
 12525 0110 00000000 		.4byte	.LFB73
 12526 0114 2E030000 		.4byte	.LFE73
 12527 0118 00000000 		.4byte	.LFB95
 12528 011c 50000000 		.4byte	.LFE95
 12529 0120 00000000 		.4byte	.LFB59
 12530 0124 40010000 		.4byte	.LFE59
 12531 0128 00000000 		.4byte	.LFB61
 12532 012c 18000000 		.4byte	.LFE61
 12533 0130 00000000 		.4byte	.LFB81
 12534 0134 26000000 		.4byte	.LFE81
 12535 0138 00000000 		.4byte	.LFB76
 12536 013c 7C000000 		.4byte	.LFE76
 12537 0140 00000000 		.4byte	.LFB74
 12538 0144 7C000000 		.4byte	.LFE74
 12539 0148 00000000 		.4byte	.LFB54
ARM GAS  C:\Users\Phuong\AppData\Local\Temp\cczg95Bp.s 			page 268


 12540 014c 20000000 		.4byte	.LFE54
 12541 0150 00000000 		.4byte	.LFB62
 12542 0154 60000000 		.4byte	.LFE62
 12543 0158 00000000 		.4byte	.LFB63
 12544 015c F4000000 		.4byte	.LFE63
 12545 0160 00000000 		.4byte	.LFB64
 12546 0164 0A000000 		.4byte	.LFE64
 12547 0168 00000000 		.4byte	.LFB66
 12548 016c 0E000000 		.4byte	.LFE66
 12549 0170 00000000 		.4byte	.LFB84
 12550 0174 34000000 		.4byte	.LFE84
 12551 0178 00000000 		.4byte	.LFB82
 12552 017c 48000000 		.4byte	.LFE82
 12553 0180 00000000 		.4byte	.LFB98
 12554 0184 22000000 		.4byte	.LFE98
 12555 0188 00000000 		.4byte	.LFB83
 12556 018c 40000000 		.4byte	.LFE83
 12557 0190 00000000 		.4byte	.LFB85
 12558 0194 38010000 		.4byte	.LFE85
 12559 0198 00000000 		.4byte	.LFB86
 12560 019c 0A000000 		.4byte	.LFE86
 12561 01a0 00000000 		.4byte	.LFB87
 12562 01a4 0A000000 		.4byte	.LFE87
 12563 01a8 00000000 		.4byte	.LFB96
 12564 01ac 18000000 		.4byte	.LFE96
 12565 01b0 00000000 		.4byte	.LFB97
 12566 01b4 28000000 		.4byte	.LFE97
 12567 01b8 00000000 		.4byte	.LFB72
 12568 01bc 80010000 		.4byte	.LFE72
 12569 01c0 00000000 		.4byte	.LFB99
 12570 01c4 54000000 		.4byte	.LFE99
 12571 01c8 00000000 		.4byte	.LFB100
 12572 01cc 10000000 		.4byte	.LFE100
 12573 01d0 00000000 		.4byte	0
 12574 01d4 00000000 		.4byte	0
 12575              		.section	.debug_line,"",%progbits
 12576              	.Ldebug_line0:
 12577 0000 3F0B0000 		.section	.debug_str,"MS",%progbits,1
 12577      0200CC02 
 12577      00000201 
 12577      FB0E0D00 
 12577      01010101 
 12578              	.LASF276:
 12579 0000 73687574 		.ascii	"shut_tx\000"
 12579      5F747800 
 12580              	.LASF220:
 12581 0008 7463705F 		.ascii	"tcp_new_port\000"
 12581      6E65775F 
 12581      706F7274 
 12581      00
 12582              	.LASF211:
 12583 0015 6C697374 		.ascii	"listen_pcbs\000"
 12583      656E5F70 
 12583      63627300 
 12584              	.LASF249:
 12585 0021 696E7465 		.ascii	"interval\000"
 12585      7276616C 
ARM GAS  C:\Users\Phuong\AppData\Local\Temp\cczg95Bp.s 			page 269


 12585      00
 12586              	.LASF27:
 12587 002a 4D454D50 		.ascii	"MEMP_TCP_PCB_LISTEN\000"
 12587      5F544350 
 12587      5F504342 
 12587      5F4C4953 
 12587      54454E00 
 12588              	.LASF242:
 12589 003e 63736567 		.ascii	"cseg\000"
 12589      00
 12590              	.LASF332:
 12591 0043 7463705F 		.ascii	"tcp_keepalive\000"
 12591      6B656570 
 12591      616C6976 
 12591      6500
 12592              	.LASF207:
 12593 0051 61636B6E 		.ascii	"ackno\000"
 12593      6F00
 12594              	.LASF319:
 12595 0057 7463705F 		.ascii	"tcp_tw_pcbs\000"
 12595      74775F70 
 12595      63627300 
 12596              	.LASF13:
 12597 0063 63686172 		.ascii	"char\000"
 12597      00
 12598              	.LASF300:
 12599 0068 7463705F 		.ascii	"tcp_connect\000"
 12599      636F6E6E 
 12599      65637400 
 12600              	.LASF114:
 12601 0074 696E7075 		.ascii	"input\000"
 12601      7400
 12602              	.LASF90:
 12603 007a 4552525F 		.ascii	"ERR_ABRT\000"
 12603      41425254 
 12603      00
 12604              	.LASF228:
 12605 0083 61676169 		.ascii	"again\000"
 12605      6E00
 12606              	.LASF210:
 12607 0089 75726770 		.ascii	"urgp\000"
 12607      00
 12608              	.LASF167:
 12609 008e 6C697374 		.ascii	"listener\000"
 12609      656E6572 
 12609      00
 12610              	.LASF105:
 12611 0097 4C574950 		.ascii	"LWIP_NETIF_CLIENT_DATA_INDEX_IGMP\000"
 12611      5F4E4554 
 12611      49465F43 
 12611      4C49454E 
 12611      545F4441 
 12612              	.LASF139:
 12613 00b9 706F6C6C 		.ascii	"polltmr\000"
 12613      746D7200 
 12614              	.LASF130:
 12615 00c1 7463705F 		.ascii	"tcp_accept_fn\000"
ARM GAS  C:\Users\Phuong\AppData\Local\Temp\cczg95Bp.s 			page 270


 12615      61636365 
 12615      70745F66 
 12615      6E00
 12616              	.LASF99:
 12617 00cf 666C6167 		.ascii	"flags\000"
 12617      7300
 12618              	.LASF92:
 12619 00d5 4552525F 		.ascii	"ERR_CLSD\000"
 12619      434C5344 
 12619      00
 12620              	.LASF226:
 12621 00de 7463705F 		.ascii	"tcp_bind\000"
 12621      62696E64 
 12621      00
 12622              	.LASF265:
 12623 00e7 7463705F 		.ascii	"tcp_close_shutdown\000"
 12623      636C6F73 
 12623      655F7368 
 12623      7574646F 
 12623      776E00
 12624              	.LASF196:
 12625 00fa 54494D45 		.ascii	"TIME_WAIT\000"
 12625      5F574149 
 12625      5400
 12626              	.LASF279:
 12627 0104 65727266 		.ascii	"errf_arg\000"
 12627      5F617267 
 12627      00
 12628              	.LASF8:
 12629 010d 756E7369 		.ascii	"unsigned int\000"
 12629      676E6564 
 12629      20696E74 
 12629      00
 12630              	.LASF182:
 12631 011a 7463705F 		.ascii	"tcp_connected_fn\000"
 12631      636F6E6E 
 12631      65637465 
 12631      645F666E 
 12631      00
 12632              	.LASF95:
 12633 012b 6E657874 		.ascii	"next\000"
 12633      00
 12634              	.LASF320:
 12635 0130 7463705F 		.ascii	"tcp_pcb_lists\000"
 12635      7063625F 
 12635      6C697374 
 12635      7300
 12636              	.LASF329:
 12637 013e 7463705F 		.ascii	"tcp_zero_window_probe\000"
 12637      7A65726F 
 12637      5F77696E 
 12637      646F775F 
 12637      70726F62 
 12638              	.LASF233:
 12639 0154 6E65775F 		.ascii	"new_right_edge\000"
 12639      72696768 
 12639      745F6564 
ARM GAS  C:\Users\Phuong\AppData\Local\Temp\cczg95Bp.s 			page 271


 12639      676500
 12640              	.LASF76:
 12641 0163 6572725F 		.ascii	"err_t\000"
 12641      7400
 12642              	.LASF116:
 12643 0169 6C696E6B 		.ascii	"linkoutput\000"
 12643      6F757470 
 12643      757400
 12644              	.LASF121:
 12645 0174 686F7374 		.ascii	"hostname\000"
 12645      6E616D65 
 12645      00
 12646              	.LASF295:
 12647 017d 7463705F 		.ascii	"tcp_next_iss\000"
 12647      6E657874 
 12647      5F697373 
 12647      00
 12648              	.LASF252:
 12649 018a 70726576 		.ascii	"prev\000"
 12649      00
 12650              	.LASF333:
 12651 018f 7463705F 		.ascii	"tcp_trigger_input_pcb_close\000"
 12651      74726967 
 12651      6765725F 
 12651      696E7075 
 12651      745F7063 
 12652              	.LASF254:
 12653 01ab 7063625F 		.ascii	"pcb_remove\000"
 12653      72656D6F 
 12653      766500
 12654              	.LASF145:
 12655 01b6 7263765F 		.ascii	"rcv_ann_right_edge\000"
 12655      616E6E5F 
 12655      72696768 
 12655      745F6564 
 12655      676500
 12656              	.LASF260:
 12657 01c9 6572725F 		.ascii	"err_fn\000"
 12657      666E00
 12658              	.LASF45:
 12659 01d0 73746174 		.ascii	"stats_mem\000"
 12659      735F6D65 
 12659      6D00
 12660              	.LASF337:
 12661 01da 7463705F 		.ascii	"tcp_enqueue_flags\000"
 12661      656E7175 
 12661      6575655F 
 12661      666C6167 
 12661      7300
 12662              	.LASF290:
 12663 01ec 7063625F 		.ascii	"pcb_list\000"
 12663      6C697374 
 12663      00
 12664              	.LASF126:
 12665 01f5 6E657469 		.ascii	"netif_output_fn\000"
 12665      665F6F75 
 12665      74707574 
ARM GAS  C:\Users\Phuong\AppData\Local\Temp\cczg95Bp.s 			page 272


 12665      5F666E00 
 12666              	.LASF177:
 12667 0205 6B656570 		.ascii	"keep_cnt_sent\000"
 12667      5F636E74 
 12667      5F73656E 
 12667      7400
 12668              	.LASF39:
 12669 0213 4D454D50 		.ascii	"MEMP_PBUF_POOL\000"
 12669      5F504255 
 12669      465F504F 
 12669      4F4C00
 12670              	.LASF311:
 12671 0222 6C776970 		.ascii	"lwip_stats\000"
 12671      5F737461 
 12671      747300
 12672              	.LASF259:
 12673 022d 70636232 		.ascii	"pcb2\000"
 12673      00
 12674              	.LASF179:
 12675 0232 7463705F 		.ascii	"tcp_sent_fn\000"
 12675      73656E74 
 12675      5F666E00 
 12676              	.LASF266:
 12677 023e 7273745F 		.ascii	"rst_on_unacked_data\000"
 12677      6F6E5F75 
 12677      6E61636B 
 12677      65645F64 
 12677      61746100 
 12678              	.LASF174:
 12679 0252 6B656570 		.ascii	"keep_cnt\000"
 12679      5F636E74 
 12679      00
 12680              	.LASF263:
 12681 025b 7463705F 		.ascii	"tcp_pcb_remove\000"
 12681      7063625F 
 12681      72656D6F 
 12681      766500
 12682              	.LASF86:
 12683 026a 4552525F 		.ascii	"ERR_ALREADY\000"
 12683      414C5245 
 12683      41445900 
 12684              	.LASF65:
 12685 0276 73746174 		.ascii	"stats_syselem\000"
 12685      735F7379 
 12685      73656C65 
 12685      6D00
 12686              	.LASF206:
 12687 0284 7365716E 		.ascii	"seqno\000"
 12687      6F00
 12688              	.LASF213:
 12689 028a 6C697374 		.ascii	"list\000"
 12689      00
 12690              	.LASF270:
 12691 028f 72656675 		.ascii	"refused_flags\000"
 12691      7365645F 
 12691      666C6167 
 12691      7300
ARM GAS  C:\Users\Phuong\AppData\Local\Temp\cczg95Bp.s 			page 273


 12692              	.LASF125:
 12693 029d 6E657469 		.ascii	"netif_input_fn\000"
 12693      665F696E 
 12693      7075745F 
 12693      666E00
 12694              	.LASF255:
 12695 02ac 7063625F 		.ascii	"pcb_reset\000"
 12695      72657365 
 12695      7400
 12696              	.LASF14:
 12697 02b6 75696E74 		.ascii	"uint32_t\000"
 12697      33325F74 
 12697      00
 12698              	.LASF31:
 12699 02bf 4D454D50 		.ascii	"MEMP_NETCONN\000"
 12699      5F4E4554 
 12699      434F4E4E 
 12699      00
 12700              	.LASF152:
 12701 02cc 63776E64 		.ascii	"cwnd\000"
 12701      00
 12702              	.LASF35:
 12703 02d1 4D454D50 		.ascii	"MEMP_IGMP_GROUP\000"
 12703      5F49474D 
 12703      505F4752 
 12703      4F555000 
 12704              	.LASF315:
 12705 02e1 7463705F 		.ascii	"tcp_active_pcbs_changed\000"
 12705      61637469 
 12705      76655F70 
 12705      6362735F 
 12705      6368616E 
 12706              	.LASF144:
 12707 02f9 7263765F 		.ascii	"rcv_ann_wnd\000"
 12707      616E6E5F 
 12707      776E6400 
 12708              	.LASF32:
 12709 0305 4D454D50 		.ascii	"MEMP_TCPIP_MSG_API\000"
 12709      5F544350 
 12709      49505F4D 
 12709      53475F41 
 12709      504900
 12710              	.LASF224:
 12711 0318 6D61785F 		.ascii	"max_pcb_list\000"
 12711      7063625F 
 12711      6C697374 
 12711      00
 12712              	.LASF55:
 12713 0325 6F707465 		.ascii	"opterr\000"
 12713      727200
 12714              	.LASF137:
 12715 032c 6C6F6361 		.ascii	"local_port\000"
 12715      6C5F706F 
 12715      727400
 12716              	.LASF67:
 12717 0337 6D757465 		.ascii	"mutex\000"
 12717      7800
ARM GAS  C:\Users\Phuong\AppData\Local\Temp\cczg95Bp.s 			page 274


 12718              	.LASF338:
 12719 033d 474E5520 		.ascii	"GNU C11 5.4.1 20160609 (release) [ARM/embedded-5-br"
 12719      43313120 
 12719      352E342E 
 12719      31203230 
 12719      31363036 
 12720 0370 616E6368 		.ascii	"anch revision 237715] -mcpu=cortex-m0plus -mthumb -"
 12720      20726576 
 12720      6973696F 
 12720      6E203233 
 12720      37373135 
 12721 03a3 67202D4F 		.ascii	"g -Og -ffunction-sections -ffat-lto-objects\000"
 12721      67202D66 
 12721      66756E63 
 12721      74696F6E 
 12721      2D736563 
 12722              	.LASF72:
 12723 03cf 69705F66 		.ascii	"ip_frag\000"
 12723      72616700 
 12724              	.LASF253:
 12725 03d7 6566665F 		.ascii	"eff_wnd\000"
 12725      776E6400 
 12726              	.LASF34:
 12727 03df 4D454D50 		.ascii	"MEMP_ARP_QUEUE\000"
 12727      5F415250 
 12727      5F515545 
 12727      554500
 12728              	.LASF80:
 12729 03ee 4552525F 		.ascii	"ERR_TIMEOUT\000"
 12729      54494D45 
 12729      4F555400 
 12730              	.LASF312:
 12731 03fa 69705F61 		.ascii	"ip_addr_any\000"
 12731      6464725F 
 12731      616E7900 
 12732              	.LASF63:
 12733 0406 74785F6C 		.ascii	"tx_leave\000"
 12733      65617665 
 12733      00
 12734              	.LASF123:
 12735 040f 68776164 		.ascii	"hwaddr\000"
 12735      647200
 12736              	.LASF71:
 12737 0416 65746861 		.ascii	"etharp\000"
 12737      727000
 12738              	.LASF201:
 12739 041d 7463705F 		.ascii	"tcp_seg\000"
 12739      73656700 
 12740              	.LASF7:
 12741 0425 6C6F6E67 		.ascii	"long long unsigned int\000"
 12741      206C6F6E 
 12741      6720756E 
 12741      7369676E 
 12741      65642069 
 12742              	.LASF285:
 12743 043c 696E6163 		.ascii	"inactivity\000"
 12743      74697669 
ARM GAS  C:\Users\Phuong\AppData\Local\Temp\cczg95Bp.s 			page 275


 12743      747900
 12744              	.LASF58:
 12745 0447 72785F76 		.ascii	"rx_v1\000"
 12745      3100
 12746              	.LASF74:
 12747 044d 69676D70 		.ascii	"igmp\000"
 12747      00
 12748              	.LASF286:
 12749 0452 7463705F 		.ascii	"tcp_kill_prio\000"
 12749      6B696C6C 
 12749      5F707269 
 12749      6F00
 12750              	.LASF218:
 12751 0460 7463705F 		.ascii	"tcp_backlog_delayed\000"
 12751      6261636B 
 12751      6C6F675F 
 12751      64656C61 
 12751      79656400 
 12752              	.LASF248:
 12753 0474 7463705F 		.ascii	"tcp_poll\000"
 12753      706F6C6C 
 12753      00
 12754              	.LASF185:
 12755 047d 7463705F 		.ascii	"tcp_state\000"
 12755      73746174 
 12755      6500
 12756              	.LASF308:
 12757 0487 7463705F 		.ascii	"tcp_persist_backoff\000"
 12757      70657273 
 12757      6973745F 
 12757      6261636B 
 12757      6F666600 
 12758              	.LASF274:
 12759 049b 7463705F 		.ascii	"tcp_shutdown\000"
 12759      73687574 
 12759      646F776E 
 12759      00
 12760              	.LASF122:
 12761 04a8 68776164 		.ascii	"hwaddr_len\000"
 12761      64725F6C 
 12761      656E00
 12762              	.LASF293:
 12763 04b3 7463705F 		.ascii	"tcp_new\000"
 12763      6E657700 
 12764              	.LASF235:
 12765 04bb 7463705F 		.ascii	"tcp_recved\000"
 12765      72656376 
 12765      656400
 12766              	.LASF54:
 12767 04c6 70726F74 		.ascii	"proterr\000"
 12767      65727200 
 12768              	.LASF83:
 12769 04ce 4552525F 		.ascii	"ERR_VAL\000"
 12769      56414C00 
 12770              	.LASF340:
 12771 04d6 433A5C55 		.ascii	"C:\\Users\\Phuong\\Documents\\PSoC Creator\\Dec0820"
 12771      73657273 
ARM GAS  C:\Users\Phuong\AppData\Local\Temp\cczg95Bp.s 			page 276


 12771      5C506875 
 12771      6F6E675C 
 12771      446F6375 
 12772 0504 31385C69 		.ascii	"18\\iot-sdk-iot-dev\\PSOC6_FreeRTOS+LwIP+MbedTLS_Az"
 12772      6F742D73 
 12772      646B2D69 
 12772      6F742D64 
 12772      65765C50 
 12773 0535 7572652D 		.ascii	"ure-IOT-Hub-Demo\\PSOC6_FreeRTOS+LwIP+MbedTLS_Azure"
 12773      494F542D 
 12773      4875622D 
 12773      44656D6F 
 12773      5C50534F 
 12774 0567 2D494F54 		.ascii	"-IOT-Hub-Demo.cydsn\000"
 12774      2D487562 
 12774      2D44656D 
 12774      6F2E6379 
 12774      64736E00 
 12775              	.LASF142:
 12776 057b 7263765F 		.ascii	"rcv_nxt\000"
 12776      6E787400 
 12777              	.LASF33:
 12778 0583 4D454D50 		.ascii	"MEMP_TCPIP_MSG_INPKT\000"
 12778      5F544350 
 12778      49505F4D 
 12778      53475F49 
 12778      4E504B54 
 12779              	.LASF43:
 12780 0598 75736564 		.ascii	"used\000"
 12780      00
 12781              	.LASF164:
 12782 059d 756E6163 		.ascii	"unacked\000"
 12782      6B656400 
 12783              	.LASF191:
 12784 05a5 46494E5F 		.ascii	"FIN_WAIT_1\000"
 12784      57414954 
 12784      5F3100
 12785              	.LASF69:
 12786 05b0 73746174 		.ascii	"stats_\000"
 12786      735F00
 12787              	.LASF307:
 12788 05b7 7463705F 		.ascii	"tcp_backoff\000"
 12788      6261636B 
 12788      6F666600 
 12789              	.LASF313:
 12790 05c3 7463705F 		.ascii	"tcp_input_pcb\000"
 12790      696E7075 
 12790      745F7063 
 12790      6200
 12791              	.LASF200:
 12792 05d1 61636365 		.ascii	"accepts_pending\000"
 12792      7074735F 
 12792      70656E64 
 12792      696E6700 
 12793              	.LASF209:
 12794 05e1 63686B73 		.ascii	"chksum\000"
 12794      756D00
ARM GAS  C:\Users\Phuong\AppData\Local\Temp\cczg95Bp.s 			page 277


 12795              	.LASF222:
 12796 05e8 69706164 		.ascii	"ipaddr\000"
 12796      647200
 12797              	.LASF10:
 12798 05ef 73697A65 		.ascii	"size_t\000"
 12798      5F7400
 12799              	.LASF96:
 12800 05f6 7061796C 		.ascii	"payload\000"
 12800      6F616400 
 12801              	.LASF245:
 12802 05fe 7463705F 		.ascii	"tcp_sent\000"
 12802      73656E74 
 12802      00
 12803              	.LASF115:
 12804 0607 6F757470 		.ascii	"output\000"
 12804      757400
 12805              	.LASF264:
 12806 060e 7063626C 		.ascii	"pcblist\000"
 12806      69737400 
 12807              	.LASF169:
 12808 0616 636F6E6E 		.ascii	"connected\000"
 12808      65637465 
 12808      6400
 12809              	.LASF216:
 12810 0620 7463705F 		.ascii	"tcp_listen_closed\000"
 12810      6C697374 
 12810      656E5F63 
 12810      6C6F7365 
 12810      6400
 12811              	.LASF258:
 12812 0632 6261636B 		.ascii	"backoff_idx\000"
 12812      6F66665F 
 12812      69647800 
 12813              	.LASF230:
 12814 063e 7463705F 		.ascii	"tcp_tmp_pcb\000"
 12814      746D705F 
 12814      70636200 
 12815              	.LASF215:
 12816 064a 7463705F 		.ascii	"tcp_remove_listener\000"
 12816      72656D6F 
 12816      76655F6C 
 12816      69737465 
 12816      6E657200 
 12817              	.LASF250:
 12818 065e 7463705F 		.ascii	"tcp_pcb_purge\000"
 12818      7063625F 
 12818      70757267 
 12818      6500
 12819              	.LASF194:
 12820 066c 434C4F53 		.ascii	"CLOSING\000"
 12820      494E4700 
 12821              	.LASF219:
 12822 0674 7463705F 		.ascii	"tcp_backlog_accepted\000"
 12822      6261636B 
 12822      6C6F675F 
 12822      61636365 
 12822      70746564 
ARM GAS  C:\Users\Phuong\AppData\Local\Temp\cczg95Bp.s 			page 278


 12823              	.LASF199:
 12824 0689 6261636B 		.ascii	"backlog\000"
 12824      6C6F6700 
 12825              	.LASF151:
 12826 0691 6C617374 		.ascii	"lastack\000"
 12826      61636B00 
 12827              	.LASF40:
 12828 0699 4D454D50 		.ascii	"MEMP_MAX\000"
 12828      5F4D4158 
 12828      00
 12829              	.LASF309:
 12830 06a2 7463705F 		.ascii	"tcp_timer\000"
 12830      74696D65 
 12830      7200
 12831              	.LASF18:
 12832 06ac 73385F74 		.ascii	"s8_t\000"
 12832      00
 12833              	.LASF22:
 12834 06b1 7333325F 		.ascii	"s32_t\000"
 12834      7400
 12835              	.LASF323:
 12836 06b7 7463705F 		.ascii	"tcp_output\000"
 12836      6F757470 
 12836      757400
 12837              	.LASF336:
 12838 06c2 6970345F 		.ascii	"ip4_route\000"
 12838      726F7574 
 12838      6500
 12839              	.LASF294:
 12840 06cc 7463705F 		.ascii	"tcp_new_ip_type\000"
 12840      6E65775F 
 12840      69705F74 
 12840      79706500 
 12841              	.LASF61:
 12842 06dc 72785F72 		.ascii	"rx_report\000"
 12842      65706F72 
 12842      7400
 12843              	.LASF84:
 12844 06e6 4552525F 		.ascii	"ERR_WOULDBLOCK\000"
 12844      574F554C 
 12844      44424C4F 
 12844      434B00
 12845              	.LASF148:
 12846 06f5 72747365 		.ascii	"rtseq\000"
 12846      7100
 12847              	.LASF318:
 12848 06fb 7463705F 		.ascii	"tcp_active_pcbs\000"
 12848      61637469 
 12848      76655F70 
 12848      63627300 
 12849              	.LASF314:
 12850 070b 7463705F 		.ascii	"tcp_ticks\000"
 12850      7469636B 
 12850      7300
 12851              	.LASF150:
 12852 0715 64757061 		.ascii	"dupacks\000"
 12852      636B7300 
ARM GAS  C:\Users\Phuong\AppData\Local\Temp\cczg95Bp.s 			page 279


 12853              	.LASF136:
 12854 071d 7072696F 		.ascii	"prio\000"
 12854      00
 12855              	.LASF198:
 12856 0722 61636365 		.ascii	"accept\000"
 12856      707400
 12857              	.LASF38:
 12858 0729 4D454D50 		.ascii	"MEMP_PBUF\000"
 12858      5F504255 
 12858      4600
 12859              	.LASF170:
 12860 0733 706F6C6C 		.ascii	"poll\000"
 12860      00
 12861              	.LASF119:
 12862 0738 636C6965 		.ascii	"client_data\000"
 12862      6E745F64 
 12862      61746100 
 12863              	.LASF44:
 12864 0744 696C6C65 		.ascii	"illegal\000"
 12864      67616C00 
 12865              	.LASF23:
 12866 074c 6D656D5F 		.ascii	"mem_size_t\000"
 12866      73697A65 
 12866      5F7400
 12867              	.LASF124:
 12868 0757 69676D70 		.ascii	"igmp_mac_filter\000"
 12868      5F6D6163 
 12868      5F66696C 
 12868      74657200 
 12869              	.LASF46:
 12870 0767 73746174 		.ascii	"stats_proto\000"
 12870      735F7072 
 12870      6F746F00 
 12871              	.LASF193:
 12872 0773 434C4F53 		.ascii	"CLOSE_WAIT\000"
 12872      455F5741 
 12872      495400
 12873              	.LASF301:
 12874 077e 6F6C645F 		.ascii	"old_local_port\000"
 12874      6C6F6361 
 12874      6C5F706F 
 12874      727400
 12875              	.LASF236:
 12876 078d 776E645F 		.ascii	"wnd_inflation\000"
 12876      696E666C 
 12876      6174696F 
 12876      6E00
 12877              	.LASF110:
 12878 079b 4E455449 		.ascii	"NETIF_ADD_MAC_FILTER\000"
 12878      465F4144 
 12878      445F4D41 
 12878      435F4649 
 12878      4C544552 
 12879              	.LASF168:
 12880 07b0 73656E74 		.ascii	"sent\000"
 12880      00
 12881              	.LASF155:
ARM GAS  C:\Users\Phuong\AppData\Local\Temp\cczg95Bp.s 			page 280


 12882 07b5 736E645F 		.ascii	"snd_wl1\000"
 12882      776C3100 
 12883              	.LASF156:
 12884 07bd 736E645F 		.ascii	"snd_wl2\000"
 12884      776C3200 
 12885              	.LASF202:
 12886 07c5 6F766572 		.ascii	"oversize_left\000"
 12886      73697A65 
 12886      5F6C6566 
 12886      7400
 12887              	.LASF241:
 12888 07d3 7463705F 		.ascii	"tcp_seg_copy\000"
 12888      7365675F 
 12888      636F7079 
 12888      00
 12889              	.LASF302:
 12890 07e0 7463705F 		.ascii	"tcp_netif_ip_addr_changed\000"
 12890      6E657469 
 12890      665F6970 
 12890      5F616464 
 12890      725F6368 
 12891              	.LASF181:
 12892 07fa 7463705F 		.ascii	"tcp_err_fn\000"
 12892      6572725F 
 12892      666E00
 12893              	.LASF341:
 12894 0805 7463705F 		.ascii	"tcp_listen_pcbs_t\000"
 12894      6C697374 
 12894      656E5F70 
 12894      6362735F 
 12894      7400
 12895              	.LASF327:
 12896 0817 70627566 		.ascii	"pbuf_free\000"
 12896      5F667265 
 12896      6500
 12897              	.LASF157:
 12898 0821 736E645F 		.ascii	"snd_lbb\000"
 12898      6C626200 
 12899              	.LASF268:
 12900 0829 7463705F 		.ascii	"tcp_recv_null\000"
 12900      72656376 
 12900      5F6E756C 
 12900      6C00
 12901              	.LASF30:
 12902 0837 4D454D50 		.ascii	"MEMP_NETBUF\000"
 12902      5F4E4554 
 12902      42554600 
 12903              	.LASF113:
 12904 0843 6E65746D 		.ascii	"netmask\000"
 12904      61736B00 
 12905              	.LASF6:
 12906 084b 6C6F6E67 		.ascii	"long long int\000"
 12906      206C6F6E 
 12906      6720696E 
 12906      7400
 12907              	.LASF197:
 12908 0859 7463705F 		.ascii	"tcp_pcb_listen\000"
ARM GAS  C:\Users\Phuong\AppData\Local\Temp\cczg95Bp.s 			page 281


 12908      7063625F 
 12908      6C697374 
 12908      656E00
 12909              	.LASF291:
 12910 0868 7463705F 		.ascii	"tcp_kill_state\000"
 12910      6B696C6C 
 12910      5F737461 
 12910      746500
 12911              	.LASF89:
 12912 0877 4552525F 		.ascii	"ERR_IF\000"
 12912      494600
 12913              	.LASF117:
 12914 087e 73746174 		.ascii	"status_callback\000"
 12914      75735F63 
 12914      616C6C62 
 12914      61636B00 
 12915              	.LASF304:
 12916 088e 7463705F 		.ascii	"tcp_debug_state_str\000"
 12916      64656275 
 12916      675F7374 
 12916      6174655F 
 12916      73747200 
 12917              	.LASF176:
 12918 08a2 70657273 		.ascii	"persist_backoff\000"
 12918      6973745F 
 12918      6261636B 
 12918      6F666600 
 12919              	.LASF283:
 12920 08b2 7463705F 		.ascii	"tcp_kill_timewait\000"
 12920      6B696C6C 
 12920      5F74696D 
 12920      65776169 
 12920      7400
 12921              	.LASF26:
 12922 08c4 4D454D50 		.ascii	"MEMP_TCP_PCB\000"
 12922      5F544350 
 12922      5F504342 
 12922      00
 12923              	.LASF17:
 12924 08d1 75385F74 		.ascii	"u8_t\000"
 12924      00
 12925              	.LASF321:
 12926 08d6 7379735F 		.ascii	"sys_rand16\000"
 12926      72616E64 
 12926      313600
 12927              	.LASF282:
 12928 08e1 7463705F 		.ascii	"tcp_accept_null\000"
 12928      61636365 
 12928      70745F6E 
 12928      756C6C00 
 12929              	.LASF271:
 12930 08f1 7463705F 		.ascii	"tcp_fasttmr\000"
 12930      66617374 
 12930      746D7200 
 12931              	.LASF317:
 12932 08fd 7463705F 		.ascii	"tcp_listen_pcbs\000"
 12932      6C697374 
ARM GAS  C:\Users\Phuong\AppData\Local\Temp\cczg95Bp.s 			page 282


 12932      656E5F70 
 12932      63627300 
 12933              	.LASF85:
 12934 090d 4552525F 		.ascii	"ERR_USE\000"
 12934      55534500 
 12935              	.LASF134:
 12936 0915 736F5F6F 		.ascii	"so_options\000"
 12936      7074696F 
 12936      6E7300
 12937              	.LASF335:
 12938 0920 6D656D73 		.ascii	"memset\000"
 12938      657400
 12939              	.LASF256:
 12940 0927 7463705F 		.ascii	"tcp_slowtmr_start\000"
 12940      736C6F77 
 12940      746D725F 
 12940      73746172 
 12940      7400
 12941              	.LASF231:
 12942 0939 7463705F 		.ascii	"tcp_listen_with_backlog\000"
 12942      6C697374 
 12942      656E5F77 
 12942      6974685F 
 12942      6261636B 
 12943              	.LASF246:
 12944 0951 7463705F 		.ascii	"tcp_err\000"
 12944      65727200 
 12945              	.LASF138:
 12946 0959 72656D6F 		.ascii	"remote_port\000"
 12946      74655F70 
 12946      6F727400 
 12947              	.LASF195:
 12948 0965 4C415354 		.ascii	"LAST_ACK\000"
 12948      5F41434B 
 12948      00
 12949              	.LASF234:
 12950 096e 6E65775F 		.ascii	"new_rcv_ann_wnd\000"
 12950      7263765F 
 12950      616E6E5F 
 12950      776E6400 
 12951              	.LASF217:
 12952 097e 7463705F 		.ascii	"tcp_init\000"
 12952      696E6974 
 12952      00
 12953              	.LASF50:
 12954 0987 63686B65 		.ascii	"chkerr\000"
 12954      727200
 12955              	.LASF29:
 12956 098e 4D454D50 		.ascii	"MEMP_REASSDATA\000"
 12956      5F524541 
 12956      53534441 
 12956      544100
 12957              	.LASF178:
 12958 099d 7463705F 		.ascii	"tcp_recv_fn\000"
 12958      72656376 
 12958      5F666E00 
 12959              	.LASF284:
ARM GAS  C:\Users\Phuong\AppData\Local\Temp\cczg95Bp.s 			page 283


 12960 09a9 696E6163 		.ascii	"inactive\000"
 12960      74697665 
 12960      00
 12961              	.LASF251:
 12962 09b2 7463705F 		.ascii	"tcp_slowtmr\000"
 12962      736C6F77 
 12962      746D7200 
 12963              	.LASF221:
 12964 09be 7463705F 		.ascii	"tcp_close_shutdown_fin\000"
 12964      636C6F73 
 12964      655F7368 
 12964      7574646F 
 12964      776E5F66 
 12965              	.LASF281:
 12966 09d5 7463705F 		.ascii	"tcp_abort\000"
 12966      61626F72 
 12966      7400
 12967              	.LASF60:
 12968 09df 72785F67 		.ascii	"rx_general\000"
 12968      656E6572 
 12968      616C00
 12969              	.LASF229:
 12970 09ea 646F6E65 		.ascii	"done\000"
 12970      00
 12971              	.LASF109:
 12972 09ef 4E455449 		.ascii	"NETIF_DEL_MAC_FILTER\000"
 12972      465F4445 
 12972      4C5F4D41 
 12972      435F4649 
 12972      4C544552 
 12973              	.LASF146:
 12974 0a04 7274696D 		.ascii	"rtime\000"
 12974      6500
 12975              	.LASF257:
 12976 0a0a 6261636B 		.ascii	"backoff_cnt\000"
 12976      6F66665F 
 12976      636E7400 
 12977              	.LASF232:
 12978 0a16 7463705F 		.ascii	"tcp_update_rcv_ann_wnd\000"
 12978      75706461 
 12978      74655F72 
 12978      63765F61 
 12978      6E6E5F77 
 12979              	.LASF324:
 12980 0a2d 7463705F 		.ascii	"tcp_timer_needed\000"
 12980      74696D65 
 12980      725F6E65 
 12980      65646564 
 12980      00
 12981              	.LASF273:
 12982 0a3e 7463705F 		.ascii	"tcp_tmr\000"
 12982      746D7200 
 12983              	.LASF262:
 12984 0a46 6C617374 		.ascii	"last_state\000"
 12984      5F737461 
 12984      746500
 12985              	.LASF11:
ARM GAS  C:\Users\Phuong\AppData\Local\Temp\cczg95Bp.s 			page 284


 12986 0a51 6C6F6E67 		.ascii	"long double\000"
 12986      20646F75 
 12986      626C6500 
 12987              	.LASF322:
 12988 0a5d 7463705F 		.ascii	"tcp_send_fin\000"
 12988      73656E64 
 12988      5F66696E 
 12988      00
 12989              	.LASF184:
 12990 0a6a 74637066 		.ascii	"tcpflags_t\000"
 12990      6C616773 
 12990      5F7400
 12991              	.LASF171:
 12992 0a75 65727266 		.ascii	"errf\000"
 12992      00
 12993              	.LASF180:
 12994 0a7a 7463705F 		.ascii	"tcp_poll_fn\000"
 12994      706F6C6C 
 12994      5F666E00 
 12995              	.LASF158:
 12996 0a86 736E645F 		.ascii	"snd_wnd\000"
 12996      776E6400 
 12997              	.LASF247:
 12998 0a8e 7463705F 		.ascii	"tcp_accept\000"
 12998      61636365 
 12998      707400
 12999              	.LASF19:
 13000 0a99 7531365F 		.ascii	"u16_t\000"
 13000      7400
 13001              	.LASF9:
 13002 0a9f 5F5F7569 		.ascii	"__uint32_t\000"
 13002      6E743332 
 13002      5F7400
 13003              	.LASF238:
 13004 0aaa 7463705F 		.ascii	"tcp_seg_free\000"
 13004      7365675F 
 13004      66726565 
 13004      00
 13005              	.LASF330:
 13006 0ab7 7463705F 		.ascii	"tcp_rst\000"
 13006      72737400 
 13007              	.LASF1:
 13008 0abf 756E7369 		.ascii	"unsigned char\000"
 13008      676E6564 
 13008      20636861 
 13008      7200
 13009              	.LASF165:
 13010 0acd 6F6F7365 		.ascii	"ooseq\000"
 13010      7100
 13011              	.LASF227:
 13012 0ad3 7463705F 		.ascii	"tcp_listen_with_backlog_and_err\000"
 13012      6C697374 
 13012      656E5F77 
 13012      6974685F 
 13012      6261636B 
 13013              	.LASF79:
 13014 0af3 4552525F 		.ascii	"ERR_BUF\000"
ARM GAS  C:\Users\Phuong\AppData\Local\Temp\cczg95Bp.s 			page 285


 13014      42554600 
 13015              	.LASF24:
 13016 0afb 4D454D50 		.ascii	"MEMP_RAW_PCB\000"
 13016      5F524157 
 13016      5F504342 
 13016      00
 13017              	.LASF186:
 13018 0b08 434C4F53 		.ascii	"CLOSED\000"
 13018      454400
 13019              	.LASF306:
 13020 0b0f 7463705F 		.ascii	"tcp_port\000"
 13020      706F7274 
 13020      00
 13021              	.LASF21:
 13022 0b18 7533325F 		.ascii	"u32_t\000"
 13022      7400
 13023              	.LASF2:
 13024 0b1e 73686F72 		.ascii	"short int\000"
 13024      7420696E 
 13024      7400
 13025              	.LASF73:
 13026 0b28 69636D70 		.ascii	"icmp\000"
 13026      00
 13027              	.LASF102:
 13028 0b2d 6970345F 		.ascii	"ip4_addr_t\000"
 13028      61646472 
 13028      5F7400
 13029              	.LASF4:
 13030 0b38 6C6F6E67 		.ascii	"long int\000"
 13030      20696E74 
 13030      00
 13031              	.LASF53:
 13032 0b41 72746572 		.ascii	"rterr\000"
 13032      7200
 13033              	.LASF42:
 13034 0b47 61766169 		.ascii	"avail\000"
 13034      6C00
 13035              	.LASF289:
 13036 0b4d 6F6C645F 		.ascii	"old_addr\000"
 13036      61646472 
 13036      00
 13037              	.LASF163:
 13038 0b56 756E7365 		.ascii	"unsent\000"
 13038      6E7400
 13039              	.LASF143:
 13040 0b5d 7263765F 		.ascii	"rcv_wnd\000"
 13040      776E6400 
 13041              	.LASF147:
 13042 0b65 72747465 		.ascii	"rttest\000"
 13042      737400
 13043              	.LASF225:
 13044 0b6c 63706362 		.ascii	"cpcb\000"
 13044      00
 13045              	.LASF36:
 13046 0b71 4D454D50 		.ascii	"MEMP_SYS_TIMEOUT\000"
 13046      5F535953 
 13046      5F54494D 
ARM GAS  C:\Users\Phuong\AppData\Local\Temp\cczg95Bp.s 			page 286


 13046      454F5554 
 13046      00
 13047              	.LASF141:
 13048 0b82 6C617374 		.ascii	"last_timer\000"
 13048      5F74696D 
 13048      657200
 13049              	.LASF25:
 13050 0b8d 4D454D50 		.ascii	"MEMP_UDP_PCB\000"
 13050      5F554450 
 13050      5F504342 
 13050      00
 13051              	.LASF132:
 13052 0b9a 6C6F6361 		.ascii	"local_ip\000"
 13052      6C5F6970 
 13052      00
 13053              	.LASF267:
 13054 0ba3 7463705F 		.ascii	"tcp_close\000"
 13054      636C6F73 
 13054      6500
 13055              	.LASF68:
 13056 0bad 6D626F78 		.ascii	"mbox\000"
 13056      00
 13057              	.LASF237:
 13058 0bb2 7463705F 		.ascii	"tcp_txnow\000"
 13058      74786E6F 
 13058      7700
 13059              	.LASF162:
 13060 0bbc 756E7365 		.ascii	"unsent_oversize\000"
 13060      6E745F6F 
 13060      76657273 
 13060      697A6500 
 13061              	.LASF188:
 13062 0bcc 53594E5F 		.ascii	"SYN_SENT\000"
 13062      53454E54 
 13062      00
 13063              	.LASF82:
 13064 0bd5 4552525F 		.ascii	"ERR_INPROGRESS\000"
 13064      494E5052 
 13064      4F475245 
 13064      535300
 13065              	.LASF278:
 13066 0be4 72657365 		.ascii	"reset\000"
 13066      7400
 13067              	.LASF100:
 13068 0bea 6970345F 		.ascii	"ip4_addr\000"
 13068      61646472 
 13068      00
 13069              	.LASF190:
 13070 0bf3 45535441 		.ascii	"ESTABLISHED\000"
 13070      424C4953 
 13070      48454400 
 13071              	.LASF87:
 13072 0bff 4552525F 		.ascii	"ERR_ISCONN\000"
 13072      4953434F 
 13072      4E4E00
 13073              	.LASF56:
 13074 0c0a 63616368 		.ascii	"cachehit\000"
ARM GAS  C:\Users\Phuong\AppData\Local\Temp\cczg95Bp.s 			page 287


 13074      65686974 
 13074      00
 13075              	.LASF325:
 13076 0c13 6D656D70 		.ascii	"memp_malloc_fn\000"
 13076      5F6D616C 
 13076      6C6F635F 
 13076      666E00
 13077              	.LASF159:
 13078 0c22 736E645F 		.ascii	"snd_wnd_max\000"
 13078      776E645F 
 13078      6D617800 
 13079              	.LASF41:
 13080 0c2e 6E616D65 		.ascii	"name\000"
 13080      00
 13081              	.LASF127:
 13082 0c33 6E657469 		.ascii	"netif_linkoutput_fn\000"
 13082      665F6C69 
 13082      6E6B6F75 
 13082      74707574 
 13082      5F666E00 
 13083              	.LASF120:
 13084 0c47 72735F63 		.ascii	"rs_count\000"
 13084      6F756E74 
 13084      00
 13085              	.LASF299:
 13086 0c50 6F757469 		.ascii	"outif\000"
 13086      6600
 13087              	.LASF153:
 13088 0c56 73737468 		.ascii	"ssthresh\000"
 13088      72657368 
 13088      00
 13089              	.LASF328:
 13090 0c5f 70627566 		.ascii	"pbuf_ref\000"
 13090      5F726566 
 13090      00
 13091              	.LASF288:
 13092 0c68 7463705F 		.ascii	"tcp_netif_ip_addr_changed_pcblist\000"
 13092      6E657469 
 13092      665F6970 
 13092      5F616464 
 13092      725F6368 
 13093              	.LASF160:
 13094 0c8a 736E645F 		.ascii	"snd_buf\000"
 13094      62756600 
 13095              	.LASF140:
 13096 0c92 706F6C6C 		.ascii	"pollinterval\000"
 13096      696E7465 
 13096      7276616C 
 13096      00
 13097              	.LASF75:
 13098 0c9f 6D656D70 		.ascii	"memp\000"
 13098      00
 13099              	.LASF208:
 13100 0ca4 5F686472 		.ascii	"_hdrlen_rsvd_flags\000"
 13100      6C656E5F 
 13100      72737664 
 13100      5F666C61 
ARM GAS  C:\Users\Phuong\AppData\Local\Temp\cczg95Bp.s 			page 288


 13100      677300
 13101              	.LASF51:
 13102 0cb7 6C656E65 		.ascii	"lenerr\000"
 13102      727200
 13103              	.LASF12:
 13104 0cbe 73697A65 		.ascii	"sizetype\000"
 13104      74797065 
 13104      00
 13105              	.LASF5:
 13106 0cc7 6C6F6E67 		.ascii	"long unsigned int\000"
 13106      20756E73 
 13106      69676E65 
 13106      6420696E 
 13106      7400
 13107              	.LASF108:
 13108 0cd9 6E657469 		.ascii	"netif_mac_filter_action\000"
 13108      665F6D61 
 13108      635F6669 
 13108      6C746572 
 13108      5F616374 
 13109              	.LASF287:
 13110 0cf1 6D707269 		.ascii	"mprio\000"
 13110      6F00
 13111              	.LASF15:
 13112 0cf7 666C6F61 		.ascii	"float\000"
 13112      7400
 13113              	.LASF203:
 13114 0cfd 74637068 		.ascii	"tcphdr\000"
 13114      647200
 13115              	.LASF20:
 13116 0d04 7331365F 		.ascii	"s16_t\000"
 13116      7400
 13117              	.LASF269:
 13118 0d0a 7463705F 		.ascii	"tcp_process_refused_data\000"
 13118      70726F63 
 13118      6573735F 
 13118      72656675 
 13118      7365645F 
 13119              	.LASF223:
 13120 0d23 706F7274 		.ascii	"port\000"
 13120      00
 13121              	.LASF166:
 13122 0d28 72656675 		.ascii	"refused_data\000"
 13122      7365645F 
 13122      64617461 
 13122      00
 13123              	.LASF183:
 13124 0d35 74637077 		.ascii	"tcpwnd_size_t\000"
 13124      6E645F73 
 13124      697A655F 
 13124      7400
 13125              	.LASF339:
 13126 0d43 536F7572 		.ascii	"Source\\LwIP\\src\\core\\tcp.c\000"
 13126      63655C4C 
 13126      7749505C 
 13126      7372635C 
 13126      636F7265 
ARM GAS  C:\Users\Phuong\AppData\Local\Temp\cczg95Bp.s 			page 289


 13127              	.LASF240:
 13128 0d5e 7463705F 		.ascii	"tcp_setprio\000"
 13128      73657470 
 13128      72696F00 
 13129              	.LASF204:
 13130 0d6a 7463705F 		.ascii	"tcp_hdr\000"
 13130      68647200 
 13131              	.LASF98:
 13132 0d72 74797065 		.ascii	"type\000"
 13132      00
 13133              	.LASF66:
 13134 0d77 73746174 		.ascii	"stats_sys\000"
 13134      735F7379 
 13134      7300
 13135              	.LASF94:
 13136 0d81 70627566 		.ascii	"pbuf\000"
 13136      00
 13137              	.LASF107:
 13138 0d86 6C776970 		.ascii	"lwip_internal_netif_client_data_index\000"
 13138      5F696E74 
 13138      65726E61 
 13138      6C5F6E65 
 13138      7469665F 
 13139              	.LASF192:
 13140 0dac 46494E5F 		.ascii	"FIN_WAIT_2\000"
 13140      57414954 
 13140      5F3200
 13141              	.LASF52:
 13142 0db7 6D656D65 		.ascii	"memerr\000"
 13142      727200
 13143              	.LASF28:
 13144 0dbe 4D454D50 		.ascii	"MEMP_TCP_SEG\000"
 13144      5F544350 
 13144      5F534547 
 13144      00
 13145              	.LASF128:
 13146 0dcb 6E657469 		.ascii	"netif_status_callback_fn\000"
 13146      665F7374 
 13146      61747573 
 13146      5F63616C 
 13146      6C626163 
 13147              	.LASF70:
 13148 0de4 6C696E6B 		.ascii	"link\000"
 13148      00
 13149              	.LASF316:
 13150 0de9 7463705F 		.ascii	"tcp_bound_pcbs\000"
 13150      626F756E 
 13150      645F7063 
 13150      627300
 13151              	.LASF172:
 13152 0df8 6B656570 		.ascii	"keep_idle\000"
 13152      5F69646C 
 13152      6500
 13153              	.LASF135:
 13154 0e02 63616C6C 		.ascii	"callback_arg\000"
 13154      6261636B 
 13154      5F617267 
ARM GAS  C:\Users\Phuong\AppData\Local\Temp\cczg95Bp.s 			page 290


 13154      00
 13155              	.LASF187:
 13156 0e0f 4C495354 		.ascii	"LISTEN\000"
 13156      454E00
 13157              	.LASF331:
 13158 0e16 7463705F 		.ascii	"tcp_rexmit_rto\000"
 13158      7265786D 
 13158      69745F72 
 13158      746F00
 13159              	.LASF101:
 13160 0e25 61646472 		.ascii	"addr\000"
 13160      00
 13161              	.LASF62:
 13162 0e2a 74785F6A 		.ascii	"tx_join\000"
 13162      6F696E00 
 13163              	.LASF47:
 13164 0e32 786D6974 		.ascii	"xmit\000"
 13164      00
 13165              	.LASF49:
 13166 0e37 64726F70 		.ascii	"drop\000"
 13166      00
 13167              	.LASF118:
 13168 0e3c 73746174 		.ascii	"state\000"
 13168      6500
 13169              	.LASF97:
 13170 0e42 746F745F 		.ascii	"tot_len\000"
 13170      6C656E00 
 13171              	.LASF244:
 13172 0e4a 7463705F 		.ascii	"tcp_recv\000"
 13172      72656376 
 13172      00
 13173              	.LASF106:
 13174 0e53 4C574950 		.ascii	"LWIP_NETIF_CLIENT_DATA_INDEX_MAX\000"
 13174      5F4E4554 
 13174      49465F43 
 13174      4C49454E 
 13174      545F4441 
 13175              	.LASF111:
 13176 0e74 6E657469 		.ascii	"netif\000"
 13176      6600
 13177              	.LASF305:
 13178 0e7a 7463705F 		.ascii	"tcp_state_str\000"
 13178      73746174 
 13178      655F7374 
 13178      7200
 13179              	.LASF310:
 13180 0e88 7463705F 		.ascii	"tcp_timer_ctr\000"
 13180      74696D65 
 13180      725F6374 
 13180      7200
 13181              	.LASF91:
 13182 0e96 4552525F 		.ascii	"ERR_RST\000"
 13182      52535400 
 13183              	.LASF214:
 13184 0e9e 6C706362 		.ascii	"lpcb\000"
 13184      00
 13185              	.LASF298:
ARM GAS  C:\Users\Phuong\AppData\Local\Temp\cczg95Bp.s 			page 291


 13186 0ea3 6D73735F 		.ascii	"mss_s\000"
 13186      7300
 13187              	.LASF272:
 13188 0ea9 7463705F 		.ascii	"tcp_fasttmr_start\000"
 13188      66617374 
 13188      746D725F 
 13188      73746172 
 13188      7400
 13189              	.LASF129:
 13190 0ebb 6E657469 		.ascii	"netif_igmp_mac_filter_fn\000"
 13190      665F6967 
 13190      6D705F6D 
 13190      61635F66 
 13190      696C7465 
 13191              	.LASF77:
 13192 0ed4 4552525F 		.ascii	"ERR_OK\000"
 13192      4F4B00
 13193              	.LASF326:
 13194 0edb 6D656D70 		.ascii	"memp_free\000"
 13194      5F667265 
 13194      6500
 13195              	.LASF48:
 13196 0ee5 72656376 		.ascii	"recv\000"
 13196      00
 13197              	.LASF104:
 13198 0eea 4C574950 		.ascii	"LWIP_NETIF_CLIENT_DATA_INDEX_DHCP\000"
 13198      5F4E4554 
 13198      49465F43 
 13198      4C49454E 
 13198      545F4441 
 13199              	.LASF0:
 13200 0f0c 7369676E 		.ascii	"signed char\000"
 13200      65642063 
 13200      68617200 
 13201              	.LASF154:
 13202 0f18 736E645F 		.ascii	"snd_nxt\000"
 13202      6E787400 
 13203              	.LASF131:
 13204 0f20 7463705F 		.ascii	"tcp_pcb\000"
 13204      70636200 
 13205              	.LASF3:
 13206 0f28 73686F72 		.ascii	"short unsigned int\000"
 13206      7420756E 
 13206      7369676E 
 13206      65642069 
 13206      6E7400
 13207              	.LASF334:
 13208 0f3b 6D656D63 		.ascii	"memcpy\000"
 13208      707900
 13209              	.LASF57:
 13210 0f42 73746174 		.ascii	"stats_igmp\000"
 13210      735F6967 
 13210      6D7000
 13211              	.LASF88:
 13212 0f4d 4552525F 		.ascii	"ERR_CONN\000"
 13212      434F4E4E 
 13212      00
ARM GAS  C:\Users\Phuong\AppData\Local\Temp\cczg95Bp.s 			page 292


 13213              	.LASF175:
 13214 0f56 70657273 		.ascii	"persist_cnt\000"
 13214      6973745F 
 13214      636E7400 
 13215              	.LASF133:
 13216 0f62 72656D6F 		.ascii	"remote_ip\000"
 13216      74655F69 
 13216      7000
 13217              	.LASF81:
 13218 0f6c 4552525F 		.ascii	"ERR_RTE\000"
 13218      52544500 
 13219              	.LASF16:
 13220 0f74 646F7562 		.ascii	"double\000"
 13220      6C6500
 13221              	.LASF277:
 13222 0f7b 7463705F 		.ascii	"tcp_abandon\000"
 13222      6162616E 
 13222      646F6E00 
 13223              	.LASF173:
 13224 0f87 6B656570 		.ascii	"keep_intvl\000"
 13224      5F696E74 
 13224      766C00
 13225              	.LASF296:
 13226 0f92 7463705F 		.ascii	"tcp_eff_send_mss_impl\000"
 13226      6566665F 
 13226      73656E64 
 13226      5F6D7373 
 13226      5F696D70 
 13227              	.LASF103:
 13228 0fa8 69705F61 		.ascii	"ip_addr_t\000"
 13228      6464725F 
 13228      7400
 13229              	.LASF261:
 13230 0fb2 6572725F 		.ascii	"err_arg\000"
 13230      61726700 
 13231              	.LASF239:
 13232 0fba 7463705F 		.ascii	"tcp_segs_free\000"
 13232      73656773 
 13232      5F667265 
 13232      6500
 13233              	.LASF37:
 13234 0fc8 4D454D50 		.ascii	"MEMP_NETDB\000"
 13234      5F4E4554 
 13234      444200
 13235              	.LASF243:
 13236 0fd3 7463705F 		.ascii	"tcp_arg\000"
 13236      61726700 
 13237              	.LASF280:
 13238 0fdb 73656E64 		.ascii	"send_rst\000"
 13238      5F727374 
 13238      00
 13239              	.LASF64:
 13240 0fe4 74785F72 		.ascii	"tx_report\000"
 13240      65706F72 
 13240      7400
 13241              	.LASF292:
 13242 0fee 7463705F 		.ascii	"tcp_alloc\000"
ARM GAS  C:\Users\Phuong\AppData\Local\Temp\cczg95Bp.s 			page 293


 13242      616C6C6F 
 13242      6300
 13243              	.LASF275:
 13244 0ff8 73687574 		.ascii	"shut_rx\000"
 13244      5F727800 
 13245              	.LASF93:
 13246 1000 4552525F 		.ascii	"ERR_ARG\000"
 13246      41524700 
 13247              	.LASF303:
 13248 1008 6E65775F 		.ascii	"new_addr\000"
 13248      61646472 
 13248      00
 13249              	.LASF149:
 13250 1011 6E727478 		.ascii	"nrtx\000"
 13250      00
 13251              	.LASF161:
 13252 1016 736E645F 		.ascii	"snd_queuelen\000"
 13252      71756575 
 13252      656C656E 
 13252      00
 13253              	.LASF78:
 13254 1023 4552525F 		.ascii	"ERR_MEM\000"
 13254      4D454D00 
 13255              	.LASF205:
 13256 102b 64657374 		.ascii	"dest\000"
 13256      00
 13257              	.LASF297:
 13258 1030 73656E64 		.ascii	"sendmss\000"
 13258      6D737300 
 13259              	.LASF189:
 13260 1038 53594E5F 		.ascii	"SYN_RCVD\000"
 13260      52435644 
 13260      00
 13261              	.LASF112:
 13262 1041 69705F61 		.ascii	"ip_addr\000"
 13262      64647200 
 13263              	.LASF212:
 13264 1049 70636273 		.ascii	"pcbs\000"
 13264      00
 13265              	.LASF59:
 13266 104e 72785F67 		.ascii	"rx_group\000"
 13266      726F7570 
 13266      00
 13267              		.ident	"GCC: (GNU Tools for ARM Embedded Processors) 5.4.1 20160609 (release) [ARM/embedded-5-bran
