ARM GAS  C:\Users\Phuong\AppData\Local\Temp\cc5dKVKJ.s 			page 1


   1              		.syntax unified
   2              		.cpu cortex-m0plus
   3              		.fpu softvfp
   4              		.eabi_attribute 20, 1
   5              		.eabi_attribute 21, 1
   6              		.eabi_attribute 23, 3
   7              		.eabi_attribute 24, 1
   8              		.eabi_attribute 25, 1
   9              		.eabi_attribute 26, 1
  10              		.eabi_attribute 30, 1
  11              		.eabi_attribute 34, 0
  12              		.eabi_attribute 18, 4
  13              		.thumb
  14              		.syntax unified
  15              		.file	"tcp_out.c"
  16              		.text
  17              	.Ltext0:
  18              		.cfi_sections	.debug_frame
  19              		.section	.text.tcp_write_checks,"ax",%progbits
  20              		.align	2
  21              		.code	16
  22              		.thumb_func
  23              		.type	tcp_write_checks, %function
  24              	tcp_write_checks:
  25              	.LFB57:
  26              		.file 1 "Source\\LwIP\\src\\core\\tcp_out.c"
   1:Source\LwIP\src\core/tcp_out.c **** /**
   2:Source\LwIP\src\core/tcp_out.c ****  * @file
   3:Source\LwIP\src\core/tcp_out.c ****  * Transmission Control Protocol, outgoing traffic
   4:Source\LwIP\src\core/tcp_out.c ****  *
   5:Source\LwIP\src\core/tcp_out.c ****  * The output functions of TCP.
   6:Source\LwIP\src\core/tcp_out.c ****  *
   7:Source\LwIP\src\core/tcp_out.c ****  */
   8:Source\LwIP\src\core/tcp_out.c **** 
   9:Source\LwIP\src\core/tcp_out.c **** /*
  10:Source\LwIP\src\core/tcp_out.c ****  * Copyright (c) 2001-2004 Swedish Institute of Computer Science.
  11:Source\LwIP\src\core/tcp_out.c ****  * All rights reserved.
  12:Source\LwIP\src\core/tcp_out.c ****  *
  13:Source\LwIP\src\core/tcp_out.c ****  * Redistribution and use in source and binary forms, with or without modification,
  14:Source\LwIP\src\core/tcp_out.c ****  * are permitted provided that the following conditions are met:
  15:Source\LwIP\src\core/tcp_out.c ****  *
  16:Source\LwIP\src\core/tcp_out.c ****  * 1. Redistributions of source code must retain the above copyright notice,
  17:Source\LwIP\src\core/tcp_out.c ****  *    this list of conditions and the following disclaimer.
  18:Source\LwIP\src\core/tcp_out.c ****  * 2. Redistributions in binary form must reproduce the above copyright notice,
  19:Source\LwIP\src\core/tcp_out.c ****  *    this list of conditions and the following disclaimer in the documentation
  20:Source\LwIP\src\core/tcp_out.c ****  *    and/or other materials provided with the distribution.
  21:Source\LwIP\src\core/tcp_out.c ****  * 3. The name of the author may not be used to endorse or promote products
  22:Source\LwIP\src\core/tcp_out.c ****  *    derived from this software without specific prior written permission.
  23:Source\LwIP\src\core/tcp_out.c ****  *
  24:Source\LwIP\src\core/tcp_out.c ****  * THIS SOFTWARE IS PROVIDED BY THE AUTHOR ``AS IS'' AND ANY EXPRESS OR IMPLIED
  25:Source\LwIP\src\core/tcp_out.c ****  * WARRANTIES, INCLUDING, BUT NOT LIMITED TO, THE IMPLIED WARRANTIES OF
  26:Source\LwIP\src\core/tcp_out.c ****  * MERCHANTABILITY AND FITNESS FOR A PARTICULAR PURPOSE ARE DISCLAIMED. IN NO EVENT
  27:Source\LwIP\src\core/tcp_out.c ****  * SHALL THE AUTHOR BE LIABLE FOR ANY DIRECT, INDIRECT, INCIDENTAL, SPECIAL,
  28:Source\LwIP\src\core/tcp_out.c ****  * EXEMPLARY, OR CONSEQUENTIAL DAMAGES (INCLUDING, BUT NOT LIMITED TO, PROCUREMENT
  29:Source\LwIP\src\core/tcp_out.c ****  * OF SUBSTITUTE GOODS OR SERVICES; LOSS OF USE, DATA, OR PROFITS; OR BUSINESS
  30:Source\LwIP\src\core/tcp_out.c ****  * INTERRUPTION) HOWEVER CAUSED AND ON ANY THEORY OF LIABILITY, WHETHER IN
  31:Source\LwIP\src\core/tcp_out.c ****  * CONTRACT, STRICT LIABILITY, OR TORT (INCLUDING NEGLIGENCE OR OTHERWISE) ARISING
ARM GAS  C:\Users\Phuong\AppData\Local\Temp\cc5dKVKJ.s 			page 2


  32:Source\LwIP\src\core/tcp_out.c ****  * IN ANY WAY OUT OF THE USE OF THIS SOFTWARE, EVEN IF ADVISED OF THE POSSIBILITY
  33:Source\LwIP\src\core/tcp_out.c ****  * OF SUCH DAMAGE.
  34:Source\LwIP\src\core/tcp_out.c ****  *
  35:Source\LwIP\src\core/tcp_out.c ****  * This file is part of the lwIP TCP/IP stack.
  36:Source\LwIP\src\core/tcp_out.c ****  *
  37:Source\LwIP\src\core/tcp_out.c ****  * Author: Adam Dunkels <adam@sics.se>
  38:Source\LwIP\src\core/tcp_out.c ****  *
  39:Source\LwIP\src\core/tcp_out.c ****  */
  40:Source\LwIP\src\core/tcp_out.c **** 
  41:Source\LwIP\src\core/tcp_out.c **** #include "lwip/opt.h"
  42:Source\LwIP\src\core/tcp_out.c **** 
  43:Source\LwIP\src\core/tcp_out.c **** #if LWIP_TCP /* don't build if not configured for use in lwipopts.h */
  44:Source\LwIP\src\core/tcp_out.c **** 
  45:Source\LwIP\src\core/tcp_out.c **** #include "lwip/priv/tcp_priv.h"
  46:Source\LwIP\src\core/tcp_out.c **** #include "lwip/def.h"
  47:Source\LwIP\src\core/tcp_out.c **** #include "lwip/mem.h"
  48:Source\LwIP\src\core/tcp_out.c **** #include "lwip/memp.h"
  49:Source\LwIP\src\core/tcp_out.c **** #include "lwip/ip_addr.h"
  50:Source\LwIP\src\core/tcp_out.c **** #include "lwip/netif.h"
  51:Source\LwIP\src\core/tcp_out.c **** #include "lwip/inet_chksum.h"
  52:Source\LwIP\src\core/tcp_out.c **** #include "lwip/stats.h"
  53:Source\LwIP\src\core/tcp_out.c **** #include "lwip/ip6.h"
  54:Source\LwIP\src\core/tcp_out.c **** #include "lwip/ip6_addr.h"
  55:Source\LwIP\src\core/tcp_out.c **** #if LWIP_TCP_TIMESTAMPS
  56:Source\LwIP\src\core/tcp_out.c **** #include "lwip/sys.h"
  57:Source\LwIP\src\core/tcp_out.c **** #endif
  58:Source\LwIP\src\core/tcp_out.c **** 
  59:Source\LwIP\src\core/tcp_out.c **** #include <string.h>
  60:Source\LwIP\src\core/tcp_out.c **** 
  61:Source\LwIP\src\core/tcp_out.c **** /* Define some copy-macros for checksum-on-copy so that the code looks
  62:Source\LwIP\src\core/tcp_out.c ****    nicer by preventing too many ifdef's. */
  63:Source\LwIP\src\core/tcp_out.c **** #if TCP_CHECKSUM_ON_COPY
  64:Source\LwIP\src\core/tcp_out.c **** #define TCP_DATA_COPY(dst, src, len, seg) do { \
  65:Source\LwIP\src\core/tcp_out.c ****   tcp_seg_add_chksum(LWIP_CHKSUM_COPY(dst, src, len), \
  66:Source\LwIP\src\core/tcp_out.c ****                      len, &seg->chksum, &seg->chksum_swapped); \
  67:Source\LwIP\src\core/tcp_out.c ****   seg->flags |= TF_SEG_DATA_CHECKSUMMED; } while(0)
  68:Source\LwIP\src\core/tcp_out.c **** #define TCP_DATA_COPY2(dst, src, len, chksum, chksum_swapped)  \
  69:Source\LwIP\src\core/tcp_out.c ****   tcp_seg_add_chksum(LWIP_CHKSUM_COPY(dst, src, len), len, chksum, chksum_swapped);
  70:Source\LwIP\src\core/tcp_out.c **** #else /* TCP_CHECKSUM_ON_COPY*/
  71:Source\LwIP\src\core/tcp_out.c **** #define TCP_DATA_COPY(dst, src, len, seg)                     MEMCPY(dst, src, len)
  72:Source\LwIP\src\core/tcp_out.c **** #define TCP_DATA_COPY2(dst, src, len, chksum, chksum_swapped) MEMCPY(dst, src, len)
  73:Source\LwIP\src\core/tcp_out.c **** #endif /* TCP_CHECKSUM_ON_COPY*/
  74:Source\LwIP\src\core/tcp_out.c **** 
  75:Source\LwIP\src\core/tcp_out.c **** /** Define this to 1 for an extra check that the output checksum is valid
  76:Source\LwIP\src\core/tcp_out.c ****  * (usefule when the checksum is generated by the application, not the stack) */
  77:Source\LwIP\src\core/tcp_out.c **** #ifndef TCP_CHECKSUM_ON_COPY_SANITY_CHECK
  78:Source\LwIP\src\core/tcp_out.c **** #define TCP_CHECKSUM_ON_COPY_SANITY_CHECK   0
  79:Source\LwIP\src\core/tcp_out.c **** #endif
  80:Source\LwIP\src\core/tcp_out.c **** /* Allow to override the failure of sanity check from warning to e.g. hard failure */
  81:Source\LwIP\src\core/tcp_out.c **** #if TCP_CHECKSUM_ON_COPY_SANITY_CHECK
  82:Source\LwIP\src\core/tcp_out.c **** #ifndef TCP_CHECKSUM_ON_COPY_SANITY_CHECK_FAIL
  83:Source\LwIP\src\core/tcp_out.c **** #define TCP_CHECKSUM_ON_COPY_SANITY_CHECK_FAIL(msg) LWIP_DEBUGF(TCP_DEBUG | LWIP_DBG_LEVEL_WARNING,
  84:Source\LwIP\src\core/tcp_out.c **** #endif
  85:Source\LwIP\src\core/tcp_out.c **** #endif
  86:Source\LwIP\src\core/tcp_out.c **** 
  87:Source\LwIP\src\core/tcp_out.c **** #if TCP_OVERSIZE
  88:Source\LwIP\src\core/tcp_out.c **** /** The size of segment pbufs created when TCP_OVERSIZE is enabled */
ARM GAS  C:\Users\Phuong\AppData\Local\Temp\cc5dKVKJ.s 			page 3


  89:Source\LwIP\src\core/tcp_out.c **** #ifndef TCP_OVERSIZE_CALC_LENGTH
  90:Source\LwIP\src\core/tcp_out.c **** #define TCP_OVERSIZE_CALC_LENGTH(length) ((length) + TCP_OVERSIZE)
  91:Source\LwIP\src\core/tcp_out.c **** #endif
  92:Source\LwIP\src\core/tcp_out.c **** #endif
  93:Source\LwIP\src\core/tcp_out.c **** 
  94:Source\LwIP\src\core/tcp_out.c **** /* Forward declarations.*/
  95:Source\LwIP\src\core/tcp_out.c **** static err_t tcp_output_segment(struct tcp_seg *seg, struct tcp_pcb *pcb, struct netif *netif);
  96:Source\LwIP\src\core/tcp_out.c **** 
  97:Source\LwIP\src\core/tcp_out.c **** /** Allocate a pbuf and create a tcphdr at p->payload, used for output
  98:Source\LwIP\src\core/tcp_out.c ****  * functions other than the default tcp_output -> tcp_output_segment
  99:Source\LwIP\src\core/tcp_out.c ****  * (e.g. tcp_send_empty_ack, etc.)
 100:Source\LwIP\src\core/tcp_out.c ****  *
 101:Source\LwIP\src\core/tcp_out.c ****  * @param pcb tcp pcb for which to send a packet (used to initialize tcp_hdr)
 102:Source\LwIP\src\core/tcp_out.c ****  * @param optlen length of header-options
 103:Source\LwIP\src\core/tcp_out.c ****  * @param datalen length of tcp data to reserve in pbuf
 104:Source\LwIP\src\core/tcp_out.c ****  * @param seqno_be seqno in network byte order (big-endian)
 105:Source\LwIP\src\core/tcp_out.c ****  * @return pbuf with p->payload being the tcp_hdr
 106:Source\LwIP\src\core/tcp_out.c ****  */
 107:Source\LwIP\src\core/tcp_out.c **** static struct pbuf *
 108:Source\LwIP\src\core/tcp_out.c **** tcp_output_alloc_header(struct tcp_pcb *pcb, u16_t optlen, u16_t datalen,
 109:Source\LwIP\src\core/tcp_out.c ****                       u32_t seqno_be /* already in network byte order */)
 110:Source\LwIP\src\core/tcp_out.c **** {
 111:Source\LwIP\src\core/tcp_out.c ****   struct tcp_hdr *tcphdr;
 112:Source\LwIP\src\core/tcp_out.c ****   struct pbuf *p = pbuf_alloc(PBUF_IP, TCP_HLEN + optlen + datalen, PBUF_RAM);
 113:Source\LwIP\src\core/tcp_out.c ****   if (p != NULL) {
 114:Source\LwIP\src\core/tcp_out.c ****     LWIP_ASSERT("check that first pbuf can hold struct tcp_hdr",
 115:Source\LwIP\src\core/tcp_out.c ****                  (p->len >= TCP_HLEN + optlen));
 116:Source\LwIP\src\core/tcp_out.c ****     tcphdr = (struct tcp_hdr *)p->payload;
 117:Source\LwIP\src\core/tcp_out.c ****     tcphdr->src = lwip_htons(pcb->local_port);
 118:Source\LwIP\src\core/tcp_out.c ****     tcphdr->dest = lwip_htons(pcb->remote_port);
 119:Source\LwIP\src\core/tcp_out.c ****     tcphdr->seqno = seqno_be;
 120:Source\LwIP\src\core/tcp_out.c ****     tcphdr->ackno = lwip_htonl(pcb->rcv_nxt);
 121:Source\LwIP\src\core/tcp_out.c ****     TCPH_HDRLEN_FLAGS_SET(tcphdr, (5 + optlen / 4), TCP_ACK);
 122:Source\LwIP\src\core/tcp_out.c ****     tcphdr->wnd = lwip_htons(TCPWND_MIN16(RCV_WND_SCALE(pcb, pcb->rcv_ann_wnd)));
 123:Source\LwIP\src\core/tcp_out.c ****     tcphdr->chksum = 0;
 124:Source\LwIP\src\core/tcp_out.c ****     tcphdr->urgp = 0;
 125:Source\LwIP\src\core/tcp_out.c **** 
 126:Source\LwIP\src\core/tcp_out.c ****     /* If we're sending a packet, update the announced right window edge */
 127:Source\LwIP\src\core/tcp_out.c ****     pcb->rcv_ann_right_edge = pcb->rcv_nxt + pcb->rcv_ann_wnd;
 128:Source\LwIP\src\core/tcp_out.c ****   }
 129:Source\LwIP\src\core/tcp_out.c ****   return p;
 130:Source\LwIP\src\core/tcp_out.c **** }
 131:Source\LwIP\src\core/tcp_out.c **** 
 132:Source\LwIP\src\core/tcp_out.c **** /**
 133:Source\LwIP\src\core/tcp_out.c ****  * Called by tcp_close() to send a segment including FIN flag but not data.
 134:Source\LwIP\src\core/tcp_out.c ****  *
 135:Source\LwIP\src\core/tcp_out.c ****  * @param pcb the tcp_pcb over which to send a segment
 136:Source\LwIP\src\core/tcp_out.c ****  * @return ERR_OK if sent, another err_t otherwise
 137:Source\LwIP\src\core/tcp_out.c ****  */
 138:Source\LwIP\src\core/tcp_out.c **** err_t
 139:Source\LwIP\src\core/tcp_out.c **** tcp_send_fin(struct tcp_pcb *pcb)
 140:Source\LwIP\src\core/tcp_out.c **** {
 141:Source\LwIP\src\core/tcp_out.c ****   /* first, try to add the fin to the last unsent segment */
 142:Source\LwIP\src\core/tcp_out.c ****   if (pcb->unsent != NULL) {
 143:Source\LwIP\src\core/tcp_out.c ****     struct tcp_seg *last_unsent;
 144:Source\LwIP\src\core/tcp_out.c ****     for (last_unsent = pcb->unsent; last_unsent->next != NULL;
 145:Source\LwIP\src\core/tcp_out.c ****          last_unsent = last_unsent->next);
ARM GAS  C:\Users\Phuong\AppData\Local\Temp\cc5dKVKJ.s 			page 4


 146:Source\LwIP\src\core/tcp_out.c **** 
 147:Source\LwIP\src\core/tcp_out.c ****     if ((TCPH_FLAGS(last_unsent->tcphdr) & (TCP_SYN | TCP_FIN | TCP_RST)) == 0) {
 148:Source\LwIP\src\core/tcp_out.c ****       /* no SYN/FIN/RST flag in the header, we can add the FIN flag */
 149:Source\LwIP\src\core/tcp_out.c ****       TCPH_SET_FLAG(last_unsent->tcphdr, TCP_FIN);
 150:Source\LwIP\src\core/tcp_out.c ****       pcb->flags |= TF_FIN;
 151:Source\LwIP\src\core/tcp_out.c ****       return ERR_OK;
 152:Source\LwIP\src\core/tcp_out.c ****     }
 153:Source\LwIP\src\core/tcp_out.c ****   }
 154:Source\LwIP\src\core/tcp_out.c ****   /* no data, no length, flags, copy=1, no optdata */
 155:Source\LwIP\src\core/tcp_out.c ****   return tcp_enqueue_flags(pcb, TCP_FIN);
 156:Source\LwIP\src\core/tcp_out.c **** }
 157:Source\LwIP\src\core/tcp_out.c **** 
 158:Source\LwIP\src\core/tcp_out.c **** /**
 159:Source\LwIP\src\core/tcp_out.c ****  * Create a TCP segment with prefilled header.
 160:Source\LwIP\src\core/tcp_out.c ****  *
 161:Source\LwIP\src\core/tcp_out.c ****  * Called by tcp_write and tcp_enqueue_flags.
 162:Source\LwIP\src\core/tcp_out.c ****  *
 163:Source\LwIP\src\core/tcp_out.c ****  * @param pcb Protocol control block for the TCP connection.
 164:Source\LwIP\src\core/tcp_out.c ****  * @param p pbuf that is used to hold the TCP header.
 165:Source\LwIP\src\core/tcp_out.c ****  * @param flags TCP flags for header.
 166:Source\LwIP\src\core/tcp_out.c ****  * @param seqno TCP sequence number of this packet
 167:Source\LwIP\src\core/tcp_out.c ****  * @param optflags options to include in TCP header
 168:Source\LwIP\src\core/tcp_out.c ****  * @return a new tcp_seg pointing to p, or NULL.
 169:Source\LwIP\src\core/tcp_out.c ****  * The TCP header is filled in except ackno and wnd.
 170:Source\LwIP\src\core/tcp_out.c ****  * p is freed on failure.
 171:Source\LwIP\src\core/tcp_out.c ****  */
 172:Source\LwIP\src\core/tcp_out.c **** static struct tcp_seg *
 173:Source\LwIP\src\core/tcp_out.c **** tcp_create_segment(struct tcp_pcb *pcb, struct pbuf *p, u8_t flags, u32_t seqno, u8_t optflags)
 174:Source\LwIP\src\core/tcp_out.c **** {
 175:Source\LwIP\src\core/tcp_out.c ****   struct tcp_seg *seg;
 176:Source\LwIP\src\core/tcp_out.c ****   u8_t optlen = LWIP_TCP_OPT_LENGTH(optflags);
 177:Source\LwIP\src\core/tcp_out.c **** 
 178:Source\LwIP\src\core/tcp_out.c ****   if ((seg = (struct tcp_seg *)memp_malloc(MEMP_TCP_SEG)) == NULL) {
 179:Source\LwIP\src\core/tcp_out.c ****     LWIP_DEBUGF(TCP_OUTPUT_DEBUG | LWIP_DBG_LEVEL_SERIOUS, ("tcp_create_segment: no memory.\n"));
 180:Source\LwIP\src\core/tcp_out.c ****     pbuf_free(p);
 181:Source\LwIP\src\core/tcp_out.c ****     return NULL;
 182:Source\LwIP\src\core/tcp_out.c ****   }
 183:Source\LwIP\src\core/tcp_out.c ****   seg->flags = optflags;
 184:Source\LwIP\src\core/tcp_out.c ****   seg->next = NULL;
 185:Source\LwIP\src\core/tcp_out.c ****   seg->p = p;
 186:Source\LwIP\src\core/tcp_out.c ****   LWIP_ASSERT("p->tot_len >= optlen", p->tot_len >= optlen);
 187:Source\LwIP\src\core/tcp_out.c ****   seg->len = p->tot_len - optlen;
 188:Source\LwIP\src\core/tcp_out.c **** #if TCP_OVERSIZE_DBGCHECK
 189:Source\LwIP\src\core/tcp_out.c ****   seg->oversize_left = 0;
 190:Source\LwIP\src\core/tcp_out.c **** #endif /* TCP_OVERSIZE_DBGCHECK */
 191:Source\LwIP\src\core/tcp_out.c **** #if TCP_CHECKSUM_ON_COPY
 192:Source\LwIP\src\core/tcp_out.c ****   seg->chksum = 0;
 193:Source\LwIP\src\core/tcp_out.c ****   seg->chksum_swapped = 0;
 194:Source\LwIP\src\core/tcp_out.c ****   /* check optflags */
 195:Source\LwIP\src\core/tcp_out.c ****   LWIP_ASSERT("invalid optflags passed: TF_SEG_DATA_CHECKSUMMED",
 196:Source\LwIP\src\core/tcp_out.c ****               (optflags & TF_SEG_DATA_CHECKSUMMED) == 0);
 197:Source\LwIP\src\core/tcp_out.c **** #endif /* TCP_CHECKSUM_ON_COPY */
 198:Source\LwIP\src\core/tcp_out.c **** 
 199:Source\LwIP\src\core/tcp_out.c ****   /* build TCP header */
 200:Source\LwIP\src\core/tcp_out.c ****   if (pbuf_header(p, TCP_HLEN)) {
 201:Source\LwIP\src\core/tcp_out.c ****     LWIP_DEBUGF(TCP_OUTPUT_DEBUG | LWIP_DBG_LEVEL_SERIOUS, ("tcp_create_segment: no room for TCP he
 202:Source\LwIP\src\core/tcp_out.c ****     TCP_STATS_INC(tcp.err);
ARM GAS  C:\Users\Phuong\AppData\Local\Temp\cc5dKVKJ.s 			page 5


 203:Source\LwIP\src\core/tcp_out.c ****     tcp_seg_free(seg);
 204:Source\LwIP\src\core/tcp_out.c ****     return NULL;
 205:Source\LwIP\src\core/tcp_out.c ****   }
 206:Source\LwIP\src\core/tcp_out.c ****   seg->tcphdr = (struct tcp_hdr *)seg->p->payload;
 207:Source\LwIP\src\core/tcp_out.c ****   seg->tcphdr->src = lwip_htons(pcb->local_port);
 208:Source\LwIP\src\core/tcp_out.c ****   seg->tcphdr->dest = lwip_htons(pcb->remote_port);
 209:Source\LwIP\src\core/tcp_out.c ****   seg->tcphdr->seqno = lwip_htonl(seqno);
 210:Source\LwIP\src\core/tcp_out.c ****   /* ackno is set in tcp_output */
 211:Source\LwIP\src\core/tcp_out.c ****   TCPH_HDRLEN_FLAGS_SET(seg->tcphdr, (5 + optlen / 4), flags);
 212:Source\LwIP\src\core/tcp_out.c ****   /* wnd and chksum are set in tcp_output */
 213:Source\LwIP\src\core/tcp_out.c ****   seg->tcphdr->urgp = 0;
 214:Source\LwIP\src\core/tcp_out.c ****   return seg;
 215:Source\LwIP\src\core/tcp_out.c **** }
 216:Source\LwIP\src\core/tcp_out.c **** 
 217:Source\LwIP\src\core/tcp_out.c **** /**
 218:Source\LwIP\src\core/tcp_out.c ****  * Allocate a PBUF_RAM pbuf, perhaps with extra space at the end.
 219:Source\LwIP\src\core/tcp_out.c ****  *
 220:Source\LwIP\src\core/tcp_out.c ****  * This function is like pbuf_alloc(layer, length, PBUF_RAM) except
 221:Source\LwIP\src\core/tcp_out.c ****  * there may be extra bytes available at the end.
 222:Source\LwIP\src\core/tcp_out.c ****  *
 223:Source\LwIP\src\core/tcp_out.c ****  * @param layer flag to define header size.
 224:Source\LwIP\src\core/tcp_out.c ****  * @param length size of the pbuf's payload.
 225:Source\LwIP\src\core/tcp_out.c ****  * @param max_length maximum usable size of payload+oversize.
 226:Source\LwIP\src\core/tcp_out.c ****  * @param oversize pointer to a u16_t that will receive the number of usable tail bytes.
 227:Source\LwIP\src\core/tcp_out.c ****  * @param pcb The TCP connection that will enqueue the pbuf.
 228:Source\LwIP\src\core/tcp_out.c ****  * @param apiflags API flags given to tcp_write.
 229:Source\LwIP\src\core/tcp_out.c ****  * @param first_seg true when this pbuf will be used in the first enqueued segment.
 230:Source\LwIP\src\core/tcp_out.c ****  */
 231:Source\LwIP\src\core/tcp_out.c **** #if TCP_OVERSIZE
 232:Source\LwIP\src\core/tcp_out.c **** static struct pbuf *
 233:Source\LwIP\src\core/tcp_out.c **** tcp_pbuf_prealloc(pbuf_layer layer, u16_t length, u16_t max_length,
 234:Source\LwIP\src\core/tcp_out.c ****                   u16_t *oversize, struct tcp_pcb *pcb, u8_t apiflags,
 235:Source\LwIP\src\core/tcp_out.c ****                   u8_t first_seg)
 236:Source\LwIP\src\core/tcp_out.c **** {
 237:Source\LwIP\src\core/tcp_out.c ****   struct pbuf *p;
 238:Source\LwIP\src\core/tcp_out.c ****   u16_t alloc = length;
 239:Source\LwIP\src\core/tcp_out.c **** 
 240:Source\LwIP\src\core/tcp_out.c **** #if LWIP_NETIF_TX_SINGLE_PBUF
 241:Source\LwIP\src\core/tcp_out.c ****   LWIP_UNUSED_ARG(max_length);
 242:Source\LwIP\src\core/tcp_out.c ****   LWIP_UNUSED_ARG(pcb);
 243:Source\LwIP\src\core/tcp_out.c ****   LWIP_UNUSED_ARG(apiflags);
 244:Source\LwIP\src\core/tcp_out.c ****   LWIP_UNUSED_ARG(first_seg);
 245:Source\LwIP\src\core/tcp_out.c ****   alloc = max_length;
 246:Source\LwIP\src\core/tcp_out.c **** #else /* LWIP_NETIF_TX_SINGLE_PBUF */
 247:Source\LwIP\src\core/tcp_out.c ****   if (length < max_length) {
 248:Source\LwIP\src\core/tcp_out.c ****     /* Should we allocate an oversized pbuf, or just the minimum
 249:Source\LwIP\src\core/tcp_out.c ****      * length required? If tcp_write is going to be called again
 250:Source\LwIP\src\core/tcp_out.c ****      * before this segment is transmitted, we want the oversized
 251:Source\LwIP\src\core/tcp_out.c ****      * buffer. If the segment will be transmitted immediately, we can
 252:Source\LwIP\src\core/tcp_out.c ****      * save memory by allocating only length. We use a simple
 253:Source\LwIP\src\core/tcp_out.c ****      * heuristic based on the following information:
 254:Source\LwIP\src\core/tcp_out.c ****      *
 255:Source\LwIP\src\core/tcp_out.c ****      * Did the user set TCP_WRITE_FLAG_MORE?
 256:Source\LwIP\src\core/tcp_out.c ****      *
 257:Source\LwIP\src\core/tcp_out.c ****      * Will the Nagle algorithm defer transmission of this segment?
 258:Source\LwIP\src\core/tcp_out.c ****      */
 259:Source\LwIP\src\core/tcp_out.c ****     if ((apiflags & TCP_WRITE_FLAG_MORE) ||
ARM GAS  C:\Users\Phuong\AppData\Local\Temp\cc5dKVKJ.s 			page 6


 260:Source\LwIP\src\core/tcp_out.c ****         (!(pcb->flags & TF_NODELAY) &&
 261:Source\LwIP\src\core/tcp_out.c ****          (!first_seg ||
 262:Source\LwIP\src\core/tcp_out.c ****           pcb->unsent != NULL ||
 263:Source\LwIP\src\core/tcp_out.c ****           pcb->unacked != NULL))) {
 264:Source\LwIP\src\core/tcp_out.c ****       alloc = LWIP_MIN(max_length, LWIP_MEM_ALIGN_SIZE(TCP_OVERSIZE_CALC_LENGTH(length)));
 265:Source\LwIP\src\core/tcp_out.c ****     }
 266:Source\LwIP\src\core/tcp_out.c ****   }
 267:Source\LwIP\src\core/tcp_out.c **** #endif /* LWIP_NETIF_TX_SINGLE_PBUF */
 268:Source\LwIP\src\core/tcp_out.c ****   p = pbuf_alloc(layer, alloc, PBUF_RAM);
 269:Source\LwIP\src\core/tcp_out.c ****   if (p == NULL) {
 270:Source\LwIP\src\core/tcp_out.c ****     return NULL;
 271:Source\LwIP\src\core/tcp_out.c ****   }
 272:Source\LwIP\src\core/tcp_out.c ****   LWIP_ASSERT("need unchained pbuf", p->next == NULL);
 273:Source\LwIP\src\core/tcp_out.c ****   *oversize = p->len - length;
 274:Source\LwIP\src\core/tcp_out.c ****   /* trim p->len to the currently used size */
 275:Source\LwIP\src\core/tcp_out.c ****   p->len = p->tot_len = length;
 276:Source\LwIP\src\core/tcp_out.c ****   return p;
 277:Source\LwIP\src\core/tcp_out.c **** }
 278:Source\LwIP\src\core/tcp_out.c **** #else /* TCP_OVERSIZE */
 279:Source\LwIP\src\core/tcp_out.c **** #define tcp_pbuf_prealloc(layer, length, mx, os, pcb, api, fst) pbuf_alloc((layer), (length), PBUF_
 280:Source\LwIP\src\core/tcp_out.c **** #endif /* TCP_OVERSIZE */
 281:Source\LwIP\src\core/tcp_out.c **** 
 282:Source\LwIP\src\core/tcp_out.c **** #if TCP_CHECKSUM_ON_COPY
 283:Source\LwIP\src\core/tcp_out.c **** /** Add a checksum of newly added data to the segment */
 284:Source\LwIP\src\core/tcp_out.c **** static void
 285:Source\LwIP\src\core/tcp_out.c **** tcp_seg_add_chksum(u16_t chksum, u16_t len, u16_t *seg_chksum,
 286:Source\LwIP\src\core/tcp_out.c ****                    u8_t *seg_chksum_swapped)
 287:Source\LwIP\src\core/tcp_out.c **** {
 288:Source\LwIP\src\core/tcp_out.c ****   u32_t helper;
 289:Source\LwIP\src\core/tcp_out.c ****   /* add chksum to old chksum and fold to u16_t */
 290:Source\LwIP\src\core/tcp_out.c ****   helper = chksum + *seg_chksum;
 291:Source\LwIP\src\core/tcp_out.c ****   chksum = FOLD_U32T(helper);
 292:Source\LwIP\src\core/tcp_out.c ****   if ((len & 1) != 0) {
 293:Source\LwIP\src\core/tcp_out.c ****     *seg_chksum_swapped = 1 - *seg_chksum_swapped;
 294:Source\LwIP\src\core/tcp_out.c ****     chksum = SWAP_BYTES_IN_WORD(chksum);
 295:Source\LwIP\src\core/tcp_out.c ****   }
 296:Source\LwIP\src\core/tcp_out.c ****   *seg_chksum = chksum;
 297:Source\LwIP\src\core/tcp_out.c **** }
 298:Source\LwIP\src\core/tcp_out.c **** #endif /* TCP_CHECKSUM_ON_COPY */
 299:Source\LwIP\src\core/tcp_out.c **** 
 300:Source\LwIP\src\core/tcp_out.c **** /** Checks if tcp_write is allowed or not (checks state, snd_buf and snd_queuelen).
 301:Source\LwIP\src\core/tcp_out.c ****  *
 302:Source\LwIP\src\core/tcp_out.c ****  * @param pcb the tcp pcb to check for
 303:Source\LwIP\src\core/tcp_out.c ****  * @param len length of data to send (checked agains snd_buf)
 304:Source\LwIP\src\core/tcp_out.c ****  * @return ERR_OK if tcp_write is allowed to proceed, another err_t otherwise
 305:Source\LwIP\src\core/tcp_out.c ****  */
 306:Source\LwIP\src\core/tcp_out.c **** static err_t
 307:Source\LwIP\src\core/tcp_out.c **** tcp_write_checks(struct tcp_pcb *pcb, u16_t len)
 308:Source\LwIP\src\core/tcp_out.c **** {
  27              		.loc 1 308 0
  28              		.cfi_startproc
  29              		@ args = 0, pretend = 0, frame = 0
  30              		@ frame_needed = 0, uses_anonymous_args = 0
  31              		@ link register save eliminated.
  32              	.LVL0:
 309:Source\LwIP\src\core/tcp_out.c ****   /* connection is in invalid state for data transmission? */
 310:Source\LwIP\src\core/tcp_out.c ****   if ((pcb->state != ESTABLISHED) &&
ARM GAS  C:\Users\Phuong\AppData\Local\Temp\cc5dKVKJ.s 			page 7


  33              		.loc 1 310 0
  34 0000 037D     		ldrb	r3, [r0, #20]
  35 0002 042B     		cmp	r3, #4
  36 0004 05D0     		beq	.L2
  37              		.loc 1 310 0 is_stmt 0 discriminator 1
  38 0006 072B     		cmp	r3, #7
  39 0008 03D0     		beq	.L2
 311:Source\LwIP\src\core/tcp_out.c ****       (pcb->state != CLOSE_WAIT) &&
  40              		.loc 1 311 0 is_stmt 1
  41 000a 022B     		cmp	r3, #2
  42 000c 01D0     		beq	.L2
 312:Source\LwIP\src\core/tcp_out.c ****       (pcb->state != SYN_SENT) &&
  43              		.loc 1 312 0
  44 000e 032B     		cmp	r3, #3
  45 0010 1CD1     		bne	.L5
  46              	.L2:
 313:Source\LwIP\src\core/tcp_out.c ****       (pcb->state != SYN_RCVD)) {
 314:Source\LwIP\src\core/tcp_out.c ****     LWIP_DEBUGF(TCP_OUTPUT_DEBUG | LWIP_DBG_STATE | LWIP_DBG_LEVEL_SEVERE, ("tcp_write() called in 
 315:Source\LwIP\src\core/tcp_out.c ****     return ERR_CONN;
 316:Source\LwIP\src\core/tcp_out.c ****   } else if (len == 0) {
  47              		.loc 1 316 0
  48 0012 0029     		cmp	r1, #0
  49 0014 1DD0     		beq	.L6
 317:Source\LwIP\src\core/tcp_out.c ****     return ERR_OK;
 318:Source\LwIP\src\core/tcp_out.c ****   }
 319:Source\LwIP\src\core/tcp_out.c **** 
 320:Source\LwIP\src\core/tcp_out.c ****   /* fail on too much data */
 321:Source\LwIP\src\core/tcp_out.c ****   if (len > pcb->snd_buf) {
  50              		.loc 1 321 0
  51 0016 6023     		movs	r3, #96
  52 0018 C35A     		ldrh	r3, [r0, r3]
  53 001a 9942     		cmp	r1, r3
  54 001c 06D9     		bls	.L4
 322:Source\LwIP\src\core/tcp_out.c ****     LWIP_DEBUGF(TCP_OUTPUT_DEBUG | LWIP_DBG_LEVEL_SEVERE, ("tcp_write: too much data (len=%"U16_F" 
 323:Source\LwIP\src\core/tcp_out.c ****       len, pcb->snd_buf));
 324:Source\LwIP\src\core/tcp_out.c ****     pcb->flags |= TF_NAGLEMEMERR;
  55              		.loc 1 324 0
  56 001e 428B     		ldrh	r2, [r0, #26]
  57 0020 8023     		movs	r3, #128
  58 0022 1343     		orrs	r3, r2
  59 0024 4383     		strh	r3, [r0, #26]
 325:Source\LwIP\src\core/tcp_out.c ****     return ERR_MEM;
  60              		.loc 1 325 0
  61 0026 0120     		movs	r0, #1
  62              	.LVL1:
  63 0028 4042     		rsbs	r0, r0, #0
  64 002a 15E0     		b	.L3
  65              	.LVL2:
  66              	.L4:
 326:Source\LwIP\src\core/tcp_out.c ****   }
 327:Source\LwIP\src\core/tcp_out.c **** 
 328:Source\LwIP\src\core/tcp_out.c ****   LWIP_DEBUGF(TCP_QLEN_DEBUG, ("tcp_write: queuelen: %"TCPWNDSIZE_F"\n", (tcpwnd_size_t)pcb->snd_qu
 329:Source\LwIP\src\core/tcp_out.c **** 
 330:Source\LwIP\src\core/tcp_out.c ****   /* If total number of pbufs on the unsent/unacked queues exceeds the
 331:Source\LwIP\src\core/tcp_out.c ****    * configured maximum, return an error */
 332:Source\LwIP\src\core/tcp_out.c ****   /* check for configured max queuelen and possible overflow */
 333:Source\LwIP\src\core/tcp_out.c ****   if ((pcb->snd_queuelen >= TCP_SND_QUEUELEN) || (pcb->snd_queuelen > TCP_SNDQUEUELEN_OVERFLOW)) {
ARM GAS  C:\Users\Phuong\AppData\Local\Temp\cc5dKVKJ.s 			page 8


  67              		.loc 1 333 0
  68 002c 6223     		movs	r3, #98
  69 002e C35A     		ldrh	r3, [r0, r3]
  70 0030 172B     		cmp	r3, #23
  71 0032 10D9     		bls	.L7
 334:Source\LwIP\src\core/tcp_out.c ****     LWIP_DEBUGF(TCP_OUTPUT_DEBUG | LWIP_DBG_LEVEL_SEVERE, ("tcp_write: too long queue %"U16_F" (max
 335:Source\LwIP\src\core/tcp_out.c ****       pcb->snd_queuelen, (u16_t)TCP_SND_QUEUELEN));
 336:Source\LwIP\src\core/tcp_out.c ****     TCP_STATS_INC(tcp.memerr);
  72              		.loc 1 336 0
  73 0034 0949     		ldr	r1, .L8
  74              	.LVL3:
  75 0036 B822     		movs	r2, #184
  76 0038 8B5A     		ldrh	r3, [r1, r2]
  77 003a 0133     		adds	r3, r3, #1
  78 003c 8B52     		strh	r3, [r1, r2]
 337:Source\LwIP\src\core/tcp_out.c ****     pcb->flags |= TF_NAGLEMEMERR;
  79              		.loc 1 337 0
  80 003e 428B     		ldrh	r2, [r0, #26]
  81 0040 8023     		movs	r3, #128
  82 0042 1343     		orrs	r3, r2
  83 0044 4383     		strh	r3, [r0, #26]
 338:Source\LwIP\src\core/tcp_out.c ****     return ERR_MEM;
  84              		.loc 1 338 0
  85 0046 0120     		movs	r0, #1
  86              	.LVL4:
  87 0048 4042     		rsbs	r0, r0, #0
  88 004a 05E0     		b	.L3
  89              	.LVL5:
  90              	.L5:
 315:Source\LwIP\src\core/tcp_out.c ****   } else if (len == 0) {
  91              		.loc 1 315 0
  92 004c 0B20     		movs	r0, #11
  93              	.LVL6:
  94 004e 4042     		rsbs	r0, r0, #0
  95 0050 02E0     		b	.L3
  96              	.LVL7:
  97              	.L6:
 317:Source\LwIP\src\core/tcp_out.c ****   }
  98              		.loc 1 317 0
  99 0052 0020     		movs	r0, #0
 100              	.LVL8:
 101 0054 00E0     		b	.L3
 102              	.LVL9:
 103              	.L7:
 339:Source\LwIP\src\core/tcp_out.c ****   }
 340:Source\LwIP\src\core/tcp_out.c ****   if (pcb->snd_queuelen != 0) {
 341:Source\LwIP\src\core/tcp_out.c ****     LWIP_ASSERT("tcp_write: pbufs on queue => at least one queue non-empty",
 342:Source\LwIP\src\core/tcp_out.c ****       pcb->unacked != NULL || pcb->unsent != NULL);
 343:Source\LwIP\src\core/tcp_out.c ****   } else {
 344:Source\LwIP\src\core/tcp_out.c ****     LWIP_ASSERT("tcp_write: no pbufs on queue => both queues empty",
 345:Source\LwIP\src\core/tcp_out.c ****       pcb->unacked == NULL && pcb->unsent == NULL);
 346:Source\LwIP\src\core/tcp_out.c ****   }
 347:Source\LwIP\src\core/tcp_out.c ****   return ERR_OK;
 104              		.loc 1 347 0
 105 0056 0020     		movs	r0, #0
 106              	.LVL10:
 107              	.L3:
ARM GAS  C:\Users\Phuong\AppData\Local\Temp\cc5dKVKJ.s 			page 9


 348:Source\LwIP\src\core/tcp_out.c **** }
 108              		.loc 1 348 0
 109              		@ sp needed
 110 0058 7047     		bx	lr
 111              	.L9:
 112 005a C046     		.align	2
 113              	.L8:
 114 005c 00000000 		.word	lwip_stats
 115              		.cfi_endproc
 116              	.LFE57:
 117              		.size	tcp_write_checks, .-tcp_write_checks
 118              		.section	.text.tcp_pbuf_prealloc,"ax",%progbits
 119              		.align	2
 120              		.code	16
 121              		.thumb_func
 122              		.type	tcp_pbuf_prealloc, %function
 123              	tcp_pbuf_prealloc:
 124              	.LFB56:
 236:Source\LwIP\src\core/tcp_out.c ****   struct pbuf *p;
 125              		.loc 1 236 0
 126              		.cfi_startproc
 127              		@ args = 12, pretend = 0, frame = 0
 128              		@ frame_needed = 0, uses_anonymous_args = 0
 129              	.LVL11:
 130 0000 70B5     		push	{r4, r5, r6, lr}
 131              		.cfi_def_cfa_offset 16
 132              		.cfi_offset 4, -16
 133              		.cfi_offset 5, -12
 134              		.cfi_offset 6, -8
 135              		.cfi_offset 14, -4
 136 0002 0C00     		movs	r4, r1
 137 0004 1100     		movs	r1, r2
 138              	.LVL12:
 139 0006 1D00     		movs	r5, r3
 140              	.LVL13:
 268:Source\LwIP\src\core/tcp_out.c ****   if (p == NULL) {
 141              		.loc 1 268 0
 142 0008 0022     		movs	r2, #0
 143              	.LVL14:
 144 000a FFF7FEFF 		bl	pbuf_alloc
 145              	.LVL15:
 269:Source\LwIP\src\core/tcp_out.c ****     return NULL;
 146              		.loc 1 269 0
 147 000e 0028     		cmp	r0, #0
 148 0010 05D0     		beq	.L12
 273:Source\LwIP\src\core/tcp_out.c ****   /* trim p->len to the currently used size */
 149              		.loc 1 273 0
 150 0012 4389     		ldrh	r3, [r0, #10]
 151 0014 1B1B     		subs	r3, r3, r4
 152 0016 2B80     		strh	r3, [r5]
 275:Source\LwIP\src\core/tcp_out.c ****   return p;
 153              		.loc 1 275 0
 154 0018 0481     		strh	r4, [r0, #8]
 155 001a 4481     		strh	r4, [r0, #10]
 276:Source\LwIP\src\core/tcp_out.c **** }
 156              		.loc 1 276 0
 157 001c 00E0     		b	.L11
ARM GAS  C:\Users\Phuong\AppData\Local\Temp\cc5dKVKJ.s 			page 10


 158              	.L12:
 270:Source\LwIP\src\core/tcp_out.c ****   }
 159              		.loc 1 270 0
 160 001e 0020     		movs	r0, #0
 161              	.LVL16:
 162              	.L11:
 277:Source\LwIP\src\core/tcp_out.c **** #else /* TCP_OVERSIZE */
 163              		.loc 1 277 0
 164              		@ sp needed
 165              	.LVL17:
 166 0020 70BD     		pop	{r4, r5, r6, pc}
 167              		.cfi_endproc
 168              	.LFE56:
 169              		.size	tcp_pbuf_prealloc, .-tcp_pbuf_prealloc
 170 0022 C046     		.section	.text.tcp_create_segment,"ax",%progbits
 171              		.align	2
 172              		.code	16
 173              		.thumb_func
 174              		.type	tcp_create_segment, %function
 175              	tcp_create_segment:
 176              	.LFB55:
 174:Source\LwIP\src\core/tcp_out.c ****   struct tcp_seg *seg;
 177              		.loc 1 174 0
 178              		.cfi_startproc
 179              		@ args = 4, pretend = 0, frame = 8
 180              		@ frame_needed = 0, uses_anonymous_args = 0
 181              	.LVL18:
 182 0000 F0B5     		push	{r4, r5, r6, r7, lr}
 183              		.cfi_def_cfa_offset 20
 184              		.cfi_offset 4, -20
 185              		.cfi_offset 5, -16
 186              		.cfi_offset 6, -12
 187              		.cfi_offset 7, -8
 188              		.cfi_offset 14, -4
 189 0002 5746     		mov	r7, r10
 190 0004 4646     		mov	r6, r8
 191 0006 C0B4     		push	{r6, r7}
 192              		.cfi_def_cfa_offset 28
 193              		.cfi_offset 8, -28
 194              		.cfi_offset 10, -24
 195 0008 83B0     		sub	sp, sp, #12
 196              		.cfi_def_cfa_offset 40
 197 000a 0600     		movs	r6, r0
 198 000c 0F00     		movs	r7, r1
 199 000e 9046     		mov	r8, r2
 200 0010 0193     		str	r3, [sp, #4]
 201 0012 0AAB     		add	r3, sp, #40
 202              	.LVL19:
 203 0014 1B78     		ldrb	r3, [r3]
 204              	.LVL20:
 205 0016 9A46     		mov	r10, r3
 176:Source\LwIP\src\core/tcp_out.c **** 
 206              		.loc 1 176 0
 207 0018 DB07     		lsls	r3, r3, #31
 208 001a 01D5     		bpl	.L18
 209 001c 0425     		movs	r5, #4
 210 001e 00E0     		b	.L14
ARM GAS  C:\Users\Phuong\AppData\Local\Temp\cc5dKVKJ.s 			page 11


 211              	.L18:
 212 0020 0025     		movs	r5, #0
 213              	.L14:
 214              	.LVL21:
 178:Source\LwIP\src\core/tcp_out.c ****     LWIP_DEBUGF(TCP_OUTPUT_DEBUG | LWIP_DBG_LEVEL_SERIOUS, ("tcp_create_segment: no memory.\n"));
 215              		.loc 1 178 0 discriminator 4
 216 0022 B222     		movs	r2, #178
 217              	.LVL22:
 218 0024 2A49     		ldr	r1, .L19
 219              	.LVL23:
 220 0026 0420     		movs	r0, #4
 221              	.LVL24:
 222 0028 FFF7FEFF 		bl	memp_malloc_fn
 223              	.LVL25:
 224 002c 041E     		subs	r4, r0, #0
 225              	.LVL26:
 226 002e 04D1     		bne	.L15
 180:Source\LwIP\src\core/tcp_out.c ****     return NULL;
 227              		.loc 1 180 0
 228 0030 3800     		movs	r0, r7
 229              	.LVL27:
 230 0032 FFF7FEFF 		bl	pbuf_free
 231              	.LVL28:
 181:Source\LwIP\src\core/tcp_out.c ****   }
 232              		.loc 1 181 0
 233 0036 0020     		movs	r0, #0
 234 0038 45E0     		b	.L16
 235              	.LVL29:
 236              	.L15:
 183:Source\LwIP\src\core/tcp_out.c ****   seg->next = NULL;
 237              		.loc 1 183 0
 238 003a 5346     		mov	r3, r10
 239 003c 0373     		strb	r3, [r0, #12]
 184:Source\LwIP\src\core/tcp_out.c ****   seg->p = p;
 240              		.loc 1 184 0
 241 003e 0022     		movs	r2, #0
 242 0040 0260     		str	r2, [r0]
 185:Source\LwIP\src\core/tcp_out.c ****   LWIP_ASSERT("p->tot_len >= optlen", p->tot_len >= optlen);
 243              		.loc 1 185 0
 244 0042 4760     		str	r7, [r0, #4]
 187:Source\LwIP\src\core/tcp_out.c **** #if TCP_OVERSIZE_DBGCHECK
 245              		.loc 1 187 0
 246 0044 3B89     		ldrh	r3, [r7, #8]
 247 0046 5B1B     		subs	r3, r3, r5
 248 0048 0381     		strh	r3, [r0, #8]
 189:Source\LwIP\src\core/tcp_out.c **** #endif /* TCP_OVERSIZE_DBGCHECK */
 249              		.loc 1 189 0
 250 004a 4281     		strh	r2, [r0, #10]
 200:Source\LwIP\src\core/tcp_out.c ****     LWIP_DEBUGF(TCP_OUTPUT_DEBUG | LWIP_DBG_LEVEL_SERIOUS, ("tcp_create_segment: no room for TCP he
 251              		.loc 1 200 0
 252 004c 1421     		movs	r1, #20
 253 004e 3800     		movs	r0, r7
 254              	.LVL30:
 255 0050 FFF7FEFF 		bl	pbuf_header
 256              	.LVL31:
 257 0054 0028     		cmp	r0, #0
 258 0056 09D0     		beq	.L17
ARM GAS  C:\Users\Phuong\AppData\Local\Temp\cc5dKVKJ.s 			page 12


 202:Source\LwIP\src\core/tcp_out.c ****     tcp_seg_free(seg);
 259              		.loc 1 202 0
 260 0058 1E49     		ldr	r1, .L19+4
 261 005a C022     		movs	r2, #192
 262 005c 8B5A     		ldrh	r3, [r1, r2]
 263 005e 0133     		adds	r3, r3, #1
 264 0060 8B52     		strh	r3, [r1, r2]
 203:Source\LwIP\src\core/tcp_out.c ****     return NULL;
 265              		.loc 1 203 0
 266 0062 2000     		movs	r0, r4
 267 0064 FFF7FEFF 		bl	tcp_seg_free
 268              	.LVL32:
 204:Source\LwIP\src\core/tcp_out.c ****   }
 269              		.loc 1 204 0
 270 0068 0020     		movs	r0, #0
 271 006a 2CE0     		b	.L16
 272              	.L17:
 206:Source\LwIP\src\core/tcp_out.c ****   seg->tcphdr->src = lwip_htons(pcb->local_port);
 273              		.loc 1 206 0
 274 006c 6368     		ldr	r3, [r4, #4]
 275 006e 5F68     		ldr	r7, [r3, #4]
 276              	.LVL33:
 277 0070 2761     		str	r7, [r4, #16]
 207:Source\LwIP\src\core/tcp_out.c ****   seg->tcphdr->dest = lwip_htons(pcb->remote_port);
 278              		.loc 1 207 0
 279 0072 F08A     		ldrh	r0, [r6, #22]
 280 0074 FFF7FEFF 		bl	lwip_htons
 281              	.LVL34:
 282 0078 3870     		strb	r0, [r7]
 283 007a 000A     		lsrs	r0, r0, #8
 284 007c 7870     		strb	r0, [r7, #1]
 208:Source\LwIP\src\core/tcp_out.c ****   seg->tcphdr->seqno = lwip_htonl(seqno);
 285              		.loc 1 208 0
 286 007e 2769     		ldr	r7, [r4, #16]
 287 0080 308B     		ldrh	r0, [r6, #24]
 288 0082 FFF7FEFF 		bl	lwip_htons
 289              	.LVL35:
 290 0086 B870     		strb	r0, [r7, #2]
 291 0088 000A     		lsrs	r0, r0, #8
 292 008a F870     		strb	r0, [r7, #3]
 209:Source\LwIP\src\core/tcp_out.c ****   /* ackno is set in tcp_output */
 293              		.loc 1 209 0
 294 008c 2769     		ldr	r7, [r4, #16]
 295 008e 0198     		ldr	r0, [sp, #4]
 296 0090 FFF7FEFF 		bl	lwip_htonl
 297              	.LVL36:
 298 0094 3871     		strb	r0, [r7, #4]
 299 0096 030A     		lsrs	r3, r0, #8
 300 0098 7B71     		strb	r3, [r7, #5]
 301 009a 030C     		lsrs	r3, r0, #16
 302 009c BB71     		strb	r3, [r7, #6]
 303 009e 000E     		lsrs	r0, r0, #24
 304 00a0 F871     		strb	r0, [r7, #7]
 211:Source\LwIP\src\core/tcp_out.c ****   /* wnd and chksum are set in tcp_output */
 305              		.loc 1 211 0
 306 00a2 2769     		ldr	r7, [r4, #16]
 307 00a4 AD08     		lsrs	r5, r5, #2
ARM GAS  C:\Users\Phuong\AppData\Local\Temp\cc5dKVKJ.s 			page 13


 308              	.LVL37:
 309 00a6 EDB2     		uxtb	r5, r5
 310 00a8 0535     		adds	r5, r5, #5
 311 00aa 2D03     		lsls	r5, r5, #12
 312 00ac A8B2     		uxth	r0, r5
 313 00ae 4346     		mov	r3, r8
 314 00b0 1843     		orrs	r0, r3
 315 00b2 FFF7FEFF 		bl	lwip_htons
 316              	.LVL38:
 317 00b6 3873     		strb	r0, [r7, #12]
 318 00b8 000A     		lsrs	r0, r0, #8
 319 00ba 7873     		strb	r0, [r7, #13]
 213:Source\LwIP\src\core/tcp_out.c ****   return seg;
 320              		.loc 1 213 0
 321 00bc 2369     		ldr	r3, [r4, #16]
 322 00be 0022     		movs	r2, #0
 323 00c0 9A74     		strb	r2, [r3, #18]
 324 00c2 DA74     		strb	r2, [r3, #19]
 214:Source\LwIP\src\core/tcp_out.c **** }
 325              		.loc 1 214 0
 326 00c4 2000     		movs	r0, r4
 327              	.L16:
 215:Source\LwIP\src\core/tcp_out.c **** 
 328              		.loc 1 215 0
 329 00c6 03B0     		add	sp, sp, #12
 330              		@ sp needed
 331              	.LVL39:
 332              	.LVL40:
 333 00c8 0CBC     		pop	{r2, r3}
 334 00ca 9046     		mov	r8, r2
 335 00cc 9A46     		mov	r10, r3
 336 00ce F0BD     		pop	{r4, r5, r6, r7, pc}
 337              	.L20:
 338              		.align	2
 339              	.L19:
 340 00d0 00000000 		.word	.LC1
 341 00d4 00000000 		.word	lwip_stats
 342              		.cfi_endproc
 343              	.LFE55:
 344              		.size	tcp_create_segment, .-tcp_create_segment
 345              		.section	.text.tcp_output_alloc_header,"ax",%progbits
 346              		.align	2
 347              		.code	16
 348              		.thumb_func
 349              		.type	tcp_output_alloc_header, %function
 350              	tcp_output_alloc_header:
 351              	.LFB53:
 110:Source\LwIP\src\core/tcp_out.c ****   struct tcp_hdr *tcphdr;
 352              		.loc 1 110 0
 353              		.cfi_startproc
 354              		@ args = 0, pretend = 0, frame = 0
 355              		@ frame_needed = 0, uses_anonymous_args = 0
 356              	.LVL41:
 357 0000 F0B5     		push	{r4, r5, r6, r7, lr}
 358              		.cfi_def_cfa_offset 20
 359              		.cfi_offset 4, -20
 360              		.cfi_offset 5, -16
ARM GAS  C:\Users\Phuong\AppData\Local\Temp\cc5dKVKJ.s 			page 14


 361              		.cfi_offset 6, -12
 362              		.cfi_offset 7, -8
 363              		.cfi_offset 14, -4
 364 0002 4746     		mov	r7, r8
 365 0004 80B4     		push	{r7}
 366              		.cfi_def_cfa_offset 24
 367              		.cfi_offset 8, -24
 368 0006 0600     		movs	r6, r0
 369 0008 8846     		mov	r8, r1
 370 000a 1D00     		movs	r5, r3
 112:Source\LwIP\src\core/tcp_out.c ****   if (p != NULL) {
 371              		.loc 1 112 0
 372 000c 4244     		add	r2, r2, r8
 373              	.LVL42:
 374 000e 1432     		adds	r2, r2, #20
 375 0010 91B2     		uxth	r1, r2
 376              	.LVL43:
 377 0012 0022     		movs	r2, #0
 378 0014 0120     		movs	r0, #1
 379              	.LVL44:
 380 0016 FFF7FEFF 		bl	pbuf_alloc
 381              	.LVL45:
 382 001a 071E     		subs	r7, r0, #0
 383              	.LVL46:
 113:Source\LwIP\src\core/tcp_out.c ****     LWIP_ASSERT("check that first pbuf can hold struct tcp_hdr",
 384              		.loc 1 113 0
 385 001c 3AD0     		beq	.L22
 116:Source\LwIP\src\core/tcp_out.c ****     tcphdr->src = lwip_htons(pcb->local_port);
 386              		.loc 1 116 0
 387 001e 4468     		ldr	r4, [r0, #4]
 388              	.LVL47:
 117:Source\LwIP\src\core/tcp_out.c ****     tcphdr->dest = lwip_htons(pcb->remote_port);
 389              		.loc 1 117 0
 390 0020 F08A     		ldrh	r0, [r6, #22]
 391              	.LVL48:
 392 0022 FFF7FEFF 		bl	lwip_htons
 393              	.LVL49:
 394 0026 2070     		strb	r0, [r4]
 395 0028 000A     		lsrs	r0, r0, #8
 396 002a 6070     		strb	r0, [r4, #1]
 118:Source\LwIP\src\core/tcp_out.c ****     tcphdr->seqno = seqno_be;
 397              		.loc 1 118 0
 398 002c 308B     		ldrh	r0, [r6, #24]
 399 002e FFF7FEFF 		bl	lwip_htons
 400              	.LVL50:
 401 0032 A070     		strb	r0, [r4, #2]
 402 0034 000A     		lsrs	r0, r0, #8
 403 0036 E070     		strb	r0, [r4, #3]
 119:Source\LwIP\src\core/tcp_out.c ****     tcphdr->ackno = lwip_htonl(pcb->rcv_nxt);
 404              		.loc 1 119 0
 405 0038 2571     		strb	r5, [r4, #4]
 406 003a 2B0A     		lsrs	r3, r5, #8
 407 003c 6371     		strb	r3, [r4, #5]
 408 003e 2B0C     		lsrs	r3, r5, #16
 409 0040 A371     		strb	r3, [r4, #6]
 410 0042 2B0E     		lsrs	r3, r5, #24
 411 0044 E371     		strb	r3, [r4, #7]
ARM GAS  C:\Users\Phuong\AppData\Local\Temp\cc5dKVKJ.s 			page 15


 120:Source\LwIP\src\core/tcp_out.c ****     TCPH_HDRLEN_FLAGS_SET(tcphdr, (5 + optlen / 4), TCP_ACK);
 412              		.loc 1 120 0
 413 0046 706A     		ldr	r0, [r6, #36]
 414 0048 FFF7FEFF 		bl	lwip_htonl
 415              	.LVL51:
 416 004c 2072     		strb	r0, [r4, #8]
 417 004e 030A     		lsrs	r3, r0, #8
 418 0050 6372     		strb	r3, [r4, #9]
 419 0052 030C     		lsrs	r3, r0, #16
 420 0054 A372     		strb	r3, [r4, #10]
 421 0056 000E     		lsrs	r0, r0, #24
 422 0058 E072     		strb	r0, [r4, #11]
 121:Source\LwIP\src\core/tcp_out.c ****     tcphdr->wnd = lwip_htons(TCPWND_MIN16(RCV_WND_SCALE(pcb, pcb->rcv_ann_wnd)));
 423              		.loc 1 121 0
 424 005a 4346     		mov	r3, r8
 425 005c 9D08     		lsrs	r5, r3, #2
 426              	.LVL52:
 427 005e 0535     		adds	r5, r5, #5
 428 0060 2D03     		lsls	r5, r5, #12
 429 0062 ADB2     		uxth	r5, r5
 430 0064 1020     		movs	r0, #16
 431 0066 0543     		orrs	r5, r0
 432 0068 A8B2     		uxth	r0, r5
 433 006a FFF7FEFF 		bl	lwip_htons
 434              	.LVL53:
 435 006e 2073     		strb	r0, [r4, #12]
 436 0070 000A     		lsrs	r0, r0, #8
 437 0072 6073     		strb	r0, [r4, #13]
 122:Source\LwIP\src\core/tcp_out.c ****     tcphdr->chksum = 0;
 438              		.loc 1 122 0
 439 0074 708D     		ldrh	r0, [r6, #42]
 440 0076 FFF7FEFF 		bl	lwip_htons
 441              	.LVL54:
 442 007a A073     		strb	r0, [r4, #14]
 443 007c 000A     		lsrs	r0, r0, #8
 444 007e E073     		strb	r0, [r4, #15]
 123:Source\LwIP\src\core/tcp_out.c ****     tcphdr->urgp = 0;
 445              		.loc 1 123 0
 446 0080 0023     		movs	r3, #0
 447 0082 2374     		strb	r3, [r4, #16]
 448 0084 6374     		strb	r3, [r4, #17]
 124:Source\LwIP\src\core/tcp_out.c **** 
 449              		.loc 1 124 0
 450 0086 A374     		strb	r3, [r4, #18]
 451 0088 E374     		strb	r3, [r4, #19]
 127:Source\LwIP\src\core/tcp_out.c ****   }
 452              		.loc 1 127 0
 453 008a 738D     		ldrh	r3, [r6, #42]
 454 008c 726A     		ldr	r2, [r6, #36]
 455 008e 9446     		mov	ip, r2
 456 0090 6344     		add	r3, r3, ip
 457 0092 F362     		str	r3, [r6, #44]
 458              	.LVL55:
 459              	.L22:
 130:Source\LwIP\src\core/tcp_out.c **** 
 460              		.loc 1 130 0
 461 0094 3800     		movs	r0, r7
ARM GAS  C:\Users\Phuong\AppData\Local\Temp\cc5dKVKJ.s 			page 16


 462              		@ sp needed
 463              	.LVL56:
 464              	.LVL57:
 465 0096 04BC     		pop	{r2}
 466 0098 9046     		mov	r8, r2
 467 009a F0BD     		pop	{r4, r5, r6, r7, pc}
 468              		.cfi_endproc
 469              	.LFE53:
 470              		.size	tcp_output_alloc_header, .-tcp_output_alloc_header
 471              		.section	.text.tcp_output_segment,"ax",%progbits
 472              		.align	2
 473              		.code	16
 474              		.thumb_func
 475              		.type	tcp_output_segment, %function
 476              	tcp_output_segment:
 477              	.LFB62:
 349:Source\LwIP\src\core/tcp_out.c **** 
 350:Source\LwIP\src\core/tcp_out.c **** /**
 351:Source\LwIP\src\core/tcp_out.c ****  * @ingroup tcp_raw
 352:Source\LwIP\src\core/tcp_out.c ****  * Write data for sending (but does not send it immediately).
 353:Source\LwIP\src\core/tcp_out.c ****  *
 354:Source\LwIP\src\core/tcp_out.c ****  * It waits in the expectation of more data being sent soon (as
 355:Source\LwIP\src\core/tcp_out.c ****  * it can send them more efficiently by combining them together).
 356:Source\LwIP\src\core/tcp_out.c ****  * To prompt the system to send data now, call tcp_output() after
 357:Source\LwIP\src\core/tcp_out.c ****  * calling tcp_write().
 358:Source\LwIP\src\core/tcp_out.c ****  *
 359:Source\LwIP\src\core/tcp_out.c ****  * @param pcb Protocol control block for the TCP connection to enqueue data for.
 360:Source\LwIP\src\core/tcp_out.c ****  * @param arg Pointer to the data to be enqueued for sending.
 361:Source\LwIP\src\core/tcp_out.c ****  * @param len Data length in bytes
 362:Source\LwIP\src\core/tcp_out.c ****  * @param apiflags combination of following flags :
 363:Source\LwIP\src\core/tcp_out.c ****  * - TCP_WRITE_FLAG_COPY (0x01) data will be copied into memory belonging to the stack
 364:Source\LwIP\src\core/tcp_out.c ****  * - TCP_WRITE_FLAG_MORE (0x02) for TCP connection, PSH flag will not be set on last segment sent,
 365:Source\LwIP\src\core/tcp_out.c ****  * @return ERR_OK if enqueued, another err_t on error
 366:Source\LwIP\src\core/tcp_out.c ****  */
 367:Source\LwIP\src\core/tcp_out.c **** err_t
 368:Source\LwIP\src\core/tcp_out.c **** tcp_write(struct tcp_pcb *pcb, const void *arg, u16_t len, u8_t apiflags)
 369:Source\LwIP\src\core/tcp_out.c **** {
 370:Source\LwIP\src\core/tcp_out.c ****   struct pbuf *concat_p = NULL;
 371:Source\LwIP\src\core/tcp_out.c ****   struct tcp_seg *last_unsent = NULL, *seg = NULL, *prev_seg = NULL, *queue = NULL;
 372:Source\LwIP\src\core/tcp_out.c ****   u16_t pos = 0; /* position in 'arg' data */
 373:Source\LwIP\src\core/tcp_out.c ****   u16_t queuelen;
 374:Source\LwIP\src\core/tcp_out.c ****   u8_t optlen = 0;
 375:Source\LwIP\src\core/tcp_out.c ****   u8_t optflags = 0;
 376:Source\LwIP\src\core/tcp_out.c **** #if TCP_OVERSIZE
 377:Source\LwIP\src\core/tcp_out.c ****   u16_t oversize = 0;
 378:Source\LwIP\src\core/tcp_out.c ****   u16_t oversize_used = 0;
 379:Source\LwIP\src\core/tcp_out.c **** #if TCP_OVERSIZE_DBGCHECK
 380:Source\LwIP\src\core/tcp_out.c ****   u16_t oversize_add = 0;
 381:Source\LwIP\src\core/tcp_out.c **** #endif /* TCP_OVERSIZE_DBGCHECK*/
 382:Source\LwIP\src\core/tcp_out.c **** #endif /* TCP_OVERSIZE */
 383:Source\LwIP\src\core/tcp_out.c ****   u16_t extendlen = 0;
 384:Source\LwIP\src\core/tcp_out.c **** #if TCP_CHECKSUM_ON_COPY
 385:Source\LwIP\src\core/tcp_out.c ****   u16_t concat_chksum = 0;
 386:Source\LwIP\src\core/tcp_out.c ****   u8_t concat_chksum_swapped = 0;
 387:Source\LwIP\src\core/tcp_out.c ****   u16_t concat_chksummed = 0;
 388:Source\LwIP\src\core/tcp_out.c **** #endif /* TCP_CHECKSUM_ON_COPY */
 389:Source\LwIP\src\core/tcp_out.c ****   err_t err;
ARM GAS  C:\Users\Phuong\AppData\Local\Temp\cc5dKVKJ.s 			page 17


 390:Source\LwIP\src\core/tcp_out.c ****   /* don't allocate segments bigger than half the maximum window we ever received */
 391:Source\LwIP\src\core/tcp_out.c ****   u16_t mss_local = LWIP_MIN(pcb->mss, TCPWND_MIN16(pcb->snd_wnd_max/2));
 392:Source\LwIP\src\core/tcp_out.c ****   mss_local = mss_local ? mss_local : pcb->mss;
 393:Source\LwIP\src\core/tcp_out.c **** 
 394:Source\LwIP\src\core/tcp_out.c **** #if LWIP_NETIF_TX_SINGLE_PBUF
 395:Source\LwIP\src\core/tcp_out.c ****   /* Always copy to try to create single pbufs for TX */
 396:Source\LwIP\src\core/tcp_out.c ****   apiflags |= TCP_WRITE_FLAG_COPY;
 397:Source\LwIP\src\core/tcp_out.c **** #endif /* LWIP_NETIF_TX_SINGLE_PBUF */
 398:Source\LwIP\src\core/tcp_out.c **** 
 399:Source\LwIP\src\core/tcp_out.c ****   LWIP_DEBUGF(TCP_OUTPUT_DEBUG, ("tcp_write(pcb=%p, data=%p, len=%"U16_F", apiflags=%"U16_F")\n",
 400:Source\LwIP\src\core/tcp_out.c ****     (void *)pcb, arg, len, (u16_t)apiflags));
 401:Source\LwIP\src\core/tcp_out.c ****   LWIP_ERROR("tcp_write: arg == NULL (programmer violates API)",
 402:Source\LwIP\src\core/tcp_out.c ****              arg != NULL, return ERR_ARG;);
 403:Source\LwIP\src\core/tcp_out.c **** 
 404:Source\LwIP\src\core/tcp_out.c ****   err = tcp_write_checks(pcb, len);
 405:Source\LwIP\src\core/tcp_out.c ****   if (err != ERR_OK) {
 406:Source\LwIP\src\core/tcp_out.c ****     return err;
 407:Source\LwIP\src\core/tcp_out.c ****   }
 408:Source\LwIP\src\core/tcp_out.c ****   queuelen = pcb->snd_queuelen;
 409:Source\LwIP\src\core/tcp_out.c **** 
 410:Source\LwIP\src\core/tcp_out.c **** #if LWIP_TCP_TIMESTAMPS
 411:Source\LwIP\src\core/tcp_out.c ****   if ((pcb->flags & TF_TIMESTAMP)) {
 412:Source\LwIP\src\core/tcp_out.c ****     /* Make sure the timestamp option is only included in data segments if we
 413:Source\LwIP\src\core/tcp_out.c ****        agreed about it with the remote host. */
 414:Source\LwIP\src\core/tcp_out.c ****     optflags = TF_SEG_OPTS_TS;
 415:Source\LwIP\src\core/tcp_out.c ****     optlen = LWIP_TCP_OPT_LENGTH(TF_SEG_OPTS_TS);
 416:Source\LwIP\src\core/tcp_out.c ****     /* ensure that segments can hold at least one data byte... */
 417:Source\LwIP\src\core/tcp_out.c ****     mss_local = LWIP_MAX(mss_local, LWIP_TCP_OPT_LEN_TS + 1);
 418:Source\LwIP\src\core/tcp_out.c ****   }
 419:Source\LwIP\src\core/tcp_out.c **** #endif /* LWIP_TCP_TIMESTAMPS */
 420:Source\LwIP\src\core/tcp_out.c **** 
 421:Source\LwIP\src\core/tcp_out.c **** 
 422:Source\LwIP\src\core/tcp_out.c ****   /*
 423:Source\LwIP\src\core/tcp_out.c ****    * TCP segmentation is done in three phases with increasing complexity:
 424:Source\LwIP\src\core/tcp_out.c ****    *
 425:Source\LwIP\src\core/tcp_out.c ****    * 1. Copy data directly into an oversized pbuf.
 426:Source\LwIP\src\core/tcp_out.c ****    * 2. Chain a new pbuf to the end of pcb->unsent.
 427:Source\LwIP\src\core/tcp_out.c ****    * 3. Create new segments.
 428:Source\LwIP\src\core/tcp_out.c ****    *
 429:Source\LwIP\src\core/tcp_out.c ****    * We may run out of memory at any point. In that case we must
 430:Source\LwIP\src\core/tcp_out.c ****    * return ERR_MEM and not change anything in pcb. Therefore, all
 431:Source\LwIP\src\core/tcp_out.c ****    * changes are recorded in local variables and committed at the end
 432:Source\LwIP\src\core/tcp_out.c ****    * of the function. Some pcb fields are maintained in local copies:
 433:Source\LwIP\src\core/tcp_out.c ****    *
 434:Source\LwIP\src\core/tcp_out.c ****    * queuelen = pcb->snd_queuelen
 435:Source\LwIP\src\core/tcp_out.c ****    * oversize = pcb->unsent_oversize
 436:Source\LwIP\src\core/tcp_out.c ****    *
 437:Source\LwIP\src\core/tcp_out.c ****    * These variables are set consistently by the phases:
 438:Source\LwIP\src\core/tcp_out.c ****    *
 439:Source\LwIP\src\core/tcp_out.c ****    * seg points to the last segment tampered with.
 440:Source\LwIP\src\core/tcp_out.c ****    *
 441:Source\LwIP\src\core/tcp_out.c ****    * pos records progress as data is segmented.
 442:Source\LwIP\src\core/tcp_out.c ****    */
 443:Source\LwIP\src\core/tcp_out.c **** 
 444:Source\LwIP\src\core/tcp_out.c ****   /* Find the tail of the unsent queue. */
 445:Source\LwIP\src\core/tcp_out.c ****   if (pcb->unsent != NULL) {
 446:Source\LwIP\src\core/tcp_out.c ****     u16_t space;
ARM GAS  C:\Users\Phuong\AppData\Local\Temp\cc5dKVKJ.s 			page 18


 447:Source\LwIP\src\core/tcp_out.c ****     u16_t unsent_optlen;
 448:Source\LwIP\src\core/tcp_out.c **** 
 449:Source\LwIP\src\core/tcp_out.c ****     /* @todo: this could be sped up by keeping last_unsent in the pcb */
 450:Source\LwIP\src\core/tcp_out.c ****     for (last_unsent = pcb->unsent; last_unsent->next != NULL;
 451:Source\LwIP\src\core/tcp_out.c ****          last_unsent = last_unsent->next);
 452:Source\LwIP\src\core/tcp_out.c **** 
 453:Source\LwIP\src\core/tcp_out.c ****     /* Usable space at the end of the last unsent segment */
 454:Source\LwIP\src\core/tcp_out.c ****     unsent_optlen = LWIP_TCP_OPT_LENGTH(last_unsent->flags);
 455:Source\LwIP\src\core/tcp_out.c ****     LWIP_ASSERT("mss_local is too small", mss_local >= last_unsent->len + unsent_optlen);
 456:Source\LwIP\src\core/tcp_out.c ****     space = mss_local - (last_unsent->len + unsent_optlen);
 457:Source\LwIP\src\core/tcp_out.c **** 
 458:Source\LwIP\src\core/tcp_out.c ****     /*
 459:Source\LwIP\src\core/tcp_out.c ****      * Phase 1: Copy data directly into an oversized pbuf.
 460:Source\LwIP\src\core/tcp_out.c ****      *
 461:Source\LwIP\src\core/tcp_out.c ****      * The number of bytes copied is recorded in the oversize_used
 462:Source\LwIP\src\core/tcp_out.c ****      * variable. The actual copying is done at the bottom of the
 463:Source\LwIP\src\core/tcp_out.c ****      * function.
 464:Source\LwIP\src\core/tcp_out.c ****      */
 465:Source\LwIP\src\core/tcp_out.c **** #if TCP_OVERSIZE
 466:Source\LwIP\src\core/tcp_out.c **** #if TCP_OVERSIZE_DBGCHECK
 467:Source\LwIP\src\core/tcp_out.c ****     /* check that pcb->unsent_oversize matches last_unsent->oversize_left */
 468:Source\LwIP\src\core/tcp_out.c ****     LWIP_ASSERT("unsent_oversize mismatch (pcb vs. last_unsent)",
 469:Source\LwIP\src\core/tcp_out.c ****                 pcb->unsent_oversize == last_unsent->oversize_left);
 470:Source\LwIP\src\core/tcp_out.c **** #endif /* TCP_OVERSIZE_DBGCHECK */
 471:Source\LwIP\src\core/tcp_out.c ****     oversize = pcb->unsent_oversize;
 472:Source\LwIP\src\core/tcp_out.c ****     if (oversize > 0) {
 473:Source\LwIP\src\core/tcp_out.c ****       LWIP_ASSERT("inconsistent oversize vs. space", oversize <= space);
 474:Source\LwIP\src\core/tcp_out.c ****       seg = last_unsent;
 475:Source\LwIP\src\core/tcp_out.c ****       oversize_used = LWIP_MIN(space, LWIP_MIN(oversize, len));
 476:Source\LwIP\src\core/tcp_out.c ****       pos += oversize_used;
 477:Source\LwIP\src\core/tcp_out.c ****       oversize -= oversize_used;
 478:Source\LwIP\src\core/tcp_out.c ****       space -= oversize_used;
 479:Source\LwIP\src\core/tcp_out.c ****     }
 480:Source\LwIP\src\core/tcp_out.c ****     /* now we are either finished or oversize is zero */
 481:Source\LwIP\src\core/tcp_out.c ****     LWIP_ASSERT("inconsistent oversize vs. len", (oversize == 0) || (pos == len));
 482:Source\LwIP\src\core/tcp_out.c **** #endif /* TCP_OVERSIZE */
 483:Source\LwIP\src\core/tcp_out.c **** 
 484:Source\LwIP\src\core/tcp_out.c ****     /*
 485:Source\LwIP\src\core/tcp_out.c ****      * Phase 2: Chain a new pbuf to the end of pcb->unsent.
 486:Source\LwIP\src\core/tcp_out.c ****      *
 487:Source\LwIP\src\core/tcp_out.c ****      * As an exception when NOT copying the data, if the given data buffer
 488:Source\LwIP\src\core/tcp_out.c ****      * directly follows the last unsent data buffer in memory, extend the last
 489:Source\LwIP\src\core/tcp_out.c ****      * ROM pbuf reference to the buffer, thus saving a ROM pbuf allocation.
 490:Source\LwIP\src\core/tcp_out.c ****      *
 491:Source\LwIP\src\core/tcp_out.c ****      * We don't extend segments containing SYN/FIN flags or options
 492:Source\LwIP\src\core/tcp_out.c ****      * (len==0). The new pbuf is kept in concat_p and pbuf_cat'ed at
 493:Source\LwIP\src\core/tcp_out.c ****      * the end.
 494:Source\LwIP\src\core/tcp_out.c ****      */
 495:Source\LwIP\src\core/tcp_out.c ****     if ((pos < len) && (space > 0) && (last_unsent->len > 0)) {
 496:Source\LwIP\src\core/tcp_out.c ****       u16_t seglen = LWIP_MIN(space, len - pos);
 497:Source\LwIP\src\core/tcp_out.c ****       seg = last_unsent;
 498:Source\LwIP\src\core/tcp_out.c **** 
 499:Source\LwIP\src\core/tcp_out.c ****       /* Create a pbuf with a copy or reference to seglen bytes. We
 500:Source\LwIP\src\core/tcp_out.c ****        * can use PBUF_RAW here since the data appears in the middle of
 501:Source\LwIP\src\core/tcp_out.c ****        * a segment. A header will never be prepended. */
 502:Source\LwIP\src\core/tcp_out.c ****       if (apiflags & TCP_WRITE_FLAG_COPY) {
 503:Source\LwIP\src\core/tcp_out.c ****         /* Data is copied */
ARM GAS  C:\Users\Phuong\AppData\Local\Temp\cc5dKVKJ.s 			page 19


 504:Source\LwIP\src\core/tcp_out.c ****         if ((concat_p = tcp_pbuf_prealloc(PBUF_RAW, seglen, space, &oversize, pcb, apiflags, 1)) ==
 505:Source\LwIP\src\core/tcp_out.c ****           LWIP_DEBUGF(TCP_OUTPUT_DEBUG | LWIP_DBG_LEVEL_SERIOUS,
 506:Source\LwIP\src\core/tcp_out.c ****                       ("tcp_write : could not allocate memory for pbuf copy size %"U16_F"\n",
 507:Source\LwIP\src\core/tcp_out.c ****                        seglen));
 508:Source\LwIP\src\core/tcp_out.c ****           goto memerr;
 509:Source\LwIP\src\core/tcp_out.c ****         }
 510:Source\LwIP\src\core/tcp_out.c **** #if TCP_OVERSIZE_DBGCHECK
 511:Source\LwIP\src\core/tcp_out.c ****         oversize_add = oversize;
 512:Source\LwIP\src\core/tcp_out.c **** #endif /* TCP_OVERSIZE_DBGCHECK */
 513:Source\LwIP\src\core/tcp_out.c ****         TCP_DATA_COPY2(concat_p->payload, (const u8_t*)arg + pos, seglen, &concat_chksum, &concat_c
 514:Source\LwIP\src\core/tcp_out.c **** #if TCP_CHECKSUM_ON_COPY
 515:Source\LwIP\src\core/tcp_out.c ****         concat_chksummed += seglen;
 516:Source\LwIP\src\core/tcp_out.c **** #endif /* TCP_CHECKSUM_ON_COPY */
 517:Source\LwIP\src\core/tcp_out.c ****         queuelen += pbuf_clen(concat_p);
 518:Source\LwIP\src\core/tcp_out.c ****       } else {
 519:Source\LwIP\src\core/tcp_out.c ****         /* Data is not copied */
 520:Source\LwIP\src\core/tcp_out.c ****         /* If the last unsent pbuf is of type PBUF_ROM, try to extend it. */
 521:Source\LwIP\src\core/tcp_out.c ****         struct pbuf *p;
 522:Source\LwIP\src\core/tcp_out.c ****         for (p = last_unsent->p; p->next != NULL; p = p->next);
 523:Source\LwIP\src\core/tcp_out.c ****         if (p->type == PBUF_ROM && (const u8_t *)p->payload + p->len == (const u8_t *)arg) {
 524:Source\LwIP\src\core/tcp_out.c ****           LWIP_ASSERT("tcp_write: ROM pbufs cannot be oversized", pos == 0);
 525:Source\LwIP\src\core/tcp_out.c ****           extendlen = seglen;
 526:Source\LwIP\src\core/tcp_out.c ****         } else {
 527:Source\LwIP\src\core/tcp_out.c ****           if ((concat_p = pbuf_alloc(PBUF_RAW, seglen, PBUF_ROM)) == NULL) {
 528:Source\LwIP\src\core/tcp_out.c ****             LWIP_DEBUGF(TCP_OUTPUT_DEBUG | LWIP_DBG_LEVEL_SERIOUS,
 529:Source\LwIP\src\core/tcp_out.c ****                         ("tcp_write: could not allocate memory for zero-copy pbuf\n"));
 530:Source\LwIP\src\core/tcp_out.c ****             goto memerr;
 531:Source\LwIP\src\core/tcp_out.c ****           }
 532:Source\LwIP\src\core/tcp_out.c ****           /* reference the non-volatile payload data */
 533:Source\LwIP\src\core/tcp_out.c ****           ((struct pbuf_rom*)concat_p)->payload = (const u8_t*)arg + pos;
 534:Source\LwIP\src\core/tcp_out.c ****           queuelen += pbuf_clen(concat_p);
 535:Source\LwIP\src\core/tcp_out.c ****         }
 536:Source\LwIP\src\core/tcp_out.c **** #if TCP_CHECKSUM_ON_COPY
 537:Source\LwIP\src\core/tcp_out.c ****         /* calculate the checksum of nocopy-data */
 538:Source\LwIP\src\core/tcp_out.c ****         tcp_seg_add_chksum(~inet_chksum((const u8_t*)arg + pos, seglen), seglen,
 539:Source\LwIP\src\core/tcp_out.c ****           &concat_chksum, &concat_chksum_swapped);
 540:Source\LwIP\src\core/tcp_out.c ****         concat_chksummed += seglen;
 541:Source\LwIP\src\core/tcp_out.c **** #endif /* TCP_CHECKSUM_ON_COPY */
 542:Source\LwIP\src\core/tcp_out.c ****       }
 543:Source\LwIP\src\core/tcp_out.c **** 
 544:Source\LwIP\src\core/tcp_out.c ****       pos += seglen;
 545:Source\LwIP\src\core/tcp_out.c ****     }
 546:Source\LwIP\src\core/tcp_out.c ****   } else {
 547:Source\LwIP\src\core/tcp_out.c **** #if TCP_OVERSIZE
 548:Source\LwIP\src\core/tcp_out.c ****     LWIP_ASSERT("unsent_oversize mismatch (pcb->unsent is NULL)",
 549:Source\LwIP\src\core/tcp_out.c ****                 pcb->unsent_oversize == 0);
 550:Source\LwIP\src\core/tcp_out.c **** #endif /* TCP_OVERSIZE */
 551:Source\LwIP\src\core/tcp_out.c ****   }
 552:Source\LwIP\src\core/tcp_out.c **** 
 553:Source\LwIP\src\core/tcp_out.c ****   /*
 554:Source\LwIP\src\core/tcp_out.c ****    * Phase 3: Create new segments.
 555:Source\LwIP\src\core/tcp_out.c ****    *
 556:Source\LwIP\src\core/tcp_out.c ****    * The new segments are chained together in the local 'queue'
 557:Source\LwIP\src\core/tcp_out.c ****    * variable, ready to be appended to pcb->unsent.
 558:Source\LwIP\src\core/tcp_out.c ****    */
 559:Source\LwIP\src\core/tcp_out.c ****   while (pos < len) {
 560:Source\LwIP\src\core/tcp_out.c ****     struct pbuf *p;
ARM GAS  C:\Users\Phuong\AppData\Local\Temp\cc5dKVKJ.s 			page 20


 561:Source\LwIP\src\core/tcp_out.c ****     u16_t left = len - pos;
 562:Source\LwIP\src\core/tcp_out.c ****     u16_t max_len = mss_local - optlen;
 563:Source\LwIP\src\core/tcp_out.c ****     u16_t seglen = LWIP_MIN(left, max_len);
 564:Source\LwIP\src\core/tcp_out.c **** #if TCP_CHECKSUM_ON_COPY
 565:Source\LwIP\src\core/tcp_out.c ****     u16_t chksum = 0;
 566:Source\LwIP\src\core/tcp_out.c ****     u8_t chksum_swapped = 0;
 567:Source\LwIP\src\core/tcp_out.c **** #endif /* TCP_CHECKSUM_ON_COPY */
 568:Source\LwIP\src\core/tcp_out.c **** 
 569:Source\LwIP\src\core/tcp_out.c ****     if (apiflags & TCP_WRITE_FLAG_COPY) {
 570:Source\LwIP\src\core/tcp_out.c ****       /* If copy is set, memory should be allocated and data copied
 571:Source\LwIP\src\core/tcp_out.c ****        * into pbuf */
 572:Source\LwIP\src\core/tcp_out.c ****       if ((p = tcp_pbuf_prealloc(PBUF_TRANSPORT, seglen + optlen, mss_local, &oversize, pcb, apifla
 573:Source\LwIP\src\core/tcp_out.c ****         LWIP_DEBUGF(TCP_OUTPUT_DEBUG | LWIP_DBG_LEVEL_SERIOUS, ("tcp_write : could not allocate mem
 574:Source\LwIP\src\core/tcp_out.c ****         goto memerr;
 575:Source\LwIP\src\core/tcp_out.c ****       }
 576:Source\LwIP\src\core/tcp_out.c ****       LWIP_ASSERT("tcp_write: check that first pbuf can hold the complete seglen",
 577:Source\LwIP\src\core/tcp_out.c ****                   (p->len >= seglen));
 578:Source\LwIP\src\core/tcp_out.c ****       TCP_DATA_COPY2((char *)p->payload + optlen, (const u8_t*)arg + pos, seglen, &chksum, &chksum_
 579:Source\LwIP\src\core/tcp_out.c ****     } else {
 580:Source\LwIP\src\core/tcp_out.c ****       /* Copy is not set: First allocate a pbuf for holding the data.
 581:Source\LwIP\src\core/tcp_out.c ****        * Since the referenced data is available at least until it is
 582:Source\LwIP\src\core/tcp_out.c ****        * sent out on the link (as it has to be ACKed by the remote
 583:Source\LwIP\src\core/tcp_out.c ****        * party) we can safely use PBUF_ROM instead of PBUF_REF here.
 584:Source\LwIP\src\core/tcp_out.c ****        */
 585:Source\LwIP\src\core/tcp_out.c ****       struct pbuf *p2;
 586:Source\LwIP\src\core/tcp_out.c **** #if TCP_OVERSIZE
 587:Source\LwIP\src\core/tcp_out.c ****       LWIP_ASSERT("oversize == 0", oversize == 0);
 588:Source\LwIP\src\core/tcp_out.c **** #endif /* TCP_OVERSIZE */
 589:Source\LwIP\src\core/tcp_out.c ****       if ((p2 = pbuf_alloc(PBUF_TRANSPORT, seglen, PBUF_ROM)) == NULL) {
 590:Source\LwIP\src\core/tcp_out.c ****         LWIP_DEBUGF(TCP_OUTPUT_DEBUG | LWIP_DBG_LEVEL_SERIOUS, ("tcp_write: could not allocate memo
 591:Source\LwIP\src\core/tcp_out.c ****         goto memerr;
 592:Source\LwIP\src\core/tcp_out.c ****       }
 593:Source\LwIP\src\core/tcp_out.c **** #if TCP_CHECKSUM_ON_COPY
 594:Source\LwIP\src\core/tcp_out.c ****       /* calculate the checksum of nocopy-data */
 595:Source\LwIP\src\core/tcp_out.c ****       chksum = ~inet_chksum((const u8_t*)arg + pos, seglen);
 596:Source\LwIP\src\core/tcp_out.c ****       if (seglen & 1) {
 597:Source\LwIP\src\core/tcp_out.c ****         chksum_swapped = 1;
 598:Source\LwIP\src\core/tcp_out.c ****         chksum = SWAP_BYTES_IN_WORD(chksum);
 599:Source\LwIP\src\core/tcp_out.c ****       }
 600:Source\LwIP\src\core/tcp_out.c **** #endif /* TCP_CHECKSUM_ON_COPY */
 601:Source\LwIP\src\core/tcp_out.c ****       /* reference the non-volatile payload data */
 602:Source\LwIP\src\core/tcp_out.c ****       ((struct pbuf_rom*)p2)->payload = (const u8_t*)arg + pos;
 603:Source\LwIP\src\core/tcp_out.c **** 
 604:Source\LwIP\src\core/tcp_out.c ****       /* Second, allocate a pbuf for the headers. */
 605:Source\LwIP\src\core/tcp_out.c ****       if ((p = pbuf_alloc(PBUF_TRANSPORT, optlen, PBUF_RAM)) == NULL) {
 606:Source\LwIP\src\core/tcp_out.c ****         /* If allocation fails, we have to deallocate the data pbuf as
 607:Source\LwIP\src\core/tcp_out.c ****          * well. */
 608:Source\LwIP\src\core/tcp_out.c ****         pbuf_free(p2);
 609:Source\LwIP\src\core/tcp_out.c ****         LWIP_DEBUGF(TCP_OUTPUT_DEBUG | LWIP_DBG_LEVEL_SERIOUS, ("tcp_write: could not allocate memo
 610:Source\LwIP\src\core/tcp_out.c ****         goto memerr;
 611:Source\LwIP\src\core/tcp_out.c ****       }
 612:Source\LwIP\src\core/tcp_out.c ****       /* Concatenate the headers and data pbufs together. */
 613:Source\LwIP\src\core/tcp_out.c ****       pbuf_cat(p/*header*/, p2/*data*/);
 614:Source\LwIP\src\core/tcp_out.c ****     }
 615:Source\LwIP\src\core/tcp_out.c **** 
 616:Source\LwIP\src\core/tcp_out.c ****     queuelen += pbuf_clen(p);
 617:Source\LwIP\src\core/tcp_out.c **** 
ARM GAS  C:\Users\Phuong\AppData\Local\Temp\cc5dKVKJ.s 			page 21


 618:Source\LwIP\src\core/tcp_out.c ****     /* Now that there are more segments queued, we check again if the
 619:Source\LwIP\src\core/tcp_out.c ****      * length of the queue exceeds the configured maximum or
 620:Source\LwIP\src\core/tcp_out.c ****      * overflows. */
 621:Source\LwIP\src\core/tcp_out.c ****     if ((queuelen > TCP_SND_QUEUELEN) || (queuelen > TCP_SNDQUEUELEN_OVERFLOW)) {
 622:Source\LwIP\src\core/tcp_out.c ****       LWIP_DEBUGF(TCP_OUTPUT_DEBUG | LWIP_DBG_LEVEL_SERIOUS, ("tcp_write: queue too long %"U16_F" (
 623:Source\LwIP\src\core/tcp_out.c ****         queuelen, (int)TCP_SND_QUEUELEN));
 624:Source\LwIP\src\core/tcp_out.c ****       pbuf_free(p);
 625:Source\LwIP\src\core/tcp_out.c ****       goto memerr;
 626:Source\LwIP\src\core/tcp_out.c ****     }
 627:Source\LwIP\src\core/tcp_out.c **** 
 628:Source\LwIP\src\core/tcp_out.c ****     if ((seg = tcp_create_segment(pcb, p, 0, pcb->snd_lbb + pos, optflags)) == NULL) {
 629:Source\LwIP\src\core/tcp_out.c ****       goto memerr;
 630:Source\LwIP\src\core/tcp_out.c ****     }
 631:Source\LwIP\src\core/tcp_out.c **** #if TCP_OVERSIZE_DBGCHECK
 632:Source\LwIP\src\core/tcp_out.c ****     seg->oversize_left = oversize;
 633:Source\LwIP\src\core/tcp_out.c **** #endif /* TCP_OVERSIZE_DBGCHECK */
 634:Source\LwIP\src\core/tcp_out.c **** #if TCP_CHECKSUM_ON_COPY
 635:Source\LwIP\src\core/tcp_out.c ****     seg->chksum = chksum;
 636:Source\LwIP\src\core/tcp_out.c ****     seg->chksum_swapped = chksum_swapped;
 637:Source\LwIP\src\core/tcp_out.c ****     seg->flags |= TF_SEG_DATA_CHECKSUMMED;
 638:Source\LwIP\src\core/tcp_out.c **** #endif /* TCP_CHECKSUM_ON_COPY */
 639:Source\LwIP\src\core/tcp_out.c **** 
 640:Source\LwIP\src\core/tcp_out.c ****     /* first segment of to-be-queued data? */
 641:Source\LwIP\src\core/tcp_out.c ****     if (queue == NULL) {
 642:Source\LwIP\src\core/tcp_out.c ****       queue = seg;
 643:Source\LwIP\src\core/tcp_out.c ****     } else {
 644:Source\LwIP\src\core/tcp_out.c ****       /* Attach the segment to the end of the queued segments */
 645:Source\LwIP\src\core/tcp_out.c ****       LWIP_ASSERT("prev_seg != NULL", prev_seg != NULL);
 646:Source\LwIP\src\core/tcp_out.c ****       prev_seg->next = seg;
 647:Source\LwIP\src\core/tcp_out.c ****     }
 648:Source\LwIP\src\core/tcp_out.c ****     /* remember last segment of to-be-queued data for next iteration */
 649:Source\LwIP\src\core/tcp_out.c ****     prev_seg = seg;
 650:Source\LwIP\src\core/tcp_out.c **** 
 651:Source\LwIP\src\core/tcp_out.c ****     LWIP_DEBUGF(TCP_OUTPUT_DEBUG | LWIP_DBG_TRACE, ("tcp_write: queueing %"U32_F":%"U32_F"\n",
 652:Source\LwIP\src\core/tcp_out.c ****       lwip_ntohl(seg->tcphdr->seqno),
 653:Source\LwIP\src\core/tcp_out.c ****       lwip_ntohl(seg->tcphdr->seqno) + TCP_TCPLEN(seg)));
 654:Source\LwIP\src\core/tcp_out.c **** 
 655:Source\LwIP\src\core/tcp_out.c ****     pos += seglen;
 656:Source\LwIP\src\core/tcp_out.c ****   }
 657:Source\LwIP\src\core/tcp_out.c **** 
 658:Source\LwIP\src\core/tcp_out.c ****   /*
 659:Source\LwIP\src\core/tcp_out.c ****    * All three segmentation phases were successful. We can commit the
 660:Source\LwIP\src\core/tcp_out.c ****    * transaction.
 661:Source\LwIP\src\core/tcp_out.c ****    */
 662:Source\LwIP\src\core/tcp_out.c **** #if TCP_OVERSIZE_DBGCHECK
 663:Source\LwIP\src\core/tcp_out.c ****   if ((last_unsent != NULL) && (oversize_add != 0)) {
 664:Source\LwIP\src\core/tcp_out.c ****     last_unsent->oversize_left += oversize_add;
 665:Source\LwIP\src\core/tcp_out.c ****   }
 666:Source\LwIP\src\core/tcp_out.c **** #endif /* TCP_OVERSIZE_DBGCHECK */
 667:Source\LwIP\src\core/tcp_out.c **** 
 668:Source\LwIP\src\core/tcp_out.c ****   /*
 669:Source\LwIP\src\core/tcp_out.c ****    * Phase 1: If data has been added to the preallocated tail of
 670:Source\LwIP\src\core/tcp_out.c ****    * last_unsent, we update the length fields of the pbuf chain.
 671:Source\LwIP\src\core/tcp_out.c ****    */
 672:Source\LwIP\src\core/tcp_out.c **** #if TCP_OVERSIZE
 673:Source\LwIP\src\core/tcp_out.c ****   if (oversize_used > 0) {
 674:Source\LwIP\src\core/tcp_out.c ****     struct pbuf *p;
ARM GAS  C:\Users\Phuong\AppData\Local\Temp\cc5dKVKJ.s 			page 22


 675:Source\LwIP\src\core/tcp_out.c ****     /* Bump tot_len of whole chain, len of tail */
 676:Source\LwIP\src\core/tcp_out.c ****     for (p = last_unsent->p; p; p = p->next) {
 677:Source\LwIP\src\core/tcp_out.c ****       p->tot_len += oversize_used;
 678:Source\LwIP\src\core/tcp_out.c ****       if (p->next == NULL) {
 679:Source\LwIP\src\core/tcp_out.c ****         TCP_DATA_COPY((char *)p->payload + p->len, arg, oversize_used, last_unsent);
 680:Source\LwIP\src\core/tcp_out.c ****         p->len += oversize_used;
 681:Source\LwIP\src\core/tcp_out.c ****       }
 682:Source\LwIP\src\core/tcp_out.c ****     }
 683:Source\LwIP\src\core/tcp_out.c ****     last_unsent->len += oversize_used;
 684:Source\LwIP\src\core/tcp_out.c **** #if TCP_OVERSIZE_DBGCHECK
 685:Source\LwIP\src\core/tcp_out.c ****     LWIP_ASSERT("last_unsent->oversize_left >= oversize_used",
 686:Source\LwIP\src\core/tcp_out.c ****                 last_unsent->oversize_left >= oversize_used);
 687:Source\LwIP\src\core/tcp_out.c ****     last_unsent->oversize_left -= oversize_used;
 688:Source\LwIP\src\core/tcp_out.c **** #endif /* TCP_OVERSIZE_DBGCHECK */
 689:Source\LwIP\src\core/tcp_out.c ****   }
 690:Source\LwIP\src\core/tcp_out.c ****   pcb->unsent_oversize = oversize;
 691:Source\LwIP\src\core/tcp_out.c **** #endif /* TCP_OVERSIZE */
 692:Source\LwIP\src\core/tcp_out.c **** 
 693:Source\LwIP\src\core/tcp_out.c ****   /*
 694:Source\LwIP\src\core/tcp_out.c ****    * Phase 2: concat_p can be concatenated onto last_unsent->p, unless we
 695:Source\LwIP\src\core/tcp_out.c ****    * determined that the last ROM pbuf can be extended to include the new data.
 696:Source\LwIP\src\core/tcp_out.c ****    */
 697:Source\LwIP\src\core/tcp_out.c ****   if (concat_p != NULL) {
 698:Source\LwIP\src\core/tcp_out.c ****     LWIP_ASSERT("tcp_write: cannot concatenate when pcb->unsent is empty",
 699:Source\LwIP\src\core/tcp_out.c ****       (last_unsent != NULL));
 700:Source\LwIP\src\core/tcp_out.c ****     pbuf_cat(last_unsent->p, concat_p);
 701:Source\LwIP\src\core/tcp_out.c ****     last_unsent->len += concat_p->tot_len;
 702:Source\LwIP\src\core/tcp_out.c ****   } else if (extendlen > 0) {
 703:Source\LwIP\src\core/tcp_out.c ****     struct pbuf *p;
 704:Source\LwIP\src\core/tcp_out.c ****     LWIP_ASSERT("tcp_write: extension of reference requires reference",
 705:Source\LwIP\src\core/tcp_out.c ****       last_unsent != NULL && last_unsent->p != NULL);
 706:Source\LwIP\src\core/tcp_out.c ****     for (p = last_unsent->p; p->next != NULL; p = p->next) {
 707:Source\LwIP\src\core/tcp_out.c ****       p->tot_len += extendlen;
 708:Source\LwIP\src\core/tcp_out.c ****     }
 709:Source\LwIP\src\core/tcp_out.c ****     p->tot_len += extendlen;
 710:Source\LwIP\src\core/tcp_out.c ****     p->len += extendlen;
 711:Source\LwIP\src\core/tcp_out.c ****     last_unsent->len += extendlen;
 712:Source\LwIP\src\core/tcp_out.c ****   }
 713:Source\LwIP\src\core/tcp_out.c **** 
 714:Source\LwIP\src\core/tcp_out.c **** #if TCP_CHECKSUM_ON_COPY
 715:Source\LwIP\src\core/tcp_out.c ****   if (concat_chksummed) {
 716:Source\LwIP\src\core/tcp_out.c ****     LWIP_ASSERT("tcp_write: concat checksum needs concatenated data",
 717:Source\LwIP\src\core/tcp_out.c ****         concat_p != NULL || extendlen > 0);
 718:Source\LwIP\src\core/tcp_out.c ****     /*if concat checksumm swapped - swap it back */
 719:Source\LwIP\src\core/tcp_out.c ****     if (concat_chksum_swapped) {
 720:Source\LwIP\src\core/tcp_out.c ****       concat_chksum = SWAP_BYTES_IN_WORD(concat_chksum);
 721:Source\LwIP\src\core/tcp_out.c ****     }
 722:Source\LwIP\src\core/tcp_out.c ****     tcp_seg_add_chksum(concat_chksum, concat_chksummed, &last_unsent->chksum,
 723:Source\LwIP\src\core/tcp_out.c ****       &last_unsent->chksum_swapped);
 724:Source\LwIP\src\core/tcp_out.c ****     last_unsent->flags |= TF_SEG_DATA_CHECKSUMMED;
 725:Source\LwIP\src\core/tcp_out.c ****   }
 726:Source\LwIP\src\core/tcp_out.c **** #endif /* TCP_CHECKSUM_ON_COPY */
 727:Source\LwIP\src\core/tcp_out.c **** 
 728:Source\LwIP\src\core/tcp_out.c ****   /*
 729:Source\LwIP\src\core/tcp_out.c ****    * Phase 3: Append queue to pcb->unsent. Queue may be NULL, but that
 730:Source\LwIP\src\core/tcp_out.c ****    * is harmless
 731:Source\LwIP\src\core/tcp_out.c ****    */
ARM GAS  C:\Users\Phuong\AppData\Local\Temp\cc5dKVKJ.s 			page 23


 732:Source\LwIP\src\core/tcp_out.c ****   if (last_unsent == NULL) {
 733:Source\LwIP\src\core/tcp_out.c ****     pcb->unsent = queue;
 734:Source\LwIP\src\core/tcp_out.c ****   } else {
 735:Source\LwIP\src\core/tcp_out.c ****     last_unsent->next = queue;
 736:Source\LwIP\src\core/tcp_out.c ****   }
 737:Source\LwIP\src\core/tcp_out.c **** 
 738:Source\LwIP\src\core/tcp_out.c ****   /*
 739:Source\LwIP\src\core/tcp_out.c ****    * Finally update the pcb state.
 740:Source\LwIP\src\core/tcp_out.c ****    */
 741:Source\LwIP\src\core/tcp_out.c ****   pcb->snd_lbb += len;
 742:Source\LwIP\src\core/tcp_out.c ****   pcb->snd_buf -= len;
 743:Source\LwIP\src\core/tcp_out.c ****   pcb->snd_queuelen = queuelen;
 744:Source\LwIP\src\core/tcp_out.c **** 
 745:Source\LwIP\src\core/tcp_out.c ****   LWIP_DEBUGF(TCP_QLEN_DEBUG, ("tcp_write: %"S16_F" (after enqueued)\n",
 746:Source\LwIP\src\core/tcp_out.c ****     pcb->snd_queuelen));
 747:Source\LwIP\src\core/tcp_out.c ****   if (pcb->snd_queuelen != 0) {
 748:Source\LwIP\src\core/tcp_out.c ****     LWIP_ASSERT("tcp_write: valid queue length",
 749:Source\LwIP\src\core/tcp_out.c ****                 pcb->unacked != NULL || pcb->unsent != NULL);
 750:Source\LwIP\src\core/tcp_out.c ****   }
 751:Source\LwIP\src\core/tcp_out.c **** 
 752:Source\LwIP\src\core/tcp_out.c ****   /* Set the PSH flag in the last segment that we enqueued. */
 753:Source\LwIP\src\core/tcp_out.c ****   if (seg != NULL && seg->tcphdr != NULL && ((apiflags & TCP_WRITE_FLAG_MORE)==0)) {
 754:Source\LwIP\src\core/tcp_out.c ****     TCPH_SET_FLAG(seg->tcphdr, TCP_PSH);
 755:Source\LwIP\src\core/tcp_out.c ****   }
 756:Source\LwIP\src\core/tcp_out.c **** 
 757:Source\LwIP\src\core/tcp_out.c ****   return ERR_OK;
 758:Source\LwIP\src\core/tcp_out.c **** memerr:
 759:Source\LwIP\src\core/tcp_out.c ****   pcb->flags |= TF_NAGLEMEMERR;
 760:Source\LwIP\src\core/tcp_out.c ****   TCP_STATS_INC(tcp.memerr);
 761:Source\LwIP\src\core/tcp_out.c **** 
 762:Source\LwIP\src\core/tcp_out.c ****   if (concat_p != NULL) {
 763:Source\LwIP\src\core/tcp_out.c ****     pbuf_free(concat_p);
 764:Source\LwIP\src\core/tcp_out.c ****   }
 765:Source\LwIP\src\core/tcp_out.c ****   if (queue != NULL) {
 766:Source\LwIP\src\core/tcp_out.c ****     tcp_segs_free(queue);
 767:Source\LwIP\src\core/tcp_out.c ****   }
 768:Source\LwIP\src\core/tcp_out.c ****   if (pcb->snd_queuelen != 0) {
 769:Source\LwIP\src\core/tcp_out.c ****     LWIP_ASSERT("tcp_write: valid queue length", pcb->unacked != NULL ||
 770:Source\LwIP\src\core/tcp_out.c ****       pcb->unsent != NULL);
 771:Source\LwIP\src\core/tcp_out.c ****   }
 772:Source\LwIP\src\core/tcp_out.c ****   LWIP_DEBUGF(TCP_QLEN_DEBUG | LWIP_DBG_STATE, ("tcp_write: %"S16_F" (with mem err)\n", pcb->snd_qu
 773:Source\LwIP\src\core/tcp_out.c ****   return ERR_MEM;
 774:Source\LwIP\src\core/tcp_out.c **** }
 775:Source\LwIP\src\core/tcp_out.c **** 
 776:Source\LwIP\src\core/tcp_out.c **** /**
 777:Source\LwIP\src\core/tcp_out.c ****  * Enqueue TCP options for transmission.
 778:Source\LwIP\src\core/tcp_out.c ****  *
 779:Source\LwIP\src\core/tcp_out.c ****  * Called by tcp_connect(), tcp_listen_input(), and tcp_send_ctrl().
 780:Source\LwIP\src\core/tcp_out.c ****  *
 781:Source\LwIP\src\core/tcp_out.c ****  * @param pcb Protocol control block for the TCP connection.
 782:Source\LwIP\src\core/tcp_out.c ****  * @param flags TCP header flags to set in the outgoing segment.
 783:Source\LwIP\src\core/tcp_out.c ****  */
 784:Source\LwIP\src\core/tcp_out.c **** err_t
 785:Source\LwIP\src\core/tcp_out.c **** tcp_enqueue_flags(struct tcp_pcb *pcb, u8_t flags)
 786:Source\LwIP\src\core/tcp_out.c **** {
 787:Source\LwIP\src\core/tcp_out.c ****   struct pbuf *p;
 788:Source\LwIP\src\core/tcp_out.c ****   struct tcp_seg *seg;
ARM GAS  C:\Users\Phuong\AppData\Local\Temp\cc5dKVKJ.s 			page 24


 789:Source\LwIP\src\core/tcp_out.c ****   u8_t optflags = 0;
 790:Source\LwIP\src\core/tcp_out.c ****   u8_t optlen = 0;
 791:Source\LwIP\src\core/tcp_out.c **** 
 792:Source\LwIP\src\core/tcp_out.c ****   LWIP_DEBUGF(TCP_QLEN_DEBUG, ("tcp_enqueue_flags: queuelen: %"U16_F"\n", (u16_t)pcb->snd_queuelen)
 793:Source\LwIP\src\core/tcp_out.c **** 
 794:Source\LwIP\src\core/tcp_out.c ****   LWIP_ASSERT("tcp_enqueue_flags: need either TCP_SYN or TCP_FIN in flags (programmer violates API)
 795:Source\LwIP\src\core/tcp_out.c ****               (flags & (TCP_SYN | TCP_FIN)) != 0);
 796:Source\LwIP\src\core/tcp_out.c **** 
 797:Source\LwIP\src\core/tcp_out.c ****   /* check for configured max queuelen and possible overflow (FIN flag should always come through!)
 798:Source\LwIP\src\core/tcp_out.c ****   if (((pcb->snd_queuelen >= TCP_SND_QUEUELEN) || (pcb->snd_queuelen > TCP_SNDQUEUELEN_OVERFLOW)) &
 799:Source\LwIP\src\core/tcp_out.c ****       ((flags & TCP_FIN) == 0)) {
 800:Source\LwIP\src\core/tcp_out.c ****     LWIP_DEBUGF(TCP_OUTPUT_DEBUG | LWIP_DBG_LEVEL_SEVERE, ("tcp_enqueue_flags: too long queue %"U16
 801:Source\LwIP\src\core/tcp_out.c ****                                        pcb->snd_queuelen, (u16_t)TCP_SND_QUEUELEN));
 802:Source\LwIP\src\core/tcp_out.c ****     TCP_STATS_INC(tcp.memerr);
 803:Source\LwIP\src\core/tcp_out.c ****     pcb->flags |= TF_NAGLEMEMERR;
 804:Source\LwIP\src\core/tcp_out.c ****     return ERR_MEM;
 805:Source\LwIP\src\core/tcp_out.c ****   }
 806:Source\LwIP\src\core/tcp_out.c **** 
 807:Source\LwIP\src\core/tcp_out.c ****   if (flags & TCP_SYN) {
 808:Source\LwIP\src\core/tcp_out.c ****     optflags = TF_SEG_OPTS_MSS;
 809:Source\LwIP\src\core/tcp_out.c **** #if LWIP_WND_SCALE
 810:Source\LwIP\src\core/tcp_out.c ****     if ((pcb->state != SYN_RCVD) || (pcb->flags & TF_WND_SCALE)) {
 811:Source\LwIP\src\core/tcp_out.c ****       /* In a <SYN,ACK> (sent in state SYN_RCVD), the window scale option may only
 812:Source\LwIP\src\core/tcp_out.c ****          be sent if we received a window scale option from the remote host. */
 813:Source\LwIP\src\core/tcp_out.c ****       optflags |= TF_SEG_OPTS_WND_SCALE;
 814:Source\LwIP\src\core/tcp_out.c ****     }
 815:Source\LwIP\src\core/tcp_out.c **** #endif /* LWIP_WND_SCALE */
 816:Source\LwIP\src\core/tcp_out.c ****   }
 817:Source\LwIP\src\core/tcp_out.c **** #if LWIP_TCP_TIMESTAMPS
 818:Source\LwIP\src\core/tcp_out.c ****   if ((pcb->flags & TF_TIMESTAMP)) {
 819:Source\LwIP\src\core/tcp_out.c ****     /* Make sure the timestamp option is only included in data segments if we
 820:Source\LwIP\src\core/tcp_out.c ****        agreed about it with the remote host. */
 821:Source\LwIP\src\core/tcp_out.c ****     optflags |= TF_SEG_OPTS_TS;
 822:Source\LwIP\src\core/tcp_out.c ****   }
 823:Source\LwIP\src\core/tcp_out.c **** #endif /* LWIP_TCP_TIMESTAMPS */
 824:Source\LwIP\src\core/tcp_out.c ****   optlen = LWIP_TCP_OPT_LENGTH(optflags);
 825:Source\LwIP\src\core/tcp_out.c **** 
 826:Source\LwIP\src\core/tcp_out.c ****   /* Allocate pbuf with room for TCP header + options */
 827:Source\LwIP\src\core/tcp_out.c ****   if ((p = pbuf_alloc(PBUF_TRANSPORT, optlen, PBUF_RAM)) == NULL) {
 828:Source\LwIP\src\core/tcp_out.c ****     pcb->flags |= TF_NAGLEMEMERR;
 829:Source\LwIP\src\core/tcp_out.c ****     TCP_STATS_INC(tcp.memerr);
 830:Source\LwIP\src\core/tcp_out.c ****     return ERR_MEM;
 831:Source\LwIP\src\core/tcp_out.c ****   }
 832:Source\LwIP\src\core/tcp_out.c ****   LWIP_ASSERT("tcp_enqueue_flags: check that first pbuf can hold optlen",
 833:Source\LwIP\src\core/tcp_out.c ****               (p->len >= optlen));
 834:Source\LwIP\src\core/tcp_out.c **** 
 835:Source\LwIP\src\core/tcp_out.c ****   /* Allocate memory for tcp_seg, and fill in fields. */
 836:Source\LwIP\src\core/tcp_out.c ****   if ((seg = tcp_create_segment(pcb, p, flags, pcb->snd_lbb, optflags)) == NULL) {
 837:Source\LwIP\src\core/tcp_out.c ****     pcb->flags |= TF_NAGLEMEMERR;
 838:Source\LwIP\src\core/tcp_out.c ****     TCP_STATS_INC(tcp.memerr);
 839:Source\LwIP\src\core/tcp_out.c ****     return ERR_MEM;
 840:Source\LwIP\src\core/tcp_out.c ****   }
 841:Source\LwIP\src\core/tcp_out.c ****   LWIP_ASSERT("seg->tcphdr not aligned", ((mem_ptr_t)seg->tcphdr % LWIP_MIN(MEM_ALIGNMENT, 4)) == 0
 842:Source\LwIP\src\core/tcp_out.c ****   LWIP_ASSERT("tcp_enqueue_flags: invalid segment length", seg->len == 0);
 843:Source\LwIP\src\core/tcp_out.c **** 
 844:Source\LwIP\src\core/tcp_out.c ****   LWIP_DEBUGF(TCP_OUTPUT_DEBUG | LWIP_DBG_TRACE,
 845:Source\LwIP\src\core/tcp_out.c ****               ("tcp_enqueue_flags: queueing %"U32_F":%"U32_F" (0x%"X16_F")\n",
ARM GAS  C:\Users\Phuong\AppData\Local\Temp\cc5dKVKJ.s 			page 25


 846:Source\LwIP\src\core/tcp_out.c ****                lwip_ntohl(seg->tcphdr->seqno),
 847:Source\LwIP\src\core/tcp_out.c ****                lwip_ntohl(seg->tcphdr->seqno) + TCP_TCPLEN(seg),
 848:Source\LwIP\src\core/tcp_out.c ****                (u16_t)flags));
 849:Source\LwIP\src\core/tcp_out.c **** 
 850:Source\LwIP\src\core/tcp_out.c ****   /* Now append seg to pcb->unsent queue */
 851:Source\LwIP\src\core/tcp_out.c ****   if (pcb->unsent == NULL) {
 852:Source\LwIP\src\core/tcp_out.c ****     pcb->unsent = seg;
 853:Source\LwIP\src\core/tcp_out.c ****   } else {
 854:Source\LwIP\src\core/tcp_out.c ****     struct tcp_seg *useg;
 855:Source\LwIP\src\core/tcp_out.c ****     for (useg = pcb->unsent; useg->next != NULL; useg = useg->next);
 856:Source\LwIP\src\core/tcp_out.c ****     useg->next = seg;
 857:Source\LwIP\src\core/tcp_out.c ****   }
 858:Source\LwIP\src\core/tcp_out.c **** #if TCP_OVERSIZE
 859:Source\LwIP\src\core/tcp_out.c ****   /* The new unsent tail has no space */
 860:Source\LwIP\src\core/tcp_out.c ****   pcb->unsent_oversize = 0;
 861:Source\LwIP\src\core/tcp_out.c **** #endif /* TCP_OVERSIZE */
 862:Source\LwIP\src\core/tcp_out.c **** 
 863:Source\LwIP\src\core/tcp_out.c ****   /* SYN and FIN bump the sequence number */
 864:Source\LwIP\src\core/tcp_out.c ****   if ((flags & TCP_SYN) || (flags & TCP_FIN)) {
 865:Source\LwIP\src\core/tcp_out.c ****     pcb->snd_lbb++;
 866:Source\LwIP\src\core/tcp_out.c ****     /* optlen does not influence snd_buf */
 867:Source\LwIP\src\core/tcp_out.c ****   }
 868:Source\LwIP\src\core/tcp_out.c ****   if (flags & TCP_FIN) {
 869:Source\LwIP\src\core/tcp_out.c ****     pcb->flags |= TF_FIN;
 870:Source\LwIP\src\core/tcp_out.c ****   }
 871:Source\LwIP\src\core/tcp_out.c **** 
 872:Source\LwIP\src\core/tcp_out.c ****   /* update number of segments on the queues */
 873:Source\LwIP\src\core/tcp_out.c ****   pcb->snd_queuelen += pbuf_clen(seg->p);
 874:Source\LwIP\src\core/tcp_out.c ****   LWIP_DEBUGF(TCP_QLEN_DEBUG, ("tcp_enqueue_flags: %"S16_F" (after enqueued)\n", pcb->snd_queuelen)
 875:Source\LwIP\src\core/tcp_out.c ****   if (pcb->snd_queuelen != 0) {
 876:Source\LwIP\src\core/tcp_out.c ****     LWIP_ASSERT("tcp_enqueue_flags: invalid queue length",
 877:Source\LwIP\src\core/tcp_out.c ****       pcb->unacked != NULL || pcb->unsent != NULL);
 878:Source\LwIP\src\core/tcp_out.c ****   }
 879:Source\LwIP\src\core/tcp_out.c **** 
 880:Source\LwIP\src\core/tcp_out.c ****   return ERR_OK;
 881:Source\LwIP\src\core/tcp_out.c **** }
 882:Source\LwIP\src\core/tcp_out.c **** 
 883:Source\LwIP\src\core/tcp_out.c **** #if LWIP_TCP_TIMESTAMPS
 884:Source\LwIP\src\core/tcp_out.c **** /* Build a timestamp option (12 bytes long) at the specified options pointer)
 885:Source\LwIP\src\core/tcp_out.c ****  *
 886:Source\LwIP\src\core/tcp_out.c ****  * @param pcb tcp_pcb
 887:Source\LwIP\src\core/tcp_out.c ****  * @param opts option pointer where to store the timestamp option
 888:Source\LwIP\src\core/tcp_out.c ****  */
 889:Source\LwIP\src\core/tcp_out.c **** static void
 890:Source\LwIP\src\core/tcp_out.c **** tcp_build_timestamp_option(struct tcp_pcb *pcb, u32_t *opts)
 891:Source\LwIP\src\core/tcp_out.c **** {
 892:Source\LwIP\src\core/tcp_out.c ****   /* Pad with two NOP options to make everything nicely aligned */
 893:Source\LwIP\src\core/tcp_out.c ****   opts[0] = PP_HTONL(0x0101080A);
 894:Source\LwIP\src\core/tcp_out.c ****   opts[1] = lwip_htonl(sys_now());
 895:Source\LwIP\src\core/tcp_out.c ****   opts[2] = lwip_htonl(pcb->ts_recent);
 896:Source\LwIP\src\core/tcp_out.c **** }
 897:Source\LwIP\src\core/tcp_out.c **** #endif
 898:Source\LwIP\src\core/tcp_out.c **** 
 899:Source\LwIP\src\core/tcp_out.c **** #if LWIP_WND_SCALE
 900:Source\LwIP\src\core/tcp_out.c **** /** Build a window scale option (3 bytes long) at the specified options pointer)
 901:Source\LwIP\src\core/tcp_out.c ****  *
 902:Source\LwIP\src\core/tcp_out.c ****  * @param opts option pointer where to store the window scale option
ARM GAS  C:\Users\Phuong\AppData\Local\Temp\cc5dKVKJ.s 			page 26


 903:Source\LwIP\src\core/tcp_out.c ****  */
 904:Source\LwIP\src\core/tcp_out.c **** static void
 905:Source\LwIP\src\core/tcp_out.c **** tcp_build_wnd_scale_option(u32_t *opts)
 906:Source\LwIP\src\core/tcp_out.c **** {
 907:Source\LwIP\src\core/tcp_out.c ****   /* Pad with one NOP option to make everything nicely aligned */
 908:Source\LwIP\src\core/tcp_out.c ****   opts[0] = PP_HTONL(0x01030300 | TCP_RCV_SCALE);
 909:Source\LwIP\src\core/tcp_out.c **** }
 910:Source\LwIP\src\core/tcp_out.c **** #endif
 911:Source\LwIP\src\core/tcp_out.c **** 
 912:Source\LwIP\src\core/tcp_out.c **** /**
 913:Source\LwIP\src\core/tcp_out.c ****  * Send an ACK without data.
 914:Source\LwIP\src\core/tcp_out.c ****  *
 915:Source\LwIP\src\core/tcp_out.c ****  * @param pcb Protocol control block for the TCP connection to send the ACK
 916:Source\LwIP\src\core/tcp_out.c ****  */
 917:Source\LwIP\src\core/tcp_out.c **** err_t
 918:Source\LwIP\src\core/tcp_out.c **** tcp_send_empty_ack(struct tcp_pcb *pcb)
 919:Source\LwIP\src\core/tcp_out.c **** {
 920:Source\LwIP\src\core/tcp_out.c ****   err_t err;
 921:Source\LwIP\src\core/tcp_out.c ****   struct pbuf *p;
 922:Source\LwIP\src\core/tcp_out.c ****   u8_t optlen = 0;
 923:Source\LwIP\src\core/tcp_out.c ****   struct netif *netif;
 924:Source\LwIP\src\core/tcp_out.c **** #if LWIP_TCP_TIMESTAMPS || CHECKSUM_GEN_TCP
 925:Source\LwIP\src\core/tcp_out.c ****   struct tcp_hdr *tcphdr;
 926:Source\LwIP\src\core/tcp_out.c **** #endif /* LWIP_TCP_TIMESTAMPS || CHECKSUM_GEN_TCP */
 927:Source\LwIP\src\core/tcp_out.c **** 
 928:Source\LwIP\src\core/tcp_out.c **** #if LWIP_TCP_TIMESTAMPS
 929:Source\LwIP\src\core/tcp_out.c ****   if (pcb->flags & TF_TIMESTAMP) {
 930:Source\LwIP\src\core/tcp_out.c ****     optlen = LWIP_TCP_OPT_LENGTH(TF_SEG_OPTS_TS);
 931:Source\LwIP\src\core/tcp_out.c ****   }
 932:Source\LwIP\src\core/tcp_out.c **** #endif
 933:Source\LwIP\src\core/tcp_out.c **** 
 934:Source\LwIP\src\core/tcp_out.c ****   p = tcp_output_alloc_header(pcb, optlen, 0, lwip_htonl(pcb->snd_nxt));
 935:Source\LwIP\src\core/tcp_out.c ****   if (p == NULL) {
 936:Source\LwIP\src\core/tcp_out.c ****     /* let tcp_fasttmr retry sending this ACK */
 937:Source\LwIP\src\core/tcp_out.c ****     pcb->flags |= (TF_ACK_DELAY | TF_ACK_NOW);
 938:Source\LwIP\src\core/tcp_out.c ****     LWIP_DEBUGF(TCP_OUTPUT_DEBUG, ("tcp_output: (ACK) could not allocate pbuf\n"));
 939:Source\LwIP\src\core/tcp_out.c ****     return ERR_BUF;
 940:Source\LwIP\src\core/tcp_out.c ****   }
 941:Source\LwIP\src\core/tcp_out.c **** #if LWIP_TCP_TIMESTAMPS || CHECKSUM_GEN_TCP
 942:Source\LwIP\src\core/tcp_out.c ****   tcphdr = (struct tcp_hdr *)p->payload;
 943:Source\LwIP\src\core/tcp_out.c **** #endif /* LWIP_TCP_TIMESTAMPS || CHECKSUM_GEN_TCP */
 944:Source\LwIP\src\core/tcp_out.c ****   LWIP_DEBUGF(TCP_OUTPUT_DEBUG,
 945:Source\LwIP\src\core/tcp_out.c ****               ("tcp_output: sending ACK for %"U32_F"\n", pcb->rcv_nxt));
 946:Source\LwIP\src\core/tcp_out.c **** 
 947:Source\LwIP\src\core/tcp_out.c ****   /* NB. MSS and window scale options are only sent on SYNs, so ignore them here */
 948:Source\LwIP\src\core/tcp_out.c **** #if LWIP_TCP_TIMESTAMPS
 949:Source\LwIP\src\core/tcp_out.c ****   pcb->ts_lastacksent = pcb->rcv_nxt;
 950:Source\LwIP\src\core/tcp_out.c **** 
 951:Source\LwIP\src\core/tcp_out.c ****   if (pcb->flags & TF_TIMESTAMP) {
 952:Source\LwIP\src\core/tcp_out.c ****     tcp_build_timestamp_option(pcb, (u32_t *)(tcphdr + 1));
 953:Source\LwIP\src\core/tcp_out.c ****   }
 954:Source\LwIP\src\core/tcp_out.c **** #endif
 955:Source\LwIP\src\core/tcp_out.c **** 
 956:Source\LwIP\src\core/tcp_out.c ****   netif = ip_route(&pcb->local_ip, &pcb->remote_ip);
 957:Source\LwIP\src\core/tcp_out.c ****   if (netif == NULL) {
 958:Source\LwIP\src\core/tcp_out.c ****     err = ERR_RTE;
 959:Source\LwIP\src\core/tcp_out.c ****   } else {
ARM GAS  C:\Users\Phuong\AppData\Local\Temp\cc5dKVKJ.s 			page 27


 960:Source\LwIP\src\core/tcp_out.c **** #if CHECKSUM_GEN_TCP
 961:Source\LwIP\src\core/tcp_out.c ****     IF__NETIF_CHECKSUM_ENABLED(netif, NETIF_CHECKSUM_GEN_TCP) {
 962:Source\LwIP\src\core/tcp_out.c ****       tcphdr->chksum = ip_chksum_pseudo(p, IP_PROTO_TCP, p->tot_len,
 963:Source\LwIP\src\core/tcp_out.c ****         &pcb->local_ip, &pcb->remote_ip);
 964:Source\LwIP\src\core/tcp_out.c ****     }
 965:Source\LwIP\src\core/tcp_out.c **** #endif
 966:Source\LwIP\src\core/tcp_out.c ****     NETIF_SET_HWADDRHINT(netif, &(pcb->addr_hint));
 967:Source\LwIP\src\core/tcp_out.c ****     err = ip_output_if(p, &pcb->local_ip, &pcb->remote_ip,
 968:Source\LwIP\src\core/tcp_out.c ****       pcb->ttl, pcb->tos, IP_PROTO_TCP, netif);
 969:Source\LwIP\src\core/tcp_out.c ****     NETIF_SET_HWADDRHINT(netif, NULL);
 970:Source\LwIP\src\core/tcp_out.c ****   }
 971:Source\LwIP\src\core/tcp_out.c ****   pbuf_free(p);
 972:Source\LwIP\src\core/tcp_out.c **** 
 973:Source\LwIP\src\core/tcp_out.c ****   if (err != ERR_OK) {
 974:Source\LwIP\src\core/tcp_out.c ****     /* let tcp_fasttmr retry sending this ACK */
 975:Source\LwIP\src\core/tcp_out.c ****     pcb->flags |= (TF_ACK_DELAY | TF_ACK_NOW);
 976:Source\LwIP\src\core/tcp_out.c ****   } else {
 977:Source\LwIP\src\core/tcp_out.c ****     /* remove ACK flags from the PCB, as we sent an empty ACK now */
 978:Source\LwIP\src\core/tcp_out.c ****     pcb->flags &= ~(TF_ACK_DELAY | TF_ACK_NOW);
 979:Source\LwIP\src\core/tcp_out.c ****   }
 980:Source\LwIP\src\core/tcp_out.c **** 
 981:Source\LwIP\src\core/tcp_out.c ****   return err;
 982:Source\LwIP\src\core/tcp_out.c **** }
 983:Source\LwIP\src\core/tcp_out.c **** 
 984:Source\LwIP\src\core/tcp_out.c **** /**
 985:Source\LwIP\src\core/tcp_out.c ****  * @ingroup tcp_raw
 986:Source\LwIP\src\core/tcp_out.c ****  * Find out what we can send and send it
 987:Source\LwIP\src\core/tcp_out.c ****  *
 988:Source\LwIP\src\core/tcp_out.c ****  * @param pcb Protocol control block for the TCP connection to send data
 989:Source\LwIP\src\core/tcp_out.c ****  * @return ERR_OK if data has been sent or nothing to send
 990:Source\LwIP\src\core/tcp_out.c ****  *         another err_t on error
 991:Source\LwIP\src\core/tcp_out.c ****  */
 992:Source\LwIP\src\core/tcp_out.c **** err_t
 993:Source\LwIP\src\core/tcp_out.c **** tcp_output(struct tcp_pcb *pcb)
 994:Source\LwIP\src\core/tcp_out.c **** {
 995:Source\LwIP\src\core/tcp_out.c ****   struct tcp_seg *seg, *useg;
 996:Source\LwIP\src\core/tcp_out.c ****   u32_t wnd, snd_nxt;
 997:Source\LwIP\src\core/tcp_out.c ****   err_t err;
 998:Source\LwIP\src\core/tcp_out.c ****   struct netif *netif;
 999:Source\LwIP\src\core/tcp_out.c **** #if TCP_CWND_DEBUG
1000:Source\LwIP\src\core/tcp_out.c ****   s16_t i = 0;
1001:Source\LwIP\src\core/tcp_out.c **** #endif /* TCP_CWND_DEBUG */
1002:Source\LwIP\src\core/tcp_out.c **** 
1003:Source\LwIP\src\core/tcp_out.c ****   /* pcb->state LISTEN not allowed here */
1004:Source\LwIP\src\core/tcp_out.c ****   LWIP_ASSERT("don't call tcp_output for listen-pcbs",
1005:Source\LwIP\src\core/tcp_out.c ****     pcb->state != LISTEN);
1006:Source\LwIP\src\core/tcp_out.c **** 
1007:Source\LwIP\src\core/tcp_out.c ****   /* First, check if we are invoked by the TCP input processing
1008:Source\LwIP\src\core/tcp_out.c ****      code. If so, we do not output anything. Instead, we rely on the
1009:Source\LwIP\src\core/tcp_out.c ****      input processing code to call us when input processing is done
1010:Source\LwIP\src\core/tcp_out.c ****      with. */
1011:Source\LwIP\src\core/tcp_out.c ****   if (tcp_input_pcb == pcb) {
1012:Source\LwIP\src\core/tcp_out.c ****     return ERR_OK;
1013:Source\LwIP\src\core/tcp_out.c ****   }
1014:Source\LwIP\src\core/tcp_out.c **** 
1015:Source\LwIP\src\core/tcp_out.c ****   wnd = LWIP_MIN(pcb->snd_wnd, pcb->cwnd);
1016:Source\LwIP\src\core/tcp_out.c **** 
ARM GAS  C:\Users\Phuong\AppData\Local\Temp\cc5dKVKJ.s 			page 28


1017:Source\LwIP\src\core/tcp_out.c ****   seg = pcb->unsent;
1018:Source\LwIP\src\core/tcp_out.c **** 
1019:Source\LwIP\src\core/tcp_out.c ****   /* If the TF_ACK_NOW flag is set and no data will be sent (either
1020:Source\LwIP\src\core/tcp_out.c ****    * because the ->unsent queue is empty or because the window does
1021:Source\LwIP\src\core/tcp_out.c ****    * not allow it), construct an empty ACK segment and send it.
1022:Source\LwIP\src\core/tcp_out.c ****    *
1023:Source\LwIP\src\core/tcp_out.c ****    * If data is to be sent, we will just piggyback the ACK (see below).
1024:Source\LwIP\src\core/tcp_out.c ****    */
1025:Source\LwIP\src\core/tcp_out.c ****   if (pcb->flags & TF_ACK_NOW &&
1026:Source\LwIP\src\core/tcp_out.c ****      (seg == NULL ||
1027:Source\LwIP\src\core/tcp_out.c ****       lwip_ntohl(seg->tcphdr->seqno) - pcb->lastack + seg->len > wnd)) {
1028:Source\LwIP\src\core/tcp_out.c ****      return tcp_send_empty_ack(pcb);
1029:Source\LwIP\src\core/tcp_out.c ****   }
1030:Source\LwIP\src\core/tcp_out.c **** 
1031:Source\LwIP\src\core/tcp_out.c ****   /* useg should point to last segment on unacked queue */
1032:Source\LwIP\src\core/tcp_out.c ****   useg = pcb->unacked;
1033:Source\LwIP\src\core/tcp_out.c ****   if (useg != NULL) {
1034:Source\LwIP\src\core/tcp_out.c ****     for (; useg->next != NULL; useg = useg->next);
1035:Source\LwIP\src\core/tcp_out.c ****   }
1036:Source\LwIP\src\core/tcp_out.c **** 
1037:Source\LwIP\src\core/tcp_out.c ****   netif = ip_route(&pcb->local_ip, &pcb->remote_ip);
1038:Source\LwIP\src\core/tcp_out.c ****   if (netif == NULL) {
1039:Source\LwIP\src\core/tcp_out.c ****     return ERR_RTE;
1040:Source\LwIP\src\core/tcp_out.c ****   }
1041:Source\LwIP\src\core/tcp_out.c **** 
1042:Source\LwIP\src\core/tcp_out.c ****   /* If we don't have a local IP address, we get one from netif */
1043:Source\LwIP\src\core/tcp_out.c ****   if (ip_addr_isany(&pcb->local_ip)) {
1044:Source\LwIP\src\core/tcp_out.c ****     const ip_addr_t *local_ip = ip_netif_get_local_ip(netif, &pcb->remote_ip);
1045:Source\LwIP\src\core/tcp_out.c ****     if (local_ip == NULL) {
1046:Source\LwIP\src\core/tcp_out.c ****       return ERR_RTE;
1047:Source\LwIP\src\core/tcp_out.c ****     }
1048:Source\LwIP\src\core/tcp_out.c ****     ip_addr_copy(pcb->local_ip, *local_ip);
1049:Source\LwIP\src\core/tcp_out.c ****   }
1050:Source\LwIP\src\core/tcp_out.c **** 
1051:Source\LwIP\src\core/tcp_out.c **** #if TCP_OUTPUT_DEBUG
1052:Source\LwIP\src\core/tcp_out.c ****   if (seg == NULL) {
1053:Source\LwIP\src\core/tcp_out.c ****     LWIP_DEBUGF(TCP_OUTPUT_DEBUG, ("tcp_output: nothing to send (%p)\n",
1054:Source\LwIP\src\core/tcp_out.c ****                                    (void*)pcb->unsent));
1055:Source\LwIP\src\core/tcp_out.c ****   }
1056:Source\LwIP\src\core/tcp_out.c **** #endif /* TCP_OUTPUT_DEBUG */
1057:Source\LwIP\src\core/tcp_out.c **** #if TCP_CWND_DEBUG
1058:Source\LwIP\src\core/tcp_out.c ****   if (seg == NULL) {
1059:Source\LwIP\src\core/tcp_out.c ****     LWIP_DEBUGF(TCP_CWND_DEBUG, ("tcp_output: snd_wnd %"TCPWNDSIZE_F
1060:Source\LwIP\src\core/tcp_out.c ****                                  ", cwnd %"TCPWNDSIZE_F", wnd %"U32_F
1061:Source\LwIP\src\core/tcp_out.c ****                                  ", seg == NULL, ack %"U32_F"\n",
1062:Source\LwIP\src\core/tcp_out.c ****                                  pcb->snd_wnd, pcb->cwnd, wnd, pcb->lastack));
1063:Source\LwIP\src\core/tcp_out.c ****   } else {
1064:Source\LwIP\src\core/tcp_out.c ****     LWIP_DEBUGF(TCP_CWND_DEBUG,
1065:Source\LwIP\src\core/tcp_out.c ****                 ("tcp_output: snd_wnd %"TCPWNDSIZE_F", cwnd %"TCPWNDSIZE_F", wnd %"U32_F
1066:Source\LwIP\src\core/tcp_out.c ****                  ", effwnd %"U32_F", seq %"U32_F", ack %"U32_F"\n",
1067:Source\LwIP\src\core/tcp_out.c ****                  pcb->snd_wnd, pcb->cwnd, wnd,
1068:Source\LwIP\src\core/tcp_out.c ****                  lwip_ntohl(seg->tcphdr->seqno) - pcb->lastack + seg->len,
1069:Source\LwIP\src\core/tcp_out.c ****                  lwip_ntohl(seg->tcphdr->seqno), pcb->lastack));
1070:Source\LwIP\src\core/tcp_out.c ****   }
1071:Source\LwIP\src\core/tcp_out.c **** #endif /* TCP_CWND_DEBUG */
1072:Source\LwIP\src\core/tcp_out.c ****   /* Check if we need to start the persistent timer when the next unsent segment
1073:Source\LwIP\src\core/tcp_out.c ****    * does not fit within the remaining send window and RTO timer is not running (we
ARM GAS  C:\Users\Phuong\AppData\Local\Temp\cc5dKVKJ.s 			page 29


1074:Source\LwIP\src\core/tcp_out.c ****    * have no in-flight data). A traditional approach would fill the remaining window
1075:Source\LwIP\src\core/tcp_out.c ****    * with part of the unsent segment (which will engage zero-window probing upon
1076:Source\LwIP\src\core/tcp_out.c ****    * reception of the zero window update from the receiver). This ensures the
1077:Source\LwIP\src\core/tcp_out.c ****    * subsequent window update is reliably received. With the goal of being lightweight,
1078:Source\LwIP\src\core/tcp_out.c ****    * we avoid splitting the unsent segment and treat the window as already zero.
1079:Source\LwIP\src\core/tcp_out.c ****    */
1080:Source\LwIP\src\core/tcp_out.c ****   if (seg != NULL &&
1081:Source\LwIP\src\core/tcp_out.c ****       lwip_ntohl(seg->tcphdr->seqno) - pcb->lastack + seg->len > wnd &&
1082:Source\LwIP\src\core/tcp_out.c ****       wnd > 0 && wnd == pcb->snd_wnd && pcb->unacked == NULL) {
1083:Source\LwIP\src\core/tcp_out.c ****     /* Start the persist timer */
1084:Source\LwIP\src\core/tcp_out.c ****     if (pcb->persist_backoff == 0) {
1085:Source\LwIP\src\core/tcp_out.c ****       pcb->persist_cnt = 0;
1086:Source\LwIP\src\core/tcp_out.c ****       pcb->persist_backoff = 1;
1087:Source\LwIP\src\core/tcp_out.c ****     }
1088:Source\LwIP\src\core/tcp_out.c ****     goto output_done;
1089:Source\LwIP\src\core/tcp_out.c ****   }
1090:Source\LwIP\src\core/tcp_out.c ****   /* data available and window allows it to be sent? */
1091:Source\LwIP\src\core/tcp_out.c ****   while (seg != NULL &&
1092:Source\LwIP\src\core/tcp_out.c ****          lwip_ntohl(seg->tcphdr->seqno) - pcb->lastack + seg->len <= wnd) {
1093:Source\LwIP\src\core/tcp_out.c ****     LWIP_ASSERT("RST not expected here!",
1094:Source\LwIP\src\core/tcp_out.c ****                 (TCPH_FLAGS(seg->tcphdr) & TCP_RST) == 0);
1095:Source\LwIP\src\core/tcp_out.c ****     /* Stop sending if the nagle algorithm would prevent it
1096:Source\LwIP\src\core/tcp_out.c ****      * Don't stop:
1097:Source\LwIP\src\core/tcp_out.c ****      * - if tcp_write had a memory error before (prevent delayed ACK timeout) or
1098:Source\LwIP\src\core/tcp_out.c ****      * - if FIN was already enqueued for this PCB (SYN is always alone in a segment -
1099:Source\LwIP\src\core/tcp_out.c ****      *   either seg->next != NULL or pcb->unacked == NULL;
1100:Source\LwIP\src\core/tcp_out.c ****      *   RST is no sent using tcp_write/tcp_output.
1101:Source\LwIP\src\core/tcp_out.c ****      */
1102:Source\LwIP\src\core/tcp_out.c ****     if ((tcp_do_output_nagle(pcb) == 0) &&
1103:Source\LwIP\src\core/tcp_out.c ****       ((pcb->flags & (TF_NAGLEMEMERR | TF_FIN)) == 0)) {
1104:Source\LwIP\src\core/tcp_out.c ****       break;
1105:Source\LwIP\src\core/tcp_out.c ****     }
1106:Source\LwIP\src\core/tcp_out.c **** #if TCP_CWND_DEBUG
1107:Source\LwIP\src\core/tcp_out.c ****     LWIP_DEBUGF(TCP_CWND_DEBUG, ("tcp_output: snd_wnd %"TCPWNDSIZE_F", cwnd %"TCPWNDSIZE_F", wnd %"
1108:Source\LwIP\src\core/tcp_out.c ****                             pcb->snd_wnd, pcb->cwnd, wnd,
1109:Source\LwIP\src\core/tcp_out.c ****                             lwip_ntohl(seg->tcphdr->seqno) + seg->len -
1110:Source\LwIP\src\core/tcp_out.c ****                             pcb->lastack,
1111:Source\LwIP\src\core/tcp_out.c ****                             lwip_ntohl(seg->tcphdr->seqno), pcb->lastack, i));
1112:Source\LwIP\src\core/tcp_out.c ****     ++i;
1113:Source\LwIP\src\core/tcp_out.c **** #endif /* TCP_CWND_DEBUG */
1114:Source\LwIP\src\core/tcp_out.c **** 
1115:Source\LwIP\src\core/tcp_out.c ****     if (pcb->state != SYN_SENT) {
1116:Source\LwIP\src\core/tcp_out.c ****       TCPH_SET_FLAG(seg->tcphdr, TCP_ACK);
1117:Source\LwIP\src\core/tcp_out.c ****     }
1118:Source\LwIP\src\core/tcp_out.c **** 
1119:Source\LwIP\src\core/tcp_out.c **** #if TCP_OVERSIZE_DBGCHECK
1120:Source\LwIP\src\core/tcp_out.c ****     seg->oversize_left = 0;
1121:Source\LwIP\src\core/tcp_out.c **** #endif /* TCP_OVERSIZE_DBGCHECK */
1122:Source\LwIP\src\core/tcp_out.c ****     err = tcp_output_segment(seg, pcb, netif);
1123:Source\LwIP\src\core/tcp_out.c ****     if (err != ERR_OK) {
1124:Source\LwIP\src\core/tcp_out.c ****       /* segment could not be sent, for whatever reason */
1125:Source\LwIP\src\core/tcp_out.c ****       pcb->flags |= TF_NAGLEMEMERR;
1126:Source\LwIP\src\core/tcp_out.c ****       return err;
1127:Source\LwIP\src\core/tcp_out.c ****     }
1128:Source\LwIP\src\core/tcp_out.c ****     pcb->unsent = seg->next;
1129:Source\LwIP\src\core/tcp_out.c ****     if (pcb->state != SYN_SENT) {
1130:Source\LwIP\src\core/tcp_out.c ****       pcb->flags &= ~(TF_ACK_DELAY | TF_ACK_NOW);
ARM GAS  C:\Users\Phuong\AppData\Local\Temp\cc5dKVKJ.s 			page 30


1131:Source\LwIP\src\core/tcp_out.c ****     }
1132:Source\LwIP\src\core/tcp_out.c ****     snd_nxt = lwip_ntohl(seg->tcphdr->seqno) + TCP_TCPLEN(seg);
1133:Source\LwIP\src\core/tcp_out.c ****     if (TCP_SEQ_LT(pcb->snd_nxt, snd_nxt)) {
1134:Source\LwIP\src\core/tcp_out.c ****       pcb->snd_nxt = snd_nxt;
1135:Source\LwIP\src\core/tcp_out.c ****     }
1136:Source\LwIP\src\core/tcp_out.c ****     /* put segment on unacknowledged list if length > 0 */
1137:Source\LwIP\src\core/tcp_out.c ****     if (TCP_TCPLEN(seg) > 0) {
1138:Source\LwIP\src\core/tcp_out.c ****       seg->next = NULL;
1139:Source\LwIP\src\core/tcp_out.c ****       /* unacked list is empty? */
1140:Source\LwIP\src\core/tcp_out.c ****       if (pcb->unacked == NULL) {
1141:Source\LwIP\src\core/tcp_out.c ****         pcb->unacked = seg;
1142:Source\LwIP\src\core/tcp_out.c ****         useg = seg;
1143:Source\LwIP\src\core/tcp_out.c ****       /* unacked list is not empty? */
1144:Source\LwIP\src\core/tcp_out.c ****       } else {
1145:Source\LwIP\src\core/tcp_out.c ****         /* In the case of fast retransmit, the packet should not go to the tail
1146:Source\LwIP\src\core/tcp_out.c ****          * of the unacked queue, but rather somewhere before it. We need to check for
1147:Source\LwIP\src\core/tcp_out.c ****          * this case. -STJ Jul 27, 2004 */
1148:Source\LwIP\src\core/tcp_out.c ****         if (TCP_SEQ_LT(lwip_ntohl(seg->tcphdr->seqno), lwip_ntohl(useg->tcphdr->seqno))) {
1149:Source\LwIP\src\core/tcp_out.c ****           /* add segment to before tail of unacked list, keeping the list sorted */
1150:Source\LwIP\src\core/tcp_out.c ****           struct tcp_seg **cur_seg = &(pcb->unacked);
1151:Source\LwIP\src\core/tcp_out.c ****           while (*cur_seg &&
1152:Source\LwIP\src\core/tcp_out.c ****             TCP_SEQ_LT(lwip_ntohl((*cur_seg)->tcphdr->seqno), lwip_ntohl(seg->tcphdr->seqno))) {
1153:Source\LwIP\src\core/tcp_out.c ****               cur_seg = &((*cur_seg)->next );
1154:Source\LwIP\src\core/tcp_out.c ****           }
1155:Source\LwIP\src\core/tcp_out.c ****           seg->next = (*cur_seg);
1156:Source\LwIP\src\core/tcp_out.c ****           (*cur_seg) = seg;
1157:Source\LwIP\src\core/tcp_out.c ****         } else {
1158:Source\LwIP\src\core/tcp_out.c ****           /* add segment to tail of unacked list */
1159:Source\LwIP\src\core/tcp_out.c ****           useg->next = seg;
1160:Source\LwIP\src\core/tcp_out.c ****           useg = useg->next;
1161:Source\LwIP\src\core/tcp_out.c ****         }
1162:Source\LwIP\src\core/tcp_out.c ****       }
1163:Source\LwIP\src\core/tcp_out.c ****     /* do not queue empty segments on the unacked list */
1164:Source\LwIP\src\core/tcp_out.c ****     } else {
1165:Source\LwIP\src\core/tcp_out.c ****       tcp_seg_free(seg);
1166:Source\LwIP\src\core/tcp_out.c ****     }
1167:Source\LwIP\src\core/tcp_out.c ****     seg = pcb->unsent;
1168:Source\LwIP\src\core/tcp_out.c ****   }
1169:Source\LwIP\src\core/tcp_out.c **** output_done:
1170:Source\LwIP\src\core/tcp_out.c **** #if TCP_OVERSIZE
1171:Source\LwIP\src\core/tcp_out.c ****   if (pcb->unsent == NULL) {
1172:Source\LwIP\src\core/tcp_out.c ****     /* last unsent has been removed, reset unsent_oversize */
1173:Source\LwIP\src\core/tcp_out.c ****     pcb->unsent_oversize = 0;
1174:Source\LwIP\src\core/tcp_out.c ****   }
1175:Source\LwIP\src\core/tcp_out.c **** #endif /* TCP_OVERSIZE */
1176:Source\LwIP\src\core/tcp_out.c **** 
1177:Source\LwIP\src\core/tcp_out.c ****   pcb->flags &= ~TF_NAGLEMEMERR;
1178:Source\LwIP\src\core/tcp_out.c ****   return ERR_OK;
1179:Source\LwIP\src\core/tcp_out.c **** }
1180:Source\LwIP\src\core/tcp_out.c **** 
1181:Source\LwIP\src\core/tcp_out.c **** /**
1182:Source\LwIP\src\core/tcp_out.c ****  * Called by tcp_output() to actually send a TCP segment over IP.
1183:Source\LwIP\src\core/tcp_out.c ****  *
1184:Source\LwIP\src\core/tcp_out.c ****  * @param seg the tcp_seg to send
1185:Source\LwIP\src\core/tcp_out.c ****  * @param pcb the tcp_pcb for the TCP connection used to send the segment
1186:Source\LwIP\src\core/tcp_out.c ****  * @param netif the netif used to send the segment
1187:Source\LwIP\src\core/tcp_out.c ****  */
ARM GAS  C:\Users\Phuong\AppData\Local\Temp\cc5dKVKJ.s 			page 31


1188:Source\LwIP\src\core/tcp_out.c **** static err_t
1189:Source\LwIP\src\core/tcp_out.c **** tcp_output_segment(struct tcp_seg *seg, struct tcp_pcb *pcb, struct netif *netif)
1190:Source\LwIP\src\core/tcp_out.c **** {
 478              		.loc 1 1190 0
 479              		.cfi_startproc
 480              		@ args = 0, pretend = 0, frame = 0
 481              		@ frame_needed = 0, uses_anonymous_args = 0
 482              	.LVL58:
 483 0000 F0B5     		push	{r4, r5, r6, r7, lr}
 484              		.cfi_def_cfa_offset 20
 485              		.cfi_offset 4, -20
 486              		.cfi_offset 5, -16
 487              		.cfi_offset 6, -12
 488              		.cfi_offset 7, -8
 489              		.cfi_offset 14, -4
 490 0002 4746     		mov	r7, r8
 491 0004 80B4     		push	{r7}
 492              		.cfi_def_cfa_offset 24
 493              		.cfi_offset 8, -24
 494 0006 84B0     		sub	sp, sp, #16
 495              		.cfi_def_cfa_offset 40
 496 0008 0400     		movs	r4, r0
 497 000a 0D00     		movs	r5, r1
 498 000c 1600     		movs	r6, r2
1191:Source\LwIP\src\core/tcp_out.c ****   err_t err;
1192:Source\LwIP\src\core/tcp_out.c ****   u16_t len;
1193:Source\LwIP\src\core/tcp_out.c ****   u32_t *opts;
1194:Source\LwIP\src\core/tcp_out.c **** 
1195:Source\LwIP\src\core/tcp_out.c ****   if (seg->p->ref != 1) {
 499              		.loc 1 1195 0
 500 000e 4368     		ldr	r3, [r0, #4]
 501 0010 DB89     		ldrh	r3, [r3, #14]
 502 0012 012B     		cmp	r3, #1
 503 0014 73D1     		bne	.L28
1196:Source\LwIP\src\core/tcp_out.c ****     /* This can happen if the pbuf of this segment is still referenced by the
1197:Source\LwIP\src\core/tcp_out.c ****        netif driver due to deferred transmission. Since this function modifies
1198:Source\LwIP\src\core/tcp_out.c ****        p->len, we must not continue in this case. */
1199:Source\LwIP\src\core/tcp_out.c ****     return ERR_OK;
1200:Source\LwIP\src\core/tcp_out.c ****   }
1201:Source\LwIP\src\core/tcp_out.c **** 
1202:Source\LwIP\src\core/tcp_out.c ****   /* The TCP header has already been constructed, but the ackno and
1203:Source\LwIP\src\core/tcp_out.c ****    wnd fields remain. */
1204:Source\LwIP\src\core/tcp_out.c ****   seg->tcphdr->ackno = lwip_htonl(pcb->rcv_nxt);
 504              		.loc 1 1204 0
 505 0016 0769     		ldr	r7, [r0, #16]
 506 0018 486A     		ldr	r0, [r1, #36]
 507              	.LVL59:
 508 001a FFF7FEFF 		bl	lwip_htonl
 509              	.LVL60:
 510 001e 3872     		strb	r0, [r7, #8]
 511 0020 030A     		lsrs	r3, r0, #8
 512 0022 7B72     		strb	r3, [r7, #9]
 513 0024 030C     		lsrs	r3, r0, #16
 514 0026 BB72     		strb	r3, [r7, #10]
 515 0028 000E     		lsrs	r0, r0, #24
 516 002a F872     		strb	r0, [r7, #11]
1205:Source\LwIP\src\core/tcp_out.c **** 
ARM GAS  C:\Users\Phuong\AppData\Local\Temp\cc5dKVKJ.s 			page 32


1206:Source\LwIP\src\core/tcp_out.c ****   /* advertise our receive window size in this TCP segment */
1207:Source\LwIP\src\core/tcp_out.c **** #if LWIP_WND_SCALE
1208:Source\LwIP\src\core/tcp_out.c ****   if (seg->flags & TF_SEG_OPTS_WND_SCALE) {
1209:Source\LwIP\src\core/tcp_out.c ****     /* The Window field in a SYN segment itself (the only type where we send
1210:Source\LwIP\src\core/tcp_out.c ****        the window scale option) is never scaled. */
1211:Source\LwIP\src\core/tcp_out.c ****     seg->tcphdr->wnd = lwip_htons(TCPWND_MIN16(pcb->rcv_ann_wnd));
1212:Source\LwIP\src\core/tcp_out.c ****   } else
1213:Source\LwIP\src\core/tcp_out.c **** #endif /* LWIP_WND_SCALE */
1214:Source\LwIP\src\core/tcp_out.c ****   {
1215:Source\LwIP\src\core/tcp_out.c ****     seg->tcphdr->wnd = lwip_htons(TCPWND_MIN16(RCV_WND_SCALE(pcb, pcb->rcv_ann_wnd)));
 517              		.loc 1 1215 0
 518 002c 2769     		ldr	r7, [r4, #16]
 519 002e 688D     		ldrh	r0, [r5, #42]
 520 0030 FFF7FEFF 		bl	lwip_htons
 521              	.LVL61:
 522 0034 B873     		strb	r0, [r7, #14]
 523 0036 000A     		lsrs	r0, r0, #8
 524 0038 F873     		strb	r0, [r7, #15]
1216:Source\LwIP\src\core/tcp_out.c ****   }
1217:Source\LwIP\src\core/tcp_out.c **** 
1218:Source\LwIP\src\core/tcp_out.c ****   pcb->rcv_ann_right_edge = pcb->rcv_nxt + pcb->rcv_ann_wnd;
 525              		.loc 1 1218 0
 526 003a 6B8D     		ldrh	r3, [r5, #42]
 527 003c 6A6A     		ldr	r2, [r5, #36]
 528 003e 9446     		mov	ip, r2
 529 0040 6344     		add	r3, r3, ip
 530 0042 EB62     		str	r3, [r5, #44]
1219:Source\LwIP\src\core/tcp_out.c **** 
1220:Source\LwIP\src\core/tcp_out.c ****   /* Add any requested options.  NB MSS option is only set on SYN
1221:Source\LwIP\src\core/tcp_out.c ****      packets, so ignore it here */
1222:Source\LwIP\src\core/tcp_out.c ****   /* cast through void* to get rid of alignment warnings */
1223:Source\LwIP\src\core/tcp_out.c ****   opts = (u32_t *)(void *)(seg->tcphdr + 1);
 531              		.loc 1 1223 0
 532 0044 2769     		ldr	r7, [r4, #16]
 533              	.LVL62:
1224:Source\LwIP\src\core/tcp_out.c ****   if (seg->flags & TF_SEG_OPTS_MSS) {
 534              		.loc 1 1224 0
 535 0046 237B     		ldrb	r3, [r4, #12]
 536 0048 DB07     		lsls	r3, r3, #31
 537 004a 09D5     		bpl	.L25
 538              	.LBB2:
1225:Source\LwIP\src\core/tcp_out.c ****     u16_t mss;
1226:Source\LwIP\src\core/tcp_out.c **** #if TCP_CALCULATE_EFF_SEND_MSS
1227:Source\LwIP\src\core/tcp_out.c ****     mss = tcp_eff_send_mss(TCP_MSS, &pcb->local_ip, &pcb->remote_ip);
 539              		.loc 1 1227 0
 540 004c 291D     		adds	r1, r5, #4
 541 004e 2E48     		ldr	r0, .L29
 542 0050 FFF7FEFF 		bl	tcp_eff_send_mss_impl
 543              	.LVL63:
1228:Source\LwIP\src\core/tcp_out.c **** #else /* TCP_CALCULATE_EFF_SEND_MSS */
1229:Source\LwIP\src\core/tcp_out.c ****     mss = TCP_MSS;
1230:Source\LwIP\src\core/tcp_out.c **** #endif /* TCP_CALCULATE_EFF_SEND_MSS */
1231:Source\LwIP\src\core/tcp_out.c ****     *opts = TCP_BUILD_MSS_OPTION(mss);
 544              		.loc 1 1231 0
 545 0054 8123     		movs	r3, #129
 546 0056 9B04     		lsls	r3, r3, #18
 547 0058 1843     		orrs	r0, r3
ARM GAS  C:\Users\Phuong\AppData\Local\Temp\cc5dKVKJ.s 			page 33


 548              	.LVL64:
 549 005a FFF7FEFF 		bl	lwip_htonl
 550              	.LVL65:
 551 005e 7861     		str	r0, [r7, #20]
 552              	.LVL66:
 553              	.L25:
 554              	.LBE2:
1232:Source\LwIP\src\core/tcp_out.c ****     opts += 1;
1233:Source\LwIP\src\core/tcp_out.c ****   }
1234:Source\LwIP\src\core/tcp_out.c **** #if LWIP_TCP_TIMESTAMPS
1235:Source\LwIP\src\core/tcp_out.c ****   pcb->ts_lastacksent = pcb->rcv_nxt;
1236:Source\LwIP\src\core/tcp_out.c **** 
1237:Source\LwIP\src\core/tcp_out.c ****   if (seg->flags & TF_SEG_OPTS_TS) {
1238:Source\LwIP\src\core/tcp_out.c ****     tcp_build_timestamp_option(pcb, opts);
1239:Source\LwIP\src\core/tcp_out.c ****     opts += 3;
1240:Source\LwIP\src\core/tcp_out.c ****   }
1241:Source\LwIP\src\core/tcp_out.c **** #endif
1242:Source\LwIP\src\core/tcp_out.c **** #if LWIP_WND_SCALE
1243:Source\LwIP\src\core/tcp_out.c ****   if (seg->flags & TF_SEG_OPTS_WND_SCALE) {
1244:Source\LwIP\src\core/tcp_out.c ****     tcp_build_wnd_scale_option(opts);
1245:Source\LwIP\src\core/tcp_out.c ****     opts += 1;
1246:Source\LwIP\src\core/tcp_out.c ****   }
1247:Source\LwIP\src\core/tcp_out.c **** #endif
1248:Source\LwIP\src\core/tcp_out.c **** 
1249:Source\LwIP\src\core/tcp_out.c ****   /* Set retransmission timer running if it is not currently enabled
1250:Source\LwIP\src\core/tcp_out.c ****      This must be set before checking the route. */
1251:Source\LwIP\src\core/tcp_out.c ****   if (pcb->rtime < 0) {
 555              		.loc 1 1251 0
 556 0060 3022     		movs	r2, #48
 557 0062 AB5E     		ldrsh	r3, [r5, r2]
 558 0064 002B     		cmp	r3, #0
 559 0066 01DA     		bge	.L26
1252:Source\LwIP\src\core/tcp_out.c ****     pcb->rtime = 0;
 560              		.loc 1 1252 0
 561 0068 0023     		movs	r3, #0
 562 006a 2B86     		strh	r3, [r5, #48]
 563              	.L26:
1253:Source\LwIP\src\core/tcp_out.c ****   }
1254:Source\LwIP\src\core/tcp_out.c **** 
1255:Source\LwIP\src\core/tcp_out.c ****   if (pcb->rttest == 0) {
 564              		.loc 1 1255 0
 565 006c 6B6B     		ldr	r3, [r5, #52]
 566 006e 002B     		cmp	r3, #0
 567 0070 12D1     		bne	.L27
1256:Source\LwIP\src\core/tcp_out.c ****     pcb->rttest = tcp_ticks;
 568              		.loc 1 1256 0
 569 0072 264B     		ldr	r3, .L29+4
 570 0074 1B68     		ldr	r3, [r3]
 571 0076 6B63     		str	r3, [r5, #52]
1257:Source\LwIP\src\core/tcp_out.c ****     pcb->rtseq = lwip_ntohl(seg->tcphdr->seqno);
 572              		.loc 1 1257 0
 573 0078 2769     		ldr	r7, [r4, #16]
 574 007a 3979     		ldrb	r1, [r7, #4]
 575 007c 7B79     		ldrb	r3, [r7, #5]
 576 007e 1B02     		lsls	r3, r3, #8
 577 0080 0B43     		orrs	r3, r1
 578 0082 1A00     		movs	r2, r3
ARM GAS  C:\Users\Phuong\AppData\Local\Temp\cc5dKVKJ.s 			page 34


 579 0084 B879     		ldrb	r0, [r7, #6]
 580 0086 0004     		lsls	r0, r0, #16
 581 0088 0300     		movs	r3, r0
 582 008a 1343     		orrs	r3, r2
 583 008c F879     		ldrb	r0, [r7, #7]
 584 008e 0006     		lsls	r0, r0, #24
 585 0090 1843     		orrs	r0, r3
 586 0092 FFF7FEFF 		bl	lwip_htonl
 587              	.LVL67:
 588 0096 A863     		str	r0, [r5, #56]
 589              	.L27:
1258:Source\LwIP\src\core/tcp_out.c **** 
1259:Source\LwIP\src\core/tcp_out.c ****     LWIP_DEBUGF(TCP_RTO_DEBUG, ("tcp_output_segment: rtseq %"U32_F"\n", pcb->rtseq));
1260:Source\LwIP\src\core/tcp_out.c ****   }
1261:Source\LwIP\src\core/tcp_out.c ****   LWIP_DEBUGF(TCP_OUTPUT_DEBUG, ("tcp_output_segment: %"U32_F":%"U32_F"\n",
1262:Source\LwIP\src\core/tcp_out.c ****           lwip_htonl(seg->tcphdr->seqno), lwip_htonl(seg->tcphdr->seqno) +
1263:Source\LwIP\src\core/tcp_out.c ****           seg->len));
1264:Source\LwIP\src\core/tcp_out.c **** 
1265:Source\LwIP\src\core/tcp_out.c ****   len = (u16_t)((u8_t *)seg->tcphdr - (u8_t *)seg->p->payload);
 590              		.loc 1 1265 0
 591 0098 6268     		ldr	r2, [r4, #4]
 592 009a 2369     		ldr	r3, [r4, #16]
 593 009c 5168     		ldr	r1, [r2, #4]
 594 009e 5B1A     		subs	r3, r3, r1
 595 00a0 9BB2     		uxth	r3, r3
 596              	.LVL68:
1266:Source\LwIP\src\core/tcp_out.c ****   if (len == 0) {
1267:Source\LwIP\src\core/tcp_out.c ****     /** Exclude retransmitted segments from this count. */
1268:Source\LwIP\src\core/tcp_out.c ****     MIB2_STATS_INC(mib2.tcpoutsegs);
1269:Source\LwIP\src\core/tcp_out.c ****   }
1270:Source\LwIP\src\core/tcp_out.c **** 
1271:Source\LwIP\src\core/tcp_out.c ****   seg->p->len -= len;
 597              		.loc 1 1271 0
 598 00a2 5189     		ldrh	r1, [r2, #10]
 599 00a4 C91A     		subs	r1, r1, r3
 600 00a6 5181     		strh	r1, [r2, #10]
1272:Source\LwIP\src\core/tcp_out.c ****   seg->p->tot_len -= len;
 601              		.loc 1 1272 0
 602 00a8 6168     		ldr	r1, [r4, #4]
 603 00aa 0A89     		ldrh	r2, [r1, #8]
 604 00ac D31A     		subs	r3, r2, r3
 605              	.LVL69:
 606 00ae 0B81     		strh	r3, [r1, #8]
1273:Source\LwIP\src\core/tcp_out.c **** 
1274:Source\LwIP\src\core/tcp_out.c ****   seg->p->payload = seg->tcphdr;
 607              		.loc 1 1274 0
 608 00b0 6368     		ldr	r3, [r4, #4]
 609 00b2 2269     		ldr	r2, [r4, #16]
 610 00b4 5A60     		str	r2, [r3, #4]
1275:Source\LwIP\src\core/tcp_out.c **** 
1276:Source\LwIP\src\core/tcp_out.c ****   seg->tcphdr->chksum = 0;
 611              		.loc 1 1276 0
 612 00b6 2369     		ldr	r3, [r4, #16]
 613 00b8 0022     		movs	r2, #0
 614 00ba 1A74     		strb	r2, [r3, #16]
 615 00bc 5A74     		strb	r2, [r3, #17]
1277:Source\LwIP\src\core/tcp_out.c **** #if CHECKSUM_GEN_TCP
ARM GAS  C:\Users\Phuong\AppData\Local\Temp\cc5dKVKJ.s 			page 35


1278:Source\LwIP\src\core/tcp_out.c ****   IF__NETIF_CHECKSUM_ENABLED(netif, NETIF_CHECKSUM_GEN_TCP) {
1279:Source\LwIP\src\core/tcp_out.c **** #if TCP_CHECKSUM_ON_COPY
1280:Source\LwIP\src\core/tcp_out.c ****     u32_t acc;
1281:Source\LwIP\src\core/tcp_out.c **** #if TCP_CHECKSUM_ON_COPY_SANITY_CHECK
1282:Source\LwIP\src\core/tcp_out.c ****     u16_t chksum_slow = ip_chksum_pseudo(seg->p, IP_PROTO_TCP,
1283:Source\LwIP\src\core/tcp_out.c ****       seg->p->tot_len, &pcb->local_ip, &pcb->remote_ip);
1284:Source\LwIP\src\core/tcp_out.c **** #endif /* TCP_CHECKSUM_ON_COPY_SANITY_CHECK */
1285:Source\LwIP\src\core/tcp_out.c ****     if ((seg->flags & TF_SEG_DATA_CHECKSUMMED) == 0) {
1286:Source\LwIP\src\core/tcp_out.c ****       LWIP_ASSERT("data included but not checksummed",
1287:Source\LwIP\src\core/tcp_out.c ****         seg->p->tot_len == (TCPH_HDRLEN(seg->tcphdr) * 4));
1288:Source\LwIP\src\core/tcp_out.c ****     }
1289:Source\LwIP\src\core/tcp_out.c **** 
1290:Source\LwIP\src\core/tcp_out.c ****     /* rebuild TCP header checksum (TCP header changes for retransmissions!) */
1291:Source\LwIP\src\core/tcp_out.c ****     acc = ip_chksum_pseudo_partial(seg->p, IP_PROTO_TCP,
1292:Source\LwIP\src\core/tcp_out.c ****       seg->p->tot_len, TCPH_HDRLEN(seg->tcphdr) * 4, &pcb->local_ip, &pcb->remote_ip);
1293:Source\LwIP\src\core/tcp_out.c ****     /* add payload checksum */
1294:Source\LwIP\src\core/tcp_out.c ****     if (seg->chksum_swapped) {
1295:Source\LwIP\src\core/tcp_out.c ****       seg->chksum = SWAP_BYTES_IN_WORD(seg->chksum);
1296:Source\LwIP\src\core/tcp_out.c ****       seg->chksum_swapped = 0;
1297:Source\LwIP\src\core/tcp_out.c ****     }
1298:Source\LwIP\src\core/tcp_out.c ****     acc += (u16_t)~(seg->chksum);
1299:Source\LwIP\src\core/tcp_out.c ****     seg->tcphdr->chksum = FOLD_U32T(acc);
1300:Source\LwIP\src\core/tcp_out.c **** #if TCP_CHECKSUM_ON_COPY_SANITY_CHECK
1301:Source\LwIP\src\core/tcp_out.c ****     if (chksum_slow != seg->tcphdr->chksum) {
1302:Source\LwIP\src\core/tcp_out.c ****       TCP_CHECKSUM_ON_COPY_SANITY_CHECK_FAIL(
1303:Source\LwIP\src\core/tcp_out.c ****                   ("tcp_output_segment: calculated checksum is %"X16_F" instead of %"X16_F"\n",
1304:Source\LwIP\src\core/tcp_out.c ****                   seg->tcphdr->chksum, chksum_slow));
1305:Source\LwIP\src\core/tcp_out.c ****       seg->tcphdr->chksum = chksum_slow;
1306:Source\LwIP\src\core/tcp_out.c ****     }
1307:Source\LwIP\src\core/tcp_out.c **** #endif /* TCP_CHECKSUM_ON_COPY_SANITY_CHECK */
1308:Source\LwIP\src\core/tcp_out.c **** #else /* TCP_CHECKSUM_ON_COPY */
1309:Source\LwIP\src\core/tcp_out.c ****     seg->tcphdr->chksum = ip_chksum_pseudo(seg->p, IP_PROTO_TCP,
 616              		.loc 1 1309 0
 617 00be 2369     		ldr	r3, [r4, #16]
 618 00c0 9846     		mov	r8, r3
1310:Source\LwIP\src\core/tcp_out.c ****       seg->p->tot_len, &pcb->local_ip, &pcb->remote_ip);
 619              		.loc 1 1310 0
 620 00c2 2F1D     		adds	r7, r5, #4
1309:Source\LwIP\src\core/tcp_out.c ****       seg->p->tot_len, &pcb->local_ip, &pcb->remote_ip);
 621              		.loc 1 1309 0
 622 00c4 6368     		ldr	r3, [r4, #4]
 623 00c6 1A89     		ldrh	r2, [r3, #8]
 624 00c8 0097     		str	r7, [sp]
 625 00ca 2B00     		movs	r3, r5
 626 00cc 0621     		movs	r1, #6
 627 00ce 6068     		ldr	r0, [r4, #4]
 628 00d0 FFF7FEFF 		bl	ip_chksum_pseudo
 629              	.LVL70:
 630 00d4 4346     		mov	r3, r8
 631 00d6 1874     		strb	r0, [r3, #16]
 632 00d8 000A     		lsrs	r0, r0, #8
 633 00da 5874     		strb	r0, [r3, #17]
1311:Source\LwIP\src\core/tcp_out.c **** #endif /* TCP_CHECKSUM_ON_COPY */
1312:Source\LwIP\src\core/tcp_out.c ****   }
1313:Source\LwIP\src\core/tcp_out.c **** #endif /* CHECKSUM_GEN_TCP */
1314:Source\LwIP\src\core/tcp_out.c ****   TCP_STATS_INC(tcp.xmit);
 634              		.loc 1 1314 0
ARM GAS  C:\Users\Phuong\AppData\Local\Temp\cc5dKVKJ.s 			page 36


 635 00dc 0C49     		ldr	r1, .L29+8
 636 00de AC22     		movs	r2, #172
 637 00e0 8B5A     		ldrh	r3, [r1, r2]
 638 00e2 0133     		adds	r3, r3, #1
 639 00e4 8B52     		strh	r3, [r1, r2]
1315:Source\LwIP\src\core/tcp_out.c **** 
1316:Source\LwIP\src\core/tcp_out.c ****   NETIF_SET_HWADDRHINT(netif, &(pcb->addr_hint));
1317:Source\LwIP\src\core/tcp_out.c ****   err = ip_output_if(seg->p, &pcb->local_ip, &pcb->remote_ip, pcb->ttl,
 640              		.loc 1 1317 0
 641 00e6 6068     		ldr	r0, [r4, #4]
 642 00e8 AB7A     		ldrb	r3, [r5, #10]
 643 00ea 6A7A     		ldrb	r2, [r5, #9]
 644 00ec 0296     		str	r6, [sp, #8]
 645 00ee 0621     		movs	r1, #6
 646 00f0 0191     		str	r1, [sp, #4]
 647 00f2 0092     		str	r2, [sp]
 648 00f4 3A00     		movs	r2, r7
 649 00f6 2900     		movs	r1, r5
 650 00f8 FFF7FEFF 		bl	ip4_output_if
 651              	.LVL71:
1318:Source\LwIP\src\core/tcp_out.c ****     pcb->tos, IP_PROTO_TCP, netif);
1319:Source\LwIP\src\core/tcp_out.c ****   NETIF_SET_HWADDRHINT(netif, NULL);
1320:Source\LwIP\src\core/tcp_out.c ****   return err;
 652              		.loc 1 1320 0
 653 00fc 00E0     		b	.L24
 654              	.LVL72:
 655              	.L28:
1199:Source\LwIP\src\core/tcp_out.c ****   }
 656              		.loc 1 1199 0
 657 00fe 0020     		movs	r0, #0
 658              	.LVL73:
 659              	.L24:
1321:Source\LwIP\src\core/tcp_out.c **** }
 660              		.loc 1 1321 0
 661 0100 04B0     		add	sp, sp, #16
 662              		@ sp needed
 663              	.LVL74:
 664              	.LVL75:
 665              	.LVL76:
 666 0102 04BC     		pop	{r2}
 667 0104 9046     		mov	r8, r2
 668 0106 F0BD     		pop	{r4, r5, r6, r7, pc}
 669              	.L30:
 670              		.align	2
 671              	.L29:
 672 0108 B4050000 		.word	1460
 673 010c 00000000 		.word	tcp_ticks
 674 0110 00000000 		.word	lwip_stats
 675              		.cfi_endproc
 676              	.LFE62:
 677              		.size	tcp_output_segment, .-tcp_output_segment
 678              		.section	.text.tcp_write,"ax",%progbits
 679              		.align	2
 680              		.global	tcp_write
 681              		.code	16
 682              		.thumb_func
 683              		.type	tcp_write, %function
ARM GAS  C:\Users\Phuong\AppData\Local\Temp\cc5dKVKJ.s 			page 37


 684              	tcp_write:
 685              	.LFB58:
 369:Source\LwIP\src\core/tcp_out.c ****   struct pbuf *concat_p = NULL;
 686              		.loc 1 369 0
 687              		.cfi_startproc
 688              		@ args = 0, pretend = 0, frame = 40
 689              		@ frame_needed = 0, uses_anonymous_args = 0
 690              	.LVL77:
 691 0000 F0B5     		push	{r4, r5, r6, r7, lr}
 692              		.cfi_def_cfa_offset 20
 693              		.cfi_offset 4, -20
 694              		.cfi_offset 5, -16
 695              		.cfi_offset 6, -12
 696              		.cfi_offset 7, -8
 697              		.cfi_offset 14, -4
 698 0002 5F46     		mov	r7, fp
 699 0004 5646     		mov	r6, r10
 700 0006 4D46     		mov	r5, r9
 701 0008 4446     		mov	r4, r8
 702 000a F0B4     		push	{r4, r5, r6, r7}
 703              		.cfi_def_cfa_offset 36
 704              		.cfi_offset 8, -36
 705              		.cfi_offset 9, -32
 706              		.cfi_offset 10, -28
 707              		.cfi_offset 11, -24
 708 000c 8FB0     		sub	sp, sp, #60
 709              		.cfi_def_cfa_offset 96
 710 000e 0500     		movs	r5, r0
 711 0010 0591     		str	r1, [sp, #20]
 712 0012 9146     		mov	r9, r2
 713 0014 0793     		str	r3, [sp, #28]
 714              	.LVL78:
 377:Source\LwIP\src\core/tcp_out.c ****   u16_t oversize_used = 0;
 715              		.loc 1 377 0
 716 0016 0022     		movs	r2, #0
 717              	.LVL79:
 718 0018 1623     		movs	r3, #22
 719              	.LVL80:
 720 001a 08A9     		add	r1, sp, #32
 721              	.LVL81:
 722 001c 8C46     		mov	ip, r1
 723 001e 6344     		add	r3, r3, ip
 724 0020 1A80     		strh	r2, [r3]
 725              	.LVL82:
 391:Source\LwIP\src\core/tcp_out.c ****   mss_local = mss_local ? mss_local : pcb->mss;
 726              		.loc 1 391 0
 727 0022 5E23     		movs	r3, #94
 728 0024 C35A     		ldrh	r3, [r0, r3]
 729 0026 428E     		ldrh	r2, [r0, #50]
 730 0028 5B08     		lsrs	r3, r3, #1
 731 002a 191C     		adds	r1, r3, #0
 732 002c 9BB2     		uxth	r3, r3
 733 002e 9342     		cmp	r3, r2
 734 0030 00D9     		bls	.L32
 735 0032 111C     		adds	r1, r2, #0
 736              	.L32:
 737 0034 8BB2     		uxth	r3, r1
ARM GAS  C:\Users\Phuong\AppData\Local\Temp\cc5dKVKJ.s 			page 38


 738 0036 0493     		str	r3, [sp, #16]
 739              	.LVL83:
 392:Source\LwIP\src\core/tcp_out.c **** 
 740              		.loc 1 392 0
 741 0038 002B     		cmp	r3, #0
 742 003a 00D1     		bne	.L33
 743 003c 0492     		str	r2, [sp, #16]
 744              	.L33:
 745              	.LVL84:
 396:Source\LwIP\src\core/tcp_out.c **** #endif /* LWIP_NETIF_TX_SINGLE_PBUF */
 746              		.loc 1 396 0 discriminator 4
 747 003e 0123     		movs	r3, #1
 748 0040 079A     		ldr	r2, [sp, #28]
 749 0042 1343     		orrs	r3, r2
 750 0044 DBB2     		uxtb	r3, r3
 751 0046 0693     		str	r3, [sp, #24]
 752              	.LVL85:
 401:Source\LwIP\src\core/tcp_out.c ****              arg != NULL, return ERR_ARG;);
 753              		.loc 1 401 0 discriminator 4
 754 0048 059B     		ldr	r3, [sp, #20]
 755 004a 002B     		cmp	r3, #0
 756 004c 00D1     		bne	.LCB768
 757 004e 7EE1     		b	.L58	@long jump
 758              	.LCB768:
 404:Source\LwIP\src\core/tcp_out.c ****   if (err != ERR_OK) {
 759              		.loc 1 404 0
 760 0050 4946     		mov	r1, r9
 761 0052 2800     		movs	r0, r5
 762              	.LVL86:
 763 0054 FFF7FEFF 		bl	tcp_write_checks
 764              	.LVL87:
 405:Source\LwIP\src\core/tcp_out.c ****     return err;
 765              		.loc 1 405 0
 766 0058 0028     		cmp	r0, #0
 767 005a 00D0     		beq	.LCB777
 768 005c 7FE1     		b	.L34	@long jump
 769              	.LCB777:
 408:Source\LwIP\src\core/tcp_out.c **** 
 770              		.loc 1 408 0
 771 005e 6223     		movs	r3, #98
 772 0060 EE5A     		ldrh	r6, [r5, r3]
 773              	.LVL88:
 445:Source\LwIP\src\core/tcp_out.c ****     u16_t space;
 774              		.loc 1 445 0
 775 0062 AB6E     		ldr	r3, [r5, #104]
 776 0064 9A46     		mov	r10, r3
 777 0066 002B     		cmp	r3, #0
 778 0068 02D1     		bne	.L71
 779 006a 72E0     		b	.L60
 780              	.LVL89:
 781              	.L61:
 782              	.LBB3:
 451:Source\LwIP\src\core/tcp_out.c **** 
 783              		.loc 1 451 0
 784 006c 1A00     		movs	r2, r3
 785              	.LVL90:
 786 006e 00E0     		b	.L36
ARM GAS  C:\Users\Phuong\AppData\Local\Temp\cc5dKVKJ.s 			page 39


 787              	.LVL91:
 788              	.L71:
 789 0070 1A00     		movs	r2, r3
 790              	.LVL92:
 791              	.L36:
 450:Source\LwIP\src\core/tcp_out.c ****          last_unsent = last_unsent->next);
 792              		.loc 1 450 0 discriminator 1
 793 0072 1368     		ldr	r3, [r2]
 794 0074 002B     		cmp	r3, #0
 795 0076 F9D1     		bne	.L61
 796 0078 9246     		mov	r10, r2
 797 007a 9846     		mov	r8, r3
 454:Source\LwIP\src\core/tcp_out.c ****     LWIP_ASSERT("mss_local is too small", mss_local >= last_unsent->len + unsent_optlen);
 798              		.loc 1 454 0
 799 007c 137B     		ldrb	r3, [r2, #12]
 800 007e DB07     		lsls	r3, r3, #31
 801 0080 01D5     		bpl	.L62
 802 0082 0422     		movs	r2, #4
 803              	.LVL93:
 804 0084 00E0     		b	.L37
 805              	.LVL94:
 806              	.L62:
 807 0086 0022     		movs	r2, #0
 808              	.LVL95:
 809              	.L37:
 455:Source\LwIP\src\core/tcp_out.c ****     space = mss_local - (last_unsent->len + unsent_optlen);
 810              		.loc 1 455 0 discriminator 4
 811 0088 5346     		mov	r3, r10
 812 008a 1989     		ldrh	r1, [r3, #8]
 456:Source\LwIP\src\core/tcp_out.c **** 
 813              		.loc 1 456 0 discriminator 4
 814 008c 5218     		adds	r2, r2, r1
 815              	.LVL96:
 816 008e 049B     		ldr	r3, [sp, #16]
 817 0090 9A1A     		subs	r2, r3, r2
 818 0092 92B2     		uxth	r2, r2
 819              	.LVL97:
 471:Source\LwIP\src\core/tcp_out.c ****     if (oversize > 0) {
 820              		.loc 1 471 0 discriminator 4
 821 0094 6423     		movs	r3, #100
 822 0096 EB5A     		ldrh	r3, [r5, r3]
 823 0098 1620     		movs	r0, #22
 824              	.LVL98:
 825 009a 08AC     		add	r4, sp, #32
 826 009c A446     		mov	ip, r4
 827 009e 6044     		add	r0, r0, ip
 828 00a0 0380     		strh	r3, [r0]
 472:Source\LwIP\src\core/tcp_out.c ****       LWIP_ASSERT("inconsistent oversize vs. space", oversize <= space);
 829              		.loc 1 472 0 discriminator 4
 830 00a2 002B     		cmp	r3, #0
 831 00a4 15D0     		beq	.L63
 832              	.LVL99:
 475:Source\LwIP\src\core/tcp_out.c ****       pos += oversize_used;
 833              		.loc 1 475 0
 834 00a6 4846     		mov	r0, r9
 835 00a8 9945     		cmp	r9, r3
 836 00aa 00D9     		bls	.L39
ARM GAS  C:\Users\Phuong\AppData\Local\Temp\cc5dKVKJ.s 			page 40


 837 00ac 181C     		adds	r0, r3, #0
 838              	.L39:
 839 00ae 171C     		adds	r7, r2, #0
 840 00b0 84B2     		uxth	r4, r0
 841 00b2 A242     		cmp	r2, r4
 842 00b4 00D9     		bls	.L40
 843 00b6 071C     		adds	r7, r0, #0
 844              	.L40:
 845 00b8 B8B2     		uxth	r0, r7
 846 00ba 0400     		movs	r4, r0
 847 00bc 0890     		str	r0, [sp, #32]
 848              	.LVL100:
 477:Source\LwIP\src\core/tcp_out.c ****       space -= oversize_used;
 849              		.loc 1 477 0
 850 00be 1B1A     		subs	r3, r3, r0
 851 00c0 1620     		movs	r0, #22
 852 00c2 08AF     		add	r7, sp, #32
 853              	.LVL101:
 854 00c4 BC46     		mov	ip, r7
 855 00c6 6044     		add	r0, r0, ip
 856 00c8 0380     		strh	r3, [r0]
 478:Source\LwIP\src\core/tcp_out.c ****     }
 857              		.loc 1 478 0
 858 00ca 121B     		subs	r2, r2, r4
 859              	.LVL102:
 860 00cc 92B2     		uxth	r2, r2
 861              	.LVL103:
 474:Source\LwIP\src\core/tcp_out.c ****       oversize_used = LWIP_MIN(space, LWIP_MIN(oversize, len));
 862              		.loc 1 474 0
 863 00ce 5746     		mov	r7, r10
 864 00d0 02E0     		b	.L38
 865              	.LVL104:
 866              	.L63:
 867              	.LBE3:
 371:Source\LwIP\src\core/tcp_out.c ****   u16_t pos = 0; /* position in 'arg' data */
 868              		.loc 1 371 0
 869 00d2 4746     		mov	r7, r8
 372:Source\LwIP\src\core/tcp_out.c ****   u16_t queuelen;
 870              		.loc 1 372 0
 871 00d4 0023     		movs	r3, #0
 872 00d6 0893     		str	r3, [sp, #32]
 873              	.LVL105:
 874              	.L38:
 875              	.LBB5:
 495:Source\LwIP\src\core/tcp_out.c ****       u16_t seglen = LWIP_MIN(space, len - pos);
 876              		.loc 1 495 0
 877 00d8 089B     		ldr	r3, [sp, #32]
 878 00da 4B45     		cmp	r3, r9
 879 00dc 40D2     		bcs	.L64
 495:Source\LwIP\src\core/tcp_out.c ****       u16_t seglen = LWIP_MIN(space, len - pos);
 880              		.loc 1 495 0 is_stmt 0 discriminator 1
 881 00de 002A     		cmp	r2, #0
 882 00e0 43D0     		beq	.L65
 495:Source\LwIP\src\core/tcp_out.c ****       u16_t seglen = LWIP_MIN(space, len - pos);
 883              		.loc 1 495 0 discriminator 2
 884 00e2 0029     		cmp	r1, #0
 885 00e4 46D0     		beq	.L66
ARM GAS  C:\Users\Phuong\AppData\Local\Temp\cc5dKVKJ.s 			page 41


 886              	.LBB4:
 496:Source\LwIP\src\core/tcp_out.c ****       seg = last_unsent;
 887              		.loc 1 496 0 is_stmt 1
 888 00e6 4B46     		mov	r3, r9
 889 00e8 0899     		ldr	r1, [sp, #32]
 890 00ea 5B1A     		subs	r3, r3, r1
 891 00ec 1700     		movs	r7, r2
 892              	.LVL106:
 893 00ee 9A42     		cmp	r2, r3
 894 00f0 00DD     		ble	.L41
 895 00f2 1F00     		movs	r7, r3
 896              	.L41:
 897 00f4 BCB2     		uxth	r4, r7
 898              	.LVL107:
 504:Source\LwIP\src\core/tcp_out.c ****           LWIP_DEBUGF(TCP_OUTPUT_DEBUG | LWIP_DBG_LEVEL_SERIOUS,
 899              		.loc 1 504 0
 900 00f6 0123     		movs	r3, #1
 901 00f8 0293     		str	r3, [sp, #8]
 902 00fa 069B     		ldr	r3, [sp, #24]
 903 00fc 0193     		str	r3, [sp, #4]
 904 00fe 0095     		str	r5, [sp]
 905 0100 1623     		movs	r3, #22
 906 0102 08A9     		add	r1, sp, #32
 907 0104 8C46     		mov	ip, r1
 908              	.LVL108:
 909 0106 6344     		add	r3, r3, ip
 910 0108 2100     		movs	r1, r4
 911              	.LVL109:
 912 010a 0420     		movs	r0, #4
 913 010c FFF7FEFF 		bl	tcp_pbuf_prealloc
 914              	.LVL110:
 915 0110 0990     		str	r0, [sp, #36]
 916              	.LVL111:
 917 0112 0028     		cmp	r0, #0
 918 0114 00D1     		bne	.LCB950
 919 0116 02E1     		b	.L42	@long jump
 920              	.LCB950:
 511:Source\LwIP\src\core/tcp_out.c **** #endif /* TCP_OVERSIZE_DBGCHECK */
 921              		.loc 1 511 0
 922 0118 1623     		movs	r3, #22
 923 011a 08A9     		add	r1, sp, #32
 924              	.LVL112:
 925 011c 8C46     		mov	ip, r1
 926 011e 6344     		add	r3, r3, ip
 927 0120 1B88     		ldrh	r3, [r3]
 928 0122 0B93     		str	r3, [sp, #44]
 929              	.LVL113:
 513:Source\LwIP\src\core/tcp_out.c **** #if TCP_CHECKSUM_ON_COPY
 930              		.loc 1 513 0
 931 0124 059B     		ldr	r3, [sp, #20]
 932 0126 1900     		movs	r1, r3
 933              	.LVL114:
 934 0128 089B     		ldr	r3, [sp, #32]
 935 012a 9C46     		mov	ip, r3
 936              	.LVL115:
 937 012c 6144     		add	r1, r1, ip
 938 012e 4268     		ldr	r2, [r0, #4]
ARM GAS  C:\Users\Phuong\AppData\Local\Temp\cc5dKVKJ.s 			page 42


 939 0130 0A92     		str	r2, [sp, #40]
 940 0132 3A04     		lsls	r2, r7, #16
 941 0134 120C     		lsrs	r2, r2, #16
 942 0136 0A98     		ldr	r0, [sp, #40]
 943              	.LVL116:
 944 0138 FFF7FEFF 		bl	memcpy
 945              	.LVL117:
 517:Source\LwIP\src\core/tcp_out.c ****       } else {
 946              		.loc 1 517 0
 947 013c 0998     		ldr	r0, [sp, #36]
 948 013e FFF7FEFF 		bl	pbuf_clen
 949              	.LVL118:
 950 0142 3618     		adds	r6, r6, r0
 951              	.LVL119:
 952 0144 B6B2     		uxth	r6, r6
 953              	.LVL120:
 544:Source\LwIP\src\core/tcp_out.c ****     }
 954              		.loc 1 544 0
 955 0146 089B     		ldr	r3, [sp, #32]
 956 0148 9C46     		mov	ip, r3
 957 014a 6444     		add	r4, r4, ip
 958              	.LVL121:
 959 014c A4B2     		uxth	r4, r4
 960              	.LVL122:
 497:Source\LwIP\src\core/tcp_out.c **** 
 961              		.loc 1 497 0
 962 014e 5746     		mov	r7, r10
 963              	.LVL123:
 964 0150 14E0     		b	.L35
 965              	.LVL124:
 966              	.L60:
 967              	.LBE4:
 968              	.LBE5:
 371:Source\LwIP\src\core/tcp_out.c ****   u16_t pos = 0; /* position in 'arg' data */
 969              		.loc 1 371 0
 970 0152 1F00     		movs	r7, r3
 380:Source\LwIP\src\core/tcp_out.c **** #endif /* TCP_OVERSIZE_DBGCHECK*/
 971              		.loc 1 380 0
 972 0154 0023     		movs	r3, #0
 973 0156 0B93     		str	r3, [sp, #44]
 378:Source\LwIP\src\core/tcp_out.c **** #if TCP_OVERSIZE_DBGCHECK
 974              		.loc 1 378 0
 975 0158 0893     		str	r3, [sp, #32]
 372:Source\LwIP\src\core/tcp_out.c ****   u16_t queuelen;
 976              		.loc 1 372 0
 977 015a 0024     		movs	r4, #0
 370:Source\LwIP\src\core/tcp_out.c ****   struct tcp_seg *last_unsent = NULL, *seg = NULL, *prev_seg = NULL, *queue = NULL;
 978              		.loc 1 370 0
 979 015c 0993     		str	r3, [sp, #36]
 980 015e 0DE0     		b	.L35
 981              	.LVL125:
 982              	.L64:
 983              	.LBB6:
 984 0160 089C     		ldr	r4, [sp, #32]
 985              	.LBE6:
 380:Source\LwIP\src\core/tcp_out.c **** #endif /* TCP_OVERSIZE_DBGCHECK*/
 986              		.loc 1 380 0
ARM GAS  C:\Users\Phuong\AppData\Local\Temp\cc5dKVKJ.s 			page 43


 987 0162 0023     		movs	r3, #0
 988 0164 0B93     		str	r3, [sp, #44]
 370:Source\LwIP\src\core/tcp_out.c ****   struct tcp_seg *last_unsent = NULL, *seg = NULL, *prev_seg = NULL, *queue = NULL;
 989              		.loc 1 370 0
 990 0166 0993     		str	r3, [sp, #36]
 991 0168 08E0     		b	.L35
 992              	.L65:
 993              	.LBB7:
 994 016a 089C     		ldr	r4, [sp, #32]
 995              	.LBE7:
 380:Source\LwIP\src\core/tcp_out.c **** #endif /* TCP_OVERSIZE_DBGCHECK*/
 996              		.loc 1 380 0
 997 016c 0023     		movs	r3, #0
 998 016e 0B93     		str	r3, [sp, #44]
 370:Source\LwIP\src\core/tcp_out.c ****   struct tcp_seg *last_unsent = NULL, *seg = NULL, *prev_seg = NULL, *queue = NULL;
 999              		.loc 1 370 0
 1000 0170 0993     		str	r3, [sp, #36]
 1001 0172 03E0     		b	.L35
 1002              	.L66:
 1003              	.LBB8:
 1004 0174 089C     		ldr	r4, [sp, #32]
 1005              	.LBE8:
 380:Source\LwIP\src\core/tcp_out.c **** #endif /* TCP_OVERSIZE_DBGCHECK*/
 1006              		.loc 1 380 0
 1007 0176 0023     		movs	r3, #0
 1008 0178 0B93     		str	r3, [sp, #44]
 370:Source\LwIP\src\core/tcp_out.c ****   struct tcp_seg *last_unsent = NULL, *seg = NULL, *prev_seg = NULL, *queue = NULL;
 1009              		.loc 1 370 0
 1010 017a 0993     		str	r3, [sp, #36]
 1011              	.LVL126:
 1012              	.L35:
 1013              	.LBB9:
 642:Source\LwIP\src\core/tcp_out.c ****     } else {
 1014              		.loc 1 642 0
 1015 017c 0023     		movs	r3, #0
 1016 017e 9846     		mov	r8, r3
 1017 0180 9B46     		mov	fp, r3
 1018 0182 5346     		mov	r3, r10
 1019 0184 0A93     		str	r3, [sp, #40]
 1020 0186 3800     		movs	r0, r7
 1021 0188 AA46     		mov	r10, r5
 1022 018a 3500     		movs	r5, r6
 1023              	.LVL127:
 1024 018c 2600     		movs	r6, r4
 1025              	.LVL128:
 1026 018e 4AE0     		b	.L43
 1027              	.LVL129:
 1028              	.L47:
 561:Source\LwIP\src\core/tcp_out.c ****     u16_t max_len = mss_local - optlen;
 1029              		.loc 1 561 0
 1030 0190 4B46     		mov	r3, r9
 1031 0192 9B1B     		subs	r3, r3, r6
 1032 0194 9BB2     		uxth	r3, r3
 1033              	.LVL130:
 563:Source\LwIP\src\core/tcp_out.c **** #if TCP_CHECKSUM_ON_COPY
 1034              		.loc 1 563 0
 1035 0196 049A     		ldr	r2, [sp, #16]
ARM GAS  C:\Users\Phuong\AppData\Local\Temp\cc5dKVKJ.s 			page 44


 1036 0198 141C     		adds	r4, r2, #0
 1037 019a 9A42     		cmp	r2, r3
 1038 019c 00D9     		bls	.L44
 1039 019e 1C1C     		adds	r4, r3, #0
 1040              	.L44:
 1041 01a0 A4B2     		uxth	r4, r4
 1042              	.LVL131:
 572:Source\LwIP\src\core/tcp_out.c ****         LWIP_DEBUGF(TCP_OUTPUT_DEBUG | LWIP_DBG_LEVEL_SERIOUS, ("tcp_write : could not allocate mem
 1043              		.loc 1 572 0
 1044 01a2 4346     		mov	r3, r8
 1045              	.LVL132:
 1046 01a4 5A42     		rsbs	r2, r3, #0
 1047 01a6 5341     		adcs	r3, r3, r2
 1048 01a8 0293     		str	r3, [sp, #8]
 1049 01aa 069B     		ldr	r3, [sp, #24]
 1050 01ac 0193     		str	r3, [sp, #4]
 1051 01ae 5346     		mov	r3, r10
 1052 01b0 0093     		str	r3, [sp]
 1053 01b2 1623     		movs	r3, #22
 1054 01b4 08AA     		add	r2, sp, #32
 1055              	.LVL133:
 1056 01b6 9446     		mov	ip, r2
 1057 01b8 6344     		add	r3, r3, ip
 1058 01ba 049A     		ldr	r2, [sp, #16]
 1059              	.LVL134:
 1060 01bc 2100     		movs	r1, r4
 1061 01be 0020     		movs	r0, #0
 1062              	.LVL135:
 1063 01c0 FFF7FEFF 		bl	tcp_pbuf_prealloc
 1064              	.LVL136:
 1065 01c4 071E     		subs	r7, r0, #0
 1066              	.LVL137:
 1067 01c6 00D1     		bne	.LCB1138
 1068 01c8 A6E0     		b	.L72	@long jump
 1069              	.LCB1138:
 578:Source\LwIP\src\core/tcp_out.c ****     } else {
 1070              		.loc 1 578 0
 1071 01ca 059B     		ldr	r3, [sp, #20]
 1072 01cc 9919     		adds	r1, r3, r6
 1073 01ce 2200     		movs	r2, r4
 1074 01d0 4068     		ldr	r0, [r0, #4]
 1075              	.LVL138:
 1076 01d2 FFF7FEFF 		bl	memcpy
 1077              	.LVL139:
 616:Source\LwIP\src\core/tcp_out.c **** 
 1078              		.loc 1 616 0
 1079 01d6 3800     		movs	r0, r7
 1080 01d8 FFF7FEFF 		bl	pbuf_clen
 1081              	.LVL140:
 1082 01dc 2D18     		adds	r5, r5, r0
 1083              	.LVL141:
 1084 01de ADB2     		uxth	r5, r5
 1085              	.LVL142:
 621:Source\LwIP\src\core/tcp_out.c ****       LWIP_DEBUGF(TCP_OUTPUT_DEBUG | LWIP_DBG_LEVEL_SERIOUS, ("tcp_write: queue too long %"U16_F" (
 1086              		.loc 1 621 0
 1087 01e0 182D     		cmp	r5, #24
 1088 01e2 04D9     		bls	.L45
ARM GAS  C:\Users\Phuong\AppData\Local\Temp\cc5dKVKJ.s 			page 45


 1089 01e4 5546     		mov	r5, r10
 1090              	.LVL143:
 624:Source\LwIP\src\core/tcp_out.c ****       goto memerr;
 1091              		.loc 1 624 0
 1092 01e6 3800     		movs	r0, r7
 1093 01e8 FFF7FEFF 		bl	pbuf_free
 1094              	.LVL144:
 625:Source\LwIP\src\core/tcp_out.c ****     }
 1095              		.loc 1 625 0
 1096 01ec 97E0     		b	.L42
 1097              	.LVL145:
 1098              	.L45:
 628:Source\LwIP\src\core/tcp_out.c ****       goto memerr;
 1099              		.loc 1 628 0
 1100 01ee 5346     		mov	r3, r10
 1101 01f0 9B6D     		ldr	r3, [r3, #88]
 1102 01f2 F318     		adds	r3, r6, r3
 1103 01f4 0022     		movs	r2, #0
 1104 01f6 0092     		str	r2, [sp]
 1105 01f8 3900     		movs	r1, r7
 1106 01fa 5046     		mov	r0, r10
 1107 01fc FFF7FEFF 		bl	tcp_create_segment
 1108              	.LVL146:
 1109 0200 0028     		cmp	r0, #0
 1110 0202 00D1     		bne	.LCB1180
 1111 0204 8AE0     		b	.L73	@long jump
 1112              	.LCB1180:
 632:Source\LwIP\src\core/tcp_out.c **** #endif /* TCP_OVERSIZE_DBGCHECK */
 1113              		.loc 1 632 0
 1114 0206 1623     		movs	r3, #22
 1115 0208 08AA     		add	r2, sp, #32
 1116              	.LVL147:
 1117 020a 9446     		mov	ip, r2
 1118 020c 6344     		add	r3, r3, ip
 1119 020e 1B88     		ldrh	r3, [r3]
 1120 0210 4381     		strh	r3, [r0, #10]
 641:Source\LwIP\src\core/tcp_out.c ****       queue = seg;
 1121              		.loc 1 641 0
 1122 0212 4346     		mov	r3, r8
 1123 0214 002B     		cmp	r3, #0
 1124 0216 02D0     		beq	.L67
 1125              	.LVL148:
 646:Source\LwIP\src\core/tcp_out.c ****     }
 1126              		.loc 1 646 0
 1127 0218 5B46     		mov	r3, fp
 1128              	.LVL149:
 1129 021a 1860     		str	r0, [r3]
 1130 021c 00E0     		b	.L46
 1131              	.LVL150:
 1132              	.L67:
 642:Source\LwIP\src\core/tcp_out.c ****     } else {
 1133              		.loc 1 642 0
 1134 021e 8046     		mov	r8, r0
 1135              	.LVL151:
 1136              	.L46:
 655:Source\LwIP\src\core/tcp_out.c ****   }
 1137              		.loc 1 655 0
ARM GAS  C:\Users\Phuong\AppData\Local\Temp\cc5dKVKJ.s 			page 46


 1138 0220 3419     		adds	r4, r6, r4
 1139              	.LVL152:
 1140 0222 A6B2     		uxth	r6, r4
 1141              	.LVL153:
 649:Source\LwIP\src\core/tcp_out.c **** 
 1142              		.loc 1 649 0
 1143 0224 8346     		mov	fp, r0
 1144              	.LVL154:
 1145              	.L43:
 1146              	.LBE9:
 559:Source\LwIP\src\core/tcp_out.c ****     struct pbuf *p;
 1147              		.loc 1 559 0
 1148 0226 4E45     		cmp	r6, r9
 1149 0228 B2D3     		bcc	.L47
 1150 022a 0700     		movs	r7, r0
 1151 022c 2E00     		movs	r6, r5
 1152              	.LVL155:
 1153 022e 5546     		mov	r5, r10
 1154              	.LVL156:
 1155 0230 0A9B     		ldr	r3, [sp, #40]
 1156 0232 9A46     		mov	r10, r3
 1157              	.LVL157:
 663:Source\LwIP\src\core/tcp_out.c ****     last_unsent->oversize_left += oversize_add;
 1158              		.loc 1 663 0
 1159 0234 002B     		cmp	r3, #0
 1160 0236 08D0     		beq	.L48
 663:Source\LwIP\src\core/tcp_out.c ****     last_unsent->oversize_left += oversize_add;
 1161              		.loc 1 663 0 is_stmt 0 discriminator 1
 1162 0238 0B9A     		ldr	r2, [sp, #44]
 1163 023a 002A     		cmp	r2, #0
 1164 023c 05D0     		beq	.L48
 664:Source\LwIP\src\core/tcp_out.c ****   }
 1165              		.loc 1 664 0 is_stmt 1
 1166 023e 5346     		mov	r3, r10
 1167 0240 5B89     		ldrh	r3, [r3, #10]
 1168 0242 9446     		mov	ip, r2
 1169 0244 6344     		add	r3, r3, ip
 1170 0246 5246     		mov	r2, r10
 1171 0248 5381     		strh	r3, [r2, #10]
 1172              	.LVL158:
 1173              	.L48:
 673:Source\LwIP\src\core/tcp_out.c ****     struct pbuf *p;
 1174              		.loc 1 673 0
 1175 024a 089B     		ldr	r3, [sp, #32]
 1176 024c 002B     		cmp	r3, #0
 1177 024e 24D0     		beq	.L49
 1178              	.LBB10:
 676:Source\LwIP\src\core/tcp_out.c ****       p->tot_len += oversize_used;
 1179              		.loc 1 676 0
 1180 0250 5246     		mov	r2, r10
 1181 0252 5468     		ldr	r4, [r2, #4]
 1182              	.LVL159:
 1183 0254 AB46     		mov	fp, r5
 1184              	.LVL160:
 1185 0256 1D00     		movs	r5, r3
 1186              	.LVL161:
 1187 0258 11E0     		b	.L50
ARM GAS  C:\Users\Phuong\AppData\Local\Temp\cc5dKVKJ.s 			page 47


 1188              	.LVL162:
 1189              	.L52:
 677:Source\LwIP\src\core/tcp_out.c ****       if (p->next == NULL) {
 1190              		.loc 1 677 0
 1191 025a 2389     		ldrh	r3, [r4, #8]
 1192 025c EB18     		adds	r3, r5, r3
 1193 025e 2381     		strh	r3, [r4, #8]
 678:Source\LwIP\src\core/tcp_out.c ****         TCP_DATA_COPY((char *)p->payload + p->len, arg, oversize_used, last_unsent);
 1194              		.loc 1 678 0
 1195 0260 2368     		ldr	r3, [r4]
 1196 0262 002B     		cmp	r3, #0
 1197 0264 0AD1     		bne	.L51
 679:Source\LwIP\src\core/tcp_out.c ****         p->len += oversize_used;
 1198              		.loc 1 679 0
 1199 0266 6089     		ldrh	r0, [r4, #10]
 1200 0268 6368     		ldr	r3, [r4, #4]
 1201 026a 9C46     		mov	ip, r3
 1202 026c 6044     		add	r0, r0, ip
 1203 026e 2A00     		movs	r2, r5
 1204 0270 0599     		ldr	r1, [sp, #20]
 1205 0272 FFF7FEFF 		bl	memcpy
 1206              	.LVL163:
 680:Source\LwIP\src\core/tcp_out.c ****       }
 1207              		.loc 1 680 0
 1208 0276 6389     		ldrh	r3, [r4, #10]
 1209 0278 EB18     		adds	r3, r5, r3
 1210 027a 6381     		strh	r3, [r4, #10]
 1211              	.L51:
 676:Source\LwIP\src\core/tcp_out.c ****       p->tot_len += oversize_used;
 1212              		.loc 1 676 0 discriminator 2
 1213 027c 2468     		ldr	r4, [r4]
 1214              	.LVL164:
 1215              	.L50:
 676:Source\LwIP\src\core/tcp_out.c ****       p->tot_len += oversize_used;
 1216              		.loc 1 676 0 is_stmt 0 discriminator 1
 1217 027e 002C     		cmp	r4, #0
 1218 0280 EBD1     		bne	.L52
 1219 0282 5D46     		mov	r5, fp
 683:Source\LwIP\src\core/tcp_out.c **** #if TCP_OVERSIZE_DBGCHECK
 1220              		.loc 1 683 0 is_stmt 1
 1221 0284 5346     		mov	r3, r10
 1222 0286 1B89     		ldrh	r3, [r3, #8]
 1223 0288 0899     		ldr	r1, [sp, #32]
 1224 028a 8C46     		mov	ip, r1
 1225 028c 6344     		add	r3, r3, ip
 1226 028e 5246     		mov	r2, r10
 1227 0290 1381     		strh	r3, [r2, #8]
 687:Source\LwIP\src\core/tcp_out.c **** #endif /* TCP_OVERSIZE_DBGCHECK */
 1228              		.loc 1 687 0
 1229 0292 5389     		ldrh	r3, [r2, #10]
 1230 0294 5B1A     		subs	r3, r3, r1
 1231 0296 5246     		mov	r2, r10
 1232 0298 5381     		strh	r3, [r2, #10]
 1233              	.LVL165:
 1234              	.L49:
 1235              	.LBE10:
 690:Source\LwIP\src\core/tcp_out.c **** #endif /* TCP_OVERSIZE */
ARM GAS  C:\Users\Phuong\AppData\Local\Temp\cc5dKVKJ.s 			page 48


 1236              		.loc 1 690 0
 1237 029a 1623     		movs	r3, #22
 1238 029c 08AA     		add	r2, sp, #32
 1239              	.LVL166:
 1240 029e 9446     		mov	ip, r2
 1241 02a0 6344     		add	r3, r3, ip
 1242 02a2 1A88     		ldrh	r2, [r3]
 1243              	.LVL167:
 1244 02a4 6423     		movs	r3, #100
 1245 02a6 EA52     		strh	r2, [r5, r3]
 697:Source\LwIP\src\core/tcp_out.c ****     LWIP_ASSERT("tcp_write: cannot concatenate when pcb->unsent is empty",
 1246              		.loc 1 697 0
 1247 02a8 099C     		ldr	r4, [sp, #36]
 1248 02aa 002C     		cmp	r4, #0
 1249 02ac 0AD0     		beq	.L53
 700:Source\LwIP\src\core/tcp_out.c ****     last_unsent->len += concat_p->tot_len;
 1250              		.loc 1 700 0
 1251 02ae 2100     		movs	r1, r4
 1252 02b0 5246     		mov	r2, r10
 1253 02b2 5068     		ldr	r0, [r2, #4]
 1254 02b4 FFF7FEFF 		bl	pbuf_cat
 1255              	.LVL168:
 701:Source\LwIP\src\core/tcp_out.c ****   } else if (extendlen > 0) {
 1256              		.loc 1 701 0
 1257 02b8 2289     		ldrh	r2, [r4, #8]
 1258 02ba 5346     		mov	r3, r10
 1259 02bc 1B89     		ldrh	r3, [r3, #8]
 1260 02be D318     		adds	r3, r2, r3
 1261 02c0 5246     		mov	r2, r10
 1262 02c2 1381     		strh	r3, [r2, #8]
 1263              	.L53:
 732:Source\LwIP\src\core/tcp_out.c ****     pcb->unsent = queue;
 1264              		.loc 1 732 0
 1265 02c4 5346     		mov	r3, r10
 1266 02c6 002B     		cmp	r3, #0
 1267 02c8 02D1     		bne	.L54
 1268              	.LVL169:
 733:Source\LwIP\src\core/tcp_out.c ****   } else {
 1269              		.loc 1 733 0
 1270 02ca 4346     		mov	r3, r8
 1271              	.LVL170:
 1272 02cc AB66     		str	r3, [r5, #104]
 1273 02ce 02E0     		b	.L55
 1274              	.LVL171:
 1275              	.L54:
 735:Source\LwIP\src\core/tcp_out.c ****   }
 1276              		.loc 1 735 0
 1277 02d0 5346     		mov	r3, r10
 1278              	.LVL172:
 1279 02d2 4246     		mov	r2, r8
 1280 02d4 1A60     		str	r2, [r3]
 1281              	.L55:
 741:Source\LwIP\src\core/tcp_out.c ****   pcb->snd_buf -= len;
 1282              		.loc 1 741 0
 1283 02d6 AB6D     		ldr	r3, [r5, #88]
 1284 02d8 4B44     		add	r3, r3, r9
 1285 02da AB65     		str	r3, [r5, #88]
ARM GAS  C:\Users\Phuong\AppData\Local\Temp\cc5dKVKJ.s 			page 49


 742:Source\LwIP\src\core/tcp_out.c ****   pcb->snd_queuelen = queuelen;
 1286              		.loc 1 742 0
 1287 02dc 6022     		movs	r2, #96
 1288 02de AB5A     		ldrh	r3, [r5, r2]
 1289 02e0 4946     		mov	r1, r9
 1290 02e2 5B1A     		subs	r3, r3, r1
 1291 02e4 AB52     		strh	r3, [r5, r2]
 743:Source\LwIP\src\core/tcp_out.c **** 
 1292              		.loc 1 743 0
 1293 02e6 6223     		movs	r3, #98
 1294 02e8 EE52     		strh	r6, [r5, r3]
 753:Source\LwIP\src\core/tcp_out.c ****     TCPH_SET_FLAG(seg->tcphdr, TCP_PSH);
 1295              		.loc 1 753 0
 1296 02ea 002F     		cmp	r7, #0
 1297 02ec 32D0     		beq	.L68
 753:Source\LwIP\src\core/tcp_out.c ****     TCPH_SET_FLAG(seg->tcphdr, TCP_PSH);
 1298              		.loc 1 753 0 is_stmt 0 discriminator 1
 1299 02ee 3C69     		ldr	r4, [r7, #16]
 1300 02f0 002C     		cmp	r4, #0
 1301 02f2 31D0     		beq	.L69
 753:Source\LwIP\src\core/tcp_out.c ****     TCPH_SET_FLAG(seg->tcphdr, TCP_PSH);
 1302              		.loc 1 753 0 discriminator 2
 1303 02f4 079B     		ldr	r3, [sp, #28]
 1304 02f6 9B07     		lsls	r3, r3, #30
 1305 02f8 30D4     		bmi	.L70
 754:Source\LwIP\src\core/tcp_out.c ****   }
 1306              		.loc 1 754 0 is_stmt 1
 1307 02fa 227B     		ldrb	r2, [r4, #12]
 1308 02fc 607B     		ldrb	r0, [r4, #13]
 1309 02fe 0002     		lsls	r0, r0, #8
 1310 0300 1043     		orrs	r0, r2
 1311 0302 0500     		movs	r5, r0
 1312              	.LVL173:
 1313 0304 0820     		movs	r0, #8
 1314 0306 FFF7FEFF 		bl	lwip_htons
 1315              	.LVL174:
 1316 030a 2843     		orrs	r0, r5
 1317 030c 83B2     		uxth	r3, r0
 1318 030e 2373     		strb	r3, [r4, #12]
 1319 0310 1B0A     		lsrs	r3, r3, #8
 1320 0312 6373     		strb	r3, [r4, #13]
 757:Source\LwIP\src\core/tcp_out.c **** memerr:
 1321              		.loc 1 757 0
 1322 0314 0020     		movs	r0, #0
 1323 0316 22E0     		b	.L34
 1324              	.LVL175:
 1325              	.L72:
 1326 0318 5546     		mov	r5, r10
 1327              	.LVL176:
 1328 031a 00E0     		b	.L42
 1329              	.LVL177:
 1330              	.L73:
 1331 031c 5546     		mov	r5, r10
 1332              	.LVL178:
 1333              	.L42:
 759:Source\LwIP\src\core/tcp_out.c ****   TCP_STATS_INC(tcp.memerr);
 1334              		.loc 1 759 0
ARM GAS  C:\Users\Phuong\AppData\Local\Temp\cc5dKVKJ.s 			page 50


 1335 031e 6A8B     		ldrh	r2, [r5, #26]
 1336 0320 8023     		movs	r3, #128
 1337 0322 1343     		orrs	r3, r2
 1338 0324 6B83     		strh	r3, [r5, #26]
 760:Source\LwIP\src\core/tcp_out.c **** 
 1339              		.loc 1 760 0
 1340 0326 1149     		ldr	r1, .L74
 1341 0328 B822     		movs	r2, #184
 1342 032a 8B5A     		ldrh	r3, [r1, r2]
 1343 032c 0133     		adds	r3, r3, #1
 1344 032e 8B52     		strh	r3, [r1, r2]
 762:Source\LwIP\src\core/tcp_out.c ****     pbuf_free(concat_p);
 1345              		.loc 1 762 0
 1346 0330 099B     		ldr	r3, [sp, #36]
 1347 0332 002B     		cmp	r3, #0
 1348 0334 02D0     		beq	.L56
 763:Source\LwIP\src\core/tcp_out.c ****   }
 1349              		.loc 1 763 0
 1350 0336 1800     		movs	r0, r3
 1351 0338 FFF7FEFF 		bl	pbuf_free
 1352              	.LVL179:
 1353              	.L56:
 765:Source\LwIP\src\core/tcp_out.c ****     tcp_segs_free(queue);
 1354              		.loc 1 765 0
 1355 033c 4346     		mov	r3, r8
 1356 033e 002B     		cmp	r3, #0
 1357 0340 02D0     		beq	.L57
 1358              	.LVL180:
 766:Source\LwIP\src\core/tcp_out.c ****   }
 1359              		.loc 1 766 0
 1360 0342 4046     		mov	r0, r8
 1361 0344 FFF7FEFF 		bl	tcp_segs_free
 1362              	.LVL181:
 1363              	.L57:
 773:Source\LwIP\src\core/tcp_out.c **** }
 1364              		.loc 1 773 0
 1365 0348 0120     		movs	r0, #1
 1366 034a 4042     		rsbs	r0, r0, #0
 1367 034c 07E0     		b	.L34
 1368              	.LVL182:
 1369              	.L58:
 401:Source\LwIP\src\core/tcp_out.c ****              arg != NULL, return ERR_ARG;);
 1370              		.loc 1 401 0
 1371 034e 1020     		movs	r0, #16
 1372              	.LVL183:
 1373 0350 4042     		rsbs	r0, r0, #0
 1374 0352 04E0     		b	.L34
 1375              	.LVL184:
 1376              	.L68:
 757:Source\LwIP\src\core/tcp_out.c **** memerr:
 1377              		.loc 1 757 0
 1378 0354 0020     		movs	r0, #0
 1379 0356 02E0     		b	.L34
 1380              	.L69:
 1381 0358 0020     		movs	r0, #0
 1382 035a 00E0     		b	.L34
 1383              	.L70:
ARM GAS  C:\Users\Phuong\AppData\Local\Temp\cc5dKVKJ.s 			page 51


 1384 035c 0020     		movs	r0, #0
 1385              	.LVL185:
 1386              	.L34:
 774:Source\LwIP\src\core/tcp_out.c **** 
 1387              		.loc 1 774 0
 1388 035e 0FB0     		add	sp, sp, #60
 1389              		@ sp needed
 1390 0360 3CBC     		pop	{r2, r3, r4, r5}
 1391 0362 9046     		mov	r8, r2
 1392 0364 9946     		mov	r9, r3
 1393 0366 A246     		mov	r10, r4
 1394 0368 AB46     		mov	fp, r5
 1395 036a F0BD     		pop	{r4, r5, r6, r7, pc}
 1396              	.L75:
 1397              		.align	2
 1398              	.L74:
 1399 036c 00000000 		.word	lwip_stats
 1400              		.cfi_endproc
 1401              	.LFE58:
 1402              		.size	tcp_write, .-tcp_write
 1403              		.section	.text.tcp_enqueue_flags,"ax",%progbits
 1404              		.align	2
 1405              		.global	tcp_enqueue_flags
 1406              		.code	16
 1407              		.thumb_func
 1408              		.type	tcp_enqueue_flags, %function
 1409              	tcp_enqueue_flags:
 1410              	.LFB59:
 786:Source\LwIP\src\core/tcp_out.c ****   struct pbuf *p;
 1411              		.loc 1 786 0
 1412              		.cfi_startproc
 1413              		@ args = 0, pretend = 0, frame = 0
 1414              		@ frame_needed = 0, uses_anonymous_args = 0
 1415              	.LVL186:
 1416 0000 F0B5     		push	{r4, r5, r6, r7, lr}
 1417              		.cfi_def_cfa_offset 20
 1418              		.cfi_offset 4, -20
 1419              		.cfi_offset 5, -16
 1420              		.cfi_offset 6, -12
 1421              		.cfi_offset 7, -8
 1422              		.cfi_offset 14, -4
 1423 0002 83B0     		sub	sp, sp, #12
 1424              		.cfi_def_cfa_offset 32
 1425 0004 0400     		movs	r4, r0
 1426 0006 0D00     		movs	r5, r1
 1427              	.LVL187:
 1428 0008 0326     		movs	r6, #3
 1429 000a 0E40     		ands	r6, r1
 798:Source\LwIP\src\core/tcp_out.c ****       ((flags & TCP_FIN) == 0)) {
 1430              		.loc 1 798 0
 1431 000c 6223     		movs	r3, #98
 1432 000e C35A     		ldrh	r3, [r0, r3]
 1433 0010 172B     		cmp	r3, #23
 1434 0012 0DD9     		bls	.L77
 798:Source\LwIP\src\core/tcp_out.c ****       ((flags & TCP_FIN) == 0)) {
 1435              		.loc 1 798 0 is_stmt 0 discriminator 1
 1436 0014 CB07     		lsls	r3, r1, #31
ARM GAS  C:\Users\Phuong\AppData\Local\Temp\cc5dKVKJ.s 			page 52


 1437 0016 0BD4     		bmi	.L77
 802:Source\LwIP\src\core/tcp_out.c ****     pcb->flags |= TF_NAGLEMEMERR;
 1438              		.loc 1 802 0 is_stmt 1
 1439 0018 2E49     		ldr	r1, .L90
 1440              	.LVL188:
 1441 001a B822     		movs	r2, #184
 1442 001c 8B5A     		ldrh	r3, [r1, r2]
 1443 001e 0133     		adds	r3, r3, #1
 1444 0020 8B52     		strh	r3, [r1, r2]
 803:Source\LwIP\src\core/tcp_out.c ****     return ERR_MEM;
 1445              		.loc 1 803 0
 1446 0022 428B     		ldrh	r2, [r0, #26]
 1447 0024 8023     		movs	r3, #128
 1448 0026 1343     		orrs	r3, r2
 1449 0028 4383     		strh	r3, [r0, #26]
 804:Source\LwIP\src\core/tcp_out.c ****   }
 1450              		.loc 1 804 0
 1451 002a 0120     		movs	r0, #1
 1452              	.LVL189:
 1453 002c 4042     		rsbs	r0, r0, #0
 1454 002e 4FE0     		b	.L78
 1455              	.LVL190:
 1456              	.L77:
 807:Source\LwIP\src\core/tcp_out.c ****     optflags = TF_SEG_OPTS_MSS;
 1457              		.loc 1 807 0
 1458 0030 AB07     		lsls	r3, r5, #30
 1459 0032 01D4     		bmi	.L87
 789:Source\LwIP\src\core/tcp_out.c ****   u8_t optlen = 0;
 1460              		.loc 1 789 0
 1461 0034 0027     		movs	r7, #0
 1462 0036 00E0     		b	.L79
 1463              	.L87:
 808:Source\LwIP\src\core/tcp_out.c **** #if LWIP_WND_SCALE
 1464              		.loc 1 808 0
 1465 0038 0127     		movs	r7, #1
 1466              	.L79:
 1467              	.LVL191:
 824:Source\LwIP\src\core/tcp_out.c **** 
 1468              		.loc 1 824 0
 1469 003a 002F     		cmp	r7, #0
 1470 003c 01D0     		beq	.L88
 1471 003e 0421     		movs	r1, #4
 1472              	.LVL192:
 1473 0040 00E0     		b	.L80
 1474              	.LVL193:
 1475              	.L88:
 1476 0042 0021     		movs	r1, #0
 1477              	.LVL194:
 1478              	.L80:
 827:Source\LwIP\src\core/tcp_out.c ****     pcb->flags |= TF_NAGLEMEMERR;
 1479              		.loc 1 827 0 discriminator 4
 1480 0044 89B2     		uxth	r1, r1
 1481              	.LVL195:
 1482 0046 0022     		movs	r2, #0
 1483 0048 0020     		movs	r0, #0
 1484              	.LVL196:
 1485 004a FFF7FEFF 		bl	pbuf_alloc
ARM GAS  C:\Users\Phuong\AppData\Local\Temp\cc5dKVKJ.s 			page 53


 1486              	.LVL197:
 1487 004e 0028     		cmp	r0, #0
 1488 0050 0AD1     		bne	.L81
 828:Source\LwIP\src\core/tcp_out.c ****     TCP_STATS_INC(tcp.memerr);
 1489              		.loc 1 828 0
 1490 0052 628B     		ldrh	r2, [r4, #26]
 1491 0054 8023     		movs	r3, #128
 1492 0056 1343     		orrs	r3, r2
 1493 0058 6383     		strh	r3, [r4, #26]
 829:Source\LwIP\src\core/tcp_out.c ****     return ERR_MEM;
 1494              		.loc 1 829 0
 1495 005a 1E49     		ldr	r1, .L90
 1496 005c B822     		movs	r2, #184
 1497 005e 8B5A     		ldrh	r3, [r1, r2]
 1498 0060 0133     		adds	r3, r3, #1
 1499 0062 8B52     		strh	r3, [r1, r2]
 830:Source\LwIP\src\core/tcp_out.c ****   }
 1500              		.loc 1 830 0
 1501 0064 0138     		subs	r0, r0, #1
 1502              	.LVL198:
 1503 0066 33E0     		b	.L78
 1504              	.LVL199:
 1505              	.L81:
 836:Source\LwIP\src\core/tcp_out.c ****     pcb->flags |= TF_NAGLEMEMERR;
 1506              		.loc 1 836 0
 1507 0068 0097     		str	r7, [sp]
 1508 006a A36D     		ldr	r3, [r4, #88]
 1509 006c 2A00     		movs	r2, r5
 1510 006e 0100     		movs	r1, r0
 1511 0070 2000     		movs	r0, r4
 1512              	.LVL200:
 1513 0072 FFF7FEFF 		bl	tcp_create_segment
 1514              	.LVL201:
 1515 0076 0028     		cmp	r0, #0
 1516 0078 0AD1     		bne	.L82
 837:Source\LwIP\src\core/tcp_out.c ****     TCP_STATS_INC(tcp.memerr);
 1517              		.loc 1 837 0
 1518 007a 628B     		ldrh	r2, [r4, #26]
 1519 007c 8023     		movs	r3, #128
 1520 007e 1343     		orrs	r3, r2
 1521 0080 6383     		strh	r3, [r4, #26]
 838:Source\LwIP\src\core/tcp_out.c ****     return ERR_MEM;
 1522              		.loc 1 838 0
 1523 0082 1449     		ldr	r1, .L90
 1524 0084 B822     		movs	r2, #184
 1525 0086 8B5A     		ldrh	r3, [r1, r2]
 1526 0088 0133     		adds	r3, r3, #1
 1527 008a 8B52     		strh	r3, [r1, r2]
 839:Source\LwIP\src\core/tcp_out.c ****   }
 1528              		.loc 1 839 0
 1529 008c 0138     		subs	r0, r0, #1
 1530              	.LVL202:
 1531 008e 1FE0     		b	.L78
 1532              	.LVL203:
 1533              	.L82:
 851:Source\LwIP\src\core/tcp_out.c ****     pcb->unsent = seg;
 1534              		.loc 1 851 0
ARM GAS  C:\Users\Phuong\AppData\Local\Temp\cc5dKVKJ.s 			page 54


 1535 0090 A26E     		ldr	r2, [r4, #104]
 1536 0092 002A     		cmp	r2, #0
 1537 0094 02D1     		bne	.L83
 852:Source\LwIP\src\core/tcp_out.c ****   } else {
 1538              		.loc 1 852 0
 1539 0096 A066     		str	r0, [r4, #104]
 1540 0098 04E0     		b	.L84
 1541              	.LVL204:
 1542              	.L89:
 1543              	.LBB11:
 855:Source\LwIP\src\core/tcp_out.c ****     useg->next = seg;
 1544              		.loc 1 855 0
 1545 009a 1A00     		movs	r2, r3
 1546              	.LVL205:
 1547              	.L83:
 855:Source\LwIP\src\core/tcp_out.c ****     useg->next = seg;
 1548              		.loc 1 855 0 is_stmt 0 discriminator 1
 1549 009c 1368     		ldr	r3, [r2]
 1550 009e 002B     		cmp	r3, #0
 1551 00a0 FBD1     		bne	.L89
 856:Source\LwIP\src\core/tcp_out.c ****   }
 1552              		.loc 1 856 0 is_stmt 1
 1553 00a2 1060     		str	r0, [r2]
 1554              	.LVL206:
 1555              	.L84:
 1556              	.LBE11:
 860:Source\LwIP\src\core/tcp_out.c **** #endif /* TCP_OVERSIZE */
 1557              		.loc 1 860 0
 1558 00a4 0022     		movs	r2, #0
 1559 00a6 6423     		movs	r3, #100
 1560 00a8 E252     		strh	r2, [r4, r3]
 864:Source\LwIP\src\core/tcp_out.c ****     pcb->snd_lbb++;
 1561              		.loc 1 864 0
 1562 00aa 002E     		cmp	r6, #0
 1563 00ac 02D0     		beq	.L85
 865:Source\LwIP\src\core/tcp_out.c ****     /* optlen does not influence snd_buf */
 1564              		.loc 1 865 0
 1565 00ae A36D     		ldr	r3, [r4, #88]
 1566 00b0 0133     		adds	r3, r3, #1
 1567 00b2 A365     		str	r3, [r4, #88]
 1568              	.L85:
 868:Source\LwIP\src\core/tcp_out.c ****     pcb->flags |= TF_FIN;
 1569              		.loc 1 868 0
 1570 00b4 EB07     		lsls	r3, r5, #31
 1571 00b6 03D5     		bpl	.L86
 869:Source\LwIP\src\core/tcp_out.c ****   }
 1572              		.loc 1 869 0
 1573 00b8 628B     		ldrh	r2, [r4, #26]
 1574 00ba 2023     		movs	r3, #32
 1575 00bc 1343     		orrs	r3, r2
 1576 00be 6383     		strh	r3, [r4, #26]
 1577              	.L86:
 873:Source\LwIP\src\core/tcp_out.c ****   LWIP_DEBUGF(TCP_QLEN_DEBUG, ("tcp_enqueue_flags: %"S16_F" (after enqueued)\n", pcb->snd_queuelen)
 1578              		.loc 1 873 0
 1579 00c0 4068     		ldr	r0, [r0, #4]
 1580              	.LVL207:
 1581 00c2 FFF7FEFF 		bl	pbuf_clen
ARM GAS  C:\Users\Phuong\AppData\Local\Temp\cc5dKVKJ.s 			page 55


 1582              	.LVL208:
 1583 00c6 6222     		movs	r2, #98
 1584 00c8 A35A     		ldrh	r3, [r4, r2]
 1585 00ca C018     		adds	r0, r0, r3
 1586 00cc A052     		strh	r0, [r4, r2]
 880:Source\LwIP\src\core/tcp_out.c **** }
 1587              		.loc 1 880 0
 1588 00ce 0020     		movs	r0, #0
 1589              	.LVL209:
 1590              	.L78:
 881:Source\LwIP\src\core/tcp_out.c **** 
 1591              		.loc 1 881 0
 1592 00d0 03B0     		add	sp, sp, #12
 1593              		@ sp needed
 1594              	.LVL210:
 1595 00d2 F0BD     		pop	{r4, r5, r6, r7, pc}
 1596              	.L91:
 1597              		.align	2
 1598              	.L90:
 1599 00d4 00000000 		.word	lwip_stats
 1600              		.cfi_endproc
 1601              	.LFE59:
 1602              		.size	tcp_enqueue_flags, .-tcp_enqueue_flags
 1603              		.section	.text.tcp_send_fin,"ax",%progbits
 1604              		.align	2
 1605              		.global	tcp_send_fin
 1606              		.code	16
 1607              		.thumb_func
 1608              		.type	tcp_send_fin, %function
 1609              	tcp_send_fin:
 1610              	.LFB54:
 140:Source\LwIP\src\core/tcp_out.c ****   /* first, try to add the fin to the last unsent segment */
 1611              		.loc 1 140 0
 1612              		.cfi_startproc
 1613              		@ args = 0, pretend = 0, frame = 0
 1614              		@ frame_needed = 0, uses_anonymous_args = 0
 1615              	.LVL211:
 1616 0000 70B5     		push	{r4, r5, r6, lr}
 1617              		.cfi_def_cfa_offset 16
 1618              		.cfi_offset 4, -16
 1619              		.cfi_offset 5, -12
 1620              		.cfi_offset 6, -8
 1621              		.cfi_offset 14, -4
 1622 0002 0500     		movs	r5, r0
 142:Source\LwIP\src\core/tcp_out.c ****     struct tcp_seg *last_unsent;
 1623              		.loc 1 142 0
 1624 0004 846E     		ldr	r4, [r0, #104]
 1625 0006 002C     		cmp	r4, #0
 1626 0008 01D1     		bne	.L94
 1627              	.LBB12:
 1628 000a 20E0     		b	.L93
 1629              	.LVL212:
 1630              	.L96:
 145:Source\LwIP\src\core/tcp_out.c **** 
 1631              		.loc 1 145 0
 1632 000c 1C00     		movs	r4, r3
 1633              	.LVL213:
ARM GAS  C:\Users\Phuong\AppData\Local\Temp\cc5dKVKJ.s 			page 56


 1634              	.L94:
 144:Source\LwIP\src\core/tcp_out.c ****          last_unsent = last_unsent->next);
 1635              		.loc 1 144 0 discriminator 1
 1636 000e 2368     		ldr	r3, [r4]
 1637 0010 002B     		cmp	r3, #0
 1638 0012 FBD1     		bne	.L96
 147:Source\LwIP\src\core/tcp_out.c ****       /* no SYN/FIN/RST flag in the header, we can add the FIN flag */
 1639              		.loc 1 147 0
 1640 0014 2269     		ldr	r2, [r4, #16]
 1641 0016 137B     		ldrb	r3, [r2, #12]
 1642 0018 507B     		ldrb	r0, [r2, #13]
 1643              	.LVL214:
 1644 001a 0002     		lsls	r0, r0, #8
 1645 001c 1843     		orrs	r0, r3
 1646 001e FFF7FEFF 		bl	lwip_htons
 1647              	.LVL215:
 1648 0022 4307     		lsls	r3, r0, #29
 1649 0024 13D1     		bne	.L93
 149:Source\LwIP\src\core/tcp_out.c ****       pcb->flags |= TF_FIN;
 1650              		.loc 1 149 0
 1651 0026 2469     		ldr	r4, [r4, #16]
 1652              	.LVL216:
 1653 0028 227B     		ldrb	r2, [r4, #12]
 1654 002a 607B     		ldrb	r0, [r4, #13]
 1655 002c 0002     		lsls	r0, r0, #8
 1656 002e 1043     		orrs	r0, r2
 1657 0030 0600     		movs	r6, r0
 1658 0032 0120     		movs	r0, #1
 1659 0034 FFF7FEFF 		bl	lwip_htons
 1660              	.LVL217:
 1661 0038 3043     		orrs	r0, r6
 1662 003a 83B2     		uxth	r3, r0
 1663 003c 2373     		strb	r3, [r4, #12]
 1664 003e 1B0A     		lsrs	r3, r3, #8
 1665 0040 6373     		strb	r3, [r4, #13]
 150:Source\LwIP\src\core/tcp_out.c ****       return ERR_OK;
 1666              		.loc 1 150 0
 1667 0042 6A8B     		ldrh	r2, [r5, #26]
 1668 0044 2023     		movs	r3, #32
 1669 0046 1343     		orrs	r3, r2
 1670 0048 6B83     		strh	r3, [r5, #26]
 151:Source\LwIP\src\core/tcp_out.c ****     }
 1671              		.loc 1 151 0
 1672 004a 0020     		movs	r0, #0
 1673 004c 03E0     		b	.L95
 1674              	.L93:
 1675              	.LBE12:
 155:Source\LwIP\src\core/tcp_out.c **** }
 1676              		.loc 1 155 0
 1677 004e 0121     		movs	r1, #1
 1678 0050 2800     		movs	r0, r5
 1679 0052 FFF7FEFF 		bl	tcp_enqueue_flags
 1680              	.LVL218:
 1681              	.L95:
 156:Source\LwIP\src\core/tcp_out.c **** 
 1682              		.loc 1 156 0
 1683              		@ sp needed
ARM GAS  C:\Users\Phuong\AppData\Local\Temp\cc5dKVKJ.s 			page 57


 1684              	.LVL219:
 1685 0056 70BD     		pop	{r4, r5, r6, pc}
 1686              		.cfi_endproc
 1687              	.LFE54:
 1688              		.size	tcp_send_fin, .-tcp_send_fin
 1689              		.section	.text.tcp_send_empty_ack,"ax",%progbits
 1690              		.align	2
 1691              		.global	tcp_send_empty_ack
 1692              		.code	16
 1693              		.thumb_func
 1694              		.type	tcp_send_empty_ack, %function
 1695              	tcp_send_empty_ack:
 1696              	.LFB60:
 919:Source\LwIP\src\core/tcp_out.c ****   err_t err;
 1697              		.loc 1 919 0
 1698              		.cfi_startproc
 1699              		@ args = 0, pretend = 0, frame = 0
 1700              		@ frame_needed = 0, uses_anonymous_args = 0
 1701              	.LVL220:
 1702 0000 F0B5     		push	{r4, r5, r6, r7, lr}
 1703              		.cfi_def_cfa_offset 20
 1704              		.cfi_offset 4, -20
 1705              		.cfi_offset 5, -16
 1706              		.cfi_offset 6, -12
 1707              		.cfi_offset 7, -8
 1708              		.cfi_offset 14, -4
 1709 0002 4746     		mov	r7, r8
 1710 0004 80B4     		push	{r7}
 1711              		.cfi_def_cfa_offset 24
 1712              		.cfi_offset 8, -24
 1713 0006 84B0     		sub	sp, sp, #16
 1714              		.cfi_def_cfa_offset 40
 1715 0008 0400     		movs	r4, r0
 1716              	.LVL221:
 934:Source\LwIP\src\core/tcp_out.c ****   if (p == NULL) {
 1717              		.loc 1 934 0
 1718 000a C06C     		ldr	r0, [r0, #76]
 1719              	.LVL222:
 1720 000c FFF7FEFF 		bl	lwip_htonl
 1721              	.LVL223:
 1722 0010 0300     		movs	r3, r0
 1723 0012 0022     		movs	r2, #0
 1724 0014 0021     		movs	r1, #0
 1725 0016 2000     		movs	r0, r4
 1726 0018 FFF7FEFF 		bl	tcp_output_alloc_header
 1727              	.LVL224:
 1728 001c 061E     		subs	r6, r0, #0
 1729              	.LVL225:
 935:Source\LwIP\src\core/tcp_out.c ****     /* let tcp_fasttmr retry sending this ACK */
 1730              		.loc 1 935 0
 1731 001e 06D1     		bne	.L98
 937:Source\LwIP\src\core/tcp_out.c ****     LWIP_DEBUGF(TCP_OUTPUT_DEBUG, ("tcp_output: (ACK) could not allocate pbuf\n"));
 1732              		.loc 1 937 0
 1733 0020 628B     		ldrh	r2, [r4, #26]
 1734 0022 0323     		movs	r3, #3
 1735 0024 1343     		orrs	r3, r2
 1736 0026 6383     		strh	r3, [r4, #26]
ARM GAS  C:\Users\Phuong\AppData\Local\Temp\cc5dKVKJ.s 			page 58


 939:Source\LwIP\src\core/tcp_out.c ****   }
 1737              		.loc 1 939 0
 1738 0028 0220     		movs	r0, #2
 1739              	.LVL226:
 1740 002a 4042     		rsbs	r0, r0, #0
 1741 002c 31E0     		b	.L99
 1742              	.LVL227:
 1743              	.L98:
 942:Source\LwIP\src\core/tcp_out.c **** #endif /* LWIP_TCP_TIMESTAMPS || CHECKSUM_GEN_TCP */
 1744              		.loc 1 942 0
 1745 002e 4368     		ldr	r3, [r0, #4]
 1746 0030 9846     		mov	r8, r3
 1747              	.LVL228:
 956:Source\LwIP\src\core/tcp_out.c ****   if (netif == NULL) {
 1748              		.loc 1 956 0
 1749 0032 251D     		adds	r5, r4, #4
 1750 0034 2800     		movs	r0, r5
 1751              	.LVL229:
 1752 0036 FFF7FEFF 		bl	ip4_route
 1753              	.LVL230:
 1754 003a 071E     		subs	r7, r0, #0
 1755              	.LVL231:
 957:Source\LwIP\src\core/tcp_out.c ****     err = ERR_RTE;
 1756              		.loc 1 957 0
 1757 003c 17D0     		beq	.L102
 962:Source\LwIP\src\core/tcp_out.c ****         &pcb->local_ip, &pcb->remote_ip);
 1758              		.loc 1 962 0
 1759 003e 3289     		ldrh	r2, [r6, #8]
 1760 0040 0095     		str	r5, [sp]
 1761 0042 2300     		movs	r3, r4
 1762 0044 0621     		movs	r1, #6
 1763 0046 3000     		movs	r0, r6
 1764              	.LVL232:
 1765 0048 FFF7FEFF 		bl	ip_chksum_pseudo
 1766              	.LVL233:
 1767 004c 4346     		mov	r3, r8
 1768 004e 1874     		strb	r0, [r3, #16]
 1769 0050 000A     		lsrs	r0, r0, #8
 1770 0052 5874     		strb	r0, [r3, #17]
 967:Source\LwIP\src\core/tcp_out.c ****       pcb->ttl, pcb->tos, IP_PROTO_TCP, netif);
 1771              		.loc 1 967 0
 1772 0054 A37A     		ldrb	r3, [r4, #10]
 1773 0056 627A     		ldrb	r2, [r4, #9]
 1774 0058 0297     		str	r7, [sp, #8]
 1775 005a 0621     		movs	r1, #6
 1776 005c 0191     		str	r1, [sp, #4]
 1777 005e 0092     		str	r2, [sp]
 1778 0060 2A00     		movs	r2, r5
 1779 0062 2100     		movs	r1, r4
 1780 0064 3000     		movs	r0, r6
 1781 0066 FFF7FEFF 		bl	ip4_output_if
 1782              	.LVL234:
 1783 006a 0500     		movs	r5, r0
 1784              	.LVL235:
 1785 006c 01E0     		b	.L100
 1786              	.LVL236:
 1787              	.L102:
ARM GAS  C:\Users\Phuong\AppData\Local\Temp\cc5dKVKJ.s 			page 59


 958:Source\LwIP\src\core/tcp_out.c ****   } else {
 1788              		.loc 1 958 0
 1789 006e 0425     		movs	r5, #4
 1790 0070 6D42     		rsbs	r5, r5, #0
 1791              	.LVL237:
 1792              	.L100:
 971:Source\LwIP\src\core/tcp_out.c **** 
 1793              		.loc 1 971 0
 1794 0072 3000     		movs	r0, r6
 1795 0074 FFF7FEFF 		bl	pbuf_free
 1796              	.LVL238:
 973:Source\LwIP\src\core/tcp_out.c ****     /* let tcp_fasttmr retry sending this ACK */
 1797              		.loc 1 973 0
 1798 0078 002D     		cmp	r5, #0
 1799 007a 05D0     		beq	.L101
 975:Source\LwIP\src\core/tcp_out.c ****   } else {
 1800              		.loc 1 975 0
 1801 007c 628B     		ldrh	r2, [r4, #26]
 1802 007e 0323     		movs	r3, #3
 1803 0080 1343     		orrs	r3, r2
 1804 0082 6383     		strh	r3, [r4, #26]
 981:Source\LwIP\src\core/tcp_out.c **** }
 1805              		.loc 1 981 0
 1806 0084 2800     		movs	r0, r5
 1807 0086 04E0     		b	.L99
 1808              	.L101:
 978:Source\LwIP\src\core/tcp_out.c ****   }
 1809              		.loc 1 978 0
 1810 0088 638B     		ldrh	r3, [r4, #26]
 1811 008a 0322     		movs	r2, #3
 1812 008c 9343     		bics	r3, r2
 1813 008e 6383     		strh	r3, [r4, #26]
 981:Source\LwIP\src\core/tcp_out.c **** }
 1814              		.loc 1 981 0
 1815 0090 2800     		movs	r0, r5
 1816              	.LVL239:
 1817              	.L99:
 982:Source\LwIP\src\core/tcp_out.c **** 
 1818              		.loc 1 982 0
 1819 0092 04B0     		add	sp, sp, #16
 1820              		@ sp needed
 1821              	.LVL240:
 1822              	.LVL241:
 1823 0094 04BC     		pop	{r2}
 1824 0096 9046     		mov	r8, r2
 1825 0098 F0BD     		pop	{r4, r5, r6, r7, pc}
 1826              		.cfi_endproc
 1827              	.LFE60:
 1828              		.size	tcp_send_empty_ack, .-tcp_send_empty_ack
 1829 009a C046     		.section	.text.tcp_output,"ax",%progbits
 1830              		.align	2
 1831              		.global	tcp_output
 1832              		.code	16
 1833              		.thumb_func
 1834              		.type	tcp_output, %function
 1835              	tcp_output:
 1836              	.LFB61:
ARM GAS  C:\Users\Phuong\AppData\Local\Temp\cc5dKVKJ.s 			page 60


 994:Source\LwIP\src\core/tcp_out.c ****   struct tcp_seg *seg, *useg;
 1837              		.loc 1 994 0
 1838              		.cfi_startproc
 1839              		@ args = 0, pretend = 0, frame = 8
 1840              		@ frame_needed = 0, uses_anonymous_args = 0
 1841              	.LVL242:
 1842 0000 F0B5     		push	{r4, r5, r6, r7, lr}
 1843              		.cfi_def_cfa_offset 20
 1844              		.cfi_offset 4, -20
 1845              		.cfi_offset 5, -16
 1846              		.cfi_offset 6, -12
 1847              		.cfi_offset 7, -8
 1848              		.cfi_offset 14, -4
 1849 0002 5746     		mov	r7, r10
 1850 0004 4646     		mov	r6, r8
 1851 0006 C0B4     		push	{r6, r7}
 1852              		.cfi_def_cfa_offset 28
 1853              		.cfi_offset 8, -28
 1854              		.cfi_offset 10, -24
 1855 0008 83B0     		sub	sp, sp, #12
 1856              		.cfi_def_cfa_offset 40
 1857 000a 0500     		movs	r5, r0
1011:Source\LwIP\src\core/tcp_out.c ****     return ERR_OK;
 1858              		.loc 1 1011 0
 1859 000c B54B     		ldr	r3, .L148
 1860 000e 1B68     		ldr	r3, [r3]
 1861 0010 9842     		cmp	r0, r3
 1862 0012 00D1     		bne	.LCB2062
 1863 0014 90E1     		b	.L135	@long jump
 1864              	.LCB2062:
1015:Source\LwIP\src\core/tcp_out.c **** 
 1865              		.loc 1 1015 0
 1866 0016 4823     		movs	r3, #72
 1867 0018 C35A     		ldrh	r3, [r0, r3]
 1868 001a 5C22     		movs	r2, #92
 1869 001c 815A     		ldrh	r1, [r0, r2]
 1870 001e 1A1C     		adds	r2, r3, #0
 1871 0020 8B42     		cmp	r3, r1
 1872 0022 00D9     		bls	.L105
 1873 0024 0A1C     		adds	r2, r1, #0
 1874              	.L105:
 1875 0026 93B2     		uxth	r3, r2
 1876 0028 9A46     		mov	r10, r3
 1877              	.LVL243:
1017:Source\LwIP\src\core/tcp_out.c **** 
 1878              		.loc 1 1017 0
 1879 002a AC6E     		ldr	r4, [r5, #104]
 1880              	.LVL244:
1025:Source\LwIP\src\core/tcp_out.c ****      (seg == NULL ||
 1881              		.loc 1 1025 0
 1882 002c 6B8B     		ldrh	r3, [r5, #26]
 1883              	.LVL245:
 1884 002e 9B07     		lsls	r3, r3, #30
 1885 0030 1AD5     		bpl	.L106
1025:Source\LwIP\src\core/tcp_out.c ****      (seg == NULL ||
 1886              		.loc 1 1025 0 is_stmt 0 discriminator 1
 1887 0032 002C     		cmp	r4, #0
ARM GAS  C:\Users\Phuong\AppData\Local\Temp\cc5dKVKJ.s 			page 61


 1888 0034 14D0     		beq	.L107
1027:Source\LwIP\src\core/tcp_out.c ****      return tcp_send_empty_ack(pcb);
 1889              		.loc 1 1027 0 is_stmt 1
 1890 0036 2669     		ldr	r6, [r4, #16]
 1891 0038 3179     		ldrb	r1, [r6, #4]
 1892 003a 7379     		ldrb	r3, [r6, #5]
 1893 003c 1B02     		lsls	r3, r3, #8
 1894 003e 0B43     		orrs	r3, r1
 1895 0040 1A00     		movs	r2, r3
 1896 0042 B079     		ldrb	r0, [r6, #6]
 1897              	.LVL246:
 1898 0044 0004     		lsls	r0, r0, #16
 1899 0046 0300     		movs	r3, r0
 1900 0048 1343     		orrs	r3, r2
 1901 004a F079     		ldrb	r0, [r6, #7]
 1902 004c 0006     		lsls	r0, r0, #24
 1903 004e 1843     		orrs	r0, r3
 1904 0050 FFF7FEFF 		bl	lwip_htonl
 1905              	.LVL247:
 1906 0054 6B6C     		ldr	r3, [r5, #68]
 1907 0056 C01A     		subs	r0, r0, r3
 1908 0058 2389     		ldrh	r3, [r4, #8]
 1909 005a 1818     		adds	r0, r3, r0
1026:Source\LwIP\src\core/tcp_out.c ****       lwip_ntohl(seg->tcphdr->seqno) - pcb->lastack + seg->len > wnd)) {
 1910              		.loc 1 1026 0
 1911 005c 8245     		cmp	r10, r0
 1912 005e 03D2     		bcs	.L106
 1913              	.L107:
1028:Source\LwIP\src\core/tcp_out.c ****   }
 1914              		.loc 1 1028 0
 1915 0060 2800     		movs	r0, r5
 1916 0062 FFF7FEFF 		bl	tcp_send_empty_ack
 1917              	.LVL248:
 1918 0066 6EE1     		b	.L104
 1919              	.L106:
1032:Source\LwIP\src\core/tcp_out.c ****   if (useg != NULL) {
 1920              		.loc 1 1032 0
 1921 0068 EE6E     		ldr	r6, [r5, #108]
 1922              	.LVL249:
1033:Source\LwIP\src\core/tcp_out.c ****     for (; useg->next != NULL; useg = useg->next);
 1923              		.loc 1 1033 0
 1924 006a 002E     		cmp	r6, #0
 1925 006c 01D1     		bne	.L109
 1926 006e 03E0     		b	.L108
 1927              	.L136:
1034:Source\LwIP\src\core/tcp_out.c ****   }
 1928              		.loc 1 1034 0
 1929 0070 1E00     		movs	r6, r3
 1930              	.LVL250:
 1931              	.L109:
1034:Source\LwIP\src\core/tcp_out.c ****   }
 1932              		.loc 1 1034 0 is_stmt 0 discriminator 1
 1933 0072 3368     		ldr	r3, [r6]
 1934 0074 002B     		cmp	r3, #0
 1935 0076 FBD1     		bne	.L136
 1936              	.L108:
1037:Source\LwIP\src\core/tcp_out.c ****   if (netif == NULL) {
ARM GAS  C:\Users\Phuong\AppData\Local\Temp\cc5dKVKJ.s 			page 62


 1937              		.loc 1 1037 0 is_stmt 1
 1938 0078 281D     		adds	r0, r5, #4
 1939 007a FFF7FEFF 		bl	ip4_route
 1940              	.LVL251:
 1941 007e 0190     		str	r0, [sp, #4]
 1942              	.LVL252:
1038:Source\LwIP\src\core/tcp_out.c ****     return ERR_RTE;
 1943              		.loc 1 1038 0
 1944 0080 0028     		cmp	r0, #0
 1945 0082 00D1     		bne	.LCB2148
 1946 0084 5AE1     		b	.L137	@long jump
 1947              	.LCB2148:
1043:Source\LwIP\src\core/tcp_out.c ****     const ip_addr_t *local_ip = ip_netif_get_local_ip(netif, &pcb->remote_ip);
 1948              		.loc 1 1043 0
 1949 0086 002D     		cmp	r5, #0
 1950 0088 02D0     		beq	.L110
1043:Source\LwIP\src\core/tcp_out.c ****     const ip_addr_t *local_ip = ip_netif_get_local_ip(netif, &pcb->remote_ip);
 1951              		.loc 1 1043 0 is_stmt 0 discriminator 1
 1952 008a 2B68     		ldr	r3, [r5]
 1953 008c 002B     		cmp	r3, #0
 1954 008e 0AD1     		bne	.L111
 1955              	.L110:
 1956              	.LBB13:
1044:Source\LwIP\src\core/tcp_out.c ****     if (local_ip == NULL) {
 1957              		.loc 1 1044 0 is_stmt 1
 1958 0090 019B     		ldr	r3, [sp, #4]
 1959 0092 002B     		cmp	r3, #0
 1960 0094 01D0     		beq	.L138
1044:Source\LwIP\src\core/tcp_out.c ****     if (local_ip == NULL) {
 1961              		.loc 1 1044 0 is_stmt 0 discriminator 1
 1962 0096 0433     		adds	r3, r3, #4
 1963 0098 00E0     		b	.L112
 1964              	.L138:
1044:Source\LwIP\src\core/tcp_out.c ****     if (local_ip == NULL) {
 1965              		.loc 1 1044 0
 1966 009a 0023     		movs	r3, #0
 1967              	.L112:
 1968              	.LVL253:
1045:Source\LwIP\src\core/tcp_out.c ****       return ERR_RTE;
 1969              		.loc 1 1045 0 is_stmt 1 discriminator 4
 1970 009c 002B     		cmp	r3, #0
 1971 009e 00D1     		bne	.LCB2171
 1972 00a0 4FE1     		b	.L139	@long jump
 1973              	.LCB2171:
1048:Source\LwIP\src\core/tcp_out.c ****   }
 1974              		.loc 1 1048 0
 1975 00a2 1B68     		ldr	r3, [r3]
 1976              	.LVL254:
 1977 00a4 2B60     		str	r3, [r5]
 1978              	.L111:
 1979              	.LBE13:
1080:Source\LwIP\src\core/tcp_out.c ****       lwip_ntohl(seg->tcphdr->seqno) - pcb->lastack + seg->len > wnd &&
 1980              		.loc 1 1080 0
 1981 00a6 002C     		cmp	r4, #0
 1982 00a8 00D1     		bne	.LCB2182
 1983 00aa 21E1     		b	.L115	@long jump
 1984              	.LCB2182:
ARM GAS  C:\Users\Phuong\AppData\Local\Temp\cc5dKVKJ.s 			page 63


1081:Source\LwIP\src\core/tcp_out.c ****       wnd > 0 && wnd == pcb->snd_wnd && pcb->unacked == NULL) {
 1985              		.loc 1 1081 0 discriminator 1
 1986 00ac 2769     		ldr	r7, [r4, #16]
 1987 00ae 3979     		ldrb	r1, [r7, #4]
 1988 00b0 7B79     		ldrb	r3, [r7, #5]
 1989 00b2 1B02     		lsls	r3, r3, #8
 1990 00b4 0B43     		orrs	r3, r1
 1991 00b6 1A00     		movs	r2, r3
 1992 00b8 B879     		ldrb	r0, [r7, #6]
 1993              	.LVL255:
 1994 00ba 0004     		lsls	r0, r0, #16
 1995 00bc 0300     		movs	r3, r0
 1996 00be 1343     		orrs	r3, r2
 1997 00c0 F879     		ldrb	r0, [r7, #7]
 1998 00c2 0006     		lsls	r0, r0, #24
 1999 00c4 1843     		orrs	r0, r3
 2000 00c6 FFF7FEFF 		bl	lwip_htonl
 2001              	.LVL256:
 2002 00ca 6B6C     		ldr	r3, [r5, #68]
 2003 00cc C01A     		subs	r0, r0, r3
 2004 00ce 2389     		ldrh	r3, [r4, #8]
 2005 00d0 1818     		adds	r0, r3, r0
1080:Source\LwIP\src\core/tcp_out.c ****       lwip_ntohl(seg->tcphdr->seqno) - pcb->lastack + seg->len > wnd &&
 2006              		.loc 1 1080 0 discriminator 1
 2007 00d2 8245     		cmp	r10, r0
 2008 00d4 00D3     		bcc	.LCB2205
 2009 00d6 0BE1     		b	.L115	@long jump
 2010              	.LCB2205:
1081:Source\LwIP\src\core/tcp_out.c ****       wnd > 0 && wnd == pcb->snd_wnd && pcb->unacked == NULL) {
 2011              		.loc 1 1081 0
 2012 00d8 5346     		mov	r3, r10
 2013 00da 002B     		cmp	r3, #0
 2014 00dc 00D1     		bne	.LCB2208
 2015 00de 07E1     		b	.L115	@long jump
 2016              	.LCB2208:
 2017              	.LVL257:
1082:Source\LwIP\src\core/tcp_out.c ****     /* Start the persist timer */
 2018              		.loc 1 1082 0
 2019 00e0 5C23     		movs	r3, #92
 2020              	.LVL258:
 2021 00e2 EB5A     		ldrh	r3, [r5, r3]
 2022 00e4 9A45     		cmp	r10, r3
 2023 00e6 00D0     		beq	.LCB2214
 2024 00e8 02E1     		b	.L115	@long jump
 2025              	.LCB2214:
1082:Source\LwIP\src\core/tcp_out.c ****     /* Start the persist timer */
 2026              		.loc 1 1082 0 is_stmt 0 discriminator 1
 2027 00ea EB6E     		ldr	r3, [r5, #108]
 2028 00ec 002B     		cmp	r3, #0
 2029 00ee 00D0     		beq	.LCB2218
 2030 00f0 FEE0     		b	.L115	@long jump
 2031              	.LCB2218:
1084:Source\LwIP\src\core/tcp_out.c ****       pcb->persist_cnt = 0;
 2032              		.loc 1 1084 0 is_stmt 1
 2033 00f2 9D33     		adds	r3, r3, #157
 2034 00f4 EB5C     		ldrb	r3, [r5, r3]
 2035 00f6 002B     		cmp	r3, #0
ARM GAS  C:\Users\Phuong\AppData\Local\Temp\cc5dKVKJ.s 			page 64


 2036 00f8 00D0     		beq	.LCB2222
 2037 00fa 11E1     		b	.L116	@long jump
 2038              	.LCB2222:
1085:Source\LwIP\src\core/tcp_out.c ****       pcb->persist_backoff = 1;
 2039              		.loc 1 1085 0
 2040 00fc 0022     		movs	r2, #0
 2041 00fe 9C33     		adds	r3, r3, #156
 2042 0100 EA54     		strb	r2, [r5, r3]
1086:Source\LwIP\src\core/tcp_out.c ****     }
 2043              		.loc 1 1086 0
 2044 0102 0132     		adds	r2, r2, #1
 2045 0104 0133     		adds	r3, r3, #1
 2046 0106 EA54     		strb	r2, [r5, r3]
 2047 0108 0AE1     		b	.L116
 2048              	.L133:
1093:Source\LwIP\src\core/tcp_out.c ****                 (TCPH_FLAGS(seg->tcphdr) & TCP_RST) == 0);
 2049              		.loc 1 1093 0
 2050 010a 2269     		ldr	r2, [r4, #16]
 2051 010c 137B     		ldrb	r3, [r2, #12]
 2052 010e 507B     		ldrb	r0, [r2, #13]
 2053 0110 0002     		lsls	r0, r0, #8
 2054 0112 1843     		orrs	r0, r3
 2055 0114 FFF7FEFF 		bl	lwip_htons
 2056              	.LVL259:
1102:Source\LwIP\src\core/tcp_out.c ****       ((pcb->flags & (TF_NAGLEMEMERR | TF_FIN)) == 0)) {
 2057              		.loc 1 1102 0
 2058 0118 EB6E     		ldr	r3, [r5, #108]
 2059 011a 002B     		cmp	r3, #0
 2060 011c 17D0     		beq	.L140
1102:Source\LwIP\src\core/tcp_out.c ****       ((pcb->flags & (TF_NAGLEMEMERR | TF_FIN)) == 0)) {
 2061              		.loc 1 1102 0 is_stmt 0 discriminator 2
 2062 011e 6B8B     		ldrh	r3, [r5, #26]
 2063 0120 4422     		movs	r2, #68
 2064 0122 1A42     		tst	r2, r3
 2065 0124 15D1     		bne	.L141
1102:Source\LwIP\src\core/tcp_out.c ****       ((pcb->flags & (TF_NAGLEMEMERR | TF_FIN)) == 0)) {
 2066              		.loc 1 1102 0 discriminator 4
 2067 0126 AB6E     		ldr	r3, [r5, #104]
 2068 0128 002B     		cmp	r3, #0
 2069 012a 06D0     		beq	.L118
1102:Source\LwIP\src\core/tcp_out.c ****       ((pcb->flags & (TF_NAGLEMEMERR | TF_FIN)) == 0)) {
 2070              		.loc 1 1102 0 discriminator 5
 2071 012c 1A68     		ldr	r2, [r3]
 2072 012e 002A     		cmp	r2, #0
 2073 0130 11D1     		bne	.L142
1102:Source\LwIP\src\core/tcp_out.c ****       ((pcb->flags & (TF_NAGLEMEMERR | TF_FIN)) == 0)) {
 2074              		.loc 1 1102 0 discriminator 8
 2075 0132 1A89     		ldrh	r2, [r3, #8]
 2076 0134 6B8E     		ldrh	r3, [r5, #50]
 2077 0136 9A42     		cmp	r2, r3
 2078 0138 0FD2     		bcs	.L143
 2079              	.L118:
1102:Source\LwIP\src\core/tcp_out.c ****       ((pcb->flags & (TF_NAGLEMEMERR | TF_FIN)) == 0)) {
 2080              		.loc 1 1102 0 discriminator 10
 2081 013a 6023     		movs	r3, #96
 2082 013c EB5A     		ldrh	r3, [r5, r3]
 2083 013e 002B     		cmp	r3, #0
ARM GAS  C:\Users\Phuong\AppData\Local\Temp\cc5dKVKJ.s 			page 65


 2084 0140 0DD0     		beq	.L144
1102:Source\LwIP\src\core/tcp_out.c ****       ((pcb->flags & (TF_NAGLEMEMERR | TF_FIN)) == 0)) {
 2085              		.loc 1 1102 0 discriminator 12
 2086 0142 6223     		movs	r3, #98
 2087 0144 EB5A     		ldrh	r3, [r5, r3]
 2088 0146 172B     		cmp	r3, #23
 2089 0148 0BD9     		bls	.L145
1102:Source\LwIP\src\core/tcp_out.c ****       ((pcb->flags & (TF_NAGLEMEMERR | TF_FIN)) == 0)) {
 2090              		.loc 1 1102 0
 2091 014a 0123     		movs	r3, #1
 2092 014c 0AE0     		b	.L117
 2093              	.L140:
 2094 014e 0123     		movs	r3, #1
 2095 0150 08E0     		b	.L117
 2096              	.L141:
 2097 0152 0123     		movs	r3, #1
 2098 0154 06E0     		b	.L117
 2099              	.L142:
 2100 0156 0123     		movs	r3, #1
 2101 0158 04E0     		b	.L117
 2102              	.L143:
 2103 015a 0123     		movs	r3, #1
 2104 015c 02E0     		b	.L117
 2105              	.L144:
 2106 015e 0123     		movs	r3, #1
 2107 0160 00E0     		b	.L117
 2108              	.L145:
 2109 0162 0023     		movs	r3, #0
 2110              	.L117:
1102:Source\LwIP\src\core/tcp_out.c ****       ((pcb->flags & (TF_NAGLEMEMERR | TF_FIN)) == 0)) {
 2111              		.loc 1 1102 0 discriminator 16
 2112 0164 002B     		cmp	r3, #0
 2113 0166 04D1     		bne	.L119
1103:Source\LwIP\src\core/tcp_out.c ****       break;
 2114              		.loc 1 1103 0 is_stmt 1 discriminator 17
 2115 0168 6B8B     		ldrh	r3, [r5, #26]
1102:Source\LwIP\src\core/tcp_out.c ****       ((pcb->flags & (TF_NAGLEMEMERR | TF_FIN)) == 0)) {
 2116              		.loc 1 1102 0 discriminator 17
 2117 016a A022     		movs	r2, #160
 2118 016c 1A42     		tst	r2, r3
 2119 016e 00D1     		bne	.LCB2322
 2120 0170 D6E0     		b	.L116	@long jump
 2121              	.LCB2322:
 2122              	.L119:
1115:Source\LwIP\src\core/tcp_out.c ****       TCPH_SET_FLAG(seg->tcphdr, TCP_ACK);
 2123              		.loc 1 1115 0
 2124 0172 2B7D     		ldrb	r3, [r5, #20]
 2125 0174 022B     		cmp	r3, #2
 2126 0176 0ED0     		beq	.L120
1116:Source\LwIP\src\core/tcp_out.c ****     }
 2127              		.loc 1 1116 0
 2128 0178 2769     		ldr	r7, [r4, #16]
 2129 017a 3B7B     		ldrb	r3, [r7, #12]
 2130 017c 787B     		ldrb	r0, [r7, #13]
 2131 017e 0002     		lsls	r0, r0, #8
 2132 0180 1843     		orrs	r0, r3
 2133 0182 8046     		mov	r8, r0
ARM GAS  C:\Users\Phuong\AppData\Local\Temp\cc5dKVKJ.s 			page 66


 2134 0184 1020     		movs	r0, #16
 2135 0186 FFF7FEFF 		bl	lwip_htons
 2136              	.LVL260:
 2137 018a 4346     		mov	r3, r8
 2138 018c 1843     		orrs	r0, r3
 2139 018e 80B2     		uxth	r0, r0
 2140 0190 3873     		strb	r0, [r7, #12]
 2141 0192 000A     		lsrs	r0, r0, #8
 2142 0194 7873     		strb	r0, [r7, #13]
 2143              	.L120:
1120:Source\LwIP\src\core/tcp_out.c **** #endif /* TCP_OVERSIZE_DBGCHECK */
 2144              		.loc 1 1120 0
 2145 0196 0023     		movs	r3, #0
 2146 0198 6381     		strh	r3, [r4, #10]
1122:Source\LwIP\src\core/tcp_out.c ****     if (err != ERR_OK) {
 2147              		.loc 1 1122 0
 2148 019a 019A     		ldr	r2, [sp, #4]
 2149 019c 2900     		movs	r1, r5
 2150 019e 2000     		movs	r0, r4
 2151 01a0 FFF7FEFF 		bl	tcp_output_segment
 2152              	.LVL261:
1123:Source\LwIP\src\core/tcp_out.c ****       /* segment could not be sent, for whatever reason */
 2153              		.loc 1 1123 0
 2154 01a4 0028     		cmp	r0, #0
 2155 01a6 04D0     		beq	.L121
1125:Source\LwIP\src\core/tcp_out.c ****       return err;
 2156              		.loc 1 1125 0
 2157 01a8 6A8B     		ldrh	r2, [r5, #26]
 2158 01aa 8023     		movs	r3, #128
 2159 01ac 1343     		orrs	r3, r2
 2160 01ae 6B83     		strh	r3, [r5, #26]
1126:Source\LwIP\src\core/tcp_out.c ****     }
 2161              		.loc 1 1126 0
 2162 01b0 C9E0     		b	.L104
 2163              	.L121:
1128:Source\LwIP\src\core/tcp_out.c ****     if (pcb->state != SYN_SENT) {
 2164              		.loc 1 1128 0
 2165 01b2 2368     		ldr	r3, [r4]
 2166 01b4 AB66     		str	r3, [r5, #104]
1129:Source\LwIP\src\core/tcp_out.c ****       pcb->flags &= ~(TF_ACK_DELAY | TF_ACK_NOW);
 2167              		.loc 1 1129 0
 2168 01b6 2B7D     		ldrb	r3, [r5, #20]
 2169 01b8 022B     		cmp	r3, #2
 2170 01ba 03D0     		beq	.L122
1130:Source\LwIP\src\core/tcp_out.c ****     }
 2171              		.loc 1 1130 0
 2172 01bc 6B8B     		ldrh	r3, [r5, #26]
 2173 01be 0322     		movs	r2, #3
 2174 01c0 9343     		bics	r3, r2
 2175 01c2 6B83     		strh	r3, [r5, #26]
 2176              	.L122:
1132:Source\LwIP\src\core/tcp_out.c ****     if (TCP_SEQ_LT(pcb->snd_nxt, snd_nxt)) {
 2177              		.loc 1 1132 0
 2178 01c4 2769     		ldr	r7, [r4, #16]
 2179 01c6 3979     		ldrb	r1, [r7, #4]
 2180 01c8 7B79     		ldrb	r3, [r7, #5]
 2181 01ca 1B02     		lsls	r3, r3, #8
ARM GAS  C:\Users\Phuong\AppData\Local\Temp\cc5dKVKJ.s 			page 67


 2182 01cc 0B43     		orrs	r3, r1
 2183 01ce 1A00     		movs	r2, r3
 2184 01d0 B879     		ldrb	r0, [r7, #6]
 2185              	.LVL262:
 2186 01d2 0004     		lsls	r0, r0, #16
 2187 01d4 0300     		movs	r3, r0
 2188 01d6 1343     		orrs	r3, r2
 2189 01d8 F879     		ldrb	r0, [r7, #7]
 2190 01da 0006     		lsls	r0, r0, #24
 2191 01dc 1843     		orrs	r0, r3
 2192 01de FFF7FEFF 		bl	lwip_htonl
 2193              	.LVL263:
 2194 01e2 8046     		mov	r8, r0
 2195 01e4 2789     		ldrh	r7, [r4, #8]
 2196 01e6 2269     		ldr	r2, [r4, #16]
 2197 01e8 137B     		ldrb	r3, [r2, #12]
 2198 01ea 507B     		ldrb	r0, [r2, #13]
 2199 01ec 0002     		lsls	r0, r0, #8
 2200 01ee 1843     		orrs	r0, r3
 2201 01f0 FFF7FEFF 		bl	lwip_htons
 2202              	.LVL264:
 2203 01f4 8307     		lsls	r3, r0, #30
 2204 01f6 01D0     		beq	.L146
 2205 01f8 0120     		movs	r0, #1
 2206 01fa 00E0     		b	.L123
 2207              	.L146:
 2208 01fc 0020     		movs	r0, #0
 2209              	.L123:
1132:Source\LwIP\src\core/tcp_out.c ****     if (TCP_SEQ_LT(pcb->snd_nxt, snd_nxt)) {
 2210              		.loc 1 1132 0 is_stmt 0 discriminator 4
 2211 01fe C019     		adds	r0, r0, r7
 2212 0200 4044     		add	r0, r0, r8
 2213              	.LVL265:
1133:Source\LwIP\src\core/tcp_out.c ****       pcb->snd_nxt = snd_nxt;
 2214              		.loc 1 1133 0 is_stmt 1 discriminator 4
 2215 0202 EB6C     		ldr	r3, [r5, #76]
 2216 0204 1B1A     		subs	r3, r3, r0
 2217 0206 00D5     		bpl	.L124
1134:Source\LwIP\src\core/tcp_out.c ****     }
 2218              		.loc 1 1134 0
 2219 0208 E864     		str	r0, [r5, #76]
 2220              	.L124:
1137:Source\LwIP\src\core/tcp_out.c ****       seg->next = NULL;
 2221              		.loc 1 1137 0
 2222 020a 2789     		ldrh	r7, [r4, #8]
 2223 020c 2269     		ldr	r2, [r4, #16]
 2224 020e 137B     		ldrb	r3, [r2, #12]
 2225 0210 507B     		ldrb	r0, [r2, #13]
 2226              	.LVL266:
 2227 0212 0002     		lsls	r0, r0, #8
 2228 0214 1843     		orrs	r0, r3
 2229 0216 FFF7FEFF 		bl	lwip_htons
 2230              	.LVL267:
 2231 021a 8307     		lsls	r3, r0, #30
 2232 021c 01D0     		beq	.L147
 2233 021e 0123     		movs	r3, #1
 2234 0220 00E0     		b	.L125
ARM GAS  C:\Users\Phuong\AppData\Local\Temp\cc5dKVKJ.s 			page 68


 2235              	.L147:
 2236 0222 0023     		movs	r3, #0
 2237              	.L125:
1137:Source\LwIP\src\core/tcp_out.c ****       seg->next = NULL;
 2238              		.loc 1 1137 0 is_stmt 0 discriminator 4
 2239 0224 DF19     		adds	r7, r3, r7
 2240 0226 002F     		cmp	r7, #0
 2241 0228 5ED0     		beq	.L126
1138:Source\LwIP\src\core/tcp_out.c ****       /* unacked list is empty? */
 2242              		.loc 1 1138 0 is_stmt 1
 2243 022a 0023     		movs	r3, #0
 2244 022c 2360     		str	r3, [r4]
1140:Source\LwIP\src\core/tcp_out.c ****         pcb->unacked = seg;
 2245              		.loc 1 1140 0
 2246 022e EB6E     		ldr	r3, [r5, #108]
 2247 0230 002B     		cmp	r3, #0
 2248 0232 02D1     		bne	.L127
1141:Source\LwIP\src\core/tcp_out.c ****         useg = seg;
 2249              		.loc 1 1141 0
 2250 0234 EC66     		str	r4, [r5, #108]
 2251              	.LVL268:
1142:Source\LwIP\src\core/tcp_out.c ****       /* unacked list is not empty? */
 2252              		.loc 1 1142 0
 2253 0236 2600     		movs	r6, r4
 2254 0238 59E0     		b	.L128
 2255              	.LVL269:
 2256              	.L127:
1148:Source\LwIP\src\core/tcp_out.c ****           /* add segment to before tail of unacked list, keeping the list sorted */
 2257              		.loc 1 1148 0
 2258 023a 2769     		ldr	r7, [r4, #16]
 2259 023c 3979     		ldrb	r1, [r7, #4]
 2260 023e 7B79     		ldrb	r3, [r7, #5]
 2261 0240 1B02     		lsls	r3, r3, #8
 2262 0242 0B43     		orrs	r3, r1
 2263 0244 1A00     		movs	r2, r3
 2264 0246 B879     		ldrb	r0, [r7, #6]
 2265 0248 0004     		lsls	r0, r0, #16
 2266 024a 0300     		movs	r3, r0
 2267 024c 1343     		orrs	r3, r2
 2268 024e F879     		ldrb	r0, [r7, #7]
 2269 0250 0006     		lsls	r0, r0, #24
 2270 0252 1843     		orrs	r0, r3
 2271 0254 FFF7FEFF 		bl	lwip_htonl
 2272              	.LVL270:
 2273 0258 0700     		movs	r7, r0
 2274 025a 3069     		ldr	r0, [r6, #16]
 2275 025c 0179     		ldrb	r1, [r0, #4]
 2276 025e 4379     		ldrb	r3, [r0, #5]
 2277 0260 1B02     		lsls	r3, r3, #8
 2278 0262 0B43     		orrs	r3, r1
 2279 0264 1A00     		movs	r2, r3
 2280 0266 8379     		ldrb	r3, [r0, #6]
 2281 0268 1B04     		lsls	r3, r3, #16
 2282 026a 1343     		orrs	r3, r2
 2283 026c C079     		ldrb	r0, [r0, #7]
 2284 026e 0006     		lsls	r0, r0, #24
 2285 0270 1843     		orrs	r0, r3
ARM GAS  C:\Users\Phuong\AppData\Local\Temp\cc5dKVKJ.s 			page 69


 2286 0272 FFF7FEFF 		bl	lwip_htonl
 2287              	.LVL271:
 2288 0276 3F1A     		subs	r7, r7, r0
 2289 0278 30D5     		bpl	.L129
 2290              	.LBB14:
1150:Source\LwIP\src\core/tcp_out.c ****           while (*cur_seg &&
 2291              		.loc 1 1150 0
 2292 027a 6C23     		movs	r3, #108
 2293 027c 9846     		mov	r8, r3
 2294 027e A844     		add	r8, r8, r5
 2295              	.LVL272:
1151:Source\LwIP\src\core/tcp_out.c ****             TCP_SEQ_LT(lwip_ntohl((*cur_seg)->tcphdr->seqno), lwip_ntohl(seg->tcphdr->seqno))) {
 2296              		.loc 1 1151 0
 2297 0280 02E0     		b	.L130
 2298              	.L132:
1153:Source\LwIP\src\core/tcp_out.c ****           }
 2299              		.loc 1 1153 0
 2300 0282 4346     		mov	r3, r8
 2301 0284 1B68     		ldr	r3, [r3]
 2302 0286 9846     		mov	r8, r3
 2303              	.LVL273:
 2304              	.L130:
1151:Source\LwIP\src\core/tcp_out.c ****             TCP_SEQ_LT(lwip_ntohl((*cur_seg)->tcphdr->seqno), lwip_ntohl(seg->tcphdr->seqno))) {
 2305              		.loc 1 1151 0
 2306 0288 4346     		mov	r3, r8
 2307 028a 1B68     		ldr	r3, [r3]
 2308 028c 002B     		cmp	r3, #0
 2309 028e 1FD0     		beq	.L131
1152:Source\LwIP\src\core/tcp_out.c ****               cur_seg = &((*cur_seg)->next );
 2310              		.loc 1 1152 0 discriminator 1
 2311 0290 1F69     		ldr	r7, [r3, #16]
 2312 0292 3979     		ldrb	r1, [r7, #4]
 2313 0294 7B79     		ldrb	r3, [r7, #5]
 2314 0296 1B02     		lsls	r3, r3, #8
 2315 0298 0B43     		orrs	r3, r1
 2316 029a 1A00     		movs	r2, r3
 2317 029c B879     		ldrb	r0, [r7, #6]
 2318 029e 0004     		lsls	r0, r0, #16
 2319 02a0 0300     		movs	r3, r0
 2320 02a2 1343     		orrs	r3, r2
 2321 02a4 F879     		ldrb	r0, [r7, #7]
 2322 02a6 0006     		lsls	r0, r0, #24
 2323 02a8 1843     		orrs	r0, r3
 2324 02aa FFF7FEFF 		bl	lwip_htonl
 2325              	.LVL274:
 2326 02ae 0700     		movs	r7, r0
 2327 02b0 2069     		ldr	r0, [r4, #16]
 2328 02b2 0179     		ldrb	r1, [r0, #4]
 2329 02b4 4379     		ldrb	r3, [r0, #5]
 2330 02b6 1B02     		lsls	r3, r3, #8
 2331 02b8 0B43     		orrs	r3, r1
 2332 02ba 1A00     		movs	r2, r3
 2333 02bc 8379     		ldrb	r3, [r0, #6]
 2334 02be 1B04     		lsls	r3, r3, #16
 2335 02c0 1343     		orrs	r3, r2
 2336 02c2 C079     		ldrb	r0, [r0, #7]
 2337 02c4 0006     		lsls	r0, r0, #24
ARM GAS  C:\Users\Phuong\AppData\Local\Temp\cc5dKVKJ.s 			page 70


 2338 02c6 1843     		orrs	r0, r3
 2339 02c8 FFF7FEFF 		bl	lwip_htonl
 2340              	.LVL275:
 2341 02cc 3F1A     		subs	r7, r7, r0
1151:Source\LwIP\src\core/tcp_out.c ****             TCP_SEQ_LT(lwip_ntohl((*cur_seg)->tcphdr->seqno), lwip_ntohl(seg->tcphdr->seqno))) {
 2342              		.loc 1 1151 0 discriminator 1
 2343 02ce D8D4     		bmi	.L132
 2344              	.L131:
1155:Source\LwIP\src\core/tcp_out.c ****           (*cur_seg) = seg;
 2345              		.loc 1 1155 0
 2346 02d0 4346     		mov	r3, r8
 2347 02d2 1B68     		ldr	r3, [r3]
 2348 02d4 2360     		str	r3, [r4]
1156:Source\LwIP\src\core/tcp_out.c ****         } else {
 2349              		.loc 1 1156 0
 2350 02d6 4346     		mov	r3, r8
 2351 02d8 1C60     		str	r4, [r3]
 2352              	.LBE14:
 2353 02da 08E0     		b	.L128
 2354              	.LVL276:
 2355              	.L129:
1159:Source\LwIP\src\core/tcp_out.c ****           useg = useg->next;
 2356              		.loc 1 1159 0
 2357 02dc 3460     		str	r4, [r6]
 2358              	.LVL277:
1160:Source\LwIP\src\core/tcp_out.c ****         }
 2359              		.loc 1 1160 0
 2360 02de 2600     		movs	r6, r4
 2361              	.LVL278:
 2362 02e0 05E0     		b	.L128
 2363              	.L149:
 2364 02e2 C046     		.align	2
 2365              	.L148:
 2366 02e4 00000000 		.word	tcp_input_pcb
 2367              	.L126:
1165:Source\LwIP\src\core/tcp_out.c ****     }
 2368              		.loc 1 1165 0
 2369 02e8 2000     		movs	r0, r4
 2370 02ea FFF7FEFF 		bl	tcp_seg_free
 2371              	.LVL279:
 2372              	.L128:
1167:Source\LwIP\src\core/tcp_out.c ****   }
 2373              		.loc 1 1167 0
 2374 02ee AC6E     		ldr	r4, [r5, #104]
 2375              	.LVL280:
 2376              	.L115:
1091:Source\LwIP\src\core/tcp_out.c ****          lwip_ntohl(seg->tcphdr->seqno) - pcb->lastack + seg->len <= wnd) {
 2377              		.loc 1 1091 0
 2378 02f0 002C     		cmp	r4, #0
 2379 02f2 15D0     		beq	.L116
1092:Source\LwIP\src\core/tcp_out.c ****     LWIP_ASSERT("RST not expected here!",
 2380              		.loc 1 1092 0 discriminator 1
 2381 02f4 2769     		ldr	r7, [r4, #16]
 2382 02f6 3979     		ldrb	r1, [r7, #4]
 2383 02f8 7B79     		ldrb	r3, [r7, #5]
 2384 02fa 1B02     		lsls	r3, r3, #8
 2385 02fc 0B43     		orrs	r3, r1
ARM GAS  C:\Users\Phuong\AppData\Local\Temp\cc5dKVKJ.s 			page 71


 2386 02fe 1A00     		movs	r2, r3
 2387 0300 B879     		ldrb	r0, [r7, #6]
 2388 0302 0004     		lsls	r0, r0, #16
 2389 0304 0300     		movs	r3, r0
 2390 0306 1343     		orrs	r3, r2
 2391 0308 F879     		ldrb	r0, [r7, #7]
 2392 030a 0006     		lsls	r0, r0, #24
 2393 030c 1843     		orrs	r0, r3
 2394 030e FFF7FEFF 		bl	lwip_htonl
 2395              	.LVL281:
 2396 0312 6B6C     		ldr	r3, [r5, #68]
 2397 0314 C01A     		subs	r0, r0, r3
 2398 0316 2389     		ldrh	r3, [r4, #8]
 2399 0318 1818     		adds	r0, r3, r0
1091:Source\LwIP\src\core/tcp_out.c ****          lwip_ntohl(seg->tcphdr->seqno) - pcb->lastack + seg->len <= wnd) {
 2400              		.loc 1 1091 0 discriminator 1
 2401 031a 8245     		cmp	r10, r0
 2402 031c 00D3     		bcc	.LCB2644
 2403 031e F4E6     		b	.L133	@long jump
 2404              	.LCB2644:
 2405              	.L116:
1171:Source\LwIP\src\core/tcp_out.c ****     /* last unsent has been removed, reset unsent_oversize */
 2406              		.loc 1 1171 0
 2407 0320 AB6E     		ldr	r3, [r5, #104]
 2408 0322 002B     		cmp	r3, #0
 2409 0324 02D1     		bne	.L134
1173:Source\LwIP\src\core/tcp_out.c ****   }
 2410              		.loc 1 1173 0
 2411 0326 0022     		movs	r2, #0
 2412 0328 6433     		adds	r3, r3, #100
 2413 032a EA52     		strh	r2, [r5, r3]
 2414              	.L134:
1177:Source\LwIP\src\core/tcp_out.c ****   return ERR_OK;
 2415              		.loc 1 1177 0
 2416 032c 6B8B     		ldrh	r3, [r5, #26]
 2417 032e 8022     		movs	r2, #128
 2418 0330 9343     		bics	r3, r2
 2419 0332 6B83     		strh	r3, [r5, #26]
1178:Source\LwIP\src\core/tcp_out.c **** }
 2420              		.loc 1 1178 0
 2421 0334 0020     		movs	r0, #0
 2422 0336 06E0     		b	.L104
 2423              	.LVL282:
 2424              	.L135:
1012:Source\LwIP\src\core/tcp_out.c ****   }
 2425              		.loc 1 1012 0
 2426 0338 0020     		movs	r0, #0
 2427              	.LVL283:
 2428 033a 04E0     		b	.L104
 2429              	.LVL284:
 2430              	.L137:
1039:Source\LwIP\src\core/tcp_out.c ****   }
 2431              		.loc 1 1039 0
 2432 033c 0420     		movs	r0, #4
 2433              	.LVL285:
 2434 033e 4042     		rsbs	r0, r0, #0
 2435 0340 01E0     		b	.L104
ARM GAS  C:\Users\Phuong\AppData\Local\Temp\cc5dKVKJ.s 			page 72


 2436              	.LVL286:
 2437              	.L139:
 2438              	.LBB15:
1046:Source\LwIP\src\core/tcp_out.c ****     }
 2439              		.loc 1 1046 0
 2440 0342 0420     		movs	r0, #4
 2441              	.LVL287:
 2442 0344 4042     		rsbs	r0, r0, #0
 2443              	.LVL288:
 2444              	.L104:
 2445              	.LBE15:
1179:Source\LwIP\src\core/tcp_out.c **** 
 2446              		.loc 1 1179 0
 2447 0346 03B0     		add	sp, sp, #12
 2448              		@ sp needed
 2449              	.LVL289:
 2450 0348 0CBC     		pop	{r2, r3}
 2451 034a 9046     		mov	r8, r2
 2452 034c 9A46     		mov	r10, r3
 2453 034e F0BD     		pop	{r4, r5, r6, r7, pc}
 2454              		.cfi_endproc
 2455              	.LFE61:
 2456              		.size	tcp_output, .-tcp_output
 2457              		.section	.text.tcp_rst,"ax",%progbits
 2458              		.align	2
 2459              		.global	tcp_rst
 2460              		.code	16
 2461              		.thumb_func
 2462              		.type	tcp_rst, %function
 2463              	tcp_rst:
 2464              	.LFB63:
1322:Source\LwIP\src\core/tcp_out.c **** 
1323:Source\LwIP\src\core/tcp_out.c **** /**
1324:Source\LwIP\src\core/tcp_out.c ****  * Send a TCP RESET packet (empty segment with RST flag set) either to
1325:Source\LwIP\src\core/tcp_out.c ****  * abort a connection or to show that there is no matching local connection
1326:Source\LwIP\src\core/tcp_out.c ****  * for a received segment.
1327:Source\LwIP\src\core/tcp_out.c ****  *
1328:Source\LwIP\src\core/tcp_out.c ****  * Called by tcp_abort() (to abort a local connection), tcp_input() (if no
1329:Source\LwIP\src\core/tcp_out.c ****  * matching local pcb was found), tcp_listen_input() (if incoming segment
1330:Source\LwIP\src\core/tcp_out.c ****  * has ACK flag set) and tcp_process() (received segment in the wrong state)
1331:Source\LwIP\src\core/tcp_out.c ****  *
1332:Source\LwIP\src\core/tcp_out.c ****  * Since a RST segment is in most cases not sent for an active connection,
1333:Source\LwIP\src\core/tcp_out.c ****  * tcp_rst() has a number of arguments that are taken from a tcp_pcb for
1334:Source\LwIP\src\core/tcp_out.c ****  * most other segment output functions.
1335:Source\LwIP\src\core/tcp_out.c ****  *
1336:Source\LwIP\src\core/tcp_out.c ****  * @param seqno the sequence number to use for the outgoing segment
1337:Source\LwIP\src\core/tcp_out.c ****  * @param ackno the acknowledge number to use for the outgoing segment
1338:Source\LwIP\src\core/tcp_out.c ****  * @param local_ip the local IP address to send the segment from
1339:Source\LwIP\src\core/tcp_out.c ****  * @param remote_ip the remote IP address to send the segment to
1340:Source\LwIP\src\core/tcp_out.c ****  * @param local_port the local TCP port to send the segment from
1341:Source\LwIP\src\core/tcp_out.c ****  * @param remote_port the remote TCP port to send the segment to
1342:Source\LwIP\src\core/tcp_out.c ****  */
1343:Source\LwIP\src\core/tcp_out.c **** void
1344:Source\LwIP\src\core/tcp_out.c **** tcp_rst(u32_t seqno, u32_t ackno,
1345:Source\LwIP\src\core/tcp_out.c ****   const ip_addr_t *local_ip, const ip_addr_t *remote_ip,
1346:Source\LwIP\src\core/tcp_out.c ****   u16_t local_port, u16_t remote_port)
1347:Source\LwIP\src\core/tcp_out.c **** {
ARM GAS  C:\Users\Phuong\AppData\Local\Temp\cc5dKVKJ.s 			page 73


 2465              		.loc 1 1347 0
 2466              		.cfi_startproc
 2467              		@ args = 8, pretend = 0, frame = 16
 2468              		@ frame_needed = 0, uses_anonymous_args = 0
 2469              	.LVL290:
 2470 0000 F0B5     		push	{r4, r5, r6, r7, lr}
 2471              		.cfi_def_cfa_offset 20
 2472              		.cfi_offset 4, -20
 2473              		.cfi_offset 5, -16
 2474              		.cfi_offset 6, -12
 2475              		.cfi_offset 7, -8
 2476              		.cfi_offset 14, -4
 2477 0002 89B0     		sub	sp, sp, #36
 2478              		.cfi_def_cfa_offset 56
 2479 0004 0590     		str	r0, [sp, #20]
 2480 0006 0691     		str	r1, [sp, #24]
 2481 0008 0492     		str	r2, [sp, #16]
 2482 000a 0793     		str	r3, [sp, #28]
 2483 000c 0EAB     		add	r3, sp, #56
 2484              	.LVL291:
 2485 000e 1C88     		ldrh	r4, [r3]
 2486 0010 0FAB     		add	r3, sp, #60
 2487              	.LVL292:
 2488 0012 1E88     		ldrh	r6, [r3]
1348:Source\LwIP\src\core/tcp_out.c ****   struct pbuf *p;
1349:Source\LwIP\src\core/tcp_out.c ****   struct tcp_hdr *tcphdr;
1350:Source\LwIP\src\core/tcp_out.c ****   struct netif *netif;
1351:Source\LwIP\src\core/tcp_out.c ****   p = pbuf_alloc(PBUF_IP, TCP_HLEN, PBUF_RAM);
 2489              		.loc 1 1351 0
 2490 0014 0022     		movs	r2, #0
 2491              	.LVL293:
 2492 0016 1421     		movs	r1, #20
 2493              	.LVL294:
 2494 0018 0120     		movs	r0, #1
 2495              	.LVL295:
 2496 001a FFF7FEFF 		bl	pbuf_alloc
 2497              	.LVL296:
 2498 001e 071E     		subs	r7, r0, #0
 2499              	.LVL297:
1352:Source\LwIP\src\core/tcp_out.c ****   if (p == NULL) {
 2500              		.loc 1 1352 0
 2501 0020 52D0     		beq	.L150
1353:Source\LwIP\src\core/tcp_out.c ****     LWIP_DEBUGF(TCP_DEBUG, ("tcp_rst: could not allocate memory for pbuf\n"));
1354:Source\LwIP\src\core/tcp_out.c ****     return;
1355:Source\LwIP\src\core/tcp_out.c ****   }
1356:Source\LwIP\src\core/tcp_out.c ****   LWIP_ASSERT("check that first pbuf can hold struct tcp_hdr",
1357:Source\LwIP\src\core/tcp_out.c ****               (p->len >= sizeof(struct tcp_hdr)));
1358:Source\LwIP\src\core/tcp_out.c **** 
1359:Source\LwIP\src\core/tcp_out.c ****   tcphdr = (struct tcp_hdr *)p->payload;
 2502              		.loc 1 1359 0
 2503 0022 4568     		ldr	r5, [r0, #4]
 2504              	.LVL298:
1360:Source\LwIP\src\core/tcp_out.c ****   tcphdr->src = lwip_htons(local_port);
 2505              		.loc 1 1360 0
 2506 0024 2000     		movs	r0, r4
 2507              	.LVL299:
 2508 0026 FFF7FEFF 		bl	lwip_htons
ARM GAS  C:\Users\Phuong\AppData\Local\Temp\cc5dKVKJ.s 			page 74


 2509              	.LVL300:
 2510 002a 2870     		strb	r0, [r5]
 2511 002c 000A     		lsrs	r0, r0, #8
 2512 002e 6870     		strb	r0, [r5, #1]
1361:Source\LwIP\src\core/tcp_out.c ****   tcphdr->dest = lwip_htons(remote_port);
 2513              		.loc 1 1361 0
 2514 0030 3000     		movs	r0, r6
 2515 0032 FFF7FEFF 		bl	lwip_htons
 2516              	.LVL301:
 2517 0036 A870     		strb	r0, [r5, #2]
 2518 0038 000A     		lsrs	r0, r0, #8
 2519 003a E870     		strb	r0, [r5, #3]
1362:Source\LwIP\src\core/tcp_out.c ****   tcphdr->seqno = lwip_htonl(seqno);
 2520              		.loc 1 1362 0
 2521 003c 0598     		ldr	r0, [sp, #20]
 2522 003e FFF7FEFF 		bl	lwip_htonl
 2523              	.LVL302:
 2524 0042 2871     		strb	r0, [r5, #4]
 2525 0044 030A     		lsrs	r3, r0, #8
 2526 0046 6B71     		strb	r3, [r5, #5]
 2527 0048 030C     		lsrs	r3, r0, #16
 2528 004a AB71     		strb	r3, [r5, #6]
 2529 004c 000E     		lsrs	r0, r0, #24
 2530 004e E871     		strb	r0, [r5, #7]
1363:Source\LwIP\src\core/tcp_out.c ****   tcphdr->ackno = lwip_htonl(ackno);
 2531              		.loc 1 1363 0
 2532 0050 0698     		ldr	r0, [sp, #24]
 2533 0052 FFF7FEFF 		bl	lwip_htonl
 2534              	.LVL303:
 2535 0056 2872     		strb	r0, [r5, #8]
 2536 0058 030A     		lsrs	r3, r0, #8
 2537 005a 6B72     		strb	r3, [r5, #9]
 2538 005c 030C     		lsrs	r3, r0, #16
 2539 005e AB72     		strb	r3, [r5, #10]
 2540 0060 000E     		lsrs	r0, r0, #24
 2541 0062 E872     		strb	r0, [r5, #11]
1364:Source\LwIP\src\core/tcp_out.c ****   TCPH_HDRLEN_FLAGS_SET(tcphdr, TCP_HLEN/4, TCP_RST | TCP_ACK);
 2542              		.loc 1 1364 0
 2543 0064 1948     		ldr	r0, .L153
 2544 0066 FFF7FEFF 		bl	lwip_htons
 2545              	.LVL304:
 2546 006a 2873     		strb	r0, [r5, #12]
 2547 006c 000A     		lsrs	r0, r0, #8
 2548 006e 6873     		strb	r0, [r5, #13]
1365:Source\LwIP\src\core/tcp_out.c **** #if LWIP_WND_SCALE
1366:Source\LwIP\src\core/tcp_out.c ****   tcphdr->wnd = PP_HTONS(((TCP_WND >> TCP_RCV_SCALE) & 0xFFFF));
1367:Source\LwIP\src\core/tcp_out.c **** #else
1368:Source\LwIP\src\core/tcp_out.c ****   tcphdr->wnd = PP_HTONS(TCP_WND);
 2549              		.loc 1 1368 0
 2550 0070 1623     		movs	r3, #22
 2551 0072 AB73     		strb	r3, [r5, #14]
 2552 0074 463B     		subs	r3, r3, #70
 2553 0076 EB73     		strb	r3, [r5, #15]
1369:Source\LwIP\src\core/tcp_out.c **** #endif
1370:Source\LwIP\src\core/tcp_out.c ****   tcphdr->chksum = 0;
 2554              		.loc 1 1370 0
 2555 0078 0023     		movs	r3, #0
ARM GAS  C:\Users\Phuong\AppData\Local\Temp\cc5dKVKJ.s 			page 75


 2556 007a 2B74     		strb	r3, [r5, #16]
 2557 007c 6B74     		strb	r3, [r5, #17]
1371:Source\LwIP\src\core/tcp_out.c ****   tcphdr->urgp = 0;
 2558              		.loc 1 1371 0
 2559 007e AB74     		strb	r3, [r5, #18]
 2560 0080 EB74     		strb	r3, [r5, #19]
1372:Source\LwIP\src\core/tcp_out.c **** 
1373:Source\LwIP\src\core/tcp_out.c ****   TCP_STATS_INC(tcp.xmit);
 2561              		.loc 1 1373 0
 2562 0082 1349     		ldr	r1, .L153+4
 2563 0084 AC22     		movs	r2, #172
 2564 0086 8B5A     		ldrh	r3, [r1, r2]
 2565 0088 0133     		adds	r3, r3, #1
 2566 008a 8B52     		strh	r3, [r1, r2]
1374:Source\LwIP\src\core/tcp_out.c ****   MIB2_STATS_INC(mib2.tcpoutrsts);
1375:Source\LwIP\src\core/tcp_out.c **** 
1376:Source\LwIP\src\core/tcp_out.c ****   netif = ip_route(local_ip, remote_ip);
 2567              		.loc 1 1376 0
 2568 008c 079C     		ldr	r4, [sp, #28]
 2569 008e 2000     		movs	r0, r4
 2570 0090 FFF7FEFF 		bl	ip4_route
 2571              	.LVL305:
 2572 0094 061E     		subs	r6, r0, #0
 2573              	.LVL306:
1377:Source\LwIP\src\core/tcp_out.c ****   if (netif != NULL) {
 2574              		.loc 1 1377 0
 2575 0096 14D0     		beq	.L152
1378:Source\LwIP\src\core/tcp_out.c **** #if CHECKSUM_GEN_TCP
1379:Source\LwIP\src\core/tcp_out.c ****     IF__NETIF_CHECKSUM_ENABLED(netif, NETIF_CHECKSUM_GEN_TCP) {
1380:Source\LwIP\src\core/tcp_out.c ****       tcphdr->chksum = ip_chksum_pseudo(p, IP_PROTO_TCP, p->tot_len,
 2576              		.loc 1 1380 0
 2577 0098 3A89     		ldrh	r2, [r7, #8]
 2578 009a 0094     		str	r4, [sp]
 2579 009c 049B     		ldr	r3, [sp, #16]
 2580 009e 0621     		movs	r1, #6
 2581 00a0 3800     		movs	r0, r7
 2582              	.LVL307:
 2583 00a2 FFF7FEFF 		bl	ip_chksum_pseudo
 2584              	.LVL308:
 2585 00a6 2874     		strb	r0, [r5, #16]
 2586 00a8 000A     		lsrs	r0, r0, #8
 2587 00aa 6874     		strb	r0, [r5, #17]
1381:Source\LwIP\src\core/tcp_out.c ****                                         local_ip, remote_ip);
1382:Source\LwIP\src\core/tcp_out.c ****     }
1383:Source\LwIP\src\core/tcp_out.c **** #endif
1384:Source\LwIP\src\core/tcp_out.c ****     /* Send output with hardcoded TTL/HL since we have no access to the pcb */
1385:Source\LwIP\src\core/tcp_out.c ****     ip_output_if(p, local_ip, remote_ip, TCP_TTL, 0, IP_PROTO_TCP, netif);
 2588              		.loc 1 1385 0
 2589 00ac 0296     		str	r6, [sp, #8]
 2590 00ae 0623     		movs	r3, #6
 2591 00b0 0193     		str	r3, [sp, #4]
 2592 00b2 0023     		movs	r3, #0
 2593 00b4 0093     		str	r3, [sp]
 2594 00b6 FF33     		adds	r3, r3, #255
 2595 00b8 2200     		movs	r2, r4
 2596 00ba 0499     		ldr	r1, [sp, #16]
 2597 00bc 3800     		movs	r0, r7
ARM GAS  C:\Users\Phuong\AppData\Local\Temp\cc5dKVKJ.s 			page 76


 2598 00be FFF7FEFF 		bl	ip4_output_if
 2599              	.LVL309:
 2600              	.L152:
1386:Source\LwIP\src\core/tcp_out.c ****   }
1387:Source\LwIP\src\core/tcp_out.c ****   pbuf_free(p);
 2601              		.loc 1 1387 0
 2602 00c2 3800     		movs	r0, r7
 2603 00c4 FFF7FEFF 		bl	pbuf_free
 2604              	.LVL310:
 2605              	.L150:
1388:Source\LwIP\src\core/tcp_out.c ****   LWIP_DEBUGF(TCP_RST_DEBUG, ("tcp_rst: seqno %"U32_F" ackno %"U32_F".\n", seqno, ackno));
1389:Source\LwIP\src\core/tcp_out.c **** }
 2606              		.loc 1 1389 0
 2607 00c8 09B0     		add	sp, sp, #36
 2608              		@ sp needed
 2609              	.LVL311:
 2610 00ca F0BD     		pop	{r4, r5, r6, r7, pc}
 2611              	.L154:
 2612              		.align	2
 2613              	.L153:
 2614 00cc 14500000 		.word	20500
 2615 00d0 00000000 		.word	lwip_stats
 2616              		.cfi_endproc
 2617              	.LFE63:
 2618              		.size	tcp_rst, .-tcp_rst
 2619              		.section	.text.tcp_rexmit_rto,"ax",%progbits
 2620              		.align	2
 2621              		.global	tcp_rexmit_rto
 2622              		.code	16
 2623              		.thumb_func
 2624              		.type	tcp_rexmit_rto, %function
 2625              	tcp_rexmit_rto:
 2626              	.LFB64:
1390:Source\LwIP\src\core/tcp_out.c **** 
1391:Source\LwIP\src\core/tcp_out.c **** /**
1392:Source\LwIP\src\core/tcp_out.c ****  * Requeue all unacked segments for retransmission
1393:Source\LwIP\src\core/tcp_out.c ****  *
1394:Source\LwIP\src\core/tcp_out.c ****  * Called by tcp_slowtmr() for slow retransmission.
1395:Source\LwIP\src\core/tcp_out.c ****  *
1396:Source\LwIP\src\core/tcp_out.c ****  * @param pcb the tcp_pcb for which to re-enqueue all unacked segments
1397:Source\LwIP\src\core/tcp_out.c ****  */
1398:Source\LwIP\src\core/tcp_out.c **** void
1399:Source\LwIP\src\core/tcp_out.c **** tcp_rexmit_rto(struct tcp_pcb *pcb)
1400:Source\LwIP\src\core/tcp_out.c **** {
 2627              		.loc 1 1400 0
 2628              		.cfi_startproc
 2629              		@ args = 0, pretend = 0, frame = 0
 2630              		@ frame_needed = 0, uses_anonymous_args = 0
 2631              	.LVL312:
 2632 0000 10B5     		push	{r4, lr}
 2633              		.cfi_def_cfa_offset 8
 2634              		.cfi_offset 4, -8
 2635              		.cfi_offset 14, -4
1401:Source\LwIP\src\core/tcp_out.c ****   struct tcp_seg *seg;
1402:Source\LwIP\src\core/tcp_out.c **** 
1403:Source\LwIP\src\core/tcp_out.c ****   if (pcb->unacked == NULL) {
 2636              		.loc 1 1403 0
ARM GAS  C:\Users\Phuong\AppData\Local\Temp\cc5dKVKJ.s 			page 77


 2637 0002 C26E     		ldr	r2, [r0, #108]
 2638 0004 002A     		cmp	r2, #0
 2639 0006 01D1     		bne	.L157
 2640 0008 1AE0     		b	.L155
 2641              	.LVL313:
 2642              	.L160:
1404:Source\LwIP\src\core/tcp_out.c ****     return;
1405:Source\LwIP\src\core/tcp_out.c ****   }
1406:Source\LwIP\src\core/tcp_out.c **** 
1407:Source\LwIP\src\core/tcp_out.c ****   /* Move all unacked segments to the head of the unsent queue */
1408:Source\LwIP\src\core/tcp_out.c ****   for (seg = pcb->unacked; seg->next != NULL; seg = seg->next);
 2643              		.loc 1 1408 0
 2644 000a 1A00     		movs	r2, r3
 2645              	.LVL314:
 2646              	.L157:
 2647              		.loc 1 1408 0 is_stmt 0 discriminator 1
 2648 000c 1368     		ldr	r3, [r2]
 2649 000e 002B     		cmp	r3, #0
 2650 0010 FBD1     		bne	.L160
1409:Source\LwIP\src\core/tcp_out.c ****   /* concatenate unsent queue after unacked queue */
1410:Source\LwIP\src\core/tcp_out.c ****   seg->next = pcb->unsent;
 2651              		.loc 1 1410 0 is_stmt 1
 2652 0012 836E     		ldr	r3, [r0, #104]
 2653 0014 1360     		str	r3, [r2]
1411:Source\LwIP\src\core/tcp_out.c **** #if TCP_OVERSIZE_DBGCHECK
1412:Source\LwIP\src\core/tcp_out.c ****   /* if last unsent changed, we need to update unsent_oversize */
1413:Source\LwIP\src\core/tcp_out.c ****   if (pcb->unsent == NULL) {
 2654              		.loc 1 1413 0
 2655 0016 836E     		ldr	r3, [r0, #104]
 2656 0018 002B     		cmp	r3, #0
 2657 001a 02D1     		bne	.L158
1414:Source\LwIP\src\core/tcp_out.c ****     pcb->unsent_oversize = seg->oversize_left;
 2658              		.loc 1 1414 0
 2659 001c 5289     		ldrh	r2, [r2, #10]
 2660              	.LVL315:
 2661 001e 6433     		adds	r3, r3, #100
 2662 0020 C252     		strh	r2, [r0, r3]
 2663              	.L158:
1415:Source\LwIP\src\core/tcp_out.c ****   }
1416:Source\LwIP\src\core/tcp_out.c **** #endif /* TCP_OVERSIZE_DBGCHECK */
1417:Source\LwIP\src\core/tcp_out.c ****   /* unsent queue is the concatenated queue (of unacked, unsent) */
1418:Source\LwIP\src\core/tcp_out.c ****   pcb->unsent = pcb->unacked;
 2664              		.loc 1 1418 0
 2665 0022 C36E     		ldr	r3, [r0, #108]
 2666 0024 8366     		str	r3, [r0, #104]
1419:Source\LwIP\src\core/tcp_out.c ****   /* unacked queue is now empty */
1420:Source\LwIP\src\core/tcp_out.c ****   pcb->unacked = NULL;
 2667              		.loc 1 1420 0
 2668 0026 0023     		movs	r3, #0
 2669 0028 C366     		str	r3, [r0, #108]
1421:Source\LwIP\src\core/tcp_out.c **** 
1422:Source\LwIP\src\core/tcp_out.c ****   /* increment number of retransmissions */
1423:Source\LwIP\src\core/tcp_out.c ****   if (pcb->nrtx < 0xFF) {
 2670              		.loc 1 1423 0
 2671 002a 4233     		adds	r3, r3, #66
 2672 002c C35C     		ldrb	r3, [r0, r3]
 2673 002e FF2B     		cmp	r3, #255
ARM GAS  C:\Users\Phuong\AppData\Local\Temp\cc5dKVKJ.s 			page 78


 2674 0030 02D0     		beq	.L159
1424:Source\LwIP\src\core/tcp_out.c ****     ++pcb->nrtx;
 2675              		.loc 1 1424 0
 2676 0032 0133     		adds	r3, r3, #1
 2677 0034 4222     		movs	r2, #66
 2678 0036 8354     		strb	r3, [r0, r2]
 2679              	.L159:
1425:Source\LwIP\src\core/tcp_out.c ****   }
1426:Source\LwIP\src\core/tcp_out.c **** 
1427:Source\LwIP\src\core/tcp_out.c ****   /* Don't take any RTT measurements after retransmitting. */
1428:Source\LwIP\src\core/tcp_out.c ****   pcb->rttest = 0;
 2680              		.loc 1 1428 0
 2681 0038 0023     		movs	r3, #0
 2682 003a 4363     		str	r3, [r0, #52]
1429:Source\LwIP\src\core/tcp_out.c **** 
1430:Source\LwIP\src\core/tcp_out.c ****   /* Do the actual retransmission */
1431:Source\LwIP\src\core/tcp_out.c ****   tcp_output(pcb);
 2683              		.loc 1 1431 0
 2684 003c FFF7FEFF 		bl	tcp_output
 2685              	.LVL316:
 2686              	.L155:
1432:Source\LwIP\src\core/tcp_out.c **** }
 2687              		.loc 1 1432 0
 2688              		@ sp needed
 2689 0040 10BD     		pop	{r4, pc}
 2690              		.cfi_endproc
 2691              	.LFE64:
 2692              		.size	tcp_rexmit_rto, .-tcp_rexmit_rto
 2693 0042 C046     		.section	.text.tcp_rexmit,"ax",%progbits
 2694              		.align	2
 2695              		.global	tcp_rexmit
 2696              		.code	16
 2697              		.thumb_func
 2698              		.type	tcp_rexmit, %function
 2699              	tcp_rexmit:
 2700              	.LFB65:
1433:Source\LwIP\src\core/tcp_out.c **** 
1434:Source\LwIP\src\core/tcp_out.c **** /**
1435:Source\LwIP\src\core/tcp_out.c ****  * Requeue the first unacked segment for retransmission
1436:Source\LwIP\src\core/tcp_out.c ****  *
1437:Source\LwIP\src\core/tcp_out.c ****  * Called by tcp_receive() for fast retransmit.
1438:Source\LwIP\src\core/tcp_out.c ****  *
1439:Source\LwIP\src\core/tcp_out.c ****  * @param pcb the tcp_pcb for which to retransmit the first unacked segment
1440:Source\LwIP\src\core/tcp_out.c ****  */
1441:Source\LwIP\src\core/tcp_out.c **** void
1442:Source\LwIP\src\core/tcp_out.c **** tcp_rexmit(struct tcp_pcb *pcb)
1443:Source\LwIP\src\core/tcp_out.c **** {
 2701              		.loc 1 1443 0
 2702              		.cfi_startproc
 2703              		@ args = 0, pretend = 0, frame = 0
 2704              		@ frame_needed = 0, uses_anonymous_args = 0
 2705              	.LVL317:
 2706 0000 F8B5     		push	{r3, r4, r5, r6, r7, lr}
 2707              		.cfi_def_cfa_offset 24
 2708              		.cfi_offset 3, -24
 2709              		.cfi_offset 4, -20
 2710              		.cfi_offset 5, -16
ARM GAS  C:\Users\Phuong\AppData\Local\Temp\cc5dKVKJ.s 			page 79


 2711              		.cfi_offset 6, -12
 2712              		.cfi_offset 7, -8
 2713              		.cfi_offset 14, -4
 2714 0002 0600     		movs	r6, r0
1444:Source\LwIP\src\core/tcp_out.c ****   struct tcp_seg *seg;
1445:Source\LwIP\src\core/tcp_out.c ****   struct tcp_seg **cur_seg;
1446:Source\LwIP\src\core/tcp_out.c **** 
1447:Source\LwIP\src\core/tcp_out.c ****   if (pcb->unacked == NULL) {
 2715              		.loc 1 1447 0
 2716 0004 C56E     		ldr	r5, [r0, #108]
 2717 0006 002D     		cmp	r5, #0
 2718 0008 3AD0     		beq	.L161
 2719              	.LVL318:
1448:Source\LwIP\src\core/tcp_out.c ****     return;
1449:Source\LwIP\src\core/tcp_out.c ****   }
1450:Source\LwIP\src\core/tcp_out.c **** 
1451:Source\LwIP\src\core/tcp_out.c ****   /* Move the first unacked segment to the unsent queue */
1452:Source\LwIP\src\core/tcp_out.c ****   /* Keep the unsent queue sorted. */
1453:Source\LwIP\src\core/tcp_out.c ****   seg = pcb->unacked;
1454:Source\LwIP\src\core/tcp_out.c ****   pcb->unacked = seg->next;
 2720              		.loc 1 1454 0
 2721 000a 2B68     		ldr	r3, [r5]
 2722 000c C366     		str	r3, [r0, #108]
1455:Source\LwIP\src\core/tcp_out.c **** 
1456:Source\LwIP\src\core/tcp_out.c ****   cur_seg = &(pcb->unsent);
 2723              		.loc 1 1456 0
 2724 000e 0400     		movs	r4, r0
 2725 0010 6834     		adds	r4, r4, #104
 2726              	.LVL319:
1457:Source\LwIP\src\core/tcp_out.c ****   while (*cur_seg &&
 2727              		.loc 1 1457 0
 2728 0012 00E0     		b	.L163
 2729              	.LVL320:
 2730              	.L165:
1458:Source\LwIP\src\core/tcp_out.c ****     TCP_SEQ_LT(lwip_ntohl((*cur_seg)->tcphdr->seqno), lwip_ntohl(seg->tcphdr->seqno))) {
1459:Source\LwIP\src\core/tcp_out.c ****       cur_seg = &((*cur_seg)->next );
 2731              		.loc 1 1459 0
 2732 0014 2468     		ldr	r4, [r4]
 2733              	.LVL321:
 2734              	.L163:
1457:Source\LwIP\src\core/tcp_out.c ****   while (*cur_seg &&
 2735              		.loc 1 1457 0
 2736 0016 2368     		ldr	r3, [r4]
 2737 0018 002B     		cmp	r3, #0
 2738 001a 1FD0     		beq	.L164
1458:Source\LwIP\src\core/tcp_out.c ****     TCP_SEQ_LT(lwip_ntohl((*cur_seg)->tcphdr->seqno), lwip_ntohl(seg->tcphdr->seqno))) {
 2739              		.loc 1 1458 0 discriminator 1
 2740 001c 1F69     		ldr	r7, [r3, #16]
 2741 001e 3979     		ldrb	r1, [r7, #4]
 2742 0020 7B79     		ldrb	r3, [r7, #5]
 2743 0022 1B02     		lsls	r3, r3, #8
 2744 0024 0B43     		orrs	r3, r1
 2745 0026 1A00     		movs	r2, r3
 2746 0028 B879     		ldrb	r0, [r7, #6]
 2747 002a 0004     		lsls	r0, r0, #16
 2748 002c 0300     		movs	r3, r0
 2749 002e 1343     		orrs	r3, r2
ARM GAS  C:\Users\Phuong\AppData\Local\Temp\cc5dKVKJ.s 			page 80


 2750 0030 F879     		ldrb	r0, [r7, #7]
 2751 0032 0006     		lsls	r0, r0, #24
 2752 0034 1843     		orrs	r0, r3
 2753 0036 FFF7FEFF 		bl	lwip_htonl
 2754              	.LVL322:
 2755 003a 0700     		movs	r7, r0
 2756 003c 2869     		ldr	r0, [r5, #16]
 2757 003e 0179     		ldrb	r1, [r0, #4]
 2758 0040 4379     		ldrb	r3, [r0, #5]
 2759 0042 1B02     		lsls	r3, r3, #8
 2760 0044 0B43     		orrs	r3, r1
 2761 0046 1A00     		movs	r2, r3
 2762 0048 8379     		ldrb	r3, [r0, #6]
 2763 004a 1B04     		lsls	r3, r3, #16
 2764 004c 1343     		orrs	r3, r2
 2765 004e C079     		ldrb	r0, [r0, #7]
 2766 0050 0006     		lsls	r0, r0, #24
 2767 0052 1843     		orrs	r0, r3
 2768 0054 FFF7FEFF 		bl	lwip_htonl
 2769              	.LVL323:
 2770 0058 3F1A     		subs	r7, r7, r0
1457:Source\LwIP\src\core/tcp_out.c ****   while (*cur_seg &&
 2771              		.loc 1 1457 0 discriminator 1
 2772 005a DBD4     		bmi	.L165
 2773              	.L164:
1460:Source\LwIP\src\core/tcp_out.c ****   }
1461:Source\LwIP\src\core/tcp_out.c ****   seg->next = *cur_seg;
 2774              		.loc 1 1461 0
 2775 005c 2368     		ldr	r3, [r4]
 2776 005e 2B60     		str	r3, [r5]
1462:Source\LwIP\src\core/tcp_out.c ****   *cur_seg = seg;
 2777              		.loc 1 1462 0
 2778 0060 2560     		str	r5, [r4]
1463:Source\LwIP\src\core/tcp_out.c **** #if TCP_OVERSIZE
1464:Source\LwIP\src\core/tcp_out.c ****   if (seg->next == NULL) {
 2779              		.loc 1 1464 0
 2780 0062 2B68     		ldr	r3, [r5]
 2781 0064 002B     		cmp	r3, #0
 2782 0066 02D1     		bne	.L166
1465:Source\LwIP\src\core/tcp_out.c ****     /* the retransmitted segment is last in unsent, so reset unsent_oversize */
1466:Source\LwIP\src\core/tcp_out.c ****     pcb->unsent_oversize = 0;
 2783              		.loc 1 1466 0
 2784 0068 0022     		movs	r2, #0
 2785 006a 6433     		adds	r3, r3, #100
 2786 006c F252     		strh	r2, [r6, r3]
 2787              	.L166:
1467:Source\LwIP\src\core/tcp_out.c ****   }
1468:Source\LwIP\src\core/tcp_out.c **** #endif /* TCP_OVERSIZE */
1469:Source\LwIP\src\core/tcp_out.c **** 
1470:Source\LwIP\src\core/tcp_out.c ****   if (pcb->nrtx < 0xFF) {
 2788              		.loc 1 1470 0
 2789 006e 4223     		movs	r3, #66
 2790 0070 F35C     		ldrb	r3, [r6, r3]
 2791 0072 FF2B     		cmp	r3, #255
 2792 0074 02D0     		beq	.L167
1471:Source\LwIP\src\core/tcp_out.c ****     ++pcb->nrtx;
 2793              		.loc 1 1471 0
ARM GAS  C:\Users\Phuong\AppData\Local\Temp\cc5dKVKJ.s 			page 81


 2794 0076 0133     		adds	r3, r3, #1
 2795 0078 4222     		movs	r2, #66
 2796 007a B354     		strb	r3, [r6, r2]
 2797              	.L167:
1472:Source\LwIP\src\core/tcp_out.c ****   }
1473:Source\LwIP\src\core/tcp_out.c **** 
1474:Source\LwIP\src\core/tcp_out.c ****   /* Don't take any rtt measurements after retransmitting. */
1475:Source\LwIP\src\core/tcp_out.c ****   pcb->rttest = 0;
 2798              		.loc 1 1475 0
 2799 007c 0023     		movs	r3, #0
 2800 007e 7363     		str	r3, [r6, #52]
 2801              	.LVL324:
 2802              	.L161:
1476:Source\LwIP\src\core/tcp_out.c **** 
1477:Source\LwIP\src\core/tcp_out.c ****   /* Do the actual retransmission. */
1478:Source\LwIP\src\core/tcp_out.c ****   MIB2_STATS_INC(mib2.tcpretranssegs);
1479:Source\LwIP\src\core/tcp_out.c ****   /* No need to call tcp_output: we are always called from tcp_input()
1480:Source\LwIP\src\core/tcp_out.c ****      and thus tcp_output directly returns. */
1481:Source\LwIP\src\core/tcp_out.c **** }
 2803              		.loc 1 1481 0
 2804              		@ sp needed
 2805              	.LVL325:
 2806 0080 F8BD     		pop	{r3, r4, r5, r6, r7, pc}
 2807              		.cfi_endproc
 2808              	.LFE65:
 2809              		.size	tcp_rexmit, .-tcp_rexmit
 2810 0082 C046     		.section	.text.tcp_rexmit_fast,"ax",%progbits
 2811              		.align	2
 2812              		.global	tcp_rexmit_fast
 2813              		.code	16
 2814              		.thumb_func
 2815              		.type	tcp_rexmit_fast, %function
 2816              	tcp_rexmit_fast:
 2817              	.LFB66:
1482:Source\LwIP\src\core/tcp_out.c **** 
1483:Source\LwIP\src\core/tcp_out.c **** 
1484:Source\LwIP\src\core/tcp_out.c **** /**
1485:Source\LwIP\src\core/tcp_out.c ****  * Handle retransmission after three dupacks received
1486:Source\LwIP\src\core/tcp_out.c ****  *
1487:Source\LwIP\src\core/tcp_out.c ****  * @param pcb the tcp_pcb for which to retransmit the first unacked segment
1488:Source\LwIP\src\core/tcp_out.c ****  */
1489:Source\LwIP\src\core/tcp_out.c **** void
1490:Source\LwIP\src\core/tcp_out.c **** tcp_rexmit_fast(struct tcp_pcb *pcb)
1491:Source\LwIP\src\core/tcp_out.c **** {
 2818              		.loc 1 1491 0
 2819              		.cfi_startproc
 2820              		@ args = 0, pretend = 0, frame = 0
 2821              		@ frame_needed = 0, uses_anonymous_args = 0
 2822              	.LVL326:
 2823 0000 10B5     		push	{r4, lr}
 2824              		.cfi_def_cfa_offset 8
 2825              		.cfi_offset 4, -8
 2826              		.cfi_offset 14, -4
 2827 0002 0400     		movs	r4, r0
1492:Source\LwIP\src\core/tcp_out.c ****   if (pcb->unacked != NULL && !(pcb->flags & TF_INFR)) {
 2828              		.loc 1 1492 0
 2829 0004 C36E     		ldr	r3, [r0, #108]
ARM GAS  C:\Users\Phuong\AppData\Local\Temp\cc5dKVKJ.s 			page 82


 2830 0006 002B     		cmp	r3, #0
 2831 0008 24D0     		beq	.L168
 2832              		.loc 1 1492 0 is_stmt 0 discriminator 1
 2833 000a 438B     		ldrh	r3, [r0, #26]
 2834 000c 5B07     		lsls	r3, r3, #29
 2835 000e 21D4     		bmi	.L168
1493:Source\LwIP\src\core/tcp_out.c ****     /* This is fast retransmit. Retransmit the first unacked segment. */
1494:Source\LwIP\src\core/tcp_out.c ****     LWIP_DEBUGF(TCP_FR_DEBUG,
1495:Source\LwIP\src\core/tcp_out.c ****                 ("tcp_receive: dupacks %"U16_F" (%"U32_F
1496:Source\LwIP\src\core/tcp_out.c ****                  "), fast retransmit %"U32_F"\n",
1497:Source\LwIP\src\core/tcp_out.c ****                  (u16_t)pcb->dupacks, pcb->lastack,
1498:Source\LwIP\src\core/tcp_out.c ****                  lwip_ntohl(pcb->unacked->tcphdr->seqno)));
1499:Source\LwIP\src\core/tcp_out.c ****     tcp_rexmit(pcb);
 2836              		.loc 1 1499 0 is_stmt 1
 2837 0010 FFF7FEFF 		bl	tcp_rexmit
 2838              	.LVL327:
1500:Source\LwIP\src\core/tcp_out.c **** 
1501:Source\LwIP\src\core/tcp_out.c ****     /* Set ssthresh to half of the minimum of the current
1502:Source\LwIP\src\core/tcp_out.c ****      * cwnd and the advertised window */
1503:Source\LwIP\src\core/tcp_out.c ****     pcb->ssthresh = LWIP_MIN(pcb->cwnd, pcb->snd_wnd) / 2;
 2839              		.loc 1 1503 0
 2840 0014 5C23     		movs	r3, #92
 2841 0016 E25A     		ldrh	r2, [r4, r3]
 2842 0018 143B     		subs	r3, r3, #20
 2843 001a E15A     		ldrh	r1, [r4, r3]
 2844 001c 131C     		adds	r3, r2, #0
 2845 001e 8A42     		cmp	r2, r1
 2846 0020 00D9     		bls	.L170
 2847 0022 0B1C     		adds	r3, r1, #0
 2848              	.L170:
 2849 0024 9BB2     		uxth	r3, r3
 2850 0026 5B08     		lsrs	r3, r3, #1
 2851 0028 4A22     		movs	r2, #74
 2852 002a A352     		strh	r3, [r4, r2]
1504:Source\LwIP\src\core/tcp_out.c **** 
1505:Source\LwIP\src\core/tcp_out.c ****     /* The minimum value for ssthresh should be 2 MSS */
1506:Source\LwIP\src\core/tcp_out.c ****     if (pcb->ssthresh < (2U * pcb->mss)) {
 2853              		.loc 1 1506 0
 2854 002c 618E     		ldrh	r1, [r4, #50]
 2855 002e 4A00     		lsls	r2, r1, #1
 2856 0030 9342     		cmp	r3, r2
 2857 0032 02D2     		bcs	.L171
1507:Source\LwIP\src\core/tcp_out.c ****       LWIP_DEBUGF(TCP_FR_DEBUG,
1508:Source\LwIP\src\core/tcp_out.c ****                   ("tcp_receive: The minimum value for ssthresh %"TCPWNDSIZE_F
1509:Source\LwIP\src\core/tcp_out.c ****                    " should be min 2 mss %"U16_F"...\n",
1510:Source\LwIP\src\core/tcp_out.c ****                    pcb->ssthresh, (u16_t)(2*pcb->mss)));
1511:Source\LwIP\src\core/tcp_out.c ****       pcb->ssthresh = 2*pcb->mss;
 2858              		.loc 1 1511 0
 2859 0034 1300     		movs	r3, r2
 2860 0036 4A22     		movs	r2, #74
 2861 0038 A352     		strh	r3, [r4, r2]
 2862              	.L171:
1512:Source\LwIP\src\core/tcp_out.c ****     }
1513:Source\LwIP\src\core/tcp_out.c **** 
1514:Source\LwIP\src\core/tcp_out.c ****     pcb->cwnd = pcb->ssthresh + 3 * pcb->mss;
 2863              		.loc 1 1514 0
 2864 003a 4A23     		movs	r3, #74
ARM GAS  C:\Users\Phuong\AppData\Local\Temp\cc5dKVKJ.s 			page 83


 2865 003c E05A     		ldrh	r0, [r4, r3]
 2866 003e 4A00     		lsls	r2, r1, #1
 2867 0040 8B18     		adds	r3, r1, r2
 2868 0042 C318     		adds	r3, r0, r3
 2869 0044 4822     		movs	r2, #72
 2870 0046 A352     		strh	r3, [r4, r2]
1515:Source\LwIP\src\core/tcp_out.c ****     pcb->flags |= TF_INFR;
 2871              		.loc 1 1515 0
 2872 0048 628B     		ldrh	r2, [r4, #26]
 2873 004a 0423     		movs	r3, #4
 2874 004c 1343     		orrs	r3, r2
 2875 004e 6383     		strh	r3, [r4, #26]
1516:Source\LwIP\src\core/tcp_out.c **** 
1517:Source\LwIP\src\core/tcp_out.c ****     /* Reset the retransmission timer to prevent immediate rto retransmissions */
1518:Source\LwIP\src\core/tcp_out.c ****     pcb->rtime = 0;
 2876              		.loc 1 1518 0
 2877 0050 0023     		movs	r3, #0
 2878 0052 2386     		strh	r3, [r4, #48]
 2879              	.L168:
1519:Source\LwIP\src\core/tcp_out.c ****   }
1520:Source\LwIP\src\core/tcp_out.c **** }
 2880              		.loc 1 1520 0
 2881              		@ sp needed
 2882              	.LVL328:
 2883 0054 10BD     		pop	{r4, pc}
 2884              		.cfi_endproc
 2885              	.LFE66:
 2886              		.size	tcp_rexmit_fast, .-tcp_rexmit_fast
 2887 0056 C046     		.section	.text.tcp_keepalive,"ax",%progbits
 2888              		.align	2
 2889              		.global	tcp_keepalive
 2890              		.code	16
 2891              		.thumb_func
 2892              		.type	tcp_keepalive, %function
 2893              	tcp_keepalive:
 2894              	.LFB67:
1521:Source\LwIP\src\core/tcp_out.c **** 
1522:Source\LwIP\src\core/tcp_out.c **** 
1523:Source\LwIP\src\core/tcp_out.c **** /**
1524:Source\LwIP\src\core/tcp_out.c ****  * Send keepalive packets to keep a connection active although
1525:Source\LwIP\src\core/tcp_out.c ****  * no data is sent over it.
1526:Source\LwIP\src\core/tcp_out.c ****  *
1527:Source\LwIP\src\core/tcp_out.c ****  * Called by tcp_slowtmr()
1528:Source\LwIP\src\core/tcp_out.c ****  *
1529:Source\LwIP\src\core/tcp_out.c ****  * @param pcb the tcp_pcb for which to send a keepalive packet
1530:Source\LwIP\src\core/tcp_out.c ****  */
1531:Source\LwIP\src\core/tcp_out.c **** err_t
1532:Source\LwIP\src\core/tcp_out.c **** tcp_keepalive(struct tcp_pcb *pcb)
1533:Source\LwIP\src\core/tcp_out.c **** {
 2895              		.loc 1 1533 0
 2896              		.cfi_startproc
 2897              		@ args = 0, pretend = 0, frame = 0
 2898              		@ frame_needed = 0, uses_anonymous_args = 0
 2899              	.LVL329:
 2900 0000 F0B5     		push	{r4, r5, r6, r7, lr}
 2901              		.cfi_def_cfa_offset 20
 2902              		.cfi_offset 4, -20
ARM GAS  C:\Users\Phuong\AppData\Local\Temp\cc5dKVKJ.s 			page 84


 2903              		.cfi_offset 5, -16
 2904              		.cfi_offset 6, -12
 2905              		.cfi_offset 7, -8
 2906              		.cfi_offset 14, -4
 2907 0002 4746     		mov	r7, r8
 2908 0004 80B4     		push	{r7}
 2909              		.cfi_def_cfa_offset 24
 2910              		.cfi_offset 8, -24
 2911 0006 84B0     		sub	sp, sp, #16
 2912              		.cfi_def_cfa_offset 40
 2913 0008 0400     		movs	r4, r0
1534:Source\LwIP\src\core/tcp_out.c ****   err_t err;
1535:Source\LwIP\src\core/tcp_out.c ****   struct pbuf *p;
1536:Source\LwIP\src\core/tcp_out.c ****   struct netif *netif;
1537:Source\LwIP\src\core/tcp_out.c **** 
1538:Source\LwIP\src\core/tcp_out.c ****   LWIP_DEBUGF(TCP_DEBUG, ("tcp_keepalive: sending KEEPALIVE probe to "));
1539:Source\LwIP\src\core/tcp_out.c ****   ip_addr_debug_print(TCP_DEBUG, &pcb->remote_ip);
1540:Source\LwIP\src\core/tcp_out.c ****   LWIP_DEBUGF(TCP_DEBUG, ("\n"));
1541:Source\LwIP\src\core/tcp_out.c **** 
1542:Source\LwIP\src\core/tcp_out.c ****   LWIP_DEBUGF(TCP_DEBUG, ("tcp_keepalive: tcp_ticks %"U32_F"   pcb->tmr %"U32_F" pcb->keep_cnt_sent
1543:Source\LwIP\src\core/tcp_out.c ****                           tcp_ticks, pcb->tmr, (u16_t)pcb->keep_cnt_sent));
1544:Source\LwIP\src\core/tcp_out.c **** 
1545:Source\LwIP\src\core/tcp_out.c ****   p = tcp_output_alloc_header(pcb, 0, 0, lwip_htonl(pcb->snd_nxt - 1));
 2914              		.loc 1 1545 0
 2915 000a C36C     		ldr	r3, [r0, #76]
 2916 000c 581E     		subs	r0, r3, #1
 2917              	.LVL330:
 2918 000e FFF7FEFF 		bl	lwip_htonl
 2919              	.LVL331:
 2920 0012 0300     		movs	r3, r0
 2921 0014 0022     		movs	r2, #0
 2922 0016 0021     		movs	r1, #0
 2923 0018 2000     		movs	r0, r4
 2924 001a FFF7FEFF 		bl	tcp_output_alloc_header
 2925              	.LVL332:
 2926 001e 051E     		subs	r5, r0, #0
 2927              	.LVL333:
1546:Source\LwIP\src\core/tcp_out.c ****   if (p == NULL) {
 2928              		.loc 1 1546 0
 2929 0020 2BD0     		beq	.L175
1547:Source\LwIP\src\core/tcp_out.c ****     LWIP_DEBUGF(TCP_DEBUG,
1548:Source\LwIP\src\core/tcp_out.c ****                 ("tcp_keepalive: could not allocate memory for pbuf\n"));
1549:Source\LwIP\src\core/tcp_out.c ****     return ERR_MEM;
1550:Source\LwIP\src\core/tcp_out.c ****   }
1551:Source\LwIP\src\core/tcp_out.c ****   netif = ip_route(&pcb->local_ip, &pcb->remote_ip);
 2930              		.loc 1 1551 0
 2931 0022 261D     		adds	r6, r4, #4
 2932 0024 3000     		movs	r0, r6
 2933              	.LVL334:
 2934 0026 FFF7FEFF 		bl	ip4_route
 2935              	.LVL335:
 2936 002a 071E     		subs	r7, r0, #0
 2937              	.LVL336:
1552:Source\LwIP\src\core/tcp_out.c ****   if (netif == NULL) {
 2938              		.loc 1 1552 0
 2939 002c 1ED0     		beq	.L176
 2940              	.LBB16:
ARM GAS  C:\Users\Phuong\AppData\Local\Temp\cc5dKVKJ.s 			page 85


1553:Source\LwIP\src\core/tcp_out.c ****     err = ERR_RTE;
1554:Source\LwIP\src\core/tcp_out.c ****   } else {
1555:Source\LwIP\src\core/tcp_out.c **** #if CHECKSUM_GEN_TCP
1556:Source\LwIP\src\core/tcp_out.c ****     IF__NETIF_CHECKSUM_ENABLED(netif, NETIF_CHECKSUM_GEN_TCP) {
1557:Source\LwIP\src\core/tcp_out.c ****       struct tcp_hdr *tcphdr = (struct tcp_hdr *)p->payload;
 2941              		.loc 1 1557 0
 2942 002e 6B68     		ldr	r3, [r5, #4]
 2943 0030 9846     		mov	r8, r3
 2944              	.LVL337:
1558:Source\LwIP\src\core/tcp_out.c ****       tcphdr->chksum = ip_chksum_pseudo(p, IP_PROTO_TCP, p->tot_len,
 2945              		.loc 1 1558 0
 2946 0032 2A89     		ldrh	r2, [r5, #8]
 2947 0034 0096     		str	r6, [sp]
 2948 0036 2300     		movs	r3, r4
 2949              	.LVL338:
 2950 0038 0621     		movs	r1, #6
 2951 003a 2800     		movs	r0, r5
 2952              	.LVL339:
 2953 003c FFF7FEFF 		bl	ip_chksum_pseudo
 2954              	.LVL340:
 2955 0040 4346     		mov	r3, r8
 2956 0042 1874     		strb	r0, [r3, #16]
 2957 0044 000A     		lsrs	r0, r0, #8
 2958 0046 5874     		strb	r0, [r3, #17]
 2959              	.LBE16:
1559:Source\LwIP\src\core/tcp_out.c ****         &pcb->local_ip, &pcb->remote_ip);
1560:Source\LwIP\src\core/tcp_out.c ****     }
1561:Source\LwIP\src\core/tcp_out.c **** #endif /* CHECKSUM_GEN_TCP */
1562:Source\LwIP\src\core/tcp_out.c ****     TCP_STATS_INC(tcp.xmit);
 2960              		.loc 1 1562 0
 2961 0048 0F49     		ldr	r1, .L177
 2962 004a AC22     		movs	r2, #172
 2963 004c 8B5A     		ldrh	r3, [r1, r2]
 2964 004e 0133     		adds	r3, r3, #1
 2965 0050 8B52     		strh	r3, [r1, r2]
1563:Source\LwIP\src\core/tcp_out.c **** 
1564:Source\LwIP\src\core/tcp_out.c ****     /* Send output to IP */
1565:Source\LwIP\src\core/tcp_out.c ****     NETIF_SET_HWADDRHINT(netif, &(pcb->addr_hint));
1566:Source\LwIP\src\core/tcp_out.c ****     err = ip_output_if(p, &pcb->local_ip, &pcb->remote_ip, pcb->ttl, 0, IP_PROTO_TCP, netif);
 2966              		.loc 1 1566 0
 2967 0052 A37A     		ldrb	r3, [r4, #10]
 2968 0054 0297     		str	r7, [sp, #8]
 2969 0056 A63A     		subs	r2, r2, #166
 2970 0058 0192     		str	r2, [sp, #4]
 2971 005a 0022     		movs	r2, #0
 2972 005c 0092     		str	r2, [sp]
 2973 005e 3200     		movs	r2, r6
 2974 0060 2100     		movs	r1, r4
 2975 0062 2800     		movs	r0, r5
 2976 0064 FFF7FEFF 		bl	ip4_output_if
 2977              	.LVL341:
 2978 0068 0400     		movs	r4, r0
 2979              	.LVL342:
 2980 006a 01E0     		b	.L174
 2981              	.LVL343:
 2982              	.L176:
1553:Source\LwIP\src\core/tcp_out.c ****   } else {
ARM GAS  C:\Users\Phuong\AppData\Local\Temp\cc5dKVKJ.s 			page 86


 2983              		.loc 1 1553 0
 2984 006c 0424     		movs	r4, #4
 2985              	.LVL344:
 2986 006e 6442     		rsbs	r4, r4, #0
 2987              	.LVL345:
 2988              	.L174:
1567:Source\LwIP\src\core/tcp_out.c ****     NETIF_SET_HWADDRHINT(netif, NULL);
1568:Source\LwIP\src\core/tcp_out.c ****   }
1569:Source\LwIP\src\core/tcp_out.c ****   pbuf_free(p);
 2989              		.loc 1 1569 0
 2990 0070 2800     		movs	r0, r5
 2991 0072 FFF7FEFF 		bl	pbuf_free
 2992              	.LVL346:
1570:Source\LwIP\src\core/tcp_out.c **** 
1571:Source\LwIP\src\core/tcp_out.c ****   LWIP_DEBUGF(TCP_DEBUG, ("tcp_keepalive: seqno %"U32_F" ackno %"U32_F" err %d.\n",
1572:Source\LwIP\src\core/tcp_out.c ****                           pcb->snd_nxt - 1, pcb->rcv_nxt, (int)err));
1573:Source\LwIP\src\core/tcp_out.c ****   return err;
 2993              		.loc 1 1573 0
 2994 0076 2000     		movs	r0, r4
 2995 0078 01E0     		b	.L173
 2996              	.LVL347:
 2997              	.L175:
1549:Source\LwIP\src\core/tcp_out.c ****   }
 2998              		.loc 1 1549 0
 2999 007a 0120     		movs	r0, #1
 3000              	.LVL348:
 3001 007c 4042     		rsbs	r0, r0, #0
 3002              	.LVL349:
 3003              	.L173:
1574:Source\LwIP\src\core/tcp_out.c **** }
 3004              		.loc 1 1574 0
 3005 007e 04B0     		add	sp, sp, #16
 3006              		@ sp needed
 3007              	.LVL350:
 3008 0080 04BC     		pop	{r2}
 3009 0082 9046     		mov	r8, r2
 3010 0084 F0BD     		pop	{r4, r5, r6, r7, pc}
 3011              	.L178:
 3012 0086 C046     		.align	2
 3013              	.L177:
 3014 0088 00000000 		.word	lwip_stats
 3015              		.cfi_endproc
 3016              	.LFE67:
 3017              		.size	tcp_keepalive, .-tcp_keepalive
 3018              		.section	.text.tcp_zero_window_probe,"ax",%progbits
 3019              		.align	2
 3020              		.global	tcp_zero_window_probe
 3021              		.code	16
 3022              		.thumb_func
 3023              		.type	tcp_zero_window_probe, %function
 3024              	tcp_zero_window_probe:
 3025              	.LFB68:
1575:Source\LwIP\src\core/tcp_out.c **** 
1576:Source\LwIP\src\core/tcp_out.c **** 
1577:Source\LwIP\src\core/tcp_out.c **** /**
1578:Source\LwIP\src\core/tcp_out.c ****  * Send persist timer zero-window probes to keep a connection active
1579:Source\LwIP\src\core/tcp_out.c ****  * when a window update is lost.
ARM GAS  C:\Users\Phuong\AppData\Local\Temp\cc5dKVKJ.s 			page 87


1580:Source\LwIP\src\core/tcp_out.c ****  *
1581:Source\LwIP\src\core/tcp_out.c ****  * Called by tcp_slowtmr()
1582:Source\LwIP\src\core/tcp_out.c ****  *
1583:Source\LwIP\src\core/tcp_out.c ****  * @param pcb the tcp_pcb for which to send a zero-window probe packet
1584:Source\LwIP\src\core/tcp_out.c ****  */
1585:Source\LwIP\src\core/tcp_out.c **** err_t
1586:Source\LwIP\src\core/tcp_out.c **** tcp_zero_window_probe(struct tcp_pcb *pcb)
1587:Source\LwIP\src\core/tcp_out.c **** {
 3026              		.loc 1 1587 0
 3027              		.cfi_startproc
 3028              		@ args = 0, pretend = 0, frame = 0
 3029              		@ frame_needed = 0, uses_anonymous_args = 0
 3030              	.LVL351:
 3031 0000 F0B5     		push	{r4, r5, r6, r7, lr}
 3032              		.cfi_def_cfa_offset 20
 3033              		.cfi_offset 4, -20
 3034              		.cfi_offset 5, -16
 3035              		.cfi_offset 6, -12
 3036              		.cfi_offset 7, -8
 3037              		.cfi_offset 14, -4
 3038 0002 4746     		mov	r7, r8
 3039 0004 80B4     		push	{r7}
 3040              		.cfi_def_cfa_offset 24
 3041              		.cfi_offset 8, -24
 3042 0006 84B0     		sub	sp, sp, #16
 3043              		.cfi_def_cfa_offset 40
 3044 0008 0500     		movs	r5, r0
1588:Source\LwIP\src\core/tcp_out.c ****   err_t err;
1589:Source\LwIP\src\core/tcp_out.c ****   struct pbuf *p;
1590:Source\LwIP\src\core/tcp_out.c ****   struct tcp_hdr *tcphdr;
1591:Source\LwIP\src\core/tcp_out.c ****   struct tcp_seg *seg;
1592:Source\LwIP\src\core/tcp_out.c ****   u16_t len;
1593:Source\LwIP\src\core/tcp_out.c ****   u8_t is_fin;
1594:Source\LwIP\src\core/tcp_out.c ****   u32_t snd_nxt;
1595:Source\LwIP\src\core/tcp_out.c ****   struct netif *netif;
1596:Source\LwIP\src\core/tcp_out.c **** 
1597:Source\LwIP\src\core/tcp_out.c ****   LWIP_DEBUGF(TCP_DEBUG, ("tcp_zero_window_probe: sending ZERO WINDOW probe to "));
1598:Source\LwIP\src\core/tcp_out.c ****   ip_addr_debug_print(TCP_DEBUG, &pcb->remote_ip);
1599:Source\LwIP\src\core/tcp_out.c ****   LWIP_DEBUGF(TCP_DEBUG, ("\n"));
1600:Source\LwIP\src\core/tcp_out.c **** 
1601:Source\LwIP\src\core/tcp_out.c ****   LWIP_DEBUGF(TCP_DEBUG,
1602:Source\LwIP\src\core/tcp_out.c ****               ("tcp_zero_window_probe: tcp_ticks %"U32_F
1603:Source\LwIP\src\core/tcp_out.c ****                "   pcb->tmr %"U32_F" pcb->keep_cnt_sent %"U16_F"\n",
1604:Source\LwIP\src\core/tcp_out.c ****                tcp_ticks, pcb->tmr, (u16_t)pcb->keep_cnt_sent));
1605:Source\LwIP\src\core/tcp_out.c **** 
1606:Source\LwIP\src\core/tcp_out.c ****   seg = pcb->unacked;
 3045              		.loc 1 1606 0
 3046 000a C46E     		ldr	r4, [r0, #108]
 3047              	.LVL352:
1607:Source\LwIP\src\core/tcp_out.c **** 
1608:Source\LwIP\src\core/tcp_out.c ****   if (seg == NULL) {
 3048              		.loc 1 1608 0
 3049 000c 002C     		cmp	r4, #0
 3050 000e 00D1     		bne	.L180
1609:Source\LwIP\src\core/tcp_out.c ****     seg = pcb->unsent;
 3051              		.loc 1 1609 0
 3052 0010 846E     		ldr	r4, [r0, #104]
ARM GAS  C:\Users\Phuong\AppData\Local\Temp\cc5dKVKJ.s 			page 88


 3053              	.LVL353:
 3054              	.L180:
1610:Source\LwIP\src\core/tcp_out.c ****   }
1611:Source\LwIP\src\core/tcp_out.c ****   if (seg == NULL) {
 3055              		.loc 1 1611 0
 3056 0012 002C     		cmp	r4, #0
 3057 0014 00D1     		bne	.LCB3328
 3058 0016 85E0     		b	.L187	@long jump
 3059              	.LCB3328:
1612:Source\LwIP\src\core/tcp_out.c ****     /* nothing to send, zero window probe not needed */
1613:Source\LwIP\src\core/tcp_out.c ****     return ERR_OK;
1614:Source\LwIP\src\core/tcp_out.c ****   }
1615:Source\LwIP\src\core/tcp_out.c **** 
1616:Source\LwIP\src\core/tcp_out.c ****   is_fin = ((TCPH_FLAGS(seg->tcphdr) & TCP_FIN) != 0) && (seg->len == 0);
 3060              		.loc 1 1616 0
 3061 0018 2269     		ldr	r2, [r4, #16]
 3062 001a 137B     		ldrb	r3, [r2, #12]
 3063 001c 507B     		ldrb	r0, [r2, #13]
 3064              	.LVL354:
 3065 001e 0002     		lsls	r0, r0, #8
 3066 0020 1843     		orrs	r0, r3
 3067 0022 FFF7FEFF 		bl	lwip_htons
 3068              	.LVL355:
 3069 0026 C307     		lsls	r3, r0, #31
 3070 0028 04D5     		bpl	.L188
 3071              		.loc 1 1616 0 is_stmt 0 discriminator 1
 3072 002a 2389     		ldrh	r3, [r4, #8]
 3073 002c 002B     		cmp	r3, #0
 3074 002e 03D0     		beq	.L189
 3075              		.loc 1 1616 0
 3076 0030 0027     		movs	r7, #0
 3077 0032 02E0     		b	.L182
 3078              	.L188:
 3079 0034 0027     		movs	r7, #0
 3080 0036 00E0     		b	.L182
 3081              	.L189:
 3082 0038 0127     		movs	r7, #1
 3083              	.L182:
 3084              		.loc 1 1616 0 discriminator 6
 3085 003a FFB2     		uxtb	r7, r7
 3086              	.LVL356:
1617:Source\LwIP\src\core/tcp_out.c ****   /* we want to send one seqno: either FIN or data (no options) */
1618:Source\LwIP\src\core/tcp_out.c ****   len = is_fin ? 0 : 1;
 3087              		.loc 1 1618 0 is_stmt 1 discriminator 6
 3088 003c 7A42     		rsbs	r2, r7, #0
 3089 003e 7A41     		adcs	r2, r2, r7
 3090 0040 9446     		mov	ip, r2
 3091              	.LVL357:
1619:Source\LwIP\src\core/tcp_out.c **** 
1620:Source\LwIP\src\core/tcp_out.c ****   p = tcp_output_alloc_header(pcb, 0, len, seg->tcphdr->seqno);
 3092              		.loc 1 1620 0 discriminator 6
 3093 0042 2269     		ldr	r2, [r4, #16]
 3094 0044 1679     		ldrb	r6, [r2, #4]
 3095 0046 5179     		ldrb	r1, [r2, #5]
 3096 0048 0902     		lsls	r1, r1, #8
 3097 004a 3143     		orrs	r1, r6
 3098 004c 9379     		ldrb	r3, [r2, #6]
ARM GAS  C:\Users\Phuong\AppData\Local\Temp\cc5dKVKJ.s 			page 89


 3099 004e 1B04     		lsls	r3, r3, #16
 3100 0050 0B43     		orrs	r3, r1
 3101 0052 1900     		movs	r1, r3
 3102 0054 D379     		ldrb	r3, [r2, #7]
 3103 0056 1B06     		lsls	r3, r3, #24
 3104 0058 0B43     		orrs	r3, r1
 3105 005a 6246     		mov	r2, ip
 3106 005c 0021     		movs	r1, #0
 3107 005e 2800     		movs	r0, r5
 3108 0060 FFF7FEFF 		bl	tcp_output_alloc_header
 3109              	.LVL358:
 3110 0064 061E     		subs	r6, r0, #0
 3111              	.LVL359:
1621:Source\LwIP\src\core/tcp_out.c ****   if (p == NULL) {
 3112              		.loc 1 1621 0 discriminator 6
 3113 0066 5FD0     		beq	.L190
1622:Source\LwIP\src\core/tcp_out.c ****     LWIP_DEBUGF(TCP_DEBUG, ("tcp_zero_window_probe: no memory for pbuf\n"));
1623:Source\LwIP\src\core/tcp_out.c ****     return ERR_MEM;
1624:Source\LwIP\src\core/tcp_out.c ****   }
1625:Source\LwIP\src\core/tcp_out.c ****   tcphdr = (struct tcp_hdr *)p->payload;
 3114              		.loc 1 1625 0
 3115 0068 4368     		ldr	r3, [r0, #4]
 3116 006a 9846     		mov	r8, r3
 3117              	.LVL360:
1626:Source\LwIP\src\core/tcp_out.c **** 
1627:Source\LwIP\src\core/tcp_out.c ****   if (is_fin) {
 3118              		.loc 1 1627 0
 3119 006c 002F     		cmp	r7, #0
 3120 006e 10D0     		beq	.L183
1628:Source\LwIP\src\core/tcp_out.c ****     /* FIN segment, no data */
1629:Source\LwIP\src\core/tcp_out.c ****     TCPH_FLAGS_SET(tcphdr, TCP_ACK | TCP_FIN);
 3121              		.loc 1 1629 0
 3122 0070 1A7B     		ldrb	r2, [r3, #12]
 3123 0072 5B7B     		ldrb	r3, [r3, #13]
 3124              	.LVL361:
 3125 0074 1B02     		lsls	r3, r3, #8
 3126 0076 1343     		orrs	r3, r2
 3127 0078 1F00     		movs	r7, r3
 3128              	.LVL362:
 3129 007a 1120     		movs	r0, #17
 3130              	.LVL363:
 3131 007c FFF7FEFF 		bl	lwip_htons
 3132              	.LVL364:
 3133 0080 2C4B     		ldr	r3, .L192
 3134 0082 3B40     		ands	r3, r7
 3135 0084 1843     		orrs	r0, r3
 3136 0086 80B2     		uxth	r0, r0
 3137 0088 4346     		mov	r3, r8
 3138 008a 1873     		strb	r0, [r3, #12]
 3139 008c 000A     		lsrs	r0, r0, #8
 3140 008e 5873     		strb	r0, [r3, #13]
 3141 0090 0AE0     		b	.L184
 3142              	.LVL365:
 3143              	.L183:
 3144              	.LBB17:
1630:Source\LwIP\src\core/tcp_out.c ****   } else {
1631:Source\LwIP\src\core/tcp_out.c ****     /* Data segment, copy in one byte from the head of the unacked queue */
ARM GAS  C:\Users\Phuong\AppData\Local\Temp\cc5dKVKJ.s 			page 90


1632:Source\LwIP\src\core/tcp_out.c ****     char *d = ((char *)p->payload + TCP_HLEN);
 3145              		.loc 1 1632 0
 3146 0092 1900     		movs	r1, r3
 3147 0094 1431     		adds	r1, r1, #20
1633:Source\LwIP\src\core/tcp_out.c ****     /* Depending on whether the segment has already been sent (unacked) or not
1634:Source\LwIP\src\core/tcp_out.c ****        (unsent), seg->p->payload points to the IP header or TCP header.
1635:Source\LwIP\src\core/tcp_out.c ****        Ensure we copy the first TCP data byte: */
1636:Source\LwIP\src\core/tcp_out.c ****     pbuf_copy_partial(seg->p, d, 1, seg->p->tot_len - seg->len);
 3148              		.loc 1 1636 0
 3149 0096 6368     		ldr	r3, [r4, #4]
 3150              	.LVL366:
 3151 0098 1B89     		ldrh	r3, [r3, #8]
 3152 009a 2289     		ldrh	r2, [r4, #8]
 3153 009c 9B1A     		subs	r3, r3, r2
 3154 009e 9BB2     		uxth	r3, r3
 3155 00a0 0122     		movs	r2, #1
 3156 00a2 6068     		ldr	r0, [r4, #4]
 3157              	.LVL367:
 3158 00a4 FFF7FEFF 		bl	pbuf_copy_partial
 3159              	.LVL368:
 3160              	.L184:
 3161              	.LBE17:
1637:Source\LwIP\src\core/tcp_out.c ****   }
1638:Source\LwIP\src\core/tcp_out.c **** 
1639:Source\LwIP\src\core/tcp_out.c ****   /* The byte may be acknowledged without the window being opened. */
1640:Source\LwIP\src\core/tcp_out.c ****   snd_nxt = lwip_ntohl(seg->tcphdr->seqno) + 1;
 3162              		.loc 1 1640 0
 3163 00a8 2469     		ldr	r4, [r4, #16]
 3164              	.LVL369:
 3165 00aa 2179     		ldrb	r1, [r4, #4]
 3166 00ac 6379     		ldrb	r3, [r4, #5]
 3167 00ae 1B02     		lsls	r3, r3, #8
 3168 00b0 0B43     		orrs	r3, r1
 3169 00b2 1A00     		movs	r2, r3
 3170 00b4 A079     		ldrb	r0, [r4, #6]
 3171 00b6 0004     		lsls	r0, r0, #16
 3172 00b8 0300     		movs	r3, r0
 3173 00ba 1343     		orrs	r3, r2
 3174 00bc E079     		ldrb	r0, [r4, #7]
 3175 00be 0006     		lsls	r0, r0, #24
 3176 00c0 1843     		orrs	r0, r3
 3177 00c2 FFF7FEFF 		bl	lwip_htonl
 3178              	.LVL370:
 3179 00c6 0130     		adds	r0, r0, #1
 3180              	.LVL371:
1641:Source\LwIP\src\core/tcp_out.c ****   if (TCP_SEQ_LT(pcb->snd_nxt, snd_nxt)) {
 3181              		.loc 1 1641 0
 3182 00c8 EB6C     		ldr	r3, [r5, #76]
 3183 00ca 1B1A     		subs	r3, r3, r0
 3184 00cc 00D5     		bpl	.L185
1642:Source\LwIP\src\core/tcp_out.c ****     pcb->snd_nxt = snd_nxt;
 3185              		.loc 1 1642 0
 3186 00ce E864     		str	r0, [r5, #76]
 3187              	.L185:
1643:Source\LwIP\src\core/tcp_out.c ****   }
1644:Source\LwIP\src\core/tcp_out.c **** 
1645:Source\LwIP\src\core/tcp_out.c ****   netif = ip_route(&pcb->local_ip, &pcb->remote_ip);
ARM GAS  C:\Users\Phuong\AppData\Local\Temp\cc5dKVKJ.s 			page 91


 3188              		.loc 1 1645 0
 3189 00d0 2C1D     		adds	r4, r5, #4
 3190 00d2 2000     		movs	r0, r4
 3191              	.LVL372:
 3192 00d4 FFF7FEFF 		bl	ip4_route
 3193              	.LVL373:
 3194 00d8 071E     		subs	r7, r0, #0
 3195              	.LVL374:
1646:Source\LwIP\src\core/tcp_out.c ****   if (netif == NULL) {
 3196              		.loc 1 1646 0
 3197 00da 1CD0     		beq	.L191
1647:Source\LwIP\src\core/tcp_out.c ****     err = ERR_RTE;
1648:Source\LwIP\src\core/tcp_out.c ****   } else {
1649:Source\LwIP\src\core/tcp_out.c **** #if CHECKSUM_GEN_TCP
1650:Source\LwIP\src\core/tcp_out.c ****     IF__NETIF_CHECKSUM_ENABLED(netif, NETIF_CHECKSUM_GEN_TCP) {
1651:Source\LwIP\src\core/tcp_out.c ****       tcphdr->chksum = ip_chksum_pseudo(p, IP_PROTO_TCP, p->tot_len,
 3198              		.loc 1 1651 0
 3199 00dc 3289     		ldrh	r2, [r6, #8]
 3200 00de 0094     		str	r4, [sp]
 3201 00e0 2B00     		movs	r3, r5
 3202 00e2 0621     		movs	r1, #6
 3203 00e4 3000     		movs	r0, r6
 3204              	.LVL375:
 3205 00e6 FFF7FEFF 		bl	ip_chksum_pseudo
 3206              	.LVL376:
 3207 00ea 4346     		mov	r3, r8
 3208 00ec 1874     		strb	r0, [r3, #16]
 3209 00ee 000A     		lsrs	r0, r0, #8
 3210 00f0 5874     		strb	r0, [r3, #17]
1652:Source\LwIP\src\core/tcp_out.c ****         &pcb->local_ip, &pcb->remote_ip);
1653:Source\LwIP\src\core/tcp_out.c ****     }
1654:Source\LwIP\src\core/tcp_out.c **** #endif
1655:Source\LwIP\src\core/tcp_out.c ****     TCP_STATS_INC(tcp.xmit);
 3211              		.loc 1 1655 0
 3212 00f2 1149     		ldr	r1, .L192+4
 3213 00f4 AC22     		movs	r2, #172
 3214 00f6 8B5A     		ldrh	r3, [r1, r2]
 3215 00f8 0133     		adds	r3, r3, #1
 3216 00fa 8B52     		strh	r3, [r1, r2]
1656:Source\LwIP\src\core/tcp_out.c **** 
1657:Source\LwIP\src\core/tcp_out.c ****     /* Send output to IP */
1658:Source\LwIP\src\core/tcp_out.c ****     NETIF_SET_HWADDRHINT(netif, &(pcb->addr_hint));
1659:Source\LwIP\src\core/tcp_out.c ****     err = ip_output_if(p, &pcb->local_ip, &pcb->remote_ip, pcb->ttl,
 3217              		.loc 1 1659 0
 3218 00fc AB7A     		ldrb	r3, [r5, #10]
 3219 00fe 0297     		str	r7, [sp, #8]
 3220 0100 A63A     		subs	r2, r2, #166
 3221 0102 0192     		str	r2, [sp, #4]
 3222 0104 0022     		movs	r2, #0
 3223 0106 0092     		str	r2, [sp]
 3224 0108 2200     		movs	r2, r4
 3225 010a 2900     		movs	r1, r5
 3226 010c 3000     		movs	r0, r6
 3227 010e FFF7FEFF 		bl	ip4_output_if
 3228              	.LVL377:
 3229 0112 0400     		movs	r4, r0
 3230              	.LVL378:
ARM GAS  C:\Users\Phuong\AppData\Local\Temp\cc5dKVKJ.s 			page 92


 3231 0114 01E0     		b	.L186
 3232              	.LVL379:
 3233              	.L191:
1647:Source\LwIP\src\core/tcp_out.c ****   } else {
 3234              		.loc 1 1647 0
 3235 0116 0424     		movs	r4, #4
 3236 0118 6442     		rsbs	r4, r4, #0
 3237              	.LVL380:
 3238              	.L186:
1660:Source\LwIP\src\core/tcp_out.c ****       0, IP_PROTO_TCP, netif);
1661:Source\LwIP\src\core/tcp_out.c ****     NETIF_SET_HWADDRHINT(netif, NULL);
1662:Source\LwIP\src\core/tcp_out.c ****   }
1663:Source\LwIP\src\core/tcp_out.c **** 
1664:Source\LwIP\src\core/tcp_out.c ****   pbuf_free(p);
 3239              		.loc 1 1664 0
 3240 011a 3000     		movs	r0, r6
 3241 011c FFF7FEFF 		bl	pbuf_free
 3242              	.LVL381:
1665:Source\LwIP\src\core/tcp_out.c **** 
1666:Source\LwIP\src\core/tcp_out.c ****   LWIP_DEBUGF(TCP_DEBUG, ("tcp_zero_window_probe: seqno %"U32_F
1667:Source\LwIP\src\core/tcp_out.c ****                           " ackno %"U32_F" err %d.\n",
1668:Source\LwIP\src\core/tcp_out.c ****                           pcb->snd_nxt - 1, pcb->rcv_nxt, (int)err));
1669:Source\LwIP\src\core/tcp_out.c ****   return err;
 3243              		.loc 1 1669 0
 3244 0120 2000     		movs	r0, r4
 3245 0122 03E0     		b	.L181
 3246              	.LVL382:
 3247              	.L187:
1613:Source\LwIP\src\core/tcp_out.c ****   }
 3248              		.loc 1 1613 0
 3249 0124 0020     		movs	r0, #0
 3250              	.LVL383:
 3251 0126 01E0     		b	.L181
 3252              	.LVL384:
 3253              	.L190:
1623:Source\LwIP\src\core/tcp_out.c ****   }
 3254              		.loc 1 1623 0
 3255 0128 0120     		movs	r0, #1
 3256              	.LVL385:
 3257 012a 4042     		rsbs	r0, r0, #0
 3258              	.LVL386:
 3259              	.L181:
1670:Source\LwIP\src\core/tcp_out.c **** }
 3260              		.loc 1 1670 0
 3261 012c 04B0     		add	sp, sp, #16
 3262              		@ sp needed
 3263              	.LVL387:
 3264 012e 04BC     		pop	{r2}
 3265 0130 9046     		mov	r8, r2
 3266 0132 F0BD     		pop	{r4, r5, r6, r7, pc}
 3267              	.L193:
 3268              		.align	2
 3269              	.L192:
 3270 0134 FFC0FFFF 		.word	-16129
 3271 0138 00000000 		.word	lwip_stats
 3272              		.cfi_endproc
 3273              	.LFE68:
ARM GAS  C:\Users\Phuong\AppData\Local\Temp\cc5dKVKJ.s 			page 93


 3274              		.size	tcp_zero_window_probe, .-tcp_zero_window_probe
 3275              		.section	.rodata.str1.4,"aMS",%progbits,1
 3276              		.align	2
 3277              	.LC1:
 3278 0000 536F7572 		.ascii	"Source\\LwIP\\src\\core\\tcp_out.c\000"
 3278      63655C4C 
 3278      7749505C 
 3278      7372635C 
 3278      636F7265 
 3279              		.text
 3280              	.Letext0:
 3281              		.file 2 "c:\\program files (x86)\\cypress\\psoc creator\\4.2\\psoc creator\\import\\gnu\\arm\\5.4.
 3282              		.file 3 "c:\\program files (x86)\\cypress\\psoc creator\\4.2\\psoc creator\\import\\gnu\\arm\\5.4.
 3283              		.file 4 "c:\\program files (x86)\\cypress\\psoc creator\\4.2\\psoc creator\\import\\gnu\\arm\\5.4.
 3284              		.file 5 ".\\Source\\LwIP\\src\\include/arch/cc.h"
 3285              		.file 6 ".\\Source\\LwIP\\src\\include/lwip/arch.h"
 3286              		.file 7 ".\\Source\\LwIP\\src\\include/lwip/mem.h"
 3287              		.file 8 ".\\Source\\LwIP\\src\\include/lwip/err.h"
 3288              		.file 9 ".\\Source\\LwIP\\src\\include/lwip/pbuf.h"
 3289              		.file 10 ".\\Source\\LwIP\\src\\include/lwip/ip4_addr.h"
 3290              		.file 11 ".\\Source\\LwIP\\src\\include/lwip/ip_addr.h"
 3291              		.file 12 ".\\Source\\LwIP\\src\\include/lwip/memp.h"
 3292              		.file 13 ".\\Source\\LwIP\\src\\include/lwip/stats.h"
 3293              		.file 14 ".\\Source\\LwIP\\src\\include/lwip/netif.h"
 3294              		.file 15 ".\\Source\\LwIP\\src\\include/lwip/tcp.h"
 3295              		.file 16 ".\\Source\\LwIP\\src\\include/lwip/priv/tcp_priv.h"
 3296              		.file 17 ".\\Source\\LwIP\\src\\include/lwip/prot/tcp.h"
 3297              		.file 18 ".\\Source\\LwIP\\src\\include/lwip/def.h"
 3298              		.file 19 ".\\Source\\LwIP\\src\\include/lwip/inet_chksum.h"
 3299              		.file 20 ".\\Source\\LwIP\\src\\include/lwip/ip4.h"
 3300              		.section	.debug_info,"",%progbits
 3301              	.Ldebug_info0:
 3302 0000 191F0000 		.4byte	0x1f19
 3303 0004 0400     		.2byte	0x4
 3304 0006 00000000 		.4byte	.Ldebug_abbrev0
 3305 000a 04       		.byte	0x4
 3306 000b 01       		.uleb128 0x1
 3307 000c 9B020000 		.4byte	.LASF283
 3308 0010 0C       		.byte	0xc
 3309 0011 BE030000 		.4byte	.LASF284
 3310 0015 E5030000 		.4byte	.LASF285
 3311 0019 48000000 		.4byte	.Ldebug_ranges0+0x48
 3312 001d 00000000 		.4byte	0
 3313 0021 00000000 		.4byte	.Ldebug_line0
 3314 0025 02       		.uleb128 0x2
 3315 0026 01       		.byte	0x1
 3316 0027 06       		.byte	0x6
 3317 0028 A30B0000 		.4byte	.LASF0
 3318 002c 02       		.uleb128 0x2
 3319 002d 01       		.byte	0x1
 3320 002e 08       		.byte	0x8
 3321 002f 33080000 		.4byte	.LASF1
 3322 0033 02       		.uleb128 0x2
 3323 0034 02       		.byte	0x2
 3324 0035 05       		.byte	0x5
 3325 0036 7A080000 		.4byte	.LASF2
 3326 003a 02       		.uleb128 0x2
ARM GAS  C:\Users\Phuong\AppData\Local\Temp\cc5dKVKJ.s 			page 94


 3327 003b 02       		.byte	0x2
 3328 003c 07       		.byte	0x7
 3329 003d BF0B0000 		.4byte	.LASF3
 3330 0041 02       		.uleb128 0x2
 3331 0042 04       		.byte	0x4
 3332 0043 05       		.byte	0x5
 3333 0044 92080000 		.4byte	.LASF4
 3334 0048 02       		.uleb128 0x2
 3335 0049 04       		.byte	0x4
 3336 004a 07       		.byte	0x7
 3337 004b 1D0A0000 		.4byte	.LASF5
 3338 004f 02       		.uleb128 0x2
 3339 0050 08       		.byte	0x8
 3340 0051 05       		.byte	0x5
 3341 0052 BB060000 		.4byte	.LASF6
 3342 0056 02       		.uleb128 0x2
 3343 0057 08       		.byte	0x8
 3344 0058 07       		.byte	0x7
 3345 0059 76030000 		.4byte	.LASF7
 3346 005d 03       		.uleb128 0x3
 3347 005e E2010000 		.4byte	.LASF9
 3348 0062 02       		.byte	0x2
 3349 0063 C8       		.byte	0xc8
 3350 0064 68000000 		.4byte	0x68
 3351 0068 04       		.uleb128 0x4
 3352 0069 04       		.byte	0x4
 3353 006a 05       		.byte	0x5
 3354 006b 696E7400 		.ascii	"int\000"
 3355 006f 02       		.uleb128 0x2
 3356 0070 04       		.byte	0x4
 3357 0071 07       		.byte	0x7
 3358 0072 D2000000 		.4byte	.LASF8
 3359 0076 03       		.uleb128 0x3
 3360 0077 F3040000 		.4byte	.LASF10
 3361 007b 03       		.byte	0x3
 3362 007c D8       		.byte	0xd8
 3363 007d 6F000000 		.4byte	0x6f
 3364 0081 02       		.uleb128 0x2
 3365 0082 08       		.byte	0x8
 3366 0083 04       		.byte	0x4
 3367 0084 CC070000 		.4byte	.LASF11
 3368 0088 05       		.uleb128 0x5
 3369 0089 04       		.byte	0x4
 3370 008a 02       		.uleb128 0x2
 3371 008b 04       		.byte	0x4
 3372 008c 07       		.byte	0x7
 3373 008d 140A0000 		.4byte	.LASF12
 3374 0091 06       		.uleb128 0x6
 3375 0092 04       		.byte	0x4
 3376 0093 97000000 		.4byte	0x97
 3377 0097 02       		.uleb128 0x2
 3378 0098 01       		.byte	0x1
 3379 0099 08       		.byte	0x8
 3380 009a 44000000 		.4byte	.LASF13
 3381 009e 06       		.uleb128 0x6
 3382 009f 04       		.byte	0x4
 3383 00a0 A4000000 		.4byte	0xa4
ARM GAS  C:\Users\Phuong\AppData\Local\Temp\cc5dKVKJ.s 			page 95


 3384 00a4 07       		.uleb128 0x7
 3385 00a5 97000000 		.4byte	0x97
 3386 00a9 03       		.uleb128 0x3
 3387 00aa D8070000 		.4byte	.LASF14
 3388 00ae 04       		.byte	0x4
 3389 00af 43       		.byte	0x43
 3390 00b0 5D000000 		.4byte	0x5d
 3391 00b4 06       		.uleb128 0x6
 3392 00b5 04       		.byte	0x4
 3393 00b6 BA000000 		.4byte	0xba
 3394 00ba 08       		.uleb128 0x8
 3395 00bb 02       		.uleb128 0x2
 3396 00bc 04       		.byte	0x4
 3397 00bd 04       		.byte	0x4
 3398 00be 470A0000 		.4byte	.LASF15
 3399 00c2 02       		.uleb128 0x2
 3400 00c3 08       		.byte	0x8
 3401 00c4 04       		.byte	0x4
 3402 00c5 180C0000 		.4byte	.LASF16
 3403 00c9 09       		.uleb128 0x9
 3404 00ca 88000000 		.4byte	0x88
 3405 00ce D9000000 		.4byte	0xd9
 3406 00d2 0A       		.uleb128 0xa
 3407 00d3 8A000000 		.4byte	0x8a
 3408 00d7 01       		.byte	0x1
 3409 00d8 00       		.byte	0
 3410 00d9 03       		.uleb128 0x3
 3411 00da 19070000 		.4byte	.LASF17
 3412 00de 05       		.byte	0x5
 3413 00df 31       		.byte	0x31
 3414 00e0 2C000000 		.4byte	0x2c
 3415 00e4 03       		.uleb128 0x3
 3416 00e5 6C050000 		.4byte	.LASF18
 3417 00e9 05       		.byte	0x5
 3418 00ea 32       		.byte	0x32
 3419 00eb 25000000 		.4byte	0x25
 3420 00ef 03       		.uleb128 0x3
 3421 00f0 48010000 		.4byte	.LASF19
 3422 00f4 05       		.byte	0x5
 3423 00f5 33       		.byte	0x33
 3424 00f6 3A000000 		.4byte	0x3a
 3425 00fa 03       		.uleb128 0x3
 3426 00fb 540A0000 		.4byte	.LASF20
 3427 00ff 05       		.byte	0x5
 3428 0100 34       		.byte	0x34
 3429 0101 33000000 		.4byte	0x33
 3430 0105 03       		.uleb128 0x3
 3431 0106 6E080000 		.4byte	.LASF21
 3432 010a 05       		.byte	0x5
 3433 010b 35       		.byte	0x35
 3434 010c 48000000 		.4byte	0x48
 3435 0110 03       		.uleb128 0x3
 3436 0111 71050000 		.4byte	.LASF22
 3437 0115 05       		.byte	0x5
 3438 0116 36       		.byte	0x36
 3439 0117 41000000 		.4byte	0x41
 3440 011b 03       		.uleb128 0x3
ARM GAS  C:\Users\Phuong\AppData\Local\Temp\cc5dKVKJ.s 			page 96


 3441 011c 65090000 		.4byte	.LASF23
 3442 0120 06       		.byte	0x6
 3443 0121 7D       		.byte	0x7d
 3444 0122 A9000000 		.4byte	0xa9
 3445 0126 03       		.uleb128 0x3
 3446 0127 11060000 		.4byte	.LASF24
 3447 012b 07       		.byte	0x7
 3448 012c 32       		.byte	0x32
 3449 012d 76000000 		.4byte	0x76
 3450 0131 03       		.uleb128 0x3
 3451 0132 0B010000 		.4byte	.LASF25
 3452 0136 08       		.byte	0x8
 3453 0137 39       		.byte	0x39
 3454 0138 E4000000 		.4byte	0xe4
 3455 013c 0B       		.uleb128 0xb
 3456 013d 01       		.byte	0x1
 3457 013e 25000000 		.4byte	0x25
 3458 0142 08       		.byte	0x8
 3459 0143 3D       		.byte	0x3d
 3460 0144 AF010000 		.4byte	0x1af
 3461 0148 0C       		.uleb128 0xc
 3462 0149 970B0000 		.4byte	.LASF26
 3463 014d 00       		.byte	0
 3464 014e 0D       		.uleb128 0xd
 3465 014f B80C0000 		.4byte	.LASF27
 3466 0153 7F       		.sleb128 -1
 3467 0154 0D       		.uleb128 0xd
 3468 0155 47080000 		.4byte	.LASF28
 3469 0159 7E       		.sleb128 -2
 3470 015a 0D       		.uleb128 0xd
 3471 015b 44030000 		.4byte	.LASF29
 3472 015f 7D       		.sleb128 -3
 3473 0160 0D       		.uleb128 0xd
 3474 0161 100C0000 		.4byte	.LASF30
 3475 0165 7C       		.sleb128 -4
 3476 0166 0D       		.uleb128 0xd
 3477 0167 48090000 		.4byte	.LASF31
 3478 016b 7B       		.sleb128 -5
 3479 016c 0D       		.uleb128 0xd
 3480 016d DD030000 		.4byte	.LASF32
 3481 0171 7A       		.sleb128 -6
 3482 0172 0D       		.uleb128 0xd
 3483 0173 A3050000 		.4byte	.LASF33
 3484 0177 79       		.sleb128 -7
 3485 0178 0D       		.uleb128 0xd
 3486 0179 B8000000 		.4byte	.LASF34
 3487 017d 78       		.sleb128 -8
 3488 017e 0D       		.uleb128 0xd
 3489 017f 17020000 		.4byte	.LASF35
 3490 0183 77       		.sleb128 -9
 3491 0184 0D       		.uleb128 0xd
 3492 0185 7B090000 		.4byte	.LASF36
 3493 0189 76       		.sleb128 -10
 3494 018a 0D       		.uleb128 0xd
 3495 018b F10B0000 		.4byte	.LASF37
 3496 018f 75       		.sleb128 -11
 3497 0190 0D       		.uleb128 0xd
ARM GAS  C:\Users\Phuong\AppData\Local\Temp\cc5dKVKJ.s 			page 97


 3498 0191 D8060000 		.4byte	.LASF38
 3499 0195 74       		.sleb128 -12
 3500 0196 0D       		.uleb128 0xd
 3501 0197 4F000000 		.4byte	.LASF39
 3502 019b 73       		.sleb128 -13
 3503 019c 0D       		.uleb128 0xd
 3504 019d DA010000 		.4byte	.LASF40
 3505 01a1 72       		.sleb128 -14
 3506 01a2 0D       		.uleb128 0xd
 3507 01a3 9D000000 		.4byte	.LASF41
 3508 01a7 71       		.sleb128 -15
 3509 01a8 0D       		.uleb128 0xd
 3510 01a9 C0000000 		.4byte	.LASF42
 3511 01ad 70       		.sleb128 -16
 3512 01ae 00       		.byte	0
 3513 01af 0B       		.uleb128 0xb
 3514 01b0 01       		.byte	0x1
 3515 01b1 2C000000 		.4byte	0x2c
 3516 01b5 09       		.byte	0x9
 3517 01b6 48       		.byte	0x48
 3518 01b7 DA010000 		.4byte	0x1da
 3519 01bb 0C       		.uleb128 0xc
 3520 01bc F6010000 		.4byte	.LASF43
 3521 01c0 00       		.byte	0
 3522 01c1 0C       		.uleb128 0xc
 3523 01c2 02050000 		.4byte	.LASF44
 3524 01c6 01       		.byte	0x1
 3525 01c7 0C       		.uleb128 0xc
 3526 01c8 8A070000 		.4byte	.LASF45
 3527 01cc 02       		.byte	0x2
 3528 01cd 0C       		.uleb128 0xc
 3529 01ce 860C0000 		.4byte	.LASF46
 3530 01d2 03       		.byte	0x3
 3531 01d3 0C       		.uleb128 0xc
 3532 01d4 8E000000 		.4byte	.LASF47
 3533 01d8 04       		.byte	0x4
 3534 01d9 00       		.byte	0
 3535 01da 03       		.uleb128 0x3
 3536 01db 5A0A0000 		.4byte	.LASF48
 3537 01df 09       		.byte	0x9
 3538 01e0 5F       		.byte	0x5f
 3539 01e1 AF010000 		.4byte	0x1af
 3540 01e5 0B       		.uleb128 0xb
 3541 01e6 01       		.byte	0x1
 3542 01e7 2C000000 		.4byte	0x2c
 3543 01eb 09       		.byte	0x9
 3544 01ec 65       		.byte	0x65
 3545 01ed 0A020000 		.4byte	0x20a
 3546 01f1 0C       		.uleb128 0xc
 3547 01f2 61000000 		.4byte	.LASF49
 3548 01f6 00       		.byte	0
 3549 01f7 0C       		.uleb128 0xc
 3550 01f8 920C0000 		.4byte	.LASF50
 3551 01fc 01       		.byte	0x1
 3552 01fd 0C       		.uleb128 0xc
 3553 01fe A7040000 		.4byte	.LASF51
 3554 0202 02       		.byte	0x2
ARM GAS  C:\Users\Phuong\AppData\Local\Temp\cc5dKVKJ.s 			page 98


 3555 0203 0C       		.uleb128 0xc
 3556 0204 37050000 		.4byte	.LASF52
 3557 0208 03       		.byte	0x3
 3558 0209 00       		.byte	0
 3559 020a 0E       		.uleb128 0xe
 3560 020b AF0A0000 		.4byte	.LASF58
 3561 020f 10       		.byte	0x10
 3562 0210 09       		.byte	0x9
 3563 0211 8E       		.byte	0x8e
 3564 0212 6B020000 		.4byte	0x26b
 3565 0216 0F       		.uleb128 0xf
 3566 0217 F0000000 		.4byte	.LASF53
 3567 021b 09       		.byte	0x9
 3568 021c 90       		.byte	0x90
 3569 021d 6B020000 		.4byte	0x26b
 3570 0221 00       		.byte	0
 3571 0222 0F       		.uleb128 0xf
 3572 0223 FA040000 		.4byte	.LASF54
 3573 0227 09       		.byte	0x9
 3574 0228 93       		.byte	0x93
 3575 0229 88000000 		.4byte	0x88
 3576 022d 04       		.byte	0x4
 3577 022e 0F       		.uleb128 0xf
 3578 022f 5B0B0000 		.4byte	.LASF55
 3579 0233 09       		.byte	0x9
 3580 0234 9C       		.byte	0x9c
 3581 0235 EF000000 		.4byte	0xef
 3582 0239 08       		.byte	0x8
 3583 023a 10       		.uleb128 0x10
 3584 023b 6C656E00 		.ascii	"len\000"
 3585 023f 09       		.byte	0x9
 3586 0240 9F       		.byte	0x9f
 3587 0241 EF000000 		.4byte	0xef
 3588 0245 0A       		.byte	0xa
 3589 0246 0F       		.uleb128 0xf
 3590 0247 A00A0000 		.4byte	.LASF56
 3591 024b 09       		.byte	0x9
 3592 024c A2       		.byte	0xa2
 3593 024d D9000000 		.4byte	0xd9
 3594 0251 0C       		.byte	0xc
 3595 0252 0F       		.uleb128 0xf
 3596 0253 97000000 		.4byte	.LASF57
 3597 0257 09       		.byte	0x9
 3598 0258 A5       		.byte	0xa5
 3599 0259 D9000000 		.4byte	0xd9
 3600 025d 0D       		.byte	0xd
 3601 025e 10       		.uleb128 0x10
 3602 025f 72656600 		.ascii	"ref\000"
 3603 0263 09       		.byte	0x9
 3604 0264 AC       		.byte	0xac
 3605 0265 EF000000 		.4byte	0xef
 3606 0269 0E       		.byte	0xe
 3607 026a 00       		.byte	0
 3608 026b 06       		.uleb128 0x6
 3609 026c 04       		.byte	0x4
 3610 026d 0A020000 		.4byte	0x20a
 3611 0271 0E       		.uleb128 0xe
ARM GAS  C:\Users\Phuong\AppData\Local\Temp\cc5dKVKJ.s 			page 99


 3612 0272 43060000 		.4byte	.LASF59
 3613 0276 08       		.byte	0x8
 3614 0277 09       		.byte	0x9
 3615 0278 B4       		.byte	0xb4
 3616 0279 96020000 		.4byte	0x296
 3617 027d 0F       		.uleb128 0xf
 3618 027e F0000000 		.4byte	.LASF53
 3619 0282 09       		.byte	0x9
 3620 0283 B6       		.byte	0xb6
 3621 0284 6B020000 		.4byte	0x26b
 3622 0288 00       		.byte	0
 3623 0289 0F       		.uleb128 0xf
 3624 028a FA040000 		.4byte	.LASF54
 3625 028e 09       		.byte	0x9
 3626 028f B9       		.byte	0xb9
 3627 0290 B4000000 		.4byte	0xb4
 3628 0294 04       		.byte	0x4
 3629 0295 00       		.byte	0
 3630 0296 0E       		.uleb128 0xe
 3631 0297 57090000 		.4byte	.LASF60
 3632 029b 04       		.byte	0x4
 3633 029c 0A       		.byte	0xa
 3634 029d 33       		.byte	0x33
 3635 029e AF020000 		.4byte	0x2af
 3636 02a2 0F       		.uleb128 0xf
 3637 02a3 3E0B0000 		.4byte	.LASF61
 3638 02a7 0A       		.byte	0xa
 3639 02a8 34       		.byte	0x34
 3640 02a9 05010000 		.4byte	0x105
 3641 02ad 00       		.byte	0
 3642 02ae 00       		.byte	0
 3643 02af 03       		.uleb128 0x3
 3644 02b0 98030000 		.4byte	.LASF62
 3645 02b4 0A       		.byte	0xa
 3646 02b5 39       		.byte	0x39
 3647 02b6 96020000 		.4byte	0x296
 3648 02ba 03       		.uleb128 0x3
 3649 02bb 500C0000 		.4byte	.LASF63
 3650 02bf 0B       		.byte	0xb
 3651 02c0 F4       		.byte	0xf4
 3652 02c1 AF020000 		.4byte	0x2af
 3653 02c5 0B       		.uleb128 0xb
 3654 02c6 01       		.byte	0x1
 3655 02c7 2C000000 		.4byte	0x2c
 3656 02cb 0C       		.byte	0xc
 3657 02cc 34       		.byte	0x34
 3658 02cd 38030000 		.4byte	0x338
 3659 02d1 0C       		.uleb128 0xc
 3660 02d2 4F080000 		.4byte	.LASF64
 3661 02d6 00       		.byte	0
 3662 02d7 0C       		.uleb128 0xc
 3663 02d8 0C090000 		.4byte	.LASF65
 3664 02dc 01       		.byte	0x1
 3665 02dd 0C       		.uleb128 0xc
 3666 02de 0C070000 		.4byte	.LASF66
 3667 02e2 02       		.byte	0x2
 3668 02e3 0C       		.uleb128 0xc
ARM GAS  C:\Users\Phuong\AppData\Local\Temp\cc5dKVKJ.s 			page 100


 3669 02e4 1C000000 		.4byte	.LASF67
 3670 02e8 03       		.byte	0x3
 3671 02e9 0C       		.uleb128 0xc
 3672 02ea D10A0000 		.4byte	.LASF68
 3673 02ee 04       		.byte	0x4
 3674 02ef 0C       		.uleb128 0xc
 3675 02f0 6F070000 		.4byte	.LASF69
 3676 02f4 05       		.byte	0x5
 3677 02f5 0C       		.uleb128 0xc
 3678 02f6 A7060000 		.4byte	.LASF70
 3679 02fa 06       		.byte	0x6
 3680 02fb 0C       		.uleb128 0xc
 3681 02fc 4E020000 		.4byte	.LASF71
 3682 0300 07       		.byte	0x7
 3683 0301 0C       		.uleb128 0xc
 3684 0302 70020000 		.4byte	.LASF72
 3685 0306 08       		.byte	0x8
 3686 0307 0C       		.uleb128 0xc
 3687 0308 92040000 		.4byte	.LASF73
 3688 030c 09       		.byte	0x9
 3689 030d 0C       		.uleb128 0xc
 3690 030e 35030000 		.4byte	.LASF74
 3691 0312 0A       		.byte	0xa
 3692 0313 0C       		.uleb128 0xc
 3693 0314 60020000 		.4byte	.LASF75
 3694 0318 0B       		.byte	0xb
 3695 0319 0C       		.uleb128 0xc
 3696 031a F0080000 		.4byte	.LASF76
 3697 031e 0C       		.byte	0xc
 3698 031f 0C       		.uleb128 0xc
 3699 0320 680C0000 		.4byte	.LASF77
 3700 0324 0D       		.byte	0xd
 3701 0325 0C       		.uleb128 0xc
 3702 0326 E2050000 		.4byte	.LASF78
 3703 032a 0E       		.byte	0xe
 3704 032b 0C       		.uleb128 0xc
 3705 032c B4010000 		.4byte	.LASF79
 3706 0330 0F       		.byte	0xf
 3707 0331 0C       		.uleb128 0xc
 3708 0332 63050000 		.4byte	.LASF80
 3709 0336 10       		.byte	0x10
 3710 0337 00       		.byte	0
 3711 0338 0E       		.uleb128 0xe
 3712 0339 6F010000 		.4byte	.LASF81
 3713 033d 18       		.byte	0x18
 3714 033e 0D       		.byte	0xd
 3715 033f 62       		.byte	0x62
 3716 0340 8D030000 		.4byte	0x38d
 3717 0344 0F       		.uleb128 0xf
 3718 0345 17000000 		.4byte	.LASF82
 3719 0349 0D       		.byte	0xd
 3720 034a 64       		.byte	0x64
 3721 034b 9E000000 		.4byte	0x9e
 3722 034f 00       		.byte	0
 3723 0350 10       		.uleb128 0x10
 3724 0351 65727200 		.ascii	"err\000"
 3725 0355 0D       		.byte	0xd
ARM GAS  C:\Users\Phuong\AppData\Local\Temp\cc5dKVKJ.s 			page 101


 3726 0356 66       		.byte	0x66
 3727 0357 EF000000 		.4byte	0xef
 3728 035b 04       		.byte	0x4
 3729 035c 0F       		.uleb128 0xf
 3730 035d A1080000 		.4byte	.LASF83
 3731 0361 0D       		.byte	0xd
 3732 0362 67       		.byte	0x67
 3733 0363 26010000 		.4byte	0x126
 3734 0367 08       		.byte	0x8
 3735 0368 0F       		.uleb128 0xf
 3736 0369 46070000 		.4byte	.LASF84
 3737 036d 0D       		.byte	0xd
 3738 036e 68       		.byte	0x68
 3739 036f 26010000 		.4byte	0x126
 3740 0373 0C       		.byte	0xc
 3741 0374 10       		.uleb128 0x10
 3742 0375 6D617800 		.ascii	"max\000"
 3743 0379 0D       		.byte	0xd
 3744 037a 69       		.byte	0x69
 3745 037b 26010000 		.4byte	0x126
 3746 037f 10       		.byte	0x10
 3747 0380 0F       		.uleb128 0xf
 3748 0381 FD050000 		.4byte	.LASF85
 3749 0385 0D       		.byte	0xd
 3750 0386 6A       		.byte	0x6a
 3751 0387 EF000000 		.4byte	0xef
 3752 038b 14       		.byte	0x14
 3753 038c 00       		.byte	0
 3754 038d 06       		.uleb128 0x6
 3755 038e 04       		.byte	0x4
 3756 038f 38030000 		.4byte	0x338
 3757 0393 0E       		.uleb128 0xe
 3758 0394 2C060000 		.4byte	.LASF86
 3759 0398 18       		.byte	0x18
 3760 0399 0D       		.byte	0xd
 3761 039a 40       		.byte	0x40
 3762 039b 2F040000 		.4byte	0x42f
 3763 039f 0F       		.uleb128 0xf
 3764 03a0 4B0B0000 		.4byte	.LASF87
 3765 03a4 0D       		.byte	0xd
 3766 03a5 41       		.byte	0x41
 3767 03a6 EF000000 		.4byte	0xef
 3768 03aa 00       		.byte	0
 3769 03ab 0F       		.uleb128 0xf
 3770 03ac 9E0B0000 		.4byte	.LASF88
 3771 03b0 0D       		.byte	0xd
 3772 03b1 42       		.byte	0x42
 3773 03b2 EF000000 		.4byte	0xef
 3774 03b6 02       		.byte	0x2
 3775 03b7 10       		.uleb128 0x10
 3776 03b8 667700   		.ascii	"fw\000"
 3777 03bb 0D       		.byte	0xd
 3778 03bc 43       		.byte	0x43
 3779 03bd EF000000 		.4byte	0xef
 3780 03c1 04       		.byte	0x4
 3781 03c2 0F       		.uleb128 0xf
 3782 03c3 500B0000 		.4byte	.LASF89
ARM GAS  C:\Users\Phuong\AppData\Local\Temp\cc5dKVKJ.s 			page 102


 3783 03c7 0D       		.byte	0xd
 3784 03c8 44       		.byte	0x44
 3785 03c9 EF000000 		.4byte	0xef
 3786 03cd 06       		.byte	0x6
 3787 03ce 0F       		.uleb128 0xf
 3788 03cf 68070000 		.4byte	.LASF90
 3789 03d3 0D       		.byte	0xd
 3790 03d4 45       		.byte	0x45
 3791 03d5 EF000000 		.4byte	0xef
 3792 03d9 08       		.byte	0x8
 3793 03da 0F       		.uleb128 0xf
 3794 03db 020A0000 		.4byte	.LASF91
 3795 03df 0D       		.byte	0xd
 3796 03e0 46       		.byte	0x46
 3797 03e1 EF000000 		.4byte	0xef
 3798 03e5 0A       		.byte	0xa
 3799 03e6 0F       		.uleb128 0xf
 3800 03e7 CA0A0000 		.4byte	.LASF92
 3801 03eb 0D       		.byte	0xd
 3802 03ec 47       		.byte	0x47
 3803 03ed EF000000 		.4byte	0xef
 3804 03f1 0C       		.byte	0xc
 3805 03f2 0F       		.uleb128 0xf
 3806 03f3 9B080000 		.4byte	.LASF93
 3807 03f7 0D       		.byte	0xd
 3808 03f8 48       		.byte	0x48
 3809 03f9 EF000000 		.4byte	0xef
 3810 03fd 0E       		.byte	0xe
 3811 03fe 0F       		.uleb128 0xf
 3812 03ff 29070000 		.4byte	.LASF94
 3813 0403 0D       		.byte	0xd
 3814 0404 49       		.byte	0x49
 3815 0405 EF000000 		.4byte	0xef
 3816 0409 10       		.byte	0x10
 3817 040a 0F       		.uleb128 0xf
 3818 040b 83020000 		.4byte	.LASF95
 3819 040f 0D       		.byte	0xd
 3820 0410 4A       		.byte	0x4a
 3821 0411 EF000000 		.4byte	0xef
 3822 0415 12       		.byte	0x12
 3823 0416 10       		.uleb128 0x10
 3824 0417 65727200 		.ascii	"err\000"
 3825 041b 0D       		.byte	0xd
 3826 041c 4B       		.byte	0x4b
 3827 041d EF000000 		.4byte	0xef
 3828 0421 14       		.byte	0x14
 3829 0422 0F       		.uleb128 0xf
 3830 0423 86090000 		.4byte	.LASF96
 3831 0427 0D       		.byte	0xd
 3832 0428 4C       		.byte	0x4c
 3833 0429 EF000000 		.4byte	0xef
 3834 042d 16       		.byte	0x16
 3835 042e 00       		.byte	0
 3836 042f 0E       		.uleb128 0xe
 3837 0430 090A0000 		.4byte	.LASF97
 3838 0434 1C       		.byte	0x1c
 3839 0435 0D       		.byte	0xd
ARM GAS  C:\Users\Phuong\AppData\Local\Temp\cc5dKVKJ.s 			page 103


 3840 0436 50       		.byte	0x50
 3841 0437 E4040000 		.4byte	0x4e4
 3842 043b 0F       		.uleb128 0xf
 3843 043c 4B0B0000 		.4byte	.LASF87
 3844 0440 0D       		.byte	0xd
 3845 0441 51       		.byte	0x51
 3846 0442 EF000000 		.4byte	0xef
 3847 0446 00       		.byte	0
 3848 0447 0F       		.uleb128 0xf
 3849 0448 9E0B0000 		.4byte	.LASF88
 3850 044c 0D       		.byte	0xd
 3851 044d 52       		.byte	0x52
 3852 044e EF000000 		.4byte	0xef
 3853 0452 02       		.byte	0x2
 3854 0453 0F       		.uleb128 0xf
 3855 0454 500B0000 		.4byte	.LASF89
 3856 0458 0D       		.byte	0xd
 3857 0459 53       		.byte	0x53
 3858 045a EF000000 		.4byte	0xef
 3859 045e 04       		.byte	0x4
 3860 045f 0F       		.uleb128 0xf
 3861 0460 68070000 		.4byte	.LASF90
 3862 0464 0D       		.byte	0xd
 3863 0465 54       		.byte	0x54
 3864 0466 EF000000 		.4byte	0xef
 3865 046a 06       		.byte	0x6
 3866 046b 0F       		.uleb128 0xf
 3867 046c 020A0000 		.4byte	.LASF91
 3868 0470 0D       		.byte	0xd
 3869 0471 55       		.byte	0x55
 3870 0472 EF000000 		.4byte	0xef
 3871 0476 08       		.byte	0x8
 3872 0477 0F       		.uleb128 0xf
 3873 0478 CA0A0000 		.4byte	.LASF92
 3874 047c 0D       		.byte	0xd
 3875 047d 56       		.byte	0x56
 3876 047e EF000000 		.4byte	0xef
 3877 0482 0A       		.byte	0xa
 3878 0483 0F       		.uleb128 0xf
 3879 0484 29070000 		.4byte	.LASF94
 3880 0488 0D       		.byte	0xd
 3881 0489 57       		.byte	0x57
 3882 048a EF000000 		.4byte	0xef
 3883 048e 0C       		.byte	0xc
 3884 048f 0F       		.uleb128 0xf
 3885 0490 8D030000 		.4byte	.LASF98
 3886 0494 0D       		.byte	0xd
 3887 0495 58       		.byte	0x58
 3888 0496 EF000000 		.4byte	0xef
 3889 049a 0E       		.byte	0xe
 3890 049b 0F       		.uleb128 0xf
 3891 049c D60C0000 		.4byte	.LASF99
 3892 04a0 0D       		.byte	0xd
 3893 04a1 59       		.byte	0x59
 3894 04a2 EF000000 		.4byte	0xef
 3895 04a6 10       		.byte	0x10
 3896 04a7 0F       		.uleb128 0xf
ARM GAS  C:\Users\Phuong\AppData\Local\Temp\cc5dKVKJ.s 			page 104


 3897 04a8 94070000 		.4byte	.LASF100
 3898 04ac 0D       		.byte	0xd
 3899 04ad 5A       		.byte	0x5a
 3900 04ae EF000000 		.4byte	0xef
 3901 04b2 12       		.byte	0x12
 3902 04b3 0F       		.uleb128 0xf
 3903 04b4 99050000 		.4byte	.LASF101
 3904 04b8 0D       		.byte	0xd
 3905 04b9 5B       		.byte	0x5b
 3906 04ba EF000000 		.4byte	0xef
 3907 04be 14       		.byte	0x14
 3908 04bf 0F       		.uleb128 0xf
 3909 04c0 430B0000 		.4byte	.LASF102
 3910 04c4 0D       		.byte	0xd
 3911 04c5 5C       		.byte	0x5c
 3912 04c6 EF000000 		.4byte	0xef
 3913 04ca 16       		.byte	0x16
 3914 04cb 0F       		.uleb128 0xf
 3915 04cc 57030000 		.4byte	.LASF103
 3916 04d0 0D       		.byte	0xd
 3917 04d1 5D       		.byte	0x5d
 3918 04d2 EF000000 		.4byte	0xef
 3919 04d6 18       		.byte	0x18
 3920 04d7 0F       		.uleb128 0xf
 3921 04d8 7C0C0000 		.4byte	.LASF104
 3922 04dc 0D       		.byte	0xd
 3923 04dd 5E       		.byte	0x5e
 3924 04de EF000000 		.4byte	0xef
 3925 04e2 1A       		.byte	0x1a
 3926 04e3 00       		.byte	0
 3927 04e4 0E       		.uleb128 0xe
 3928 04e5 23020000 		.4byte	.LASF105
 3929 04e9 06       		.byte	0x6
 3930 04ea 0D       		.byte	0xd
 3931 04eb 6E       		.byte	0x6e
 3932 04ec 15050000 		.4byte	0x515
 3933 04f0 0F       		.uleb128 0xf
 3934 04f1 46070000 		.4byte	.LASF84
 3935 04f5 0D       		.byte	0xd
 3936 04f6 6F       		.byte	0x6f
 3937 04f7 EF000000 		.4byte	0xef
 3938 04fb 00       		.byte	0
 3939 04fc 10       		.uleb128 0x10
 3940 04fd 6D617800 		.ascii	"max\000"
 3941 0501 0D       		.byte	0xd
 3942 0502 70       		.byte	0x70
 3943 0503 EF000000 		.4byte	0xef
 3944 0507 02       		.byte	0x2
 3945 0508 10       		.uleb128 0x10
 3946 0509 65727200 		.ascii	"err\000"
 3947 050d 0D       		.byte	0xd
 3948 050e 71       		.byte	0x71
 3949 050f EF000000 		.4byte	0xef
 3950 0513 04       		.byte	0x4
 3951 0514 00       		.byte	0
 3952 0515 0E       		.uleb128 0xe
 3953 0516 A50A0000 		.4byte	.LASF106
ARM GAS  C:\Users\Phuong\AppData\Local\Temp\cc5dKVKJ.s 			page 105


 3954 051a 12       		.byte	0x12
 3955 051b 0D       		.byte	0xd
 3956 051c 75       		.byte	0x75
 3957 051d 46050000 		.4byte	0x546
 3958 0521 10       		.uleb128 0x10
 3959 0522 73656D00 		.ascii	"sem\000"
 3960 0526 0D       		.byte	0xd
 3961 0527 76       		.byte	0x76
 3962 0528 E4040000 		.4byte	0x4e4
 3963 052c 00       		.byte	0
 3964 052d 0F       		.uleb128 0xf
 3965 052e 95020000 		.4byte	.LASF107
 3966 0532 0D       		.byte	0xd
 3967 0533 77       		.byte	0x77
 3968 0534 E4040000 		.4byte	0x4e4
 3969 0538 06       		.byte	0x6
 3970 0539 0F       		.uleb128 0xf
 3971 053a 2A090000 		.4byte	.LASF108
 3972 053e 0D       		.byte	0xd
 3973 053f 78       		.byte	0x78
 3974 0540 E4040000 		.4byte	0x4e4
 3975 0544 0C       		.byte	0xc
 3976 0545 00       		.byte	0
 3977 0546 11       		.uleb128 0x11
 3978 0547 C7040000 		.4byte	.LASF109
 3979 054b 1801     		.2byte	0x118
 3980 054d 0D       		.byte	0xd
 3981 054e E8       		.byte	0xe8
 3982 054f D0050000 		.4byte	0x5d0
 3983 0553 0F       		.uleb128 0xf
 3984 0554 F70A0000 		.4byte	.LASF110
 3985 0558 0D       		.byte	0xd
 3986 0559 EB       		.byte	0xeb
 3987 055a 93030000 		.4byte	0x393
 3988 055e 00       		.byte	0
 3989 055f 0F       		.uleb128 0xf
 3990 0560 67030000 		.4byte	.LASF111
 3991 0564 0D       		.byte	0xd
 3992 0565 EF       		.byte	0xef
 3993 0566 93030000 		.4byte	0x393
 3994 056a 18       		.byte	0x18
 3995 056b 0F       		.uleb128 0xf
 3996 056c 2D030000 		.4byte	.LASF112
 3997 0570 0D       		.byte	0xd
 3998 0571 F3       		.byte	0xf3
 3999 0572 93030000 		.4byte	0x393
 4000 0576 30       		.byte	0x30
 4001 0577 10       		.uleb128 0x10
 4002 0578 697000   		.ascii	"ip\000"
 4003 057b 0D       		.byte	0xd
 4004 057c F7       		.byte	0xf7
 4005 057d 93030000 		.4byte	0x393
 4006 0581 48       		.byte	0x48
 4007 0582 0F       		.uleb128 0xf
 4008 0583 84080000 		.4byte	.LASF113
 4009 0587 0D       		.byte	0xd
 4010 0588 FB       		.byte	0xfb
ARM GAS  C:\Users\Phuong\AppData\Local\Temp\cc5dKVKJ.s 			page 106


 4011 0589 93030000 		.4byte	0x393
 4012 058d 60       		.byte	0x60
 4013 058e 0F       		.uleb128 0xf
 4014 058f 93030000 		.4byte	.LASF114
 4015 0593 0D       		.byte	0xd
 4016 0594 FF       		.byte	0xff
 4017 0595 2F040000 		.4byte	0x42f
 4018 0599 78       		.byte	0x78
 4019 059a 12       		.uleb128 0x12
 4020 059b 75647000 		.ascii	"udp\000"
 4021 059f 0D       		.byte	0xd
 4022 05a0 0301     		.2byte	0x103
 4023 05a2 93030000 		.4byte	0x393
 4024 05a6 94       		.byte	0x94
 4025 05a7 12       		.uleb128 0x12
 4026 05a8 74637000 		.ascii	"tcp\000"
 4027 05ac 0D       		.byte	0xd
 4028 05ad 0701     		.2byte	0x107
 4029 05af 93030000 		.4byte	0x393
 4030 05b3 AC       		.byte	0xac
 4031 05b4 13       		.uleb128 0x13
 4032 05b5 EA090000 		.4byte	.LASF115
 4033 05b9 0D       		.byte	0xd
 4034 05ba 0F01     		.2byte	0x10f
 4035 05bc D0050000 		.4byte	0x5d0
 4036 05c0 C4       		.byte	0xc4
 4037 05c1 14       		.uleb128 0x14
 4038 05c2 73797300 		.ascii	"sys\000"
 4039 05c6 0D       		.byte	0xd
 4040 05c7 1301     		.2byte	0x113
 4041 05c9 15050000 		.4byte	0x515
 4042 05cd 0401     		.2byte	0x104
 4043 05cf 00       		.byte	0
 4044 05d0 09       		.uleb128 0x9
 4045 05d1 8D030000 		.4byte	0x38d
 4046 05d5 E0050000 		.4byte	0x5e0
 4047 05d9 0A       		.uleb128 0xa
 4048 05da 8A000000 		.4byte	0x8a
 4049 05de 0F       		.byte	0xf
 4050 05df 00       		.byte	0
 4051 05e0 15       		.uleb128 0x15
 4052 05e1 2F0A0000 		.4byte	.LASF192
 4053 05e5 01       		.byte	0x1
 4054 05e6 2C000000 		.4byte	0x2c
 4055 05ea 0E       		.byte	0xe
 4056 05eb 8F       		.byte	0x8f
 4057 05ec FD050000 		.4byte	0x5fd
 4058 05f0 0C       		.uleb128 0xc
 4059 05f1 9F070000 		.4byte	.LASF116
 4060 05f5 00       		.byte	0
 4061 05f6 0C       		.uleb128 0xc
 4062 05f7 52060000 		.4byte	.LASF117
 4063 05fb 01       		.byte	0x1
 4064 05fc 00       		.byte	0
 4065 05fd 06       		.uleb128 0x6
 4066 05fe 04       		.byte	0x4
 4067 05ff 03060000 		.4byte	0x603
ARM GAS  C:\Users\Phuong\AppData\Local\Temp\cc5dKVKJ.s 			page 107


 4068 0603 0E       		.uleb128 0xe
 4069 0604 630B0000 		.4byte	.LASF118
 4070 0608 48       		.byte	0x48
 4071 0609 0E       		.byte	0xe
 4072 060a E1       		.byte	0xe1
 4073 060b FF060000 		.4byte	0x6ff
 4074 060f 0F       		.uleb128 0xf
 4075 0610 F0000000 		.4byte	.LASF53
 4076 0614 0E       		.byte	0xe
 4077 0615 E3       		.byte	0xe3
 4078 0616 FD050000 		.4byte	0x5fd
 4079 061a 00       		.byte	0
 4080 061b 0F       		.uleb128 0xf
 4081 061c CE0C0000 		.4byte	.LASF119
 4082 0620 0E       		.byte	0xe
 4083 0621 E7       		.byte	0xe7
 4084 0622 BA020000 		.4byte	0x2ba
 4085 0626 04       		.byte	0x4
 4086 0627 0F       		.uleb128 0xf
 4087 0628 B3060000 		.4byte	.LASF120
 4088 062c 0E       		.byte	0xe
 4089 062d E8       		.byte	0xe8
 4090 062e BA020000 		.4byte	0x2ba
 4091 0632 08       		.byte	0x8
 4092 0633 10       		.uleb128 0x10
 4093 0634 677700   		.ascii	"gw\000"
 4094 0637 0E       		.byte	0xe
 4095 0638 E9       		.byte	0xe9
 4096 0639 BA020000 		.4byte	0x2ba
 4097 063d 0C       		.byte	0xc
 4098 063e 0F       		.uleb128 0xf
 4099 063f 49000000 		.4byte	.LASF121
 4100 0643 0E       		.byte	0xe
 4101 0644 F4       		.byte	0xf4
 4102 0645 FF060000 		.4byte	0x6ff
 4103 0649 10       		.byte	0x10
 4104 064a 0F       		.uleb128 0xf
 4105 064b 0A050000 		.4byte	.LASF122
 4106 064f 0E       		.byte	0xe
 4107 0650 FA       		.byte	0xfa
 4108 0651 24070000 		.4byte	0x724
 4109 0655 14       		.byte	0x14
 4110 0656 0F       		.uleb128 0xf
 4111 0657 330B0000 		.4byte	.LASF123
 4112 065b 0E       		.byte	0xe
 4113 065c FF       		.byte	0xff
 4114 065d 59070000 		.4byte	0x759
 4115 0661 18       		.byte	0x18
 4116 0662 13       		.uleb128 0x13
 4117 0663 DF060000 		.4byte	.LASF124
 4118 0667 0E       		.byte	0xe
 4119 0668 0A01     		.2byte	0x10a
 4120 066a 7E070000 		.4byte	0x77e
 4121 066e 1C       		.byte	0x1c
 4122 066f 13       		.uleb128 0x13
 4123 0670 550B0000 		.4byte	.LASF125
 4124 0674 0E       		.byte	0xe
ARM GAS  C:\Users\Phuong\AppData\Local\Temp\cc5dKVKJ.s 			page 108


 4125 0675 1701     		.2byte	0x117
 4126 0677 88000000 		.4byte	0x88
 4127 067b 20       		.byte	0x20
 4128 067c 13       		.uleb128 0x13
 4129 067d F1050000 		.4byte	.LASF126
 4130 0681 0E       		.byte	0xe
 4131 0682 1901     		.2byte	0x119
 4132 0684 C9000000 		.4byte	0xc9
 4133 0688 24       		.byte	0x24
 4134 0689 13       		.uleb128 0x13
 4135 068a C3090000 		.4byte	.LASF127
 4136 068e 0E       		.byte	0xe
 4137 068f 2101     		.2byte	0x121
 4138 0691 D9000000 		.4byte	0xd9
 4139 0695 2C       		.byte	0x2c
 4140 0696 13       		.uleb128 0x13
 4141 0697 34010000 		.4byte	.LASF128
 4142 069b 0E       		.byte	0xe
 4143 069c 2501     		.2byte	0x125
 4144 069e 9E000000 		.4byte	0x9e
 4145 06a2 30       		.byte	0x30
 4146 06a3 12       		.uleb128 0x12
 4147 06a4 6D747500 		.ascii	"mtu\000"
 4148 06a8 0E       		.byte	0xe
 4149 06a9 2B01     		.2byte	0x12b
 4150 06ab EF000000 		.4byte	0xef
 4151 06af 34       		.byte	0x34
 4152 06b0 13       		.uleb128 0x13
 4153 06b1 B3030000 		.4byte	.LASF129
 4154 06b5 0E       		.byte	0xe
 4155 06b6 2D01     		.2byte	0x12d
 4156 06b8 D9000000 		.4byte	0xd9
 4157 06bc 36       		.byte	0x36
 4158 06bd 13       		.uleb128 0x13
 4159 06be 60030000 		.4byte	.LASF130
 4160 06c2 0E       		.byte	0xe
 4161 06c3 2F01     		.2byte	0x12f
 4162 06c5 C4070000 		.4byte	0x7c4
 4163 06c9 37       		.byte	0x37
 4164 06ca 13       		.uleb128 0x13
 4165 06cb 97000000 		.4byte	.LASF57
 4166 06cf 0E       		.byte	0xe
 4167 06d0 3101     		.2byte	0x131
 4168 06d2 D9000000 		.4byte	0xd9
 4169 06d6 3D       		.byte	0x3d
 4170 06d7 13       		.uleb128 0x13
 4171 06d8 17000000 		.4byte	.LASF82
 4172 06dc 0E       		.byte	0xe
 4173 06dd 3301     		.2byte	0x133
 4174 06df D4070000 		.4byte	0x7d4
 4175 06e3 3E       		.byte	0x3e
 4176 06e4 12       		.uleb128 0x12
 4177 06e5 6E756D00 		.ascii	"num\000"
 4178 06e9 0E       		.byte	0xe
 4179 06ea 3501     		.2byte	0x135
 4180 06ec D9000000 		.4byte	0xd9
 4181 06f0 40       		.byte	0x40
ARM GAS  C:\Users\Phuong\AppData\Local\Temp\cc5dKVKJ.s 			page 109


 4182 06f1 13       		.uleb128 0x13
 4183 06f2 1C060000 		.4byte	.LASF131
 4184 06f6 0E       		.byte	0xe
 4185 06f7 4301     		.2byte	0x143
 4186 06f9 9A070000 		.4byte	0x79a
 4187 06fd 44       		.byte	0x44
 4188 06fe 00       		.byte	0
 4189 06ff 03       		.uleb128 0x3
 4190 0700 37020000 		.4byte	.LASF132
 4191 0704 0E       		.byte	0xe
 4192 0705 A2       		.byte	0xa2
 4193 0706 0A070000 		.4byte	0x70a
 4194 070a 06       		.uleb128 0x6
 4195 070b 04       		.byte	0x4
 4196 070c 10070000 		.4byte	0x710
 4197 0710 16       		.uleb128 0x16
 4198 0711 31010000 		.4byte	0x131
 4199 0715 24070000 		.4byte	0x724
 4200 0719 17       		.uleb128 0x17
 4201 071a 6B020000 		.4byte	0x26b
 4202 071e 17       		.uleb128 0x17
 4203 071f FD050000 		.4byte	0x5fd
 4204 0723 00       		.byte	0
 4205 0724 03       		.uleb128 0x3
 4206 0725 8B010000 		.4byte	.LASF133
 4207 0729 0E       		.byte	0xe
 4208 072a AD       		.byte	0xad
 4209 072b 2F070000 		.4byte	0x72f
 4210 072f 06       		.uleb128 0x6
 4211 0730 04       		.byte	0x4
 4212 0731 35070000 		.4byte	0x735
 4213 0735 16       		.uleb128 0x16
 4214 0736 31010000 		.4byte	0x131
 4215 073a 4E070000 		.4byte	0x74e
 4216 073e 17       		.uleb128 0x17
 4217 073f FD050000 		.4byte	0x5fd
 4218 0743 17       		.uleb128 0x17
 4219 0744 6B020000 		.4byte	0x26b
 4220 0748 17       		.uleb128 0x17
 4221 0749 4E070000 		.4byte	0x74e
 4222 074d 00       		.byte	0
 4223 074e 06       		.uleb128 0x6
 4224 074f 04       		.byte	0x4
 4225 0750 54070000 		.4byte	0x754
 4226 0754 07       		.uleb128 0x7
 4227 0755 AF020000 		.4byte	0x2af
 4228 0759 03       		.uleb128 0x3
 4229 075a AF090000 		.4byte	.LASF134
 4230 075e 0E       		.byte	0xe
 4231 075f C4       		.byte	0xc4
 4232 0760 64070000 		.4byte	0x764
 4233 0764 06       		.uleb128 0x6
 4234 0765 04       		.byte	0x4
 4235 0766 6A070000 		.4byte	0x76a
 4236 076a 16       		.uleb128 0x16
 4237 076b 31010000 		.4byte	0x131
 4238 076f 7E070000 		.4byte	0x77e
ARM GAS  C:\Users\Phuong\AppData\Local\Temp\cc5dKVKJ.s 			page 110


 4239 0773 17       		.uleb128 0x17
 4240 0774 FD050000 		.4byte	0x5fd
 4241 0778 17       		.uleb128 0x17
 4242 0779 6B020000 		.4byte	0x26b
 4243 077d 00       		.byte	0
 4244 077e 03       		.uleb128 0x3
 4245 077f DE0A0000 		.4byte	.LASF135
 4246 0783 0E       		.byte	0xe
 4247 0784 C6       		.byte	0xc6
 4248 0785 89070000 		.4byte	0x789
 4249 0789 06       		.uleb128 0x6
 4250 078a 04       		.byte	0x4
 4251 078b 8F070000 		.4byte	0x78f
 4252 078f 18       		.uleb128 0x18
 4253 0790 9A070000 		.4byte	0x79a
 4254 0794 17       		.uleb128 0x17
 4255 0795 FD050000 		.4byte	0x5fd
 4256 0799 00       		.byte	0
 4257 079a 03       		.uleb128 0x3
 4258 079b 7E0B0000 		.4byte	.LASF136
 4259 079f 0E       		.byte	0xe
 4260 07a0 C9       		.byte	0xc9
 4261 07a1 A5070000 		.4byte	0x7a5
 4262 07a5 06       		.uleb128 0x6
 4263 07a6 04       		.byte	0x4
 4264 07a7 AB070000 		.4byte	0x7ab
 4265 07ab 16       		.uleb128 0x16
 4266 07ac 31010000 		.4byte	0x131
 4267 07b0 C4070000 		.4byte	0x7c4
 4268 07b4 17       		.uleb128 0x17
 4269 07b5 FD050000 		.4byte	0x5fd
 4270 07b9 17       		.uleb128 0x17
 4271 07ba 4E070000 		.4byte	0x74e
 4272 07be 17       		.uleb128 0x17
 4273 07bf E0050000 		.4byte	0x5e0
 4274 07c3 00       		.byte	0
 4275 07c4 09       		.uleb128 0x9
 4276 07c5 D9000000 		.4byte	0xd9
 4277 07c9 D4070000 		.4byte	0x7d4
 4278 07cd 0A       		.uleb128 0xa
 4279 07ce 8A000000 		.4byte	0x8a
 4280 07d2 05       		.byte	0x5
 4281 07d3 00       		.byte	0
 4282 07d4 09       		.uleb128 0x9
 4283 07d5 97000000 		.4byte	0x97
 4284 07d9 E4070000 		.4byte	0x7e4
 4285 07dd 0A       		.uleb128 0xa
 4286 07de 8A000000 		.4byte	0x8a
 4287 07e2 01       		.byte	0x1
 4288 07e3 00       		.byte	0
 4289 07e4 03       		.uleb128 0x3
 4290 07e5 8B050000 		.4byte	.LASF137
 4291 07e9 0F       		.byte	0xf
 4292 07ea 44       		.byte	0x44
 4293 07eb EF070000 		.4byte	0x7ef
 4294 07ef 06       		.uleb128 0x6
 4295 07f0 04       		.byte	0x4
ARM GAS  C:\Users\Phuong\AppData\Local\Temp\cc5dKVKJ.s 			page 111


 4296 07f1 F5070000 		.4byte	0x7f5
 4297 07f5 16       		.uleb128 0x16
 4298 07f6 31010000 		.4byte	0x131
 4299 07fa 0E080000 		.4byte	0x80e
 4300 07fe 17       		.uleb128 0x17
 4301 07ff 88000000 		.4byte	0x88
 4302 0803 17       		.uleb128 0x17
 4303 0804 0E080000 		.4byte	0x80e
 4304 0808 17       		.uleb128 0x17
 4305 0809 31010000 		.4byte	0x131
 4306 080d 00       		.byte	0
 4307 080e 06       		.uleb128 0x6
 4308 080f 04       		.byte	0x4
 4309 0810 14080000 		.4byte	0x814
 4310 0814 0E       		.uleb128 0xe
 4311 0815 B70B0000 		.4byte	.LASF138
 4312 0819 A0       		.byte	0xa0
 4313 081a 0F       		.byte	0xf
 4314 081b C8       		.byte	0xc8
 4315 081c E80A0000 		.4byte	0xae8
 4316 0820 0F       		.uleb128 0xf
 4317 0821 19090000 		.4byte	.LASF139
 4318 0825 0F       		.byte	0xf
 4319 0826 CA       		.byte	0xca
 4320 0827 BA020000 		.4byte	0x2ba
 4321 082b 00       		.byte	0
 4322 082c 0F       		.uleb128 0xf
 4323 082d 060C0000 		.4byte	.LASF140
 4324 0831 0F       		.byte	0xf
 4325 0832 CA       		.byte	0xca
 4326 0833 BA020000 		.4byte	0x2ba
 4327 0837 04       		.byte	0x4
 4328 0838 0F       		.uleb128 0xf
 4329 0839 1E070000 		.4byte	.LASF141
 4330 083d 0F       		.byte	0xf
 4331 083e CA       		.byte	0xca
 4332 083f D9000000 		.4byte	0xd9
 4333 0843 08       		.byte	0x8
 4334 0844 10       		.uleb128 0x10
 4335 0845 746F7300 		.ascii	"tos\000"
 4336 0849 0F       		.byte	0xf
 4337 084a CA       		.byte	0xca
 4338 084b D9000000 		.4byte	0xd9
 4339 084f 09       		.byte	0x9
 4340 0850 10       		.uleb128 0x10
 4341 0851 74746C00 		.ascii	"ttl\000"
 4342 0855 0F       		.byte	0xf
 4343 0856 CA       		.byte	0xca
 4344 0857 D9000000 		.4byte	0xd9
 4345 085b 0A       		.byte	0xa
 4346 085c 0F       		.uleb128 0xf
 4347 085d F0000000 		.4byte	.LASF53
 4348 0861 0F       		.byte	0xf
 4349 0862 CC       		.byte	0xcc
 4350 0863 0E080000 		.4byte	0x80e
 4351 0867 0C       		.byte	0xc
 4352 0868 0F       		.uleb128 0xf
ARM GAS  C:\Users\Phuong\AppData\Local\Temp\cc5dKVKJ.s 			page 112


 4353 0869 100B0000 		.4byte	.LASF142
 4354 086d 0F       		.byte	0xf
 4355 086e CC       		.byte	0xcc
 4356 086f 88000000 		.4byte	0x88
 4357 0873 10       		.byte	0x10
 4358 0874 0F       		.uleb128 0xf
 4359 0875 550B0000 		.4byte	.LASF125
 4360 0879 0F       		.byte	0xf
 4361 087a CC       		.byte	0xcc
 4362 087b A80B0000 		.4byte	0xba8
 4363 087f 14       		.byte	0x14
 4364 0880 0F       		.uleb128 0xf
 4365 0881 D6050000 		.4byte	.LASF143
 4366 0885 0F       		.byte	0xf
 4367 0886 CC       		.byte	0xcc
 4368 0887 D9000000 		.4byte	0xd9
 4369 088b 15       		.byte	0x15
 4370 088c 0F       		.uleb128 0xf
 4371 088d 8A020000 		.4byte	.LASF144
 4372 0891 0F       		.byte	0xf
 4373 0892 CC       		.byte	0xcc
 4374 0893 EF000000 		.4byte	0xef
 4375 0897 16       		.byte	0x16
 4376 0898 0F       		.uleb128 0xf
 4377 0899 3A070000 		.4byte	.LASF145
 4378 089d 0F       		.byte	0xf
 4379 089e CF       		.byte	0xcf
 4380 089f EF000000 		.4byte	0xef
 4381 08a3 18       		.byte	0x18
 4382 08a4 0F       		.uleb128 0xf
 4383 08a5 97000000 		.4byte	.LASF57
 4384 08a9 0F       		.byte	0xf
 4385 08aa D1       		.byte	0xd1
 4386 08ab 9D0B0000 		.4byte	0xb9d
 4387 08af 1A       		.byte	0x1a
 4388 08b0 0F       		.uleb128 0xf
 4389 08b1 86000000 		.4byte	.LASF146
 4390 08b5 0F       		.byte	0xf
 4391 08b6 E8       		.byte	0xe8
 4392 08b7 D9000000 		.4byte	0xd9
 4393 08bb 1C       		.byte	0x1c
 4394 08bc 0F       		.uleb128 0xf
 4395 08bd DD090000 		.4byte	.LASF147
 4396 08c1 0F       		.byte	0xf
 4397 08c2 E8       		.byte	0xe8
 4398 08c3 D9000000 		.4byte	0xd9
 4399 08c7 1D       		.byte	0x1d
 4400 08c8 0F       		.uleb128 0xf
 4401 08c9 01090000 		.4byte	.LASF148
 4402 08cd 0F       		.byte	0xf
 4403 08ce E9       		.byte	0xe9
 4404 08cf D9000000 		.4byte	0xd9
 4405 08d3 1E       		.byte	0x1e
 4406 08d4 10       		.uleb128 0x10
 4407 08d5 746D7200 		.ascii	"tmr\000"
 4408 08d9 0F       		.byte	0xf
 4409 08da EA       		.byte	0xea
ARM GAS  C:\Users\Phuong\AppData\Local\Temp\cc5dKVKJ.s 			page 113


 4410 08db 05010000 		.4byte	0x105
 4411 08df 20       		.byte	0x20
 4412 08e0 0F       		.uleb128 0xf
 4413 08e1 8A040000 		.4byte	.LASF149
 4414 08e5 0F       		.byte	0xf
 4415 08e6 ED       		.byte	0xed
 4416 08e7 05010000 		.4byte	0x105
 4417 08eb 24       		.byte	0x24
 4418 08ec 0F       		.uleb128 0xf
 4419 08ed 46020000 		.4byte	.LASF150
 4420 08f1 0F       		.byte	0xf
 4421 08f2 EE       		.byte	0xee
 4422 08f3 920B0000 		.4byte	0xb92
 4423 08f7 28       		.byte	0x28
 4424 08f8 0F       		.uleb128 0xf
 4425 08f9 5C070000 		.4byte	.LASF151
 4426 08fd 0F       		.byte	0xf
 4427 08fe EF       		.byte	0xef
 4428 08ff 920B0000 		.4byte	0xb92
 4429 0903 2A       		.byte	0x2a
 4430 0904 0F       		.uleb128 0xf
 4431 0905 4E010000 		.4byte	.LASF152
 4432 0909 0F       		.byte	0xf
 4433 090a F0       		.byte	0xf0
 4434 090b 05010000 		.4byte	0x105
 4435 090f 2C       		.byte	0x2c
 4436 0910 0F       		.uleb128 0xf
 4437 0911 AD030000 		.4byte	.LASF153
 4438 0915 0F       		.byte	0xf
 4439 0916 F3       		.byte	0xf3
 4440 0917 FA000000 		.4byte	0xfa
 4441 091b 30       		.byte	0x30
 4442 091c 10       		.uleb128 0x10
 4443 091d 6D737300 		.ascii	"mss\000"
 4444 0921 0F       		.byte	0xf
 4445 0922 F5       		.byte	0xf5
 4446 0923 EF000000 		.4byte	0xef
 4447 0927 32       		.byte	0x32
 4448 0928 0F       		.uleb128 0xf
 4449 0929 B5080000 		.4byte	.LASF154
 4450 092d 0F       		.byte	0xf
 4451 092e F8       		.byte	0xf8
 4452 092f 05010000 		.4byte	0x105
 4453 0933 34       		.byte	0x34
 4454 0934 0F       		.uleb128 0xf
 4455 0935 B2050000 		.4byte	.LASF155
 4456 0939 0F       		.byte	0xf
 4457 093a F9       		.byte	0xf9
 4458 093b 05010000 		.4byte	0x105
 4459 093f 38       		.byte	0x38
 4460 0940 10       		.uleb128 0x10
 4461 0941 736100   		.ascii	"sa\000"
 4462 0944 0F       		.byte	0xf
 4463 0945 FA       		.byte	0xfa
 4464 0946 FA000000 		.4byte	0xfa
 4465 094a 3C       		.byte	0x3c
 4466 094b 10       		.uleb128 0x10
ARM GAS  C:\Users\Phuong\AppData\Local\Temp\cc5dKVKJ.s 			page 114


 4467 094c 737600   		.ascii	"sv\000"
 4468 094f 0F       		.byte	0xf
 4469 0950 FA       		.byte	0xfa
 4470 0951 FA000000 		.4byte	0xfa
 4471 0955 3E       		.byte	0x3e
 4472 0956 10       		.uleb128 0x10
 4473 0957 72746F00 		.ascii	"rto\000"
 4474 095b 0F       		.byte	0xf
 4475 095c FC       		.byte	0xfc
 4476 095d FA000000 		.4byte	0xfa
 4477 0961 40       		.byte	0x40
 4478 0962 0F       		.uleb128 0xf
 4479 0963 A60C0000 		.4byte	.LASF156
 4480 0967 0F       		.byte	0xf
 4481 0968 FD       		.byte	0xfd
 4482 0969 D9000000 		.4byte	0xd9
 4483 096d 42       		.byte	0x42
 4484 096e 13       		.uleb128 0x13
 4485 096f CE050000 		.4byte	.LASF157
 4486 0973 0F       		.byte	0xf
 4487 0974 0001     		.2byte	0x100
 4488 0976 D9000000 		.4byte	0xd9
 4489 097a 43       		.byte	0x43
 4490 097b 13       		.uleb128 0x13
 4491 097c 5B050000 		.4byte	.LASF158
 4492 0980 0F       		.byte	0xf
 4493 0981 0101     		.2byte	0x101
 4494 0983 05010000 		.4byte	0x105
 4495 0987 44       		.byte	0x44
 4496 0988 13       		.uleb128 0x13
 4497 0989 5B020000 		.4byte	.LASF159
 4498 098d 0F       		.byte	0xf
 4499 098e 0401     		.2byte	0x104
 4500 0990 920B0000 		.4byte	0xb92
 4501 0994 48       		.byte	0x48
 4502 0995 13       		.uleb128 0x13
 4503 0996 CC090000 		.4byte	.LASF160
 4504 099a 0F       		.byte	0xf
 4505 099b 0501     		.2byte	0x105
 4506 099d 920B0000 		.4byte	0xb92
 4507 09a1 4A       		.byte	0x4a
 4508 09a2 13       		.uleb128 0x13
 4509 09a3 AF0B0000 		.4byte	.LASF161
 4510 09a7 0F       		.byte	0xf
 4511 09a8 0801     		.2byte	0x108
 4512 09aa 05010000 		.4byte	0x105
 4513 09ae 4C       		.byte	0x4c
 4514 09af 13       		.uleb128 0x13
 4515 09b0 6C060000 		.4byte	.LASF162
 4516 09b4 0F       		.byte	0xf
 4517 09b5 0901     		.2byte	0x109
 4518 09b7 05010000 		.4byte	0x105
 4519 09bb 50       		.byte	0x50
 4520 09bc 13       		.uleb128 0x13
 4521 09bd 74060000 		.4byte	.LASF163
 4522 09c1 0F       		.byte	0xf
 4523 09c2 0901     		.2byte	0x109
ARM GAS  C:\Users\Phuong\AppData\Local\Temp\cc5dKVKJ.s 			page 115


 4524 09c4 05010000 		.4byte	0x105
 4525 09c8 54       		.byte	0x54
 4526 09c9 13       		.uleb128 0x13
 4527 09ca 9F060000 		.4byte	.LASF164
 4528 09ce 0F       		.byte	0xf
 4529 09cf 0B01     		.2byte	0x10b
 4530 09d1 05010000 		.4byte	0x105
 4531 09d5 58       		.byte	0x58
 4532 09d6 13       		.uleb128 0x13
 4533 09d7 FE070000 		.4byte	.LASF165
 4534 09db 0F       		.byte	0xf
 4535 09dc 0C01     		.2byte	0x10c
 4536 09de 920B0000 		.4byte	0xb92
 4537 09e2 5C       		.byte	0x5c
 4538 09e3 13       		.uleb128 0x13
 4539 09e4 9E090000 		.4byte	.LASF166
 4540 09e8 0F       		.byte	0xf
 4541 09e9 0D01     		.2byte	0x10d
 4542 09eb 920B0000 		.4byte	0xb92
 4543 09ef 5E       		.byte	0x5e
 4544 09f0 13       		.uleb128 0x13
 4545 09f1 D5090000 		.4byte	.LASF167
 4546 09f5 0F       		.byte	0xf
 4547 09f6 0F01     		.2byte	0x10f
 4548 09f8 920B0000 		.4byte	0xb92
 4549 09fc 60       		.byte	0x60
 4550 09fd 13       		.uleb128 0x13
 4551 09fe AB0C0000 		.4byte	.LASF168
 4552 0a02 0F       		.byte	0xf
 4553 0a03 1101     		.2byte	0x111
 4554 0a05 EF000000 		.4byte	0xef
 4555 0a09 62       		.byte	0x62
 4556 0a0a 13       		.uleb128 0x13
 4557 0a0b 2F090000 		.4byte	.LASF169
 4558 0a0f 0F       		.byte	0xf
 4559 0a10 1501     		.2byte	0x115
 4560 0a12 EF000000 		.4byte	0xef
 4561 0a16 64       		.byte	0x64
 4562 0a17 13       		.uleb128 0x13
 4563 0a18 AE080000 		.4byte	.LASF170
 4564 0a1c 0F       		.byte	0xf
 4565 0a1d 1901     		.2byte	0x119
 4566 0a1f FF0C0000 		.4byte	0xcff
 4567 0a23 68       		.byte	0x68
 4568 0a24 13       		.uleb128 0x13
 4569 0a25 BA040000 		.4byte	.LASF171
 4570 0a29 0F       		.byte	0xf
 4571 0a2a 1A01     		.2byte	0x11a
 4572 0a2c FF0C0000 		.4byte	0xcff
 4573 0a30 6C       		.byte	0x6c
 4574 0a31 13       		.uleb128 0x13
 4575 0a32 41080000 		.4byte	.LASF172
 4576 0a36 0F       		.byte	0xf
 4577 0a37 1C01     		.2byte	0x11c
 4578 0a39 FF0C0000 		.4byte	0xcff
 4579 0a3d 70       		.byte	0x70
 4580 0a3e 13       		.uleb128 0x13
ARM GAS  C:\Users\Phuong\AppData\Local\Temp\cc5dKVKJ.s 			page 116


 4581 0a3f 6E0A0000 		.4byte	.LASF173
 4582 0a43 0F       		.byte	0xf
 4583 0a44 1F01     		.2byte	0x11f
 4584 0a46 6B020000 		.4byte	0x26b
 4585 0a4a 74       		.byte	0x74
 4586 0a4b 13       		.uleb128 0x13
 4587 0a4c 6F000000 		.4byte	.LASF174
 4588 0a50 0F       		.byte	0xf
 4589 0a51 2201     		.2byte	0x122
 4590 0a53 A40C0000 		.4byte	0xca4
 4591 0a57 78       		.byte	0x78
 4592 0a58 13       		.uleb128 0x13
 4593 0a59 67060000 		.4byte	.LASF175
 4594 0a5d 0F       		.byte	0xf
 4595 0a5e 2701     		.2byte	0x127
 4596 0a60 170B0000 		.4byte	0xb17
 4597 0a64 7C       		.byte	0x7c
 4598 0a65 13       		.uleb128 0x13
 4599 0a66 9E0B0000 		.4byte	.LASF88
 4600 0a6a 0F       		.byte	0xf
 4601 0a6b 2901     		.2byte	0x129
 4602 0a6d E80A0000 		.4byte	0xae8
 4603 0a71 80       		.byte	0x80
 4604 0a72 13       		.uleb128 0x13
 4605 0a73 11050000 		.4byte	.LASF176
 4606 0a77 0F       		.byte	0xf
 4607 0a78 2B01     		.2byte	0x12b
 4608 0a7a 870B0000 		.4byte	0xb87
 4609 0a7e 84       		.byte	0x84
 4610 0a7f 13       		.uleb128 0x13
 4611 0a80 EC050000 		.4byte	.LASF177
 4612 0a84 0F       		.byte	0xf
 4613 0a85 2D01     		.2byte	0x12d
 4614 0a87 410B0000 		.4byte	0xb41
 4615 0a8b 88       		.byte	0x88
 4616 0a8c 13       		.uleb128 0x13
 4617 0a8d F9070000 		.4byte	.LASF178
 4618 0a91 0F       		.byte	0xf
 4619 0a92 2F01     		.2byte	0x12f
 4620 0a94 660B0000 		.4byte	0xb66
 4621 0a98 8C       		.byte	0x8c
 4622 0a99 13       		.uleb128 0x13
 4623 0a9a FC0A0000 		.4byte	.LASF179
 4624 0a9e 0F       		.byte	0xf
 4625 0a9f 3801     		.2byte	0x138
 4626 0aa1 05010000 		.4byte	0x105
 4627 0aa5 90       		.byte	0x90
 4628 0aa6 13       		.uleb128 0x13
 4629 0aa7 2F0C0000 		.4byte	.LASF180
 4630 0aab 0F       		.byte	0xf
 4631 0aac 3A01     		.2byte	0x13a
 4632 0aae 05010000 		.4byte	0x105
 4633 0ab2 94       		.byte	0x94
 4634 0ab3 13       		.uleb128 0x13
 4635 0ab4 ED010000 		.4byte	.LASF181
 4636 0ab8 0F       		.byte	0xf
 4637 0ab9 3B01     		.2byte	0x13b
ARM GAS  C:\Users\Phuong\AppData\Local\Temp\cc5dKVKJ.s 			page 117


 4638 0abb 05010000 		.4byte	0x105
 4639 0abf 98       		.byte	0x98
 4640 0ac0 13       		.uleb128 0x13
 4641 0ac1 FA0B0000 		.4byte	.LASF182
 4642 0ac5 0F       		.byte	0xf
 4643 0ac6 3F01     		.2byte	0x13f
 4644 0ac8 D9000000 		.4byte	0xd9
 4645 0acc 9C       		.byte	0x9c
 4646 0acd 13       		.uleb128 0x13
 4647 0ace EF060000 		.4byte	.LASF183
 4648 0ad2 0F       		.byte	0xf
 4649 0ad3 4101     		.2byte	0x141
 4650 0ad5 D9000000 		.4byte	0xd9
 4651 0ad9 9D       		.byte	0x9d
 4652 0ada 13       		.uleb128 0x13
 4653 0adb A6010000 		.4byte	.LASF184
 4654 0adf 0F       		.byte	0xf
 4655 0ae0 4401     		.2byte	0x144
 4656 0ae2 D9000000 		.4byte	0xd9
 4657 0ae6 9E       		.byte	0x9e
 4658 0ae7 00       		.byte	0
 4659 0ae8 03       		.uleb128 0x3
 4660 0ae9 7E070000 		.4byte	.LASF185
 4661 0aed 0F       		.byte	0xf
 4662 0aee 50       		.byte	0x50
 4663 0aef F30A0000 		.4byte	0xaf3
 4664 0af3 06       		.uleb128 0x6
 4665 0af4 04       		.byte	0x4
 4666 0af5 F90A0000 		.4byte	0xaf9
 4667 0af9 16       		.uleb128 0x16
 4668 0afa 31010000 		.4byte	0x131
 4669 0afe 170B0000 		.4byte	0xb17
 4670 0b02 17       		.uleb128 0x17
 4671 0b03 88000000 		.4byte	0x88
 4672 0b07 17       		.uleb128 0x17
 4673 0b08 0E080000 		.4byte	0x80e
 4674 0b0c 17       		.uleb128 0x17
 4675 0b0d 6B020000 		.4byte	0x26b
 4676 0b11 17       		.uleb128 0x17
 4677 0b12 31010000 		.4byte	0x131
 4678 0b16 00       		.byte	0
 4679 0b17 03       		.uleb128 0x3
 4680 0b18 CE010000 		.4byte	.LASF186
 4681 0b1c 0F       		.byte	0xf
 4682 0b1d 5E       		.byte	0x5e
 4683 0b1e 220B0000 		.4byte	0xb22
 4684 0b22 06       		.uleb128 0x6
 4685 0b23 04       		.byte	0x4
 4686 0b24 280B0000 		.4byte	0xb28
 4687 0b28 16       		.uleb128 0x16
 4688 0b29 31010000 		.4byte	0x131
 4689 0b2d 410B0000 		.4byte	0xb41
 4690 0b31 17       		.uleb128 0x17
 4691 0b32 88000000 		.4byte	0x88
 4692 0b36 17       		.uleb128 0x17
 4693 0b37 0E080000 		.4byte	0x80e
 4694 0b3b 17       		.uleb128 0x17
ARM GAS  C:\Users\Phuong\AppData\Local\Temp\cc5dKVKJ.s 			page 118


 4695 0b3c EF000000 		.4byte	0xef
 4696 0b40 00       		.byte	0
 4697 0b41 03       		.uleb128 0x3
 4698 0b42 B4070000 		.4byte	.LASF187
 4699 0b46 0F       		.byte	0xf
 4700 0b47 6A       		.byte	0x6a
 4701 0b48 4C0B0000 		.4byte	0xb4c
 4702 0b4c 06       		.uleb128 0x6
 4703 0b4d 04       		.byte	0x4
 4704 0b4e 520B0000 		.4byte	0xb52
 4705 0b52 16       		.uleb128 0x16
 4706 0b53 31010000 		.4byte	0x131
 4707 0b57 660B0000 		.4byte	0xb66
 4708 0b5b 17       		.uleb128 0x17
 4709 0b5c 88000000 		.4byte	0x88
 4710 0b60 17       		.uleb128 0x17
 4711 0b61 0E080000 		.4byte	0x80e
 4712 0b65 00       		.byte	0
 4713 0b66 03       		.uleb128 0x3
 4714 0b67 9B0C0000 		.4byte	.LASF188
 4715 0b6b 0F       		.byte	0xf
 4716 0b6c 76       		.byte	0x76
 4717 0b6d 710B0000 		.4byte	0xb71
 4718 0b71 06       		.uleb128 0x6
 4719 0b72 04       		.byte	0x4
 4720 0b73 770B0000 		.4byte	0xb77
 4721 0b77 18       		.uleb128 0x18
 4722 0b78 870B0000 		.4byte	0xb87
 4723 0b7c 17       		.uleb128 0x17
 4724 0b7d 88000000 		.4byte	0x88
 4725 0b81 17       		.uleb128 0x17
 4726 0b82 31010000 		.4byte	0x131
 4727 0b86 00       		.byte	0
 4728 0b87 03       		.uleb128 0x3
 4729 0b88 DF000000 		.4byte	.LASF189
 4730 0b8c 0F       		.byte	0xf
 4731 0b8d 84       		.byte	0x84
 4732 0b8e EF070000 		.4byte	0x7ef
 4733 0b92 03       		.uleb128 0x3
 4734 0b93 810A0000 		.4byte	.LASF190
 4735 0b97 0F       		.byte	0xf
 4736 0b98 91       		.byte	0x91
 4737 0b99 EF000000 		.4byte	0xef
 4738 0b9d 03       		.uleb128 0x3
 4739 0b9e EE070000 		.4byte	.LASF191
 4740 0ba2 0F       		.byte	0xf
 4741 0ba3 95       		.byte	0x95
 4742 0ba4 EF000000 		.4byte	0xef
 4743 0ba8 15       		.uleb128 0x15
 4744 0ba9 A3030000 		.4byte	.LASF193
 4745 0bad 01       		.byte	0x1
 4746 0bae 2C000000 		.4byte	0x2c
 4747 0bb2 0F       		.byte	0xf
 4748 0bb3 9A       		.byte	0x9a
 4749 0bb4 FB0B0000 		.4byte	0xbfb
 4750 0bb8 0C       		.uleb128 0xc
 4751 0bb9 67080000 		.4byte	.LASF194
ARM GAS  C:\Users\Phuong\AppData\Local\Temp\cc5dKVKJ.s 			page 119


 4752 0bbd 00       		.byte	0
 4753 0bbe 0C       		.uleb128 0xc
 4754 0bbf 1D0B0000 		.4byte	.LASF195
 4755 0bc3 01       		.byte	0x1
 4756 0bc4 0C       		.uleb128 0xc
 4757 0bc5 3F090000 		.4byte	.LASF196
 4758 0bc9 02       		.byte	0x2
 4759 0bca 0C       		.uleb128 0xc
 4760 0bcb C50C0000 		.4byte	.LASF197
 4761 0bcf 03       		.byte	0x3
 4762 0bd0 0C       		.uleb128 0xc
 4763 0bd1 6F090000 		.4byte	.LASF198
 4764 0bd5 04       		.byte	0x4
 4765 0bd6 0C       		.uleb128 0xc
 4766 0bd7 B40A0000 		.4byte	.LASF199
 4767 0bdb 05       		.byte	0x5
 4768 0bdc 0C       		.uleb128 0xc
 4769 0bdd BF0A0000 		.4byte	.LASF200
 4770 0be1 06       		.byte	0x6
 4771 0be2 0C       		.uleb128 0xc
 4772 0be3 38060000 		.4byte	.LASF201
 4773 0be7 07       		.byte	0x7
 4774 0be8 0C       		.uleb128 0xc
 4775 0be9 41050000 		.4byte	.LASF202
 4776 0bed 08       		.byte	0x8
 4777 0bee 0C       		.uleb128 0xc
 4778 0bef 53070000 		.4byte	.LASF203
 4779 0bf3 09       		.byte	0x9
 4780 0bf4 0C       		.uleb128 0xc
 4781 0bf5 C8000000 		.4byte	.LASF204
 4782 0bf9 0A       		.byte	0xa
 4783 0bfa 00       		.byte	0
 4784 0bfb 0E       		.uleb128 0xe
 4785 0bfc C9060000 		.4byte	.LASF205
 4786 0c00 20       		.byte	0x20
 4787 0c01 0F       		.byte	0xf
 4788 0c02 B5       		.byte	0xb5
 4789 0c03 A40C0000 		.4byte	0xca4
 4790 0c07 0F       		.uleb128 0xf
 4791 0c08 19090000 		.4byte	.LASF139
 4792 0c0c 0F       		.byte	0xf
 4793 0c0d B7       		.byte	0xb7
 4794 0c0e BA020000 		.4byte	0x2ba
 4795 0c12 00       		.byte	0
 4796 0c13 0F       		.uleb128 0xf
 4797 0c14 060C0000 		.4byte	.LASF140
 4798 0c18 0F       		.byte	0xf
 4799 0c19 B7       		.byte	0xb7
 4800 0c1a BA020000 		.4byte	0x2ba
 4801 0c1e 04       		.byte	0x4
 4802 0c1f 0F       		.uleb128 0xf
 4803 0c20 1E070000 		.4byte	.LASF141
 4804 0c24 0F       		.byte	0xf
 4805 0c25 B7       		.byte	0xb7
 4806 0c26 D9000000 		.4byte	0xd9
 4807 0c2a 08       		.byte	0x8
 4808 0c2b 10       		.uleb128 0x10
ARM GAS  C:\Users\Phuong\AppData\Local\Temp\cc5dKVKJ.s 			page 120


 4809 0c2c 746F7300 		.ascii	"tos\000"
 4810 0c30 0F       		.byte	0xf
 4811 0c31 B7       		.byte	0xb7
 4812 0c32 D9000000 		.4byte	0xd9
 4813 0c36 09       		.byte	0x9
 4814 0c37 10       		.uleb128 0x10
 4815 0c38 74746C00 		.ascii	"ttl\000"
 4816 0c3c 0F       		.byte	0xf
 4817 0c3d B7       		.byte	0xb7
 4818 0c3e D9000000 		.4byte	0xd9
 4819 0c42 0A       		.byte	0xa
 4820 0c43 0F       		.uleb128 0xf
 4821 0c44 F0000000 		.4byte	.LASF53
 4822 0c48 0F       		.byte	0xf
 4823 0c49 B9       		.byte	0xb9
 4824 0c4a A40C0000 		.4byte	0xca4
 4825 0c4e 0C       		.byte	0xc
 4826 0c4f 0F       		.uleb128 0xf
 4827 0c50 100B0000 		.4byte	.LASF142
 4828 0c54 0F       		.byte	0xf
 4829 0c55 B9       		.byte	0xb9
 4830 0c56 88000000 		.4byte	0x88
 4831 0c5a 10       		.byte	0x10
 4832 0c5b 0F       		.uleb128 0xf
 4833 0c5c 550B0000 		.4byte	.LASF125
 4834 0c60 0F       		.byte	0xf
 4835 0c61 B9       		.byte	0xb9
 4836 0c62 A80B0000 		.4byte	0xba8
 4837 0c66 14       		.byte	0x14
 4838 0c67 0F       		.uleb128 0xf
 4839 0c68 D6050000 		.4byte	.LASF143
 4840 0c6c 0F       		.byte	0xf
 4841 0c6d B9       		.byte	0xb9
 4842 0c6e D9000000 		.4byte	0xd9
 4843 0c72 15       		.byte	0x15
 4844 0c73 0F       		.uleb128 0xf
 4845 0c74 8A020000 		.4byte	.LASF144
 4846 0c78 0F       		.byte	0xf
 4847 0c79 B9       		.byte	0xb9
 4848 0c7a EF000000 		.4byte	0xef
 4849 0c7e 16       		.byte	0x16
 4850 0c7f 0F       		.uleb128 0xf
 4851 0c80 DB050000 		.4byte	.LASF206
 4852 0c84 0F       		.byte	0xf
 4853 0c85 BD       		.byte	0xbd
 4854 0c86 E4070000 		.4byte	0x7e4
 4855 0c8a 18       		.byte	0x18
 4856 0c8b 0F       		.uleb128 0xf
 4857 0c8c 53050000 		.4byte	.LASF207
 4858 0c90 0F       		.byte	0xf
 4859 0c91 C1       		.byte	0xc1
 4860 0c92 D9000000 		.4byte	0xd9
 4861 0c96 1C       		.byte	0x1c
 4862 0c97 0F       		.uleb128 0xf
 4863 0c98 DC040000 		.4byte	.LASF208
 4864 0c9c 0F       		.byte	0xf
 4865 0c9d C2       		.byte	0xc2
ARM GAS  C:\Users\Phuong\AppData\Local\Temp\cc5dKVKJ.s 			page 121


 4866 0c9e D9000000 		.4byte	0xd9
 4867 0ca2 1D       		.byte	0x1d
 4868 0ca3 00       		.byte	0
 4869 0ca4 06       		.uleb128 0x6
 4870 0ca5 04       		.byte	0x4
 4871 0ca6 FB0B0000 		.4byte	0xbfb
 4872 0caa 0E       		.uleb128 0xe
 4873 0cab 6E030000 		.4byte	.LASF209
 4874 0caf 14       		.byte	0x14
 4875 0cb0 10       		.byte	0x10
 4876 0cb1 F8       		.byte	0xf8
 4877 0cb2 FF0C0000 		.4byte	0xcff
 4878 0cb6 0F       		.uleb128 0xf
 4879 0cb7 F0000000 		.4byte	.LASF53
 4880 0cbb 10       		.byte	0x10
 4881 0cbc F9       		.byte	0xf9
 4882 0cbd FF0C0000 		.4byte	0xcff
 4883 0cc1 00       		.byte	0
 4884 0cc2 10       		.uleb128 0x10
 4885 0cc3 7000     		.ascii	"p\000"
 4886 0cc5 10       		.byte	0x10
 4887 0cc6 FA       		.byte	0xfa
 4888 0cc7 6B020000 		.4byte	0x26b
 4889 0ccb 04       		.byte	0x4
 4890 0ccc 10       		.uleb128 0x10
 4891 0ccd 6C656E00 		.ascii	"len\000"
 4892 0cd1 10       		.byte	0x10
 4893 0cd2 FB       		.byte	0xfb
 4894 0cd3 EF000000 		.4byte	0xef
 4895 0cd7 08       		.byte	0x8
 4896 0cd8 0F       		.uleb128 0xf
 4897 0cd9 7C060000 		.4byte	.LASF210
 4898 0cdd 10       		.byte	0x10
 4899 0cde FD       		.byte	0xfd
 4900 0cdf EF000000 		.4byte	0xef
 4901 0ce3 0A       		.byte	0xa
 4902 0ce4 13       		.uleb128 0x13
 4903 0ce5 97000000 		.4byte	.LASF57
 4904 0ce9 10       		.byte	0x10
 4905 0cea 0501     		.2byte	0x105
 4906 0cec D9000000 		.4byte	0xd9
 4907 0cf0 0C       		.byte	0xc
 4908 0cf1 13       		.uleb128 0x13
 4909 0cf2 4D0A0000 		.4byte	.LASF211
 4910 0cf6 10       		.byte	0x10
 4911 0cf7 0B01     		.2byte	0x10b
 4912 0cf9 720D0000 		.4byte	0xd72
 4913 0cfd 10       		.byte	0x10
 4914 0cfe 00       		.byte	0
 4915 0cff 06       		.uleb128 0x6
 4916 0d00 04       		.byte	0x4
 4917 0d01 AA0C0000 		.4byte	0xcaa
 4918 0d05 0E       		.uleb128 0xe
 4919 0d06 980A0000 		.4byte	.LASF212
 4920 0d0a 14       		.byte	0x14
 4921 0d0b 11       		.byte	0x11
 4922 0d0c 38       		.byte	0x38
ARM GAS  C:\Users\Phuong\AppData\Local\Temp\cc5dKVKJ.s 			page 122


 4923 0d0d 720D0000 		.4byte	0xd72
 4924 0d11 10       		.uleb128 0x10
 4925 0d12 73726300 		.ascii	"src\000"
 4926 0d16 11       		.byte	0x11
 4927 0d17 39       		.byte	0x39
 4928 0d18 EF000000 		.4byte	0xef
 4929 0d1c 00       		.byte	0
 4930 0d1d 0F       		.uleb128 0xf
 4931 0d1e C00C0000 		.4byte	.LASF213
 4932 0d22 11       		.byte	0x11
 4933 0d23 3A       		.byte	0x3a
 4934 0d24 EF000000 		.4byte	0xef
 4935 0d28 02       		.byte	0x2
 4936 0d29 0F       		.uleb128 0xf
 4937 0d2a 31020000 		.4byte	.LASF214
 4938 0d2e 11       		.byte	0x11
 4939 0d2f 3B       		.byte	0x3b
 4940 0d30 05010000 		.4byte	0x105
 4941 0d34 04       		.byte	0x4
 4942 0d35 0F       		.uleb128 0xf
 4943 0d36 3E000000 		.4byte	.LASF215
 4944 0d3a 11       		.byte	0x11
 4945 0d3b 3C       		.byte	0x3c
 4946 0d3c 05010000 		.4byte	0x105
 4947 0d40 08       		.byte	0x8
 4948 0d41 0F       		.uleb128 0xf
 4949 0d42 EF090000 		.4byte	.LASF216
 4950 0d46 11       		.byte	0x11
 4951 0d47 3D       		.byte	0x3d
 4952 0d48 EF000000 		.4byte	0xef
 4953 0d4c 0C       		.byte	0xc
 4954 0d4d 10       		.uleb128 0x10
 4955 0d4e 776E6400 		.ascii	"wnd\000"
 4956 0d52 11       		.byte	0x11
 4957 0d53 3E       		.byte	0x3e
 4958 0d54 EF000000 		.4byte	0xef
 4959 0d58 0E       		.byte	0xe
 4960 0d59 0F       		.uleb128 0xf
 4961 0d5a EC040000 		.4byte	.LASF217
 4962 0d5e 11       		.byte	0x11
 4963 0d5f 3F       		.byte	0x3f
 4964 0d60 EF000000 		.4byte	0xef
 4965 0d64 10       		.byte	0x10
 4966 0d65 0F       		.uleb128 0xf
 4967 0d66 6A000000 		.4byte	.LASF218
 4968 0d6a 11       		.byte	0x11
 4969 0d6b 40       		.byte	0x40
 4970 0d6c EF000000 		.4byte	0xef
 4971 0d70 12       		.byte	0x12
 4972 0d71 00       		.byte	0
 4973 0d72 06       		.uleb128 0x6
 4974 0d73 04       		.byte	0x4
 4975 0d74 050D0000 		.4byte	0xd05
 4976 0d78 19       		.uleb128 0x19
 4977 0d79 00000000 		.4byte	.LASF219
 4978 0d7d 01       		.byte	0x1
 4979 0d7e 3301     		.2byte	0x133
ARM GAS  C:\Users\Phuong\AppData\Local\Temp\cc5dKVKJ.s 			page 123


 4980 0d80 31010000 		.4byte	0x131
 4981 0d84 00000000 		.4byte	.LFB57
 4982 0d88 60000000 		.4byte	.LFE57-.LFB57
 4983 0d8c 01       		.uleb128 0x1
 4984 0d8d 9C       		.byte	0x9c
 4985 0d8e B30D0000 		.4byte	0xdb3
 4986 0d92 1A       		.uleb128 0x1a
 4987 0d93 70636200 		.ascii	"pcb\000"
 4988 0d97 01       		.byte	0x1
 4989 0d98 3301     		.2byte	0x133
 4990 0d9a 0E080000 		.4byte	0x80e
 4991 0d9e 00000000 		.4byte	.LLST0
 4992 0da2 1A       		.uleb128 0x1a
 4993 0da3 6C656E00 		.ascii	"len\000"
 4994 0da7 01       		.byte	0x1
 4995 0da8 3301     		.2byte	0x133
 4996 0daa EF000000 		.4byte	0xef
 4997 0dae 85000000 		.4byte	.LLST1
 4998 0db2 00       		.byte	0
 4999 0db3 1B       		.uleb128 0x1b
 5000 0db4 A6000000 		.4byte	.LASF220
 5001 0db8 01       		.byte	0x1
 5002 0db9 E9       		.byte	0xe9
 5003 0dba 6B020000 		.4byte	0x26b
 5004 0dbe 00000000 		.4byte	.LFB56
 5005 0dc2 22000000 		.4byte	.LFE56-.LFB56
 5006 0dc6 01       		.uleb128 0x1
 5007 0dc7 9C       		.byte	0x9c
 5008 0dc8 5E0E0000 		.4byte	0xe5e
 5009 0dcc 1C       		.uleb128 0x1c
 5010 0dcd 11000000 		.4byte	.LASF221
 5011 0dd1 01       		.byte	0x1
 5012 0dd2 E9       		.byte	0xe9
 5013 0dd3 DA010000 		.4byte	0x1da
 5014 0dd7 BF000000 		.4byte	.LLST2
 5015 0ddb 1C       		.uleb128 0x1c
 5016 0ddc A7080000 		.4byte	.LASF222
 5017 0de0 01       		.byte	0x1
 5018 0de1 E9       		.byte	0xe9
 5019 0de2 EF000000 		.4byte	0xef
 5020 0de6 E0000000 		.4byte	.LLST3
 5021 0dea 1C       		.uleb128 0x1c
 5022 0deb 5C080000 		.4byte	.LASF223
 5023 0def 01       		.byte	0x1
 5024 0df0 E9       		.byte	0xe9
 5025 0df1 EF000000 		.4byte	0xef
 5026 0df5 01010000 		.4byte	.LLST4
 5027 0df9 1C       		.uleb128 0x1c
 5028 0dfa 58000000 		.4byte	.LASF224
 5029 0dfe 01       		.byte	0x1
 5030 0dff EA       		.byte	0xea
 5031 0e00 5E0E0000 		.4byte	0xe5e
 5032 0e04 22010000 		.4byte	.LLST5
 5033 0e08 1D       		.uleb128 0x1d
 5034 0e09 70636200 		.ascii	"pcb\000"
 5035 0e0d 01       		.byte	0x1
 5036 0e0e EA       		.byte	0xea
ARM GAS  C:\Users\Phuong\AppData\Local\Temp\cc5dKVKJ.s 			page 124


 5037 0e0f 0E080000 		.4byte	0x80e
 5038 0e13 02       		.uleb128 0x2
 5039 0e14 91       		.byte	0x91
 5040 0e15 00       		.sleb128 0
 5041 0e16 1E       		.uleb128 0x1e
 5042 0e17 650A0000 		.4byte	.LASF225
 5043 0e1b 01       		.byte	0x1
 5044 0e1c EA       		.byte	0xea
 5045 0e1d D9000000 		.4byte	0xd9
 5046 0e21 02       		.uleb128 0x2
 5047 0e22 91       		.byte	0x91
 5048 0e23 04       		.sleb128 4
 5049 0e24 1E       		.uleb128 0x1e
 5050 0e25 49050000 		.4byte	.LASF226
 5051 0e29 01       		.byte	0x1
 5052 0e2a EB       		.byte	0xeb
 5053 0e2b D9000000 		.4byte	0xd9
 5054 0e2f 02       		.uleb128 0x2
 5055 0e30 91       		.byte	0x91
 5056 0e31 08       		.sleb128 8
 5057 0e32 1F       		.uleb128 0x1f
 5058 0e33 7000     		.ascii	"p\000"
 5059 0e35 01       		.byte	0x1
 5060 0e36 ED       		.byte	0xed
 5061 0e37 6B020000 		.4byte	0x26b
 5062 0e3b 4E010000 		.4byte	.LLST6
 5063 0e3f 20       		.uleb128 0x20
 5064 0e40 74080000 		.4byte	.LASF227
 5065 0e44 01       		.byte	0x1
 5066 0e45 EE       		.byte	0xee
 5067 0e46 EF000000 		.4byte	0xef
 5068 0e4a 61010000 		.4byte	.LLST7
 5069 0e4e 21       		.uleb128 0x21
 5070 0e4f 0E000000 		.4byte	.LVL15
 5071 0e53 6B1E0000 		.4byte	0x1e6b
 5072 0e57 22       		.uleb128 0x22
 5073 0e58 01       		.uleb128 0x1
 5074 0e59 52       		.byte	0x52
 5075 0e5a 01       		.uleb128 0x1
 5076 0e5b 30       		.byte	0x30
 5077 0e5c 00       		.byte	0
 5078 0e5d 00       		.byte	0
 5079 0e5e 06       		.uleb128 0x6
 5080 0e5f 04       		.byte	0x4
 5081 0e60 EF000000 		.4byte	0xef
 5082 0e64 1B       		.uleb128 0x1b
 5083 0e65 DD080000 		.4byte	.LASF228
 5084 0e69 01       		.byte	0x1
 5085 0e6a AD       		.byte	0xad
 5086 0e6b FF0C0000 		.4byte	0xcff
 5087 0e6f 00000000 		.4byte	.LFB55
 5088 0e73 D8000000 		.4byte	.LFE55-.LFB55
 5089 0e77 01       		.uleb128 0x1
 5090 0e78 9C       		.byte	0x9c
 5091 0e79 860F0000 		.4byte	0xf86
 5092 0e7d 23       		.uleb128 0x23
 5093 0e7e 70636200 		.ascii	"pcb\000"
ARM GAS  C:\Users\Phuong\AppData\Local\Temp\cc5dKVKJ.s 			page 125


 5094 0e82 01       		.byte	0x1
 5095 0e83 AD       		.byte	0xad
 5096 0e84 0E080000 		.4byte	0x80e
 5097 0e88 74010000 		.4byte	.LLST8
 5098 0e8c 23       		.uleb128 0x23
 5099 0e8d 7000     		.ascii	"p\000"
 5100 0e8f 01       		.byte	0x1
 5101 0e90 AD       		.byte	0xad
 5102 0e91 6B020000 		.4byte	0x26b
 5103 0e95 A0010000 		.4byte	.LLST9
 5104 0e99 1C       		.uleb128 0x1c
 5105 0e9a 97000000 		.4byte	.LASF57
 5106 0e9e 01       		.byte	0x1
 5107 0e9f AD       		.byte	0xad
 5108 0ea0 D9000000 		.4byte	0xd9
 5109 0ea4 CC010000 		.4byte	.LLST10
 5110 0ea8 1C       		.uleb128 0x1c
 5111 0ea9 31020000 		.4byte	.LASF214
 5112 0ead 01       		.byte	0x1
 5113 0eae AD       		.byte	0xad
 5114 0eaf 05010000 		.4byte	0x105
 5115 0eb3 ED010000 		.4byte	.LLST11
 5116 0eb7 1C       		.uleb128 0x1c
 5117 0eb8 31070000 		.4byte	.LASF229
 5118 0ebc 01       		.byte	0x1
 5119 0ebd AD       		.byte	0xad
 5120 0ebe D9000000 		.4byte	0xd9
 5121 0ec2 18020000 		.4byte	.LLST12
 5122 0ec6 1F       		.uleb128 0x1f
 5123 0ec7 73656700 		.ascii	"seg\000"
 5124 0ecb 01       		.byte	0x1
 5125 0ecc AF       		.byte	0xaf
 5126 0ecd FF0C0000 		.4byte	0xcff
 5127 0ed1 44020000 		.4byte	.LLST13
 5128 0ed5 20       		.uleb128 0x20
 5129 0ed6 79010000 		.4byte	.LASF230
 5130 0eda 01       		.byte	0x1
 5131 0edb B0       		.byte	0xb0
 5132 0edc D9000000 		.4byte	0xd9
 5133 0ee0 78020000 		.4byte	.LLST14
 5134 0ee4 24       		.uleb128 0x24
 5135 0ee5 2C000000 		.4byte	.LVL25
 5136 0ee9 761E0000 		.4byte	0x1e76
 5137 0eed 060F0000 		.4byte	0xf06
 5138 0ef1 22       		.uleb128 0x22
 5139 0ef2 01       		.uleb128 0x1
 5140 0ef3 50       		.byte	0x50
 5141 0ef4 01       		.uleb128 0x1
 5142 0ef5 34       		.byte	0x34
 5143 0ef6 22       		.uleb128 0x22
 5144 0ef7 01       		.uleb128 0x1
 5145 0ef8 51       		.byte	0x51
 5146 0ef9 05       		.uleb128 0x5
 5147 0efa 03       		.byte	0x3
 5148 0efb 00000000 		.4byte	.LC1
 5149 0eff 22       		.uleb128 0x22
 5150 0f00 01       		.uleb128 0x1
ARM GAS  C:\Users\Phuong\AppData\Local\Temp\cc5dKVKJ.s 			page 126


 5151 0f01 52       		.byte	0x52
 5152 0f02 02       		.uleb128 0x2
 5153 0f03 08       		.byte	0x8
 5154 0f04 B2       		.byte	0xb2
 5155 0f05 00       		.byte	0
 5156 0f06 24       		.uleb128 0x24
 5157 0f07 36000000 		.4byte	.LVL28
 5158 0f0b 811E0000 		.4byte	0x1e81
 5159 0f0f 1A0F0000 		.4byte	0xf1a
 5160 0f13 22       		.uleb128 0x22
 5161 0f14 01       		.uleb128 0x1
 5162 0f15 50       		.byte	0x50
 5163 0f16 02       		.uleb128 0x2
 5164 0f17 77       		.byte	0x77
 5165 0f18 00       		.sleb128 0
 5166 0f19 00       		.byte	0
 5167 0f1a 24       		.uleb128 0x24
 5168 0f1b 54000000 		.4byte	.LVL31
 5169 0f1f 8C1E0000 		.4byte	0x1e8c
 5170 0f23 330F0000 		.4byte	0xf33
 5171 0f27 22       		.uleb128 0x22
 5172 0f28 01       		.uleb128 0x1
 5173 0f29 50       		.byte	0x50
 5174 0f2a 02       		.uleb128 0x2
 5175 0f2b 77       		.byte	0x77
 5176 0f2c 00       		.sleb128 0
 5177 0f2d 22       		.uleb128 0x22
 5178 0f2e 01       		.uleb128 0x1
 5179 0f2f 51       		.byte	0x51
 5180 0f30 01       		.uleb128 0x1
 5181 0f31 44       		.byte	0x44
 5182 0f32 00       		.byte	0
 5183 0f33 24       		.uleb128 0x24
 5184 0f34 68000000 		.4byte	.LVL32
 5185 0f38 971E0000 		.4byte	0x1e97
 5186 0f3c 470F0000 		.4byte	0xf47
 5187 0f40 22       		.uleb128 0x22
 5188 0f41 01       		.uleb128 0x1
 5189 0f42 50       		.byte	0x50
 5190 0f43 02       		.uleb128 0x2
 5191 0f44 74       		.byte	0x74
 5192 0f45 00       		.sleb128 0
 5193 0f46 00       		.byte	0
 5194 0f47 25       		.uleb128 0x25
 5195 0f48 78000000 		.4byte	.LVL34
 5196 0f4c A31E0000 		.4byte	0x1ea3
 5197 0f50 25       		.uleb128 0x25
 5198 0f51 86000000 		.4byte	.LVL35
 5199 0f55 A31E0000 		.4byte	0x1ea3
 5200 0f59 24       		.uleb128 0x24
 5201 0f5a 94000000 		.4byte	.LVL36
 5202 0f5e AE1E0000 		.4byte	0x1eae
 5203 0f62 6E0F0000 		.4byte	0xf6e
 5204 0f66 22       		.uleb128 0x22
 5205 0f67 01       		.uleb128 0x1
 5206 0f68 50       		.byte	0x50
 5207 0f69 03       		.uleb128 0x3
ARM GAS  C:\Users\Phuong\AppData\Local\Temp\cc5dKVKJ.s 			page 127


 5208 0f6a 91       		.byte	0x91
 5209 0f6b 5C       		.sleb128 -36
 5210 0f6c 06       		.byte	0x6
 5211 0f6d 00       		.byte	0
 5212 0f6e 21       		.uleb128 0x21
 5213 0f6f B6000000 		.4byte	.LVL38
 5214 0f73 A31E0000 		.4byte	0x1ea3
 5215 0f77 22       		.uleb128 0x22
 5216 0f78 01       		.uleb128 0x1
 5217 0f79 50       		.byte	0x50
 5218 0f7a 09       		.uleb128 0x9
 5219 0f7b 75       		.byte	0x75
 5220 0f7c 00       		.sleb128 0
 5221 0f7d 0A       		.byte	0xa
 5222 0f7e FFFF     		.2byte	0xffff
 5223 0f80 1A       		.byte	0x1a
 5224 0f81 78       		.byte	0x78
 5225 0f82 00       		.sleb128 0
 5226 0f83 21       		.byte	0x21
 5227 0f84 00       		.byte	0
 5228 0f85 00       		.byte	0
 5229 0f86 1B       		.uleb128 0x1b
 5230 0f87 06080000 		.4byte	.LASF231
 5231 0f8b 01       		.byte	0x1
 5232 0f8c 6C       		.byte	0x6c
 5233 0f8d 6B020000 		.4byte	0x26b
 5234 0f91 00000000 		.4byte	.LFB53
 5235 0f95 9C000000 		.4byte	.LFE53-.LFB53
 5236 0f99 01       		.uleb128 0x1
 5237 0f9a 9C       		.byte	0x9c
 5238 0f9b 48100000 		.4byte	0x1048
 5239 0f9f 23       		.uleb128 0x23
 5240 0fa0 70636200 		.ascii	"pcb\000"
 5241 0fa4 01       		.byte	0x1
 5242 0fa5 6C       		.byte	0x6c
 5243 0fa6 0E080000 		.4byte	0x80e
 5244 0faa 8B020000 		.4byte	.LLST15
 5245 0fae 1C       		.uleb128 0x1c
 5246 0faf 79010000 		.4byte	.LASF230
 5247 0fb3 01       		.byte	0x1
 5248 0fb4 6C       		.byte	0x6c
 5249 0fb5 EF000000 		.4byte	0xef
 5250 0fb9 B7020000 		.4byte	.LLST16
 5251 0fbd 1C       		.uleb128 0x1c
 5252 0fbe 22090000 		.4byte	.LASF232
 5253 0fc2 01       		.byte	0x1
 5254 0fc3 6C       		.byte	0x6c
 5255 0fc4 EF000000 		.4byte	0xef
 5256 0fc8 D8020000 		.4byte	.LLST17
 5257 0fcc 1C       		.uleb128 0x1c
 5258 0fcd 2E050000 		.4byte	.LASF233
 5259 0fd1 01       		.byte	0x1
 5260 0fd2 6D       		.byte	0x6d
 5261 0fd3 05010000 		.4byte	0x105
 5262 0fd7 F9020000 		.4byte	.LLST18
 5263 0fdb 20       		.uleb128 0x20
 5264 0fdc 4D0A0000 		.4byte	.LASF211
ARM GAS  C:\Users\Phuong\AppData\Local\Temp\cc5dKVKJ.s 			page 128


 5265 0fe0 01       		.byte	0x1
 5266 0fe1 6F       		.byte	0x6f
 5267 0fe2 720D0000 		.4byte	0xd72
 5268 0fe6 25030000 		.4byte	.LLST19
 5269 0fea 1F       		.uleb128 0x1f
 5270 0feb 7000     		.ascii	"p\000"
 5271 0fed 01       		.byte	0x1
 5272 0fee 70       		.byte	0x70
 5273 0fef 6B020000 		.4byte	0x26b
 5274 0ff3 38030000 		.4byte	.LLST20
 5275 0ff7 24       		.uleb128 0x24
 5276 0ff8 1A000000 		.4byte	.LVL45
 5277 0ffc 6B1E0000 		.4byte	0x1e6b
 5278 1000 0F100000 		.4byte	0x100f
 5279 1004 22       		.uleb128 0x22
 5280 1005 01       		.uleb128 0x1
 5281 1006 50       		.byte	0x50
 5282 1007 01       		.uleb128 0x1
 5283 1008 31       		.byte	0x31
 5284 1009 22       		.uleb128 0x22
 5285 100a 01       		.uleb128 0x1
 5286 100b 52       		.byte	0x52
 5287 100c 01       		.uleb128 0x1
 5288 100d 30       		.byte	0x30
 5289 100e 00       		.byte	0
 5290 100f 25       		.uleb128 0x25
 5291 1010 26000000 		.4byte	.LVL49
 5292 1014 A31E0000 		.4byte	0x1ea3
 5293 1018 25       		.uleb128 0x25
 5294 1019 32000000 		.4byte	.LVL50
 5295 101d A31E0000 		.4byte	0x1ea3
 5296 1021 25       		.uleb128 0x25
 5297 1022 4C000000 		.4byte	.LVL51
 5298 1026 AE1E0000 		.4byte	0x1eae
 5299 102a 24       		.uleb128 0x24
 5300 102b 6E000000 		.4byte	.LVL53
 5301 102f A31E0000 		.4byte	0x1ea3
 5302 1033 3E100000 		.4byte	0x103e
 5303 1037 22       		.uleb128 0x22
 5304 1038 01       		.uleb128 0x1
 5305 1039 50       		.byte	0x50
 5306 103a 02       		.uleb128 0x2
 5307 103b 75       		.byte	0x75
 5308 103c 00       		.sleb128 0
 5309 103d 00       		.byte	0
 5310 103e 25       		.uleb128 0x25
 5311 103f 7A000000 		.4byte	.LVL54
 5312 1043 A31E0000 		.4byte	0x1ea3
 5313 1047 00       		.byte	0
 5314 1048 19       		.uleb128 0x19
 5315 1049 1B050000 		.4byte	.LASF234
 5316 104d 01       		.byte	0x1
 5317 104e A504     		.2byte	0x4a5
 5318 1050 31010000 		.4byte	0x131
 5319 1054 00000000 		.4byte	.LFB62
 5320 1058 14010000 		.4byte	.LFE62-.LFB62
 5321 105c 01       		.uleb128 0x1
ARM GAS  C:\Users\Phuong\AppData\Local\Temp\cc5dKVKJ.s 			page 129


 5322 105d 9C       		.byte	0x9c
 5323 105e 63110000 		.4byte	0x1163
 5324 1062 1A       		.uleb128 0x1a
 5325 1063 73656700 		.ascii	"seg\000"
 5326 1067 01       		.byte	0x1
 5327 1068 A504     		.2byte	0x4a5
 5328 106a FF0C0000 		.4byte	0xcff
 5329 106e 61030000 		.4byte	.LLST21
 5330 1072 1A       		.uleb128 0x1a
 5331 1073 70636200 		.ascii	"pcb\000"
 5332 1077 01       		.byte	0x1
 5333 1078 A504     		.2byte	0x4a5
 5334 107a 0E080000 		.4byte	0x80e
 5335 107e A3030000 		.4byte	.LLST22
 5336 1082 26       		.uleb128 0x26
 5337 1083 630B0000 		.4byte	.LASF118
 5338 1087 01       		.byte	0x1
 5339 1088 A504     		.2byte	0x4a5
 5340 108a FD050000 		.4byte	0x5fd
 5341 108e E5030000 		.4byte	.LLST23
 5342 1092 27       		.uleb128 0x27
 5343 1093 65727200 		.ascii	"err\000"
 5344 1097 01       		.byte	0x1
 5345 1098 A704     		.2byte	0x4a7
 5346 109a 31010000 		.4byte	0x131
 5347 109e 27040000 		.4byte	.LLST24
 5348 10a2 27       		.uleb128 0x27
 5349 10a3 6C656E00 		.ascii	"len\000"
 5350 10a7 01       		.byte	0x1
 5351 10a8 A804     		.2byte	0x4a8
 5352 10aa EF000000 		.4byte	0xef
 5353 10ae 3A040000 		.4byte	.LLST25
 5354 10b2 28       		.uleb128 0x28
 5355 10b3 AA090000 		.4byte	.LASF235
 5356 10b7 01       		.byte	0x1
 5357 10b8 A904     		.2byte	0x4a9
 5358 10ba 63110000 		.4byte	0x1163
 5359 10be 4D040000 		.4byte	.LLST26
 5360 10c2 29       		.uleb128 0x29
 5361 10c3 4C000000 		.4byte	.LBB2
 5362 10c7 14000000 		.4byte	.LBE2-.LBB2
 5363 10cb 04110000 		.4byte	0x1104
 5364 10cf 27       		.uleb128 0x27
 5365 10d0 6D737300 		.ascii	"mss\000"
 5366 10d4 01       		.byte	0x1
 5367 10d5 C904     		.2byte	0x4c9
 5368 10d7 EF000000 		.4byte	0xef
 5369 10db 62040000 		.4byte	.LLST27
 5370 10df 24       		.uleb128 0x24
 5371 10e0 54000000 		.4byte	.LVL63
 5372 10e4 B91E0000 		.4byte	0x1eb9
 5373 10e8 FA100000 		.4byte	0x10fa
 5374 10ec 22       		.uleb128 0x22
 5375 10ed 01       		.uleb128 0x1
 5376 10ee 50       		.byte	0x50
 5377 10ef 03       		.uleb128 0x3
 5378 10f0 0A       		.byte	0xa
ARM GAS  C:\Users\Phuong\AppData\Local\Temp\cc5dKVKJ.s 			page 130


 5379 10f1 B405     		.2byte	0x5b4
 5380 10f3 22       		.uleb128 0x22
 5381 10f4 01       		.uleb128 0x1
 5382 10f5 51       		.byte	0x51
 5383 10f6 02       		.uleb128 0x2
 5384 10f7 75       		.byte	0x75
 5385 10f8 04       		.sleb128 4
 5386 10f9 00       		.byte	0
 5387 10fa 25       		.uleb128 0x25
 5388 10fb 5E000000 		.4byte	.LVL65
 5389 10ff AE1E0000 		.4byte	0x1eae
 5390 1103 00       		.byte	0
 5391 1104 25       		.uleb128 0x25
 5392 1105 1E000000 		.4byte	.LVL60
 5393 1109 AE1E0000 		.4byte	0x1eae
 5394 110d 25       		.uleb128 0x25
 5395 110e 34000000 		.4byte	.LVL61
 5396 1112 A31E0000 		.4byte	0x1ea3
 5397 1116 25       		.uleb128 0x25
 5398 1117 96000000 		.4byte	.LVL67
 5399 111b AE1E0000 		.4byte	0x1eae
 5400 111f 24       		.uleb128 0x24
 5401 1120 D4000000 		.4byte	.LVL70
 5402 1124 C51E0000 		.4byte	0x1ec5
 5403 1128 3F110000 		.4byte	0x113f
 5404 112c 22       		.uleb128 0x22
 5405 112d 01       		.uleb128 0x1
 5406 112e 51       		.byte	0x51
 5407 112f 01       		.uleb128 0x1
 5408 1130 36       		.byte	0x36
 5409 1131 22       		.uleb128 0x22
 5410 1132 01       		.uleb128 0x1
 5411 1133 53       		.byte	0x53
 5412 1134 02       		.uleb128 0x2
 5413 1135 75       		.byte	0x75
 5414 1136 00       		.sleb128 0
 5415 1137 22       		.uleb128 0x22
 5416 1138 02       		.uleb128 0x2
 5417 1139 7D       		.byte	0x7d
 5418 113a 00       		.sleb128 0
 5419 113b 02       		.uleb128 0x2
 5420 113c 77       		.byte	0x77
 5421 113d 00       		.sleb128 0
 5422 113e 00       		.byte	0
 5423 113f 21       		.uleb128 0x21
 5424 1140 FC000000 		.4byte	.LVL71
 5425 1144 D01E0000 		.4byte	0x1ed0
 5426 1148 22       		.uleb128 0x22
 5427 1149 01       		.uleb128 0x1
 5428 114a 51       		.byte	0x51
 5429 114b 02       		.uleb128 0x2
 5430 114c 75       		.byte	0x75
 5431 114d 00       		.sleb128 0
 5432 114e 22       		.uleb128 0x22
 5433 114f 01       		.uleb128 0x1
 5434 1150 52       		.byte	0x52
 5435 1151 02       		.uleb128 0x2
ARM GAS  C:\Users\Phuong\AppData\Local\Temp\cc5dKVKJ.s 			page 131


 5436 1152 77       		.byte	0x77
 5437 1153 00       		.sleb128 0
 5438 1154 22       		.uleb128 0x22
 5439 1155 02       		.uleb128 0x2
 5440 1156 7D       		.byte	0x7d
 5441 1157 04       		.sleb128 4
 5442 1158 01       		.uleb128 0x1
 5443 1159 36       		.byte	0x36
 5444 115a 22       		.uleb128 0x22
 5445 115b 02       		.uleb128 0x2
 5446 115c 7D       		.byte	0x7d
 5447 115d 08       		.sleb128 8
 5448 115e 02       		.uleb128 0x2
 5449 115f 76       		.byte	0x76
 5450 1160 00       		.sleb128 0
 5451 1161 00       		.byte	0
 5452 1162 00       		.byte	0
 5453 1163 06       		.uleb128 0x6
 5454 1164 04       		.byte	0x4
 5455 1165 05010000 		.4byte	0x105
 5456 1169 2A       		.uleb128 0x2a
 5457 116a 740B0000 		.4byte	.LASF250
 5458 116e 01       		.byte	0x1
 5459 116f 7001     		.2byte	0x170
 5460 1171 31010000 		.4byte	0x131
 5461 1175 00000000 		.4byte	.LFB58
 5462 1179 70030000 		.4byte	.LFE58-.LFB58
 5463 117d 01       		.uleb128 0x1
 5464 117e 9C       		.byte	0x9c
 5465 117f FC140000 		.4byte	0x14fc
 5466 1183 1A       		.uleb128 0x1a
 5467 1184 70636200 		.ascii	"pcb\000"
 5468 1188 01       		.byte	0x1
 5469 1189 7001     		.2byte	0x170
 5470 118b 0E080000 		.4byte	0x80e
 5471 118f 75040000 		.4byte	.LLST28
 5472 1193 1A       		.uleb128 0x1a
 5473 1194 61726700 		.ascii	"arg\000"
 5474 1198 01       		.byte	0x1
 5475 1199 7001     		.2byte	0x170
 5476 119b B4000000 		.4byte	0xb4
 5477 119f 07050000 		.4byte	.LLST29
 5478 11a3 1A       		.uleb128 0x1a
 5479 11a4 6C656E00 		.ascii	"len\000"
 5480 11a8 01       		.byte	0x1
 5481 11a9 7001     		.2byte	0x170
 5482 11ab EF000000 		.4byte	0xef
 5483 11af 27050000 		.4byte	.LLST30
 5484 11b3 26       		.uleb128 0x26
 5485 11b4 650A0000 		.4byte	.LASF225
 5486 11b8 01       		.byte	0x1
 5487 11b9 7001     		.2byte	0x170
 5488 11bb D9000000 		.4byte	0xd9
 5489 11bf 48050000 		.4byte	.LLST31
 5490 11c3 28       		.uleb128 0x28
 5491 11c4 89080000 		.4byte	.LASF236
 5492 11c8 01       		.byte	0x1
ARM GAS  C:\Users\Phuong\AppData\Local\Temp\cc5dKVKJ.s 			page 132


 5493 11c9 7201     		.2byte	0x172
 5494 11cb 6B020000 		.4byte	0x26b
 5495 11cf 76050000 		.4byte	.LLST32
 5496 11d3 28       		.uleb128 0x28
 5497 11d4 05060000 		.4byte	.LASF237
 5498 11d8 01       		.byte	0x1
 5499 11d9 7301     		.2byte	0x173
 5500 11db FF0C0000 		.4byte	0xcff
 5501 11df D1050000 		.4byte	.LLST33
 5502 11e3 27       		.uleb128 0x27
 5503 11e4 73656700 		.ascii	"seg\000"
 5504 11e8 01       		.byte	0x1
 5505 11e9 7301     		.2byte	0x173
 5506 11eb FF0C0000 		.4byte	0xcff
 5507 11ef A5060000 		.4byte	.LLST34
 5508 11f3 28       		.uleb128 0x28
 5509 11f4 8F0A0000 		.4byte	.LASF238
 5510 11f8 01       		.byte	0x1
 5511 11f9 7301     		.2byte	0x173
 5512 11fb FF0C0000 		.4byte	0xcff
 5513 11ff 40070000 		.4byte	.LLST35
 5514 1203 28       		.uleb128 0x28
 5515 1204 7B0A0000 		.4byte	.LASF239
 5516 1208 01       		.byte	0x1
 5517 1209 7301     		.2byte	0x173
 5518 120b FF0C0000 		.4byte	0xcff
 5519 120f 8C070000 		.4byte	.LLST36
 5520 1213 27       		.uleb128 0x27
 5521 1214 706F7300 		.ascii	"pos\000"
 5522 1218 01       		.byte	0x1
 5523 1219 7401     		.2byte	0x174
 5524 121b EF000000 		.4byte	0xef
 5525 121f 04080000 		.4byte	.LLST37
 5526 1223 28       		.uleb128 0x28
 5527 1224 E80B0000 		.4byte	.LASF240
 5528 1228 01       		.byte	0x1
 5529 1229 7501     		.2byte	0x175
 5530 122b EF000000 		.4byte	0xef
 5531 122f D3080000 		.4byte	.LLST38
 5532 1233 2B       		.uleb128 0x2b
 5533 1234 79010000 		.4byte	.LASF230
 5534 1238 01       		.byte	0x1
 5535 1239 7601     		.2byte	0x176
 5536 123b D9000000 		.4byte	0xd9
 5537 123f 00       		.byte	0
 5538 1240 2B       		.uleb128 0x2b
 5539 1241 31070000 		.4byte	.LASF229
 5540 1245 01       		.byte	0x1
 5541 1246 7701     		.2byte	0x177
 5542 1248 D9000000 		.4byte	0xd9
 5543 124c 00       		.byte	0
 5544 124d 2C       		.uleb128 0x2c
 5545 124e 58000000 		.4byte	.LASF224
 5546 1252 01       		.byte	0x1
 5547 1253 7901     		.2byte	0x179
 5548 1255 EF000000 		.4byte	0xef
 5549 1259 02       		.uleb128 0x2
ARM GAS  C:\Users\Phuong\AppData\Local\Temp\cc5dKVKJ.s 			page 133


 5550 125a 91       		.byte	0x91
 5551 125b 56       		.sleb128 -42
 5552 125c 28       		.uleb128 0x28
 5553 125d 61010000 		.4byte	.LASF241
 5554 1261 01       		.byte	0x1
 5555 1262 7A01     		.2byte	0x17a
 5556 1264 EF000000 		.4byte	0xef
 5557 1268 28090000 		.4byte	.LLST39
 5558 126c 28       		.uleb128 0x28
 5559 126d FF060000 		.4byte	.LASF242
 5560 1271 01       		.byte	0x1
 5561 1272 7C01     		.2byte	0x17c
 5562 1274 EF000000 		.4byte	0xef
 5563 1278 4E0A0000 		.4byte	.LLST40
 5564 127c 2B       		.uleb128 0x2b
 5565 127d B0040000 		.4byte	.LASF243
 5566 1281 01       		.byte	0x1
 5567 1282 7F01     		.2byte	0x17f
 5568 1284 EF000000 		.4byte	0xef
 5569 1288 00       		.byte	0
 5570 1289 27       		.uleb128 0x27
 5571 128a 65727200 		.ascii	"err\000"
 5572 128e 01       		.byte	0x1
 5573 128f 8501     		.2byte	0x185
 5574 1291 31010000 		.4byte	0x131
 5575 1295 9E0A0000 		.4byte	.LLST41
 5576 1299 28       		.uleb128 0x28
 5577 129a 060B0000 		.4byte	.LASF244
 5578 129e 01       		.byte	0x1
 5579 129f 8701     		.2byte	0x187
 5580 12a1 EF000000 		.4byte	0xef
 5581 12a5 BC0A0000 		.4byte	.LLST42
 5582 12a9 2D       		.uleb128 0x2d
 5583 12aa CA0A0000 		.4byte	.LASF92
 5584 12ae 01       		.byte	0x1
 5585 12af F602     		.2byte	0x2f6
 5586 12b1 1E030000 		.4byte	.L42
 5587 12b5 2E       		.uleb128 0x2e
 5588 12b6 00000000 		.4byte	.Ldebug_ranges0+0
 5589 12ba 6B130000 		.4byte	0x136b
 5590 12be 28       		.uleb128 0x28
 5591 12bf 4C060000 		.4byte	.LASF245
 5592 12c3 01       		.byte	0x1
 5593 12c4 BE01     		.2byte	0x1be
 5594 12c6 EF000000 		.4byte	0xef
 5595 12ca DC0A0000 		.4byte	.LLST43
 5596 12ce 28       		.uleb128 0x28
 5597 12cf 78000000 		.4byte	.LASF246
 5598 12d3 01       		.byte	0x1
 5599 12d4 BF01     		.2byte	0x1bf
 5600 12d6 EF000000 		.4byte	0xef
 5601 12da 050B0000 		.4byte	.LLST44
 5602 12de 2F       		.uleb128 0x2f
 5603 12df E6000000 		.4byte	.LBB4
 5604 12e3 6C000000 		.4byte	.LBE4-.LBB4
 5605 12e7 28       		.uleb128 0x28
 5606 12e8 D20B0000 		.4byte	.LASF247
ARM GAS  C:\Users\Phuong\AppData\Local\Temp\cc5dKVKJ.s 			page 134


 5607 12ec 01       		.byte	0x1
 5608 12ed F001     		.2byte	0x1f0
 5609 12ef EF000000 		.4byte	0xef
 5610 12f3 180B0000 		.4byte	.LLST45
 5611 12f7 24       		.uleb128 0x24
 5612 12f8 10010000 		.4byte	.LVL110
 5613 12fc B30D0000 		.4byte	0xdb3
 5614 1300 2D130000 		.4byte	0x132d
 5615 1304 22       		.uleb128 0x22
 5616 1305 01       		.uleb128 0x1
 5617 1306 50       		.byte	0x50
 5618 1307 01       		.uleb128 0x1
 5619 1308 34       		.byte	0x34
 5620 1309 22       		.uleb128 0x22
 5621 130a 01       		.uleb128 0x1
 5622 130b 51       		.byte	0x51
 5623 130c 02       		.uleb128 0x2
 5624 130d 74       		.byte	0x74
 5625 130e 00       		.sleb128 0
 5626 130f 22       		.uleb128 0x22
 5627 1310 01       		.uleb128 0x1
 5628 1311 53       		.byte	0x53
 5629 1312 02       		.uleb128 0x2
 5630 1313 91       		.byte	0x91
 5631 1314 56       		.sleb128 -42
 5632 1315 22       		.uleb128 0x22
 5633 1316 02       		.uleb128 0x2
 5634 1317 7D       		.byte	0x7d
 5635 1318 00       		.sleb128 0
 5636 1319 02       		.uleb128 0x2
 5637 131a 75       		.byte	0x75
 5638 131b 00       		.sleb128 0
 5639 131c 22       		.uleb128 0x22
 5640 131d 02       		.uleb128 0x2
 5641 131e 7D       		.byte	0x7d
 5642 131f 04       		.sleb128 4
 5643 1320 05       		.uleb128 0x5
 5644 1321 91       		.byte	0x91
 5645 1322 B87F     		.sleb128 -72
 5646 1324 94       		.byte	0x94
 5647 1325 01       		.byte	0x1
 5648 1326 22       		.uleb128 0x22
 5649 1327 02       		.uleb128 0x2
 5650 1328 7D       		.byte	0x7d
 5651 1329 08       		.sleb128 8
 5652 132a 01       		.uleb128 0x1
 5653 132b 31       		.byte	0x31
 5654 132c 00       		.byte	0
 5655 132d 24       		.uleb128 0x24
 5656 132e 3C010000 		.4byte	.LVL117
 5657 1332 DB1E0000 		.4byte	0x1edb
 5658 1336 58130000 		.4byte	0x1358
 5659 133a 22       		.uleb128 0x22
 5660 133b 01       		.uleb128 0x1
 5661 133c 50       		.byte	0x50
 5662 133d 03       		.uleb128 0x3
 5663 133e 91       		.byte	0x91
ARM GAS  C:\Users\Phuong\AppData\Local\Temp\cc5dKVKJ.s 			page 135


 5664 133f 48       		.sleb128 -56
 5665 1340 06       		.byte	0x6
 5666 1341 22       		.uleb128 0x22
 5667 1342 01       		.uleb128 0x1
 5668 1343 51       		.byte	0x51
 5669 1344 08       		.uleb128 0x8
 5670 1345 91       		.byte	0x91
 5671 1346 B47F     		.sleb128 -76
 5672 1348 06       		.byte	0x6
 5673 1349 91       		.byte	0x91
 5674 134a 40       		.sleb128 -64
 5675 134b 06       		.byte	0x6
 5676 134c 22       		.byte	0x22
 5677 134d 22       		.uleb128 0x22
 5678 134e 01       		.uleb128 0x1
 5679 134f 52       		.byte	0x52
 5680 1350 06       		.uleb128 0x6
 5681 1351 77       		.byte	0x77
 5682 1352 00       		.sleb128 0
 5683 1353 40       		.byte	0x40
 5684 1354 24       		.byte	0x24
 5685 1355 40       		.byte	0x40
 5686 1356 25       		.byte	0x25
 5687 1357 00       		.byte	0
 5688 1358 21       		.uleb128 0x21
 5689 1359 42010000 		.4byte	.LVL118
 5690 135d E41E0000 		.4byte	0x1ee4
 5691 1361 22       		.uleb128 0x22
 5692 1362 01       		.uleb128 0x1
 5693 1363 50       		.byte	0x50
 5694 1364 03       		.uleb128 0x3
 5695 1365 91       		.byte	0x91
 5696 1366 44       		.sleb128 -60
 5697 1367 06       		.byte	0x6
 5698 1368 00       		.byte	0
 5699 1369 00       		.byte	0
 5700 136a 00       		.byte	0
 5701 136b 29       		.uleb128 0x29
 5702 136c 7C010000 		.4byte	.LBB9
 5703 1370 AA000000 		.4byte	.LBE9-.LBB9
 5704 1374 61140000 		.4byte	0x1461
 5705 1378 27       		.uleb128 0x27
 5706 1379 7000     		.ascii	"p\000"
 5707 137b 01       		.byte	0x1
 5708 137c 3002     		.2byte	0x230
 5709 137e 6B020000 		.4byte	0x26b
 5710 1382 360B0000 		.4byte	.LLST46
 5711 1386 28       		.uleb128 0x28
 5712 1387 60090000 		.4byte	.LASF248
 5713 138b 01       		.byte	0x1
 5714 138c 3102     		.2byte	0x231
 5715 138e EF000000 		.4byte	0xef
 5716 1392 6A0B0000 		.4byte	.LLST47
 5717 1396 28       		.uleb128 0x28
 5718 1397 4B070000 		.4byte	.LASF249
 5719 139b 01       		.byte	0x1
 5720 139c 3202     		.2byte	0x232
ARM GAS  C:\Users\Phuong\AppData\Local\Temp\cc5dKVKJ.s 			page 136


 5721 139e EF000000 		.4byte	0xef
 5722 13a2 9D0B0000 		.4byte	.LLST48
 5723 13a6 28       		.uleb128 0x28
 5724 13a7 D20B0000 		.4byte	.LASF247
 5725 13ab 01       		.byte	0x1
 5726 13ac 3302     		.2byte	0x233
 5727 13ae EF000000 		.4byte	0xef
 5728 13b2 BF0B0000 		.4byte	.LLST49
 5729 13b6 24       		.uleb128 0x24
 5730 13b7 C4010000 		.4byte	.LVL136
 5731 13bb B30D0000 		.4byte	0xdb3
 5732 13bf F8130000 		.4byte	0x13f8
 5733 13c3 22       		.uleb128 0x22
 5734 13c4 01       		.uleb128 0x1
 5735 13c5 50       		.byte	0x50
 5736 13c6 01       		.uleb128 0x1
 5737 13c7 30       		.byte	0x30
 5738 13c8 22       		.uleb128 0x22
 5739 13c9 01       		.uleb128 0x1
 5740 13ca 51       		.byte	0x51
 5741 13cb 02       		.uleb128 0x2
 5742 13cc 74       		.byte	0x74
 5743 13cd 00       		.sleb128 0
 5744 13ce 22       		.uleb128 0x22
 5745 13cf 01       		.uleb128 0x1
 5746 13d0 52       		.byte	0x52
 5747 13d1 05       		.uleb128 0x5
 5748 13d2 91       		.byte	0x91
 5749 13d3 B07F     		.sleb128 -80
 5750 13d5 94       		.byte	0x94
 5751 13d6 02       		.byte	0x2
 5752 13d7 22       		.uleb128 0x22
 5753 13d8 01       		.uleb128 0x1
 5754 13d9 53       		.byte	0x53
 5755 13da 02       		.uleb128 0x2
 5756 13db 91       		.byte	0x91
 5757 13dc 56       		.sleb128 -42
 5758 13dd 22       		.uleb128 0x22
 5759 13de 02       		.uleb128 0x2
 5760 13df 7D       		.byte	0x7d
 5761 13e0 00       		.sleb128 0
 5762 13e1 02       		.uleb128 0x2
 5763 13e2 7A       		.byte	0x7a
 5764 13e3 00       		.sleb128 0
 5765 13e4 22       		.uleb128 0x22
 5766 13e5 02       		.uleb128 0x2
 5767 13e6 7D       		.byte	0x7d
 5768 13e7 04       		.sleb128 4
 5769 13e8 05       		.uleb128 0x5
 5770 13e9 91       		.byte	0x91
 5771 13ea B87F     		.sleb128 -72
 5772 13ec 94       		.byte	0x94
 5773 13ed 01       		.byte	0x1
 5774 13ee 22       		.uleb128 0x22
 5775 13ef 02       		.uleb128 0x2
 5776 13f0 7D       		.byte	0x7d
 5777 13f1 08       		.sleb128 8
ARM GAS  C:\Users\Phuong\AppData\Local\Temp\cc5dKVKJ.s 			page 137


 5778 13f2 04       		.uleb128 0x4
 5779 13f3 78       		.byte	0x78
 5780 13f4 00       		.sleb128 0
 5781 13f5 30       		.byte	0x30
 5782 13f6 29       		.byte	0x29
 5783 13f7 00       		.byte	0
 5784 13f8 24       		.uleb128 0x24
 5785 13f9 D6010000 		.4byte	.LVL139
 5786 13fd DB1E0000 		.4byte	0x1edb
 5787 1401 17140000 		.4byte	0x1417
 5788 1405 22       		.uleb128 0x22
 5789 1406 01       		.uleb128 0x1
 5790 1407 51       		.byte	0x51
 5791 1408 07       		.uleb128 0x7
 5792 1409 91       		.byte	0x91
 5793 140a B47F     		.sleb128 -76
 5794 140c 06       		.byte	0x6
 5795 140d 76       		.byte	0x76
 5796 140e 00       		.sleb128 0
 5797 140f 22       		.byte	0x22
 5798 1410 22       		.uleb128 0x22
 5799 1411 01       		.uleb128 0x1
 5800 1412 52       		.byte	0x52
 5801 1413 02       		.uleb128 0x2
 5802 1414 74       		.byte	0x74
 5803 1415 00       		.sleb128 0
 5804 1416 00       		.byte	0
 5805 1417 24       		.uleb128 0x24
 5806 1418 DC010000 		.4byte	.LVL140
 5807 141c E41E0000 		.4byte	0x1ee4
 5808 1420 2B140000 		.4byte	0x142b
 5809 1424 22       		.uleb128 0x22
 5810 1425 01       		.uleb128 0x1
 5811 1426 50       		.byte	0x50
 5812 1427 02       		.uleb128 0x2
 5813 1428 77       		.byte	0x77
 5814 1429 00       		.sleb128 0
 5815 142a 00       		.byte	0
 5816 142b 24       		.uleb128 0x24
 5817 142c EC010000 		.4byte	.LVL144
 5818 1430 811E0000 		.4byte	0x1e81
 5819 1434 3F140000 		.4byte	0x143f
 5820 1438 22       		.uleb128 0x22
 5821 1439 01       		.uleb128 0x1
 5822 143a 50       		.byte	0x50
 5823 143b 02       		.uleb128 0x2
 5824 143c 77       		.byte	0x77
 5825 143d 00       		.sleb128 0
 5826 143e 00       		.byte	0
 5827 143f 21       		.uleb128 0x21
 5828 1440 00020000 		.4byte	.LVL146
 5829 1444 640E0000 		.4byte	0xe64
 5830 1448 22       		.uleb128 0x22
 5831 1449 01       		.uleb128 0x1
 5832 144a 50       		.byte	0x50
 5833 144b 02       		.uleb128 0x2
 5834 144c 7A       		.byte	0x7a
ARM GAS  C:\Users\Phuong\AppData\Local\Temp\cc5dKVKJ.s 			page 138


 5835 144d 00       		.sleb128 0
 5836 144e 22       		.uleb128 0x22
 5837 144f 01       		.uleb128 0x1
 5838 1450 51       		.byte	0x51
 5839 1451 02       		.uleb128 0x2
 5840 1452 77       		.byte	0x77
 5841 1453 00       		.sleb128 0
 5842 1454 22       		.uleb128 0x22
 5843 1455 01       		.uleb128 0x1
 5844 1456 52       		.byte	0x52
 5845 1457 01       		.uleb128 0x1
 5846 1458 30       		.byte	0x30
 5847 1459 22       		.uleb128 0x22
 5848 145a 02       		.uleb128 0x2
 5849 145b 7D       		.byte	0x7d
 5850 145c 00       		.sleb128 0
 5851 145d 01       		.uleb128 0x1
 5852 145e 30       		.byte	0x30
 5853 145f 00       		.byte	0
 5854 1460 00       		.byte	0
 5855 1461 29       		.uleb128 0x29
 5856 1462 50020000 		.4byte	.LBB10
 5857 1466 4A000000 		.4byte	.LBE10-.LBB10
 5858 146a 95140000 		.4byte	0x1495
 5859 146e 27       		.uleb128 0x27
 5860 146f 7000     		.ascii	"p\000"
 5861 1471 01       		.byte	0x1
 5862 1472 A202     		.2byte	0x2a2
 5863 1474 6B020000 		.4byte	0x26b
 5864 1478 DD0B0000 		.4byte	.LLST50
 5865 147c 21       		.uleb128 0x21
 5866 147d 76020000 		.4byte	.LVL163
 5867 1481 DB1E0000 		.4byte	0x1edb
 5868 1485 22       		.uleb128 0x22
 5869 1486 01       		.uleb128 0x1
 5870 1487 51       		.byte	0x51
 5871 1488 04       		.uleb128 0x4
 5872 1489 91       		.byte	0x91
 5873 148a B47F     		.sleb128 -76
 5874 148c 06       		.byte	0x6
 5875 148d 22       		.uleb128 0x22
 5876 148e 01       		.uleb128 0x1
 5877 148f 52       		.byte	0x52
 5878 1490 02       		.uleb128 0x2
 5879 1491 75       		.byte	0x75
 5880 1492 00       		.sleb128 0
 5881 1493 00       		.byte	0
 5882 1494 00       		.byte	0
 5883 1495 24       		.uleb128 0x24
 5884 1496 58000000 		.4byte	.LVL87
 5885 149a 780D0000 		.4byte	0xd78
 5886 149e AF140000 		.4byte	0x14af
 5887 14a2 22       		.uleb128 0x22
 5888 14a3 01       		.uleb128 0x1
 5889 14a4 50       		.byte	0x50
 5890 14a5 02       		.uleb128 0x2
 5891 14a6 75       		.byte	0x75
ARM GAS  C:\Users\Phuong\AppData\Local\Temp\cc5dKVKJ.s 			page 139


 5892 14a7 00       		.sleb128 0
 5893 14a8 22       		.uleb128 0x22
 5894 14a9 01       		.uleb128 0x1
 5895 14aa 51       		.byte	0x51
 5896 14ab 02       		.uleb128 0x2
 5897 14ac 79       		.byte	0x79
 5898 14ad 00       		.sleb128 0
 5899 14ae 00       		.byte	0
 5900 14af 24       		.uleb128 0x24
 5901 14b0 B8020000 		.4byte	.LVL168
 5902 14b4 EF1E0000 		.4byte	0x1eef
 5903 14b8 C3140000 		.4byte	0x14c3
 5904 14bc 22       		.uleb128 0x22
 5905 14bd 01       		.uleb128 0x1
 5906 14be 51       		.byte	0x51
 5907 14bf 02       		.uleb128 0x2
 5908 14c0 74       		.byte	0x74
 5909 14c1 00       		.sleb128 0
 5910 14c2 00       		.byte	0
 5911 14c3 24       		.uleb128 0x24
 5912 14c4 0A030000 		.4byte	.LVL174
 5913 14c8 A31E0000 		.4byte	0x1ea3
 5914 14cc D6140000 		.4byte	0x14d6
 5915 14d0 22       		.uleb128 0x22
 5916 14d1 01       		.uleb128 0x1
 5917 14d2 50       		.byte	0x50
 5918 14d3 01       		.uleb128 0x1
 5919 14d4 38       		.byte	0x38
 5920 14d5 00       		.byte	0
 5921 14d6 24       		.uleb128 0x24
 5922 14d7 3C030000 		.4byte	.LVL179
 5923 14db 811E0000 		.4byte	0x1e81
 5924 14df EB140000 		.4byte	0x14eb
 5925 14e3 22       		.uleb128 0x22
 5926 14e4 01       		.uleb128 0x1
 5927 14e5 50       		.byte	0x50
 5928 14e6 03       		.uleb128 0x3
 5929 14e7 91       		.byte	0x91
 5930 14e8 44       		.sleb128 -60
 5931 14e9 06       		.byte	0x6
 5932 14ea 00       		.byte	0
 5933 14eb 21       		.uleb128 0x21
 5934 14ec 48030000 		.4byte	.LVL181
 5935 14f0 FA1E0000 		.4byte	0x1efa
 5936 14f4 22       		.uleb128 0x22
 5937 14f5 01       		.uleb128 0x1
 5938 14f6 50       		.byte	0x50
 5939 14f7 02       		.uleb128 0x2
 5940 14f8 78       		.byte	0x78
 5941 14f9 00       		.sleb128 0
 5942 14fa 00       		.byte	0
 5943 14fb 00       		.byte	0
 5944 14fc 2A       		.uleb128 0x2a
 5945 14fd 05020000 		.4byte	.LASF251
 5946 1501 01       		.byte	0x1
 5947 1502 1103     		.2byte	0x311
 5948 1504 31010000 		.4byte	0x131
ARM GAS  C:\Users\Phuong\AppData\Local\Temp\cc5dKVKJ.s 			page 140


 5949 1508 00000000 		.4byte	.LFB59
 5950 150c D8000000 		.4byte	.LFE59-.LFB59
 5951 1510 01       		.uleb128 0x1
 5952 1511 9C       		.byte	0x9c
 5953 1512 D5150000 		.4byte	0x15d5
 5954 1516 1A       		.uleb128 0x1a
 5955 1517 70636200 		.ascii	"pcb\000"
 5956 151b 01       		.byte	0x1
 5957 151c 1103     		.2byte	0x311
 5958 151e 0E080000 		.4byte	0x80e
 5959 1522 F00B0000 		.4byte	.LLST51
 5960 1526 26       		.uleb128 0x26
 5961 1527 97000000 		.4byte	.LASF57
 5962 152b 01       		.byte	0x1
 5963 152c 1103     		.2byte	0x311
 5964 152e D9000000 		.4byte	0xd9
 5965 1532 320C0000 		.4byte	.LLST52
 5966 1536 27       		.uleb128 0x27
 5967 1537 7000     		.ascii	"p\000"
 5968 1539 01       		.byte	0x1
 5969 153a 1303     		.2byte	0x313
 5970 153c 6B020000 		.4byte	0x26b
 5971 1540 850C0000 		.4byte	.LLST53
 5972 1544 27       		.uleb128 0x27
 5973 1545 73656700 		.ascii	"seg\000"
 5974 1549 01       		.byte	0x1
 5975 154a 1403     		.2byte	0x314
 5976 154c FF0C0000 		.4byte	0xcff
 5977 1550 BB0C0000 		.4byte	.LLST54
 5978 1554 28       		.uleb128 0x28
 5979 1555 31070000 		.4byte	.LASF229
 5980 1559 01       		.byte	0x1
 5981 155a 1503     		.2byte	0x315
 5982 155c D9000000 		.4byte	0xd9
 5983 1560 E60C0000 		.4byte	.LLST55
 5984 1564 28       		.uleb128 0x28
 5985 1565 79010000 		.4byte	.LASF230
 5986 1569 01       		.byte	0x1
 5987 156a 1603     		.2byte	0x316
 5988 156c D9000000 		.4byte	0xd9
 5989 1570 050D0000 		.4byte	.LLST56
 5990 1574 29       		.uleb128 0x29
 5991 1575 9A000000 		.4byte	.LBB11
 5992 1579 0A000000 		.4byte	.LBE11-.LBB11
 5993 157d 92150000 		.4byte	0x1592
 5994 1581 28       		.uleb128 0x28
 5995 1582 C2040000 		.4byte	.LASF252
 5996 1586 01       		.byte	0x1
 5997 1587 5603     		.2byte	0x356
 5998 1589 FF0C0000 		.4byte	0xcff
 5999 158d 240D0000 		.4byte	.LLST57
 6000 1591 00       		.byte	0
 6001 1592 24       		.uleb128 0x24
 6002 1593 4E000000 		.4byte	.LVL197
 6003 1597 6B1E0000 		.4byte	0x1e6b
 6004 159b AA150000 		.4byte	0x15aa
 6005 159f 22       		.uleb128 0x22
ARM GAS  C:\Users\Phuong\AppData\Local\Temp\cc5dKVKJ.s 			page 141


 6006 15a0 01       		.uleb128 0x1
 6007 15a1 50       		.byte	0x50
 6008 15a2 01       		.uleb128 0x1
 6009 15a3 30       		.byte	0x30
 6010 15a4 22       		.uleb128 0x22
 6011 15a5 01       		.uleb128 0x1
 6012 15a6 52       		.byte	0x52
 6013 15a7 01       		.uleb128 0x1
 6014 15a8 30       		.byte	0x30
 6015 15a9 00       		.byte	0
 6016 15aa 24       		.uleb128 0x24
 6017 15ab 76000000 		.4byte	.LVL201
 6018 15af 640E0000 		.4byte	0xe64
 6019 15b3 CB150000 		.4byte	0x15cb
 6020 15b7 22       		.uleb128 0x22
 6021 15b8 01       		.uleb128 0x1
 6022 15b9 50       		.byte	0x50
 6023 15ba 02       		.uleb128 0x2
 6024 15bb 74       		.byte	0x74
 6025 15bc 00       		.sleb128 0
 6026 15bd 22       		.uleb128 0x22
 6027 15be 01       		.uleb128 0x1
 6028 15bf 52       		.byte	0x52
 6029 15c0 02       		.uleb128 0x2
 6030 15c1 75       		.byte	0x75
 6031 15c2 00       		.sleb128 0
 6032 15c3 22       		.uleb128 0x22
 6033 15c4 02       		.uleb128 0x2
 6034 15c5 7D       		.byte	0x7d
 6035 15c6 00       		.sleb128 0
 6036 15c7 02       		.uleb128 0x2
 6037 15c8 77       		.byte	0x77
 6038 15c9 00       		.sleb128 0
 6039 15ca 00       		.byte	0
 6040 15cb 25       		.uleb128 0x25
 6041 15cc C6000000 		.4byte	.LVL208
 6042 15d0 E41E0000 		.4byte	0x1ee4
 6043 15d4 00       		.byte	0
 6044 15d5 30       		.uleb128 0x30
 6045 15d6 E1070000 		.4byte	.LASF253
 6046 15da 01       		.byte	0x1
 6047 15db 8B       		.byte	0x8b
 6048 15dc 31010000 		.4byte	0x131
 6049 15e0 00000000 		.4byte	.LFB54
 6050 15e4 58000000 		.4byte	.LFE54-.LFB54
 6051 15e8 01       		.uleb128 0x1
 6052 15e9 9C       		.byte	0x9c
 6053 15ea 48160000 		.4byte	0x1648
 6054 15ee 23       		.uleb128 0x23
 6055 15ef 70636200 		.ascii	"pcb\000"
 6056 15f3 01       		.byte	0x1
 6057 15f4 8B       		.byte	0x8b
 6058 15f5 0E080000 		.4byte	0x80e
 6059 15f9 370D0000 		.4byte	.LLST58
 6060 15fd 29       		.uleb128 0x29
 6061 15fe 0A000000 		.4byte	.LBB12
 6062 1602 44000000 		.4byte	.LBE12-.LBB12
ARM GAS  C:\Users\Phuong\AppData\Local\Temp\cc5dKVKJ.s 			page 142


 6063 1606 32160000 		.4byte	0x1632
 6064 160a 20       		.uleb128 0x20
 6065 160b 05060000 		.4byte	.LASF237
 6066 160f 01       		.byte	0x1
 6067 1610 8F       		.byte	0x8f
 6068 1611 FF0C0000 		.4byte	0xcff
 6069 1615 630D0000 		.4byte	.LLST59
 6070 1619 25       		.uleb128 0x25
 6071 161a 22000000 		.4byte	.LVL215
 6072 161e A31E0000 		.4byte	0x1ea3
 6073 1622 21       		.uleb128 0x21
 6074 1623 38000000 		.4byte	.LVL217
 6075 1627 A31E0000 		.4byte	0x1ea3
 6076 162b 22       		.uleb128 0x22
 6077 162c 01       		.uleb128 0x1
 6078 162d 50       		.byte	0x50
 6079 162e 01       		.uleb128 0x1
 6080 162f 31       		.byte	0x31
 6081 1630 00       		.byte	0
 6082 1631 00       		.byte	0
 6083 1632 21       		.uleb128 0x21
 6084 1633 56000000 		.4byte	.LVL218
 6085 1637 FC140000 		.4byte	0x14fc
 6086 163b 22       		.uleb128 0x22
 6087 163c 01       		.uleb128 0x1
 6088 163d 50       		.byte	0x50
 6089 163e 02       		.uleb128 0x2
 6090 163f 75       		.byte	0x75
 6091 1640 00       		.sleb128 0
 6092 1641 22       		.uleb128 0x22
 6093 1642 01       		.uleb128 0x1
 6094 1643 51       		.byte	0x51
 6095 1644 01       		.uleb128 0x1
 6096 1645 31       		.byte	0x31
 6097 1646 00       		.byte	0
 6098 1647 00       		.byte	0
 6099 1648 2A       		.uleb128 0x2a
 6100 1649 BC080000 		.4byte	.LASF254
 6101 164d 01       		.byte	0x1
 6102 164e 9603     		.2byte	0x396
 6103 1650 31010000 		.4byte	0x131
 6104 1654 00000000 		.4byte	.LFB60
 6105 1658 9A000000 		.4byte	.LFE60-.LFB60
 6106 165c 01       		.uleb128 0x1
 6107 165d 9C       		.byte	0x9c
 6108 165e 5C170000 		.4byte	0x175c
 6109 1662 1A       		.uleb128 0x1a
 6110 1663 70636200 		.ascii	"pcb\000"
 6111 1667 01       		.byte	0x1
 6112 1668 9603     		.2byte	0x396
 6113 166a 0E080000 		.4byte	0x80e
 6114 166e 760D0000 		.4byte	.LLST60
 6115 1672 27       		.uleb128 0x27
 6116 1673 65727200 		.ascii	"err\000"
 6117 1677 01       		.byte	0x1
 6118 1678 9803     		.2byte	0x398
 6119 167a 31010000 		.4byte	0x131
ARM GAS  C:\Users\Phuong\AppData\Local\Temp\cc5dKVKJ.s 			page 143


 6120 167e A20D0000 		.4byte	.LLST61
 6121 1682 27       		.uleb128 0x27
 6122 1683 7000     		.ascii	"p\000"
 6123 1685 01       		.byte	0x1
 6124 1686 9903     		.2byte	0x399
 6125 1688 6B020000 		.4byte	0x26b
 6126 168c C00D0000 		.4byte	.LLST62
 6127 1690 2B       		.uleb128 0x2b
 6128 1691 79010000 		.4byte	.LASF230
 6129 1695 01       		.byte	0x1
 6130 1696 9A03     		.2byte	0x39a
 6131 1698 D9000000 		.4byte	0xd9
 6132 169c 00       		.byte	0
 6133 169d 28       		.uleb128 0x28
 6134 169e 630B0000 		.4byte	.LASF118
 6135 16a2 01       		.byte	0x1
 6136 16a3 9B03     		.2byte	0x39b
 6137 16a5 FD050000 		.4byte	0x5fd
 6138 16a9 F40D0000 		.4byte	.LLST63
 6139 16ad 28       		.uleb128 0x28
 6140 16ae 4D0A0000 		.4byte	.LASF211
 6141 16b2 01       		.byte	0x1
 6142 16b3 9D03     		.2byte	0x39d
 6143 16b5 720D0000 		.4byte	0xd72
 6144 16b9 280E0000 		.4byte	.LLST64
 6145 16bd 25       		.uleb128 0x25
 6146 16be 10000000 		.4byte	.LVL223
 6147 16c2 AE1E0000 		.4byte	0x1eae
 6148 16c6 24       		.uleb128 0x24
 6149 16c7 1C000000 		.4byte	.LVL224
 6150 16cb 860F0000 		.4byte	0xf86
 6151 16cf E4160000 		.4byte	0x16e4
 6152 16d3 22       		.uleb128 0x22
 6153 16d4 01       		.uleb128 0x1
 6154 16d5 50       		.byte	0x50
 6155 16d6 02       		.uleb128 0x2
 6156 16d7 74       		.byte	0x74
 6157 16d8 00       		.sleb128 0
 6158 16d9 22       		.uleb128 0x22
 6159 16da 01       		.uleb128 0x1
 6160 16db 51       		.byte	0x51
 6161 16dc 01       		.uleb128 0x1
 6162 16dd 30       		.byte	0x30
 6163 16de 22       		.uleb128 0x22
 6164 16df 01       		.uleb128 0x1
 6165 16e0 52       		.byte	0x52
 6166 16e1 01       		.uleb128 0x1
 6167 16e2 30       		.byte	0x30
 6168 16e3 00       		.byte	0
 6169 16e4 24       		.uleb128 0x24
 6170 16e5 3A000000 		.4byte	.LVL230
 6171 16e9 061F0000 		.4byte	0x1f06
 6172 16ed F8160000 		.4byte	0x16f8
 6173 16f1 22       		.uleb128 0x22
 6174 16f2 01       		.uleb128 0x1
 6175 16f3 50       		.byte	0x50
 6176 16f4 02       		.uleb128 0x2
ARM GAS  C:\Users\Phuong\AppData\Local\Temp\cc5dKVKJ.s 			page 144


 6177 16f5 75       		.byte	0x75
 6178 16f6 00       		.sleb128 0
 6179 16f7 00       		.byte	0
 6180 16f8 24       		.uleb128 0x24
 6181 16f9 4C000000 		.4byte	.LVL233
 6182 16fd C51E0000 		.4byte	0x1ec5
 6183 1701 1E170000 		.4byte	0x171e
 6184 1705 22       		.uleb128 0x22
 6185 1706 01       		.uleb128 0x1
 6186 1707 50       		.byte	0x50
 6187 1708 02       		.uleb128 0x2
 6188 1709 76       		.byte	0x76
 6189 170a 00       		.sleb128 0
 6190 170b 22       		.uleb128 0x22
 6191 170c 01       		.uleb128 0x1
 6192 170d 51       		.byte	0x51
 6193 170e 01       		.uleb128 0x1
 6194 170f 36       		.byte	0x36
 6195 1710 22       		.uleb128 0x22
 6196 1711 01       		.uleb128 0x1
 6197 1712 53       		.byte	0x53
 6198 1713 02       		.uleb128 0x2
 6199 1714 74       		.byte	0x74
 6200 1715 00       		.sleb128 0
 6201 1716 22       		.uleb128 0x22
 6202 1717 02       		.uleb128 0x2
 6203 1718 7D       		.byte	0x7d
 6204 1719 00       		.sleb128 0
 6205 171a 02       		.uleb128 0x2
 6206 171b 75       		.byte	0x75
 6207 171c 00       		.sleb128 0
 6208 171d 00       		.byte	0
 6209 171e 24       		.uleb128 0x24
 6210 171f 6A000000 		.4byte	.LVL234
 6211 1723 D01E0000 		.4byte	0x1ed0
 6212 1727 4B170000 		.4byte	0x174b
 6213 172b 22       		.uleb128 0x22
 6214 172c 01       		.uleb128 0x1
 6215 172d 50       		.byte	0x50
 6216 172e 02       		.uleb128 0x2
 6217 172f 76       		.byte	0x76
 6218 1730 00       		.sleb128 0
 6219 1731 22       		.uleb128 0x22
 6220 1732 01       		.uleb128 0x1
 6221 1733 51       		.byte	0x51
 6222 1734 02       		.uleb128 0x2
 6223 1735 74       		.byte	0x74
 6224 1736 00       		.sleb128 0
 6225 1737 22       		.uleb128 0x22
 6226 1738 01       		.uleb128 0x1
 6227 1739 52       		.byte	0x52
 6228 173a 02       		.uleb128 0x2
 6229 173b 75       		.byte	0x75
 6230 173c 00       		.sleb128 0
 6231 173d 22       		.uleb128 0x22
 6232 173e 02       		.uleb128 0x2
 6233 173f 7D       		.byte	0x7d
ARM GAS  C:\Users\Phuong\AppData\Local\Temp\cc5dKVKJ.s 			page 145


 6234 1740 04       		.sleb128 4
 6235 1741 01       		.uleb128 0x1
 6236 1742 36       		.byte	0x36
 6237 1743 22       		.uleb128 0x22
 6238 1744 02       		.uleb128 0x2
 6239 1745 7D       		.byte	0x7d
 6240 1746 08       		.sleb128 8
 6241 1747 02       		.uleb128 0x2
 6242 1748 77       		.byte	0x77
 6243 1749 00       		.sleb128 0
 6244 174a 00       		.byte	0
 6245 174b 21       		.uleb128 0x21
 6246 174c 78000000 		.4byte	.LVL238
 6247 1750 811E0000 		.4byte	0x1e81
 6248 1754 22       		.uleb128 0x22
 6249 1755 01       		.uleb128 0x1
 6250 1756 50       		.byte	0x50
 6251 1757 02       		.uleb128 0x2
 6252 1758 76       		.byte	0x76
 6253 1759 00       		.sleb128 0
 6254 175a 00       		.byte	0
 6255 175b 00       		.byte	0
 6256 175c 2A       		.uleb128 0x2a
 6257 175d 690B0000 		.4byte	.LASF255
 6258 1761 01       		.byte	0x1
 6259 1762 E103     		.2byte	0x3e1
 6260 1764 31010000 		.4byte	0x131
 6261 1768 00000000 		.4byte	.LFB61
 6262 176c 50030000 		.4byte	.LFE61-.LFB61
 6263 1770 01       		.uleb128 0x1
 6264 1771 9C       		.byte	0x9c
 6265 1772 FE180000 		.4byte	0x18fe
 6266 1776 1A       		.uleb128 0x1a
 6267 1777 70636200 		.ascii	"pcb\000"
 6268 177b 01       		.byte	0x1
 6269 177c E103     		.2byte	0x3e1
 6270 177e 0E080000 		.4byte	0x80e
 6271 1782 460E0000 		.4byte	.LLST65
 6272 1786 27       		.uleb128 0x27
 6273 1787 73656700 		.ascii	"seg\000"
 6274 178b 01       		.byte	0x1
 6275 178c E303     		.2byte	0x3e3
 6276 178e FF0C0000 		.4byte	0xcff
 6277 1792 880E0000 		.4byte	.LLST66
 6278 1796 28       		.uleb128 0x28
 6279 1797 C2040000 		.4byte	.LASF252
 6280 179b 01       		.byte	0x1
 6281 179c E303     		.2byte	0x3e3
 6282 179e FF0C0000 		.4byte	0xcff
 6283 17a2 A60E0000 		.4byte	.LLST67
 6284 17a6 27       		.uleb128 0x27
 6285 17a7 776E6400 		.ascii	"wnd\000"
 6286 17ab 01       		.byte	0x1
 6287 17ac E403     		.2byte	0x3e4
 6288 17ae 05010000 		.4byte	0x105
 6289 17b2 F30E0000 		.4byte	.LLST68
 6290 17b6 28       		.uleb128 0x28
ARM GAS  C:\Users\Phuong\AppData\Local\Temp\cc5dKVKJ.s 			page 146


 6291 17b7 AF0B0000 		.4byte	.LASF161
 6292 17bb 01       		.byte	0x1
 6293 17bc E403     		.2byte	0x3e4
 6294 17be 05010000 		.4byte	0x105
 6295 17c2 320F0000 		.4byte	.LLST69
 6296 17c6 27       		.uleb128 0x27
 6297 17c7 65727200 		.ascii	"err\000"
 6298 17cb 01       		.byte	0x1
 6299 17cc E503     		.2byte	0x3e5
 6300 17ce 31010000 		.4byte	0x131
 6301 17d2 450F0000 		.4byte	.LLST70
 6302 17d6 28       		.uleb128 0x28
 6303 17d7 630B0000 		.4byte	.LASF118
 6304 17db 01       		.byte	0x1
 6305 17dc E603     		.2byte	0x3e6
 6306 17de FD050000 		.4byte	0x5fd
 6307 17e2 580F0000 		.4byte	.LLST71
 6308 17e6 2D       		.uleb128 0x2d
 6309 17e7 C0070000 		.4byte	.LASF256
 6310 17eb 01       		.byte	0x1
 6311 17ec 9104     		.2byte	0x491
 6312 17ee 20030000 		.4byte	.L116
 6313 17f2 2E       		.uleb128 0x2e
 6314 17f3 30000000 		.4byte	.Ldebug_ranges0+0x30
 6315 17f7 0C180000 		.4byte	0x180c
 6316 17fb 28       		.uleb128 0x28
 6317 17fc 19090000 		.4byte	.LASF139
 6318 1800 01       		.byte	0x1
 6319 1801 1404     		.2byte	0x414
 6320 1803 FE180000 		.4byte	0x18fe
 6321 1807 A50F0000 		.4byte	.LLST72
 6322 180b 00       		.byte	0
 6323 180c 29       		.uleb128 0x29
 6324 180d 7A020000 		.4byte	.LBB14
 6325 1811 60000000 		.4byte	.LBE14-.LBB14
 6326 1815 3C180000 		.4byte	0x183c
 6327 1819 28       		.uleb128 0x28
 6328 181a D90B0000 		.4byte	.LASF257
 6329 181e 01       		.byte	0x1
 6330 181f 7E04     		.2byte	0x47e
 6331 1821 09190000 		.4byte	0x1909
 6332 1825 C30F0000 		.4byte	.LLST73
 6333 1829 25       		.uleb128 0x25
 6334 182a AE020000 		.4byte	.LVL274
 6335 182e AE1E0000 		.4byte	0x1eae
 6336 1832 25       		.uleb128 0x25
 6337 1833 CC020000 		.4byte	.LVL275
 6338 1837 AE1E0000 		.4byte	0x1eae
 6339 183b 00       		.byte	0
 6340 183c 25       		.uleb128 0x25
 6341 183d 54000000 		.4byte	.LVL247
 6342 1841 AE1E0000 		.4byte	0x1eae
 6343 1845 24       		.uleb128 0x24
 6344 1846 66000000 		.4byte	.LVL248
 6345 184a 48160000 		.4byte	0x1648
 6346 184e 59180000 		.4byte	0x1859
 6347 1852 22       		.uleb128 0x22
ARM GAS  C:\Users\Phuong\AppData\Local\Temp\cc5dKVKJ.s 			page 147


 6348 1853 01       		.uleb128 0x1
 6349 1854 50       		.byte	0x50
 6350 1855 02       		.uleb128 0x2
 6351 1856 75       		.byte	0x75
 6352 1857 00       		.sleb128 0
 6353 1858 00       		.byte	0
 6354 1859 24       		.uleb128 0x24
 6355 185a 7E000000 		.4byte	.LVL251
 6356 185e 061F0000 		.4byte	0x1f06
 6357 1862 6D180000 		.4byte	0x186d
 6358 1866 22       		.uleb128 0x22
 6359 1867 01       		.uleb128 0x1
 6360 1868 50       		.byte	0x50
 6361 1869 02       		.uleb128 0x2
 6362 186a 75       		.byte	0x75
 6363 186b 04       		.sleb128 4
 6364 186c 00       		.byte	0
 6365 186d 25       		.uleb128 0x25
 6366 186e CA000000 		.4byte	.LVL256
 6367 1872 AE1E0000 		.4byte	0x1eae
 6368 1876 25       		.uleb128 0x25
 6369 1877 18010000 		.4byte	.LVL259
 6370 187b A31E0000 		.4byte	0x1ea3
 6371 187f 24       		.uleb128 0x24
 6372 1880 8A010000 		.4byte	.LVL260
 6373 1884 A31E0000 		.4byte	0x1ea3
 6374 1888 92180000 		.4byte	0x1892
 6375 188c 22       		.uleb128 0x22
 6376 188d 01       		.uleb128 0x1
 6377 188e 50       		.byte	0x50
 6378 188f 01       		.uleb128 0x1
 6379 1890 40       		.byte	0x40
 6380 1891 00       		.byte	0
 6381 1892 24       		.uleb128 0x24
 6382 1893 A4010000 		.4byte	.LVL261
 6383 1897 48100000 		.4byte	0x1048
 6384 189b B3180000 		.4byte	0x18b3
 6385 189f 22       		.uleb128 0x22
 6386 18a0 01       		.uleb128 0x1
 6387 18a1 50       		.byte	0x50
 6388 18a2 02       		.uleb128 0x2
 6389 18a3 74       		.byte	0x74
 6390 18a4 00       		.sleb128 0
 6391 18a5 22       		.uleb128 0x22
 6392 18a6 01       		.uleb128 0x1
 6393 18a7 51       		.byte	0x51
 6394 18a8 02       		.uleb128 0x2
 6395 18a9 75       		.byte	0x75
 6396 18aa 00       		.sleb128 0
 6397 18ab 22       		.uleb128 0x22
 6398 18ac 01       		.uleb128 0x1
 6399 18ad 52       		.byte	0x52
 6400 18ae 03       		.uleb128 0x3
 6401 18af 91       		.byte	0x91
 6402 18b0 5C       		.sleb128 -36
 6403 18b1 06       		.byte	0x6
 6404 18b2 00       		.byte	0
ARM GAS  C:\Users\Phuong\AppData\Local\Temp\cc5dKVKJ.s 			page 148


 6405 18b3 25       		.uleb128 0x25
 6406 18b4 E2010000 		.4byte	.LVL263
 6407 18b8 AE1E0000 		.4byte	0x1eae
 6408 18bc 25       		.uleb128 0x25
 6409 18bd F4010000 		.4byte	.LVL264
 6410 18c1 A31E0000 		.4byte	0x1ea3
 6411 18c5 25       		.uleb128 0x25
 6412 18c6 1A020000 		.4byte	.LVL267
 6413 18ca A31E0000 		.4byte	0x1ea3
 6414 18ce 25       		.uleb128 0x25
 6415 18cf 58020000 		.4byte	.LVL270
 6416 18d3 AE1E0000 		.4byte	0x1eae
 6417 18d7 25       		.uleb128 0x25
 6418 18d8 76020000 		.4byte	.LVL271
 6419 18dc AE1E0000 		.4byte	0x1eae
 6420 18e0 24       		.uleb128 0x24
 6421 18e1 EE020000 		.4byte	.LVL279
 6422 18e5 971E0000 		.4byte	0x1e97
 6423 18e9 F4180000 		.4byte	0x18f4
 6424 18ed 22       		.uleb128 0x22
 6425 18ee 01       		.uleb128 0x1
 6426 18ef 50       		.byte	0x50
 6427 18f0 02       		.uleb128 0x2
 6428 18f1 74       		.byte	0x74
 6429 18f2 00       		.sleb128 0
 6430 18f3 00       		.byte	0
 6431 18f4 25       		.uleb128 0x25
 6432 18f5 12030000 		.4byte	.LVL281
 6433 18f9 AE1E0000 		.4byte	0x1eae
 6434 18fd 00       		.byte	0
 6435 18fe 06       		.uleb128 0x6
 6436 18ff 04       		.byte	0x4
 6437 1900 04190000 		.4byte	0x1904
 6438 1904 07       		.uleb128 0x7
 6439 1905 BA020000 		.4byte	0x2ba
 6440 1909 06       		.uleb128 0x6
 6441 190a 04       		.byte	0x4
 6442 190b FF0C0000 		.4byte	0xcff
 6443 190f 31       		.uleb128 0x31
 6444 1910 2B080000 		.4byte	.LASF258
 6445 1914 01       		.byte	0x1
 6446 1915 4005     		.2byte	0x540
 6447 1917 00000000 		.4byte	.LFB63
 6448 191b D4000000 		.4byte	.LFE63-.LFB63
 6449 191f 01       		.uleb128 0x1
 6450 1920 9C       		.byte	0x9c
 6451 1921 BD1A0000 		.4byte	0x1abd
 6452 1925 26       		.uleb128 0x26
 6453 1926 31020000 		.4byte	.LASF214
 6454 192a 01       		.byte	0x1
 6455 192b 4005     		.2byte	0x540
 6456 192d 05010000 		.4byte	0x105
 6457 1931 D60F0000 		.4byte	.LLST74
 6458 1935 26       		.uleb128 0x26
 6459 1936 3E000000 		.4byte	.LASF215
 6460 193a 01       		.byte	0x1
 6461 193b 4005     		.2byte	0x540
ARM GAS  C:\Users\Phuong\AppData\Local\Temp\cc5dKVKJ.s 			page 149


 6462 193d 05010000 		.4byte	0x105
 6463 1941 F50F0000 		.4byte	.LLST75
 6464 1945 26       		.uleb128 0x26
 6465 1946 19090000 		.4byte	.LASF139
 6466 194a 01       		.byte	0x1
 6467 194b 4105     		.2byte	0x541
 6468 194d FE180000 		.4byte	0x18fe
 6469 1951 14100000 		.4byte	.LLST76
 6470 1955 26       		.uleb128 0x26
 6471 1956 060C0000 		.4byte	.LASF140
 6472 195a 01       		.byte	0x1
 6473 195b 4105     		.2byte	0x541
 6474 195d FE180000 		.4byte	0x18fe
 6475 1961 33100000 		.4byte	.LLST77
 6476 1965 26       		.uleb128 0x26
 6477 1966 8A020000 		.4byte	.LASF144
 6478 196a 01       		.byte	0x1
 6479 196b 4205     		.2byte	0x542
 6480 196d EF000000 		.4byte	0xef
 6481 1971 5E100000 		.4byte	.LLST78
 6482 1975 26       		.uleb128 0x26
 6483 1976 3A070000 		.4byte	.LASF145
 6484 197a 01       		.byte	0x1
 6485 197b 4205     		.2byte	0x542
 6486 197d EF000000 		.4byte	0xef
 6487 1981 8A100000 		.4byte	.LLST79
 6488 1985 27       		.uleb128 0x27
 6489 1986 7000     		.ascii	"p\000"
 6490 1988 01       		.byte	0x1
 6491 1989 4405     		.2byte	0x544
 6492 198b 6B020000 		.4byte	0x26b
 6493 198f C2100000 		.4byte	.LLST80
 6494 1993 28       		.uleb128 0x28
 6495 1994 4D0A0000 		.4byte	.LASF211
 6496 1998 01       		.byte	0x1
 6497 1999 4505     		.2byte	0x545
 6498 199b 720D0000 		.4byte	0xd72
 6499 199f E0100000 		.4byte	.LLST81
 6500 19a3 28       		.uleb128 0x28
 6501 19a4 630B0000 		.4byte	.LASF118
 6502 19a8 01       		.byte	0x1
 6503 19a9 4605     		.2byte	0x546
 6504 19ab FD050000 		.4byte	0x5fd
 6505 19af F3100000 		.4byte	.LLST82
 6506 19b3 24       		.uleb128 0x24
 6507 19b4 1E000000 		.4byte	.LVL296
 6508 19b8 6B1E0000 		.4byte	0x1e6b
 6509 19bc D0190000 		.4byte	0x19d0
 6510 19c0 22       		.uleb128 0x22
 6511 19c1 01       		.uleb128 0x1
 6512 19c2 50       		.byte	0x50
 6513 19c3 01       		.uleb128 0x1
 6514 19c4 31       		.byte	0x31
 6515 19c5 22       		.uleb128 0x22
 6516 19c6 01       		.uleb128 0x1
 6517 19c7 51       		.byte	0x51
 6518 19c8 01       		.uleb128 0x1
ARM GAS  C:\Users\Phuong\AppData\Local\Temp\cc5dKVKJ.s 			page 150


 6519 19c9 44       		.byte	0x44
 6520 19ca 22       		.uleb128 0x22
 6521 19cb 01       		.uleb128 0x1
 6522 19cc 52       		.byte	0x52
 6523 19cd 01       		.uleb128 0x1
 6524 19ce 30       		.byte	0x30
 6525 19cf 00       		.byte	0
 6526 19d0 24       		.uleb128 0x24
 6527 19d1 2A000000 		.4byte	.LVL300
 6528 19d5 A31E0000 		.4byte	0x1ea3
 6529 19d9 E4190000 		.4byte	0x19e4
 6530 19dd 22       		.uleb128 0x22
 6531 19de 01       		.uleb128 0x1
 6532 19df 50       		.byte	0x50
 6533 19e0 02       		.uleb128 0x2
 6534 19e1 74       		.byte	0x74
 6535 19e2 00       		.sleb128 0
 6536 19e3 00       		.byte	0
 6537 19e4 24       		.uleb128 0x24
 6538 19e5 36000000 		.4byte	.LVL301
 6539 19e9 A31E0000 		.4byte	0x1ea3
 6540 19ed F8190000 		.4byte	0x19f8
 6541 19f1 22       		.uleb128 0x22
 6542 19f2 01       		.uleb128 0x1
 6543 19f3 50       		.byte	0x50
 6544 19f4 02       		.uleb128 0x2
 6545 19f5 76       		.byte	0x76
 6546 19f6 00       		.sleb128 0
 6547 19f7 00       		.byte	0
 6548 19f8 24       		.uleb128 0x24
 6549 19f9 42000000 		.4byte	.LVL302
 6550 19fd AE1E0000 		.4byte	0x1eae
 6551 1a01 0D1A0000 		.4byte	0x1a0d
 6552 1a05 22       		.uleb128 0x22
 6553 1a06 01       		.uleb128 0x1
 6554 1a07 50       		.byte	0x50
 6555 1a08 03       		.uleb128 0x3
 6556 1a09 91       		.byte	0x91
 6557 1a0a 5C       		.sleb128 -36
 6558 1a0b 06       		.byte	0x6
 6559 1a0c 00       		.byte	0
 6560 1a0d 24       		.uleb128 0x24
 6561 1a0e 56000000 		.4byte	.LVL303
 6562 1a12 AE1E0000 		.4byte	0x1eae
 6563 1a16 221A0000 		.4byte	0x1a22
 6564 1a1a 22       		.uleb128 0x22
 6565 1a1b 01       		.uleb128 0x1
 6566 1a1c 50       		.byte	0x50
 6567 1a1d 03       		.uleb128 0x3
 6568 1a1e 91       		.byte	0x91
 6569 1a1f 60       		.sleb128 -32
 6570 1a20 06       		.byte	0x6
 6571 1a21 00       		.byte	0
 6572 1a22 24       		.uleb128 0x24
 6573 1a23 6A000000 		.4byte	.LVL304
 6574 1a27 A31E0000 		.4byte	0x1ea3
 6575 1a2b 371A0000 		.4byte	0x1a37
ARM GAS  C:\Users\Phuong\AppData\Local\Temp\cc5dKVKJ.s 			page 151


 6576 1a2f 22       		.uleb128 0x22
 6577 1a30 01       		.uleb128 0x1
 6578 1a31 50       		.byte	0x50
 6579 1a32 03       		.uleb128 0x3
 6580 1a33 0A       		.byte	0xa
 6581 1a34 1450     		.2byte	0x5014
 6582 1a36 00       		.byte	0
 6583 1a37 24       		.uleb128 0x24
 6584 1a38 94000000 		.4byte	.LVL305
 6585 1a3c 061F0000 		.4byte	0x1f06
 6586 1a40 4B1A0000 		.4byte	0x1a4b
 6587 1a44 22       		.uleb128 0x22
 6588 1a45 01       		.uleb128 0x1
 6589 1a46 50       		.byte	0x50
 6590 1a47 02       		.uleb128 0x2
 6591 1a48 74       		.byte	0x74
 6592 1a49 00       		.sleb128 0
 6593 1a4a 00       		.byte	0
 6594 1a4b 24       		.uleb128 0x24
 6595 1a4c A6000000 		.4byte	.LVL308
 6596 1a50 C51E0000 		.4byte	0x1ec5
 6597 1a54 721A0000 		.4byte	0x1a72
 6598 1a58 22       		.uleb128 0x22
 6599 1a59 01       		.uleb128 0x1
 6600 1a5a 50       		.byte	0x50
 6601 1a5b 02       		.uleb128 0x2
 6602 1a5c 77       		.byte	0x77
 6603 1a5d 00       		.sleb128 0
 6604 1a5e 22       		.uleb128 0x22
 6605 1a5f 01       		.uleb128 0x1
 6606 1a60 51       		.byte	0x51
 6607 1a61 01       		.uleb128 0x1
 6608 1a62 36       		.byte	0x36
 6609 1a63 22       		.uleb128 0x22
 6610 1a64 01       		.uleb128 0x1
 6611 1a65 53       		.byte	0x53
 6612 1a66 03       		.uleb128 0x3
 6613 1a67 91       		.byte	0x91
 6614 1a68 58       		.sleb128 -40
 6615 1a69 06       		.byte	0x6
 6616 1a6a 22       		.uleb128 0x22
 6617 1a6b 02       		.uleb128 0x2
 6618 1a6c 7D       		.byte	0x7d
 6619 1a6d 00       		.sleb128 0
 6620 1a6e 02       		.uleb128 0x2
 6621 1a6f 74       		.byte	0x74
 6622 1a70 00       		.sleb128 0
 6623 1a71 00       		.byte	0
 6624 1a72 24       		.uleb128 0x24
 6625 1a73 C2000000 		.4byte	.LVL309
 6626 1a77 D01E0000 		.4byte	0x1ed0
 6627 1a7b AC1A0000 		.4byte	0x1aac
 6628 1a7f 22       		.uleb128 0x22
 6629 1a80 01       		.uleb128 0x1
 6630 1a81 50       		.byte	0x50
 6631 1a82 02       		.uleb128 0x2
 6632 1a83 77       		.byte	0x77
ARM GAS  C:\Users\Phuong\AppData\Local\Temp\cc5dKVKJ.s 			page 152


 6633 1a84 00       		.sleb128 0
 6634 1a85 22       		.uleb128 0x22
 6635 1a86 01       		.uleb128 0x1
 6636 1a87 51       		.byte	0x51
 6637 1a88 03       		.uleb128 0x3
 6638 1a89 91       		.byte	0x91
 6639 1a8a 58       		.sleb128 -40
 6640 1a8b 06       		.byte	0x6
 6641 1a8c 22       		.uleb128 0x22
 6642 1a8d 01       		.uleb128 0x1
 6643 1a8e 52       		.byte	0x52
 6644 1a8f 02       		.uleb128 0x2
 6645 1a90 74       		.byte	0x74
 6646 1a91 00       		.sleb128 0
 6647 1a92 22       		.uleb128 0x22
 6648 1a93 01       		.uleb128 0x1
 6649 1a94 53       		.byte	0x53
 6650 1a95 02       		.uleb128 0x2
 6651 1a96 09       		.byte	0x9
 6652 1a97 FF       		.byte	0xff
 6653 1a98 22       		.uleb128 0x22
 6654 1a99 02       		.uleb128 0x2
 6655 1a9a 7D       		.byte	0x7d
 6656 1a9b 00       		.sleb128 0
 6657 1a9c 01       		.uleb128 0x1
 6658 1a9d 30       		.byte	0x30
 6659 1a9e 22       		.uleb128 0x22
 6660 1a9f 02       		.uleb128 0x2
 6661 1aa0 7D       		.byte	0x7d
 6662 1aa1 04       		.sleb128 4
 6663 1aa2 01       		.uleb128 0x1
 6664 1aa3 36       		.byte	0x36
 6665 1aa4 22       		.uleb128 0x22
 6666 1aa5 02       		.uleb128 0x2
 6667 1aa6 7D       		.byte	0x7d
 6668 1aa7 08       		.sleb128 8
 6669 1aa8 02       		.uleb128 0x2
 6670 1aa9 76       		.byte	0x76
 6671 1aaa 00       		.sleb128 0
 6672 1aab 00       		.byte	0
 6673 1aac 21       		.uleb128 0x21
 6674 1aad C8000000 		.4byte	.LVL310
 6675 1ab1 811E0000 		.4byte	0x1e81
 6676 1ab5 22       		.uleb128 0x22
 6677 1ab6 01       		.uleb128 0x1
 6678 1ab7 50       		.byte	0x50
 6679 1ab8 02       		.uleb128 0x2
 6680 1ab9 77       		.byte	0x77
 6681 1aba 00       		.sleb128 0
 6682 1abb 00       		.byte	0
 6683 1abc 00       		.byte	0
 6684 1abd 31       		.uleb128 0x31
 6685 1abe 240B0000 		.4byte	.LASF259
 6686 1ac2 01       		.byte	0x1
 6687 1ac3 7705     		.2byte	0x577
 6688 1ac5 00000000 		.4byte	.LFB64
 6689 1ac9 42000000 		.4byte	.LFE64-.LFB64
ARM GAS  C:\Users\Phuong\AppData\Local\Temp\cc5dKVKJ.s 			page 153


 6690 1acd 01       		.uleb128 0x1
 6691 1ace 9C       		.byte	0x9c
 6692 1acf 051B0000 		.4byte	0x1b05
 6693 1ad3 1A       		.uleb128 0x1a
 6694 1ad4 70636200 		.ascii	"pcb\000"
 6695 1ad8 01       		.byte	0x1
 6696 1ad9 7705     		.2byte	0x577
 6697 1adb 0E080000 		.4byte	0x80e
 6698 1adf 11110000 		.4byte	.LLST83
 6699 1ae3 27       		.uleb128 0x27
 6700 1ae4 73656700 		.ascii	"seg\000"
 6701 1ae8 01       		.byte	0x1
 6702 1ae9 7905     		.2byte	0x579
 6703 1aeb FF0C0000 		.4byte	0xcff
 6704 1aef 32110000 		.4byte	.LLST84
 6705 1af3 21       		.uleb128 0x21
 6706 1af4 40000000 		.4byte	.LVL316
 6707 1af8 5C170000 		.4byte	0x175c
 6708 1afc 22       		.uleb128 0x22
 6709 1afd 01       		.uleb128 0x1
 6710 1afe 50       		.byte	0x50
 6711 1aff 03       		.uleb128 0x3
 6712 1b00 F3       		.byte	0xf3
 6713 1b01 01       		.uleb128 0x1
 6714 1b02 50       		.byte	0x50
 6715 1b03 00       		.byte	0
 6716 1b04 00       		.byte	0
 6717 1b05 31       		.uleb128 0x31
 6718 1b06 3D010000 		.4byte	.LASF260
 6719 1b0a 01       		.byte	0x1
 6720 1b0b A205     		.2byte	0x5a2
 6721 1b0d 00000000 		.4byte	.LFB65
 6722 1b11 82000000 		.4byte	.LFE65-.LFB65
 6723 1b15 01       		.uleb128 0x1
 6724 1b16 9C       		.byte	0x9c
 6725 1b17 5E1B0000 		.4byte	0x1b5e
 6726 1b1b 1A       		.uleb128 0x1a
 6727 1b1c 70636200 		.ascii	"pcb\000"
 6728 1b20 01       		.byte	0x1
 6729 1b21 A205     		.2byte	0x5a2
 6730 1b23 0E080000 		.4byte	0x80e
 6731 1b27 45110000 		.4byte	.LLST85
 6732 1b2b 27       		.uleb128 0x27
 6733 1b2c 73656700 		.ascii	"seg\000"
 6734 1b30 01       		.byte	0x1
 6735 1b31 A405     		.2byte	0x5a4
 6736 1b33 FF0C0000 		.4byte	0xcff
 6737 1b37 71110000 		.4byte	.LLST86
 6738 1b3b 28       		.uleb128 0x28
 6739 1b3c D90B0000 		.4byte	.LASF257
 6740 1b40 01       		.byte	0x1
 6741 1b41 A505     		.2byte	0x5a5
 6742 1b43 09190000 		.4byte	0x1909
 6743 1b47 84110000 		.4byte	.LLST87
 6744 1b4b 25       		.uleb128 0x25
 6745 1b4c 3A000000 		.4byte	.LVL322
 6746 1b50 AE1E0000 		.4byte	0x1eae
ARM GAS  C:\Users\Phuong\AppData\Local\Temp\cc5dKVKJ.s 			page 154


 6747 1b54 25       		.uleb128 0x25
 6748 1b55 58000000 		.4byte	.LVL323
 6749 1b59 AE1E0000 		.4byte	0x1eae
 6750 1b5d 00       		.byte	0
 6751 1b5e 31       		.uleb128 0x31
 6752 1b5f 1F0C0000 		.4byte	.LASF261
 6753 1b63 01       		.byte	0x1
 6754 1b64 D205     		.2byte	0x5d2
 6755 1b66 00000000 		.4byte	.LFB66
 6756 1b6a 56000000 		.4byte	.LFE66-.LFB66
 6757 1b6e 01       		.uleb128 0x1
 6758 1b6f 9C       		.byte	0x9c
 6759 1b70 951B0000 		.4byte	0x1b95
 6760 1b74 1A       		.uleb128 0x1a
 6761 1b75 70636200 		.ascii	"pcb\000"
 6762 1b79 01       		.byte	0x1
 6763 1b7a D205     		.2byte	0x5d2
 6764 1b7c 0E080000 		.4byte	0x80e
 6765 1b80 97110000 		.4byte	.LLST88
 6766 1b84 21       		.uleb128 0x21
 6767 1b85 14000000 		.4byte	.LVL327
 6768 1b89 051B0000 		.4byte	0x1b05
 6769 1b8d 22       		.uleb128 0x22
 6770 1b8e 01       		.uleb128 0x1
 6771 1b8f 50       		.byte	0x50
 6772 1b90 02       		.uleb128 0x2
 6773 1b91 74       		.byte	0x74
 6774 1b92 00       		.sleb128 0
 6775 1b93 00       		.byte	0
 6776 1b94 00       		.byte	0
 6777 1b95 2A       		.uleb128 0x2a
 6778 1b96 30000000 		.4byte	.LASF262
 6779 1b9a 01       		.byte	0x1
 6780 1b9b FC05     		.2byte	0x5fc
 6781 1b9d 31010000 		.4byte	0x131
 6782 1ba1 00000000 		.4byte	.LFB67
 6783 1ba5 8C000000 		.4byte	.LFE67-.LFB67
 6784 1ba9 01       		.uleb128 0x1
 6785 1baa 9C       		.byte	0x9c
 6786 1bab AC1C0000 		.4byte	0x1cac
 6787 1baf 1A       		.uleb128 0x1a
 6788 1bb0 70636200 		.ascii	"pcb\000"
 6789 1bb4 01       		.byte	0x1
 6790 1bb5 FC05     		.2byte	0x5fc
 6791 1bb7 0E080000 		.4byte	0x80e
 6792 1bbb C3110000 		.4byte	.LLST89
 6793 1bbf 27       		.uleb128 0x27
 6794 1bc0 65727200 		.ascii	"err\000"
 6795 1bc4 01       		.byte	0x1
 6796 1bc5 FE05     		.2byte	0x5fe
 6797 1bc7 31010000 		.4byte	0x131
 6798 1bcb 1F120000 		.4byte	.LLST90
 6799 1bcf 27       		.uleb128 0x27
 6800 1bd0 7000     		.ascii	"p\000"
 6801 1bd2 01       		.byte	0x1
 6802 1bd3 FF05     		.2byte	0x5ff
 6803 1bd5 6B020000 		.4byte	0x26b
ARM GAS  C:\Users\Phuong\AppData\Local\Temp\cc5dKVKJ.s 			page 155


 6804 1bd9 3D120000 		.4byte	.LLST91
 6805 1bdd 28       		.uleb128 0x28
 6806 1bde 630B0000 		.4byte	.LASF118
 6807 1be2 01       		.byte	0x1
 6808 1be3 0006     		.2byte	0x600
 6809 1be5 FD050000 		.4byte	0x5fd
 6810 1be9 71120000 		.4byte	.LLST92
 6811 1bed 29       		.uleb128 0x29
 6812 1bee 2E000000 		.4byte	.LBB16
 6813 1bf2 1A000000 		.4byte	.LBE16-.LBB16
 6814 1bf6 2D1C0000 		.4byte	0x1c2d
 6815 1bfa 28       		.uleb128 0x28
 6816 1bfb 4D0A0000 		.4byte	.LASF211
 6817 1bff 01       		.byte	0x1
 6818 1c00 1506     		.2byte	0x615
 6819 1c02 720D0000 		.4byte	0xd72
 6820 1c06 A5120000 		.4byte	.LLST93
 6821 1c0a 21       		.uleb128 0x21
 6822 1c0b 40000000 		.4byte	.LVL340
 6823 1c0f C51E0000 		.4byte	0x1ec5
 6824 1c13 22       		.uleb128 0x22
 6825 1c14 01       		.uleb128 0x1
 6826 1c15 50       		.byte	0x50
 6827 1c16 02       		.uleb128 0x2
 6828 1c17 75       		.byte	0x75
 6829 1c18 00       		.sleb128 0
 6830 1c19 22       		.uleb128 0x22
 6831 1c1a 01       		.uleb128 0x1
 6832 1c1b 51       		.byte	0x51
 6833 1c1c 01       		.uleb128 0x1
 6834 1c1d 36       		.byte	0x36
 6835 1c1e 22       		.uleb128 0x22
 6836 1c1f 01       		.uleb128 0x1
 6837 1c20 53       		.byte	0x53
 6838 1c21 02       		.uleb128 0x2
 6839 1c22 74       		.byte	0x74
 6840 1c23 00       		.sleb128 0
 6841 1c24 22       		.uleb128 0x22
 6842 1c25 02       		.uleb128 0x2
 6843 1c26 7D       		.byte	0x7d
 6844 1c27 00       		.sleb128 0
 6845 1c28 02       		.uleb128 0x2
 6846 1c29 76       		.byte	0x76
 6847 1c2a 00       		.sleb128 0
 6848 1c2b 00       		.byte	0
 6849 1c2c 00       		.byte	0
 6850 1c2d 25       		.uleb128 0x25
 6851 1c2e 12000000 		.4byte	.LVL331
 6852 1c32 AE1E0000 		.4byte	0x1eae
 6853 1c36 24       		.uleb128 0x24
 6854 1c37 1E000000 		.4byte	.LVL332
 6855 1c3b 860F0000 		.4byte	0xf86
 6856 1c3f 541C0000 		.4byte	0x1c54
 6857 1c43 22       		.uleb128 0x22
 6858 1c44 01       		.uleb128 0x1
 6859 1c45 50       		.byte	0x50
 6860 1c46 02       		.uleb128 0x2
ARM GAS  C:\Users\Phuong\AppData\Local\Temp\cc5dKVKJ.s 			page 156


 6861 1c47 74       		.byte	0x74
 6862 1c48 00       		.sleb128 0
 6863 1c49 22       		.uleb128 0x22
 6864 1c4a 01       		.uleb128 0x1
 6865 1c4b 51       		.byte	0x51
 6866 1c4c 01       		.uleb128 0x1
 6867 1c4d 30       		.byte	0x30
 6868 1c4e 22       		.uleb128 0x22
 6869 1c4f 01       		.uleb128 0x1
 6870 1c50 52       		.byte	0x52
 6871 1c51 01       		.uleb128 0x1
 6872 1c52 30       		.byte	0x30
 6873 1c53 00       		.byte	0
 6874 1c54 24       		.uleb128 0x24
 6875 1c55 2A000000 		.4byte	.LVL335
 6876 1c59 061F0000 		.4byte	0x1f06
 6877 1c5d 681C0000 		.4byte	0x1c68
 6878 1c61 22       		.uleb128 0x22
 6879 1c62 01       		.uleb128 0x1
 6880 1c63 50       		.byte	0x50
 6881 1c64 02       		.uleb128 0x2
 6882 1c65 76       		.byte	0x76
 6883 1c66 00       		.sleb128 0
 6884 1c67 00       		.byte	0
 6885 1c68 24       		.uleb128 0x24
 6886 1c69 68000000 		.4byte	.LVL341
 6887 1c6d D01E0000 		.4byte	0x1ed0
 6888 1c71 9B1C0000 		.4byte	0x1c9b
 6889 1c75 22       		.uleb128 0x22
 6890 1c76 01       		.uleb128 0x1
 6891 1c77 50       		.byte	0x50
 6892 1c78 02       		.uleb128 0x2
 6893 1c79 75       		.byte	0x75
 6894 1c7a 00       		.sleb128 0
 6895 1c7b 22       		.uleb128 0x22
 6896 1c7c 01       		.uleb128 0x1
 6897 1c7d 51       		.byte	0x51
 6898 1c7e 02       		.uleb128 0x2
 6899 1c7f 74       		.byte	0x74
 6900 1c80 00       		.sleb128 0
 6901 1c81 22       		.uleb128 0x22
 6902 1c82 01       		.uleb128 0x1
 6903 1c83 52       		.byte	0x52
 6904 1c84 02       		.uleb128 0x2
 6905 1c85 76       		.byte	0x76
 6906 1c86 00       		.sleb128 0
 6907 1c87 22       		.uleb128 0x22
 6908 1c88 02       		.uleb128 0x2
 6909 1c89 7D       		.byte	0x7d
 6910 1c8a 00       		.sleb128 0
 6911 1c8b 01       		.uleb128 0x1
 6912 1c8c 30       		.byte	0x30
 6913 1c8d 22       		.uleb128 0x22
 6914 1c8e 02       		.uleb128 0x2
 6915 1c8f 7D       		.byte	0x7d
 6916 1c90 04       		.sleb128 4
 6917 1c91 01       		.uleb128 0x1
ARM GAS  C:\Users\Phuong\AppData\Local\Temp\cc5dKVKJ.s 			page 157


 6918 1c92 36       		.byte	0x36
 6919 1c93 22       		.uleb128 0x22
 6920 1c94 02       		.uleb128 0x2
 6921 1c95 7D       		.byte	0x7d
 6922 1c96 08       		.sleb128 8
 6923 1c97 02       		.uleb128 0x2
 6924 1c98 77       		.byte	0x77
 6925 1c99 00       		.sleb128 0
 6926 1c9a 00       		.byte	0
 6927 1c9b 21       		.uleb128 0x21
 6928 1c9c 76000000 		.4byte	.LVL346
 6929 1ca0 811E0000 		.4byte	0x1e81
 6930 1ca4 22       		.uleb128 0x22
 6931 1ca5 01       		.uleb128 0x1
 6932 1ca6 50       		.byte	0x50
 6933 1ca7 02       		.uleb128 0x2
 6934 1ca8 75       		.byte	0x75
 6935 1ca9 00       		.sleb128 0
 6936 1caa 00       		.byte	0
 6937 1cab 00       		.byte	0
 6938 1cac 2A       		.uleb128 0x2a
 6939 1cad F5000000 		.4byte	.LASF263
 6940 1cb1 01       		.byte	0x1
 6941 1cb2 3206     		.2byte	0x632
 6942 1cb4 31010000 		.4byte	0x131
 6943 1cb8 00000000 		.4byte	.LFB68
 6944 1cbc 3C010000 		.4byte	.LFE68-.LFB68
 6945 1cc0 01       		.uleb128 0x1
 6946 1cc1 9C       		.byte	0x9c
 6947 1cc2 471E0000 		.4byte	0x1e47
 6948 1cc6 1A       		.uleb128 0x1a
 6949 1cc7 70636200 		.ascii	"pcb\000"
 6950 1ccb 01       		.byte	0x1
 6951 1ccc 3206     		.2byte	0x632
 6952 1cce 0E080000 		.4byte	0x80e
 6953 1cd2 C3120000 		.4byte	.LLST94
 6954 1cd6 27       		.uleb128 0x27
 6955 1cd7 65727200 		.ascii	"err\000"
 6956 1cdb 01       		.byte	0x1
 6957 1cdc 3406     		.2byte	0x634
 6958 1cde 31010000 		.4byte	0x131
 6959 1ce2 05130000 		.4byte	.LLST95
 6960 1ce6 27       		.uleb128 0x27
 6961 1ce7 7000     		.ascii	"p\000"
 6962 1ce9 01       		.byte	0x1
 6963 1cea 3506     		.2byte	0x635
 6964 1cec 6B020000 		.4byte	0x26b
 6965 1cf0 23130000 		.4byte	.LLST96
 6966 1cf4 28       		.uleb128 0x28
 6967 1cf5 4D0A0000 		.4byte	.LASF211
 6968 1cf9 01       		.byte	0x1
 6969 1cfa 3606     		.2byte	0x636
 6970 1cfc 720D0000 		.4byte	0xd72
 6971 1d00 6D130000 		.4byte	.LLST97
 6972 1d04 27       		.uleb128 0x27
 6973 1d05 73656700 		.ascii	"seg\000"
 6974 1d09 01       		.byte	0x1
ARM GAS  C:\Users\Phuong\AppData\Local\Temp\cc5dKVKJ.s 			page 158


 6975 1d0a 3706     		.2byte	0x637
 6976 1d0c FF0C0000 		.4byte	0xcff
 6977 1d10 A1130000 		.4byte	.LLST98
 6978 1d14 27       		.uleb128 0x27
 6979 1d15 6C656E00 		.ascii	"len\000"
 6980 1d19 01       		.byte	0x1
 6981 1d1a 3806     		.2byte	0x638
 6982 1d1c EF000000 		.4byte	0xef
 6983 1d20 BF130000 		.4byte	.LLST99
 6984 1d24 28       		.uleb128 0x28
 6985 1d25 50030000 		.4byte	.LASF264
 6986 1d29 01       		.byte	0x1
 6987 1d2a 3906     		.2byte	0x639
 6988 1d2c D9000000 		.4byte	0xd9
 6989 1d30 FF130000 		.4byte	.LLST100
 6990 1d34 28       		.uleb128 0x28
 6991 1d35 AF0B0000 		.4byte	.LASF161
 6992 1d39 01       		.byte	0x1
 6993 1d3a 3A06     		.2byte	0x63a
 6994 1d3c 05010000 		.4byte	0x105
 6995 1d40 28140000 		.4byte	.LLST101
 6996 1d44 28       		.uleb128 0x28
 6997 1d45 630B0000 		.4byte	.LASF118
 6998 1d49 01       		.byte	0x1
 6999 1d4a 3B06     		.2byte	0x63b
 7000 1d4c FD050000 		.4byte	0x5fd
 7001 1d50 3B140000 		.4byte	.LLST102
 7002 1d54 29       		.uleb128 0x29
 7003 1d55 92000000 		.4byte	.LBB17
 7004 1d59 16000000 		.4byte	.LBE17-.LBB17
 7005 1d5d 831D0000 		.4byte	0x1d83
 7006 1d61 32       		.uleb128 0x32
 7007 1d62 6400     		.ascii	"d\000"
 7008 1d64 01       		.byte	0x1
 7009 1d65 6006     		.2byte	0x660
 7010 1d67 91000000 		.4byte	0x91
 7011 1d6b 01       		.uleb128 0x1
 7012 1d6c 51       		.byte	0x51
 7013 1d6d 21       		.uleb128 0x21
 7014 1d6e A8000000 		.4byte	.LVL368
 7015 1d72 111F0000 		.4byte	0x1f11
 7016 1d76 22       		.uleb128 0x22
 7017 1d77 01       		.uleb128 0x1
 7018 1d78 51       		.byte	0x51
 7019 1d79 02       		.uleb128 0x2
 7020 1d7a 78       		.byte	0x78
 7021 1d7b 14       		.sleb128 20
 7022 1d7c 22       		.uleb128 0x22
 7023 1d7d 01       		.uleb128 0x1
 7024 1d7e 52       		.byte	0x52
 7025 1d7f 01       		.uleb128 0x1
 7026 1d80 31       		.byte	0x31
 7027 1d81 00       		.byte	0
 7028 1d82 00       		.byte	0
 7029 1d83 25       		.uleb128 0x25
 7030 1d84 26000000 		.4byte	.LVL355
 7031 1d88 A31E0000 		.4byte	0x1ea3
ARM GAS  C:\Users\Phuong\AppData\Local\Temp\cc5dKVKJ.s 			page 159


 7032 1d8c 24       		.uleb128 0x24
 7033 1d8d 64000000 		.4byte	.LVL358
 7034 1d91 860F0000 		.4byte	0xf86
 7035 1d95 AD1D0000 		.4byte	0x1dad
 7036 1d99 22       		.uleb128 0x22
 7037 1d9a 01       		.uleb128 0x1
 7038 1d9b 50       		.byte	0x50
 7039 1d9c 02       		.uleb128 0x2
 7040 1d9d 75       		.byte	0x75
 7041 1d9e 00       		.sleb128 0
 7042 1d9f 22       		.uleb128 0x22
 7043 1da0 01       		.uleb128 0x1
 7044 1da1 51       		.byte	0x51
 7045 1da2 01       		.uleb128 0x1
 7046 1da3 30       		.byte	0x30
 7047 1da4 22       		.uleb128 0x22
 7048 1da5 01       		.uleb128 0x1
 7049 1da6 52       		.byte	0x52
 7050 1da7 04       		.uleb128 0x4
 7051 1da8 77       		.byte	0x77
 7052 1da9 00       		.sleb128 0
 7053 1daa 30       		.byte	0x30
 7054 1dab 29       		.byte	0x29
 7055 1dac 00       		.byte	0
 7056 1dad 24       		.uleb128 0x24
 7057 1dae 80000000 		.4byte	.LVL364
 7058 1db2 A31E0000 		.4byte	0x1ea3
 7059 1db6 C01D0000 		.4byte	0x1dc0
 7060 1dba 22       		.uleb128 0x22
 7061 1dbb 01       		.uleb128 0x1
 7062 1dbc 50       		.byte	0x50
 7063 1dbd 01       		.uleb128 0x1
 7064 1dbe 41       		.byte	0x41
 7065 1dbf 00       		.byte	0
 7066 1dc0 25       		.uleb128 0x25
 7067 1dc1 C6000000 		.4byte	.LVL370
 7068 1dc5 AE1E0000 		.4byte	0x1eae
 7069 1dc9 24       		.uleb128 0x24
 7070 1dca D8000000 		.4byte	.LVL373
 7071 1dce 061F0000 		.4byte	0x1f06
 7072 1dd2 DD1D0000 		.4byte	0x1ddd
 7073 1dd6 22       		.uleb128 0x22
 7074 1dd7 01       		.uleb128 0x1
 7075 1dd8 50       		.byte	0x50
 7076 1dd9 02       		.uleb128 0x2
 7077 1dda 74       		.byte	0x74
 7078 1ddb 00       		.sleb128 0
 7079 1ddc 00       		.byte	0
 7080 1ddd 24       		.uleb128 0x24
 7081 1dde EA000000 		.4byte	.LVL376
 7082 1de2 C51E0000 		.4byte	0x1ec5
 7083 1de6 031E0000 		.4byte	0x1e03
 7084 1dea 22       		.uleb128 0x22
 7085 1deb 01       		.uleb128 0x1
 7086 1dec 50       		.byte	0x50
 7087 1ded 02       		.uleb128 0x2
 7088 1dee 76       		.byte	0x76
ARM GAS  C:\Users\Phuong\AppData\Local\Temp\cc5dKVKJ.s 			page 160


 7089 1def 00       		.sleb128 0
 7090 1df0 22       		.uleb128 0x22
 7091 1df1 01       		.uleb128 0x1
 7092 1df2 51       		.byte	0x51
 7093 1df3 01       		.uleb128 0x1
 7094 1df4 36       		.byte	0x36
 7095 1df5 22       		.uleb128 0x22
 7096 1df6 01       		.uleb128 0x1
 7097 1df7 53       		.byte	0x53
 7098 1df8 02       		.uleb128 0x2
 7099 1df9 75       		.byte	0x75
 7100 1dfa 00       		.sleb128 0
 7101 1dfb 22       		.uleb128 0x22
 7102 1dfc 02       		.uleb128 0x2
 7103 1dfd 7D       		.byte	0x7d
 7104 1dfe 00       		.sleb128 0
 7105 1dff 02       		.uleb128 0x2
 7106 1e00 74       		.byte	0x74
 7107 1e01 00       		.sleb128 0
 7108 1e02 00       		.byte	0
 7109 1e03 24       		.uleb128 0x24
 7110 1e04 12010000 		.4byte	.LVL377
 7111 1e08 D01E0000 		.4byte	0x1ed0
 7112 1e0c 361E0000 		.4byte	0x1e36
 7113 1e10 22       		.uleb128 0x22
 7114 1e11 01       		.uleb128 0x1
 7115 1e12 50       		.byte	0x50
 7116 1e13 02       		.uleb128 0x2
 7117 1e14 76       		.byte	0x76
 7118 1e15 00       		.sleb128 0
 7119 1e16 22       		.uleb128 0x22
 7120 1e17 01       		.uleb128 0x1
 7121 1e18 51       		.byte	0x51
 7122 1e19 02       		.uleb128 0x2
 7123 1e1a 75       		.byte	0x75
 7124 1e1b 00       		.sleb128 0
 7125 1e1c 22       		.uleb128 0x22
 7126 1e1d 01       		.uleb128 0x1
 7127 1e1e 52       		.byte	0x52
 7128 1e1f 02       		.uleb128 0x2
 7129 1e20 74       		.byte	0x74
 7130 1e21 00       		.sleb128 0
 7131 1e22 22       		.uleb128 0x22
 7132 1e23 02       		.uleb128 0x2
 7133 1e24 7D       		.byte	0x7d
 7134 1e25 00       		.sleb128 0
 7135 1e26 01       		.uleb128 0x1
 7136 1e27 30       		.byte	0x30
 7137 1e28 22       		.uleb128 0x22
 7138 1e29 02       		.uleb128 0x2
 7139 1e2a 7D       		.byte	0x7d
 7140 1e2b 04       		.sleb128 4
 7141 1e2c 01       		.uleb128 0x1
 7142 1e2d 36       		.byte	0x36
 7143 1e2e 22       		.uleb128 0x22
 7144 1e2f 02       		.uleb128 0x2
 7145 1e30 7D       		.byte	0x7d
ARM GAS  C:\Users\Phuong\AppData\Local\Temp\cc5dKVKJ.s 			page 161


 7146 1e31 08       		.sleb128 8
 7147 1e32 02       		.uleb128 0x2
 7148 1e33 77       		.byte	0x77
 7149 1e34 00       		.sleb128 0
 7150 1e35 00       		.byte	0
 7151 1e36 21       		.uleb128 0x21
 7152 1e37 20010000 		.4byte	.LVL381
 7153 1e3b 811E0000 		.4byte	0x1e81
 7154 1e3f 22       		.uleb128 0x22
 7155 1e40 01       		.uleb128 0x1
 7156 1e41 50       		.byte	0x50
 7157 1e42 02       		.uleb128 0x2
 7158 1e43 76       		.byte	0x76
 7159 1e44 00       		.sleb128 0
 7160 1e45 00       		.byte	0
 7161 1e46 00       		.byte	0
 7162 1e47 33       		.uleb128 0x33
 7163 1e48 C3010000 		.4byte	.LASF265
 7164 1e4c 0D       		.byte	0xd
 7165 1e4d 3001     		.2byte	0x130
 7166 1e4f 46050000 		.4byte	0x546
 7167 1e53 33       		.uleb128 0x33
 7168 1e54 CE040000 		.4byte	.LASF266
 7169 1e58 10       		.byte	0x10
 7170 1e59 3701     		.2byte	0x137
 7171 1e5b 0E080000 		.4byte	0x80e
 7172 1e5f 33       		.uleb128 0x33
 7173 1e60 C4050000 		.4byte	.LASF267
 7174 1e64 10       		.byte	0x10
 7175 1e65 3801     		.2byte	0x138
 7176 1e67 05010000 		.4byte	0x105
 7177 1e6b 34       		.uleb128 0x34
 7178 1e6c 8A060000 		.4byte	.LASF268
 7179 1e70 8A060000 		.4byte	.LASF268
 7180 1e74 09       		.byte	0x9
 7181 1e75 DF       		.byte	0xdf
 7182 1e76 34       		.uleb128 0x34
 7183 1e77 8F090000 		.4byte	.LASF269
 7184 1e7b 8F090000 		.4byte	.LASF269
 7185 1e7f 0C       		.byte	0xc
 7186 1e80 90       		.byte	0x90
 7187 1e81 34       		.uleb128 0x34
 7188 1e82 95060000 		.4byte	.LASF270
 7189 1e86 95060000 		.4byte	.LASF270
 7190 1e8a 09       		.byte	0x9
 7191 1e8b E9       		.byte	0xe9
 7192 1e8c 34       		.uleb128 0x34
 7193 1e8d B8050000 		.4byte	.LASF271
 7194 1e91 B8050000 		.4byte	.LASF271
 7195 1e95 09       		.byte	0x9
 7196 1e96 E6       		.byte	0xe6
 7197 1e97 35       		.uleb128 0x35
 7198 1e98 1E080000 		.4byte	.LASF272
 7199 1e9c 1E080000 		.4byte	.LASF272
 7200 1ea0 10       		.byte	0x10
 7201 1ea1 AE01     		.2byte	0x1ae
 7202 1ea3 34       		.uleb128 0x34
ARM GAS  C:\Users\Phuong\AppData\Local\Temp\cc5dKVKJ.s 			page 162


 7203 1ea4 9B010000 		.4byte	.LASF273
 7204 1ea8 9B010000 		.4byte	.LASF273
 7205 1eac 12       		.byte	0x12
 7206 1ead 55       		.byte	0x55
 7207 1eae 34       		.uleb128 0x34
 7208 1eaf 80010000 		.4byte	.LASF274
 7209 1eb3 80010000 		.4byte	.LASF274
 7210 1eb7 12       		.byte	0x12
 7211 1eb8 5A       		.byte	0x5a
 7212 1eb9 35       		.uleb128 0x35
 7213 1eba 3A0C0000 		.4byte	.LASF275
 7214 1ebe 3A0C0000 		.4byte	.LASF275
 7215 1ec2 10       		.byte	0x10
 7216 1ec3 D101     		.2byte	0x1d1
 7217 1ec5 34       		.uleb128 0x34
 7218 1ec6 11010000 		.4byte	.LASF276
 7219 1eca 11010000 		.4byte	.LASF276
 7220 1ece 13       		.byte	0x13
 7221 1ecf 5F       		.byte	0x5f
 7222 1ed0 34       		.uleb128 0x34
 7223 1ed1 CF080000 		.4byte	.LASF277
 7224 1ed5 CF080000 		.4byte	.LASF277
 7225 1ed9 14       		.byte	0x14
 7226 1eda 4A       		.byte	0x4a
 7227 1edb 36       		.uleb128 0x36
 7228 1edc E10B0000 		.4byte	.LASF286
 7229 1ee0 E10B0000 		.4byte	.LASF286
 7230 1ee4 34       		.uleb128 0x34
 7231 1ee5 77050000 		.4byte	.LASF278
 7232 1ee9 77050000 		.4byte	.LASF278
 7233 1eed 09       		.byte	0x9
 7234 1eee EA       		.byte	0xea
 7235 1eef 34       		.uleb128 0x34
 7236 1ef0 730C0000 		.4byte	.LASF279
 7237 1ef4 730C0000 		.4byte	.LASF279
 7238 1ef8 09       		.byte	0x9
 7239 1ef9 EB       		.byte	0xeb
 7240 1efa 35       		.uleb128 0x35
 7241 1efb 5A0C0000 		.4byte	.LASF280
 7242 1eff 5A0C0000 		.4byte	.LASF280
 7243 1f03 10       		.byte	0x10
 7244 1f04 AD01     		.2byte	0x1ad
 7245 1f06 34       		.uleb128 0x34
 7246 1f07 81050000 		.4byte	.LASF281
 7247 1f0b 81050000 		.4byte	.LASF281
 7248 1f0f 14       		.byte	0x14
 7249 1f10 41       		.byte	0x41
 7250 1f11 34       		.uleb128 0x34
 7251 1f12 22010000 		.4byte	.LASF282
 7252 1f16 22010000 		.4byte	.LASF282
 7253 1f1a 09       		.byte	0x9
 7254 1f1b EF       		.byte	0xef
 7255 1f1c 00       		.byte	0
 7256              		.section	.debug_abbrev,"",%progbits
 7257              	.Ldebug_abbrev0:
 7258 0000 01       		.uleb128 0x1
 7259 0001 11       		.uleb128 0x11
ARM GAS  C:\Users\Phuong\AppData\Local\Temp\cc5dKVKJ.s 			page 163


 7260 0002 01       		.byte	0x1
 7261 0003 25       		.uleb128 0x25
 7262 0004 0E       		.uleb128 0xe
 7263 0005 13       		.uleb128 0x13
 7264 0006 0B       		.uleb128 0xb
 7265 0007 03       		.uleb128 0x3
 7266 0008 0E       		.uleb128 0xe
 7267 0009 1B       		.uleb128 0x1b
 7268 000a 0E       		.uleb128 0xe
 7269 000b 55       		.uleb128 0x55
 7270 000c 17       		.uleb128 0x17
 7271 000d 11       		.uleb128 0x11
 7272 000e 01       		.uleb128 0x1
 7273 000f 10       		.uleb128 0x10
 7274 0010 17       		.uleb128 0x17
 7275 0011 00       		.byte	0
 7276 0012 00       		.byte	0
 7277 0013 02       		.uleb128 0x2
 7278 0014 24       		.uleb128 0x24
 7279 0015 00       		.byte	0
 7280 0016 0B       		.uleb128 0xb
 7281 0017 0B       		.uleb128 0xb
 7282 0018 3E       		.uleb128 0x3e
 7283 0019 0B       		.uleb128 0xb
 7284 001a 03       		.uleb128 0x3
 7285 001b 0E       		.uleb128 0xe
 7286 001c 00       		.byte	0
 7287 001d 00       		.byte	0
 7288 001e 03       		.uleb128 0x3
 7289 001f 16       		.uleb128 0x16
 7290 0020 00       		.byte	0
 7291 0021 03       		.uleb128 0x3
 7292 0022 0E       		.uleb128 0xe
 7293 0023 3A       		.uleb128 0x3a
 7294 0024 0B       		.uleb128 0xb
 7295 0025 3B       		.uleb128 0x3b
 7296 0026 0B       		.uleb128 0xb
 7297 0027 49       		.uleb128 0x49
 7298 0028 13       		.uleb128 0x13
 7299 0029 00       		.byte	0
 7300 002a 00       		.byte	0
 7301 002b 04       		.uleb128 0x4
 7302 002c 24       		.uleb128 0x24
 7303 002d 00       		.byte	0
 7304 002e 0B       		.uleb128 0xb
 7305 002f 0B       		.uleb128 0xb
 7306 0030 3E       		.uleb128 0x3e
 7307 0031 0B       		.uleb128 0xb
 7308 0032 03       		.uleb128 0x3
 7309 0033 08       		.uleb128 0x8
 7310 0034 00       		.byte	0
 7311 0035 00       		.byte	0
 7312 0036 05       		.uleb128 0x5
 7313 0037 0F       		.uleb128 0xf
 7314 0038 00       		.byte	0
 7315 0039 0B       		.uleb128 0xb
 7316 003a 0B       		.uleb128 0xb
ARM GAS  C:\Users\Phuong\AppData\Local\Temp\cc5dKVKJ.s 			page 164


 7317 003b 00       		.byte	0
 7318 003c 00       		.byte	0
 7319 003d 06       		.uleb128 0x6
 7320 003e 0F       		.uleb128 0xf
 7321 003f 00       		.byte	0
 7322 0040 0B       		.uleb128 0xb
 7323 0041 0B       		.uleb128 0xb
 7324 0042 49       		.uleb128 0x49
 7325 0043 13       		.uleb128 0x13
 7326 0044 00       		.byte	0
 7327 0045 00       		.byte	0
 7328 0046 07       		.uleb128 0x7
 7329 0047 26       		.uleb128 0x26
 7330 0048 00       		.byte	0
 7331 0049 49       		.uleb128 0x49
 7332 004a 13       		.uleb128 0x13
 7333 004b 00       		.byte	0
 7334 004c 00       		.byte	0
 7335 004d 08       		.uleb128 0x8
 7336 004e 26       		.uleb128 0x26
 7337 004f 00       		.byte	0
 7338 0050 00       		.byte	0
 7339 0051 00       		.byte	0
 7340 0052 09       		.uleb128 0x9
 7341 0053 01       		.uleb128 0x1
 7342 0054 01       		.byte	0x1
 7343 0055 49       		.uleb128 0x49
 7344 0056 13       		.uleb128 0x13
 7345 0057 01       		.uleb128 0x1
 7346 0058 13       		.uleb128 0x13
 7347 0059 00       		.byte	0
 7348 005a 00       		.byte	0
 7349 005b 0A       		.uleb128 0xa
 7350 005c 21       		.uleb128 0x21
 7351 005d 00       		.byte	0
 7352 005e 49       		.uleb128 0x49
 7353 005f 13       		.uleb128 0x13
 7354 0060 2F       		.uleb128 0x2f
 7355 0061 0B       		.uleb128 0xb
 7356 0062 00       		.byte	0
 7357 0063 00       		.byte	0
 7358 0064 0B       		.uleb128 0xb
 7359 0065 04       		.uleb128 0x4
 7360 0066 01       		.byte	0x1
 7361 0067 0B       		.uleb128 0xb
 7362 0068 0B       		.uleb128 0xb
 7363 0069 49       		.uleb128 0x49
 7364 006a 13       		.uleb128 0x13
 7365 006b 3A       		.uleb128 0x3a
 7366 006c 0B       		.uleb128 0xb
 7367 006d 3B       		.uleb128 0x3b
 7368 006e 0B       		.uleb128 0xb
 7369 006f 01       		.uleb128 0x1
 7370 0070 13       		.uleb128 0x13
 7371 0071 00       		.byte	0
 7372 0072 00       		.byte	0
 7373 0073 0C       		.uleb128 0xc
ARM GAS  C:\Users\Phuong\AppData\Local\Temp\cc5dKVKJ.s 			page 165


 7374 0074 28       		.uleb128 0x28
 7375 0075 00       		.byte	0
 7376 0076 03       		.uleb128 0x3
 7377 0077 0E       		.uleb128 0xe
 7378 0078 1C       		.uleb128 0x1c
 7379 0079 0B       		.uleb128 0xb
 7380 007a 00       		.byte	0
 7381 007b 00       		.byte	0
 7382 007c 0D       		.uleb128 0xd
 7383 007d 28       		.uleb128 0x28
 7384 007e 00       		.byte	0
 7385 007f 03       		.uleb128 0x3
 7386 0080 0E       		.uleb128 0xe
 7387 0081 1C       		.uleb128 0x1c
 7388 0082 0D       		.uleb128 0xd
 7389 0083 00       		.byte	0
 7390 0084 00       		.byte	0
 7391 0085 0E       		.uleb128 0xe
 7392 0086 13       		.uleb128 0x13
 7393 0087 01       		.byte	0x1
 7394 0088 03       		.uleb128 0x3
 7395 0089 0E       		.uleb128 0xe
 7396 008a 0B       		.uleb128 0xb
 7397 008b 0B       		.uleb128 0xb
 7398 008c 3A       		.uleb128 0x3a
 7399 008d 0B       		.uleb128 0xb
 7400 008e 3B       		.uleb128 0x3b
 7401 008f 0B       		.uleb128 0xb
 7402 0090 01       		.uleb128 0x1
 7403 0091 13       		.uleb128 0x13
 7404 0092 00       		.byte	0
 7405 0093 00       		.byte	0
 7406 0094 0F       		.uleb128 0xf
 7407 0095 0D       		.uleb128 0xd
 7408 0096 00       		.byte	0
 7409 0097 03       		.uleb128 0x3
 7410 0098 0E       		.uleb128 0xe
 7411 0099 3A       		.uleb128 0x3a
 7412 009a 0B       		.uleb128 0xb
 7413 009b 3B       		.uleb128 0x3b
 7414 009c 0B       		.uleb128 0xb
 7415 009d 49       		.uleb128 0x49
 7416 009e 13       		.uleb128 0x13
 7417 009f 38       		.uleb128 0x38
 7418 00a0 0B       		.uleb128 0xb
 7419 00a1 00       		.byte	0
 7420 00a2 00       		.byte	0
 7421 00a3 10       		.uleb128 0x10
 7422 00a4 0D       		.uleb128 0xd
 7423 00a5 00       		.byte	0
 7424 00a6 03       		.uleb128 0x3
 7425 00a7 08       		.uleb128 0x8
 7426 00a8 3A       		.uleb128 0x3a
 7427 00a9 0B       		.uleb128 0xb
 7428 00aa 3B       		.uleb128 0x3b
 7429 00ab 0B       		.uleb128 0xb
 7430 00ac 49       		.uleb128 0x49
ARM GAS  C:\Users\Phuong\AppData\Local\Temp\cc5dKVKJ.s 			page 166


 7431 00ad 13       		.uleb128 0x13
 7432 00ae 38       		.uleb128 0x38
 7433 00af 0B       		.uleb128 0xb
 7434 00b0 00       		.byte	0
 7435 00b1 00       		.byte	0
 7436 00b2 11       		.uleb128 0x11
 7437 00b3 13       		.uleb128 0x13
 7438 00b4 01       		.byte	0x1
 7439 00b5 03       		.uleb128 0x3
 7440 00b6 0E       		.uleb128 0xe
 7441 00b7 0B       		.uleb128 0xb
 7442 00b8 05       		.uleb128 0x5
 7443 00b9 3A       		.uleb128 0x3a
 7444 00ba 0B       		.uleb128 0xb
 7445 00bb 3B       		.uleb128 0x3b
 7446 00bc 0B       		.uleb128 0xb
 7447 00bd 01       		.uleb128 0x1
 7448 00be 13       		.uleb128 0x13
 7449 00bf 00       		.byte	0
 7450 00c0 00       		.byte	0
 7451 00c1 12       		.uleb128 0x12
 7452 00c2 0D       		.uleb128 0xd
 7453 00c3 00       		.byte	0
 7454 00c4 03       		.uleb128 0x3
 7455 00c5 08       		.uleb128 0x8
 7456 00c6 3A       		.uleb128 0x3a
 7457 00c7 0B       		.uleb128 0xb
 7458 00c8 3B       		.uleb128 0x3b
 7459 00c9 05       		.uleb128 0x5
 7460 00ca 49       		.uleb128 0x49
 7461 00cb 13       		.uleb128 0x13
 7462 00cc 38       		.uleb128 0x38
 7463 00cd 0B       		.uleb128 0xb
 7464 00ce 00       		.byte	0
 7465 00cf 00       		.byte	0
 7466 00d0 13       		.uleb128 0x13
 7467 00d1 0D       		.uleb128 0xd
 7468 00d2 00       		.byte	0
 7469 00d3 03       		.uleb128 0x3
 7470 00d4 0E       		.uleb128 0xe
 7471 00d5 3A       		.uleb128 0x3a
 7472 00d6 0B       		.uleb128 0xb
 7473 00d7 3B       		.uleb128 0x3b
 7474 00d8 05       		.uleb128 0x5
 7475 00d9 49       		.uleb128 0x49
 7476 00da 13       		.uleb128 0x13
 7477 00db 38       		.uleb128 0x38
 7478 00dc 0B       		.uleb128 0xb
 7479 00dd 00       		.byte	0
 7480 00de 00       		.byte	0
 7481 00df 14       		.uleb128 0x14
 7482 00e0 0D       		.uleb128 0xd
 7483 00e1 00       		.byte	0
 7484 00e2 03       		.uleb128 0x3
 7485 00e3 08       		.uleb128 0x8
 7486 00e4 3A       		.uleb128 0x3a
 7487 00e5 0B       		.uleb128 0xb
ARM GAS  C:\Users\Phuong\AppData\Local\Temp\cc5dKVKJ.s 			page 167


 7488 00e6 3B       		.uleb128 0x3b
 7489 00e7 05       		.uleb128 0x5
 7490 00e8 49       		.uleb128 0x49
 7491 00e9 13       		.uleb128 0x13
 7492 00ea 38       		.uleb128 0x38
 7493 00eb 05       		.uleb128 0x5
 7494 00ec 00       		.byte	0
 7495 00ed 00       		.byte	0
 7496 00ee 15       		.uleb128 0x15
 7497 00ef 04       		.uleb128 0x4
 7498 00f0 01       		.byte	0x1
 7499 00f1 03       		.uleb128 0x3
 7500 00f2 0E       		.uleb128 0xe
 7501 00f3 0B       		.uleb128 0xb
 7502 00f4 0B       		.uleb128 0xb
 7503 00f5 49       		.uleb128 0x49
 7504 00f6 13       		.uleb128 0x13
 7505 00f7 3A       		.uleb128 0x3a
 7506 00f8 0B       		.uleb128 0xb
 7507 00f9 3B       		.uleb128 0x3b
 7508 00fa 0B       		.uleb128 0xb
 7509 00fb 01       		.uleb128 0x1
 7510 00fc 13       		.uleb128 0x13
 7511 00fd 00       		.byte	0
 7512 00fe 00       		.byte	0
 7513 00ff 16       		.uleb128 0x16
 7514 0100 15       		.uleb128 0x15
 7515 0101 01       		.byte	0x1
 7516 0102 27       		.uleb128 0x27
 7517 0103 19       		.uleb128 0x19
 7518 0104 49       		.uleb128 0x49
 7519 0105 13       		.uleb128 0x13
 7520 0106 01       		.uleb128 0x1
 7521 0107 13       		.uleb128 0x13
 7522 0108 00       		.byte	0
 7523 0109 00       		.byte	0
 7524 010a 17       		.uleb128 0x17
 7525 010b 05       		.uleb128 0x5
 7526 010c 00       		.byte	0
 7527 010d 49       		.uleb128 0x49
 7528 010e 13       		.uleb128 0x13
 7529 010f 00       		.byte	0
 7530 0110 00       		.byte	0
 7531 0111 18       		.uleb128 0x18
 7532 0112 15       		.uleb128 0x15
 7533 0113 01       		.byte	0x1
 7534 0114 27       		.uleb128 0x27
 7535 0115 19       		.uleb128 0x19
 7536 0116 01       		.uleb128 0x1
 7537 0117 13       		.uleb128 0x13
 7538 0118 00       		.byte	0
 7539 0119 00       		.byte	0
 7540 011a 19       		.uleb128 0x19
 7541 011b 2E       		.uleb128 0x2e
 7542 011c 01       		.byte	0x1
 7543 011d 03       		.uleb128 0x3
 7544 011e 0E       		.uleb128 0xe
ARM GAS  C:\Users\Phuong\AppData\Local\Temp\cc5dKVKJ.s 			page 168


 7545 011f 3A       		.uleb128 0x3a
 7546 0120 0B       		.uleb128 0xb
 7547 0121 3B       		.uleb128 0x3b
 7548 0122 05       		.uleb128 0x5
 7549 0123 27       		.uleb128 0x27
 7550 0124 19       		.uleb128 0x19
 7551 0125 49       		.uleb128 0x49
 7552 0126 13       		.uleb128 0x13
 7553 0127 11       		.uleb128 0x11
 7554 0128 01       		.uleb128 0x1
 7555 0129 12       		.uleb128 0x12
 7556 012a 06       		.uleb128 0x6
 7557 012b 40       		.uleb128 0x40
 7558 012c 18       		.uleb128 0x18
 7559 012d 9742     		.uleb128 0x2117
 7560 012f 19       		.uleb128 0x19
 7561 0130 01       		.uleb128 0x1
 7562 0131 13       		.uleb128 0x13
 7563 0132 00       		.byte	0
 7564 0133 00       		.byte	0
 7565 0134 1A       		.uleb128 0x1a
 7566 0135 05       		.uleb128 0x5
 7567 0136 00       		.byte	0
 7568 0137 03       		.uleb128 0x3
 7569 0138 08       		.uleb128 0x8
 7570 0139 3A       		.uleb128 0x3a
 7571 013a 0B       		.uleb128 0xb
 7572 013b 3B       		.uleb128 0x3b
 7573 013c 05       		.uleb128 0x5
 7574 013d 49       		.uleb128 0x49
 7575 013e 13       		.uleb128 0x13
 7576 013f 02       		.uleb128 0x2
 7577 0140 17       		.uleb128 0x17
 7578 0141 00       		.byte	0
 7579 0142 00       		.byte	0
 7580 0143 1B       		.uleb128 0x1b
 7581 0144 2E       		.uleb128 0x2e
 7582 0145 01       		.byte	0x1
 7583 0146 03       		.uleb128 0x3
 7584 0147 0E       		.uleb128 0xe
 7585 0148 3A       		.uleb128 0x3a
 7586 0149 0B       		.uleb128 0xb
 7587 014a 3B       		.uleb128 0x3b
 7588 014b 0B       		.uleb128 0xb
 7589 014c 27       		.uleb128 0x27
 7590 014d 19       		.uleb128 0x19
 7591 014e 49       		.uleb128 0x49
 7592 014f 13       		.uleb128 0x13
 7593 0150 11       		.uleb128 0x11
 7594 0151 01       		.uleb128 0x1
 7595 0152 12       		.uleb128 0x12
 7596 0153 06       		.uleb128 0x6
 7597 0154 40       		.uleb128 0x40
 7598 0155 18       		.uleb128 0x18
 7599 0156 9742     		.uleb128 0x2117
 7600 0158 19       		.uleb128 0x19
 7601 0159 01       		.uleb128 0x1
ARM GAS  C:\Users\Phuong\AppData\Local\Temp\cc5dKVKJ.s 			page 169


 7602 015a 13       		.uleb128 0x13
 7603 015b 00       		.byte	0
 7604 015c 00       		.byte	0
 7605 015d 1C       		.uleb128 0x1c
 7606 015e 05       		.uleb128 0x5
 7607 015f 00       		.byte	0
 7608 0160 03       		.uleb128 0x3
 7609 0161 0E       		.uleb128 0xe
 7610 0162 3A       		.uleb128 0x3a
 7611 0163 0B       		.uleb128 0xb
 7612 0164 3B       		.uleb128 0x3b
 7613 0165 0B       		.uleb128 0xb
 7614 0166 49       		.uleb128 0x49
 7615 0167 13       		.uleb128 0x13
 7616 0168 02       		.uleb128 0x2
 7617 0169 17       		.uleb128 0x17
 7618 016a 00       		.byte	0
 7619 016b 00       		.byte	0
 7620 016c 1D       		.uleb128 0x1d
 7621 016d 05       		.uleb128 0x5
 7622 016e 00       		.byte	0
 7623 016f 03       		.uleb128 0x3
 7624 0170 08       		.uleb128 0x8
 7625 0171 3A       		.uleb128 0x3a
 7626 0172 0B       		.uleb128 0xb
 7627 0173 3B       		.uleb128 0x3b
 7628 0174 0B       		.uleb128 0xb
 7629 0175 49       		.uleb128 0x49
 7630 0176 13       		.uleb128 0x13
 7631 0177 02       		.uleb128 0x2
 7632 0178 18       		.uleb128 0x18
 7633 0179 00       		.byte	0
 7634 017a 00       		.byte	0
 7635 017b 1E       		.uleb128 0x1e
 7636 017c 05       		.uleb128 0x5
 7637 017d 00       		.byte	0
 7638 017e 03       		.uleb128 0x3
 7639 017f 0E       		.uleb128 0xe
 7640 0180 3A       		.uleb128 0x3a
 7641 0181 0B       		.uleb128 0xb
 7642 0182 3B       		.uleb128 0x3b
 7643 0183 0B       		.uleb128 0xb
 7644 0184 49       		.uleb128 0x49
 7645 0185 13       		.uleb128 0x13
 7646 0186 02       		.uleb128 0x2
 7647 0187 18       		.uleb128 0x18
 7648 0188 00       		.byte	0
 7649 0189 00       		.byte	0
 7650 018a 1F       		.uleb128 0x1f
 7651 018b 34       		.uleb128 0x34
 7652 018c 00       		.byte	0
 7653 018d 03       		.uleb128 0x3
 7654 018e 08       		.uleb128 0x8
 7655 018f 3A       		.uleb128 0x3a
 7656 0190 0B       		.uleb128 0xb
 7657 0191 3B       		.uleb128 0x3b
 7658 0192 0B       		.uleb128 0xb
ARM GAS  C:\Users\Phuong\AppData\Local\Temp\cc5dKVKJ.s 			page 170


 7659 0193 49       		.uleb128 0x49
 7660 0194 13       		.uleb128 0x13
 7661 0195 02       		.uleb128 0x2
 7662 0196 17       		.uleb128 0x17
 7663 0197 00       		.byte	0
 7664 0198 00       		.byte	0
 7665 0199 20       		.uleb128 0x20
 7666 019a 34       		.uleb128 0x34
 7667 019b 00       		.byte	0
 7668 019c 03       		.uleb128 0x3
 7669 019d 0E       		.uleb128 0xe
 7670 019e 3A       		.uleb128 0x3a
 7671 019f 0B       		.uleb128 0xb
 7672 01a0 3B       		.uleb128 0x3b
 7673 01a1 0B       		.uleb128 0xb
 7674 01a2 49       		.uleb128 0x49
 7675 01a3 13       		.uleb128 0x13
 7676 01a4 02       		.uleb128 0x2
 7677 01a5 17       		.uleb128 0x17
 7678 01a6 00       		.byte	0
 7679 01a7 00       		.byte	0
 7680 01a8 21       		.uleb128 0x21
 7681 01a9 898201   		.uleb128 0x4109
 7682 01ac 01       		.byte	0x1
 7683 01ad 11       		.uleb128 0x11
 7684 01ae 01       		.uleb128 0x1
 7685 01af 31       		.uleb128 0x31
 7686 01b0 13       		.uleb128 0x13
 7687 01b1 00       		.byte	0
 7688 01b2 00       		.byte	0
 7689 01b3 22       		.uleb128 0x22
 7690 01b4 8A8201   		.uleb128 0x410a
 7691 01b7 00       		.byte	0
 7692 01b8 02       		.uleb128 0x2
 7693 01b9 18       		.uleb128 0x18
 7694 01ba 9142     		.uleb128 0x2111
 7695 01bc 18       		.uleb128 0x18
 7696 01bd 00       		.byte	0
 7697 01be 00       		.byte	0
 7698 01bf 23       		.uleb128 0x23
 7699 01c0 05       		.uleb128 0x5
 7700 01c1 00       		.byte	0
 7701 01c2 03       		.uleb128 0x3
 7702 01c3 08       		.uleb128 0x8
 7703 01c4 3A       		.uleb128 0x3a
 7704 01c5 0B       		.uleb128 0xb
 7705 01c6 3B       		.uleb128 0x3b
 7706 01c7 0B       		.uleb128 0xb
 7707 01c8 49       		.uleb128 0x49
 7708 01c9 13       		.uleb128 0x13
 7709 01ca 02       		.uleb128 0x2
 7710 01cb 17       		.uleb128 0x17
 7711 01cc 00       		.byte	0
 7712 01cd 00       		.byte	0
 7713 01ce 24       		.uleb128 0x24
 7714 01cf 898201   		.uleb128 0x4109
 7715 01d2 01       		.byte	0x1
ARM GAS  C:\Users\Phuong\AppData\Local\Temp\cc5dKVKJ.s 			page 171


 7716 01d3 11       		.uleb128 0x11
 7717 01d4 01       		.uleb128 0x1
 7718 01d5 31       		.uleb128 0x31
 7719 01d6 13       		.uleb128 0x13
 7720 01d7 01       		.uleb128 0x1
 7721 01d8 13       		.uleb128 0x13
 7722 01d9 00       		.byte	0
 7723 01da 00       		.byte	0
 7724 01db 25       		.uleb128 0x25
 7725 01dc 898201   		.uleb128 0x4109
 7726 01df 00       		.byte	0
 7727 01e0 11       		.uleb128 0x11
 7728 01e1 01       		.uleb128 0x1
 7729 01e2 31       		.uleb128 0x31
 7730 01e3 13       		.uleb128 0x13
 7731 01e4 00       		.byte	0
 7732 01e5 00       		.byte	0
 7733 01e6 26       		.uleb128 0x26
 7734 01e7 05       		.uleb128 0x5
 7735 01e8 00       		.byte	0
 7736 01e9 03       		.uleb128 0x3
 7737 01ea 0E       		.uleb128 0xe
 7738 01eb 3A       		.uleb128 0x3a
 7739 01ec 0B       		.uleb128 0xb
 7740 01ed 3B       		.uleb128 0x3b
 7741 01ee 05       		.uleb128 0x5
 7742 01ef 49       		.uleb128 0x49
 7743 01f0 13       		.uleb128 0x13
 7744 01f1 02       		.uleb128 0x2
 7745 01f2 17       		.uleb128 0x17
 7746 01f3 00       		.byte	0
 7747 01f4 00       		.byte	0
 7748 01f5 27       		.uleb128 0x27
 7749 01f6 34       		.uleb128 0x34
 7750 01f7 00       		.byte	0
 7751 01f8 03       		.uleb128 0x3
 7752 01f9 08       		.uleb128 0x8
 7753 01fa 3A       		.uleb128 0x3a
 7754 01fb 0B       		.uleb128 0xb
 7755 01fc 3B       		.uleb128 0x3b
 7756 01fd 05       		.uleb128 0x5
 7757 01fe 49       		.uleb128 0x49
 7758 01ff 13       		.uleb128 0x13
 7759 0200 02       		.uleb128 0x2
 7760 0201 17       		.uleb128 0x17
 7761 0202 00       		.byte	0
 7762 0203 00       		.byte	0
 7763 0204 28       		.uleb128 0x28
 7764 0205 34       		.uleb128 0x34
 7765 0206 00       		.byte	0
 7766 0207 03       		.uleb128 0x3
 7767 0208 0E       		.uleb128 0xe
 7768 0209 3A       		.uleb128 0x3a
 7769 020a 0B       		.uleb128 0xb
 7770 020b 3B       		.uleb128 0x3b
 7771 020c 05       		.uleb128 0x5
 7772 020d 49       		.uleb128 0x49
ARM GAS  C:\Users\Phuong\AppData\Local\Temp\cc5dKVKJ.s 			page 172


 7773 020e 13       		.uleb128 0x13
 7774 020f 02       		.uleb128 0x2
 7775 0210 17       		.uleb128 0x17
 7776 0211 00       		.byte	0
 7777 0212 00       		.byte	0
 7778 0213 29       		.uleb128 0x29
 7779 0214 0B       		.uleb128 0xb
 7780 0215 01       		.byte	0x1
 7781 0216 11       		.uleb128 0x11
 7782 0217 01       		.uleb128 0x1
 7783 0218 12       		.uleb128 0x12
 7784 0219 06       		.uleb128 0x6
 7785 021a 01       		.uleb128 0x1
 7786 021b 13       		.uleb128 0x13
 7787 021c 00       		.byte	0
 7788 021d 00       		.byte	0
 7789 021e 2A       		.uleb128 0x2a
 7790 021f 2E       		.uleb128 0x2e
 7791 0220 01       		.byte	0x1
 7792 0221 3F       		.uleb128 0x3f
 7793 0222 19       		.uleb128 0x19
 7794 0223 03       		.uleb128 0x3
 7795 0224 0E       		.uleb128 0xe
 7796 0225 3A       		.uleb128 0x3a
 7797 0226 0B       		.uleb128 0xb
 7798 0227 3B       		.uleb128 0x3b
 7799 0228 05       		.uleb128 0x5
 7800 0229 27       		.uleb128 0x27
 7801 022a 19       		.uleb128 0x19
 7802 022b 49       		.uleb128 0x49
 7803 022c 13       		.uleb128 0x13
 7804 022d 11       		.uleb128 0x11
 7805 022e 01       		.uleb128 0x1
 7806 022f 12       		.uleb128 0x12
 7807 0230 06       		.uleb128 0x6
 7808 0231 40       		.uleb128 0x40
 7809 0232 18       		.uleb128 0x18
 7810 0233 9742     		.uleb128 0x2117
 7811 0235 19       		.uleb128 0x19
 7812 0236 01       		.uleb128 0x1
 7813 0237 13       		.uleb128 0x13
 7814 0238 00       		.byte	0
 7815 0239 00       		.byte	0
 7816 023a 2B       		.uleb128 0x2b
 7817 023b 34       		.uleb128 0x34
 7818 023c 00       		.byte	0
 7819 023d 03       		.uleb128 0x3
 7820 023e 0E       		.uleb128 0xe
 7821 023f 3A       		.uleb128 0x3a
 7822 0240 0B       		.uleb128 0xb
 7823 0241 3B       		.uleb128 0x3b
 7824 0242 05       		.uleb128 0x5
 7825 0243 49       		.uleb128 0x49
 7826 0244 13       		.uleb128 0x13
 7827 0245 1C       		.uleb128 0x1c
 7828 0246 0B       		.uleb128 0xb
 7829 0247 00       		.byte	0
ARM GAS  C:\Users\Phuong\AppData\Local\Temp\cc5dKVKJ.s 			page 173


 7830 0248 00       		.byte	0
 7831 0249 2C       		.uleb128 0x2c
 7832 024a 34       		.uleb128 0x34
 7833 024b 00       		.byte	0
 7834 024c 03       		.uleb128 0x3
 7835 024d 0E       		.uleb128 0xe
 7836 024e 3A       		.uleb128 0x3a
 7837 024f 0B       		.uleb128 0xb
 7838 0250 3B       		.uleb128 0x3b
 7839 0251 05       		.uleb128 0x5
 7840 0252 49       		.uleb128 0x49
 7841 0253 13       		.uleb128 0x13
 7842 0254 02       		.uleb128 0x2
 7843 0255 18       		.uleb128 0x18
 7844 0256 00       		.byte	0
 7845 0257 00       		.byte	0
 7846 0258 2D       		.uleb128 0x2d
 7847 0259 0A       		.uleb128 0xa
 7848 025a 00       		.byte	0
 7849 025b 03       		.uleb128 0x3
 7850 025c 0E       		.uleb128 0xe
 7851 025d 3A       		.uleb128 0x3a
 7852 025e 0B       		.uleb128 0xb
 7853 025f 3B       		.uleb128 0x3b
 7854 0260 05       		.uleb128 0x5
 7855 0261 11       		.uleb128 0x11
 7856 0262 01       		.uleb128 0x1
 7857 0263 00       		.byte	0
 7858 0264 00       		.byte	0
 7859 0265 2E       		.uleb128 0x2e
 7860 0266 0B       		.uleb128 0xb
 7861 0267 01       		.byte	0x1
 7862 0268 55       		.uleb128 0x55
 7863 0269 17       		.uleb128 0x17
 7864 026a 01       		.uleb128 0x1
 7865 026b 13       		.uleb128 0x13
 7866 026c 00       		.byte	0
 7867 026d 00       		.byte	0
 7868 026e 2F       		.uleb128 0x2f
 7869 026f 0B       		.uleb128 0xb
 7870 0270 01       		.byte	0x1
 7871 0271 11       		.uleb128 0x11
 7872 0272 01       		.uleb128 0x1
 7873 0273 12       		.uleb128 0x12
 7874 0274 06       		.uleb128 0x6
 7875 0275 00       		.byte	0
 7876 0276 00       		.byte	0
 7877 0277 30       		.uleb128 0x30
 7878 0278 2E       		.uleb128 0x2e
 7879 0279 01       		.byte	0x1
 7880 027a 3F       		.uleb128 0x3f
 7881 027b 19       		.uleb128 0x19
 7882 027c 03       		.uleb128 0x3
 7883 027d 0E       		.uleb128 0xe
 7884 027e 3A       		.uleb128 0x3a
 7885 027f 0B       		.uleb128 0xb
 7886 0280 3B       		.uleb128 0x3b
ARM GAS  C:\Users\Phuong\AppData\Local\Temp\cc5dKVKJ.s 			page 174


 7887 0281 0B       		.uleb128 0xb
 7888 0282 27       		.uleb128 0x27
 7889 0283 19       		.uleb128 0x19
 7890 0284 49       		.uleb128 0x49
 7891 0285 13       		.uleb128 0x13
 7892 0286 11       		.uleb128 0x11
 7893 0287 01       		.uleb128 0x1
 7894 0288 12       		.uleb128 0x12
 7895 0289 06       		.uleb128 0x6
 7896 028a 40       		.uleb128 0x40
 7897 028b 18       		.uleb128 0x18
 7898 028c 9742     		.uleb128 0x2117
 7899 028e 19       		.uleb128 0x19
 7900 028f 01       		.uleb128 0x1
 7901 0290 13       		.uleb128 0x13
 7902 0291 00       		.byte	0
 7903 0292 00       		.byte	0
 7904 0293 31       		.uleb128 0x31
 7905 0294 2E       		.uleb128 0x2e
 7906 0295 01       		.byte	0x1
 7907 0296 3F       		.uleb128 0x3f
 7908 0297 19       		.uleb128 0x19
 7909 0298 03       		.uleb128 0x3
 7910 0299 0E       		.uleb128 0xe
 7911 029a 3A       		.uleb128 0x3a
 7912 029b 0B       		.uleb128 0xb
 7913 029c 3B       		.uleb128 0x3b
 7914 029d 05       		.uleb128 0x5
 7915 029e 27       		.uleb128 0x27
 7916 029f 19       		.uleb128 0x19
 7917 02a0 11       		.uleb128 0x11
 7918 02a1 01       		.uleb128 0x1
 7919 02a2 12       		.uleb128 0x12
 7920 02a3 06       		.uleb128 0x6
 7921 02a4 40       		.uleb128 0x40
 7922 02a5 18       		.uleb128 0x18
 7923 02a6 9742     		.uleb128 0x2117
 7924 02a8 19       		.uleb128 0x19
 7925 02a9 01       		.uleb128 0x1
 7926 02aa 13       		.uleb128 0x13
 7927 02ab 00       		.byte	0
 7928 02ac 00       		.byte	0
 7929 02ad 32       		.uleb128 0x32
 7930 02ae 34       		.uleb128 0x34
 7931 02af 00       		.byte	0
 7932 02b0 03       		.uleb128 0x3
 7933 02b1 08       		.uleb128 0x8
 7934 02b2 3A       		.uleb128 0x3a
 7935 02b3 0B       		.uleb128 0xb
 7936 02b4 3B       		.uleb128 0x3b
 7937 02b5 05       		.uleb128 0x5
 7938 02b6 49       		.uleb128 0x49
 7939 02b7 13       		.uleb128 0x13
 7940 02b8 02       		.uleb128 0x2
 7941 02b9 18       		.uleb128 0x18
 7942 02ba 00       		.byte	0
 7943 02bb 00       		.byte	0
ARM GAS  C:\Users\Phuong\AppData\Local\Temp\cc5dKVKJ.s 			page 175


 7944 02bc 33       		.uleb128 0x33
 7945 02bd 34       		.uleb128 0x34
 7946 02be 00       		.byte	0
 7947 02bf 03       		.uleb128 0x3
 7948 02c0 0E       		.uleb128 0xe
 7949 02c1 3A       		.uleb128 0x3a
 7950 02c2 0B       		.uleb128 0xb
 7951 02c3 3B       		.uleb128 0x3b
 7952 02c4 05       		.uleb128 0x5
 7953 02c5 49       		.uleb128 0x49
 7954 02c6 13       		.uleb128 0x13
 7955 02c7 3F       		.uleb128 0x3f
 7956 02c8 19       		.uleb128 0x19
 7957 02c9 3C       		.uleb128 0x3c
 7958 02ca 19       		.uleb128 0x19
 7959 02cb 00       		.byte	0
 7960 02cc 00       		.byte	0
 7961 02cd 34       		.uleb128 0x34
 7962 02ce 2E       		.uleb128 0x2e
 7963 02cf 00       		.byte	0
 7964 02d0 3F       		.uleb128 0x3f
 7965 02d1 19       		.uleb128 0x19
 7966 02d2 3C       		.uleb128 0x3c
 7967 02d3 19       		.uleb128 0x19
 7968 02d4 6E       		.uleb128 0x6e
 7969 02d5 0E       		.uleb128 0xe
 7970 02d6 03       		.uleb128 0x3
 7971 02d7 0E       		.uleb128 0xe
 7972 02d8 3A       		.uleb128 0x3a
 7973 02d9 0B       		.uleb128 0xb
 7974 02da 3B       		.uleb128 0x3b
 7975 02db 0B       		.uleb128 0xb
 7976 02dc 00       		.byte	0
 7977 02dd 00       		.byte	0
 7978 02de 35       		.uleb128 0x35
 7979 02df 2E       		.uleb128 0x2e
 7980 02e0 00       		.byte	0
 7981 02e1 3F       		.uleb128 0x3f
 7982 02e2 19       		.uleb128 0x19
 7983 02e3 3C       		.uleb128 0x3c
 7984 02e4 19       		.uleb128 0x19
 7985 02e5 6E       		.uleb128 0x6e
 7986 02e6 0E       		.uleb128 0xe
 7987 02e7 03       		.uleb128 0x3
 7988 02e8 0E       		.uleb128 0xe
 7989 02e9 3A       		.uleb128 0x3a
 7990 02ea 0B       		.uleb128 0xb
 7991 02eb 3B       		.uleb128 0x3b
 7992 02ec 05       		.uleb128 0x5
 7993 02ed 00       		.byte	0
 7994 02ee 00       		.byte	0
 7995 02ef 36       		.uleb128 0x36
 7996 02f0 2E       		.uleb128 0x2e
 7997 02f1 00       		.byte	0
 7998 02f2 3F       		.uleb128 0x3f
 7999 02f3 19       		.uleb128 0x19
 8000 02f4 3C       		.uleb128 0x3c
ARM GAS  C:\Users\Phuong\AppData\Local\Temp\cc5dKVKJ.s 			page 176


 8001 02f5 19       		.uleb128 0x19
 8002 02f6 6E       		.uleb128 0x6e
 8003 02f7 0E       		.uleb128 0xe
 8004 02f8 03       		.uleb128 0x3
 8005 02f9 0E       		.uleb128 0xe
 8006 02fa 00       		.byte	0
 8007 02fb 00       		.byte	0
 8008 02fc 00       		.byte	0
 8009              		.section	.debug_loc,"",%progbits
 8010              	.Ldebug_loc0:
 8011              	.LLST0:
 8012 0000 00000000 		.4byte	.LVL0
 8013 0004 28000000 		.4byte	.LVL1
 8014 0008 0100     		.2byte	0x1
 8015 000a 50       		.byte	0x50
 8016 000b 28000000 		.4byte	.LVL1
 8017 000f 2C000000 		.4byte	.LVL2
 8018 0013 0400     		.2byte	0x4
 8019 0015 F3       		.byte	0xf3
 8020 0016 01       		.uleb128 0x1
 8021 0017 50       		.byte	0x50
 8022 0018 9F       		.byte	0x9f
 8023 0019 2C000000 		.4byte	.LVL2
 8024 001d 48000000 		.4byte	.LVL4
 8025 0021 0100     		.2byte	0x1
 8026 0023 50       		.byte	0x50
 8027 0024 48000000 		.4byte	.LVL4
 8028 0028 4C000000 		.4byte	.LVL5
 8029 002c 0400     		.2byte	0x4
 8030 002e F3       		.byte	0xf3
 8031 002f 01       		.uleb128 0x1
 8032 0030 50       		.byte	0x50
 8033 0031 9F       		.byte	0x9f
 8034 0032 4C000000 		.4byte	.LVL5
 8035 0036 4E000000 		.4byte	.LVL6
 8036 003a 0100     		.2byte	0x1
 8037 003c 50       		.byte	0x50
 8038 003d 4E000000 		.4byte	.LVL6
 8039 0041 52000000 		.4byte	.LVL7
 8040 0045 0400     		.2byte	0x4
 8041 0047 F3       		.byte	0xf3
 8042 0048 01       		.uleb128 0x1
 8043 0049 50       		.byte	0x50
 8044 004a 9F       		.byte	0x9f
 8045 004b 52000000 		.4byte	.LVL7
 8046 004f 54000000 		.4byte	.LVL8
 8047 0053 0100     		.2byte	0x1
 8048 0055 50       		.byte	0x50
 8049 0056 54000000 		.4byte	.LVL8
 8050 005a 56000000 		.4byte	.LVL9
 8051 005e 0400     		.2byte	0x4
 8052 0060 F3       		.byte	0xf3
 8053 0061 01       		.uleb128 0x1
 8054 0062 50       		.byte	0x50
 8055 0063 9F       		.byte	0x9f
 8056 0064 56000000 		.4byte	.LVL9
 8057 0068 58000000 		.4byte	.LVL10
ARM GAS  C:\Users\Phuong\AppData\Local\Temp\cc5dKVKJ.s 			page 177


 8058 006c 0100     		.2byte	0x1
 8059 006e 50       		.byte	0x50
 8060 006f 58000000 		.4byte	.LVL10
 8061 0073 60000000 		.4byte	.LFE57
 8062 0077 0400     		.2byte	0x4
 8063 0079 F3       		.byte	0xf3
 8064 007a 01       		.uleb128 0x1
 8065 007b 50       		.byte	0x50
 8066 007c 9F       		.byte	0x9f
 8067 007d 00000000 		.4byte	0
 8068 0081 00000000 		.4byte	0
 8069              	.LLST1:
 8070 0085 00000000 		.4byte	.LVL0
 8071 0089 36000000 		.4byte	.LVL3
 8072 008d 0100     		.2byte	0x1
 8073 008f 51       		.byte	0x51
 8074 0090 36000000 		.4byte	.LVL3
 8075 0094 4C000000 		.4byte	.LVL5
 8076 0098 0400     		.2byte	0x4
 8077 009a F3       		.byte	0xf3
 8078 009b 01       		.uleb128 0x1
 8079 009c 51       		.byte	0x51
 8080 009d 9F       		.byte	0x9f
 8081 009e 4C000000 		.4byte	.LVL5
 8082 00a2 58000000 		.4byte	.LVL10
 8083 00a6 0100     		.2byte	0x1
 8084 00a8 51       		.byte	0x51
 8085 00a9 58000000 		.4byte	.LVL10
 8086 00ad 60000000 		.4byte	.LFE57
 8087 00b1 0400     		.2byte	0x4
 8088 00b3 F3       		.byte	0xf3
 8089 00b4 01       		.uleb128 0x1
 8090 00b5 51       		.byte	0x51
 8091 00b6 9F       		.byte	0x9f
 8092 00b7 00000000 		.4byte	0
 8093 00bb 00000000 		.4byte	0
 8094              	.LLST2:
 8095 00bf 00000000 		.4byte	.LVL11
 8096 00c3 0D000000 		.4byte	.LVL15-1
 8097 00c7 0100     		.2byte	0x1
 8098 00c9 50       		.byte	0x50
 8099 00ca 0D000000 		.4byte	.LVL15-1
 8100 00ce 22000000 		.4byte	.LFE56
 8101 00d2 0400     		.2byte	0x4
 8102 00d4 F3       		.byte	0xf3
 8103 00d5 01       		.uleb128 0x1
 8104 00d6 50       		.byte	0x50
 8105 00d7 9F       		.byte	0x9f
 8106 00d8 00000000 		.4byte	0
 8107 00dc 00000000 		.4byte	0
 8108              	.LLST3:
 8109 00e0 00000000 		.4byte	.LVL11
 8110 00e4 06000000 		.4byte	.LVL12
 8111 00e8 0100     		.2byte	0x1
 8112 00ea 51       		.byte	0x51
 8113 00eb 06000000 		.4byte	.LVL12
 8114 00ef 22000000 		.4byte	.LFE56
ARM GAS  C:\Users\Phuong\AppData\Local\Temp\cc5dKVKJ.s 			page 178


 8115 00f3 0400     		.2byte	0x4
 8116 00f5 F3       		.byte	0xf3
 8117 00f6 01       		.uleb128 0x1
 8118 00f7 51       		.byte	0x51
 8119 00f8 9F       		.byte	0x9f
 8120 00f9 00000000 		.4byte	0
 8121 00fd 00000000 		.4byte	0
 8122              	.LLST4:
 8123 0101 00000000 		.4byte	.LVL11
 8124 0105 0A000000 		.4byte	.LVL14
 8125 0109 0100     		.2byte	0x1
 8126 010b 52       		.byte	0x52
 8127 010c 0A000000 		.4byte	.LVL14
 8128 0110 22000000 		.4byte	.LFE56
 8129 0114 0400     		.2byte	0x4
 8130 0116 F3       		.byte	0xf3
 8131 0117 01       		.uleb128 0x1
 8132 0118 52       		.byte	0x52
 8133 0119 9F       		.byte	0x9f
 8134 011a 00000000 		.4byte	0
 8135 011e 00000000 		.4byte	0
 8136              	.LLST5:
 8137 0122 00000000 		.4byte	.LVL11
 8138 0126 0D000000 		.4byte	.LVL15-1
 8139 012a 0100     		.2byte	0x1
 8140 012c 53       		.byte	0x53
 8141 012d 0D000000 		.4byte	.LVL15-1
 8142 0131 20000000 		.4byte	.LVL17
 8143 0135 0100     		.2byte	0x1
 8144 0137 55       		.byte	0x55
 8145 0138 20000000 		.4byte	.LVL17
 8146 013c 22000000 		.4byte	.LFE56
 8147 0140 0400     		.2byte	0x4
 8148 0142 F3       		.byte	0xf3
 8149 0143 01       		.uleb128 0x1
 8150 0144 53       		.byte	0x53
 8151 0145 9F       		.byte	0x9f
 8152 0146 00000000 		.4byte	0
 8153 014a 00000000 		.4byte	0
 8154              	.LLST6:
 8155 014e 0E000000 		.4byte	.LVL15
 8156 0152 20000000 		.4byte	.LVL16
 8157 0156 0100     		.2byte	0x1
 8158 0158 50       		.byte	0x50
 8159 0159 00000000 		.4byte	0
 8160 015d 00000000 		.4byte	0
 8161              	.LLST7:
 8162 0161 08000000 		.4byte	.LVL13
 8163 0165 0D000000 		.4byte	.LVL15-1
 8164 0169 0100     		.2byte	0x1
 8165 016b 51       		.byte	0x51
 8166 016c 00000000 		.4byte	0
 8167 0170 00000000 		.4byte	0
 8168              	.LLST8:
 8169 0174 00000000 		.4byte	.LVL18
 8170 0178 28000000 		.4byte	.LVL24
 8171 017c 0100     		.2byte	0x1
ARM GAS  C:\Users\Phuong\AppData\Local\Temp\cc5dKVKJ.s 			page 179


 8172 017e 50       		.byte	0x50
 8173 017f 28000000 		.4byte	.LVL24
 8174 0183 C8000000 		.4byte	.LVL40
 8175 0187 0100     		.2byte	0x1
 8176 0189 56       		.byte	0x56
 8177 018a C8000000 		.4byte	.LVL40
 8178 018e D8000000 		.4byte	.LFE55
 8179 0192 0400     		.2byte	0x4
 8180 0194 F3       		.byte	0xf3
 8181 0195 01       		.uleb128 0x1
 8182 0196 50       		.byte	0x50
 8183 0197 9F       		.byte	0x9f
 8184 0198 00000000 		.4byte	0
 8185 019c 00000000 		.4byte	0
 8186              	.LLST9:
 8187 01a0 00000000 		.4byte	.LVL18
 8188 01a4 26000000 		.4byte	.LVL23
 8189 01a8 0100     		.2byte	0x1
 8190 01aa 51       		.byte	0x51
 8191 01ab 26000000 		.4byte	.LVL23
 8192 01af 70000000 		.4byte	.LVL33
 8193 01b3 0100     		.2byte	0x1
 8194 01b5 57       		.byte	0x57
 8195 01b6 70000000 		.4byte	.LVL33
 8196 01ba D8000000 		.4byte	.LFE55
 8197 01be 0400     		.2byte	0x4
 8198 01c0 F3       		.byte	0xf3
 8199 01c1 01       		.uleb128 0x1
 8200 01c2 51       		.byte	0x51
 8201 01c3 9F       		.byte	0x9f
 8202 01c4 00000000 		.4byte	0
 8203 01c8 00000000 		.4byte	0
 8204              	.LLST10:
 8205 01cc 00000000 		.4byte	.LVL18
 8206 01d0 24000000 		.4byte	.LVL22
 8207 01d4 0100     		.2byte	0x1
 8208 01d6 52       		.byte	0x52
 8209 01d7 24000000 		.4byte	.LVL22
 8210 01db D8000000 		.4byte	.LFE55
 8211 01df 0400     		.2byte	0x4
 8212 01e1 F3       		.byte	0xf3
 8213 01e2 01       		.uleb128 0x1
 8214 01e3 52       		.byte	0x52
 8215 01e4 9F       		.byte	0x9f
 8216 01e5 00000000 		.4byte	0
 8217 01e9 00000000 		.4byte	0
 8218              	.LLST11:
 8219 01ed 00000000 		.4byte	.LVL18
 8220 01f1 14000000 		.4byte	.LVL19
 8221 01f5 0100     		.2byte	0x1
 8222 01f7 53       		.byte	0x53
 8223 01f8 14000000 		.4byte	.LVL19
 8224 01fc 16000000 		.4byte	.LVL20
 8225 0200 0200     		.2byte	0x2
 8226 0202 73       		.byte	0x73
 8227 0203 5C       		.sleb128 -36
 8228 0204 16000000 		.4byte	.LVL20
ARM GAS  C:\Users\Phuong\AppData\Local\Temp\cc5dKVKJ.s 			page 180


 8229 0208 D8000000 		.4byte	.LFE55
 8230 020c 0200     		.2byte	0x2
 8231 020e 91       		.byte	0x91
 8232 020f 5C       		.sleb128 -36
 8233 0210 00000000 		.4byte	0
 8234 0214 00000000 		.4byte	0
 8235              	.LLST12:
 8236 0218 00000000 		.4byte	.LVL18
 8237 021c 14000000 		.4byte	.LVL19
 8238 0220 0200     		.2byte	0x2
 8239 0222 91       		.byte	0x91
 8240 0223 00       		.sleb128 0
 8241 0224 14000000 		.4byte	.LVL19
 8242 0228 16000000 		.4byte	.LVL20
 8243 022c 0200     		.2byte	0x2
 8244 022e 73       		.byte	0x73
 8245 022f 00       		.sleb128 0
 8246 0230 16000000 		.4byte	.LVL20
 8247 0234 D8000000 		.4byte	.LFE55
 8248 0238 0200     		.2byte	0x2
 8249 023a 91       		.byte	0x91
 8250 023b 00       		.sleb128 0
 8251 023c 00000000 		.4byte	0
 8252 0240 00000000 		.4byte	0
 8253              	.LLST13:
 8254 0244 2E000000 		.4byte	.LVL26
 8255 0248 32000000 		.4byte	.LVL27
 8256 024c 0100     		.2byte	0x1
 8257 024e 50       		.byte	0x50
 8258 024f 32000000 		.4byte	.LVL27
 8259 0253 3A000000 		.4byte	.LVL29
 8260 0257 0100     		.2byte	0x1
 8261 0259 54       		.byte	0x54
 8262 025a 3A000000 		.4byte	.LVL29
 8263 025e 50000000 		.4byte	.LVL30
 8264 0262 0100     		.2byte	0x1
 8265 0264 50       		.byte	0x50
 8266 0265 50000000 		.4byte	.LVL30
 8267 0269 C8000000 		.4byte	.LVL39
 8268 026d 0100     		.2byte	0x1
 8269 026f 54       		.byte	0x54
 8270 0270 00000000 		.4byte	0
 8271 0274 00000000 		.4byte	0
 8272              	.LLST14:
 8273 0278 22000000 		.4byte	.LVL21
 8274 027c A6000000 		.4byte	.LVL37
 8275 0280 0100     		.2byte	0x1
 8276 0282 55       		.byte	0x55
 8277 0283 00000000 		.4byte	0
 8278 0287 00000000 		.4byte	0
 8279              	.LLST15:
 8280 028b 00000000 		.4byte	.LVL41
 8281 028f 16000000 		.4byte	.LVL44
 8282 0293 0100     		.2byte	0x1
 8283 0295 50       		.byte	0x50
 8284 0296 16000000 		.4byte	.LVL44
 8285 029a 96000000 		.4byte	.LVL56
ARM GAS  C:\Users\Phuong\AppData\Local\Temp\cc5dKVKJ.s 			page 181


 8286 029e 0100     		.2byte	0x1
 8287 02a0 56       		.byte	0x56
 8288 02a1 96000000 		.4byte	.LVL56
 8289 02a5 9C000000 		.4byte	.LFE53
 8290 02a9 0400     		.2byte	0x4
 8291 02ab F3       		.byte	0xf3
 8292 02ac 01       		.uleb128 0x1
 8293 02ad 50       		.byte	0x50
 8294 02ae 9F       		.byte	0x9f
 8295 02af 00000000 		.4byte	0
 8296 02b3 00000000 		.4byte	0
 8297              	.LLST16:
 8298 02b7 00000000 		.4byte	.LVL41
 8299 02bb 12000000 		.4byte	.LVL43
 8300 02bf 0100     		.2byte	0x1
 8301 02c1 51       		.byte	0x51
 8302 02c2 12000000 		.4byte	.LVL43
 8303 02c6 9C000000 		.4byte	.LFE53
 8304 02ca 0400     		.2byte	0x4
 8305 02cc F3       		.byte	0xf3
 8306 02cd 01       		.uleb128 0x1
 8307 02ce 51       		.byte	0x51
 8308 02cf 9F       		.byte	0x9f
 8309 02d0 00000000 		.4byte	0
 8310 02d4 00000000 		.4byte	0
 8311              	.LLST17:
 8312 02d8 00000000 		.4byte	.LVL41
 8313 02dc 0E000000 		.4byte	.LVL42
 8314 02e0 0100     		.2byte	0x1
 8315 02e2 52       		.byte	0x52
 8316 02e3 0E000000 		.4byte	.LVL42
 8317 02e7 9C000000 		.4byte	.LFE53
 8318 02eb 0400     		.2byte	0x4
 8319 02ed F3       		.byte	0xf3
 8320 02ee 01       		.uleb128 0x1
 8321 02ef 52       		.byte	0x52
 8322 02f0 9F       		.byte	0x9f
 8323 02f1 00000000 		.4byte	0
 8324 02f5 00000000 		.4byte	0
 8325              	.LLST18:
 8326 02f9 00000000 		.4byte	.LVL41
 8327 02fd 19000000 		.4byte	.LVL45-1
 8328 0301 0100     		.2byte	0x1
 8329 0303 53       		.byte	0x53
 8330 0304 19000000 		.4byte	.LVL45-1
 8331 0308 5E000000 		.4byte	.LVL52
 8332 030c 0100     		.2byte	0x1
 8333 030e 55       		.byte	0x55
 8334 030f 5E000000 		.4byte	.LVL52
 8335 0313 9C000000 		.4byte	.LFE53
 8336 0317 0400     		.2byte	0x4
 8337 0319 F3       		.byte	0xf3
 8338 031a 01       		.uleb128 0x1
 8339 031b 53       		.byte	0x53
 8340 031c 9F       		.byte	0x9f
 8341 031d 00000000 		.4byte	0
 8342 0321 00000000 		.4byte	0
ARM GAS  C:\Users\Phuong\AppData\Local\Temp\cc5dKVKJ.s 			page 182


 8343              	.LLST19:
 8344 0325 20000000 		.4byte	.LVL47
 8345 0329 94000000 		.4byte	.LVL55
 8346 032d 0100     		.2byte	0x1
 8347 032f 54       		.byte	0x54
 8348 0330 00000000 		.4byte	0
 8349 0334 00000000 		.4byte	0
 8350              	.LLST20:
 8351 0338 1C000000 		.4byte	.LVL46
 8352 033c 22000000 		.4byte	.LVL48
 8353 0340 0100     		.2byte	0x1
 8354 0342 50       		.byte	0x50
 8355 0343 22000000 		.4byte	.LVL48
 8356 0347 96000000 		.4byte	.LVL57
 8357 034b 0100     		.2byte	0x1
 8358 034d 57       		.byte	0x57
 8359 034e 96000000 		.4byte	.LVL57
 8360 0352 9C000000 		.4byte	.LFE53
 8361 0356 0100     		.2byte	0x1
 8362 0358 50       		.byte	0x50
 8363 0359 00000000 		.4byte	0
 8364 035d 00000000 		.4byte	0
 8365              	.LLST21:
 8366 0361 00000000 		.4byte	.LVL58
 8367 0365 1A000000 		.4byte	.LVL59
 8368 0369 0100     		.2byte	0x1
 8369 036b 50       		.byte	0x50
 8370 036c 1A000000 		.4byte	.LVL59
 8371 0370 FE000000 		.4byte	.LVL72
 8372 0374 0100     		.2byte	0x1
 8373 0376 54       		.byte	0x54
 8374 0377 FE000000 		.4byte	.LVL72
 8375 037b 00010000 		.4byte	.LVL73
 8376 037f 0100     		.2byte	0x1
 8377 0381 50       		.byte	0x50
 8378 0382 00010000 		.4byte	.LVL73
 8379 0386 02010000 		.4byte	.LVL74
 8380 038a 0100     		.2byte	0x1
 8381 038c 54       		.byte	0x54
 8382 038d 02010000 		.4byte	.LVL74
 8383 0391 14010000 		.4byte	.LFE62
 8384 0395 0400     		.2byte	0x4
 8385 0397 F3       		.byte	0xf3
 8386 0398 01       		.uleb128 0x1
 8387 0399 50       		.byte	0x50
 8388 039a 9F       		.byte	0x9f
 8389 039b 00000000 		.4byte	0
 8390 039f 00000000 		.4byte	0
 8391              	.LLST22:
 8392 03a3 00000000 		.4byte	.LVL58
 8393 03a7 1D000000 		.4byte	.LVL60-1
 8394 03ab 0100     		.2byte	0x1
 8395 03ad 51       		.byte	0x51
 8396 03ae 1D000000 		.4byte	.LVL60-1
 8397 03b2 FE000000 		.4byte	.LVL72
 8398 03b6 0100     		.2byte	0x1
 8399 03b8 55       		.byte	0x55
ARM GAS  C:\Users\Phuong\AppData\Local\Temp\cc5dKVKJ.s 			page 183


 8400 03b9 FE000000 		.4byte	.LVL72
 8401 03bd 00010000 		.4byte	.LVL73
 8402 03c1 0100     		.2byte	0x1
 8403 03c3 51       		.byte	0x51
 8404 03c4 00010000 		.4byte	.LVL73
 8405 03c8 02010000 		.4byte	.LVL75
 8406 03cc 0100     		.2byte	0x1
 8407 03ce 55       		.byte	0x55
 8408 03cf 02010000 		.4byte	.LVL75
 8409 03d3 14010000 		.4byte	.LFE62
 8410 03d7 0400     		.2byte	0x4
 8411 03d9 F3       		.byte	0xf3
 8412 03da 01       		.uleb128 0x1
 8413 03db 51       		.byte	0x51
 8414 03dc 9F       		.byte	0x9f
 8415 03dd 00000000 		.4byte	0
 8416 03e1 00000000 		.4byte	0
 8417              	.LLST23:
 8418 03e5 00000000 		.4byte	.LVL58
 8419 03e9 1D000000 		.4byte	.LVL60-1
 8420 03ed 0100     		.2byte	0x1
 8421 03ef 52       		.byte	0x52
 8422 03f0 1D000000 		.4byte	.LVL60-1
 8423 03f4 FE000000 		.4byte	.LVL72
 8424 03f8 0100     		.2byte	0x1
 8425 03fa 56       		.byte	0x56
 8426 03fb FE000000 		.4byte	.LVL72
 8427 03ff 00010000 		.4byte	.LVL73
 8428 0403 0100     		.2byte	0x1
 8429 0405 52       		.byte	0x52
 8430 0406 00010000 		.4byte	.LVL73
 8431 040a 02010000 		.4byte	.LVL76
 8432 040e 0100     		.2byte	0x1
 8433 0410 56       		.byte	0x56
 8434 0411 02010000 		.4byte	.LVL76
 8435 0415 14010000 		.4byte	.LFE62
 8436 0419 0400     		.2byte	0x4
 8437 041b F3       		.byte	0xf3
 8438 041c 01       		.uleb128 0x1
 8439 041d 52       		.byte	0x52
 8440 041e 9F       		.byte	0x9f
 8441 041f 00000000 		.4byte	0
 8442 0423 00000000 		.4byte	0
 8443              	.LLST24:
 8444 0427 FC000000 		.4byte	.LVL71
 8445 042b FE000000 		.4byte	.LVL72
 8446 042f 0100     		.2byte	0x1
 8447 0431 50       		.byte	0x50
 8448 0432 00000000 		.4byte	0
 8449 0436 00000000 		.4byte	0
 8450              	.LLST25:
 8451 043a A2000000 		.4byte	.LVL68
 8452 043e AE000000 		.4byte	.LVL69
 8453 0442 0100     		.2byte	0x1
 8454 0444 53       		.byte	0x53
 8455 0445 00000000 		.4byte	0
 8456 0449 00000000 		.4byte	0
ARM GAS  C:\Users\Phuong\AppData\Local\Temp\cc5dKVKJ.s 			page 184


 8457              	.LLST26:
 8458 044d 46000000 		.4byte	.LVL62
 8459 0451 60000000 		.4byte	.LVL66
 8460 0455 0300     		.2byte	0x3
 8461 0457 77       		.byte	0x77
 8462 0458 14       		.sleb128 20
 8463 0459 9F       		.byte	0x9f
 8464 045a 00000000 		.4byte	0
 8465 045e 00000000 		.4byte	0
 8466              	.LLST27:
 8467 0462 54000000 		.4byte	.LVL63
 8468 0466 5A000000 		.4byte	.LVL64
 8469 046a 0100     		.2byte	0x1
 8470 046c 50       		.byte	0x50
 8471 046d 00000000 		.4byte	0
 8472 0471 00000000 		.4byte	0
 8473              	.LLST28:
 8474 0475 00000000 		.4byte	.LVL77
 8475 0479 54000000 		.4byte	.LVL86
 8476 047d 0100     		.2byte	0x1
 8477 047f 50       		.byte	0x50
 8478 0480 54000000 		.4byte	.LVL86
 8479 0484 8C010000 		.4byte	.LVL127
 8480 0488 0100     		.2byte	0x1
 8481 048a 55       		.byte	0x55
 8482 048b 8C010000 		.4byte	.LVL127
 8483 048f 34020000 		.4byte	.LVL157
 8484 0493 0100     		.2byte	0x1
 8485 0495 5A       		.byte	0x5a
 8486 0496 34020000 		.4byte	.LVL157
 8487 049a 58020000 		.4byte	.LVL161
 8488 049e 0100     		.2byte	0x1
 8489 04a0 55       		.byte	0x55
 8490 04a1 58020000 		.4byte	.LVL161
 8491 04a5 9A020000 		.4byte	.LVL165
 8492 04a9 0100     		.2byte	0x1
 8493 04ab 5B       		.byte	0x5b
 8494 04ac 9A020000 		.4byte	.LVL165
 8495 04b0 04030000 		.4byte	.LVL173
 8496 04b4 0100     		.2byte	0x1
 8497 04b6 55       		.byte	0x55
 8498 04b7 04030000 		.4byte	.LVL173
 8499 04bb 18030000 		.4byte	.LVL175
 8500 04bf 0400     		.2byte	0x4
 8501 04c1 F3       		.byte	0xf3
 8502 04c2 01       		.uleb128 0x1
 8503 04c3 50       		.byte	0x50
 8504 04c4 9F       		.byte	0x9f
 8505 04c5 18030000 		.4byte	.LVL175
 8506 04c9 1E030000 		.4byte	.LVL178
 8507 04cd 0100     		.2byte	0x1
 8508 04cf 5A       		.byte	0x5a
 8509 04d0 1E030000 		.4byte	.LVL178
 8510 04d4 4E030000 		.4byte	.LVL182
 8511 04d8 0100     		.2byte	0x1
 8512 04da 55       		.byte	0x55
 8513 04db 4E030000 		.4byte	.LVL182
ARM GAS  C:\Users\Phuong\AppData\Local\Temp\cc5dKVKJ.s 			page 185


 8514 04df 50030000 		.4byte	.LVL183
 8515 04e3 0100     		.2byte	0x1
 8516 04e5 50       		.byte	0x50
 8517 04e6 50030000 		.4byte	.LVL183
 8518 04ea 5E030000 		.4byte	.LVL185
 8519 04ee 0100     		.2byte	0x1
 8520 04f0 55       		.byte	0x55
 8521 04f1 5E030000 		.4byte	.LVL185
 8522 04f5 70030000 		.4byte	.LFE58
 8523 04f9 0400     		.2byte	0x4
 8524 04fb F3       		.byte	0xf3
 8525 04fc 01       		.uleb128 0x1
 8526 04fd 50       		.byte	0x50
 8527 04fe 9F       		.byte	0x9f
 8528 04ff 00000000 		.4byte	0
 8529 0503 00000000 		.4byte	0
 8530              	.LLST29:
 8531 0507 00000000 		.4byte	.LVL77
 8532 050b 1C000000 		.4byte	.LVL81
 8533 050f 0100     		.2byte	0x1
 8534 0511 51       		.byte	0x51
 8535 0512 1C000000 		.4byte	.LVL81
 8536 0516 70030000 		.4byte	.LFE58
 8537 051a 0300     		.2byte	0x3
 8538 051c 91       		.byte	0x91
 8539 051d B47F     		.sleb128 -76
 8540 051f 00000000 		.4byte	0
 8541 0523 00000000 		.4byte	0
 8542              	.LLST30:
 8543 0527 00000000 		.4byte	.LVL77
 8544 052b 18000000 		.4byte	.LVL79
 8545 052f 0100     		.2byte	0x1
 8546 0531 52       		.byte	0x52
 8547 0532 18000000 		.4byte	.LVL79
 8548 0536 70030000 		.4byte	.LFE58
 8549 053a 0400     		.2byte	0x4
 8550 053c F3       		.byte	0xf3
 8551 053d 01       		.uleb128 0x1
 8552 053e 52       		.byte	0x52
 8553 053f 9F       		.byte	0x9f
 8554 0540 00000000 		.4byte	0
 8555 0544 00000000 		.4byte	0
 8556              	.LLST31:
 8557 0548 00000000 		.4byte	.LVL77
 8558 054c 1A000000 		.4byte	.LVL80
 8559 0550 0100     		.2byte	0x1
 8560 0552 53       		.byte	0x53
 8561 0553 1A000000 		.4byte	.LVL80
 8562 0557 48000000 		.4byte	.LVL85
 8563 055b 0400     		.2byte	0x4
 8564 055d F3       		.byte	0xf3
 8565 055e 01       		.uleb128 0x1
 8566 055f 53       		.byte	0x53
 8567 0560 9F       		.byte	0x9f
 8568 0561 48000000 		.4byte	.LVL85
 8569 0565 70030000 		.4byte	.LFE58
 8570 0569 0300     		.2byte	0x3
ARM GAS  C:\Users\Phuong\AppData\Local\Temp\cc5dKVKJ.s 			page 186


 8571 056b 91       		.byte	0x91
 8572 056c B87F     		.sleb128 -72
 8573 056e 00000000 		.4byte	0
 8574 0572 00000000 		.4byte	0
 8575              	.LLST32:
 8576 0576 16000000 		.4byte	.LVL78
 8577 057a 12010000 		.4byte	.LVL111
 8578 057e 0200     		.2byte	0x2
 8579 0580 30       		.byte	0x30
 8580 0581 9F       		.byte	0x9f
 8581 0582 12010000 		.4byte	.LVL111
 8582 0586 38010000 		.4byte	.LVL116
 8583 058a 0100     		.2byte	0x1
 8584 058c 50       		.byte	0x50
 8585 058d 38010000 		.4byte	.LVL116
 8586 0591 52010000 		.4byte	.LVL124
 8587 0595 0200     		.2byte	0x2
 8588 0597 91       		.byte	0x91
 8589 0598 44       		.sleb128 -60
 8590 0599 52010000 		.4byte	.LVL124
 8591 059d 7C010000 		.4byte	.LVL126
 8592 05a1 0200     		.2byte	0x2
 8593 05a3 30       		.byte	0x30
 8594 05a4 9F       		.byte	0x9f
 8595 05a5 90010000 		.4byte	.LVL129
 8596 05a9 4E030000 		.4byte	.LVL182
 8597 05ad 0200     		.2byte	0x2
 8598 05af 91       		.byte	0x91
 8599 05b0 44       		.sleb128 -60
 8600 05b1 4E030000 		.4byte	.LVL182
 8601 05b5 54030000 		.4byte	.LVL184
 8602 05b9 0200     		.2byte	0x2
 8603 05bb 30       		.byte	0x30
 8604 05bc 9F       		.byte	0x9f
 8605 05bd 54030000 		.4byte	.LVL184
 8606 05c1 5E030000 		.4byte	.LVL185
 8607 05c5 0200     		.2byte	0x2
 8608 05c7 91       		.byte	0x91
 8609 05c8 44       		.sleb128 -60
 8610 05c9 00000000 		.4byte	0
 8611 05cd 00000000 		.4byte	0
 8612              	.LLST33:
 8613 05d1 16000000 		.4byte	.LVL78
 8614 05d5 6C000000 		.4byte	.LVL89
 8615 05d9 0200     		.2byte	0x2
 8616 05db 30       		.byte	0x30
 8617 05dc 9F       		.byte	0x9f
 8618 05dd 6C000000 		.4byte	.LVL89
 8619 05e1 6E000000 		.4byte	.LVL90
 8620 05e5 0100     		.2byte	0x1
 8621 05e7 52       		.byte	0x52
 8622 05e8 70000000 		.4byte	.LVL91
 8623 05ec 72000000 		.4byte	.LVL92
 8624 05f0 0200     		.2byte	0x2
 8625 05f2 30       		.byte	0x30
 8626 05f3 9F       		.byte	0x9f
 8627 05f4 72000000 		.4byte	.LVL92
ARM GAS  C:\Users\Phuong\AppData\Local\Temp\cc5dKVKJ.s 			page 187


 8628 05f8 84000000 		.4byte	.LVL93
 8629 05fc 0100     		.2byte	0x1
 8630 05fe 52       		.byte	0x52
 8631 05ff 84000000 		.4byte	.LVL93
 8632 0603 86000000 		.4byte	.LVL94
 8633 0607 0100     		.2byte	0x1
 8634 0609 5A       		.byte	0x5a
 8635 060a 86000000 		.4byte	.LVL94
 8636 060e 88000000 		.4byte	.LVL95
 8637 0612 0100     		.2byte	0x1
 8638 0614 52       		.byte	0x52
 8639 0615 88000000 		.4byte	.LVL95
 8640 0619 52010000 		.4byte	.LVL124
 8641 061d 0100     		.2byte	0x1
 8642 061f 5A       		.byte	0x5a
 8643 0620 52010000 		.4byte	.LVL124
 8644 0624 60010000 		.4byte	.LVL125
 8645 0628 0200     		.2byte	0x2
 8646 062a 30       		.byte	0x30
 8647 062b 9F       		.byte	0x9f
 8648 062c 60010000 		.4byte	.LVL125
 8649 0630 7C010000 		.4byte	.LVL126
 8650 0634 0100     		.2byte	0x1
 8651 0636 5A       		.byte	0x5a
 8652 0637 90010000 		.4byte	.LVL129
 8653 063b 4A020000 		.4byte	.LVL158
 8654 063f 0200     		.2byte	0x2
 8655 0641 91       		.byte	0x91
 8656 0642 48       		.sleb128 -56
 8657 0643 4A020000 		.4byte	.LVL158
 8658 0647 CA020000 		.4byte	.LVL169
 8659 064b 0100     		.2byte	0x1
 8660 064d 5A       		.byte	0x5a
 8661 064e CA020000 		.4byte	.LVL169
 8662 0652 CC020000 		.4byte	.LVL170
 8663 0656 0100     		.2byte	0x1
 8664 0658 53       		.byte	0x53
 8665 0659 CC020000 		.4byte	.LVL170
 8666 065d D0020000 		.4byte	.LVL171
 8667 0661 0100     		.2byte	0x1
 8668 0663 5A       		.byte	0x5a
 8669 0664 D0020000 		.4byte	.LVL171
 8670 0668 D2020000 		.4byte	.LVL172
 8671 066c 0100     		.2byte	0x1
 8672 066e 53       		.byte	0x53
 8673 066f D2020000 		.4byte	.LVL172
 8674 0673 18030000 		.4byte	.LVL175
 8675 0677 0100     		.2byte	0x1
 8676 0679 5A       		.byte	0x5a
 8677 067a 18030000 		.4byte	.LVL175
 8678 067e 1E030000 		.4byte	.LVL178
 8679 0682 0200     		.2byte	0x2
 8680 0684 91       		.byte	0x91
 8681 0685 48       		.sleb128 -56
 8682 0686 4E030000 		.4byte	.LVL182
 8683 068a 54030000 		.4byte	.LVL184
 8684 068e 0200     		.2byte	0x2
ARM GAS  C:\Users\Phuong\AppData\Local\Temp\cc5dKVKJ.s 			page 188


 8685 0690 30       		.byte	0x30
 8686 0691 9F       		.byte	0x9f
 8687 0692 54030000 		.4byte	.LVL184
 8688 0696 5E030000 		.4byte	.LVL185
 8689 069a 0100     		.2byte	0x1
 8690 069c 5A       		.byte	0x5a
 8691 069d 00000000 		.4byte	0
 8692 06a1 00000000 		.4byte	0
 8693              	.LLST34:
 8694 06a5 16000000 		.4byte	.LVL78
 8695 06a9 A6000000 		.4byte	.LVL99
 8696 06ad 0200     		.2byte	0x2
 8697 06af 30       		.byte	0x30
 8698 06b0 9F       		.byte	0x9f
 8699 06b1 A6000000 		.4byte	.LVL99
 8700 06b5 D2000000 		.4byte	.LVL104
 8701 06b9 0100     		.2byte	0x1
 8702 06bb 5A       		.byte	0x5a
 8703 06bc D2000000 		.4byte	.LVL104
 8704 06c0 D8000000 		.4byte	.LVL105
 8705 06c4 0200     		.2byte	0x2
 8706 06c6 30       		.byte	0x30
 8707 06c7 9F       		.byte	0x9f
 8708 06c8 D8000000 		.4byte	.LVL105
 8709 06cc EE000000 		.4byte	.LVL106
 8710 06d0 0100     		.2byte	0x1
 8711 06d2 57       		.byte	0x57
 8712 06d3 F6000000 		.4byte	.LVL107
 8713 06d7 52010000 		.4byte	.LVL124
 8714 06db 0100     		.2byte	0x1
 8715 06dd 5A       		.byte	0x5a
 8716 06de 52010000 		.4byte	.LVL124
 8717 06e2 60010000 		.4byte	.LVL125
 8718 06e6 0200     		.2byte	0x2
 8719 06e8 30       		.byte	0x30
 8720 06e9 9F       		.byte	0x9f
 8721 06ea 60010000 		.4byte	.LVL125
 8722 06ee 7C010000 		.4byte	.LVL126
 8723 06f2 0100     		.2byte	0x1
 8724 06f4 57       		.byte	0x57
 8725 06f5 90010000 		.4byte	.LVL129
 8726 06f9 C0010000 		.4byte	.LVL135
 8727 06fd 0100     		.2byte	0x1
 8728 06ff 50       		.byte	0x50
 8729 0700 00020000 		.4byte	.LVL146
 8730 0704 5A020000 		.4byte	.LVL162
 8731 0708 0100     		.2byte	0x1
 8732 070a 50       		.byte	0x50
 8733 070b 5A020000 		.4byte	.LVL162
 8734 070f 18030000 		.4byte	.LVL175
 8735 0713 0100     		.2byte	0x1
 8736 0715 57       		.byte	0x57
 8737 0716 1C030000 		.4byte	.LVL177
 8738 071a 1E030000 		.4byte	.LVL178
 8739 071e 0100     		.2byte	0x1
 8740 0720 50       		.byte	0x50
 8741 0721 4E030000 		.4byte	.LVL182
ARM GAS  C:\Users\Phuong\AppData\Local\Temp\cc5dKVKJ.s 			page 189


 8742 0725 54030000 		.4byte	.LVL184
 8743 0729 0200     		.2byte	0x2
 8744 072b 30       		.byte	0x30
 8745 072c 9F       		.byte	0x9f
 8746 072d 54030000 		.4byte	.LVL184
 8747 0731 5E030000 		.4byte	.LVL185
 8748 0735 0100     		.2byte	0x1
 8749 0737 57       		.byte	0x57
 8750 0738 00000000 		.4byte	0
 8751 073c 00000000 		.4byte	0
 8752              	.LLST35:
 8753 0740 16000000 		.4byte	.LVL78
 8754 0744 90010000 		.4byte	.LVL129
 8755 0748 0200     		.2byte	0x2
 8756 074a 30       		.byte	0x30
 8757 074b 9F       		.byte	0x9f
 8758 074c 90010000 		.4byte	.LVL129
 8759 0750 20020000 		.4byte	.LVL151
 8760 0754 0100     		.2byte	0x1
 8761 0756 5B       		.byte	0x5b
 8762 0757 20020000 		.4byte	.LVL151
 8763 075b 26020000 		.4byte	.LVL154
 8764 075f 0100     		.2byte	0x1
 8765 0761 50       		.byte	0x50
 8766 0762 26020000 		.4byte	.LVL154
 8767 0766 56020000 		.4byte	.LVL160
 8768 076a 0100     		.2byte	0x1
 8769 076c 5B       		.byte	0x5b
 8770 076d 18030000 		.4byte	.LVL175
 8771 0771 1E030000 		.4byte	.LVL178
 8772 0775 0100     		.2byte	0x1
 8773 0777 5B       		.byte	0x5b
 8774 0778 4E030000 		.4byte	.LVL182
 8775 077c 54030000 		.4byte	.LVL184
 8776 0780 0200     		.2byte	0x2
 8777 0782 30       		.byte	0x30
 8778 0783 9F       		.byte	0x9f
 8779 0784 00000000 		.4byte	0
 8780 0788 00000000 		.4byte	0
 8781              	.LLST36:
 8782 078c 16000000 		.4byte	.LVL78
 8783 0790 90010000 		.4byte	.LVL129
 8784 0794 0200     		.2byte	0x2
 8785 0796 30       		.byte	0x30
 8786 0797 9F       		.byte	0x9f
 8787 0798 90010000 		.4byte	.LVL129
 8788 079c 18020000 		.4byte	.LVL148
 8789 07a0 0100     		.2byte	0x1
 8790 07a2 58       		.byte	0x58
 8791 07a3 18020000 		.4byte	.LVL148
 8792 07a7 1A020000 		.4byte	.LVL149
 8793 07ab 0100     		.2byte	0x1
 8794 07ad 53       		.byte	0x53
 8795 07ae 1A020000 		.4byte	.LVL149
 8796 07b2 1E020000 		.4byte	.LVL150
 8797 07b6 0100     		.2byte	0x1
 8798 07b8 58       		.byte	0x58
ARM GAS  C:\Users\Phuong\AppData\Local\Temp\cc5dKVKJ.s 			page 190


 8799 07b9 1E020000 		.4byte	.LVL150
 8800 07bd 20020000 		.4byte	.LVL151
 8801 07c1 0100     		.2byte	0x1
 8802 07c3 53       		.byte	0x53
 8803 07c4 20020000 		.4byte	.LVL151
 8804 07c8 42030000 		.4byte	.LVL180
 8805 07cc 0100     		.2byte	0x1
 8806 07ce 58       		.byte	0x58
 8807 07cf 42030000 		.4byte	.LVL180
 8808 07d3 47030000 		.4byte	.LVL181-1
 8809 07d7 0100     		.2byte	0x1
 8810 07d9 53       		.byte	0x53
 8811 07da 47030000 		.4byte	.LVL181-1
 8812 07de 4E030000 		.4byte	.LVL182
 8813 07e2 0100     		.2byte	0x1
 8814 07e4 58       		.byte	0x58
 8815 07e5 4E030000 		.4byte	.LVL182
 8816 07e9 54030000 		.4byte	.LVL184
 8817 07ed 0200     		.2byte	0x2
 8818 07ef 30       		.byte	0x30
 8819 07f0 9F       		.byte	0x9f
 8820 07f1 54030000 		.4byte	.LVL184
 8821 07f5 5E030000 		.4byte	.LVL185
 8822 07f9 0100     		.2byte	0x1
 8823 07fb 58       		.byte	0x58
 8824 07fc 00000000 		.4byte	0
 8825 0800 00000000 		.4byte	0
 8826              	.LLST37:
 8827 0804 16000000 		.4byte	.LVL78
 8828 0808 BE000000 		.4byte	.LVL100
 8829 080c 0200     		.2byte	0x2
 8830 080e 30       		.byte	0x30
 8831 080f 9F       		.byte	0x9f
 8832 0810 BE000000 		.4byte	.LVL100
 8833 0814 C4000000 		.4byte	.LVL101
 8834 0818 0100     		.2byte	0x1
 8835 081a 57       		.byte	0x57
 8836 081b C4000000 		.4byte	.LVL101
 8837 081f D2000000 		.4byte	.LVL104
 8838 0823 0100     		.2byte	0x1
 8839 0825 54       		.byte	0x54
 8840 0826 D2000000 		.4byte	.LVL104
 8841 082a D8000000 		.4byte	.LVL105
 8842 082e 0200     		.2byte	0x2
 8843 0830 30       		.byte	0x30
 8844 0831 9F       		.byte	0x9f
 8845 0832 D8000000 		.4byte	.LVL105
 8846 0836 06010000 		.4byte	.LVL108
 8847 083a 0200     		.2byte	0x2
 8848 083c 7C       		.byte	0x7c
 8849 083d 00       		.sleb128 0
 8850 083e 06010000 		.4byte	.LVL108
 8851 0842 0A010000 		.4byte	.LVL109
 8852 0846 0200     		.2byte	0x2
 8853 0848 71       		.byte	0x71
 8854 0849 00       		.sleb128 0
 8855 084a 0A010000 		.4byte	.LVL109
ARM GAS  C:\Users\Phuong\AppData\Local\Temp\cc5dKVKJ.s 			page 191


 8856 084e 0F010000 		.4byte	.LVL110-1
 8857 0852 0200     		.2byte	0x2
 8858 0854 7C       		.byte	0x7c
 8859 0855 00       		.sleb128 0
 8860 0856 0F010000 		.4byte	.LVL110-1
 8861 085a 1C010000 		.4byte	.LVL112
 8862 085e 0200     		.2byte	0x2
 8863 0860 91       		.byte	0x91
 8864 0861 40       		.sleb128 -64
 8865 0862 1C010000 		.4byte	.LVL112
 8866 0866 28010000 		.4byte	.LVL114
 8867 086a 0200     		.2byte	0x2
 8868 086c 71       		.byte	0x71
 8869 086d 00       		.sleb128 0
 8870 086e 28010000 		.4byte	.LVL114
 8871 0872 2C010000 		.4byte	.LVL115
 8872 0876 0200     		.2byte	0x2
 8873 0878 7C       		.byte	0x7c
 8874 0879 00       		.sleb128 0
 8875 087a 2C010000 		.4byte	.LVL115
 8876 087e 4E010000 		.4byte	.LVL122
 8877 0882 0200     		.2byte	0x2
 8878 0884 91       		.byte	0x91
 8879 0885 40       		.sleb128 -64
 8880 0886 4E010000 		.4byte	.LVL122
 8881 088a 52010000 		.4byte	.LVL124
 8882 088e 0100     		.2byte	0x1
 8883 0890 54       		.byte	0x54
 8884 0891 52010000 		.4byte	.LVL124
 8885 0895 60010000 		.4byte	.LVL125
 8886 0899 0200     		.2byte	0x2
 8887 089b 30       		.byte	0x30
 8888 089c 9F       		.byte	0x9f
 8889 089d 60010000 		.4byte	.LVL125
 8890 08a1 7C010000 		.4byte	.LVL126
 8891 08a5 0200     		.2byte	0x2
 8892 08a7 7C       		.byte	0x7c
 8893 08a8 00       		.sleb128 0
 8894 08a9 90010000 		.4byte	.LVL129
 8895 08ad 2E020000 		.4byte	.LVL155
 8896 08b1 0100     		.2byte	0x1
 8897 08b3 56       		.byte	0x56
 8898 08b4 18030000 		.4byte	.LVL175
 8899 08b8 1E030000 		.4byte	.LVL178
 8900 08bc 0100     		.2byte	0x1
 8901 08be 56       		.byte	0x56
 8902 08bf 4E030000 		.4byte	.LVL182
 8903 08c3 54030000 		.4byte	.LVL184
 8904 08c7 0200     		.2byte	0x2
 8905 08c9 30       		.byte	0x30
 8906 08ca 9F       		.byte	0x9f
 8907 08cb 00000000 		.4byte	0
 8908 08cf 00000000 		.4byte	0
 8909              	.LLST38:
 8910 08d3 62000000 		.4byte	.LVL88
 8911 08d7 44010000 		.4byte	.LVL119
 8912 08db 0100     		.2byte	0x1
ARM GAS  C:\Users\Phuong\AppData\Local\Temp\cc5dKVKJ.s 			page 192


 8913 08dd 56       		.byte	0x56
 8914 08de 46010000 		.4byte	.LVL120
 8915 08e2 8E010000 		.4byte	.LVL128
 8916 08e6 0100     		.2byte	0x1
 8917 08e8 56       		.byte	0x56
 8918 08e9 90010000 		.4byte	.LVL129
 8919 08ed DE010000 		.4byte	.LVL141
 8920 08f1 0100     		.2byte	0x1
 8921 08f3 55       		.byte	0x55
 8922 08f4 E0010000 		.4byte	.LVL142
 8923 08f8 E6010000 		.4byte	.LVL143
 8924 08fc 0100     		.2byte	0x1
 8925 08fe 55       		.byte	0x55
 8926 08ff EE010000 		.4byte	.LVL145
 8927 0903 30020000 		.4byte	.LVL156
 8928 0907 0100     		.2byte	0x1
 8929 0909 55       		.byte	0x55
 8930 090a 18030000 		.4byte	.LVL175
 8931 090e 1A030000 		.4byte	.LVL176
 8932 0912 0100     		.2byte	0x1
 8933 0914 55       		.byte	0x55
 8934 0915 1C030000 		.4byte	.LVL177
 8935 0919 1E030000 		.4byte	.LVL178
 8936 091d 0100     		.2byte	0x1
 8937 091f 55       		.byte	0x55
 8938 0920 00000000 		.4byte	0
 8939 0924 00000000 		.4byte	0
 8940              	.LLST39:
 8941 0928 22000000 		.4byte	.LVL82
 8942 092c BE000000 		.4byte	.LVL100
 8943 0930 0200     		.2byte	0x2
 8944 0932 30       		.byte	0x30
 8945 0933 9F       		.byte	0x9f
 8946 0934 BE000000 		.4byte	.LVL100
 8947 0938 C4000000 		.4byte	.LVL101
 8948 093c 0100     		.2byte	0x1
 8949 093e 57       		.byte	0x57
 8950 093f C4000000 		.4byte	.LVL101
 8951 0943 D2000000 		.4byte	.LVL104
 8952 0947 0100     		.2byte	0x1
 8953 0949 54       		.byte	0x54
 8954 094a D2000000 		.4byte	.LVL104
 8955 094e D8000000 		.4byte	.LVL105
 8956 0952 0200     		.2byte	0x2
 8957 0954 30       		.byte	0x30
 8958 0955 9F       		.byte	0x9f
 8959 0956 D8000000 		.4byte	.LVL105
 8960 095a 06010000 		.4byte	.LVL108
 8961 095e 0200     		.2byte	0x2
 8962 0960 7C       		.byte	0x7c
 8963 0961 00       		.sleb128 0
 8964 0962 06010000 		.4byte	.LVL108
 8965 0966 0A010000 		.4byte	.LVL109
 8966 096a 0200     		.2byte	0x2
 8967 096c 71       		.byte	0x71
 8968 096d 00       		.sleb128 0
 8969 096e 0A010000 		.4byte	.LVL109
ARM GAS  C:\Users\Phuong\AppData\Local\Temp\cc5dKVKJ.s 			page 193


 8970 0972 0F010000 		.4byte	.LVL110-1
 8971 0976 0200     		.2byte	0x2
 8972 0978 7C       		.byte	0x7c
 8973 0979 00       		.sleb128 0
 8974 097a 0F010000 		.4byte	.LVL110-1
 8975 097e 1C010000 		.4byte	.LVL112
 8976 0982 0200     		.2byte	0x2
 8977 0984 91       		.byte	0x91
 8978 0985 40       		.sleb128 -64
 8979 0986 1C010000 		.4byte	.LVL112
 8980 098a 28010000 		.4byte	.LVL114
 8981 098e 0200     		.2byte	0x2
 8982 0990 71       		.byte	0x71
 8983 0991 00       		.sleb128 0
 8984 0992 28010000 		.4byte	.LVL114
 8985 0996 2C010000 		.4byte	.LVL115
 8986 099a 0200     		.2byte	0x2
 8987 099c 7C       		.byte	0x7c
 8988 099d 00       		.sleb128 0
 8989 099e 2C010000 		.4byte	.LVL115
 8990 09a2 52010000 		.4byte	.LVL124
 8991 09a6 0200     		.2byte	0x2
 8992 09a8 91       		.byte	0x91
 8993 09a9 40       		.sleb128 -64
 8994 09aa 52010000 		.4byte	.LVL124
 8995 09ae 60010000 		.4byte	.LVL125
 8996 09b2 0200     		.2byte	0x2
 8997 09b4 30       		.byte	0x30
 8998 09b5 9F       		.byte	0x9f
 8999 09b6 60010000 		.4byte	.LVL125
 9000 09ba 7C010000 		.4byte	.LVL126
 9001 09be 0200     		.2byte	0x2
 9002 09c0 7C       		.byte	0x7c
 9003 09c1 00       		.sleb128 0
 9004 09c2 90010000 		.4byte	.LVL129
 9005 09c6 B6010000 		.4byte	.LVL133
 9006 09ca 0200     		.2byte	0x2
 9007 09cc 91       		.byte	0x91
 9008 09cd 40       		.sleb128 -64
 9009 09ce B6010000 		.4byte	.LVL133
 9010 09d2 BC010000 		.4byte	.LVL134
 9011 09d6 0200     		.2byte	0x2
 9012 09d8 72       		.byte	0x72
 9013 09d9 00       		.sleb128 0
 9014 09da BC010000 		.4byte	.LVL134
 9015 09de C3010000 		.4byte	.LVL136-1
 9016 09e2 0200     		.2byte	0x2
 9017 09e4 7C       		.byte	0x7c
 9018 09e5 00       		.sleb128 0
 9019 09e6 C3010000 		.4byte	.LVL136-1
 9020 09ea 0A020000 		.4byte	.LVL147
 9021 09ee 0200     		.2byte	0x2
 9022 09f0 91       		.byte	0x91
 9023 09f1 40       		.sleb128 -64
 9024 09f2 0A020000 		.4byte	.LVL147
 9025 09f6 26020000 		.4byte	.LVL154
 9026 09fa 0200     		.2byte	0x2
ARM GAS  C:\Users\Phuong\AppData\Local\Temp\cc5dKVKJ.s 			page 194


 9027 09fc 72       		.byte	0x72
 9028 09fd 00       		.sleb128 0
 9029 09fe 26020000 		.4byte	.LVL154
 9030 0a02 9E020000 		.4byte	.LVL166
 9031 0a06 0200     		.2byte	0x2
 9032 0a08 91       		.byte	0x91
 9033 0a09 40       		.sleb128 -64
 9034 0a0a 9E020000 		.4byte	.LVL166
 9035 0a0e A4020000 		.4byte	.LVL167
 9036 0a12 0200     		.2byte	0x2
 9037 0a14 72       		.byte	0x72
 9038 0a15 00       		.sleb128 0
 9039 0a16 A4020000 		.4byte	.LVL167
 9040 0a1a B7020000 		.4byte	.LVL168-1
 9041 0a1e 0200     		.2byte	0x2
 9042 0a20 7C       		.byte	0x7c
 9043 0a21 00       		.sleb128 0
 9044 0a22 B7020000 		.4byte	.LVL168-1
 9045 0a26 4E030000 		.4byte	.LVL182
 9046 0a2a 0200     		.2byte	0x2
 9047 0a2c 91       		.byte	0x91
 9048 0a2d 40       		.sleb128 -64
 9049 0a2e 4E030000 		.4byte	.LVL182
 9050 0a32 54030000 		.4byte	.LVL184
 9051 0a36 0200     		.2byte	0x2
 9052 0a38 30       		.byte	0x30
 9053 0a39 9F       		.byte	0x9f
 9054 0a3a 54030000 		.4byte	.LVL184
 9055 0a3e 5E030000 		.4byte	.LVL185
 9056 0a42 0200     		.2byte	0x2
 9057 0a44 91       		.byte	0x91
 9058 0a45 40       		.sleb128 -64
 9059 0a46 00000000 		.4byte	0
 9060 0a4a 00000000 		.4byte	0
 9061              	.LLST40:
 9062 0a4e 22000000 		.4byte	.LVL82
 9063 0a52 24010000 		.4byte	.LVL113
 9064 0a56 0200     		.2byte	0x2
 9065 0a58 30       		.byte	0x30
 9066 0a59 9F       		.byte	0x9f
 9067 0a5a 24010000 		.4byte	.LVL113
 9068 0a5e 52010000 		.4byte	.LVL124
 9069 0a62 0200     		.2byte	0x2
 9070 0a64 91       		.byte	0x91
 9071 0a65 4C       		.sleb128 -52
 9072 0a66 52010000 		.4byte	.LVL124
 9073 0a6a 7C010000 		.4byte	.LVL126
 9074 0a6e 0200     		.2byte	0x2
 9075 0a70 30       		.byte	0x30
 9076 0a71 9F       		.byte	0x9f
 9077 0a72 90010000 		.4byte	.LVL129
 9078 0a76 1E030000 		.4byte	.LVL178
 9079 0a7a 0200     		.2byte	0x2
 9080 0a7c 91       		.byte	0x91
 9081 0a7d 4C       		.sleb128 -52
 9082 0a7e 4E030000 		.4byte	.LVL182
 9083 0a82 54030000 		.4byte	.LVL184
ARM GAS  C:\Users\Phuong\AppData\Local\Temp\cc5dKVKJ.s 			page 195


 9084 0a86 0200     		.2byte	0x2
 9085 0a88 30       		.byte	0x30
 9086 0a89 9F       		.byte	0x9f
 9087 0a8a 54030000 		.4byte	.LVL184
 9088 0a8e 5E030000 		.4byte	.LVL185
 9089 0a92 0200     		.2byte	0x2
 9090 0a94 91       		.byte	0x91
 9091 0a95 4C       		.sleb128 -52
 9092 0a96 00000000 		.4byte	0
 9093 0a9a 00000000 		.4byte	0
 9094              	.LLST41:
 9095 0a9e 58000000 		.4byte	.LVL87
 9096 0aa2 9A000000 		.4byte	.LVL98
 9097 0aa6 0100     		.2byte	0x1
 9098 0aa8 50       		.byte	0x50
 9099 0aa9 52010000 		.4byte	.LVL124
 9100 0aad 60010000 		.4byte	.LVL125
 9101 0ab1 0100     		.2byte	0x1
 9102 0ab3 50       		.byte	0x50
 9103 0ab4 00000000 		.4byte	0
 9104 0ab8 00000000 		.4byte	0
 9105              	.LLST42:
 9106 0abc 38000000 		.4byte	.LVL83
 9107 0ac0 3E000000 		.4byte	.LVL84
 9108 0ac4 0100     		.2byte	0x1
 9109 0ac6 51       		.byte	0x51
 9110 0ac7 3E000000 		.4byte	.LVL84
 9111 0acb 70030000 		.4byte	.LFE58
 9112 0acf 0300     		.2byte	0x3
 9113 0ad1 91       		.byte	0x91
 9114 0ad2 B07F     		.sleb128 -80
 9115 0ad4 00000000 		.4byte	0
 9116 0ad8 00000000 		.4byte	0
 9117              	.LLST43:
 9118 0adc 94000000 		.4byte	.LVL97
 9119 0ae0 CC000000 		.4byte	.LVL102
 9120 0ae4 0100     		.2byte	0x1
 9121 0ae6 52       		.byte	0x52
 9122 0ae7 CE000000 		.4byte	.LVL103
 9123 0aeb 0F010000 		.4byte	.LVL110-1
 9124 0aef 0100     		.2byte	0x1
 9125 0af1 52       		.byte	0x52
 9126 0af2 60010000 		.4byte	.LVL125
 9127 0af6 7C010000 		.4byte	.LVL126
 9128 0afa 0100     		.2byte	0x1
 9129 0afc 52       		.byte	0x52
 9130 0afd 00000000 		.4byte	0
 9131 0b01 00000000 		.4byte	0
 9132              	.LLST44:
 9133 0b05 88000000 		.4byte	.LVL95
 9134 0b09 8E000000 		.4byte	.LVL96
 9135 0b0d 0100     		.2byte	0x1
 9136 0b0f 52       		.byte	0x52
 9137 0b10 00000000 		.4byte	0
 9138 0b14 00000000 		.4byte	0
 9139              	.LLST45:
 9140 0b18 F6000000 		.4byte	.LVL107
ARM GAS  C:\Users\Phuong\AppData\Local\Temp\cc5dKVKJ.s 			page 196


 9141 0b1c 4C010000 		.4byte	.LVL121
 9142 0b20 0100     		.2byte	0x1
 9143 0b22 54       		.byte	0x54
 9144 0b23 4C010000 		.4byte	.LVL121
 9145 0b27 50010000 		.4byte	.LVL123
 9146 0b2b 0100     		.2byte	0x1
 9147 0b2d 57       		.byte	0x57
 9148 0b2e 00000000 		.4byte	0
 9149 0b32 00000000 		.4byte	0
 9150              	.LLST46:
 9151 0b36 C6010000 		.4byte	.LVL137
 9152 0b3a D2010000 		.4byte	.LVL138
 9153 0b3e 0100     		.2byte	0x1
 9154 0b40 50       		.byte	0x50
 9155 0b41 D2010000 		.4byte	.LVL138
 9156 0b45 26020000 		.4byte	.LVL154
 9157 0b49 0100     		.2byte	0x1
 9158 0b4b 57       		.byte	0x57
 9159 0b4c 18030000 		.4byte	.LVL175
 9160 0b50 1C030000 		.4byte	.LVL177
 9161 0b54 0100     		.2byte	0x1
 9162 0b56 50       		.byte	0x50
 9163 0b57 1C030000 		.4byte	.LVL177
 9164 0b5b 1E030000 		.4byte	.LVL178
 9165 0b5f 0100     		.2byte	0x1
 9166 0b61 57       		.byte	0x57
 9167 0b62 00000000 		.4byte	0
 9168 0b66 00000000 		.4byte	0
 9169              	.LLST47:
 9170 0b6a 96010000 		.4byte	.LVL130
 9171 0b6e A4010000 		.4byte	.LVL132
 9172 0b72 0100     		.2byte	0x1
 9173 0b74 53       		.byte	0x53
 9174 0b75 A4010000 		.4byte	.LVL132
 9175 0b79 24020000 		.4byte	.LVL153
 9176 0b7d 0600     		.2byte	0x6
 9177 0b7f 79       		.byte	0x79
 9178 0b80 00       		.sleb128 0
 9179 0b81 76       		.byte	0x76
 9180 0b82 00       		.sleb128 0
 9181 0b83 1C       		.byte	0x1c
 9182 0b84 9F       		.byte	0x9f
 9183 0b85 18030000 		.4byte	.LVL175
 9184 0b89 1E030000 		.4byte	.LVL178
 9185 0b8d 0600     		.2byte	0x6
 9186 0b8f 79       		.byte	0x79
 9187 0b90 00       		.sleb128 0
 9188 0b91 76       		.byte	0x76
 9189 0b92 00       		.sleb128 0
 9190 0b93 1C       		.byte	0x1c
 9191 0b94 9F       		.byte	0x9f
 9192 0b95 00000000 		.4byte	0
 9193 0b99 00000000 		.4byte	0
 9194              	.LLST48:
 9195 0b9d 96010000 		.4byte	.LVL130
 9196 0ba1 26020000 		.4byte	.LVL154
 9197 0ba5 0300     		.2byte	0x3
ARM GAS  C:\Users\Phuong\AppData\Local\Temp\cc5dKVKJ.s 			page 197


 9198 0ba7 91       		.byte	0x91
 9199 0ba8 B07F     		.sleb128 -80
 9200 0baa 18030000 		.4byte	.LVL175
 9201 0bae 1E030000 		.4byte	.LVL178
 9202 0bb2 0300     		.2byte	0x3
 9203 0bb4 91       		.byte	0x91
 9204 0bb5 B07F     		.sleb128 -80
 9205 0bb7 00000000 		.4byte	0
 9206 0bbb 00000000 		.4byte	0
 9207              	.LLST49:
 9208 0bbf A2010000 		.4byte	.LVL131
 9209 0bc3 22020000 		.4byte	.LVL152
 9210 0bc7 0100     		.2byte	0x1
 9211 0bc9 54       		.byte	0x54
 9212 0bca 18030000 		.4byte	.LVL175
 9213 0bce 1E030000 		.4byte	.LVL178
 9214 0bd2 0100     		.2byte	0x1
 9215 0bd4 54       		.byte	0x54
 9216 0bd5 00000000 		.4byte	0
 9217 0bd9 00000000 		.4byte	0
 9218              	.LLST50:
 9219 0bdd 54020000 		.4byte	.LVL159
 9220 0be1 9A020000 		.4byte	.LVL165
 9221 0be5 0100     		.2byte	0x1
 9222 0be7 54       		.byte	0x54
 9223 0be8 00000000 		.4byte	0
 9224 0bec 00000000 		.4byte	0
 9225              	.LLST51:
 9226 0bf0 00000000 		.4byte	.LVL186
 9227 0bf4 2C000000 		.4byte	.LVL189
 9228 0bf8 0100     		.2byte	0x1
 9229 0bfa 50       		.byte	0x50
 9230 0bfb 2C000000 		.4byte	.LVL189
 9231 0bff 30000000 		.4byte	.LVL190
 9232 0c03 0100     		.2byte	0x1
 9233 0c05 54       		.byte	0x54
 9234 0c06 30000000 		.4byte	.LVL190
 9235 0c0a 4A000000 		.4byte	.LVL196
 9236 0c0e 0100     		.2byte	0x1
 9237 0c10 50       		.byte	0x50
 9238 0c11 4A000000 		.4byte	.LVL196
 9239 0c15 D2000000 		.4byte	.LVL210
 9240 0c19 0100     		.2byte	0x1
 9241 0c1b 54       		.byte	0x54
 9242 0c1c D2000000 		.4byte	.LVL210
 9243 0c20 D8000000 		.4byte	.LFE59
 9244 0c24 0400     		.2byte	0x4
 9245 0c26 F3       		.byte	0xf3
 9246 0c27 01       		.uleb128 0x1
 9247 0c28 50       		.byte	0x50
 9248 0c29 9F       		.byte	0x9f
 9249 0c2a 00000000 		.4byte	0
 9250 0c2e 00000000 		.4byte	0
 9251              	.LLST52:
 9252 0c32 00000000 		.4byte	.LVL186
 9253 0c36 1A000000 		.4byte	.LVL188
 9254 0c3a 0100     		.2byte	0x1
ARM GAS  C:\Users\Phuong\AppData\Local\Temp\cc5dKVKJ.s 			page 198


 9255 0c3c 51       		.byte	0x51
 9256 0c3d 1A000000 		.4byte	.LVL188
 9257 0c41 30000000 		.4byte	.LVL190
 9258 0c45 0400     		.2byte	0x4
 9259 0c47 F3       		.byte	0xf3
 9260 0c48 01       		.uleb128 0x1
 9261 0c49 51       		.byte	0x51
 9262 0c4a 9F       		.byte	0x9f
 9263 0c4b 30000000 		.4byte	.LVL190
 9264 0c4f 40000000 		.4byte	.LVL192
 9265 0c53 0100     		.2byte	0x1
 9266 0c55 51       		.byte	0x51
 9267 0c56 40000000 		.4byte	.LVL192
 9268 0c5a 42000000 		.4byte	.LVL193
 9269 0c5e 0400     		.2byte	0x4
 9270 0c60 F3       		.byte	0xf3
 9271 0c61 01       		.uleb128 0x1
 9272 0c62 51       		.byte	0x51
 9273 0c63 9F       		.byte	0x9f
 9274 0c64 42000000 		.4byte	.LVL193
 9275 0c68 44000000 		.4byte	.LVL194
 9276 0c6c 0100     		.2byte	0x1
 9277 0c6e 51       		.byte	0x51
 9278 0c6f 44000000 		.4byte	.LVL194
 9279 0c73 D8000000 		.4byte	.LFE59
 9280 0c77 0400     		.2byte	0x4
 9281 0c79 F3       		.byte	0xf3
 9282 0c7a 01       		.uleb128 0x1
 9283 0c7b 51       		.byte	0x51
 9284 0c7c 9F       		.byte	0x9f
 9285 0c7d 00000000 		.4byte	0
 9286 0c81 00000000 		.4byte	0
 9287              	.LLST53:
 9288 0c85 4E000000 		.4byte	.LVL197
 9289 0c89 66000000 		.4byte	.LVL198
 9290 0c8d 0100     		.2byte	0x1
 9291 0c8f 50       		.byte	0x50
 9292 0c90 66000000 		.4byte	.LVL198
 9293 0c94 68000000 		.4byte	.LVL199
 9294 0c98 0300     		.2byte	0x3
 9295 0c9a 70       		.byte	0x70
 9296 0c9b 01       		.sleb128 1
 9297 0c9c 9F       		.byte	0x9f
 9298 0c9d 68000000 		.4byte	.LVL199
 9299 0ca1 72000000 		.4byte	.LVL200
 9300 0ca5 0100     		.2byte	0x1
 9301 0ca7 50       		.byte	0x50
 9302 0ca8 72000000 		.4byte	.LVL200
 9303 0cac 75000000 		.4byte	.LVL201-1
 9304 0cb0 0100     		.2byte	0x1
 9305 0cb2 51       		.byte	0x51
 9306 0cb3 00000000 		.4byte	0
 9307 0cb7 00000000 		.4byte	0
 9308              	.LLST54:
 9309 0cbb 76000000 		.4byte	.LVL201
 9310 0cbf 8E000000 		.4byte	.LVL202
 9311 0cc3 0100     		.2byte	0x1
ARM GAS  C:\Users\Phuong\AppData\Local\Temp\cc5dKVKJ.s 			page 199


 9312 0cc5 50       		.byte	0x50
 9313 0cc6 8E000000 		.4byte	.LVL202
 9314 0cca 90000000 		.4byte	.LVL203
 9315 0cce 0300     		.2byte	0x3
 9316 0cd0 70       		.byte	0x70
 9317 0cd1 01       		.sleb128 1
 9318 0cd2 9F       		.byte	0x9f
 9319 0cd3 90000000 		.4byte	.LVL203
 9320 0cd7 C2000000 		.4byte	.LVL207
 9321 0cdb 0100     		.2byte	0x1
 9322 0cdd 50       		.byte	0x50
 9323 0cde 00000000 		.4byte	0
 9324 0ce2 00000000 		.4byte	0
 9325              	.LLST55:
 9326 0ce6 08000000 		.4byte	.LVL187
 9327 0cea 3A000000 		.4byte	.LVL191
 9328 0cee 0200     		.2byte	0x2
 9329 0cf0 30       		.byte	0x30
 9330 0cf1 9F       		.byte	0x9f
 9331 0cf2 3A000000 		.4byte	.LVL191
 9332 0cf6 D0000000 		.4byte	.LVL209
 9333 0cfa 0100     		.2byte	0x1
 9334 0cfc 57       		.byte	0x57
 9335 0cfd 00000000 		.4byte	0
 9336 0d01 00000000 		.4byte	0
 9337              	.LLST56:
 9338 0d05 08000000 		.4byte	.LVL187
 9339 0d09 44000000 		.4byte	.LVL194
 9340 0d0d 0200     		.2byte	0x2
 9341 0d0f 30       		.byte	0x30
 9342 0d10 9F       		.byte	0x9f
 9343 0d11 44000000 		.4byte	.LVL194
 9344 0d15 46000000 		.4byte	.LVL195
 9345 0d19 0100     		.2byte	0x1
 9346 0d1b 51       		.byte	0x51
 9347 0d1c 00000000 		.4byte	0
 9348 0d20 00000000 		.4byte	0
 9349              	.LLST57:
 9350 0d24 9A000000 		.4byte	.LVL204
 9351 0d28 A4000000 		.4byte	.LVL206
 9352 0d2c 0100     		.2byte	0x1
 9353 0d2e 52       		.byte	0x52
 9354 0d2f 00000000 		.4byte	0
 9355 0d33 00000000 		.4byte	0
 9356              	.LLST58:
 9357 0d37 00000000 		.4byte	.LVL211
 9358 0d3b 1A000000 		.4byte	.LVL214
 9359 0d3f 0100     		.2byte	0x1
 9360 0d41 50       		.byte	0x50
 9361 0d42 1A000000 		.4byte	.LVL214
 9362 0d46 56000000 		.4byte	.LVL219
 9363 0d4a 0100     		.2byte	0x1
 9364 0d4c 55       		.byte	0x55
 9365 0d4d 56000000 		.4byte	.LVL219
 9366 0d51 58000000 		.4byte	.LFE54
 9367 0d55 0400     		.2byte	0x4
 9368 0d57 F3       		.byte	0xf3
ARM GAS  C:\Users\Phuong\AppData\Local\Temp\cc5dKVKJ.s 			page 200


 9369 0d58 01       		.uleb128 0x1
 9370 0d59 50       		.byte	0x50
 9371 0d5a 9F       		.byte	0x9f
 9372 0d5b 00000000 		.4byte	0
 9373 0d5f 00000000 		.4byte	0
 9374              	.LLST59:
 9375 0d63 0C000000 		.4byte	.LVL212
 9376 0d67 28000000 		.4byte	.LVL216
 9377 0d6b 0100     		.2byte	0x1
 9378 0d6d 54       		.byte	0x54
 9379 0d6e 00000000 		.4byte	0
 9380 0d72 00000000 		.4byte	0
 9381              	.LLST60:
 9382 0d76 00000000 		.4byte	.LVL220
 9383 0d7a 0C000000 		.4byte	.LVL222
 9384 0d7e 0100     		.2byte	0x1
 9385 0d80 50       		.byte	0x50
 9386 0d81 0C000000 		.4byte	.LVL222
 9387 0d85 94000000 		.4byte	.LVL240
 9388 0d89 0100     		.2byte	0x1
 9389 0d8b 54       		.byte	0x54
 9390 0d8c 94000000 		.4byte	.LVL240
 9391 0d90 9A000000 		.4byte	.LFE60
 9392 0d94 0400     		.2byte	0x4
 9393 0d96 F3       		.byte	0xf3
 9394 0d97 01       		.uleb128 0x1
 9395 0d98 50       		.byte	0x50
 9396 0d99 9F       		.byte	0x9f
 9397 0d9a 00000000 		.4byte	0
 9398 0d9e 00000000 		.4byte	0
 9399              	.LLST61:
 9400 0da2 6C000000 		.4byte	.LVL235
 9401 0da6 6E000000 		.4byte	.LVL236
 9402 0daa 0100     		.2byte	0x1
 9403 0dac 50       		.byte	0x50
 9404 0dad 72000000 		.4byte	.LVL237
 9405 0db1 92000000 		.4byte	.LVL239
 9406 0db5 0100     		.2byte	0x1
 9407 0db7 55       		.byte	0x55
 9408 0db8 00000000 		.4byte	0
 9409 0dbc 00000000 		.4byte	0
 9410              	.LLST62:
 9411 0dc0 1E000000 		.4byte	.LVL225
 9412 0dc4 2A000000 		.4byte	.LVL226
 9413 0dc8 0100     		.2byte	0x1
 9414 0dca 50       		.byte	0x50
 9415 0dcb 2A000000 		.4byte	.LVL226
 9416 0dcf 2E000000 		.4byte	.LVL227
 9417 0dd3 0100     		.2byte	0x1
 9418 0dd5 56       		.byte	0x56
 9419 0dd6 2E000000 		.4byte	.LVL227
 9420 0dda 36000000 		.4byte	.LVL229
 9421 0dde 0100     		.2byte	0x1
 9422 0de0 50       		.byte	0x50
 9423 0de1 36000000 		.4byte	.LVL229
 9424 0de5 94000000 		.4byte	.LVL241
 9425 0de9 0100     		.2byte	0x1
ARM GAS  C:\Users\Phuong\AppData\Local\Temp\cc5dKVKJ.s 			page 201


 9426 0deb 56       		.byte	0x56
 9427 0dec 00000000 		.4byte	0
 9428 0df0 00000000 		.4byte	0
 9429              	.LLST63:
 9430 0df4 3C000000 		.4byte	.LVL231
 9431 0df8 48000000 		.4byte	.LVL232
 9432 0dfc 0100     		.2byte	0x1
 9433 0dfe 50       		.byte	0x50
 9434 0dff 48000000 		.4byte	.LVL232
 9435 0e03 6E000000 		.4byte	.LVL236
 9436 0e07 0100     		.2byte	0x1
 9437 0e09 57       		.byte	0x57
 9438 0e0a 6E000000 		.4byte	.LVL236
 9439 0e0e 72000000 		.4byte	.LVL237
 9440 0e12 0100     		.2byte	0x1
 9441 0e14 50       		.byte	0x50
 9442 0e15 72000000 		.4byte	.LVL237
 9443 0e19 92000000 		.4byte	.LVL239
 9444 0e1d 0100     		.2byte	0x1
 9445 0e1f 57       		.byte	0x57
 9446 0e20 00000000 		.4byte	0
 9447 0e24 00000000 		.4byte	0
 9448              	.LLST64:
 9449 0e28 32000000 		.4byte	.LVL228
 9450 0e2c 39000000 		.4byte	.LVL230-1
 9451 0e30 0100     		.2byte	0x1
 9452 0e32 53       		.byte	0x53
 9453 0e33 39000000 		.4byte	.LVL230-1
 9454 0e37 92000000 		.4byte	.LVL239
 9455 0e3b 0100     		.2byte	0x1
 9456 0e3d 58       		.byte	0x58
 9457 0e3e 00000000 		.4byte	0
 9458 0e42 00000000 		.4byte	0
 9459              	.LLST65:
 9460 0e46 00000000 		.4byte	.LVL242
 9461 0e4a 44000000 		.4byte	.LVL246
 9462 0e4e 0100     		.2byte	0x1
 9463 0e50 50       		.byte	0x50
 9464 0e51 44000000 		.4byte	.LVL246
 9465 0e55 38030000 		.4byte	.LVL282
 9466 0e59 0100     		.2byte	0x1
 9467 0e5b 55       		.byte	0x55
 9468 0e5c 38030000 		.4byte	.LVL282
 9469 0e60 3A030000 		.4byte	.LVL283
 9470 0e64 0100     		.2byte	0x1
 9471 0e66 50       		.byte	0x50
 9472 0e67 3A030000 		.4byte	.LVL283
 9473 0e6b 48030000 		.4byte	.LVL289
 9474 0e6f 0100     		.2byte	0x1
 9475 0e71 55       		.byte	0x55
 9476 0e72 48030000 		.4byte	.LVL289
 9477 0e76 50030000 		.4byte	.LFE61
 9478 0e7a 0400     		.2byte	0x4
 9479 0e7c F3       		.byte	0xf3
 9480 0e7d 01       		.uleb128 0x1
 9481 0e7e 50       		.byte	0x50
 9482 0e7f 9F       		.byte	0x9f
ARM GAS  C:\Users\Phuong\AppData\Local\Temp\cc5dKVKJ.s 			page 202


 9483 0e80 00000000 		.4byte	0
 9484 0e84 00000000 		.4byte	0
 9485              	.LLST66:
 9486 0e88 2C000000 		.4byte	.LVL244
 9487 0e8c 38030000 		.4byte	.LVL282
 9488 0e90 0100     		.2byte	0x1
 9489 0e92 54       		.byte	0x54
 9490 0e93 3C030000 		.4byte	.LVL284
 9491 0e97 46030000 		.4byte	.LVL288
 9492 0e9b 0100     		.2byte	0x1
 9493 0e9d 54       		.byte	0x54
 9494 0e9e 00000000 		.4byte	0
 9495 0ea2 00000000 		.4byte	0
 9496              	.LLST67:
 9497 0ea6 6A000000 		.4byte	.LVL249
 9498 0eaa 36020000 		.4byte	.LVL268
 9499 0eae 0100     		.2byte	0x1
 9500 0eb0 56       		.byte	0x56
 9501 0eb1 36020000 		.4byte	.LVL268
 9502 0eb5 3A020000 		.4byte	.LVL269
 9503 0eb9 0300     		.2byte	0x3
 9504 0ebb 75       		.byte	0x75
 9505 0ebc EC00     		.sleb128 108
 9506 0ebe 3A020000 		.4byte	.LVL269
 9507 0ec2 DE020000 		.4byte	.LVL277
 9508 0ec6 0100     		.2byte	0x1
 9509 0ec8 56       		.byte	0x56
 9510 0ec9 DE020000 		.4byte	.LVL277
 9511 0ecd E0020000 		.4byte	.LVL278
 9512 0ed1 0200     		.2byte	0x2
 9513 0ed3 76       		.byte	0x76
 9514 0ed4 00       		.sleb128 0
 9515 0ed5 E0020000 		.4byte	.LVL278
 9516 0ed9 38030000 		.4byte	.LVL282
 9517 0edd 0100     		.2byte	0x1
 9518 0edf 56       		.byte	0x56
 9519 0ee0 3C030000 		.4byte	.LVL284
 9520 0ee4 46030000 		.4byte	.LVL288
 9521 0ee8 0100     		.2byte	0x1
 9522 0eea 56       		.byte	0x56
 9523 0eeb 00000000 		.4byte	0
 9524 0eef 00000000 		.4byte	0
 9525              	.LLST68:
 9526 0ef3 2A000000 		.4byte	.LVL243
 9527 0ef7 2E000000 		.4byte	.LVL245
 9528 0efb 0100     		.2byte	0x1
 9529 0efd 53       		.byte	0x53
 9530 0efe 2E000000 		.4byte	.LVL245
 9531 0f02 E0000000 		.4byte	.LVL257
 9532 0f06 0100     		.2byte	0x1
 9533 0f08 5A       		.byte	0x5a
 9534 0f09 E0000000 		.4byte	.LVL257
 9535 0f0d E2000000 		.4byte	.LVL258
 9536 0f11 0100     		.2byte	0x1
 9537 0f13 53       		.byte	0x53
 9538 0f14 E2000000 		.4byte	.LVL258
 9539 0f18 38030000 		.4byte	.LVL282
ARM GAS  C:\Users\Phuong\AppData\Local\Temp\cc5dKVKJ.s 			page 203


 9540 0f1c 0100     		.2byte	0x1
 9541 0f1e 5A       		.byte	0x5a
 9542 0f1f 3C030000 		.4byte	.LVL284
 9543 0f23 46030000 		.4byte	.LVL288
 9544 0f27 0100     		.2byte	0x1
 9545 0f29 5A       		.byte	0x5a
 9546 0f2a 00000000 		.4byte	0
 9547 0f2e 00000000 		.4byte	0
 9548              	.LLST69:
 9549 0f32 02020000 		.4byte	.LVL265
 9550 0f36 12020000 		.4byte	.LVL266
 9551 0f3a 0100     		.2byte	0x1
 9552 0f3c 50       		.byte	0x50
 9553 0f3d 00000000 		.4byte	0
 9554 0f41 00000000 		.4byte	0
 9555              	.LLST70:
 9556 0f45 A4010000 		.4byte	.LVL261
 9557 0f49 D2010000 		.4byte	.LVL262
 9558 0f4d 0100     		.2byte	0x1
 9559 0f4f 50       		.byte	0x50
 9560 0f50 00000000 		.4byte	0
 9561 0f54 00000000 		.4byte	0
 9562              	.LLST71:
 9563 0f58 80000000 		.4byte	.LVL252
 9564 0f5c BA000000 		.4byte	.LVL255
 9565 0f60 0100     		.2byte	0x1
 9566 0f62 50       		.byte	0x50
 9567 0f63 BA000000 		.4byte	.LVL255
 9568 0f67 38030000 		.4byte	.LVL282
 9569 0f6b 0200     		.2byte	0x2
 9570 0f6d 91       		.byte	0x91
 9571 0f6e 5C       		.sleb128 -36
 9572 0f6f 3C030000 		.4byte	.LVL284
 9573 0f73 3E030000 		.4byte	.LVL285
 9574 0f77 0100     		.2byte	0x1
 9575 0f79 50       		.byte	0x50
 9576 0f7a 3E030000 		.4byte	.LVL285
 9577 0f7e 42030000 		.4byte	.LVL286
 9578 0f82 0200     		.2byte	0x2
 9579 0f84 91       		.byte	0x91
 9580 0f85 5C       		.sleb128 -36
 9581 0f86 42030000 		.4byte	.LVL286
 9582 0f8a 44030000 		.4byte	.LVL287
 9583 0f8e 0100     		.2byte	0x1
 9584 0f90 50       		.byte	0x50
 9585 0f91 44030000 		.4byte	.LVL287
 9586 0f95 46030000 		.4byte	.LVL288
 9587 0f99 0200     		.2byte	0x2
 9588 0f9b 91       		.byte	0x91
 9589 0f9c 5C       		.sleb128 -36
 9590 0f9d 00000000 		.4byte	0
 9591 0fa1 00000000 		.4byte	0
 9592              	.LLST72:
 9593 0fa5 9C000000 		.4byte	.LVL253
 9594 0fa9 A4000000 		.4byte	.LVL254
 9595 0fad 0100     		.2byte	0x1
 9596 0faf 53       		.byte	0x53
ARM GAS  C:\Users\Phuong\AppData\Local\Temp\cc5dKVKJ.s 			page 204


 9597 0fb0 42030000 		.4byte	.LVL286
 9598 0fb4 46030000 		.4byte	.LVL288
 9599 0fb8 0100     		.2byte	0x1
 9600 0fba 53       		.byte	0x53
 9601 0fbb 00000000 		.4byte	0
 9602 0fbf 00000000 		.4byte	0
 9603              	.LLST73:
 9604 0fc3 80020000 		.4byte	.LVL272
 9605 0fc7 DC020000 		.4byte	.LVL276
 9606 0fcb 0100     		.2byte	0x1
 9607 0fcd 58       		.byte	0x58
 9608 0fce 00000000 		.4byte	0
 9609 0fd2 00000000 		.4byte	0
 9610              	.LLST74:
 9611 0fd6 00000000 		.4byte	.LVL290
 9612 0fda 1A000000 		.4byte	.LVL295
 9613 0fde 0100     		.2byte	0x1
 9614 0fe0 50       		.byte	0x50
 9615 0fe1 1A000000 		.4byte	.LVL295
 9616 0fe5 D4000000 		.4byte	.LFE63
 9617 0fe9 0200     		.2byte	0x2
 9618 0feb 91       		.byte	0x91
 9619 0fec 5C       		.sleb128 -36
 9620 0fed 00000000 		.4byte	0
 9621 0ff1 00000000 		.4byte	0
 9622              	.LLST75:
 9623 0ff5 00000000 		.4byte	.LVL290
 9624 0ff9 18000000 		.4byte	.LVL294
 9625 0ffd 0100     		.2byte	0x1
 9626 0fff 51       		.byte	0x51
 9627 1000 18000000 		.4byte	.LVL294
 9628 1004 D4000000 		.4byte	.LFE63
 9629 1008 0200     		.2byte	0x2
 9630 100a 91       		.byte	0x91
 9631 100b 60       		.sleb128 -32
 9632 100c 00000000 		.4byte	0
 9633 1010 00000000 		.4byte	0
 9634              	.LLST76:
 9635 1014 00000000 		.4byte	.LVL290
 9636 1018 16000000 		.4byte	.LVL293
 9637 101c 0100     		.2byte	0x1
 9638 101e 52       		.byte	0x52
 9639 101f 16000000 		.4byte	.LVL293
 9640 1023 D4000000 		.4byte	.LFE63
 9641 1027 0200     		.2byte	0x2
 9642 1029 91       		.byte	0x91
 9643 102a 58       		.sleb128 -40
 9644 102b 00000000 		.4byte	0
 9645 102f 00000000 		.4byte	0
 9646              	.LLST77:
 9647 1033 00000000 		.4byte	.LVL290
 9648 1037 0E000000 		.4byte	.LVL291
 9649 103b 0100     		.2byte	0x1
 9650 103d 53       		.byte	0x53
 9651 103e 0E000000 		.4byte	.LVL291
 9652 1042 12000000 		.4byte	.LVL292
 9653 1046 0200     		.2byte	0x2
ARM GAS  C:\Users\Phuong\AppData\Local\Temp\cc5dKVKJ.s 			page 205


 9654 1048 73       		.byte	0x73
 9655 1049 64       		.sleb128 -28
 9656 104a 12000000 		.4byte	.LVL292
 9657 104e D4000000 		.4byte	.LFE63
 9658 1052 0200     		.2byte	0x2
 9659 1054 91       		.byte	0x91
 9660 1055 64       		.sleb128 -28
 9661 1056 00000000 		.4byte	0
 9662 105a 00000000 		.4byte	0
 9663              	.LLST78:
 9664 105e 00000000 		.4byte	.LVL290
 9665 1062 0E000000 		.4byte	.LVL291
 9666 1066 0200     		.2byte	0x2
 9667 1068 91       		.byte	0x91
 9668 1069 00       		.sleb128 0
 9669 106a 0E000000 		.4byte	.LVL291
 9670 106e 12000000 		.4byte	.LVL292
 9671 1072 0200     		.2byte	0x2
 9672 1074 73       		.byte	0x73
 9673 1075 00       		.sleb128 0
 9674 1076 12000000 		.4byte	.LVL292
 9675 107a D4000000 		.4byte	.LFE63
 9676 107e 0200     		.2byte	0x2
 9677 1080 91       		.byte	0x91
 9678 1081 00       		.sleb128 0
 9679 1082 00000000 		.4byte	0
 9680 1086 00000000 		.4byte	0
 9681              	.LLST79:
 9682 108a 00000000 		.4byte	.LVL290
 9683 108e 0E000000 		.4byte	.LVL291
 9684 1092 0200     		.2byte	0x2
 9685 1094 91       		.byte	0x91
 9686 1095 04       		.sleb128 4
 9687 1096 0E000000 		.4byte	.LVL291
 9688 109a 12000000 		.4byte	.LVL292
 9689 109e 0200     		.2byte	0x2
 9690 10a0 73       		.byte	0x73
 9691 10a1 04       		.sleb128 4
 9692 10a2 12000000 		.4byte	.LVL292
 9693 10a6 1D000000 		.4byte	.LVL296-1
 9694 10aa 0200     		.2byte	0x2
 9695 10ac 73       		.byte	0x73
 9696 10ad 00       		.sleb128 0
 9697 10ae 1D000000 		.4byte	.LVL296-1
 9698 10b2 D4000000 		.4byte	.LFE63
 9699 10b6 0200     		.2byte	0x2
 9700 10b8 91       		.byte	0x91
 9701 10b9 04       		.sleb128 4
 9702 10ba 00000000 		.4byte	0
 9703 10be 00000000 		.4byte	0
 9704              	.LLST80:
 9705 10c2 20000000 		.4byte	.LVL297
 9706 10c6 26000000 		.4byte	.LVL299
 9707 10ca 0100     		.2byte	0x1
 9708 10cc 50       		.byte	0x50
 9709 10cd 26000000 		.4byte	.LVL299
 9710 10d1 CA000000 		.4byte	.LVL311
ARM GAS  C:\Users\Phuong\AppData\Local\Temp\cc5dKVKJ.s 			page 206


 9711 10d5 0100     		.2byte	0x1
 9712 10d7 57       		.byte	0x57
 9713 10d8 00000000 		.4byte	0
 9714 10dc 00000000 		.4byte	0
 9715              	.LLST81:
 9716 10e0 24000000 		.4byte	.LVL298
 9717 10e4 C8000000 		.4byte	.LVL310
 9718 10e8 0100     		.2byte	0x1
 9719 10ea 55       		.byte	0x55
 9720 10eb 00000000 		.4byte	0
 9721 10ef 00000000 		.4byte	0
 9722              	.LLST82:
 9723 10f3 96000000 		.4byte	.LVL306
 9724 10f7 A2000000 		.4byte	.LVL307
 9725 10fb 0100     		.2byte	0x1
 9726 10fd 50       		.byte	0x50
 9727 10fe A2000000 		.4byte	.LVL307
 9728 1102 C8000000 		.4byte	.LVL310
 9729 1106 0100     		.2byte	0x1
 9730 1108 56       		.byte	0x56
 9731 1109 00000000 		.4byte	0
 9732 110d 00000000 		.4byte	0
 9733              	.LLST83:
 9734 1111 00000000 		.4byte	.LVL312
 9735 1115 3F000000 		.4byte	.LVL316-1
 9736 1119 0100     		.2byte	0x1
 9737 111b 50       		.byte	0x50
 9738 111c 3F000000 		.4byte	.LVL316-1
 9739 1120 42000000 		.4byte	.LFE64
 9740 1124 0400     		.2byte	0x4
 9741 1126 F3       		.byte	0xf3
 9742 1127 01       		.uleb128 0x1
 9743 1128 50       		.byte	0x50
 9744 1129 9F       		.byte	0x9f
 9745 112a 00000000 		.4byte	0
 9746 112e 00000000 		.4byte	0
 9747              	.LLST84:
 9748 1132 0A000000 		.4byte	.LVL313
 9749 1136 1E000000 		.4byte	.LVL315
 9750 113a 0100     		.2byte	0x1
 9751 113c 52       		.byte	0x52
 9752 113d 00000000 		.4byte	0
 9753 1141 00000000 		.4byte	0
 9754              	.LLST85:
 9755 1145 00000000 		.4byte	.LVL317
 9756 1149 14000000 		.4byte	.LVL320
 9757 114d 0100     		.2byte	0x1
 9758 114f 50       		.byte	0x50
 9759 1150 14000000 		.4byte	.LVL320
 9760 1154 80000000 		.4byte	.LVL325
 9761 1158 0100     		.2byte	0x1
 9762 115a 56       		.byte	0x56
 9763 115b 80000000 		.4byte	.LVL325
 9764 115f 82000000 		.4byte	.LFE65
 9765 1163 0400     		.2byte	0x4
 9766 1165 F3       		.byte	0xf3
 9767 1166 01       		.uleb128 0x1
ARM GAS  C:\Users\Phuong\AppData\Local\Temp\cc5dKVKJ.s 			page 207


 9768 1167 50       		.byte	0x50
 9769 1168 9F       		.byte	0x9f
 9770 1169 00000000 		.4byte	0
 9771 116d 00000000 		.4byte	0
 9772              	.LLST86:
 9773 1171 0A000000 		.4byte	.LVL318
 9774 1175 80000000 		.4byte	.LVL324
 9775 1179 0100     		.2byte	0x1
 9776 117b 55       		.byte	0x55
 9777 117c 00000000 		.4byte	0
 9778 1180 00000000 		.4byte	0
 9779              	.LLST87:
 9780 1184 12000000 		.4byte	.LVL319
 9781 1188 80000000 		.4byte	.LVL324
 9782 118c 0100     		.2byte	0x1
 9783 118e 54       		.byte	0x54
 9784 118f 00000000 		.4byte	0
 9785 1193 00000000 		.4byte	0
 9786              	.LLST88:
 9787 1197 00000000 		.4byte	.LVL326
 9788 119b 13000000 		.4byte	.LVL327-1
 9789 119f 0100     		.2byte	0x1
 9790 11a1 50       		.byte	0x50
 9791 11a2 13000000 		.4byte	.LVL327-1
 9792 11a6 54000000 		.4byte	.LVL328
 9793 11aa 0100     		.2byte	0x1
 9794 11ac 54       		.byte	0x54
 9795 11ad 54000000 		.4byte	.LVL328
 9796 11b1 56000000 		.4byte	.LFE66
 9797 11b5 0400     		.2byte	0x4
 9798 11b7 F3       		.byte	0xf3
 9799 11b8 01       		.uleb128 0x1
 9800 11b9 50       		.byte	0x50
 9801 11ba 9F       		.byte	0x9f
 9802 11bb 00000000 		.4byte	0
 9803 11bf 00000000 		.4byte	0
 9804              	.LLST89:
 9805 11c3 00000000 		.4byte	.LVL329
 9806 11c7 0E000000 		.4byte	.LVL330
 9807 11cb 0100     		.2byte	0x1
 9808 11cd 50       		.byte	0x50
 9809 11ce 0E000000 		.4byte	.LVL330
 9810 11d2 6A000000 		.4byte	.LVL342
 9811 11d6 0100     		.2byte	0x1
 9812 11d8 54       		.byte	0x54
 9813 11d9 6A000000 		.4byte	.LVL342
 9814 11dd 6C000000 		.4byte	.LVL343
 9815 11e1 0300     		.2byte	0x3
 9816 11e3 76       		.byte	0x76
 9817 11e4 7C       		.sleb128 -4
 9818 11e5 9F       		.byte	0x9f
 9819 11e6 6C000000 		.4byte	.LVL343
 9820 11ea 6E000000 		.4byte	.LVL344
 9821 11ee 0100     		.2byte	0x1
 9822 11f0 54       		.byte	0x54
 9823 11f1 6E000000 		.4byte	.LVL344
 9824 11f5 7A000000 		.4byte	.LVL347
ARM GAS  C:\Users\Phuong\AppData\Local\Temp\cc5dKVKJ.s 			page 208


 9825 11f9 0300     		.2byte	0x3
 9826 11fb 76       		.byte	0x76
 9827 11fc 7C       		.sleb128 -4
 9828 11fd 9F       		.byte	0x9f
 9829 11fe 7A000000 		.4byte	.LVL347
 9830 1202 7E000000 		.4byte	.LVL349
 9831 1206 0100     		.2byte	0x1
 9832 1208 54       		.byte	0x54
 9833 1209 7E000000 		.4byte	.LVL349
 9834 120d 8C000000 		.4byte	.LFE67
 9835 1211 0400     		.2byte	0x4
 9836 1213 F3       		.byte	0xf3
 9837 1214 01       		.uleb128 0x1
 9838 1215 50       		.byte	0x50
 9839 1216 9F       		.byte	0x9f
 9840 1217 00000000 		.4byte	0
 9841 121b 00000000 		.4byte	0
 9842              	.LLST90:
 9843 121f 6A000000 		.4byte	.LVL342
 9844 1223 6C000000 		.4byte	.LVL343
 9845 1227 0100     		.2byte	0x1
 9846 1229 50       		.byte	0x50
 9847 122a 70000000 		.4byte	.LVL345
 9848 122e 7A000000 		.4byte	.LVL347
 9849 1232 0100     		.2byte	0x1
 9850 1234 54       		.byte	0x54
 9851 1235 00000000 		.4byte	0
 9852 1239 00000000 		.4byte	0
 9853              	.LLST91:
 9854 123d 20000000 		.4byte	.LVL333
 9855 1241 26000000 		.4byte	.LVL334
 9856 1245 0100     		.2byte	0x1
 9857 1247 50       		.byte	0x50
 9858 1248 26000000 		.4byte	.LVL334
 9859 124c 7A000000 		.4byte	.LVL347
 9860 1250 0100     		.2byte	0x1
 9861 1252 55       		.byte	0x55
 9862 1253 7A000000 		.4byte	.LVL347
 9863 1257 7C000000 		.4byte	.LVL348
 9864 125b 0100     		.2byte	0x1
 9865 125d 50       		.byte	0x50
 9866 125e 7C000000 		.4byte	.LVL348
 9867 1262 80000000 		.4byte	.LVL350
 9868 1266 0100     		.2byte	0x1
 9869 1268 55       		.byte	0x55
 9870 1269 00000000 		.4byte	0
 9871 126d 00000000 		.4byte	0
 9872              	.LLST92:
 9873 1271 2C000000 		.4byte	.LVL336
 9874 1275 3C000000 		.4byte	.LVL339
 9875 1279 0100     		.2byte	0x1
 9876 127b 50       		.byte	0x50
 9877 127c 3C000000 		.4byte	.LVL339
 9878 1280 6C000000 		.4byte	.LVL343
 9879 1284 0100     		.2byte	0x1
 9880 1286 57       		.byte	0x57
 9881 1287 6C000000 		.4byte	.LVL343
ARM GAS  C:\Users\Phuong\AppData\Local\Temp\cc5dKVKJ.s 			page 209


 9882 128b 70000000 		.4byte	.LVL345
 9883 128f 0100     		.2byte	0x1
 9884 1291 50       		.byte	0x50
 9885 1292 70000000 		.4byte	.LVL345
 9886 1296 7A000000 		.4byte	.LVL347
 9887 129a 0100     		.2byte	0x1
 9888 129c 57       		.byte	0x57
 9889 129d 00000000 		.4byte	0
 9890 12a1 00000000 		.4byte	0
 9891              	.LLST93:
 9892 12a5 32000000 		.4byte	.LVL337
 9893 12a9 38000000 		.4byte	.LVL338
 9894 12ad 0100     		.2byte	0x1
 9895 12af 53       		.byte	0x53
 9896 12b0 38000000 		.4byte	.LVL338
 9897 12b4 6C000000 		.4byte	.LVL343
 9898 12b8 0100     		.2byte	0x1
 9899 12ba 58       		.byte	0x58
 9900 12bb 00000000 		.4byte	0
 9901 12bf 00000000 		.4byte	0
 9902              	.LLST94:
 9903 12c3 00000000 		.4byte	.LVL351
 9904 12c7 1E000000 		.4byte	.LVL354
 9905 12cb 0100     		.2byte	0x1
 9906 12cd 50       		.byte	0x50
 9907 12ce 1E000000 		.4byte	.LVL354
 9908 12d2 24010000 		.4byte	.LVL382
 9909 12d6 0100     		.2byte	0x1
 9910 12d8 55       		.byte	0x55
 9911 12d9 24010000 		.4byte	.LVL382
 9912 12dd 26010000 		.4byte	.LVL383
 9913 12e1 0100     		.2byte	0x1
 9914 12e3 50       		.byte	0x50
 9915 12e4 26010000 		.4byte	.LVL383
 9916 12e8 2E010000 		.4byte	.LVL387
 9917 12ec 0100     		.2byte	0x1
 9918 12ee 55       		.byte	0x55
 9919 12ef 2E010000 		.4byte	.LVL387
 9920 12f3 3C010000 		.4byte	.LFE68
 9921 12f7 0400     		.2byte	0x4
 9922 12f9 F3       		.byte	0xf3
 9923 12fa 01       		.uleb128 0x1
 9924 12fb 50       		.byte	0x50
 9925 12fc 9F       		.byte	0x9f
 9926 12fd 00000000 		.4byte	0
 9927 1301 00000000 		.4byte	0
 9928              	.LLST95:
 9929 1305 14010000 		.4byte	.LVL378
 9930 1309 16010000 		.4byte	.LVL379
 9931 130d 0100     		.2byte	0x1
 9932 130f 50       		.byte	0x50
 9933 1310 1A010000 		.4byte	.LVL380
 9934 1314 24010000 		.4byte	.LVL382
 9935 1318 0100     		.2byte	0x1
 9936 131a 54       		.byte	0x54
 9937 131b 00000000 		.4byte	0
 9938 131f 00000000 		.4byte	0
ARM GAS  C:\Users\Phuong\AppData\Local\Temp\cc5dKVKJ.s 			page 210


 9939              	.LLST96:
 9940 1323 66000000 		.4byte	.LVL359
 9941 1327 7C000000 		.4byte	.LVL363
 9942 132b 0100     		.2byte	0x1
 9943 132d 50       		.byte	0x50
 9944 132e 7C000000 		.4byte	.LVL363
 9945 1332 92000000 		.4byte	.LVL365
 9946 1336 0100     		.2byte	0x1
 9947 1338 56       		.byte	0x56
 9948 1339 92000000 		.4byte	.LVL365
 9949 133d A4000000 		.4byte	.LVL367
 9950 1341 0100     		.2byte	0x1
 9951 1343 50       		.byte	0x50
 9952 1344 A4000000 		.4byte	.LVL367
 9953 1348 24010000 		.4byte	.LVL382
 9954 134c 0100     		.2byte	0x1
 9955 134e 56       		.byte	0x56
 9956 134f 28010000 		.4byte	.LVL384
 9957 1353 2A010000 		.4byte	.LVL385
 9958 1357 0100     		.2byte	0x1
 9959 1359 50       		.byte	0x50
 9960 135a 2A010000 		.4byte	.LVL385
 9961 135e 2C010000 		.4byte	.LVL386
 9962 1362 0100     		.2byte	0x1
 9963 1364 56       		.byte	0x56
 9964 1365 00000000 		.4byte	0
 9965 1369 00000000 		.4byte	0
 9966              	.LLST97:
 9967 136d 6C000000 		.4byte	.LVL360
 9968 1371 74000000 		.4byte	.LVL361
 9969 1375 0100     		.2byte	0x1
 9970 1377 53       		.byte	0x53
 9971 1378 74000000 		.4byte	.LVL361
 9972 137c 92000000 		.4byte	.LVL365
 9973 1380 0100     		.2byte	0x1
 9974 1382 58       		.byte	0x58
 9975 1383 92000000 		.4byte	.LVL365
 9976 1387 98000000 		.4byte	.LVL366
 9977 138b 0100     		.2byte	0x1
 9978 138d 53       		.byte	0x53
 9979 138e 98000000 		.4byte	.LVL366
 9980 1392 24010000 		.4byte	.LVL382
 9981 1396 0100     		.2byte	0x1
 9982 1398 58       		.byte	0x58
 9983 1399 00000000 		.4byte	0
 9984 139d 00000000 		.4byte	0
 9985              	.LLST98:
 9986 13a1 0C000000 		.4byte	.LVL352
 9987 13a5 AA000000 		.4byte	.LVL369
 9988 13a9 0100     		.2byte	0x1
 9989 13ab 54       		.byte	0x54
 9990 13ac 24010000 		.4byte	.LVL382
 9991 13b0 2C010000 		.4byte	.LVL386
 9992 13b4 0100     		.2byte	0x1
 9993 13b6 54       		.byte	0x54
 9994 13b7 00000000 		.4byte	0
 9995 13bb 00000000 		.4byte	0
ARM GAS  C:\Users\Phuong\AppData\Local\Temp\cc5dKVKJ.s 			page 211


 9996              	.LLST99:
 9997 13bf 42000000 		.4byte	.LVL357
 9998 13c3 63000000 		.4byte	.LVL358-1
 9999 13c7 0100     		.2byte	0x1
 10000 13c9 5C       		.byte	0x5c
 10001 13ca 63000000 		.4byte	.LVL358-1
 10002 13ce 7A000000 		.4byte	.LVL362
 10003 13d2 0500     		.2byte	0x5
 10004 13d4 77       		.byte	0x77
 10005 13d5 00       		.sleb128 0
 10006 13d6 30       		.byte	0x30
 10007 13d7 29       		.byte	0x29
 10008 13d8 9F       		.byte	0x9f
 10009 13d9 92000000 		.4byte	.LVL365
 10010 13dd A8000000 		.4byte	.LVL368
 10011 13e1 0500     		.2byte	0x5
 10012 13e3 77       		.byte	0x77
 10013 13e4 00       		.sleb128 0
 10014 13e5 30       		.byte	0x30
 10015 13e6 29       		.byte	0x29
 10016 13e7 9F       		.byte	0x9f
 10017 13e8 28010000 		.4byte	.LVL384
 10018 13ec 2C010000 		.4byte	.LVL386
 10019 13f0 0500     		.2byte	0x5
 10020 13f2 77       		.byte	0x77
 10021 13f3 00       		.sleb128 0
 10022 13f4 30       		.byte	0x30
 10023 13f5 29       		.byte	0x29
 10024 13f6 9F       		.byte	0x9f
 10025 13f7 00000000 		.4byte	0
 10026 13fb 00000000 		.4byte	0
 10027              	.LLST100:
 10028 13ff 3C000000 		.4byte	.LVL356
 10029 1403 7A000000 		.4byte	.LVL362
 10030 1407 0100     		.2byte	0x1
 10031 1409 57       		.byte	0x57
 10032 140a 92000000 		.4byte	.LVL365
 10033 140e A8000000 		.4byte	.LVL368
 10034 1412 0100     		.2byte	0x1
 10035 1414 57       		.byte	0x57
 10036 1415 28010000 		.4byte	.LVL384
 10037 1419 2C010000 		.4byte	.LVL386
 10038 141d 0100     		.2byte	0x1
 10039 141f 57       		.byte	0x57
 10040 1420 00000000 		.4byte	0
 10041 1424 00000000 		.4byte	0
 10042              	.LLST101:
 10043 1428 C8000000 		.4byte	.LVL371
 10044 142c D4000000 		.4byte	.LVL372
 10045 1430 0100     		.2byte	0x1
 10046 1432 50       		.byte	0x50
 10047 1433 00000000 		.4byte	0
 10048 1437 00000000 		.4byte	0
 10049              	.LLST102:
 10050 143b DA000000 		.4byte	.LVL374
 10051 143f E6000000 		.4byte	.LVL375
 10052 1443 0100     		.2byte	0x1
ARM GAS  C:\Users\Phuong\AppData\Local\Temp\cc5dKVKJ.s 			page 212


 10053 1445 50       		.byte	0x50
 10054 1446 E6000000 		.4byte	.LVL375
 10055 144a 16010000 		.4byte	.LVL379
 10056 144e 0100     		.2byte	0x1
 10057 1450 57       		.byte	0x57
 10058 1451 16010000 		.4byte	.LVL379
 10059 1455 1A010000 		.4byte	.LVL380
 10060 1459 0100     		.2byte	0x1
 10061 145b 50       		.byte	0x50
 10062 145c 1A010000 		.4byte	.LVL380
 10063 1460 24010000 		.4byte	.LVL382
 10064 1464 0100     		.2byte	0x1
 10065 1466 57       		.byte	0x57
 10066 1467 00000000 		.4byte	0
 10067 146b 00000000 		.4byte	0
 10068              		.section	.debug_aranges,"",%progbits
 10069 0000 94000000 		.4byte	0x94
 10070 0004 0200     		.2byte	0x2
 10071 0006 00000000 		.4byte	.Ldebug_info0
 10072 000a 04       		.byte	0x4
 10073 000b 00       		.byte	0
 10074 000c 0000     		.2byte	0
 10075 000e 0000     		.2byte	0
 10076 0010 00000000 		.4byte	.LFB57
 10077 0014 60000000 		.4byte	.LFE57-.LFB57
 10078 0018 00000000 		.4byte	.LFB56
 10079 001c 22000000 		.4byte	.LFE56-.LFB56
 10080 0020 00000000 		.4byte	.LFB55
 10081 0024 D8000000 		.4byte	.LFE55-.LFB55
 10082 0028 00000000 		.4byte	.LFB53
 10083 002c 9C000000 		.4byte	.LFE53-.LFB53
 10084 0030 00000000 		.4byte	.LFB62
 10085 0034 14010000 		.4byte	.LFE62-.LFB62
 10086 0038 00000000 		.4byte	.LFB58
 10087 003c 70030000 		.4byte	.LFE58-.LFB58
 10088 0040 00000000 		.4byte	.LFB59
 10089 0044 D8000000 		.4byte	.LFE59-.LFB59
 10090 0048 00000000 		.4byte	.LFB54
 10091 004c 58000000 		.4byte	.LFE54-.LFB54
 10092 0050 00000000 		.4byte	.LFB60
 10093 0054 9A000000 		.4byte	.LFE60-.LFB60
 10094 0058 00000000 		.4byte	.LFB61
 10095 005c 50030000 		.4byte	.LFE61-.LFB61
 10096 0060 00000000 		.4byte	.LFB63
 10097 0064 D4000000 		.4byte	.LFE63-.LFB63
 10098 0068 00000000 		.4byte	.LFB64
 10099 006c 42000000 		.4byte	.LFE64-.LFB64
 10100 0070 00000000 		.4byte	.LFB65
 10101 0074 82000000 		.4byte	.LFE65-.LFB65
 10102 0078 00000000 		.4byte	.LFB66
 10103 007c 56000000 		.4byte	.LFE66-.LFB66
 10104 0080 00000000 		.4byte	.LFB67
 10105 0084 8C000000 		.4byte	.LFE67-.LFB67
 10106 0088 00000000 		.4byte	.LFB68
 10107 008c 3C010000 		.4byte	.LFE68-.LFB68
 10108 0090 00000000 		.4byte	0
 10109 0094 00000000 		.4byte	0
ARM GAS  C:\Users\Phuong\AppData\Local\Temp\cc5dKVKJ.s 			page 213


 10110              		.section	.debug_ranges,"",%progbits
 10111              	.Ldebug_ranges0:
 10112 0000 6C000000 		.4byte	.LBB3
 10113 0004 D2000000 		.4byte	.LBE3
 10114 0008 D8000000 		.4byte	.LBB5
 10115 000c 52010000 		.4byte	.LBE5
 10116 0010 60010000 		.4byte	.LBB6
 10117 0014 62010000 		.4byte	.LBE6
 10118 0018 6A010000 		.4byte	.LBB7
 10119 001c 6C010000 		.4byte	.LBE7
 10120 0020 74010000 		.4byte	.LBB8
 10121 0024 76010000 		.4byte	.LBE8
 10122 0028 00000000 		.4byte	0
 10123 002c 00000000 		.4byte	0
 10124 0030 90000000 		.4byte	.LBB13
 10125 0034 A6000000 		.4byte	.LBE13
 10126 0038 42030000 		.4byte	.LBB15
 10127 003c 46030000 		.4byte	.LBE15
 10128 0040 00000000 		.4byte	0
 10129 0044 00000000 		.4byte	0
 10130 0048 00000000 		.4byte	.LFB57
 10131 004c 60000000 		.4byte	.LFE57
 10132 0050 00000000 		.4byte	.LFB56
 10133 0054 22000000 		.4byte	.LFE56
 10134 0058 00000000 		.4byte	.LFB55
 10135 005c D8000000 		.4byte	.LFE55
 10136 0060 00000000 		.4byte	.LFB53
 10137 0064 9C000000 		.4byte	.LFE53
 10138 0068 00000000 		.4byte	.LFB62
 10139 006c 14010000 		.4byte	.LFE62
 10140 0070 00000000 		.4byte	.LFB58
 10141 0074 70030000 		.4byte	.LFE58
 10142 0078 00000000 		.4byte	.LFB59
 10143 007c D8000000 		.4byte	.LFE59
 10144 0080 00000000 		.4byte	.LFB54
 10145 0084 58000000 		.4byte	.LFE54
 10146 0088 00000000 		.4byte	.LFB60
 10147 008c 9A000000 		.4byte	.LFE60
 10148 0090 00000000 		.4byte	.LFB61
 10149 0094 50030000 		.4byte	.LFE61
 10150 0098 00000000 		.4byte	.LFB63
 10151 009c D4000000 		.4byte	.LFE63
 10152 00a0 00000000 		.4byte	.LFB64
 10153 00a4 42000000 		.4byte	.LFE64
 10154 00a8 00000000 		.4byte	.LFB65
 10155 00ac 82000000 		.4byte	.LFE65
 10156 00b0 00000000 		.4byte	.LFB66
 10157 00b4 56000000 		.4byte	.LFE66
 10158 00b8 00000000 		.4byte	.LFB67
 10159 00bc 8C000000 		.4byte	.LFE67
 10160 00c0 00000000 		.4byte	.LFB68
 10161 00c4 3C010000 		.4byte	.LFE68
 10162 00c8 00000000 		.4byte	0
 10163 00cc 00000000 		.4byte	0
 10164              		.section	.debug_line,"",%progbits
 10165              	.Ldebug_line0:
 10166 0000 33070000 		.section	.debug_str,"MS",%progbits,1
ARM GAS  C:\Users\Phuong\AppData\Local\Temp\cc5dKVKJ.s 			page 214


 10166      0200E602 
 10166      00000201 
 10166      FB0E0D00 
 10166      01010101 
 10167              	.LASF219:
 10168 0000 7463705F 		.ascii	"tcp_write_checks\000"
 10168      77726974 
 10168      655F6368 
 10168      65636B73 
 10168      00
 10169              	.LASF221:
 10170 0011 6C617965 		.ascii	"layer\000"
 10170      7200
 10171              	.LASF82:
 10172 0017 6E616D65 		.ascii	"name\000"
 10172      00
 10173              	.LASF67:
 10174 001c 4D454D50 		.ascii	"MEMP_TCP_PCB_LISTEN\000"
 10174      5F544350 
 10174      5F504342 
 10174      5F4C4953 
 10174      54454E00 
 10175              	.LASF262:
 10176 0030 7463705F 		.ascii	"tcp_keepalive\000"
 10176      6B656570 
 10176      616C6976 
 10176      6500
 10177              	.LASF215:
 10178 003e 61636B6E 		.ascii	"ackno\000"
 10178      6F00
 10179              	.LASF13:
 10180 0044 63686172 		.ascii	"char\000"
 10180      00
 10181              	.LASF121:
 10182 0049 696E7075 		.ascii	"input\000"
 10182      7400
 10183              	.LASF39:
 10184 004f 4552525F 		.ascii	"ERR_ABRT\000"
 10184      41425254 
 10184      00
 10185              	.LASF224:
 10186 0058 6F766572 		.ascii	"oversize\000"
 10186      73697A65 
 10186      00
 10187              	.LASF49:
 10188 0061 50425546 		.ascii	"PBUF_RAM\000"
 10188      5F52414D 
 10188      00
 10189              	.LASF218:
 10190 006a 75726770 		.ascii	"urgp\000"
 10190      00
 10191              	.LASF174:
 10192 006f 6C697374 		.ascii	"listener\000"
 10192      656E6572 
 10192      00
 10193              	.LASF246:
 10194 0078 756E7365 		.ascii	"unsent_optlen\000"
ARM GAS  C:\Users\Phuong\AppData\Local\Temp\cc5dKVKJ.s 			page 215


 10194      6E745F6F 
 10194      70746C65 
 10194      6E00
 10195              	.LASF146:
 10196 0086 706F6C6C 		.ascii	"polltmr\000"
 10196      746D7200 
 10197              	.LASF47:
 10198 008e 50425546 		.ascii	"PBUF_RAW\000"
 10198      5F524157 
 10198      00
 10199              	.LASF57:
 10200 0097 666C6167 		.ascii	"flags\000"
 10200      7300
 10201              	.LASF41:
 10202 009d 4552525F 		.ascii	"ERR_CLSD\000"
 10202      434C5344 
 10202      00
 10203              	.LASF220:
 10204 00a6 7463705F 		.ascii	"tcp_pbuf_prealloc\000"
 10204      70627566 
 10204      5F707265 
 10204      616C6C6F 
 10204      6300
 10205              	.LASF34:
 10206 00b8 4552525F 		.ascii	"ERR_USE\000"
 10206      55534500 
 10207              	.LASF42:
 10208 00c0 4552525F 		.ascii	"ERR_ARG\000"
 10208      41524700 
 10209              	.LASF204:
 10210 00c8 54494D45 		.ascii	"TIME_WAIT\000"
 10210      5F574149 
 10210      5400
 10211              	.LASF8:
 10212 00d2 756E7369 		.ascii	"unsigned int\000"
 10212      676E6564 
 10212      20696E74 
 10212      00
 10213              	.LASF189:
 10214 00df 7463705F 		.ascii	"tcp_connected_fn\000"
 10214      636F6E6E 
 10214      65637465 
 10214      645F666E 
 10214      00
 10215              	.LASF53:
 10216 00f0 6E657874 		.ascii	"next\000"
 10216      00
 10217              	.LASF263:
 10218 00f5 7463705F 		.ascii	"tcp_zero_window_probe\000"
 10218      7A65726F 
 10218      5F77696E 
 10218      646F775F 
 10218      70726F62 
 10219              	.LASF25:
 10220 010b 6572725F 		.ascii	"err_t\000"
 10220      7400
 10221              	.LASF276:
ARM GAS  C:\Users\Phuong\AppData\Local\Temp\cc5dKVKJ.s 			page 216


 10222 0111 69705F63 		.ascii	"ip_chksum_pseudo\000"
 10222      686B7375 
 10222      6D5F7073 
 10222      6575646F 
 10222      00
 10223              	.LASF282:
 10224 0122 70627566 		.ascii	"pbuf_copy_partial\000"
 10224      5F636F70 
 10224      795F7061 
 10224      72746961 
 10224      6C00
 10225              	.LASF128:
 10226 0134 686F7374 		.ascii	"hostname\000"
 10226      6E616D65 
 10226      00
 10227              	.LASF260:
 10228 013d 7463705F 		.ascii	"tcp_rexmit\000"
 10228      7265786D 
 10228      697400
 10229              	.LASF19:
 10230 0148 7531365F 		.ascii	"u16_t\000"
 10230      7400
 10231              	.LASF152:
 10232 014e 7263765F 		.ascii	"rcv_ann_right_edge\000"
 10232      616E6E5F 
 10232      72696768 
 10232      745F6564 
 10232      676500
 10233              	.LASF241:
 10234 0161 6F766572 		.ascii	"oversize_used\000"
 10234      73697A65 
 10234      5F757365 
 10234      6400
 10235              	.LASF81:
 10236 016f 73746174 		.ascii	"stats_mem\000"
 10236      735F6D65 
 10236      6D00
 10237              	.LASF230:
 10238 0179 6F70746C 		.ascii	"optlen\000"
 10238      656E00
 10239              	.LASF274:
 10240 0180 6C776970 		.ascii	"lwip_htonl\000"
 10240      5F68746F 
 10240      6E6C00
 10241              	.LASF133:
 10242 018b 6E657469 		.ascii	"netif_output_fn\000"
 10242      665F6F75 
 10242      74707574 
 10242      5F666E00 
 10243              	.LASF273:
 10244 019b 6C776970 		.ascii	"lwip_htons\000"
 10244      5F68746F 
 10244      6E7300
 10245              	.LASF184:
 10246 01a6 6B656570 		.ascii	"keep_cnt_sent\000"
 10246      5F636E74 
 10246      5F73656E 
ARM GAS  C:\Users\Phuong\AppData\Local\Temp\cc5dKVKJ.s 			page 217


 10246      7400
 10247              	.LASF79:
 10248 01b4 4D454D50 		.ascii	"MEMP_PBUF_POOL\000"
 10248      5F504255 
 10248      465F504F 
 10248      4F4C00
 10249              	.LASF265:
 10250 01c3 6C776970 		.ascii	"lwip_stats\000"
 10250      5F737461 
 10250      747300
 10251              	.LASF186:
 10252 01ce 7463705F 		.ascii	"tcp_sent_fn\000"
 10252      73656E74 
 10252      5F666E00 
 10253              	.LASF40:
 10254 01da 4552525F 		.ascii	"ERR_RST\000"
 10254      52535400 
 10255              	.LASF9:
 10256 01e2 5F5F696E 		.ascii	"__intptr_t\000"
 10256      74707472 
 10256      5F7400
 10257              	.LASF181:
 10258 01ed 6B656570 		.ascii	"keep_cnt\000"
 10258      5F636E74 
 10258      00
 10259              	.LASF43:
 10260 01f6 50425546 		.ascii	"PBUF_TRANSPORT\000"
 10260      5F545241 
 10260      4E53504F 
 10260      525400
 10261              	.LASF251:
 10262 0205 7463705F 		.ascii	"tcp_enqueue_flags\000"
 10262      656E7175 
 10262      6575655F 
 10262      666C6167 
 10262      7300
 10263              	.LASF35:
 10264 0217 4552525F 		.ascii	"ERR_ALREADY\000"
 10264      414C5245 
 10264      41445900 
 10265              	.LASF105:
 10266 0223 73746174 		.ascii	"stats_syselem\000"
 10266      735F7379 
 10266      73656C65 
 10266      6D00
 10267              	.LASF214:
 10268 0231 7365716E 		.ascii	"seqno\000"
 10268      6F00
 10269              	.LASF132:
 10270 0237 6E657469 		.ascii	"netif_input_fn\000"
 10270      665F696E 
 10270      7075745F 
 10270      666E00
 10271              	.LASF150:
 10272 0246 7263765F 		.ascii	"rcv_wnd\000"
 10272      776E6400 
 10273              	.LASF71:
ARM GAS  C:\Users\Phuong\AppData\Local\Temp\cc5dKVKJ.s 			page 218


 10274 024e 4D454D50 		.ascii	"MEMP_NETCONN\000"
 10274      5F4E4554 
 10274      434F4E4E 
 10274      00
 10275              	.LASF159:
 10276 025b 63776E64 		.ascii	"cwnd\000"
 10276      00
 10277              	.LASF75:
 10278 0260 4D454D50 		.ascii	"MEMP_IGMP_GROUP\000"
 10278      5F49474D 
 10278      505F4752 
 10278      4F555000 
 10279              	.LASF72:
 10280 0270 4D454D50 		.ascii	"MEMP_TCPIP_MSG_API\000"
 10280      5F544350 
 10280      49505F4D 
 10280      53475F41 
 10280      504900
 10281              	.LASF95:
 10282 0283 6F707465 		.ascii	"opterr\000"
 10282      727200
 10283              	.LASF144:
 10284 028a 6C6F6361 		.ascii	"local_port\000"
 10284      6C5F706F 
 10284      727400
 10285              	.LASF107:
 10286 0295 6D757465 		.ascii	"mutex\000"
 10286      7800
 10287              	.LASF283:
 10288 029b 474E5520 		.ascii	"GNU C11 5.4.1 20160609 (release) [ARM/embedded-5-br"
 10288      43313120 
 10288      352E342E 
 10288      31203230 
 10288      31363036 
 10289 02ce 616E6368 		.ascii	"anch revision 237715] -mcpu=cortex-m0plus -mthumb -"
 10289      20726576 
 10289      6973696F 
 10289      6E203233 
 10289      37373135 
 10290 0301 67202D4F 		.ascii	"g -Og -ffunction-sections -ffat-lto-objects\000"
 10290      67202D66 
 10290      66756E63 
 10290      74696F6E 
 10290      2D736563 
 10291              	.LASF112:
 10292 032d 69705F66 		.ascii	"ip_frag\000"
 10292      72616700 
 10293              	.LASF74:
 10294 0335 4D454D50 		.ascii	"MEMP_ARP_QUEUE\000"
 10294      5F415250 
 10294      5F515545 
 10294      554500
 10295              	.LASF29:
 10296 0344 4552525F 		.ascii	"ERR_TIMEOUT\000"
 10296      54494D45 
 10296      4F555400 
 10297              	.LASF264:
ARM GAS  C:\Users\Phuong\AppData\Local\Temp\cc5dKVKJ.s 			page 219


 10298 0350 69735F66 		.ascii	"is_fin\000"
 10298      696E00
 10299              	.LASF103:
 10300 0357 74785F6C 		.ascii	"tx_leave\000"
 10300      65617665 
 10300      00
 10301              	.LASF130:
 10302 0360 68776164 		.ascii	"hwaddr\000"
 10302      647200
 10303              	.LASF111:
 10304 0367 65746861 		.ascii	"etharp\000"
 10304      727000
 10305              	.LASF209:
 10306 036e 7463705F 		.ascii	"tcp_seg\000"
 10306      73656700 
 10307              	.LASF7:
 10308 0376 6C6F6E67 		.ascii	"long long unsigned int\000"
 10308      206C6F6E 
 10308      6720756E 
 10308      7369676E 
 10308      65642069 
 10309              	.LASF98:
 10310 038d 72785F76 		.ascii	"rx_v1\000"
 10310      3100
 10311              	.LASF114:
 10312 0393 69676D70 		.ascii	"igmp\000"
 10312      00
 10313              	.LASF62:
 10314 0398 6970345F 		.ascii	"ip4_addr_t\000"
 10314      61646472 
 10314      5F7400
 10315              	.LASF193:
 10316 03a3 7463705F 		.ascii	"tcp_state\000"
 10316      73746174 
 10316      6500
 10317              	.LASF153:
 10318 03ad 7274696D 		.ascii	"rtime\000"
 10318      6500
 10319              	.LASF129:
 10320 03b3 68776164 		.ascii	"hwaddr_len\000"
 10320      64725F6C 
 10320      656E00
 10321              	.LASF284:
 10322 03be 536F7572 		.ascii	"Source\\LwIP\\src\\core\\tcp_out.c\000"
 10322      63655C4C 
 10322      7749505C 
 10322      7372635C 
 10322      636F7265 
 10323              	.LASF32:
 10324 03dd 4552525F 		.ascii	"ERR_VAL\000"
 10324      56414C00 
 10325              	.LASF285:
 10326 03e5 433A5C55 		.ascii	"C:\\Users\\Phuong\\Documents\\PSoC Creator\\Dec0820"
 10326      73657273 
 10326      5C506875 
 10326      6F6E675C 
 10326      446F6375 
ARM GAS  C:\Users\Phuong\AppData\Local\Temp\cc5dKVKJ.s 			page 220


 10327 0413 31385C69 		.ascii	"18\\iot-sdk-iot-dev\\PSOC6_FreeRTOS+LwIP+MbedTLS_Az"
 10327      6F742D73 
 10327      646B2D69 
 10327      6F742D64 
 10327      65765C50 
 10328 0444 7572652D 		.ascii	"ure-IOT-Hub-Demo\\PSOC6_FreeRTOS+LwIP+MbedTLS_Azure"
 10328      494F542D 
 10328      4875622D 
 10328      44656D6F 
 10328      5C50534F 
 10329 0476 2D494F54 		.ascii	"-IOT-Hub-Demo.cydsn\000"
 10329      2D487562 
 10329      2D44656D 
 10329      6F2E6379 
 10329      64736E00 
 10330              	.LASF149:
 10331 048a 7263765F 		.ascii	"rcv_nxt\000"
 10331      6E787400 
 10332              	.LASF73:
 10333 0492 4D454D50 		.ascii	"MEMP_TCPIP_MSG_INPKT\000"
 10333      5F544350 
 10333      49505F4D 
 10333      53475F49 
 10333      4E504B54 
 10334              	.LASF51:
 10335 04a7 50425546 		.ascii	"PBUF_REF\000"
 10335      5F524546 
 10335      00
 10336              	.LASF243:
 10337 04b0 65787465 		.ascii	"extendlen\000"
 10337      6E646C65 
 10337      6E00
 10338              	.LASF171:
 10339 04ba 756E6163 		.ascii	"unacked\000"
 10339      6B656400 
 10340              	.LASF252:
 10341 04c2 75736567 		.ascii	"useg\000"
 10341      00
 10342              	.LASF109:
 10343 04c7 73746174 		.ascii	"stats_\000"
 10343      735F00
 10344              	.LASF266:
 10345 04ce 7463705F 		.ascii	"tcp_input_pcb\000"
 10345      696E7075 
 10345      745F7063 
 10345      6200
 10346              	.LASF208:
 10347 04dc 61636365 		.ascii	"accepts_pending\000"
 10347      7074735F 
 10347      70656E64 
 10347      696E6700 
 10348              	.LASF217:
 10349 04ec 63686B73 		.ascii	"chksum\000"
 10349      756D00
 10350              	.LASF10:
 10351 04f3 73697A65 		.ascii	"size_t\000"
 10351      5F7400
ARM GAS  C:\Users\Phuong\AppData\Local\Temp\cc5dKVKJ.s 			page 221


 10352              	.LASF54:
 10353 04fa 7061796C 		.ascii	"payload\000"
 10353      6F616400 
 10354              	.LASF44:
 10355 0502 50425546 		.ascii	"PBUF_IP\000"
 10355      5F495000 
 10356              	.LASF122:
 10357 050a 6F757470 		.ascii	"output\000"
 10357      757400
 10358              	.LASF176:
 10359 0511 636F6E6E 		.ascii	"connected\000"
 10359      65637465 
 10359      6400
 10360              	.LASF234:
 10361 051b 7463705F 		.ascii	"tcp_output_segment\000"
 10361      6F757470 
 10361      75745F73 
 10361      65676D65 
 10361      6E7400
 10362              	.LASF233:
 10363 052e 7365716E 		.ascii	"seqno_be\000"
 10363      6F5F6265 
 10363      00
 10364              	.LASF52:
 10365 0537 50425546 		.ascii	"PBUF_POOL\000"
 10365      5F504F4F 
 10365      4C00
 10366              	.LASF202:
 10367 0541 434C4F53 		.ascii	"CLOSING\000"
 10367      494E4700 
 10368              	.LASF226:
 10369 0549 66697273 		.ascii	"first_seg\000"
 10369      745F7365 
 10369      6700
 10370              	.LASF207:
 10371 0553 6261636B 		.ascii	"backlog\000"
 10371      6C6F6700 
 10372              	.LASF158:
 10373 055b 6C617374 		.ascii	"lastack\000"
 10373      61636B00 
 10374              	.LASF80:
 10375 0563 4D454D50 		.ascii	"MEMP_MAX\000"
 10375      5F4D4158 
 10375      00
 10376              	.LASF18:
 10377 056c 73385F74 		.ascii	"s8_t\000"
 10377      00
 10378              	.LASF22:
 10379 0571 7333325F 		.ascii	"s32_t\000"
 10379      7400
 10380              	.LASF278:
 10381 0577 70627566 		.ascii	"pbuf_clen\000"
 10381      5F636C65 
 10381      6E00
 10382              	.LASF281:
 10383 0581 6970345F 		.ascii	"ip4_route\000"
 10383      726F7574 
ARM GAS  C:\Users\Phuong\AppData\Local\Temp\cc5dKVKJ.s 			page 222


 10383      6500
 10384              	.LASF137:
 10385 058b 7463705F 		.ascii	"tcp_accept_fn\000"
 10385      61636365 
 10385      70745F66 
 10385      6E00
 10386              	.LASF101:
 10387 0599 72785F72 		.ascii	"rx_report\000"
 10387      65706F72 
 10387      7400
 10388              	.LASF33:
 10389 05a3 4552525F 		.ascii	"ERR_WOULDBLOCK\000"
 10389      574F554C 
 10389      44424C4F 
 10389      434B00
 10390              	.LASF155:
 10391 05b2 72747365 		.ascii	"rtseq\000"
 10391      7100
 10392              	.LASF271:
 10393 05b8 70627566 		.ascii	"pbuf_header\000"
 10393      5F686561 
 10393      64657200 
 10394              	.LASF267:
 10395 05c4 7463705F 		.ascii	"tcp_ticks\000"
 10395      7469636B 
 10395      7300
 10396              	.LASF157:
 10397 05ce 64757061 		.ascii	"dupacks\000"
 10397      636B7300 
 10398              	.LASF143:
 10399 05d6 7072696F 		.ascii	"prio\000"
 10399      00
 10400              	.LASF206:
 10401 05db 61636365 		.ascii	"accept\000"
 10401      707400
 10402              	.LASF78:
 10403 05e2 4D454D50 		.ascii	"MEMP_PBUF\000"
 10403      5F504255 
 10403      4600
 10404              	.LASF177:
 10405 05ec 706F6C6C 		.ascii	"poll\000"
 10405      00
 10406              	.LASF126:
 10407 05f1 636C6965 		.ascii	"client_data\000"
 10407      6E745F64 
 10407      61746100 
 10408              	.LASF85:
 10409 05fd 696C6C65 		.ascii	"illegal\000"
 10409      67616C00 
 10410              	.LASF237:
 10411 0605 6C617374 		.ascii	"last_unsent\000"
 10411      5F756E73 
 10411      656E7400 
 10412              	.LASF24:
 10413 0611 6D656D5F 		.ascii	"mem_size_t\000"
 10413      73697A65 
 10413      5F7400
ARM GAS  C:\Users\Phuong\AppData\Local\Temp\cc5dKVKJ.s 			page 223


 10414              	.LASF131:
 10415 061c 69676D70 		.ascii	"igmp_mac_filter\000"
 10415      5F6D6163 
 10415      5F66696C 
 10415      74657200 
 10416              	.LASF86:
 10417 062c 73746174 		.ascii	"stats_proto\000"
 10417      735F7072 
 10417      6F746F00 
 10418              	.LASF201:
 10419 0638 434C4F53 		.ascii	"CLOSE_WAIT\000"
 10419      455F5741 
 10419      495400
 10420              	.LASF59:
 10421 0643 70627566 		.ascii	"pbuf_rom\000"
 10421      5F726F6D 
 10421      00
 10422              	.LASF245:
 10423 064c 73706163 		.ascii	"space\000"
 10423      6500
 10424              	.LASF117:
 10425 0652 4E455449 		.ascii	"NETIF_ADD_MAC_FILTER\000"
 10425      465F4144 
 10425      445F4D41 
 10425      435F4649 
 10425      4C544552 
 10426              	.LASF175:
 10427 0667 73656E74 		.ascii	"sent\000"
 10427      00
 10428              	.LASF162:
 10429 066c 736E645F 		.ascii	"snd_wl1\000"
 10429      776C3100 
 10430              	.LASF163:
 10431 0674 736E645F 		.ascii	"snd_wl2\000"
 10431      776C3200 
 10432              	.LASF210:
 10433 067c 6F766572 		.ascii	"oversize_left\000"
 10433      73697A65 
 10433      5F6C6566 
 10433      7400
 10434              	.LASF268:
 10435 068a 70627566 		.ascii	"pbuf_alloc\000"
 10435      5F616C6C 
 10435      6F6300
 10436              	.LASF270:
 10437 0695 70627566 		.ascii	"pbuf_free\000"
 10437      5F667265 
 10437      6500
 10438              	.LASF164:
 10439 069f 736E645F 		.ascii	"snd_lbb\000"
 10439      6C626200 
 10440              	.LASF70:
 10441 06a7 4D454D50 		.ascii	"MEMP_NETBUF\000"
 10441      5F4E4554 
 10441      42554600 
 10442              	.LASF120:
 10443 06b3 6E65746D 		.ascii	"netmask\000"
ARM GAS  C:\Users\Phuong\AppData\Local\Temp\cc5dKVKJ.s 			page 224


 10443      61736B00 
 10444              	.LASF6:
 10445 06bb 6C6F6E67 		.ascii	"long long int\000"
 10445      206C6F6E 
 10445      6720696E 
 10445      7400
 10446              	.LASF205:
 10447 06c9 7463705F 		.ascii	"tcp_pcb_listen\000"
 10447      7063625F 
 10447      6C697374 
 10447      656E00
 10448              	.LASF38:
 10449 06d8 4552525F 		.ascii	"ERR_IF\000"
 10449      494600
 10450              	.LASF124:
 10451 06df 73746174 		.ascii	"status_callback\000"
 10451      75735F63 
 10451      616C6C62 
 10451      61636B00 
 10452              	.LASF183:
 10453 06ef 70657273 		.ascii	"persist_backoff\000"
 10453      6973745F 
 10453      6261636B 
 10453      6F666600 
 10454              	.LASF242:
 10455 06ff 6F766572 		.ascii	"oversize_add\000"
 10455      73697A65 
 10455      5F616464 
 10455      00
 10456              	.LASF66:
 10457 070c 4D454D50 		.ascii	"MEMP_TCP_PCB\000"
 10457      5F544350 
 10457      5F504342 
 10457      00
 10458              	.LASF17:
 10459 0719 75385F74 		.ascii	"u8_t\000"
 10459      00
 10460              	.LASF141:
 10461 071e 736F5F6F 		.ascii	"so_options\000"
 10461      7074696F 
 10461      6E7300
 10462              	.LASF94:
 10463 0729 70726F74 		.ascii	"proterr\000"
 10463      65727200 
 10464              	.LASF229:
 10465 0731 6F707466 		.ascii	"optflags\000"
 10465      6C616773 
 10465      00
 10466              	.LASF145:
 10467 073a 72656D6F 		.ascii	"remote_port\000"
 10467      74655F70 
 10467      6F727400 
 10468              	.LASF84:
 10469 0746 75736564 		.ascii	"used\000"
 10469      00
 10470              	.LASF249:
 10471 074b 6D61785F 		.ascii	"max_len\000"
ARM GAS  C:\Users\Phuong\AppData\Local\Temp\cc5dKVKJ.s 			page 225


 10471      6C656E00 
 10472              	.LASF203:
 10473 0753 4C415354 		.ascii	"LAST_ACK\000"
 10473      5F41434B 
 10473      00
 10474              	.LASF151:
 10475 075c 7263765F 		.ascii	"rcv_ann_wnd\000"
 10475      616E6E5F 
 10475      776E6400 
 10476              	.LASF90:
 10477 0768 63686B65 		.ascii	"chkerr\000"
 10477      727200
 10478              	.LASF69:
 10479 076f 4D454D50 		.ascii	"MEMP_REASSDATA\000"
 10479      5F524541 
 10479      53534441 
 10479      544100
 10480              	.LASF185:
 10481 077e 7463705F 		.ascii	"tcp_recv_fn\000"
 10481      72656376 
 10481      5F666E00 
 10482              	.LASF45:
 10483 078a 50425546 		.ascii	"PBUF_LINK\000"
 10483      5F4C494E 
 10483      4B00
 10484              	.LASF100:
 10485 0794 72785F67 		.ascii	"rx_general\000"
 10485      656E6572 
 10485      616C00
 10486              	.LASF116:
 10487 079f 4E455449 		.ascii	"NETIF_DEL_MAC_FILTER\000"
 10487      465F4445 
 10487      4C5F4D41 
 10487      435F4649 
 10487      4C544552 
 10488              	.LASF187:
 10489 07b4 7463705F 		.ascii	"tcp_poll_fn\000"
 10489      706F6C6C 
 10489      5F666E00 
 10490              	.LASF256:
 10491 07c0 6F757470 		.ascii	"output_done\000"
 10491      75745F64 
 10491      6F6E6500 
 10492              	.LASF11:
 10493 07cc 6C6F6E67 		.ascii	"long double\000"
 10493      20646F75 
 10493      626C6500 
 10494              	.LASF14:
 10495 07d8 696E7470 		.ascii	"intptr_t\000"
 10495      74725F74 
 10495      00
 10496              	.LASF253:
 10497 07e1 7463705F 		.ascii	"tcp_send_fin\000"
 10497      73656E64 
 10497      5F66696E 
 10497      00
 10498              	.LASF191:
ARM GAS  C:\Users\Phuong\AppData\Local\Temp\cc5dKVKJ.s 			page 226


 10499 07ee 74637066 		.ascii	"tcpflags_t\000"
 10499      6C616773 
 10499      5F7400
 10500              	.LASF178:
 10501 07f9 65727266 		.ascii	"errf\000"
 10501      00
 10502              	.LASF165:
 10503 07fe 736E645F 		.ascii	"snd_wnd\000"
 10503      776E6400 
 10504              	.LASF231:
 10505 0806 7463705F 		.ascii	"tcp_output_alloc_header\000"
 10505      6F757470 
 10505      75745F61 
 10505      6C6C6F63 
 10505      5F686561 
 10506              	.LASF272:
 10507 081e 7463705F 		.ascii	"tcp_seg_free\000"
 10507      7365675F 
 10507      66726565 
 10507      00
 10508              	.LASF258:
 10509 082b 7463705F 		.ascii	"tcp_rst\000"
 10509      72737400 
 10510              	.LASF1:
 10511 0833 756E7369 		.ascii	"unsigned char\000"
 10511      676E6564 
 10511      20636861 
 10511      7200
 10512              	.LASF172:
 10513 0841 6F6F7365 		.ascii	"ooseq\000"
 10513      7100
 10514              	.LASF28:
 10515 0847 4552525F 		.ascii	"ERR_BUF\000"
 10515      42554600 
 10516              	.LASF64:
 10517 084f 4D454D50 		.ascii	"MEMP_RAW_PCB\000"
 10517      5F524157 
 10517      5F504342 
 10517      00
 10518              	.LASF223:
 10519 085c 6D61785F 		.ascii	"max_length\000"
 10519      6C656E67 
 10519      746800
 10520              	.LASF194:
 10521 0867 434C4F53 		.ascii	"CLOSED\000"
 10521      454400
 10522              	.LASF21:
 10523 086e 7533325F 		.ascii	"u32_t\000"
 10523      7400
 10524              	.LASF227:
 10525 0874 616C6C6F 		.ascii	"alloc\000"
 10525      6300
 10526              	.LASF2:
 10527 087a 73686F72 		.ascii	"short int\000"
 10527      7420696E 
 10527      7400
 10528              	.LASF113:
ARM GAS  C:\Users\Phuong\AppData\Local\Temp\cc5dKVKJ.s 			page 227


 10529 0884 69636D70 		.ascii	"icmp\000"
 10529      00
 10530              	.LASF236:
 10531 0889 636F6E63 		.ascii	"concat_p\000"
 10531      61745F70 
 10531      00
 10532              	.LASF4:
 10533 0892 6C6F6E67 		.ascii	"long int\000"
 10533      20696E74 
 10533      00
 10534              	.LASF93:
 10535 089b 72746572 		.ascii	"rterr\000"
 10535      7200
 10536              	.LASF83:
 10537 08a1 61766169 		.ascii	"avail\000"
 10537      6C00
 10538              	.LASF222:
 10539 08a7 6C656E67 		.ascii	"length\000"
 10539      746800
 10540              	.LASF170:
 10541 08ae 756E7365 		.ascii	"unsent\000"
 10541      6E7400
 10542              	.LASF154:
 10543 08b5 72747465 		.ascii	"rttest\000"
 10543      737400
 10544              	.LASF254:
 10545 08bc 7463705F 		.ascii	"tcp_send_empty_ack\000"
 10545      73656E64 
 10545      5F656D70 
 10545      74795F61 
 10545      636B00
 10546              	.LASF277:
 10547 08cf 6970345F 		.ascii	"ip4_output_if\000"
 10547      6F757470 
 10547      75745F69 
 10547      6600
 10548              	.LASF228:
 10549 08dd 7463705F 		.ascii	"tcp_create_segment\000"
 10549      63726561 
 10549      74655F73 
 10549      65676D65 
 10549      6E7400
 10550              	.LASF76:
 10551 08f0 4D454D50 		.ascii	"MEMP_SYS_TIMEOUT\000"
 10551      5F535953 
 10551      5F54494D 
 10551      454F5554 
 10551      00
 10552              	.LASF148:
 10553 0901 6C617374 		.ascii	"last_timer\000"
 10553      5F74696D 
 10553      657200
 10554              	.LASF65:
 10555 090c 4D454D50 		.ascii	"MEMP_UDP_PCB\000"
 10555      5F554450 
 10555      5F504342 
 10555      00
ARM GAS  C:\Users\Phuong\AppData\Local\Temp\cc5dKVKJ.s 			page 228


 10556              	.LASF139:
 10557 0919 6C6F6361 		.ascii	"local_ip\000"
 10557      6C5F6970 
 10557      00
 10558              	.LASF232:
 10559 0922 64617461 		.ascii	"datalen\000"
 10559      6C656E00 
 10560              	.LASF108:
 10561 092a 6D626F78 		.ascii	"mbox\000"
 10561      00
 10562              	.LASF169:
 10563 092f 756E7365 		.ascii	"unsent_oversize\000"
 10563      6E745F6F 
 10563      76657273 
 10563      697A6500 
 10564              	.LASF196:
 10565 093f 53594E5F 		.ascii	"SYN_SENT\000"
 10565      53454E54 
 10565      00
 10566              	.LASF31:
 10567 0948 4552525F 		.ascii	"ERR_INPROGRESS\000"
 10567      494E5052 
 10567      4F475245 
 10567      535300
 10568              	.LASF60:
 10569 0957 6970345F 		.ascii	"ip4_addr\000"
 10569      61646472 
 10569      00
 10570              	.LASF248:
 10571 0960 6C656674 		.ascii	"left\000"
 10571      00
 10572              	.LASF23:
 10573 0965 6D656D5F 		.ascii	"mem_ptr_t\000"
 10573      7074725F 
 10573      7400
 10574              	.LASF198:
 10575 096f 45535441 		.ascii	"ESTABLISHED\000"
 10575      424C4953 
 10575      48454400 
 10576              	.LASF36:
 10577 097b 4552525F 		.ascii	"ERR_ISCONN\000"
 10577      4953434F 
 10577      4E4E00
 10578              	.LASF96:
 10579 0986 63616368 		.ascii	"cachehit\000"
 10579      65686974 
 10579      00
 10580              	.LASF269:
 10581 098f 6D656D70 		.ascii	"memp_malloc_fn\000"
 10581      5F6D616C 
 10581      6C6F635F 
 10581      666E00
 10582              	.LASF166:
 10583 099e 736E645F 		.ascii	"snd_wnd_max\000"
 10583      776E645F 
 10583      6D617800 
 10584              	.LASF235:
ARM GAS  C:\Users\Phuong\AppData\Local\Temp\cc5dKVKJ.s 			page 229


 10585 09aa 6F707473 		.ascii	"opts\000"
 10585      00
 10586              	.LASF134:
 10587 09af 6E657469 		.ascii	"netif_linkoutput_fn\000"
 10587      665F6C69 
 10587      6E6B6F75 
 10587      74707574 
 10587      5F666E00 
 10588              	.LASF127:
 10589 09c3 72735F63 		.ascii	"rs_count\000"
 10589      6F756E74 
 10589      00
 10590              	.LASF160:
 10591 09cc 73737468 		.ascii	"ssthresh\000"
 10591      72657368 
 10591      00
 10592              	.LASF167:
 10593 09d5 736E645F 		.ascii	"snd_buf\000"
 10593      62756600 
 10594              	.LASF147:
 10595 09dd 706F6C6C 		.ascii	"pollinterval\000"
 10595      696E7465 
 10595      7276616C 
 10595      00
 10596              	.LASF115:
 10597 09ea 6D656D70 		.ascii	"memp\000"
 10597      00
 10598              	.LASF216:
 10599 09ef 5F686472 		.ascii	"_hdrlen_rsvd_flags\000"
 10599      6C656E5F 
 10599      72737664 
 10599      5F666C61 
 10599      677300
 10600              	.LASF91:
 10601 0a02 6C656E65 		.ascii	"lenerr\000"
 10601      727200
 10602              	.LASF97:
 10603 0a09 73746174 		.ascii	"stats_igmp\000"
 10603      735F6967 
 10603      6D7000
 10604              	.LASF12:
 10605 0a14 73697A65 		.ascii	"sizetype\000"
 10605      74797065 
 10605      00
 10606              	.LASF5:
 10607 0a1d 6C6F6E67 		.ascii	"long unsigned int\000"
 10607      20756E73 
 10607      69676E65 
 10607      6420696E 
 10607      7400
 10608              	.LASF192:
 10609 0a2f 6E657469 		.ascii	"netif_mac_filter_action\000"
 10609      665F6D61 
 10609      635F6669 
 10609      6C746572 
 10609      5F616374 
 10610              	.LASF15:
ARM GAS  C:\Users\Phuong\AppData\Local\Temp\cc5dKVKJ.s 			page 230


 10611 0a47 666C6F61 		.ascii	"float\000"
 10611      7400
 10612              	.LASF211:
 10613 0a4d 74637068 		.ascii	"tcphdr\000"
 10613      647200
 10614              	.LASF20:
 10615 0a54 7331365F 		.ascii	"s16_t\000"
 10615      7400
 10616              	.LASF48:
 10617 0a5a 70627566 		.ascii	"pbuf_layer\000"
 10617      5F6C6179 
 10617      657200
 10618              	.LASF225:
 10619 0a65 61706966 		.ascii	"apiflags\000"
 10619      6C616773 
 10619      00
 10620              	.LASF173:
 10621 0a6e 72656675 		.ascii	"refused_data\000"
 10621      7365645F 
 10621      64617461 
 10621      00
 10622              	.LASF239:
 10623 0a7b 71756575 		.ascii	"queue\000"
 10623      6500
 10624              	.LASF190:
 10625 0a81 74637077 		.ascii	"tcpwnd_size_t\000"
 10625      6E645F73 
 10625      697A655F 
 10625      7400
 10626              	.LASF238:
 10627 0a8f 70726576 		.ascii	"prev_seg\000"
 10627      5F736567 
 10627      00
 10628              	.LASF212:
 10629 0a98 7463705F 		.ascii	"tcp_hdr\000"
 10629      68647200 
 10630              	.LASF56:
 10631 0aa0 74797065 		.ascii	"type\000"
 10631      00
 10632              	.LASF106:
 10633 0aa5 73746174 		.ascii	"stats_sys\000"
 10633      735F7379 
 10633      7300
 10634              	.LASF58:
 10635 0aaf 70627566 		.ascii	"pbuf\000"
 10635      00
 10636              	.LASF199:
 10637 0ab4 46494E5F 		.ascii	"FIN_WAIT_1\000"
 10637      57414954 
 10637      5F3100
 10638              	.LASF200:
 10639 0abf 46494E5F 		.ascii	"FIN_WAIT_2\000"
 10639      57414954 
 10639      5F3200
 10640              	.LASF92:
 10641 0aca 6D656D65 		.ascii	"memerr\000"
 10641      727200
ARM GAS  C:\Users\Phuong\AppData\Local\Temp\cc5dKVKJ.s 			page 231


 10642              	.LASF68:
 10643 0ad1 4D454D50 		.ascii	"MEMP_TCP_SEG\000"
 10643      5F544350 
 10643      5F534547 
 10643      00
 10644              	.LASF135:
 10645 0ade 6E657469 		.ascii	"netif_status_callback_fn\000"
 10645      665F7374 
 10645      61747573 
 10645      5F63616C 
 10645      6C626163 
 10646              	.LASF110:
 10647 0af7 6C696E6B 		.ascii	"link\000"
 10647      00
 10648              	.LASF179:
 10649 0afc 6B656570 		.ascii	"keep_idle\000"
 10649      5F69646C 
 10649      6500
 10650              	.LASF244:
 10651 0b06 6D73735F 		.ascii	"mss_local\000"
 10651      6C6F6361 
 10651      6C00
 10652              	.LASF142:
 10653 0b10 63616C6C 		.ascii	"callback_arg\000"
 10653      6261636B 
 10653      5F617267 
 10653      00
 10654              	.LASF195:
 10655 0b1d 4C495354 		.ascii	"LISTEN\000"
 10655      454E00
 10656              	.LASF259:
 10657 0b24 7463705F 		.ascii	"tcp_rexmit_rto\000"
 10657      7265786D 
 10657      69745F72 
 10657      746F00
 10658              	.LASF123:
 10659 0b33 6C696E6B 		.ascii	"linkoutput\000"
 10659      6F757470 
 10659      757400
 10660              	.LASF61:
 10661 0b3e 61646472 		.ascii	"addr\000"
 10661      00
 10662              	.LASF102:
 10663 0b43 74785F6A 		.ascii	"tx_join\000"
 10663      6F696E00 
 10664              	.LASF87:
 10665 0b4b 786D6974 		.ascii	"xmit\000"
 10665      00
 10666              	.LASF89:
 10667 0b50 64726F70 		.ascii	"drop\000"
 10667      00
 10668              	.LASF125:
 10669 0b55 73746174 		.ascii	"state\000"
 10669      6500
 10670              	.LASF55:
 10671 0b5b 746F745F 		.ascii	"tot_len\000"
 10671      6C656E00 
ARM GAS  C:\Users\Phuong\AppData\Local\Temp\cc5dKVKJ.s 			page 232


 10672              	.LASF118:
 10673 0b63 6E657469 		.ascii	"netif\000"
 10673      6600
 10674              	.LASF255:
 10675 0b69 7463705F 		.ascii	"tcp_output\000"
 10675      6F757470 
 10675      757400
 10676              	.LASF250:
 10677 0b74 7463705F 		.ascii	"tcp_write\000"
 10677      77726974 
 10677      6500
 10678              	.LASF136:
 10679 0b7e 6E657469 		.ascii	"netif_igmp_mac_filter_fn\000"
 10679      665F6967 
 10679      6D705F6D 
 10679      61635F66 
 10679      696C7465 
 10680              	.LASF26:
 10681 0b97 4552525F 		.ascii	"ERR_OK\000"
 10681      4F4B00
 10682              	.LASF88:
 10683 0b9e 72656376 		.ascii	"recv\000"
 10683      00
 10684              	.LASF0:
 10685 0ba3 7369676E 		.ascii	"signed char\000"
 10685      65642063 
 10685      68617200 
 10686              	.LASF161:
 10687 0baf 736E645F 		.ascii	"snd_nxt\000"
 10687      6E787400 
 10688              	.LASF138:
 10689 0bb7 7463705F 		.ascii	"tcp_pcb\000"
 10689      70636200 
 10690              	.LASF3:
 10691 0bbf 73686F72 		.ascii	"short unsigned int\000"
 10691      7420756E 
 10691      7369676E 
 10691      65642069 
 10691      6E7400
 10692              	.LASF247:
 10693 0bd2 7365676C 		.ascii	"seglen\000"
 10693      656E00
 10694              	.LASF257:
 10695 0bd9 6375725F 		.ascii	"cur_seg\000"
 10695      73656700 
 10696              	.LASF286:
 10697 0be1 6D656D63 		.ascii	"memcpy\000"
 10697      707900
 10698              	.LASF240:
 10699 0be8 71756575 		.ascii	"queuelen\000"
 10699      656C656E 
 10699      00
 10700              	.LASF37:
 10701 0bf1 4552525F 		.ascii	"ERR_CONN\000"
 10701      434F4E4E 
 10701      00
 10702              	.LASF182:
ARM GAS  C:\Users\Phuong\AppData\Local\Temp\cc5dKVKJ.s 			page 233


 10703 0bfa 70657273 		.ascii	"persist_cnt\000"
 10703      6973745F 
 10703      636E7400 
 10704              	.LASF140:
 10705 0c06 72656D6F 		.ascii	"remote_ip\000"
 10705      74655F69 
 10705      7000
 10706              	.LASF30:
 10707 0c10 4552525F 		.ascii	"ERR_RTE\000"
 10707      52544500 
 10708              	.LASF16:
 10709 0c18 646F7562 		.ascii	"double\000"
 10709      6C6500
 10710              	.LASF261:
 10711 0c1f 7463705F 		.ascii	"tcp_rexmit_fast\000"
 10711      7265786D 
 10711      69745F66 
 10711      61737400 
 10712              	.LASF180:
 10713 0c2f 6B656570 		.ascii	"keep_intvl\000"
 10713      5F696E74 
 10713      766C00
 10714              	.LASF275:
 10715 0c3a 7463705F 		.ascii	"tcp_eff_send_mss_impl\000"
 10715      6566665F 
 10715      73656E64 
 10715      5F6D7373 
 10715      5F696D70 
 10716              	.LASF63:
 10717 0c50 69705F61 		.ascii	"ip_addr_t\000"
 10717      6464725F 
 10717      7400
 10718              	.LASF280:
 10719 0c5a 7463705F 		.ascii	"tcp_segs_free\000"
 10719      73656773 
 10719      5F667265 
 10719      6500
 10720              	.LASF77:
 10721 0c68 4D454D50 		.ascii	"MEMP_NETDB\000"
 10721      5F4E4554 
 10721      444200
 10722              	.LASF279:
 10723 0c73 70627566 		.ascii	"pbuf_cat\000"
 10723      5F636174 
 10723      00
 10724              	.LASF104:
 10725 0c7c 74785F72 		.ascii	"tx_report\000"
 10725      65706F72 
 10725      7400
 10726              	.LASF46:
 10727 0c86 50425546 		.ascii	"PBUF_RAW_TX\000"
 10727      5F524157 
 10727      5F545800 
 10728              	.LASF50:
 10729 0c92 50425546 		.ascii	"PBUF_ROM\000"
 10729      5F524F4D 
 10729      00
ARM GAS  C:\Users\Phuong\AppData\Local\Temp\cc5dKVKJ.s 			page 234


 10730              	.LASF188:
 10731 0c9b 7463705F 		.ascii	"tcp_err_fn\000"
 10731      6572725F 
 10731      666E00
 10732              	.LASF156:
 10733 0ca6 6E727478 		.ascii	"nrtx\000"
 10733      00
 10734              	.LASF168:
 10735 0cab 736E645F 		.ascii	"snd_queuelen\000"
 10735      71756575 
 10735      656C656E 
 10735      00
 10736              	.LASF27:
 10737 0cb8 4552525F 		.ascii	"ERR_MEM\000"
 10737      4D454D00 
 10738              	.LASF213:
 10739 0cc0 64657374 		.ascii	"dest\000"
 10739      00
 10740              	.LASF197:
 10741 0cc5 53594E5F 		.ascii	"SYN_RCVD\000"
 10741      52435644 
 10741      00
 10742              	.LASF119:
 10743 0cce 69705F61 		.ascii	"ip_addr\000"
 10743      64647200 
 10744              	.LASF99:
 10745 0cd6 72785F67 		.ascii	"rx_group\000"
 10745      726F7570 
 10745      00
 10746              		.ident	"GCC: (GNU Tools for ARM Embedded Processors) 5.4.1 20160609 (release) [ARM/embedded-5-bran
