ARM GAS  C:\Users\Phuong\AppData\Local\Temp\cc5dKVKJ.s 			page 1


   1              		.syntax unified
   2              		.cpu cortex-m0plus
   3              		.fpu softvfp
   4              		.eabi_attribute 20, 1
   5              		.eabi_attribute 21, 1
   6              		.eabi_attribute 23, 3
   7              		.eabi_attribute 24, 1
   8              		.eabi_attribute 25, 1
   9              		.eabi_attribute 26, 1
  10              		.eabi_attribute 30, 1
  11              		.eabi_attribute 34, 0
  12              		.eabi_attribute 18, 4
  13              		.thumb
  14              		.syntax unified
  15              		.file	"tcp_out.c"
  16              		.text
  17              	.Ltext0:
  18              		.cfi_sections	.debug_frame
  19              		.section	.text.tcp_write_checks,"ax",%progbits
  20              		.align	2
  21              		.code	16
  22              		.thumb_func
  23              		.type	tcp_write_checks, %function
  24              	tcp_write_checks:
  25              	.LFB57:
  26              		.file 1 "Source\\LwIP\\src\\core\\tcp_out.c"
   1:Source\LwIP\src\core/tcp_out.c **** /**
   2:Source\LwIP\src\core/tcp_out.c ****  * @file
   3:Source\LwIP\src\core/tcp_out.c ****  * Transmission Control Protocol, outgoing traffic
   4:Source\LwIP\src\core/tcp_out.c ****  *
   5:Source\LwIP\src\core/tcp_out.c ****  * The output functions of TCP.
   6:Source\LwIP\src\core/tcp_out.c ****  *
   7:Source\LwIP\src\core/tcp_out.c ****  */
   8:Source\LwIP\src\core/tcp_out.c **** 
   9:Source\LwIP\src\core/tcp_out.c **** /*
  10:Source\LwIP\src\core/tcp_out.c ****  * Copyright (c) 2001-2004 Swedish Institute of Computer Science.
  11:Source\LwIP\src\core/tcp_out.c ****  * All rights reserved.
  12:Source\LwIP\src\core/tcp_out.c ****  *
  13:Source\LwIP\src\core/tcp_out.c ****  * Redistribution and use in source and binary forms, with or without modification,
  14:Source\LwIP\src\core/tcp_out.c ****  * are permitted provided that the following conditions are met:
  15:Source\LwIP\src\core/tcp_out.c ****  *
  16:Source\LwIP\src\core/tcp_out.c ****  * 1. Redistributions of source code must retain the above copyright notice,
  17:Source\LwIP\src\core/tcp_out.c ****  *    this list of conditions and the following disclaimer.
  18:Source\LwIP\src\core/tcp_out.c ****  * 2. Redistributions in binary form must reproduce the above copyright notice,
  19:Source\LwIP\src\core/tcp_out.c ****  *    this list of conditions and the following disclaimer in the documentation
  20:Source\LwIP\src\core/tcp_out.c ****  *    and/or other materials provided with the distribution.
  21:Source\LwIP\src\core/tcp_out.c ****  * 3. The name of the author may not be used to endorse or promote products
  22:Source\LwIP\src\core/tcp_out.c ****  *    derived from this software without specific prior written permission.
  23:Source\LwIP\src\core/tcp_out.c ****  *
  24:Source\LwIP\src\core/tcp_out.c ****  * THIS SOFTWARE IS PROVIDED BY THE AUTHOR ``AS IS'' AND ANY EXPRESS OR IMPLIED
  25:Source\LwIP\src\core/tcp_out.c ****  * WARRANTIES, INCLUDING, BUT NOT LIMITED TO, THE IMPLIED WARRANTIES OF
  26:Source\LwIP\src\core/tcp_out.c ****  * MERCHANTABILITY AND FITNESS FOR A PARTICULAR PURPOSE ARE DISCLAIMED. IN NO EVENT
  27:Source\LwIP\src\core/tcp_out.c ****  * SHALL THE AUTHOR BE LIABLE FOR ANY DIRECT, INDIRECT, INCIDENTAL, SPECIAL,
  28:Source\LwIP\src\core/tcp_out.c ****  * EXEMPLARY, OR CONSEQUENTIAL DAMAGES (INCLUDING, BUT NOT LIMITED TO, PROCUREMENT
  29:Source\LwIP\src\core/tcp_out.c ****  * OF SUBSTITUTE GOODS OR SERVICES; LOSS OF USE, DATA, OR PROFITS; OR BUSINESS
  30:Source\LwIP\src\core/tcp_out.c ****  * INTERRUPTION) HOWEVER CAUSED AND ON ANY THEORY OF LIABILITY, WHETHER IN
  31:Source\LwIP\src\core/tcp_out.c ****  * CONTRACT, STRICT LIABILITY, OR TORT (INCLUDING NEGLIGENCE OR OTHERWISE) ARISING
ARM GAS  C:\Users\Phuong\AppData\Local\Temp\cc5dKVKJ.s 			page 2


  32:Source\LwIP\src\core/tcp_out.c ****  * IN ANY WAY OUT OF THE USE OF THIS SOFTWARE, EVEN IF ADVISED OF THE POSSIBILITY
  33:Source\LwIP\src\core/tcp_out.c ****  * OF SUCH DAMAGE.
  34:Source\LwIP\src\core/tcp_out.c ****  *
  35:Source\LwIP\src\core/tcp_out.c ****  * This file is part of the lwIP TCP/IP stack.
  36:Source\LwIP\src\core/tcp_out.c ****  *
  37:Source\LwIP\src\core/tcp_out.c ****  * Author: Adam Dunkels <adam@sics.se>
  38:Source\LwIP\src\core/tcp_out.c ****  *
  39:Source\LwIP\src\core/tcp_out.c ****  */
  40:Source\LwIP\src\core/tcp_out.c **** 
  41:Source\LwIP\src\core/tcp_out.c **** #include "lwip/opt.h"
  42:Source\LwIP\src\core/tcp_out.c **** 
  43:Source\LwIP\src\core/tcp_out.c **** #if LWIP_TCP /* don't build if not configured for use in lwipopts.h */
  44:Source\LwIP\src\core/tcp_out.c **** 
  45:Source\LwIP\src\core/tcp_out.c **** #include "lwip/priv/tcp_priv.h"
  46:Source\LwIP\src\core/tcp_out.c **** #include "lwip/def.h"
  47:Source\LwIP\src\core/tcp_out.c **** #include "lwip/mem.h"
  48:Source\LwIP\src\core/tcp_out.c **** #include "lwip/memp.h"
  49:Source\LwIP\src\core/tcp_out.c **** #include "lwip/ip_addr.h"
  50:Source\LwIP\src\core/tcp_out.c **** #include "lwip/netif.h"
  51:Source\LwIP\src\core/tcp_out.c **** #include "lwip/inet_chksum.h"
  52:Source\LwIP\src\core/tcp_out.c **** #include "lwip/stats.h"
  53:Source\LwIP\src\core/tcp_out.c **** #include "lwip/ip6.h"
  54:Source\LwIP\src\core/tcp_out.c **** #include "lwip/ip6_addr.h"
  55:Source\LwIP\src\core/tcp_out.c **** #if LWIP_TCP_TIMESTAMPS
  56:Source\LwIP\src\core/tcp_out.c **** #include "lwip/sys.h"
  57:Source\LwIP\src\core/tcp_out.c **** #endif
  58:Source\LwIP\src\core/tcp_out.c **** 
  59:Source\LwIP\src\core/tcp_out.c **** #include <string.h>
  60:Source\LwIP\src\core/tcp_out.c **** 
  61:Source\LwIP\src\core/tcp_out.c **** /* Define some copy-macros for checksum-on-copy so that the code looks
  62:Source\LwIP\src\core/tcp_out.c ****    nicer by preventing too many ifdef's. */
  63:Source\LwIP\src\core/tcp_out.c **** #if TCP_CHECKSUM_ON_COPY
  64:Source\LwIP\src\core/tcp_out.c **** #define TCP_DATA_COPY(dst, src, len, seg) do { \
  65:Source\LwIP\src\core/tcp_out.c ****   tcp_seg_add_chksum(LWIP_CHKSUM_COPY(dst, src, len), \
  66:Source\LwIP\src\core/tcp_out.c ****                      len, &seg->chksum, &seg->chksum_swapped); \
  67:Source\LwIP\src\core/tcp_out.c ****   seg->flags |= TF_SEG_DATA_CHECKSUMMED; } while(0)
  68:Source\LwIP\src\core/tcp_out.c **** #define TCP_DATA_COPY2(dst, src, len, chksum, chksum_swapped)  \
  69:Source\LwIP\src\core/tcp_out.c ****   tcp_seg_add_chksum(LWIP_CHKSUM_COPY(dst, src, len), len, chksum, chksum_swapped);
  70:Source\LwIP\src\core/tcp_out.c **** #else /* TCP_CHECKSUM_ON_COPY*/
  71:Source\LwIP\src\core/tcp_out.c **** #define TCP_DATA_COPY(dst, src, len, seg)                     MEMCPY(dst, src, len)
  72:Source\LwIP\src\core/tcp_out.c **** #define TCP_DATA_COPY2(dst, src, len, chksum, chksum_swapped) MEMCPY(dst, src, len)
  73:Source\LwIP\src\core/tcp_out.c **** #endif /* TCP_CHECKSUM_ON_COPY*/
  74:Source\LwIP\src\core/tcp_out.c **** 
  75:Source\LwIP\src\core/tcp_out.c **** /** Define this to 1 for an extra check that the output checksum is valid
  76:Source\LwIP\src\core/tcp_out.c ****  * (usefule when the checksum is generated by the application, not the stack) */
  77:Source\LwIP\src\core/tcp_out.c **** #ifndef TCP_CHECKSUM_ON_COPY_SANITY_CHECK
  78:Source\LwIP\src\core/tcp_out.c **** #define TCP_CHECKSUM_ON_COPY_SANITY_CHECK   0
  79:Source\LwIP\src\core/tcp_out.c **** #endif
  80:Source\LwIP\src\core/tcp_out.c **** /* Allow to override the failure of sanity check from warning to e.g. hard failure */
  81:Source\LwIP\src\core/tcp_out.c **** #if TCP_CHECKSUM_ON_COPY_SANITY_CHECK
  82:Source\LwIP\src\core/tcp_out.c **** #ifndef TCP_CHECKSUM_ON_COPY_SANITY_CHECK_FAIL
  83:Source\LwIP\src\core/tcp_out.c **** #define TCP_CHECKSUM_ON_COPY_SANITY_CHECK_FAIL(msg) LWIP_DEBUGF(TCP_DEBUG | LWIP_DBG_LEVEL_WARNING,
  84:Source\LwIP\src\core/tcp_out.c **** #endif
  85:Source\LwIP\src\core/tcp_out.c **** #endif
  86:Source\LwIP\src\core/tcp_out.c **** 
  87:Source\LwIP\src\core/tcp_out.c **** #if TCP_OVERSIZE
  88:Source\LwIP\src\core/tcp_out.c **** /** The size of segment pbufs created when TCP_OVERSIZE is enabled */
ARM GAS  C:\Users\Phuong\AppData\Local\Temp\cc5dKVKJ.s 			page 3


  89:Source\LwIP\src\core/tcp_out.c **** #ifndef TCP_OVERSIZE_CALC_LENGTH
  90:Source\LwIP\src\core/tcp_out.c **** #define TCP_OVERSIZE_CALC_LENGTH(length) ((length) + TCP_OVERSIZE)
  91:Source\LwIP\src\core/tcp_out.c **** #endif
  92:Source\LwIP\src\core/tcp_out.c **** #endif
  93:Source\LwIP\src\core/tcp_out.c **** 
  94:Source\LwIP\src\core/tcp_out.c **** /* Forward declarations.*/
  95:Source\LwIP\src\core/tcp_out.c **** static err_t tcp_output_segment(struct tcp_seg *seg, struct tcp_pcb *pcb, struct netif *netif);
  96:Source\LwIP\src\core/tcp_out.c **** 
  97:Source\LwIP\src\core/tcp_out.c **** /** Allocate a pbuf and create a tcphdr at p->payload, used for output
  98:Source\LwIP\src\core/tcp_out.c ****  * functions other than the default tcp_output -> tcp_output_segment
  99:Source\LwIP\src\core/tcp_out.c ****  * (e.g. tcp_send_empty_ack, etc.)
 100:Source\LwIP\src\core/tcp_out.c ****  *
 101:Source\LwIP\src\core/tcp_out.c ****  * @param pcb tcp pcb for which to send a packet (used to initialize tcp_hdr)
 102:Source\LwIP\src\core/tcp_out.c ****  * @param optlen length of header-options
 103:Source\LwIP\src\core/tcp_out.c ****  * @param datalen length of tcp data to reserve in pbuf
 104:Source\LwIP\src\core/tcp_out.c ****  * @param seqno_be seqno in network byte order (big-endian)
 105:Source\LwIP\src\core/tcp_out.c ****  * @return pbuf with p->payload being the tcp_hdr
 106:Source\LwIP\src\core/tcp_out.c ****  */
 107:Source\LwIP\src\core/tcp_out.c **** static struct pbuf *
 108:Source\LwIP\src\core/tcp_out.c **** tcp_output_alloc_header(struct tcp_pcb *pcb, u16_t optlen, u16_t datalen,
 109:Source\LwIP\src\core/tcp_out.c ****                       u32_t seqno_be /* already in network byte order */)
 110:Source\LwIP\src\core/tcp_out.c **** {
 111:Source\LwIP\src\core/tcp_out.c ****   struct tcp_hdr *tcphdr;
 112:Source\LwIP\src\core/tcp_out.c ****   struct pbuf *p = pbuf_alloc(PBUF_IP, TCP_HLEN + optlen + datalen, PBUF_RAM);
 113:Source\LwIP\src\core/tcp_out.c ****   if (p != NULL) {
 114:Source\LwIP\src\core/tcp_out.c ****     LWIP_ASSERT("check that first pbuf can hold struct tcp_hdr",
 115:Source\LwIP\src\core/tcp_out.c ****                  (p->len >= TCP_HLEN + optlen));
 116:Source\LwIP\src\core/tcp_out.c ****     tcphdr = (struct tcp_hdr *)p->payload;
 117:Source\LwIP\src\core/tcp_out.c ****     tcphdr->src = lwip_htons(pcb->local_port);
 118:Source\LwIP\src\core/tcp_out.c ****     tcphdr->dest = lwip_htons(pcb->remote_port);
 119:Source\LwIP\src\core/tcp_out.c ****     tcphdr->seqno = seqno_be;
 120:Source\LwIP\src\core/tcp_out.c ****     tcphdr->ackno = lwip_htonl(pcb->rcv_nxt);
 121:Source\LwIP\src\core/tcp_out.c ****     TCPH_HDRLEN_FLAGS_SET(tcphdr, (5 + optlen / 4), TCP_ACK);
 122:Source\LwIP\src\core/tcp_out.c ****     tcphdr->wnd = lwip_htons(TCPWND_MIN16(RCV_WND_SCALE(pcb, pcb->rcv_ann_wnd)));
 123:Source\LwIP\src\core/tcp_out.c ****     tcphdr->chksum = 0;
 124:Source\LwIP\src\core/tcp_out.c ****     tcphdr->urgp = 0;
 125:Source\LwIP\src\core/tcp_out.c **** 
 126:Source\LwIP\src\core/tcp_out.c ****     /* If we're sending a packet, update the announced right window edge */
 127:Source\LwIP\src\core/tcp_out.c ****     pcb->rcv_ann_right_edge = pcb->rcv_nxt + pcb->rcv_ann_wnd;
 128:Source\LwIP\src\core/tcp_out.c ****   }
 129:Source\LwIP\src\core/tcp_out.c ****   return p;
 130:Source\LwIP\src\core/tcp_out.c **** }
 131:Source\LwIP\src\core/tcp_out.c **** 
 132:Source\LwIP\src\core/tcp_out.c **** /**
 133:Source\LwIP\src\core/tcp_out.c ****  * Called by tcp_close() to send a segment including FIN flag but not data.
 134:Source\LwIP\src\core/tcp_out.c ****  *
 135:Source\LwIP\src\core/tcp_out.c ****  * @param pcb the tcp_pcb over which to send a segment
 136:Source\LwIP\src\core/tcp_out.c ****  * @return ERR_OK if sent, another err_t otherwise
 137:Source\LwIP\src\core/tcp_out.c ****  */
 138:Source\LwIP\src\core/tcp_out.c **** err_t
 139:Source\LwIP\src\core/tcp_out.c **** tcp_send_fin(struct tcp_pcb *pcb)
 140:Source\LwIP\src\core/tcp_out.c **** {
 141:Source\LwIP\src\core/tcp_out.c ****   /* first, try to add the fin to the last unsent segment */
 142:Source\LwIP\src\core/tcp_out.c ****   if (pcb->unsent != NULL) {
 143:Source\LwIP\src\core/tcp_out.c ****     struct tcp_seg *last_unsent;
 144:Source\LwIP\src\core/tcp_out.c ****     for (last_unsent = pcb->unsent; last_unsent->next != NULL;
 145:Source\LwIP\src\core/tcp_out.c ****          last_unsent = last_unsent->next);
ARM GAS  C:\Users\Phuong\AppData\Local\Temp\cc5dKVKJ.s 			page 4


 146:Source\LwIP\src\core/tcp_out.c **** 
 147:Source\LwIP\src\core/tcp_out.c ****     if ((TCPH_FLAGS(last_unsent->tcphdr) & (TCP_SYN | TCP_FIN | TCP_RST)) == 0) {
 148:Source\LwIP\src\core/tcp_out.c ****       /* no SYN/FIN/RST flag in the header, we can add the FIN flag */
 149:Source\LwIP\src\core/tcp_out.c ****       TCPH_SET_FLAG(last_unsent->tcphdr, TCP_FIN);
 150:Source\LwIP\src\core/tcp_out.c ****       pcb->flags |= TF_FIN;
 151:Source\LwIP\src\core/tcp_out.c ****       return ERR_OK;
 152:Source\LwIP\src\core/tcp_out.c ****     }
 153:Source\LwIP\src\core/tcp_out.c ****   }
 154:Source\LwIP\src\core/tcp_out.c ****   /* no data, no length, flags, copy=1, no optdata */
 155:Source\LwIP\src\core/tcp_out.c ****   return tcp_enqueue_flags(pcb, TCP_FIN);
 156:Source\LwIP\src\core/tcp_out.c **** }
 157:Source\LwIP\src\core/tcp_out.c **** 
 158:Source\LwIP\src\core/tcp_out.c **** /**
 159:Source\LwIP\src\core/tcp_out.c ****  * Create a TCP segment with prefilled header.
 160:Source\LwIP\src\core/tcp_out.c ****  *
 161:Source\LwIP\src\core/tcp_out.c ****  * Called by tcp_write and tcp_enqueue_flags.
 162:Source\LwIP\src\core/tcp_out.c ****  *
 163:Source\LwIP\src\core/tcp_out.c ****  * @param pcb Protocol control block for the TCP connection.
 164:Source\LwIP\src\core/tcp_out.c ****  * @param p pbuf that is used to hold the TCP header.
 165:Source\LwIP\src\core/tcp_out.c ****  * @param flags TCP flags for header.
 166:Source\LwIP\src\core/tcp_out.c ****  * @param seqno TCP sequence number of this packet
 167:Source\LwIP\src\core/tcp_out.c ****  * @param optflags options to include in TCP header
 168:Source\LwIP\src\core/tcp_out.c ****  * @return a new tcp_seg pointing to p, or NULL.
 169:Source\LwIP\src\core/tcp_out.c ****  * The TCP header is filled in except ackno and wnd.
 170:Source\LwIP\src\core/tcp_out.c ****  * p is freed on failure.
 171:Source\LwIP\src\core/tcp_out.c ****  */
 172:Source\LwIP\src\core/tcp_out.c **** static struct tcp_seg *
 173:Source\LwIP\src\core/tcp_out.c **** tcp_create_segment(struct tcp_pcb *pcb, struct pbuf *p, u8_t flags, u32_t seqno, u8_t optflags)
 174:Source\LwIP\src\core/tcp_out.c **** {
 175:Source\LwIP\src\core/tcp_out.c ****   struct tcp_seg *seg;
 176:Source\LwIP\src\core/tcp_out.c ****   u8_t optlen = LWIP_TCP_OPT_LENGTH(optflags);
 177:Source\LwIP\src\core/tcp_out.c **** 
 178:Source\LwIP\src\core/tcp_out.c ****   if ((seg = (struct tcp_seg *)memp_malloc(MEMP_TCP_SEG)) == NULL) {
 179:Source\LwIP\src\core/tcp_out.c ****     LWIP_DEBUGF(TCP_OUTPUT_DEBUG | LWIP_DBG_LEVEL_SERIOUS, ("tcp_create_segment: no memory.\n"));
 180:Source\LwIP\src\core/tcp_out.c ****     pbuf_free(p);
 181:Source\LwIP\src\core/tcp_out.c ****     return NULL;
 182:Source\LwIP\src\core/tcp_out.c ****   }
 183:Source\LwIP\src\core/tcp_out.c ****   seg->flags = optflags;
 184:Source\LwIP\src\core/tcp_out.c ****   seg->next = NULL;
 185:Source\LwIP\src\core/tcp_out.c ****   seg->p = p;
 186:Source\LwIP\src\core/tcp_out.c ****   LWIP_ASSERT("p->tot_len >= optlen", p->tot_len >= optlen);
 187:Source\LwIP\src\core/tcp_out.c ****   seg->len = p->tot_len - optlen;
 188:Source\LwIP\src\core/tcp_out.c **** #if TCP_OVERSIZE_DBGCHECK
 189:Source\LwIP\src\core/tcp_out.c ****   seg->oversize_left = 0;
 190:Source\LwIP\src\core/tcp_out.c **** #endif /* TCP_OVERSIZE_DBGCHECK */
 191:Source\LwIP\src\core/tcp_out.c **** #if TCP_CHECKSUM_ON_COPY
 192:Source\LwIP\src\core/tcp_out.c ****   seg->chksum = 0;
 193:Source\LwIP\src\core/tcp_out.c ****   seg->chksum_swapped = 0;
 194:Source\LwIP\src\core/tcp_out.c ****   /* check optflags */
 195:Source\LwIP\src\core/tcp_out.c ****   LWIP_ASSERT("invalid optflags passed: TF_SEG_DATA_CHECKSUMMED",
 196:Source\LwIP\src\core/tcp_out.c ****               (optflags & TF_SEG_DATA_CHECKSUMMED) == 0);
 197:Source\LwIP\src\core/tcp_out.c **** #endif /* TCP_CHECKSUM_ON_COPY */
 198:Source\LwIP\src\core/tcp_out.c **** 
 199:Source\LwIP\src\core/tcp_out.c ****   /* build TCP header */
 200:Source\LwIP\src\core/tcp_out.c ****   if (pbuf_header(p, TCP_HLEN)) {
 201:Source\LwIP\src\core/tcp_out.c ****     LWIP_DEBUGF(TCP_OUTPUT_DEBUG | LWIP_DBG_LEVEL_SERIOUS, ("tcp_create_segment: no room for TCP he
 202:Source\LwIP\src\core/tcp_out.c ****     TCP_STATS_INC(tcp.err);
ARM GAS  C:\Users\Phuong\AppData\Local\Temp\cc5dKVKJ.s 			page 5


 203:Source\LwIP\src\core/tcp_out.c ****     tcp_seg_free(seg);
 204:Source\LwIP\src\core/tcp_out.c ****     return NULL;
 205:Source\LwIP\src\core/tcp_out.c ****   }
 206:Source\LwIP\src\core/tcp_out.c ****   seg->tcphdr = (struct tcp_hdr *)seg->p->payload;
 207:Source\LwIP\src\core/tcp_out.c ****   seg->tcphdr->src = lwip_htons(pcb->local_port);
 208:Source\LwIP\src\core/tcp_out.c ****   seg->tcphdr->dest = lwip_htons(pcb->remote_port);
 209:Source\LwIP\src\core/tcp_out.c ****   seg->tcphdr->seqno = lwip_htonl(seqno);
 210:Source\LwIP\src\core/tcp_out.c ****   /* ackno is set in tcp_output */
 211:Source\LwIP\src\core/tcp_out.c ****   TCPH_HDRLEN_FLAGS_SET(seg->tcphdr, (5 + optlen / 4), flags);
 212:Source\LwIP\src\core/tcp_out.c ****   /* wnd and chksum are set in tcp_output */
 213:Source\LwIP\src\core/tcp_out.c ****   seg->tcphdr->urgp = 0;
 214:Source\LwIP\src\core/tcp_out.c ****   return seg;
 215:Source\LwIP\src\core/tcp_out.c **** }
 216:Source\LwIP\src\core/tcp_out.c **** 
 217:Source\LwIP\src\core/tcp_out.c **** /**
 218:Source\LwIP\src\core/tcp_out.c ****  * Allocate a PBUF_RAM pbuf, perhaps with extra space at the end.
 219:Source\LwIP\src\core/tcp_out.c ****  *
 220:Source\LwIP\src\core/tcp_out.c ****  * This function is like pbuf_alloc(layer, length, PBUF_RAM) except
 221:Source\LwIP\src\core/tcp_out.c ****  * there may be extra bytes available at the end.
 222:Source\LwIP\src\core/tcp_out.c ****  *
 223:Source\LwIP\src\core/tcp_out.c ****  * @param layer flag to define header size.
 224:Source\LwIP\src\core/tcp_out.c ****  * @param length size of the pbuf's payload.
 225:Source\LwIP\src\core/tcp_out.c ****  * @param max_length maximum usable size of payload+oversize.
 226:Source\LwIP\src\core/tcp_out.c ****  * @param oversize pointer to a u16_t that will receive the number of usable tail bytes.
 227:Source\LwIP\src\core/tcp_out.c ****  * @param pcb The TCP connection that will enqueue the pbuf.
 228:Source\LwIP\src\core/tcp_out.c ****  * @param apiflags API flags given to tcp_write.
 229:Source\LwIP\src\core/tcp_out.c ****  * @param first_seg true when this pbuf will be used in the first enqueued segment.
 230:Source\LwIP\src\core/tcp_out.c ****  */
 231:Source\LwIP\src\core/tcp_out.c **** #if TCP_OVERSIZE
 232:Source\LwIP\src\core/tcp_out.c **** static struct pbuf *
 233:Source\LwIP\src\core/tcp_out.c **** tcp_pbuf_prealloc(pbuf_layer layer, u16_t length, u16_t max_length,
 234:Source\LwIP\src\core/tcp_out.c ****                   u16_t *oversize, struct tcp_pcb *pcb, u8_t apiflags,
 235:Source\LwIP\src\core/tcp_out.c ****                   u8_t first_seg)
 236:Source\LwIP\src\core/tcp_out.c **** {
 237:Source\LwIP\src\core/tcp_out.c ****   struct pbuf *p;
 238:Source\LwIP\src\core/tcp_out.c ****   u16_t alloc = length;
 239:Source\LwIP\src\core/tcp_out.c **** 
 240:Source\LwIP\src\core/tcp_out.c **** #if LWIP_NETIF_TX_SINGLE_PBUF
 241:Source\LwIP\src\core/tcp_out.c ****   LWIP_UNUSED_ARG(max_length);
 242:Source\LwIP\src\core/tcp_out.c ****   LWIP_UNUSED_ARG(pcb);
 243:Source\LwIP\src\core/tcp_out.c ****   LWIP_UNUSED_ARG(apiflags);
 244:Source\LwIP\src\core/tcp_out.c ****   LWIP_UNUSED_ARG(first_seg);
 245:Source\LwIP\src\core/tcp_out.c ****   alloc = max_length;
 246:Source\LwIP\src\core/tcp_out.c **** #else /* LWIP_NETIF_TX_SINGLE_PBUF */
 247:Source\LwIP\src\core/tcp_out.c ****   if (length < max_length) {
 248:Source\LwIP\src\core/tcp_out.c ****     /* Should we allocate an oversized pbuf, or just the minimum
 249:Source\LwIP\src\core/tcp_out.c ****      * length required? If tcp_write is going to be called again
 250:Source\LwIP\src\core/tcp_out.c ****      * before this segment is transmitted, we want the oversized
 251:Source\LwIP\src\core/tcp_out.c ****      * buffer. If the segment will be transmitted immediately, we can
 252:Source\LwIP\src\core/tcp_out.c ****      * save memory by allocating only length. We use a simple
 253:Source\LwIP\src\core/tcp_out.c ****      * heuristic based on the following information:
 254:Source\LwIP\src\core/tcp_out.c ****      *
 255:Source\LwIP\src\core/tcp_out.c ****      * Did the user set TCP_WRITE_FLAG_MORE?
 256:Source\LwIP\src\core/tcp_out.c ****      *
 257:Source\LwIP\src\core/tcp_out.c ****      * Will the Nagle algorithm defer transmission of this segment?
 258:Source\LwIP\src\core/tcp_out.c ****      */
 259:Source\LwIP\src\core/tcp_out.c ****     if ((apiflags & TCP_WRITE_FLAG_MORE) ||
ARM GAS  C:\Users\Phuong\AppData\Local\Temp\cc5dKVKJ.s 			page 6


 260:Source\LwIP\src\core/tcp_out.c ****         (!(pcb->flags & TF_NODELAY) &&
 261:Source\LwIP\src\core/tcp_out.c ****          (!first_seg ||
 262:Source\LwIP\src\core/tcp_out.c ****           pcb->unsent != NULL ||
 263:Source\LwIP\src\core/tcp_out.c ****           pcb->unacked != NULL))) {
 264:Source\LwIP\src\core/tcp_out.c ****       alloc = LWIP_MIN(max_length, LWIP_MEM_ALIGN_SIZE(TCP_OVERSIZE_CALC_LENGTH(length)));
 265:Source\LwIP\src\core/tcp_out.c ****     }
 266:Source\LwIP\src\core/tcp_out.c ****   }
 267:Source\LwIP\src\core/tcp_out.c **** #endif /* LWIP_NETIF_TX_SINGLE_PBUF */
 268:Source\LwIP\src\core/tcp_out.c ****   p = pbuf_alloc(layer, alloc, PBUF_RAM);
 269:Source\LwIP\src\core/tcp_out.c ****   if (p == NULL) {
 270:Source\LwIP\src\core/tcp_out.c ****     return NULL;
 271:Source\LwIP\src\core/tcp_out.c ****   }
 272:Source\LwIP\src\core/tcp_out.c ****   LWIP_ASSERT("need unchained pbuf", p->next == NULL);
 273:Source\LwIP\src\core/tcp_out.c ****   *oversize = p->len - length;
 274:Source\LwIP\src\core/tcp_out.c ****   /* trim p->len to the currently used size */
 275:Source\LwIP\src\core/tcp_out.c ****   p->len = p->tot_len = length;
 276:Source\LwIP\src\core/tcp_out.c ****   return p;
 277:Source\LwIP\src\core/tcp_out.c **** }
 278:Source\LwIP\src\core/tcp_out.c **** #else /* TCP_OVERSIZE */
 279:Source\LwIP\src\core/tcp_out.c **** #define tcp_pbuf_prealloc(layer, length, mx, os, pcb, api, fst) pbuf_alloc((layer), (length), PBUF_
 280:Source\LwIP\src\core/tcp_out.c **** #endif /* TCP_OVERSIZE */
 281:Source\LwIP\src\core/tcp_out.c **** 
 282:Source\LwIP\src\core/tcp_out.c **** #if TCP_CHECKSUM_ON_COPY
 283:Source\LwIP\src\core/tcp_out.c **** /** Add a checksum of newly added data to the segment */
 284:Source\LwIP\src\core/tcp_out.c **** static void
 285:Source\LwIP\src\core/tcp_out.c **** tcp_seg_add_chksum(u16_t chksum, u16_t len, u16_t *seg_chksum,
 286:Source\LwIP\src\core/tcp_out.c ****                    u8_t *seg_chksum_swapped)
 287:Source\LwIP\src\core/tcp_out.c **** {
 288:Source\LwIP\src\core/tcp_out.c ****   u32_t helper;
 289:Source\LwIP\src\core/tcp_out.c ****   /* add chksum to old chksum and fold to u16_t */
 290:Source\LwIP\src\core/tcp_out.c ****   helper = chksum + *seg_chksum;
 291:Source\LwIP\src\core/tcp_out.c ****   chksum = FOLD_U32T(helper);
 292:Source\LwIP\src\core/tcp_out.c ****   if ((len & 1) != 0) {
 293:Source\LwIP\src\core/tcp_out.c ****     *seg_chksum_swapped = 1 - *seg_chksum_swapped;
 294:Source\LwIP\src\core/tcp_out.c ****     chksum = SWAP_BYTES_IN_WORD(chksum);
 295:Source\LwIP\src\core/tcp_out.c ****   }
 296:Source\LwIP\src\core/tcp_out.c ****   *seg_chksum = chksum;
 297:Source\LwIP\src\core/tcp_out.c **** }
 298:Source\LwIP\src\core/tcp_out.c **** #endif /* TCP_CHECKSUM_ON_COPY */
 299:Source\LwIP\src\core/tcp_out.c **** 
 300:Source\LwIP\src\core/tcp_out.c **** /** Checks if tcp_write is allowed or not (checks state, snd_buf and snd_queuelen).
 301:Source\LwIP\src\core/tcp_out.c ****  *
 302:Source\LwIP\src\core/tcp_out.c ****  * @param pcb the tcp pcb to check for
 303:Source\LwIP\src\core/tcp_out.c ****  * @param len length of data to send (checked agains snd_buf)
 304:Source\LwIP\src\core/tcp_out.c ****  * @return ERR_OK if tcp_write is allowed to proceed, another err_t otherwise
 305:Source\LwIP\src\core/tcp_out.c ****  */
 306:Source\LwIP\src\core/tcp_out.c **** static err_t
 307:Source\LwIP\src\core/tcp_out.c **** tcp_write_checks(struct tcp_pcb *pcb, u16_t len)
 308:Source\LwIP\src\core/tcp_out.c **** {
  27              		.loc 1 308 0
  28              		.cfi_startproc
  29              		@ args = 0, pretend = 0, frame = 0
  30              		@ frame_needed = 0, uses_anonymous_args = 0
  31              		@ link register save eliminated.
  32              	.LVL0:
 309:Source\LwIP\src\core/tcp_out.c ****   /* connection is in invalid state for data transmission? */
 310:Source\LwIP\src\core/tcp_out.c ****   if ((pcb->state != ESTABLISHED) &&
ARM GAS  C:\Users\Phuong\AppData\Local\Temp\cc5dKVKJ.s 			page 7


  33              		.loc 1 310 0
  34 0000 037D     		ldrb	r3, [r0, #20]
  35 0002 042B     		cmp	r3, #4
  36 0004 05D0     		beq	.L2
  37              		.loc 1 310 0 is_stmt 0 discriminator 1
  38 0006 072B     		cmp	r3, #7
  39 0008 03D0     		beq	.L2
 311:Source\LwIP\src\core/tcp_out.c ****       (pcb->state != CLOSE_WAIT) &&
  40              		.loc 1 311 0 is_stmt 1
  41 000a 022B     		cmp	r3, #2
  42 000c 01D0     		beq	.L2
 312:Source\LwIP\src\core/tcp_out.c ****       (pcb->state != SYN_SENT) &&
  43              		.loc 1 312 0
  44 000e 032B     		cmp	r3, #3
  45 0010 1CD1     		bne	.L5
  46              	.L2:
 313:Source\LwIP\src\core/tcp_out.c ****       (pcb->state != SYN_RCVD)) {
 314:Source\LwIP\src\core/tcp_out.c ****     LWIP_DEBUGF(TCP_OUTPUT_DEBUG | LWIP_DBG_STATE | LWIP_DBG_LEVEL_SEVERE, ("tcp_write() called in 
 315:Source\LwIP\src\core/tcp_out.c ****     return ERR_CONN;
 316:Source\LwIP\src\core/tcp_out.c ****   } else if (len == 0) {
  47              		.loc 1 316 0
  48 0012 0029     		cmp	r1, #0
  49 0014 1DD0     		beq	.L6
 317:Source\LwIP\src\core/tcp_out.c ****     return ERR_OK;
 318:Source\LwIP\src\core/tcp_out.c ****   }
 319:Source\LwIP\src\core/tcp_out.c **** 
 320:Source\LwIP\src\core/tcp_out.c ****   /* fail on too much data */
 321:Source\LwIP\src\core/tcp_out.c ****   if (len > pcb->snd_buf) {
  50              		.loc 1 321 0
  51 0016 6023     		movs	r3, #96
  52 0018 C35A     		ldrh	r3, [r0, r3]
  53 001a 9942     		cmp	r1, r3
  54 001c 06D9     		bls	.L4
 322:Source\LwIP\src\core/tcp_out.c ****     LWIP_DEBUGF(TCP_OUTPUT_DEBUG | LWIP_DBG_LEVEL_SEVERE, ("tcp_write: too much data (len=%"U16_F" 
 323:Source\LwIP\src\core/tcp_out.c ****       len, pcb->snd_buf));
 324:Source\LwIP\src\core/tcp_out.c ****     pcb->flags |= TF_NAGLEMEMERR;
  55              		.loc 1 324 0
  56 001e 428B     		ldrh	r2, [r0, #26]
  57 0020 8023     		movs	r3, #128
  58 0022 1343     		orrs	r3, r2
  59 0024 4383     		strh	r3, [r0, #26]
 325:Source\LwIP\src\core/tcp_out.c ****     return ERR_MEM;
  60              		.loc 1 325 0
  61 0026 0120     		movs	r0, #1
  62              	.LVL1:
  63 0028 4042     		rsbs	r0, r0, #0
  64 002a 15E0     		b	.L3
  65              	.LVL2:
  66              	.L4:
 326:Source\LwIP\src\core/tcp_out.c ****   }
 327:Source\LwIP\src\core/tcp_out.c **** 
 328:Source\LwIP\src\core/tcp_out.c ****   LWIP_DEBUGF(TCP_QLEN_DEBUG, ("tcp_write: queuelen: %"TCPWNDSIZE_F"\n", (tcpwnd_size_t)pcb->snd_qu
 329:Source\LwIP\src\core/tcp_out.c **** 
 330:Source\LwIP\src\core/tcp_out.c ****   /* If total number of pbufs on the unsent/unacked queues exceeds the
 331:Source\LwIP\src\core/tcp_out.c ****    * configured maximum, return an error */
 332:Source\LwIP\src\core/tcp_out.c ****   /* check for configured max queuelen and possible overflow */
 333:Source\LwIP\src\core/tcp_out.c ****   if ((pcb->snd_queuelen >= TCP_SND_QUEUELEN) || (pcb->snd_queuelen > TCP_SNDQUEUELEN_OVERFLOW)) {
ARM GAS  C:\Users\Phuong\AppData\Local\Temp\cc5dKVKJ.s 			page 8


  67              		.loc 1 333 0
  68 002c 6223     		movs	r3, #98
  69 002e C35A     		ldrh	r3, [r0, r3]
  70 0030 172B     		cmp	r3, #23
  71 0032 10D9     		bls	.L7
 334:Source\LwIP\src\core/tcp_out.c ****     LWIP_DEBUGF(TCP_OUTPUT_DEBUG | LWIP_DBG_LEVEL_SEVERE, ("tcp_write: too long queue %"U16_F" (max
 335:Source\LwIP\src\core/tcp_out.c ****       pcb->snd_queuelen, (u16_t)TCP_SND_QUEUELEN));
 336:Source\LwIP\src\core/tcp_out.c ****     TCP_STATS_INC(tcp.memerr);
  72              		.loc 1 336 0
  73 0034 0949     		ldr	r1, .L8
  74              	.LVL3:
  75 0036 B822     		movs	r2, #184
  76 0038 8B5A     		ldrh	r3, [r1, r2]
  77 003a 0133     		adds	r3, r3, #1
  78 003c 8B52     		strh	r3, [r1, r2]
 337:Source\LwIP\src\core/tcp_out.c ****     pcb->flags |= TF_NAGLEMEMERR;
  79              		.loc 1 337 0
  80 003e 428B     		ldrh	r2, [r0, #26]
  81 0040 8023     		movs	r3, #128
  82 0042 1343     		orrs	r3, r2
  83 0044 4383     		strh	r3, [r0, #26]
 338:Source\LwIP\src\core/tcp_out.c ****     return ERR_MEM;
  84              		.loc 1 338 0
  85 0046 0120     		movs	r0, #1
  86              	.LVL4:
  87 0048 4042     		rsbs	r0, r0, #0
  88 004a 05E0     		b	.L3
  89              	.LVL5:
  90              	.L5:
 315:Source\LwIP\src\core/tcp_out.c ****   } else if (len == 0) {
  91              		.loc 1 315 0
  92 004c 0B20     		movs	r0, #11
  93              	.LVL6:
  94 004e 4042     		rsbs	r0, r0, #0
  95 0050 02E0     		b	.L3
  96              	.LVL7:
  97              	.L6:
 317:Source\LwIP\src\core/tcp_out.c ****   }
  98              		.loc 1 317 0
  99 0052 0020     		movs	r0, #0
 100              	.LVL8:
 101 0054 00E0     		b	.L3
 102              	.LVL9:
 103              	.L7:
 339:Source\LwIP\src\core/tcp_out.c ****   }
 340:Source\LwIP\src\core/tcp_out.c ****   if (pcb->snd_queuelen != 0) {
 341:Source\LwIP\src\core/tcp_out.c ****     LWIP_ASSERT("tcp_write: pbufs on queue => at least one queue non-empty",
 342:Source\LwIP\src\core/tcp_out.c ****       pcb->unacked != NULL || pcb->unsent != NULL);
 343:Source\LwIP\src\core/tcp_out.c ****   } else {
 344:Source\LwIP\src\core/tcp_out.c ****     LWIP_ASSERT("tcp_write: no pbufs on queue => both queues empty",
 345:Source\LwIP\src\core/tcp_out.c ****       pcb->unacked == NULL && pcb->unsent == NULL);
 346:Source\LwIP\src\core/tcp_out.c ****   }
 347:Source\LwIP\src\core/tcp_out.c ****   return ERR_OK;
 104              		.loc 1 347 0
 105 0056 0020     		movs	r0, #0
 106              	.LVL10:
 107              	.L3:
ARM GAS  C:\Users\Phuong\AppData\Local\Temp\cc5dKVKJ.s 			page 9


 348:Source\LwIP\src\core/tcp_out.c **** }
 108              		.loc 1 348 0
 109              		@ sp needed
 110 0058 7047     		bx	lr
 111              	.L9:
 112 005a C046     		.align	2
 113              	.L8:
 114 005c 00000000 		.word	lwip_stats
 115              		.cfi_endproc
 116              	.LFE57:
 117              		.size	tcp_write_checks, .-tcp_write_checks
 118              		.section	.text.tcp_pbuf_prealloc,"ax",%progbits
 119              		.align	2
 120              		.code	16
 121              		.thumb_func
 122              		.type	tcp_pbuf_prealloc, %function
 123              	tcp_pbuf_prealloc:
 124              	.LFB56:
 236:Source\LwIP\src\core/tcp_out.c ****   struct pbuf *p;
 125              		.loc 1 236 0
 126              		.cfi_startproc
 127              		@ args = 12, pretend = 0, frame = 0
 128              		@ frame_needed = 0, uses_anonymous_args = 0
 129              	.LVL11:
 130 0000 70B5     		push	{r4, r5, r6, lr}
 131              		.cfi_def_cfa_offset 16
 132              		.cfi_offset 4, -16
 133              		.cfi_offset 5, -12
 134              		.cfi_offset 6, -8
 135              		.cfi_offset 14, -4
 136 0002 0C00     		movs	r4, r1
 137 0004 1100     		movs	r1, r2
 138              	.LVL12:
 139 0006 1D00     		movs	r5, r3
 140              	.LVL13:
 268:Source\LwIP\src\core/tcp_out.c ****   if (p == NULL) {
 141              		.loc 1 268 0
 142 0008 0022     		movs	r2, #0
 143              	.LVL14:
 144 000a FFF7FEFF 		bl	pbuf_alloc
 145              	.LVL15:
 269:Source\LwIP\src\core/tcp_out.c ****     return NULL;
 146              		.loc 1 269 0
 147 000e 0028     		cmp	r0, #0
 148 0010 05D0     		beq	.L12
 273:Source\LwIP\src\core/tcp_out.c ****   /* trim p->len to the currently used size */
 149              		.loc 1 273 0
 150 0012 4389     		ldrh	r3, [r0, #10]
 151 0014 1B1B     		subs	r3, r3, r4
 152 0016 2B80     		strh	r3, [r5]
 275:Source\LwIP\src\core/tcp_out.c ****   return p;
 153              		.loc 1 275 0
 154 0018 0481     		strh	r4, [r0, #8]
 155 001a 4481     		strh	r4, [r0, #10]
 276:Source\LwIP\src\core/tcp_out.c **** }
 156              		.loc 1 276 0
 157 001c 00E0     		b	.L11
ARM GAS  C:\Users\Phuong\AppData\Local\Temp\cc5dKVKJ.s 			page 10


 158              	.L12:
 270:Source\LwIP\src\core/tcp_out.c ****   }
 159              		.loc 1 270 0
 160 001e 0020     		movs	r0, #0
 161              	.LVL16:
 162              	.L11:
 277:Source\LwIP\src\core/tcp_out.c **** #else /* TCP_OVERSIZE */
 163              		.loc 1 277 0
 164              		@ sp needed
 165              	.LVL17:
 166 0020 70BD     		pop	{r4, r5, r6, pc}
 167              		.cfi_endproc
 168              	.LFE56:
 169              		.size	tcp_pbuf_prealloc, .-tcp_pbuf_prealloc
 170 0022 C046     		.section	.text.tcp_create_segment,"ax",%progbits
 171              		.align	2
 172              		.code	16
 173              		.thumb_func
 174              		.type	tcp_create_segment, %function
 175              	tcp_create_segment:
 176              	.LFB55:
 174:Source\LwIP\src\core/tcp_out.c ****   struct tcp_seg *seg;
 177              		.loc 1 174 0
 178              		.cfi_startproc
 179              		@ args = 4, pretend = 0, frame = 8
 180              		@ frame_needed = 0, uses_anonymous_args = 0
 181              	.LVL18:
 182 0000 F0B5     		push	{r4, r5, r6, r7, lr}
 183              		.cfi_def_cfa_offset 20
 184              		.cfi_offset 4, -20
 185              		.cfi_offset 5, -16
 186              		.cfi_offset 6, -12
 187              		.cfi_offset 7, -8
 188              		.cfi_offset 14, -4
 189 0002 5746     		mov	r7, r10
 190 0004 4646     		mov	r6, r8
 191 0006 C0B4     		push	{r6, r7}
 192              		.cfi_def_cfa_offset 28
 193              		.cfi_offset 8, -28
 194              		.cfi_offset 10, -24
 195 0008 83B0     		sub	sp, sp, #12
 196              		.cfi_def_cfa_offset 40
 197 000a 0600     		movs	r6, r0
 198 000c 0F00     		movs	r7, r1
 199 000e 9046     		mov	r8, r2
 200 0010 0193     		str	r3, [sp, #4]
 201 0012 0AAB     		add	r3, sp, #40
 202              	.LVL19:
 203 0014 1B78     		ldrb	r3, [r3]
 204              	.LVL20:
 205 0016 9A46     		mov	r10, r3
 176:Source\LwIP\src\core/tcp_out.c **** 
 206              		.loc 1 176 0
 207 0018 DB07     		lsls	r3, r3, #31
 208 001a 01D5     		bpl	.L18
 209 001c 0425     		movs	r5, #4
 210 001e 00E0     		b	.L14
ARM GAS  C:\Users\Phuong\AppData\Local\Temp\cc5dKVKJ.s 			page 11


 211              	.L18:
 212 0020 0025     		movs	r5, #0
 213              	.L14:
 214              	.LVL21:
 178:Source\LwIP\src\core/tcp_out.c ****     LWIP_DEBUGF(TCP_OUTPUT_DEBUG | LWIP_DBG_LEVEL_SERIOUS, ("tcp_create_segment: no memory.\n"));
 215              		.loc 1 178 0 discriminator 4
 216 0022 B222     		movs	r2, #178
 217              	.LVL22:
 218 0024 2A49     		ldr	r1, .L19
 219              	.LVL23:
 220 0026 0420     		movs	r0, #4
 221              	.LVL24:
 222 0028 FFF7FEFF 		bl	memp_malloc_fn
 223              	.LVL25:
 224 002c 041E     		subs	r4, r0, #0
 225              	.LVL26:
 226 002e 04D1     		bne	.L15
 180:Source\LwIP\src\core/tcp_out.c ****     return NULL;
 227              		.loc 1 180 0
 228 0030 3800     		movs	r0, r7
 229              	.LVL27:
 230 0032 FFF7FEFF 		bl	pbuf_free
 231              	.LVL28:
 181:Source\LwIP\src\core/tcp_out.c ****   }
 232              		.loc 1 181 0
 233 0036 0020     		movs	r0, #0
 234 0038 45E0     		b	.L16
 235              	.LVL29:
 236              	.L15:
 183:Source\LwIP\src\core/tcp_out.c ****   seg->next = NULL;
 237              		.loc 1 183 0
 238 003a 5346     		mov	r3, r10
 239 003c 0373     		strb	r3, [r0, #12]
 184:Source\LwIP\src\core/tcp_out.c ****   seg->p = p;
 240              		.loc 1 184 0
 241 003e 0022     		movs	r2, #0
 242 0040 0260     		str	r2, [r0]
 185:Source\LwIP\src\core/tcp_out.c ****   LWIP_ASSERT("p->tot_len >= optlen", p->tot_len >= optlen);
 243              		.loc 1 185 0
 244 0042 4760     		str	r7, [r0, #4]
 187:Source\LwIP\src\core/tcp_out.c **** #if TCP_OVERSIZE_DBGCHECK
 245              		.loc 1 187 0
 246 0044 3B89     		ldrh	r3, [r7, #8]
 247 0046 5B1B     		subs	r3, r3, r5
 248 0048 0381     		strh	r3, [r0, #8]
 189:Source\LwIP\src\core/tcp_out.c **** #endif /* TCP_OVERSIZE_DBGCHECK */
 249              		.loc 1 189 0
 250 004a 4281     		strh	r2, [r0, #10]
 200:Source\LwIP\src\core/tcp_out.c ****     LWIP_DEBUGF(TCP_OUTPUT_DEBUG | LWIP_DBG_LEVEL_SERIOUS, ("tcp_create_segment: no room for TCP he
 251              		.loc 1 200 0
 252 004c 1421     		movs	r1, #20
 253 004e 3800     		movs	r0, r7
 254              	.LVL30:
 255 0050 FFF7FEFF 		bl	pbuf_header
 256              	.LVL31:
 257 0054 0028     		cmp	r0, #0
 258 0056 09D0     		beq	.L17
ARM GAS  C:\Users\Phuong\AppData\Local\Temp\cc5dKVKJ.s 			page 12


 202:Source\LwIP\src\core/tcp_out.c ****     tcp_seg_free(seg);
 259              		.loc 1 202 0
 260 0058 1E49     		ldr	r1, .L19+4
 261 005a C022     		movs	r2, #192
 262 005c 8B5A     		ldrh	r3, [r1, r2]
 263 005e 0133     		adds	r3, r3, #1
 264 0060 8B52     		strh	r3, [r1, r2]
 203:Source\LwIP\src\core/tcp_out.c ****     return NULL;
 265              		.loc 1 203 0
 266 0062 2000     		movs	r0, r4
 267 0064 FFF7FEFF 		bl	tcp_seg_free
 268              	.LVL32:
 204:Source\LwIP\src\core/tcp_out.c ****   }
 269              		.loc 1 204 0
 270 0068 0020     		movs	r0, #0
 271 006a 2CE0     		b	.L16
 272              	.L17:
 206:Source\LwIP\src\core/tcp_out.c ****   seg->tcphdr->src = lwip_htons(pcb->local_port);
 273              		.loc 1 206 0
 274 006c 6368     		ldr	r3, [r4, #4]
 275 006e 5F68     		ldr	r7, [r3, #4]
 276              	.LVL33:
 277 0070 2761     		str	r7, [r4, #16]
 207:Source\LwIP\src\core/tcp_out.c ****   seg->tcphdr->dest = lwip_htons(pcb->remote_port);
 278              		.loc 1 207 0
 279 0072 F08A     		ldrh	r0, [r6, #22]
 280 0074 FFF7FEFF 		bl	lwip_htons
 281              	.LVL34:
 282 0078 3870     		strb	r0, [r7]
 283 007a 000A     		lsrs	r0, r0, #8
 284 007c 7870     		strb	r0, [r7, #1]
 208:Source\LwIP\src\core/tcp_out.c ****   seg->tcphdr->seqno = lwip_htonl(seqno);
 285              		.loc 1 208 0
 286 007e 2769     		ldr	r7, [r4, #16]
 287 0080 308B     		ldrh	r0, [r6, #24]
 288 0082 FFF7FEFF 		bl	lwip_htons
 289              	.LVL35:
 290 0086 B870     		strb	r0, [r7, #2]
 291 0088 000A     		lsrs	r0, r0, #8
 292 008a F870     		strb	r0, [r7, #3]
 209:Source\LwIP\src\core/tcp_out.c ****   /* ackno is set in tcp_output */
 293              		.loc 1 209 0
 294 008c 2769     		ldr	r7, [r4, #16]
 295 008e 0198     		ldr	r0, [sp, #4]
 296 0090 FFF7FEFF 		bl	lwip_htonl
 297              	.LVL36:
 298 0094 3871     		strb	r0, [r7, #4]
 299 0096 030A     		lsrs	r3, r0, #8
 300 0098 7B71     		strb	r3, [r7, #5]
 301 009a 030C     		lsrs	r3, r0, #16
 302 009c BB71     		strb	r3, [r7, #6]
 303 009e 000E     		lsrs	r0, r0, #24
 304 00a0 F871     		strb	r0, [r7, #7]
 211:Source\LwIP\src\core/tcp_out.c ****   /* wnd and chksum are set in tcp_output */
 305              		.loc 1 211 0
 306 00a2 2769     		ldr	r7, [r4, #16]
 307 00a4 AD08     		lsrs	r5, r5, #2
ARM GAS  C:\Users\Phuong\AppData\Local\Temp\cc5dKVKJ.s 			page 13


 308              	.LVL37:
 309 00a6 EDB2     		uxtb	r5, r5
 310 00a8 0535     		adds	r5, r5, #5
 311 00aa 2D03     		lsls	r5, r5, #12
 312 00ac A8B2     		uxth	r0, r5
 313 00ae 4346     		mov	r3, r8
 314 00b0 1843     		orrs	r0, r3
 315 00b2 FFF7FEFF 		bl	lwip_htons
 316              	.LVL38:
 317 00b6 3873     		strb	r0, [r7, #12]
 318 00b8 000A     		lsrs	r0, r0, #8
 319 00ba 7873     		strb	r0, [r7, #13]
 213:Source\LwIP\src\core/tcp_out.c ****   return seg;
 320              		.loc 1 213 0
 321 00bc 2369     		ldr	r3, [r4, #16]
 322 00be 0022     		movs	r2, #0
 323 00c0 9A74     		strb	r2, [r3, #18]
 324 00c2 DA74     		strb	r2, [r3, #19]
 214:Source\LwIP\src\core/tcp_out.c **** }
 325              		.loc 1 214 0
 326 00c4 2000     		movs	r0, r4
 327              	.L16:
 215:Source\LwIP\src\core/tcp_out.c **** 
 328              		.loc 1 215 0
 329 00c6 03B0     		add	sp, sp, #12
 330              		@ sp needed
 331              	.LVL39:
 332              	.LVL40:
 333 00c8 0CBC     		pop	{r2, r3}
 334 00ca 9046     		mov	r8, r2
 335 00cc 9A46     		mov	r10, r3
 336 00ce F0BD     		pop	{r4, r5, r6, r7, pc}
 337              	.L20:
 338              		.align	2
 339              	.L19:
 340 00d0 00000000 		.word	.LC1
 341 00d4 00000000 		.word	lwip_stats
 342              		.cfi_endproc
 343              	.LFE55:
 344              		.size	tcp_create_segment, .-tcp_create_segment
 345              		.section	.text.tcp_output_alloc_header,"ax",%progbits
 346              		.align	2
 347              		.code	16
 348              		.thumb_func
 349              		.type	tcp_output_alloc_header, %function
 350              	tcp_output_alloc_header:
 351              	.LFB53:
 110:Source\LwIP\src\core/tcp_out.c ****   struct tcp_hdr *tcphdr;
 352              		.loc 1 110 0
 353              		.cfi_startproc
 354              		@ args = 0, pretend = 0, frame = 0
 355              		@ frame_needed = 0, uses_anonymous_args = 0
 356              	.LVL41:
 357 0000 F0B5     		push	{r4, r5, r6, r7, lr}
 358              		.cfi_def_cfa_offset 20
 359              		.cfi_offset 4, -20
 360              		.cfi_offset 5, -16
ARM GAS  C:\Users\Phuong\AppData\Local\Temp\cc5dKVKJ.s 			page 14


 361              		.cfi_offset 6, -12
 362              		.cfi_offset 7, -8
 363              		.cfi_offset 14, -4
 364 0002 4746     		mov	r7, r8
 365 0004 80B4     		push	{r7}
 366              		.cfi_def_cfa_offset 24
 367              		.cfi_offset 8, -24
 368 0006 0600     		movs	r6, r0
 369 0008 8846     		mov	r8, r1
 370 000a 1D00     		movs	r5, r3
 112:Source\LwIP\src\core/tcp_out.c ****   if (p != NULL) {
 371              		.loc 1 112 0
 372 000c 4244     		add	r2, r2, r8
 373              	.LVL42:
 374 000e 1432     		adds	r2, r2, #20
 375 0010 91B2     		uxth	r1, r2
 376              	.LVL43:
 377 0012 0022     		movs	r2, #0
 378 0014 0120     		movs	r0, #1
 379              	.LVL44:
 380 0016 FFF7FEFF 		bl	pbuf_alloc
 381              	.LVL45:
 382 001a 071E     		subs	r7, r0, #0
 383              	.LVL46:
 113:Source\LwIP\src\core/tcp_out.c ****     LWIP_ASSERT("check that first pbuf can hold struct tcp_hdr",
 384              		.loc 1 113 0
 385 001c 3AD0     		beq	.L22
 116:Source\LwIP\src\core/tcp_out.c ****     tcphdr->src = lwip_htons(pcb->local_port);
 386              		.loc 1 116 0
 387 001e 4468     		ldr	r4, [r0, #4]
 388              	.LVL47:
 117:Source\LwIP\src\core/tcp_out.c ****     tcphdr->dest = lwip_htons(pcb->remote_port);
 389              		.loc 1 117 0
 390 0020 F08A     		ldrh	r0, [r6, #22]
 391              	.LVL48:
 392 0022 FFF7FEFF 		bl	lwip_htons
 393              	.LVL49:
 394 0026 2070     		strb	r0, [r4]
 395 0028 000A     		lsrs	r0, r0, #8
 396 002a 6070     		strb	r0, [r4, #1]
 118:Source\LwIP\src\core/tcp_out.c ****     tcphdr->seqno = seqno_be;
 397              		.loc 1 118 0
 398 002c 308B     		ldrh	r0, [r6, #24]
 399 002e FFF7FEFF 		bl	lwip_htons
 400              	.LVL50:
 401 0032 A070     		strb	r0, [r4, #2]
 402 0034 000A     		lsrs	r0, r0, #8
 403 0036 E070     		strb	r0, [r4, #3]
 119:Source\LwIP\src\core/tcp_out.c ****     tcphdr->ackno = lwip_htonl(pcb->rcv_nxt);
 404              		.loc 1 119 0
 405 0038 2571     		strb	r5, [r4, #4]
 406 003a 2B0A     		lsrs	r3, r5, #8
 407 003c 6371     		strb	r3, [r4, #5]
 408 003e 2B0C     		lsrs	r3, r5, #16
 409 0040 A371     		strb	r3, [r4, #6]
 410 0042 2B0E     		lsrs	r3, r5, #24
 411 0044 E371     		strb	r3, [r4, #7]
ARM GAS  C:\Users\Phuong\AppData\Local\Temp\cc5dKVKJ.s 			page 15


 120:Source\LwIP\src\core/tcp_out.c ****     TCPH_HDRLEN_FLAGS_SET(tcphdr, (5 + optlen / 4), TCP_ACK);
 412              		.loc 1 120 0
 413 0046 706A     		ldr	r0, [r6, #36]
 414 0048 FFF7FEFF 		bl	lwip_htonl
 415              	.LVL51:
 416 004c 2072     		strb	r0, [r4, #8]
 417 004e 030A     		lsrs	r3, r0, #8
 418 0050 6372     		strb	r3, [r4, #9]
 419 0052 030C     		lsrs	r3, r0, #16
 420 0054 A372     		strb	r3, [r4, #10]
 421 0056 000E     		lsrs	r0, r0, #24
 422 0058 E072     		strb	r0, [r4, #11]
 121:Source\LwIP\src\core/tcp_out.c ****     tcphdr->wnd = lwip_htons(TCPWND_MIN16(RCV_WND_SCALE(pcb, pcb->rcv_ann_wnd)));
 423              		.loc 1 121 0
 424 005a 4346     		mov	r3, r8
 425 005c 9D08     		lsrs	r5, r3, #2
 426              	.LVL52:
 427 005e 0535     		adds	r5, r5, #5
 428 0060 2D03     		lsls	r5, r5, #12
 429 0062 ADB2     		uxth	r5, r5
 430 0064 1020     		movs	r0, #16
 431 0066 0543     		orrs	r5, r0
 432 0068 A8B2     		uxth	r0, r5
 433 006a FFF7FEFF 		bl	lwip_htons
 434              	.LVL53:
 435 006e 2073     		strb	r0, [r4, #12]
 436 0070 000A     		lsrs	r0, r0, #8
 437 0072 6073     		strb	r0, [r4, #13]
 122:Source\LwIP\src\core/tcp_out.c ****     tcphdr->chksum = 0;
 438              		.loc 1 122 0
 439 0074 708D     		ldrh	r0, [r6, #42]
 440 0076 FFF7FEFF 		bl	lwip_htons
 441              	.LVL54:
 442 007a A073     		strb	r0, [r4, #14]
 443 007c 000A     		lsrs	r0, r0, #8
 444 007e E073     		strb	r0, [r4, #15]
 123:Source\LwIP\src\core/tcp_out.c ****     tcphdr->urgp = 0;
 445              		.loc 1 123 0
 446 0080 0023     		movs	r3, #0
 447 0082 2374     		strb	r3, [r4, #16]
 448 0084 6374     		strb	r3, [r4, #17]
 124:Source\LwIP\src\core/tcp_out.c **** 
 449              		.loc 1 124 0
 450 0086 A374     		strb	r3, [r4, #18]
 451 0088 E374     		strb	r3, [r4, #19]
 127:Source\LwIP\src\core/tcp_out.c ****   }
 452              		.loc 1 127 0
 453 008a 738D     		ldrh	r3, [r6, #42]
 454 008c 726A     		ldr	r2, [r6, #36]
 455 008e 9446     		mov	ip, r2
 456 0090 6344     		add	r3, r3, ip
 457 0092 F362     		str	r3, [r6, #44]
 458              	.LVL55:
 459              	.L22:
 130:Source\LwIP\src\core/tcp_out.c **** 
 460              		.loc 1 130 0
 461 0094 3800     		movs	r0, r7
ARM GAS  C:\Users\Phuong\AppData\Local\Temp\cc5dKVKJ.s 			page 16


 462              		@ sp needed
 463              	.LVL56:
 464              	.LVL57:
 465 0096 04BC     		pop	{r2}
 466 0098 9046     		mov	r8, r2
 467 009a F0BD     		pop	{r4, r5, r6, r7, pc}
 468              		.cfi_endproc
 469              	.LFE53:
 470              		.size	tcp_output_alloc_header, .-tcp_output_alloc_header
 471              		.section	.text.tcp_output_segment,"ax",%progbits
 472              		.align	2
 473              		.code	16
 474              		.thumb_func
 475              		.type	tcp_output_segment, %function
 476              	tcp_output_segment:
 477              	.LFB62:
 349:Source\LwIP\src\core/tcp_out.c **** 
 350:Source\LwIP\src\core/tcp_out.c **** /**
 351:Source\LwIP\src\core/tcp_out.c ****  * @ingroup tcp_raw
 352:Source\LwIP\src\core/tcp_out.c ****  * Write data for sending (but does not send it immediately).
 353:Source\LwIP\src\core/tcp_out.c ****  *
 354:Source\LwIP\src\core/tcp_out.c ****  * It waits in the expectation of more data being sent soon (as
 355:Source\LwIP\src\core/tcp_out.c ****  * it can send them more efficiently by combining them together).
 356:Source\LwIP\src\core/tcp_out.c ****  * To prompt the system to send data now, call tcp_output() after
 357:Source\LwIP\src\core/tcp_out.c ****  * calling tcp_write().
 358:Source\LwIP\src\core/tcp_out.c ****  *
 359:Source\LwIP\src\core/tcp_out.c ****  * @param pcb Protocol control block for the TCP connection to enqueue data for.
 360:Source\LwIP\src\core/tcp_out.c ****  * @param arg Pointer to the data to be enqueued for sending.
 361:Source\LwIP\src\core/tcp_out.c ****  * @param len Data length in bytes
 362:Source\LwIP\src\core/tcp_out.c ****  * @param apiflags combination of following flags :
 363:Source\LwIP\src\core/tcp_out.c ****  * - TCP_WRITE_FLAG_COPY (0x01) data will be copied into memory belonging to the stack
 364:Source\LwIP\src\core/tcp_out.c ****  * - TCP_WRITE_FLAG_MORE (0x02) for TCP connection, PSH flag will not be set on last segment sent,
 365:Source\LwIP\src\core/tcp_out.c ****  * @return ERR_OK if enqueued, another err_t on error
 366:Source\LwIP\src\core/tcp_out.c ****  */
 367:Source\LwIP\src\core/tcp_out.c **** err_t
 368:Source\LwIP\src\core/tcp_out.c **** tcp_write(struct tcp_pcb *pcb, const void *arg, u16_t len, u8_t apiflags)
 369:Source\LwIP\src\core/tcp_out.c **** {
 370:Source\LwIP\src\core/tcp_out.c ****   struct pbuf *concat_p = NULL;
 371:Source\LwIP\src\core/tcp_out.c ****   struct tcp_seg *last_unsent = NULL, *seg = NULL, *prev_seg = NULL, *queue = NULL;
 372:Source\LwIP\src\core/tcp_out.c ****   u16_t pos = 0; /* position in 'arg' data */
 373:Source\LwIP\src\core/tcp_out.c ****   u16_t queuelen;
 374:Source\LwIP\src\core/tcp_out.c ****   u8_t optlen = 0;
 375:Source\LwIP\src\core/tcp_out.c ****   u8_t optflags = 0;
 376:Source\LwIP\src\core/tcp_out.c **** #if TCP_OVERSIZE
 377:Source\LwIP\src\core/tcp_out.c ****   u16_t oversize = 0;
 378:Source\LwIP\src\core/tcp_out.c ****   u16_t oversize_used = 0;
 379:Source\LwIP\src\core/tcp_out.c **** #if TCP_OVERSIZE_DBGCHECK
 380:Source\LwIP\src\core/tcp_out.c ****   u16_t oversize_add = 0;
 381:Source\LwIP\src\core/tcp_out.c **** #endif /* TCP_OVERSIZE_DBGCHECK*/
 382:Source\LwIP\src\core/tcp_out.c **** #endif /* TCP_OVERSIZE */
 383:Source\LwIP\src\core/tcp_out.c ****   u16_t extendlen = 0;
 384:Source\LwIP\src\core/tcp_out.c **** #if TCP_CHECKSUM_ON_COPY
 385:Source\LwIP\src\core/tcp_out.c ****   u16_t concat_chksum = 0;
 386:Source\LwIP\src\core/tcp_out.c ****   u8_t concat_chksum_swapped = 0;
 387:Source\LwIP\src\core/tcp_out.c ****   u16_t concat_chksummed = 0;
 388:Source\LwIP\src\core/tcp_out.c **** #endif /* TCP_CHECKSUM_ON_COPY */
 389:Source\LwIP\src\core/tcp_out.c ****   err_t err;
ARM GAS  C:\Users\Phuong\AppData\Local\Temp\cc5dKVKJ.s 			page 17


 390:Source\LwIP\src\core/tcp_out.c ****   /* don't allocate segments bigger than half the maximum window we ever received */
 391:Source\LwIP\src\core/tcp_out.c ****   u16_t mss_local = LWIP_MIN(pcb->mss, TCPWND_MIN16(pcb->snd_wnd_max/2));
 392:Source\LwIP\src\core/tcp_out.c ****   mss_local = mss_local ? mss_local : pcb->mss;
 393:Source\LwIP\src\core/tcp_out.c **** 
 394:Source\LwIP\src\core/tcp_out.c **** #if LWIP_NETIF_TX_SINGLE_PBUF
 395:Source\LwIP\src\core/tcp_out.c ****   /* Always copy to try to create single pbufs for TX */
 396:Source\LwIP\src\core/tcp_out.c ****   apiflags |= TCP_WRITE_FLAG_COPY;
 397:Source\LwIP\src\core/tcp_out.c **** #endif /* LWIP_NETIF_TX_SINGLE_PBUF */
 398:Source\LwIP\src\core/tcp_out.c **** 
 399:Source\LwIP\src\core/tcp_out.c ****   LWIP_DEBUGF(TCP_OUTPUT_DEBUG, ("tcp_write(pcb=%p, data=%p, len=%"U16_F", apiflags=%"U16_F")\n",
 400:Source\LwIP\src\core/tcp_out.c ****     (void *)pcb, arg, len, (u16_t)apiflags));
 401:Source\LwIP\src\core/tcp_out.c ****   LWIP_ERROR("tcp_write: arg == NULL (programmer violates API)",
 402:Source\LwIP\src\core/tcp_out.c ****              arg != NULL, return ERR_ARG;);
 403:Source\LwIP\src\core/tcp_out.c **** 
 404:Source\LwIP\src\core/tcp_out.c ****   err = tcp_write_checks(pcb, len);
 405:Source\LwIP\src\core/tcp_out.c ****   if (err != ERR_OK) {
 406:Source\LwIP\src\core/tcp_out.c ****     return err;
 407:Source\LwIP\src\core/tcp_out.c ****   }
 408:Source\LwIP\src\core/tcp_out.c ****   queuelen = pcb->snd_queuelen;
 409:Source\LwIP\src\core/tcp_out.c **** 
 410:Source\LwIP\src\core/tcp_out.c **** #if LWIP_TCP_TIMESTAMPS
 411:Source\LwIP\src\core/tcp_out.c ****   if ((pcb->flags & TF_TIMESTAMP)) {
 412:Source\LwIP\src\core/tcp_out.c ****     /* Make sure the timestamp option is only included in data segments if we
 413:Source\LwIP\src\core/tcp_out.c ****        agreed about it with the remote host. */
 414:Source\LwIP\src\core/tcp_out.c ****     optflags = TF_SEG_OPTS_TS;
 415:Source\LwIP\src\core/tcp_out.c ****     optlen = LWIP_TCP_OPT_LENGTH(TF_SEG_OPTS_TS);
 416:Source\LwIP\src\core/tcp_out.c ****     /* ensure that segments can hold at least one data byte... */
 417:Source\LwIP\src\core/tcp_out.c ****     mss_local = LWIP_MAX(mss_local, LWIP_TCP_OPT_LEN_TS + 1);
 418:Source\LwIP\src\core/tcp_out.c ****   }
 419:Source\LwIP\src\core/tcp_out.c **** #endif /* LWIP_TCP_TIMESTAMPS */
 420:Source\LwIP\src\core/tcp_out.c **** 
 421:Source\LwIP\src\core/tcp_out.c **** 
 422:Source\LwIP\src\core/tcp_out.c ****   /*
 423:Source\LwIP\src\core/tcp_out.c ****    * TCP segmentation is done in three phases with increasing complexity:
 424:Source\LwIP\src\core/tcp_out.c ****    *
 425:Source\LwIP\src\core/tcp_out.c ****    * 1. Copy data directly into an oversized pbuf.
 426:Source\LwIP\src\core/tcp_out.c ****    * 2. Chain a new pbuf to the end of pcb->unsent.
 427:Source\LwIP\src\core/tcp_out.c ****    * 3. Create new segments.
 428:Source\LwIP\src\core/tcp_out.c ****    *
 429:Source\LwIP\src\core/tcp_out.c ****    * We may run out of memory at any point. In that case we must
 430:Source\LwIP\src\core/tcp_out.c ****    * return ERR_MEM and not change anything in pcb. Therefore, all
 431:Source\LwIP\src\core/tcp_out.c ****    * changes are recorded in local variables and committed at the end
 432:Source\LwIP\src\core/tcp_out.c ****    * of the function. Some pcb fields are maintained in local copies:
 433:Source\LwIP\src\core/tcp_out.c ****    *
 434:Source\LwIP\src\core/tcp_out.c ****    * queuelen = pcb->snd_queuelen
 435:Source\LwIP\src\core/tcp_out.c ****    * oversize = pcb->unsent_oversize
 436:Source\LwIP\src\core/tcp_out.c ****    *
 437:Source\LwIP\src\core/tcp_out.c ****    * These variables are set consistently by the phases:
 438:Source\LwIP\src\core/tcp_out.c ****    *
 439:Source\LwIP\src\core/tcp_out.c ****    * seg points to the last segment tampered with.
 440:Source\LwIP\src\core/tcp_out.c ****    *
 441:Source\LwIP\src\core/tcp_out.c ****    * pos records progress as data is segmented.
 442:Source\LwIP\src\core/tcp_out.c ****    */
 443:Source\LwIP\src\core/tcp_out.c **** 
 444:Source\LwIP\src\core/tcp_out.c ****   /* Find the tail of the unsent queue. */
 445:Source\LwIP\src\core/tcp_out.c ****   if (pcb->unsent != NULL) {
 446:Source\LwIP\src\core/tcp_out.c ****     u16_t space;
ARM GAS  C:\Users\Phuong\AppData\Local\Temp\cc5dKVKJ.s 			page 18


 447:Source\LwIP\src\core/tcp_out.c ****     u16_t unsent_optlen;
 448:Source\LwIP\src\core/tcp_out.c **** 
 449:Source\LwIP\src\core/tcp_out.c ****     /* @todo: this could be sped up by keeping last_unsent in the pcb */
 450:Source\LwIP\src\core/tcp_out.c ****     for (last_unsent = pcb->unsent; last_unsent->next != NULL;
 451:Source\LwIP\src\core/tcp_out.c ****          last_unsent = last_unsent->next);
 452:Source\LwIP\src\core/tcp_out.c **** 
 453:Source\LwIP\src\core/tcp_out.c ****     /* Usable space at the end of the last unsent segment */
 454:Source\LwIP\src\core/tcp_out.c ****     unsent_optlen = LWIP_TCP_OPT_LENGTH(last_unsent->flags);
 455:Source\LwIP\src\core/tcp_out.c ****     LWIP_ASSERT("mss_local is too small", mss_local >= last_unsent->len + unsent_optlen);
 456:Source\LwIP\src\core/tcp_out.c ****     space = mss_local - (last_unsent->len + unsent_optlen);
 457:Source\LwIP\src\core/tcp_out.c **** 
 458:Source\LwIP\src\core/tcp_out.c ****     /*
 459:Source\LwIP\src\core/tcp_out.c ****      * Phase 1: Copy data directly into an oversized pbuf.
 460:Source\LwIP\src\core/tcp_out.c ****      *
 461:Source\LwIP\src\core/tcp_out.c ****      * The number of bytes copied is recorded in the oversize_used
 462:Source\LwIP\src\core/tcp_out.c ****      * variable. The actual copying is done at the bottom of the
 463:Source\LwIP\src\core/tcp_out.c ****      * function.
 464:Source\LwIP\src\core/tcp_out.c ****      */
 465:Source\LwIP\src\core/tcp_out.c **** #if TCP_OVERSIZE
 466:Source\LwIP\src\core/tcp_out.c **** #if TCP_OVERSIZE_DBGCHECK
 467:Source\LwIP\src\core/tcp_out.c ****     /* check that pcb->unsent_oversize matches last_unsent->oversize_left */
 468:Source\LwIP\src\core/tcp_out.c ****     LWIP_ASSERT("unsent_oversize mismatch (pcb vs. last_unsent)",
 469:Source\LwIP\src\core/tcp_out.c ****                 pcb->unsent_oversize == last_unsent->oversize_left);
 470:Source\LwIP\src\core/tcp_out.c **** #endif /* TCP_OVERSIZE_DBGCHECK */
 471:Source\LwIP\src\core/tcp_out.c ****     oversize = pcb->unsent_oversize;
 472:Source\LwIP\src\core/tcp_out.c ****     if (oversize > 0) {
 473:Source\LwIP\src\core/tcp_out.c ****       LWIP_ASSERT("inconsistent oversize vs. space", oversize <= space);
 474:Source\LwIP\src\core/tcp_out.c ****       seg = last_unsent;
 475:Source\LwIP\src\core/tcp_out.c ****       oversize_used = LWIP_MIN(space, LWIP_MIN(oversize, len));
 476:Source\LwIP\src\core/tcp_out.c ****       pos += oversize_used;
 477:Source\LwIP\src\core/tcp_out.c ****       oversize -= oversize_used;
 478:Source\LwIP\src\core/tcp_out.c ****       space -= oversize_used;
 479:Source\LwIP\src\core/tcp_out.c ****     }
 480:Source\LwIP\src\core/tcp_out.c ****     /* now we are either finished or oversize is zero */
 481:Source\LwIP\src\core/tcp_out.c ****     LWIP_ASSERT("inconsistent oversize vs. len", (oversize == 0) || (pos == len));
 482:Source\LwIP\src\core/tcp_out.c **** #endif /* TCP_OVERSIZE */
 483:Source\LwIP\src\core/tcp_out.c **** 
 484:Source\LwIP\src\core/tcp_out.c ****     /*
 485:Source\LwIP\src\core/tcp_out.c ****      * Phase 2: Chain a new pbuf to the end of pcb->unsent.
 486:Source\LwIP\src\core/tcp_out.c ****      *
 487:Source\LwIP\src\core/tcp_out.c ****      * As an exception when NOT copying the data, if the given data buffer
 488:Source\LwIP\src\core/tcp_out.c ****      * directly follows the last unsent data buffer in memory, extend the last
 489:Source\LwIP\src\core/tcp_out.c ****      * ROM pbuf reference to the buffer, thus saving a ROM pbuf allocation.
 490:Source\LwIP\src\core/tcp_out.c ****      *
 491:Source\LwIP\src\core/tcp_out.c ****      * We don't extend segments containing SYN/FIN flags or options
 492:Source\LwIP\src\core/tcp_out.c ****      * (len==0). The new pbuf is kept in concat_p and pbuf_cat'ed at
 493:Source\LwIP\src\core/tcp_out.c ****      * the end.
 494:Source\LwIP\src\core/tcp_out.c ****      */
 495:Source\LwIP\src\core/tcp_out.c ****     if ((pos < len) && (space > 0) && (last_unsent->len > 0)) {
 496:Source\LwIP\src\core/tcp_out.c ****       u16_t seglen = LWIP_MIN(space, len - pos);
 497:Source\LwIP\src\core/tcp_out.c ****       seg = last_unsent;
 498:Source\LwIP\src\core/tcp_out.c **** 
 499:Source\LwIP\src\core/tcp_out.c ****       /* Create a pbuf with a copy or reference to seglen bytes. We
 500:Source\LwIP\src\core/tcp_out.c ****        * can use PBUF_RAW here since the data appears in the middle of
 501:Source\LwIP\src\core/tcp_out.c ****        * a segment. A header will never be prepended. */
 502:Source\LwIP\src\core/tcp_out.c ****       if (apiflags & TCP_WRITE_FLAG_COPY) {
 503:Source\LwIP\src\core/tcp_out.c ****         /* Data is copied */
ARM GAS  C:\Users\Phuong\AppData\Local\Temp\cc5dKVKJ.s 			page 19


 504:Source\LwIP\src\core/tcp_out.c ****         if ((concat_p = tcp_pbuf_prealloc(PBUF_RAW, seglen, space, &oversize, pcb, apiflags, 1)) ==
 505:Source\LwIP\src\core/tcp_out.c ****           LWIP_DEBUGF(TCP_OUTPUT_DEBUG | LWIP_DBG_LEVEL_SERIOUS,
 506:Source\LwIP\src\core/tcp_out.c ****                       ("tcp_write : could not allocate memory for pbuf copy size %"U16_F"\n",
 507:Source\LwIP\src\core/tcp_out.c ****                        seglen));
 508:Source\LwIP\src\core/tcp_out.c ****           goto memerr;
 509:Source\LwIP\src\core/tcp_out.c ****         }
 510:Source\LwIP\src\core/tcp_out.c **** #if TCP_OVERSIZE_DBGCHECK
 511:Source\LwIP\src\core/tcp_out.c ****         oversize_add = oversize;
 512:Source\LwIP\src\core/tcp_out.c **** #endif /* TCP_OVERSIZE_DBGCHECK */
 513:Source\LwIP\src\core/tcp_out.c ****         TCP_DATA_COPY2(concat_p->payload, (const u8_t*)arg + pos, seglen, &concat_chksum, &concat_c
 514:Source\LwIP\src\core/tcp_out.c **** #if TCP_CHECKSUM_ON_COPY
 515:Source\LwIP\src\core/tcp_out.c ****         concat_chksummed += seglen;
 516:Source\LwIP\src\core/tcp_out.c **** #endif /* TCP_CHECKSUM_ON_COPY */
 517:Source\LwIP\src\core/tcp_out.c ****         queuelen += pbuf_clen(concat_p);
 518:Source\LwIP\src\core/tcp_out.c ****       } else {
 519:Source\LwIP\src\core/tcp_out.c ****         /* Data is not copied */
 520:Source\LwIP\src\core/tcp_out.c ****         /* If the last unsent pbuf is of type PBUF_ROM, try to extend it. */
 521:Source\LwIP\src\core/tcp_out.c ****         struct pbuf *p;
 522:Source\LwIP\src\core/tcp_out.c ****         for (p = last_unsent->p; p->next != NULL; p = p->next);
 523:Source\LwIP\src\core/tcp_out.c ****         if (p->type == PBUF_ROM && (const u8_t *)p->payload + p->len == (const u8_t *)arg) {
 524:Source\LwIP\src\core/tcp_out.c ****           LWIP_ASSERT("tcp_write: ROM pbufs cannot be oversized", pos == 0);
 525:Source\LwIP\src\core/tcp_out.c ****           extendlen = seglen;
 526:Source\LwIP\src\core/tcp_out.c ****         } else {
 527:Source\LwIP\src\core/tcp_out.c ****           if ((concat_p = pbuf_alloc(PBUF_RAW, seglen, PBUF_ROM)) == NULL) {
 528:Source\LwIP\src\core/tcp_out.c ****             LWIP_DEBUGF(TCP_OUTPUT_DEBUG | LWIP_DBG_LEVEL_SERIOUS,
 529:Source\LwIP\src\core/tcp_out.c ****                         ("tcp_write: could not allocate memory for zero-copy pbuf\n"));
 530:Source\LwIP\src\core/tcp_out.c ****             goto memerr;
 531:Source\LwIP\src\core/tcp_out.c ****           }
 532:Source\LwIP\src\core/tcp_out.c ****           /* reference the non-volatile payload data */
 533:Source\LwIP\src\core/tcp_out.c ****           ((struct pbuf_rom*)concat_p)->payload = (const u8_t*)arg + pos;
 534:Source\LwIP\src\core/tcp_out.c ****           queuelen += pbuf_clen(concat_p);
 535:Source\LwIP\src\core/tcp_out.c ****         }
 536:Source\LwIP\src\core/tcp_out.c **** #if TCP_CHECKSUM_ON_COPY
 537:Source\LwIP\src\core/tcp_out.c ****         /* calculate the checksum of nocopy-data */
 538:Source\LwIP\src\core/tcp_out.c ****         tcp_seg_add_chksum(~inet_chksum((const u8_t*)arg + pos, seglen), seglen,
 539:Source\LwIP\src\core/tcp_out.c ****           &concat_chksum, &concat_chksum_swapped);
 540:Source\LwIP\src\core/tcp_out.c ****         concat_chksummed += seglen;
 541:Source\LwIP\src\core/tcp_out.c **** #endif /* TCP_CHECKSUM_ON_COPY */
 542:Source\LwIP\src\core/tcp_out.c ****       }
 543:Source\LwIP\src\core/tcp_out.c **** 
 544:Source\LwIP\src\core/tcp_out.c ****       pos += seglen;
 545:Source\LwIP\src\core/tcp_out.c ****     }
 546:Source\LwIP\src\core/tcp_out.c ****   } else {
 547:Source\LwIP\src\core/tcp_out.c **** #if TCP_OVERSIZE
 548:Source\LwIP\src\core/tcp_out.c ****     LWIP_ASSERT("unsent_oversize mismatch (pcb->unsent is NULL)",
 549:Source\LwIP\src\core/tcp_out.c ****                 pcb->unsent_oversize == 0);
 550:Source\LwIP\src\core/tcp_out.c **** #endif /* TCP_OVERSIZE */
 551:Source\LwIP\src\core/tcp_out.c ****   }
 552:Source\LwIP\src\core/tcp_out.c **** 
 553:Source\LwIP\src\core/tcp_out.c ****   /*
 554:Source\LwIP\src\core/tcp_out.c ****    * Phase 3: Create new segments.
 555:Source\LwIP\src\core/tcp_out.c ****    *
 556:Source\LwIP\src\core/tcp_out.c ****    * The new segments are chained together in the local 'queue'
 557:Source\LwIP\src\core/tcp_out.c ****    * variable, ready to be appended to pcb->unsent.
 558:Source\LwIP\src\core/tcp_out.c ****    */
 559:Source\LwIP\src\core/tcp_out.c ****   while (pos < len) {
 560:Source\LwIP\src\core/tcp_out.c ****     struct pbuf *p;
ARM GAS  C:\Users\Phuong\AppData\Local\Temp\cc5dKVKJ.s 			page 20


 561:Source\LwIP\src\core/tcp_out.c ****     u16_t left = len - pos;
 562:Source\LwIP\src\core/tcp_out.c ****     u16_t max_len = mss_local - optlen;
 563:Source\LwIP\src\core/tcp_out.c ****     u16_t seglen = LWIP_MIN(left, max_len);
 564:Source\LwIP\src\core/tcp_out.c **** #if TCP_CHECKSUM_ON_COPY
 565:Source\LwIP\src\core/tcp_out.c ****     u16_t chksum = 0;
 566:Source\LwIP\src\core/tcp_out.c ****     u8_t chksum_swapped = 0;
 567:Source\LwIP\src\core/tcp_out.c **** #endif /* TCP_CHECKSUM_ON_COPY */
 568:Source\LwIP\src\core/tcp_out.c **** 
 569:Source\LwIP\src\core/tcp_out.c ****     if (apiflags & TCP_WRITE_FLAG_COPY) {
 570:Source\LwIP\src\core/tcp_out.c ****       /* If copy is set, memory should be allocated and data copied
 571:Source\LwIP\src\core/tcp_out.c ****        * into pbuf */
 572:Source\LwIP\src\core/tcp_out.c ****       if ((p = tcp_pbuf_prealloc(PBUF_TRANSPORT, seglen + optlen, mss_local, &oversize, pcb, apifla
 573:Source\LwIP\src\core/tcp_out.c ****         LWIP_DEBUGF(TCP_OUTPUT_DEBUG | LWIP_DBG_LEVEL_SERIOUS, ("tcp_write : could not allocate mem
 574:Source\LwIP\src\core/tcp_out.c ****         goto memerr;
 575:Source\LwIP\src\core/tcp_out.c ****       }
 576:Source\LwIP\src\core/tcp_out.c ****       LWIP_ASSERT("tcp_write: check that first pbuf can hold the complete seglen",
 577:Source\LwIP\src\core/tcp_out.c ****                   (p->len >= seglen));
 578:Source\LwIP\src\core/tcp_out.c ****       TCP_DATA_COPY2((char *)p->payload + optlen, (const u8_t*)arg + pos, seglen, &chksum, &chksum_
 579:Source\LwIP\src\core/tcp_out.c ****     } else {
 580:Source\LwIP\src\core/tcp_out.c ****       /* Copy is not set: First allocate a pbuf for holding the data.
 581:Source\LwIP\src\core/tcp_out.c ****        * Since the referenced data is available at least until it is
 582:Source\LwIP\src\core/tcp_out.c ****        * sent out on the link (as it has to be ACKed by the remote
 583:Source\LwIP\src\core/tcp_out.c ****        * party) we can safely use PBUF_ROM instead of PBUF_REF here.
 584:Source\LwIP\src\core/tcp_out.c ****        */
 585:Source\LwIP\src\core/tcp_out.c ****       struct pbuf *p2;
 586:Source\LwIP\src\core/tcp_out.c **** #if TCP_OVERSIZE
 587:Source\LwIP\src\core/tcp_out.c ****       LWIP_ASSERT("oversize == 0", oversize == 0);
 588:Source\LwIP\src\core/tcp_out.c **** #endif /* TCP_OVERSIZE */
 589:Source\LwIP\src\core/tcp_out.c ****       if ((p2 = pbuf_alloc(PBUF_TRANSPORT, seglen, PBUF_ROM)) == NULL) {
 590:Source\LwIP\src\core/tcp_out.c ****         LWIP_DEBUGF(TCP_OUTPUT_DEBUG | LWIP_DBG_LEVEL_SERIOUS, ("tcp_write: could not allocate memo
 591:Source\LwIP\src\core/tcp_out.c ****         goto memerr;
 592:Source\LwIP\src\core/tcp_out.c ****       }
 593:Source\LwIP\src\core/tcp_out.c **** #if TCP_CHECKSUM_ON_COPY
 594:Source\LwIP\src\core/tcp_out.c ****       /* calculate the checksum of nocopy-data */
 595:Source\LwIP\src\core/tcp_out.c ****       chksum = ~inet_chksum((const u8_t*)arg + pos, seglen);
 596:Source\LwIP\src\core/tcp_out.c ****       if (seglen & 1) {
 597:Source\LwIP\src\core/tcp_out.c ****         chksum_swapped = 1;
 598:Source\LwIP\src\core/tcp_out.c ****         chksum = SWAP_BYTES_IN_WORD(chksum);
 599:Source\LwIP\src\core/tcp_out.c ****       }
 600:Source\LwIP\src\core/tcp_out.c **** #endif /* TCP_CHECKSUM_ON_COPY */
 601:Source\LwIP\src\core/tcp_out.c ****       /* reference the non-volatile payload data */
 602:Source\LwIP\src\core/tcp_out.c ****       ((struct pbuf_rom*)p2)->payload = (const u8_t*)arg + pos;
 603:Source\LwIP\src\core/tcp_out.c **** 
 604:Source\LwIP\src\core/tcp_out.c ****       /* Second, allocate a pbuf for the headers. */
 605:Source\LwIP\src\core/tcp_out.c ****       if ((p = pbuf_alloc(PBUF_TRANSPORT, optlen, PBUF_RAM)) == NULL) {
 606:Source\LwIP\src\core/tcp_out.c ****         /* If allocation fails, we have to deallocate the data pbuf as
 607:Source\LwIP\src\core/tcp_out.c ****          * well. */
 608:Source\LwIP\src\core/tcp_out.c ****         pbuf_free(p2);
 609:Source\LwIP\src\core/tcp_out.c ****         LWIP_DEBUGF(TCP_OUTPUT_DEBUG | LWIP_DBG_LEVEL_SERIOUS, ("tcp_write: could not allocate memo
 610:Source\LwIP\src\core/tcp_out.c ****         goto memerr;
 611:Source\LwIP\src\core/tcp_out.c ****       }
 612:Source\LwIP\src\core/tcp_out.c ****       /* Concatenate the headers and data pbufs together. */
 613:Source\LwIP\src\core/tcp_out.c ****       pbuf_cat(p/*header*/, p2/*data*/);
 614:Source\LwIP\src\core/tcp_out.c ****     }
 615:Source\LwIP\src\core/tcp_out.c **** 
 616:Source\LwIP\src\core/tcp_out.c ****     queuelen += pbuf_clen(p);
 617:Source\LwIP\src\core/tcp_out.c **** 
ARM GAS  C:\Users\Phuong\AppData\Local\Temp\cc5dKVKJ.s 			page 21


 618:Source\LwIP\src\core/tcp_out.c ****     /* Now that there are more segments queued, we check again if the
 619:Source\LwIP\src\core/tcp_out.c ****      * length of the queue exceeds the configured maximum or
 620:Source\LwIP\src\core/tcp_out.c ****      * overflows. */
 621:Source\LwIP\src\core/tcp_out.c ****     if ((queuelen > TCP_SND_QUEUELEN) || (queuelen > TCP_SNDQUEUELEN_OVERFLOW)) {
 622:Source\LwIP\src\core/tcp_out.c ****       LWIP_DEBUGF(TCP_OUTPUT_DEBUG | LWIP_DBG_LEVEL_SERIOUS, ("tcp_write: queue too long %"U16_F" (
 623:Source\LwIP\src\core/tcp_out.c ****         queuelen, (int)TCP_SND_QUEUELEN));
 624:Source\LwIP\src\core/tcp_out.c ****       pbuf_free(p);
 625:Source\LwIP\src\core/tcp_out.c ****       goto memerr;
 626:Source\LwIP\src\core/tcp_out.c ****     }
 627:Source\LwIP\src\core/tcp_out.c **** 
 628:Source\LwIP\src\core/tcp_out.c ****     if ((seg = tcp_create_segment(pcb, p, 0, pcb->snd_lbb + pos, optflags)) == NULL) {
 629:Source\LwIP\src\core/tcp_out.c ****       goto memerr;
 630:Source\LwIP\src\core/tcp_out.c ****     }
 631:Source\LwIP\src\core/tcp_out.c **** #if TCP_OVERSIZE_DBGCHECK
 632:Source\LwIP\src\core/tcp_out.c ****     seg->oversize_left = oversize;
 633:Source\LwIP\src\core/tcp_out.c **** #endif /* TCP_OVERSIZE_DBGCHECK */
 634:Source\LwIP\src\core/tcp_out.c **** #if TCP_CHECKSUM_ON_COPY
 635:Source\LwIP\src\core/tcp_out.c ****     seg->chksum = chksum;
 636:Source\LwIP\src\core/tcp_out.c ****     seg->chksum_swapped = chksum_swapped;
 637:Source\LwIP\src\core/tcp_out.c ****     seg->flags |= TF_SEG_DATA_CHECKSUMMED;
 638:Source\LwIP\src\core/tcp_out.c **** #endif /* TCP_CHECKSUM_ON_COPY */
 639:Source\LwIP\src\core/tcp_out.c **** 
 640:Source\LwIP\src\core/tcp_out.c ****     /* first segment of to-be-queued data? */
 641:Source\LwIP\src\core/tcp_out.c ****     if (queue == NULL) {
 642:Source\LwIP\src\core/tcp_out.c ****       queue = seg;
 643:Source\LwIP\src\core/tcp_out.c ****     } else {
 644:Source\LwIP\src\core/tcp_out.c ****       /* Attach the segment to the end of the queued segments */
 645:Source\LwIP\src\core/tcp_out.c ****       LWIP_ASSERT("prev_seg != NULL", prev_seg != NULL);
 646:Source\LwIP\src\core/tcp_out.c ****       prev_seg->next = seg;
 647:Source\LwIP\src\core/tcp_out.c ****     }
 648:Source\LwIP\src\core/tcp_out.c ****     /* remember last segment of to-be-queued data for next iteration */
 649:Source\LwIP\src\core/tcp_out.c ****     prev_seg = seg;
 650:Source\LwIP\src\core/tcp_out.c **** 
 651:Source\LwIP\src\core/tcp_out.c ****     LWIP_DEBUGF(TCP_OUTPUT_DEBUG | LWIP_DBG_TRACE, ("tcp_write: queueing %"U32_F":%"U32_F"\n",
 652:Source\LwIP\src\core/tcp_out.c ****       lwip_ntohl(seg->tcphdr->seqno),
 653:Source\LwIP\src\core/tcp_out.c ****       lwip_ntohl(seg->tcphdr->seqno) + TCP_TCPLEN(seg)));
 654:Source\LwIP\src\core/tcp_out.c **** 
 655:Source\LwIP\src\core/tcp_out.c ****     pos += seglen;
 656:Source\LwIP\src\core/tcp_out.c ****   }
 657:Source\LwIP\src\core/tcp_out.c **** 
 658:Source\LwIP\src\core/tcp_out.c ****   /*
 659:Source\LwIP\src\core/tcp_out.c ****    * All three segmentation phases were successful. We can commit the
 660:Source\LwIP\src\core/tcp_out.c ****    * transaction.
 661:Source\LwIP\src\core/tcp_out.c ****    */
 662:Source\LwIP\src\core/tcp_out.c **** #if TCP_OVERSIZE_DBGCHECK
 663:Source\LwIP\src\core/tcp_out.c ****   if ((last_unsent != NULL) && (oversize_add != 0)) {
 664:Source\LwIP\src\core/tcp_out.c ****     last_unsent->oversize_left += oversize_add;
 665:Source\LwIP\src\core/tcp_out.c ****   }
 666:Source\LwIP\src\core/tcp_out.c **** #endif /* TCP_OVERSIZE_DBGCHECK */
 667:Source\LwIP\src\core/tcp_out.c **** 
 668:Source\LwIP\src\core/tcp_out.c ****   /*
 669:Source\LwIP\src\core/tcp_out.c ****    * Phase 1: If data has been added to the preallocated tail of
 670:Source\LwIP\src\core/tcp_out.c ****    * last_unsent, we update the length fields of the pbuf chain.
 671:Source\LwIP\src\core/tcp_out.c ****    */
 672:Source\LwIP\src\core/tcp_out.c **** #if TCP_OVERSIZE
 673:Source\LwIP\src\core/tcp_out.c ****   if (oversize_used > 0) {
 674:Source\LwIP\src\core/tcp_out.c ****     struct pbuf *p;
ARM GAS  C:\Users\Phuong\AppData\Local\Temp\cc5dKVKJ.s 			page 22


 675:Source\LwIP\src\core/tcp_out.c ****     /* Bump tot_len of whole chain, len of tail */
 676:Source\LwIP\src\core/tcp_out.c ****     for (p = last_unsent->p; p; p = p->next) {
 677:Source\LwIP\src\core/tcp_out.c ****       p->tot_len += oversize_used;
 678:Source\LwIP\src\core/tcp_out.c ****       if (p->next == NULL) {
 679:Source\LwIP\src\core/tcp_out.c ****         TCP_DATA_COPY((char *)p->payload + p->len, arg, oversize_used, last_unsent);
 680:Source\LwIP\src\core/tcp_out.c ****         p->len += oversize_used;
 681:Source\LwIP\src\core/tcp_out.c ****       }
 682:Source\LwIP\src\core/tcp_out.c ****     }
 683:Source\LwIP\src\core/tcp_out.c ****     last_unsent->len += oversize_used;
 684:Source\LwIP\src\core/tcp_out.c **** #if TCP_OVERSIZE_DBGCHECK
 685:Source\LwIP\src\core/tcp_out.c ****     LWIP_ASSERT("last_unsent->oversize_left >= oversize_used",
 686:Source\LwIP\src\core/tcp_out.c ****                 last_unsent->oversize_left >= oversize_used);
 687:Source\LwIP\src\core/tcp_out.c ****     last_unsent->oversize_left -= oversize_used;
 688:Source\LwIP\src\core/tcp_out.c **** #endif /* TCP_OVERSIZE_DBGCHECK */
 689:Source\LwIP\src\core/tcp_out.c ****   }
 690:Source\LwIP\src\core/tcp_out.c ****   pcb->unsent_oversize = oversize;
 691:Source\LwIP\src\core/tcp_out.c **** #endif /* TCP_OVERSIZE */
 692:Source\LwIP\src\core/tcp_out.c **** 
 693:Source\LwIP\src\core/tcp_out.c ****   /*
 694:Source\LwIP\src\core/tcp_out.c ****    * Phase 2: concat_p can be concatenated onto last_unsent->p, unless we
 695:Source\LwIP\src\core/tcp_out.c ****    * determined that the last ROM pbuf can be extended to include the new data.
 696:Source\LwIP\src\core/tcp_out.c ****    */
 697:Source\LwIP\src\core/tcp_out.c ****   if (concat_p != NULL) {
 698:Source\LwIP\src\core/tcp_out.c ****     LWIP_ASSERT("tcp_write: cannot concatenate when pcb->unsent is empty",
 699:Source\LwIP\src\core/tcp_out.c ****       (last_unsent != NULL));
 700:Source\LwIP\src\core/tcp_out.c ****     pbuf_cat(last_unsent->p, concat_p);
 701:Source\LwIP\src\core/tcp_out.c ****     last_unsent->len += concat_p->tot_len;
 702:Source\LwIP\src\core/tcp_out.c ****   } else if (extendlen > 0) {
 703:Source\LwIP\src\core/tcp_out.c ****     struct pbuf *p;
 704:Source\LwIP\src\core/tcp_out.c ****     LWIP_ASSERT("tcp_write: extension of reference requires reference",
 705:Source\LwIP\src\core/tcp_out.c ****       last_unsent != NULL && last_unsent->p != NULL);
 706:Source\LwIP\src\core/tcp_out.c ****     for (p = last_unsent->p; p->next != NULL; p = p->next) {
 707:Source\LwIP\src\core/tcp_out.c ****       p->tot_len += extendlen;
 708:Source\LwIP\src\core/tcp_out.c ****     }
 709:Source\LwIP\src\core/tcp_out.c ****     p->tot_len += extendlen;
 710:Source\LwIP\src\core/tcp_out.c ****     p->len += extendlen;
 711:Source\LwIP\src\core/tcp_out.c ****     last_unsent->len += extendlen;
 712:Source\LwIP\src\core/tcp_out.c ****   }
 713:Source\LwIP\src\core/tcp_out.c **** 
 714:Source\LwIP\src\core/tcp_out.c **** #if TCP_CHECKSUM_ON_COPY
 715:Source\LwIP\src\core/tcp_out.c ****   if (concat_chksummed) {
 716:Source\LwIP\src\core/tcp_out.c ****     LWIP_ASSERT("tcp_write: concat checksum needs concatenated data",
 717:Source\LwIP\src\core/tcp_out.c ****         concat_p != NULL || extendlen > 0);
 718:Source\LwIP\src\core/tcp_out.c ****     /*if concat checksumm swapped - swap it back */
 719:Source\LwIP\src\core/tcp_out.c ****     if (concat_chksum_swapped) {
 720:Source\LwIP\src\core/tcp_out.c ****       concat_chksum = SWAP_BYTES_IN_WORD(concat_chksum);
 721:Source\LwIP\src\core/tcp_out.c ****     }
 722:Source\LwIP\src\core/tcp_out.c ****     tcp_seg_add_chksum(concat_chksum, concat_chksummed, &last_unsent->chksum,
 723:Source\LwIP\src\core/tcp_out.c ****       &last_unsent->chksum_swapped);
 724:Source\LwIP\src\core/tcp_out.c ****     last_unsent->flags |= TF_SEG_DATA_CHECKSUMMED;
 725:Source\LwIP\src\core/tcp_out.c ****   }
 726:Source\LwIP\src\core/tcp_out.c **** #endif /* TCP_CHECKSUM_ON_COPY */
 727:Source\LwIP\src\core/tcp_out.c **** 
 728:Source\LwIP\src\core/tcp_out.c ****   /*
 729:Source\LwIP\src\core/tcp_out.c ****    * Phase 3: Append queue to pcb->unsent. Queue may be NULL, but that
 730:Source\LwIP\src\core/tcp_out.c ****    * is harmless
 731:Source\LwIP\src\core/tcp_out.c ****    */
ARM GAS  C:\Users\Phuong\AppData\Local\Temp\cc5dKVKJ.s 			page 23


 732:Source\LwIP\src\core/tcp_out.c ****   if (last_unsent == NULL) {
 733:Source\LwIP\src\core/tcp_out.c ****     pcb->unsent = queue;
 734:Source\LwIP\src\core/tcp_out.c ****   } else {
 735:Source\LwIP\src\core/tcp_out.c ****     last_unsent->next = queue;
 736:Source\LwIP\src\core/tcp_out.c ****   }
 737:Source\LwIP\src\core/tcp_out.c **** 
 738:Source\LwIP\src\core/tcp_out.c ****   /*
 739:Source\LwIP\src\core/tcp_out.c ****    * Finally update the pcb state.
 740:Source\LwIP\src\core/tcp_out.c ****    */
 741:Source\LwIP\src\core/tcp_out.c ****   pcb->snd_lbb += len;
 742:Source\LwIP\src\core/tcp_out.c ****   pcb->snd_buf -= len;
 743:Source\LwIP\src\core/tcp_out.c ****   pcb->snd_queuelen = queuelen;
 744:Source\LwIP\src\core/tcp_out.c **** 
 745:Source\LwIP\src\core/tcp_out.c ****   LWIP_DEBUGF(TCP_QLEN_DEBUG, ("tcp_write: %"S16_F" (after enqueued)\n",
 746:Source\LwIP\src\core/tcp_out.c ****     pcb->snd_queuelen));
 747:Source\LwIP\src\core/tcp_out.c ****   if (pcb->snd_queuelen != 0) {
 748:Source\LwIP\src\core/tcp_out.c ****     LWIP_ASSERT("tcp_write: valid queue length",
 749:Source\LwIP\src\core/tcp_out.c ****                 pcb->unacked != NULL || pcb->unsent != NULL);
 750:Source\LwIP\src\core/tcp_out.c ****   }
 751:Source\LwIP\src\core/tcp_out.c **** 
 752:Source\LwIP\src\core/tcp_out.c ****   /* Set the PSH flag in the last segment that we enqueued. */
 753:Source\LwIP\src\core/tcp_out.c ****   if (seg != NULL && seg->tcphdr != NULL && ((apiflags & TCP_WRITE_FLAG_MORE)==0)) {
 754:Source\LwIP\src\core/tcp_out.c ****     TCPH_SET_FLAG(seg->tcphdr, TCP_PSH);
 755:Source\LwIP\src\core/tcp_out.c ****   }
 756:Source\LwIP\src\core/tcp_out.c **** 
 757:Source\LwIP\src\core/tcp_out.c ****   return ERR_OK;
 758:Source\LwIP\src\core/tcp_out.c **** memerr:
 759:Source\LwIP\src\core/tcp_out.c ****   pcb->flags |= TF_NAGLEMEMERR;
 760:Source\LwIP\src\core/tcp_out.c ****   TCP_STATS_INC(tcp.memerr);
 761:Source\LwIP\src\core/tcp_out.c **** 
 762:Source\LwIP\src\core/tcp_out.c ****   if (concat_p != NULL) {
 763:Source\LwIP\src\core/tcp_out.c ****     pbuf_free(concat_p);
 764:Source\LwIP\src\core/tcp_out.c ****   }
 765:Source\LwIP\src\core/tcp_out.c ****   if (queue != NULL) {
 766:Source\LwIP\src\core/tcp_out.c ****     tcp_segs_free(queue);
 767:Source\LwIP\src\core/tcp_out.c ****   }
 768:Source\LwIP\src\core/tcp_out.c ****   if (pcb->snd_queuelen != 0) {
 769:Source\LwIP\src\core/tcp_out.c ****     LWIP_ASSERT("tcp_write: valid queue length", pcb->unacked != NULL ||
 770:Source\LwIP\src\core/tcp_out.c ****       pcb->unsent != NULL);
 771:Source\LwIP\src\core/tcp_out.c ****   }
 772:Source\LwIP\src\core/tcp_out.c ****   LWIP_DEBUGF(TCP_QLEN_DEBUG | LWIP_DBG_STATE, ("tcp_write: %"S16_F" (with mem err)\n", pcb->snd_qu
 773:Source\LwIP\src\core/tcp_out.c ****   return ERR_MEM;
 774:Source\LwIP\src\core/tcp_out.c **** }
 775:Source\LwIP\src\core/tcp_out.c **** 
 776:Source\LwIP\src\core/tcp_out.c **** /**
 777:Source\LwIP\src\core/tcp_out.c ****  * Enqueue TCP options for transmission.
 778:Source\LwIP\src\core/tcp_out.c ****  *
 779:Source\LwIP\src\core/tcp_out.c ****  * Called by tcp_connect(), tcp_listen_input(), and tcp_send_ctrl().
 780:Source\LwIP\src\core/tcp_out.c ****  *
 781:Source\LwIP\src\core/tcp_out.c ****  * @param pcb Protocol control block for the TCP connection.
 782:Source\LwIP\src\core/tcp_out.c ****  * @param flags TCP header flags to set in the outgoing segment.
 783:Source\LwIP\src\core/tcp_out.c ****  */
 784:Source\LwIP\src\core/tcp_out.c **** err_t
 785:Source\LwIP\src\core/tcp_out.c **** tcp_enqueue_flags(struct tcp_pcb *pcb, u8_t flags)
 786:Source\LwIP\src\core/tcp_out.c **** {
 787:Source\LwIP\src\core/tcp_out.c ****   struct pbuf *p;
 788:Source\LwIP\src\core/tcp_out.c ****   struct tcp_seg *seg;
ARM GAS  C:\Users\Phuong\AppData\Local\Temp\cc5dKVKJ.s 			page 24


 789:Source\LwIP\src\core/tcp_out.c ****   u8_t optflags = 0;
 790:Source\LwIP\src\core/tcp_out.c ****   u8_t optlen = 0;
 791:Source\LwIP\src\core/tcp_out.c **** 
 792:Source\LwIP\src\core/tcp_out.c ****   LWIP_DEBUGF(TCP_QLEN_DEBUG, ("tcp_enqueue_flags: queuelen: %"U16_F"\n", (u16_t)pcb->snd_queuelen)
 793:Source\LwIP\src\core/tcp_out.c **** 
 794:Source\LwIP\src\core/tcp_out.c ****   LWIP_ASSERT("tcp_enqueue_flags: need either TCP_SYN or TCP_FIN in flags (programmer violates API)
 795:Source\LwIP\src\core/tcp_out.c ****               (flags & (TCP_SYN | TCP_FIN)) != 0);
 796:Source\LwIP\src\core/tcp_out.c **** 
 797:Source\LwIP\src\core/tcp_out.c ****   /* check for configured max queuelen and possible overflow (FIN flag should always come through!)
 798:Source\LwIP\src\core/tcp_out.c ****   if (((pcb->snd_queuelen >= TCP_SND_QUEUELEN) || (pcb->snd_queuelen > TCP_SNDQUEUELEN_OVERFLOW)) &
 799:Source\LwIP\src\core/tcp_out.c ****       ((flags & TCP_FIN) == 0)) {
 800:Source\LwIP\src\core/tcp_out.c ****     LWIP_DEBUGF(TCP_OUTPUT_DEBUG | LWIP_DBG_LEVEL_SEVERE, ("tcp_enqueue_flags: too long queue %"U16
 801:Source\LwIP\src\core/tcp_out.c ****                                        pcb->snd_queuelen, (u16_t)TCP_SND_QUEUELEN));
 802:Source\LwIP\src\core/tcp_out.c ****     TCP_STATS_INC(tcp.memerr);
 803:Source\LwIP\src\core/tcp_out.c ****     pcb->flags |= TF_NAGLEMEMERR;
 804:Source\LwIP\src\core/tcp_out.c ****     return ERR_MEM;
 805:Source\LwIP\src\core/tcp_out.c ****   }
 806:Source\LwIP\src\core/tcp_out.c **** 
 807:Source\LwIP\src\core/tcp_out.c ****   if (flags & TCP_SYN) {
 808:Source\LwIP\src\core/tcp_out.c ****     optflags = TF_SEG_OPTS_MSS;
 809:Source\LwIP\src\core/tcp_out.c **** #if LWIP_WND_SCALE
 810:Source\LwIP\src\core/tcp_out.c ****     if ((pcb->state != SYN_RCVD) || (pcb->flags & TF_WND_SCALE)) {
 811:Source\LwIP\src\core/tcp_out.c ****       /* In a <SYN,ACK> (sent in state SYN_RCVD), the window scale option may only
 812:Source\LwIP\src\core/tcp_out.c ****          be sent if we received a window scale option from the remote host. */
 813:Source\LwIP\src\core/tcp_out.c ****       optflags |= TF_SEG_OPTS_WND_SCALE;
 814:Source\LwIP\src\core/tcp_out.c ****     }
 815:Source\LwIP\src\core/tcp_out.c **** #endif /* LWIP_WND_SCALE */
 816:Source\LwIP\src\core/tcp_out.c ****   }
 817:Source\LwIP\src\core/tcp_out.c **** #if LWIP_TCP_TIMESTAMPS
 818:Source\LwIP\src\core/tcp_out.c ****   if ((pcb->flags & TF_TIMESTAMP)) {
 819:Source\LwIP\src\core/tcp_out.c ****     /* Make sure the timestamp option is only included in data segments if we
 820:Source\LwIP\src\core/tcp_out.c ****        agreed about it with the remote host. */
 821:Source\LwIP\src\core/tcp_out.c ****     optflags |= TF_SEG_OPTS_TS;
 822:Source\LwIP\src\core/tcp_out.c ****   }
 823:Source\LwIP\src\core/tcp_out.c **** #endif /* LWIP_TCP_TIMESTAMPS */
 824:Source\LwIP\src\core/tcp_out.c ****   optlen = LWIP_TCP_OPT_LENGTH(optflags);
 825:Source\LwIP\src\core/tcp_out.c **** 
 826:Source\LwIP\src\core/tcp_out.c ****   /* Allocate pbuf with room for TCP header + options */
 827:Source\LwIP\src\core/tcp_out.c ****   if ((p = pbuf_alloc(PBUF_TRANSPORT, optlen, PBUF_RAM)) == NULL) {
 828:Source\LwIP\src\core/tcp_out.c ****     pcb->flags |= TF_NAGLEMEMERR;
 829:Source\LwIP\src\core/tcp_out.c ****     TCP_STATS_INC(tcp.memerr);
 830:Source\LwIP\src\core/tcp_out.c ****     return ERR_MEM;
 831:Source\LwIP\src\core/tcp_out.c ****   }
 832:Source\LwIP\src\core/tcp_out.c ****   LWIP_ASSERT("tcp_enqueue_flags: check that first pbuf can hold optlen",
 833:Source\LwIP\src\core/tcp_out.c ****               (p->len >= optlen));
 834:Source\LwIP\src\core/tcp_out.c **** 
 835:Source\LwIP\src\core/tcp_out.c ****   /* Allocate memory for tcp_seg, and fill in fields. */
 836:Source\LwIP\src\core/tcp_out.c ****   if ((seg = tcp_create_segment(pcb, p, flags, pcb->snd_lbb, optflags)) == NULL) {
 837:Source\LwIP\src\core/tcp_out.c ****     pcb->flags |= TF_NAGLEMEMERR;
 838:Source\LwIP\src\core/tcp_out.c ****     TCP_STATS_INC(tcp.memerr);
 839:Source\LwIP\src\core/tcp_out.c ****     return ERR_MEM;
 840:Source\LwIP\src\core/tcp_out.c ****   }
 841:Source\LwIP\src\core/tcp_out.c ****   LWIP_ASSERT("seg->tcphdr not aligned", ((mem_ptr_t)seg->tcphdr % LWIP_MIN(MEM_ALIGNMENT, 4)) == 0
 842:Source\LwIP\src\core/tcp_out.c ****   LWIP_ASSERT("tcp_enqueue_flags: invalid segment length", seg->len == 0);
 843:Source\LwIP\src\core/tcp_out.c **** 
 844:Source\LwIP\src\core/tcp_out.c ****   LWIP_DEBUGF(TCP_OUTPUT_DEBUG | LWIP_DBG_TRACE,
 845:Source\LwIP\src\core/tcp_out.c ****               ("tcp_enqueue_flags: queueing %"U32_F":%"U32_F" (0x%"X16_F")\n",
ARM GAS  C:\Users\Phuong\AppData\Local\Temp\cc5dKVKJ.s 			page 25


 846:Source\LwIP\src\core/tcp_out.c ****                lwip_ntohl(seg->tcphdr->seqno),
 847:Source\LwIP\src\core/tcp_out.c ****                lwip_ntohl(seg->tcphdr->seqno) + TCP_TCPLEN(seg),
 848:Source\LwIP\src\core/tcp_out.c ****                (u16_t)flags));
 849:Source\LwIP\src\core/tcp_out.c **** 
 850:Source\LwIP\src\core/tcp_out.c ****   /* Now append seg to pcb->unsent queue */
 851:Source\LwIP\src\core/tcp_out.c ****   if (pcb->unsent == NULL) {
 852:Source\LwIP\src\core/tcp_out.c ****     pcb->unsent = seg;
 853:Source\LwIP\src\core/tcp_out.c ****   } else {
 854:Source\LwIP\src\core/tcp_out.c ****     struct tcp_seg *useg;
 855:Source\LwIP\src\core/tcp_out.c ****     for (useg = pcb->unsent; useg->next != NULL; useg = useg->next);
 856:Source\LwIP\src\core/tcp_out.c ****     useg->next = seg;
 857:Source\LwIP\src\core/tcp_out.c ****   }
 858:Source\LwIP\src\core/tcp_out.c **** #if TCP_OVERSIZE
 859:Source\LwIP\src\core/tcp_out.c ****   /* The new unsent tail has no space */
 860:Source\LwIP\src\core/tcp_out.c ****   pcb->unsent_oversize = 0;
 861:Source\LwIP\src\core/tcp_out.c **** #endif /* TCP_OVERSIZE */
 862:Source\LwIP\src\core/tcp_out.c **** 
 863:Source\LwIP\src\core/tcp_out.c ****   /* SYN and FIN bump the sequence number */
 864:Source\LwIP\src\core/tcp_out.c ****   if ((flags & TCP_SYN) || (flags & TCP_FIN)) {
 865:Source\LwIP\src\core/tcp_out.c ****     pcb->snd_lbb++;
 866:Source\LwIP\src\core/tcp_out.c ****     /* optlen does not influence snd_buf */
 867:Source\LwIP\src\core/tcp_out.c ****   }
 868:Source\LwIP\src\core/tcp_out.c ****   if (flags & TCP_FIN) {
 869:Source\LwIP\src\core/tcp_out.c ****     pcb->flags |= TF_FIN;
 870:Source\LwIP\src\core/tcp_out.c ****   }
 871:Source\LwIP\src\core/tcp_out.c **** 
 872:Source\LwIP\src\core/tcp_out.c ****   /* update number of segments on the queues */
 873:Source\LwIP\src\core/tcp_out.c ****   pcb->snd_queuelen += pbuf_clen(seg->p);
 874:Source\LwIP\src\core/tcp_out.c ****   LWIP_DEBUGF(TCP_QLEN_DEBUG, ("tcp_enqueue_flags: %"S16_F" (after enqueued)\n", pcb->snd_queuelen)
 875:Source\LwIP\src\core/tcp_out.c ****   if (pcb->snd_queuelen != 0) {
 876:Source\LwIP\src\core/tcp_out.c ****     LWIP_ASSERT("tcp_enqueue_flags: invalid queue length",
 877:Source\LwIP\src\core/tcp_out.c ****       pcb->unacked != NULL || pcb->unsent != NULL);
 878:Source\LwIP\src\core/tcp_out.c ****   }
 879:Source\LwIP\src\core/tcp_out.c **** 
 880:Source\LwIP\src\core/tcp_out.c ****   return ERR_OK;
 881:Source\LwIP\src\core/tcp_out.c **** }
 882:Source\LwIP\src\core/tcp_out.c **** 
 883:Source\LwIP\src\core/tcp_out.c **** #if LWIP_TCP_TIMESTAMPS
 884:Source\LwIP\src\core/tcp_out.c **** /* Build a timestamp option (12 bytes long) at the specified options pointer)
 885:Source\LwIP\src\core/tcp_out.c ****  *
 886:Source\LwIP\src\core/tcp_out.c ****  * @param pcb tcp_pcb
 887:Source\LwIP\src\core/tcp_out.c ****  * @param opts option pointer where to store the timestamp option
 888:Source\LwIP\src\core/tcp_out.c ****  */
 889:Source\LwIP\src\core/tcp_out.c **** static void
 890:Source\LwIP\src\core/tcp_out.c **** tcp_build_timestamp_option(struct tcp_pcb *pcb, u32_t *opts)
 891:Source\LwIP\src\core/tcp_out.c **** {
 892:Source\LwIP\src\core/tcp_out.c ****   /* Pad with two NOP options to make everything nicely aligned */
 893:Source\LwIP\src\core/tcp_out.c ****   opts[0] = PP_HTONL(0x0101080A);
 894:Source\LwIP\src\core/tcp_out.c ****   opts[1] = lwip_htonl(sys_now());
 895:Source\LwIP\src\core/tcp_out.c ****   opts[2] = lwip_htonl(pcb->ts_recent);
 896:Source\LwIP\src\core/tcp_out.c **** }
 897:Source\LwIP\src\core/tcp_out.c **** #endif
 898:Source\LwIP\src\core/tcp_out.c **** 
 899:Source\LwIP\src\core/tcp_out.c **** #if LWIP_WND_SCALE
 900:Source\LwIP\src\core/tcp_out.c **** /** Build a window scale option (3 bytes long) at the specified options pointer)
 901:Source\LwIP\src\core/tcp_out.c ****  *
 902:Source\LwIP\src\core/tcp_out.c ****  * @param opts option pointer where to store the window scale option
ARM GAS  C:\Users\Phuong\AppData\Local\Temp\cc5dKVKJ.s 			page 26


 903:Source\LwIP\src\core/tcp_out.c ****  */
 904:Source\LwIP\src\core/tcp_out.c **** static void
 905:Source\LwIP\src\core/tcp_out.c **** tcp_build_wnd_scale_option(u32_t *opts)
 906:Source\LwIP\src\core/tcp_out.c **** {
 907:Source\LwIP\src\core/tcp_out.c ****   /* Pad with one NOP option to make everything nicely aligned */
 908:Source\LwIP\src\core/tcp_out.c ****   opts[0] = PP_HTONL(0x01030300 | TCP_RCV_SCALE);
 909:Source\LwIP\src\core/tcp_out.c **** }
 910:Source\LwIP\src\core/tcp_out.c **** #endif
 911:Source\LwIP\src\core/tcp_out.c **** 
 912:Source\LwIP\src\core/tcp_out.c **** /**
 913:Source\LwIP\src\core/tcp_out.c ****  * Send an ACK without data.
 914:Source\LwIP\src\core/tcp_out.c ****  *
 915:Source\LwIP\src\core/tcp_out.c ****  * @param pcb Protocol control block for the TCP connection to send the ACK
 916:Source\LwIP\src\core/tcp_out.c ****  */
 917:Source\LwIP\src\core/tcp_out.c **** err_t
 918:Source\LwIP\src\core/tcp_out.c **** tcp_send_empty_ack(struct tcp_pcb *pcb)
 919:Source\LwIP\src\core/tcp_out.c **** {
 920:Source\LwIP\src\core/tcp_out.c ****   err_t err;
 921:Source\LwIP\src\core/tcp_out.c ****   struct pbuf *p;
 922:Source\LwIP\src\core/tcp_out.c ****   u8_t optlen = 0;
 923:Source\LwIP\src\core/tcp_out.c ****   struct netif *netif;
 924:Source\LwIP\src\core/tcp_out.c **** #if LWIP_TCP_TIMESTAMPS || CHECKSUM_GEN_TCP
 925:Source\LwIP\src\core/tcp_out.c ****   struct tcp_hdr *tcphdr;
 926:Source\LwIP\src\core/tcp_out.c **** #endif /* LWIP_TCP_TIMESTAMPS || CHECKSUM_GEN_TCP */
 927:Source\LwIP\src\core/tcp_out.c **** 
 928:Source\LwIP\src\core/tcp_out.c **** #if LWIP_TCP_TIMESTAMPS
 929:Source\LwIP\src\core/tcp_out.c ****   if (pcb->flags & TF_TIMESTAMP) {
 930:Source\LwIP\src\core/tcp_out.c ****     optlen = LWIP_TCP_OPT_LENGTH(TF_SEG_OPTS_TS);
 931:Source\LwIP\src\core/tcp_out.c ****   }
 932:Source\LwIP\src\core/tcp_out.c **** #endif
 933:Source\LwIP\src\core/tcp_out.c **** 
 934:Source\LwIP\src\core/tcp_out.c ****   p = tcp_output_alloc_header(pcb, optlen, 0, lwip_htonl(pcb->snd_nxt));
 935:Source\LwIP\src\core/tcp_out.c ****   if (p == NULL) {
 936:Source\LwIP\src\core/tcp_out.c ****     /* let tcp_fasttmr retry sending this ACK */
 937:Source\LwIP\src\core/tcp_out.c ****     pcb->flags |= (TF_ACK_DELAY | TF_ACK_NOW);
 938:Source\LwIP\src\core/tcp_out.c ****     LWIP_DEBUGF(TCP_OUTPUT_DEBUG, ("tcp_output: (ACK) could not allocate pbuf\n"));
 939:Source\LwIP\src\core/tcp_out.c ****     return ERR_BUF;
 940:Source\LwIP\src\core/tcp_out.c ****   }
 941:Source\LwIP\src\core/tcp_out.c **** #if LWIP_TCP_TIMESTAMPS || CHECKSUM_GEN_TCP
 942:Source\LwIP\src\core/tcp_out.c ****   tcphdr = (struct tcp_hdr *)p->payload;
 943:Source\LwIP\src\core/tcp_out.c **** #endif /* LWIP_TCP_TIMESTAMPS || CHECKSUM_GEN_TCP */
 944:Source\LwIP\src\core/tcp_out.c ****   LWIP_DEBUGF(TCP_OUTPUT_DEBUG,
 945:Source\LwIP\src\core/tcp_out.c ****               ("tcp_output: sending ACK for %"U32_F"\n", pcb->rcv_nxt));
 946:Source\LwIP\src\core/tcp_out.c **** 
 947:Source\LwIP\src\core/tcp_out.c ****   /* NB. MSS and window scale options are only sent on SYNs, so ignore them here */
 948:Source\LwIP\src\core/tcp_out.c **** #if LWIP_TCP_TIMESTAMPS
 949:Source\LwIP\src\core/tcp_out.c ****   pcb->ts_lastacksent = pcb->rcv_nxt;
 950:Source\LwIP\src\core/tcp_out.c **** 
 951:Source\LwIP\src\core/tcp_out.c ****   if (pcb->flags & TF_TIMESTAMP) {
 952:Source\LwIP\src\core/tcp_out.c ****     tcp_build_timestamp_option(pcb, (u32_t *)(tcphdr + 1));
 953:Source\LwIP\src\core/tcp_out.c ****   }
 954:Source\LwIP\src\core/tcp_out.c **** #endif
 955:Source\LwIP\src\core/tcp_out.c **** 
 956:Source\LwIP\src\core/tcp_out.c ****   netif = ip_route(&pcb->local_ip, &pcb->remote_ip);
 957:Source\LwIP\src\core/tcp_out.c ****   if (netif == NULL) {
 958:Source\LwIP\src\core/tcp_out.c ****     err = ERR_RTE;
 959:Source\LwIP\src\core/tcp_out.c ****   } else {
ARM GAS  C:\Users\Phuong\AppData\Local\Temp\cc5dKVKJ.s 			page 27


 960:Source\LwIP\src\core/tcp_out.c **** #if CHECKSUM_GEN_TCP
 961:Source\LwIP\src\core/tcp_out.c ****     IF__NETIF_CHECKSUM_ENABLED(netif, NETIF_CHECKSUM_GEN_TCP) {
 962:Source\LwIP\src\core/tcp_out.c ****       tcphdr->chksum = ip_chksum_pseudo(p, IP_PROTO_TCP, p->tot_len,
 963:Source\LwIP\src\core/tcp_out.c ****         &pcb->local_ip, &pcb->remote_ip);
 964:Source\LwIP\src\core/tcp_out.c ****     }
 965:Source\LwIP\src\core/tcp_out.c **** #endif
 966:Source\LwIP\src\core/tcp_out.c ****     NETIF_SET_HWADDRHINT(netif, &(pcb->addr_hint));
 967:Source\LwIP\src\core/tcp_out.c ****     err = ip_output_if(p, &pcb->local_ip, &pcb->remote_ip,
 968:Source\LwIP\src\core/tcp_out.c ****       pcb->ttl, pcb->tos, IP_PROTO_TCP, netif);
 969:Source\LwIP\src\core/tcp_out.c ****     NETIF_SET_HWADDRHINT(netif, NULL);
 970:Source\LwIP\src\core/tcp_out.c ****   }
 971:Source\LwIP\src\core/tcp_out.c ****   pbuf_free(p);
 972:Source\LwIP\src\core/tcp_out.c **** 
 973:Source\LwIP\src\core/tcp_out.c ****   if (err != ERR_OK) {
 974:Source\LwIP\src\core/tcp_out.c ****     /* let tcp_fasttmr retry sending this ACK */
 975:Source\LwIP\src\core/tcp_out.c ****     pcb->flags |= (TF_ACK_DELAY | TF_ACK_NOW);
 976:Source\LwIP\src\core/tcp_out.c ****   } else {
 977:Source\LwIP\src\core/tcp_out.c ****     /* remove ACK flags from the PCB, as we sent an empty ACK now */
 978:Source\LwIP\src\core/tcp_out.c ****     pcb->flags &= ~(TF_ACK_DELAY | TF_ACK_NOW);
 979:Source\LwIP\src\core/tcp_out.c ****   }
 980:Source\LwIP\src\core/tcp_out.c **** 
 981:Source\LwIP\src\core/tcp_out.c ****   return err;
 982:Source\LwIP\src\core/tcp_out.c **** }
 983:Source\LwIP\src\core/tcp_out.c **** 
 984:Source\LwIP\src\core/tcp_out.c **** /**
 985:Source\LwIP\src\core/tcp_out.c ****  * @ingroup tcp_raw
 986:Source\LwIP\src\core/tcp_out.c ****  * Find out what we can send and send it
 987:Source\LwIP\src\core/tcp_out.c ****  *
 988:Source\LwIP\src\core/tcp_out.c ****  * @param pcb Protocol control block for the TCP connection to send data
 989:Source\LwIP\src\core/tcp_out.c ****  * @return ERR_OK if data has been sent or nothing to send
 990:Source\LwIP\src\core/tcp_out.c ****  *         another err_t on error
 991:Source\LwIP\src\core/tcp_out.c ****  */
 992:Source\LwIP\src\core/tcp_out.c **** err_t
 993:Source\LwIP\src\core/tcp_out.c **** tcp_output(struct tcp_pcb *pcb)
 994:Source\LwIP\src\core/tcp_out.c **** {
 995:Source\LwIP\src\core/tcp_out.c ****   struct tcp_seg *seg, *useg;
 996:Source\LwIP\src\core/tcp_out.c ****   u32_t wnd, snd_nxt;
 997:Source\LwIP\src\core/tcp_out.c ****   err_t err;
 998:Source\LwIP\src\core/tcp_out.c ****   struct netif *netif;
 999:Source\LwIP\src\core/tcp_out.c **** #if TCP_CWND_DEBUG
1000:Source\LwIP\src\core/tcp_out.c ****   s16_t i = 0;
1001:Source\LwIP\src\core/tcp_out.c **** #endif /* TCP_CWND_DEBUG */
1002:Source\LwIP\src\core/tcp_out.c **** 
1003:Source\LwIP\src\core/tcp_out.c ****   /* pcb->state LISTEN not allowed here */
1004:Source\LwIP\src\core/tcp_out.c ****   LWIP_ASSERT("don't call tcp_output for listen-pcbs",
1005:Source\LwIP\src\core/tcp_out.c ****     pcb->state != LISTEN);
1006:Source\LwIP\src\core/tcp_out.c **** 
1007:Source\LwIP\src\core/tcp_out.c ****   /* First, check if we are invoked by the TCP input processing
1008:Source\LwIP\src\core/tcp_out.c ****      code. If so, we do not output anything. Instead, we rely on the
1009:Source\LwIP\src\core/tcp_out.c ****      input processing code to call us when input processing is done
1010:Source\LwIP\src\core/tcp_out.c ****      with. */
1011:Source\LwIP\src\core/tcp_out.c ****   if (tcp_input_pcb == pcb) {
1012:Source\LwIP\src\core/tcp_out.c ****     return ERR_OK;
1013:Source\LwIP\src\core/tcp_out.c ****   }
1014:Source\LwIP\src\core/tcp_out.c **** 
1015:Source\LwIP\src\core/tcp_out.c ****   wnd = LWIP_MIN(pcb->snd_wnd, pcb->cwnd);
1016:Source\LwIP\src\core/tcp_out.c **** 
ARM GAS  C:\Users\Phuong\AppData\Local\Temp\cc5dKVKJ.s 			page 28


1017:Source\LwIP\src\core/tcp_out.c ****   seg = pcb->unsent;
1018:Source\LwIP\src\core/tcp_out.c **** 
1019:Source\LwIP\src\core/tcp_out.c ****   /* If the TF_ACK_NOW flag is set and no data will be sent (either
1020:Source\LwIP\src\core/tcp_out.c ****    * because the ->unsent queue is empty or because the window does
1021:Source\LwIP\src\core/tcp_out.c ****    * not allow it), construct an empty ACK segment and send it.
1022:Source\LwIP\src\core/tcp_out.c ****    *
1023:Source\LwIP\src\core/tcp_out.c ****    * If data is to be sent, we will just piggyback the ACK (see below).
1024:Source\LwIP\src\core/tcp_out.c ****    */
1025:Source\LwIP\src\core/tcp_out.c ****   if (pcb->flags & TF_ACK_NOW &&
1026:Source\LwIP\src\core/tcp_out.c ****      (seg == NULL ||
1027:Source\LwIP\src\core/tcp_out.c ****       lwip_ntohl(seg->tcphdr->seqno) - pcb->lastack + seg->len > wnd)) {
1028:Source\LwIP\src\core/tcp_out.c ****      return tcp_send_empty_ack(pcb);
1029:Source\LwIP\src\core/tcp_out.c ****   }
1030:Source\LwIP\src\core/tcp_out.c **** 
1031:Source\LwIP\src\core/tcp_out.c ****   /* useg should point to last segment on unacked queue */
1032:Source\LwIP\src\core/tcp_out.c ****   useg = pcb->unacked;
1033:Source\LwIP\src\core/tcp_out.c ****   if (useg != NULL) {
1034:Source\LwIP\src\core/tcp_out.c ****     for (; useg->next != NULL; useg = useg->next);
1035:Source\LwIP\src\core/tcp_out.c ****   }
1036:Source\LwIP\src\core/tcp_out.c **** 
1037:Source\LwIP\src\core/tcp_out.c ****   netif = ip_route(&pcb->local_ip, &pcb->remote_ip);
1038:Source\LwIP\src\core/tcp_out.c ****   if (netif == NULL) {
1039:Source\LwIP\src\core/tcp_out.c ****     return ERR_RTE;
1040:Source\LwIP\src\core/tcp_out.c ****   }
1041:Source\LwIP\src\core/tcp_out.c **** 
1042:Source\LwIP\src\core/tcp_out.c ****   /* If we don't have a local IP address, we get one from netif */
1043:Source\LwIP\src\core/tcp_out.c ****   if (ip_addr_isany(&pcb->local_ip)) {
1044:Source\LwIP\src\core/tcp_out.c ****     const ip_addr_t *local_ip = ip_netif_get_local_ip(netif, &pcb->remote_ip);
1045:Source\LwIP\src\core/tcp_out.c ****     if (local_ip == NULL) {
1046:Source\LwIP\src\core/tcp_out.c ****       return ERR_RTE;
1047:Source\LwIP\src\core/tcp_out.c ****     }
1048:Source\LwIP\src\core/tcp_out.c ****     ip_addr_copy(pcb->local_ip, *local_ip);
1049:Source\LwIP\src\core/tcp_out.c ****   }
1050:Source\LwIP\src\core/tcp_out.c **** 
1051:Source\LwIP\src\core/tcp_out.c **** #if TCP_OUTPUT_DEBUG
1052:Source\LwIP\src\core/tcp_out.c ****   if (seg == NULL) {
1053:Source\LwIP\src\core/tcp_out.c ****     LWIP_DEBUGF(TCP_OUTPUT_DEBUG, ("tcp_output: nothing to send (%p)\n",
1054:Source\LwIP\src\core/tcp_out.c ****                                    (void*)pcb->unsent));
1055:Source\LwIP\src\core/tcp_out.c ****   }
1056:Source\LwIP\src\core/tcp_out.c **** #endif /* TCP_OUTPUT_DEBUG */
1057:Source\LwIP\src\core/tcp_out.c **** #if TCP_CWND_DEBUG
1058:Source\LwIP\src\core/tcp_out.c ****   if (seg == NULL) {
1059:Source\LwIP\src\core/tcp_out.c ****     LWIP_DEBUGF(TCP_CWND_DEBUG, ("tcp_output: snd_wnd %"TCPWNDSIZE_F
1060:Source\LwIP\src\core/tcp_out.c ****                                  ", cwnd %"TCPWNDSIZE_F", wnd %"U32_F
1061:Source\LwIP\src\core/tcp_out.c ****                                  ", seg == NULL, ack %"U32_F"\n",
1062:Source\LwIP\src\core/tcp_out.c ****                                  pcb->snd_wnd, pcb->cwnd, wnd, pcb->lastack));
1063:Source\LwIP\src\core/tcp_out.c ****   } else {
1064:Source\LwIP\src\core/tcp_out.c ****     LWIP_DEBUGF(TCP_CWND_DEBUG,
1065:Source\LwIP\src\core/tcp_out.c ****                 ("tcp_output: snd_wnd %"TCPWNDSIZE_F", cwnd %"TCPWNDSIZE_F", wnd %"U32_F
1066:Source\LwIP\src\core/tcp_out.c ****                  ", effwnd %"U32_F", seq %"U32_F", ack %"U32_F"\n",
1067:Source\LwIP\src\core/tcp_out.c ****                  pcb->snd_wnd, pcb->cwnd, wnd,
1068:Source\LwIP\src\core/tcp_out.c ****                  lwip_ntohl(seg->tcphdr->seqno) - pcb->lastack + seg->len,
1069:Source\LwIP\src\core/tcp_out.c ****                  lwip_ntohl(seg->tcphdr->seqno), pcb->lastack));
1070:Source\LwIP\src\core/tcp_out.c ****   }
1071:Source\LwIP\src\core/tcp_out.c **** #endif /* TCP_CWND_DEBUG */
1072:Source\LwIP\src\core/tcp_out.c ****   /* Check if we need to start the persistent timer when the next unsent segment
1073:Source\LwIP\src\core/tcp_out.c ****    * does not fit within the remaining send window and RTO timer is not running (we
ARM GAS  C:\Users\Phuong\AppData\Local\Temp\cc5dKVKJ.s 			page 29


1074:Source\LwIP\src\core/tcp_out.c ****    * have no in-flight data). A traditional approach would fill the remaining window
1075:Source\LwIP\src\core/tcp_out.c ****    * with part of the unsent segment (which will engage zero-window probing upon
1076:Source\LwIP\src\core/tcp_out.c ****    * reception of the zero window update from the receiver). This ensures the
1077:Source\LwIP\src\core/tcp_out.c ****    * subsequent window update is reliably received. With the goal of being lightweight,
1078:Source\LwIP\src\core/tcp_out.c ****    * we avoid splitting the unsent segment and treat the window as already zero.
1079:Source\LwIP\src\core/tcp_out.c ****    */
1080:Source\LwIP\src\core/tcp_out.c ****   if (seg != NULL &&
1081:Source\LwIP\src\core/tcp_out.c ****       lwip_ntohl(seg->tcphdr->seqno) - pcb->lastack + seg->len > wnd &&
1082:Source\LwIP\src\core/tcp_out.c ****       wnd > 0 && wnd == pcb->snd_wnd && pcb->unacked == NULL) {
1083:Source\LwIP\src\core/tcp_out.c ****     /* Start the persist timer */
1084:Source\LwIP\src\core/tcp_out.c ****     if (pcb->persist_backoff == 0) {
1085:Source\LwIP\src\core/tcp_out.c ****       pcb->persist_cnt = 0;
1086:Source\LwIP\src\core/tcp_out.c ****       pcb->persist_backoff = 1;
1087:Source\LwIP\src\core/tcp_out.c ****     }
1088:Source\LwIP\src\core/tcp_out.c ****     goto output_done;
1089:Source\LwIP\src\core/tcp_out.c ****   }
1090:Source\LwIP\src\core/tcp_out.c ****   /* data available and window allows it to be sent? */
1091:Source\LwIP\src\core/tcp_out.c ****   while (seg != NULL &&
1092:Source\LwIP\src\core/tcp_out.c ****          lwip_ntohl(seg->tcphdr->seqno) - pcb->lastack + seg->len <= wnd) {
1093:Source\LwIP\src\core/tcp_out.c ****     LWIP_ASSERT("RST not expected here!",
1094:Source\LwIP\src\core/tcp_out.c ****                 (TCPH_FLAGS(seg->tcphdr) & TCP_RST) == 0);
1095:Source\LwIP\src\core/tcp_out.c ****     /* Stop sending if the nagle algorithm would prevent it
1096:Source\LwIP\src\core/tcp_out.c ****      * Don't stop:
1097:Source\LwIP\src\core/tcp_out.c ****      * - if tcp_write had a memory error before (prevent delayed ACK timeout) or
1098:Source\LwIP\src\core/tcp_out.c ****      * - if FIN was already enqueued for this PCB (SYN is always alone in a segment -
1099:Source\LwIP\src\core/tcp_out.c ****      *   either seg->next != NULL or pcb->unacked == NULL;
1100:Source\LwIP\src\core/tcp_out.c ****      *   RST is no sent using tcp_write/tcp_output.
1101:Source\LwIP\src\core/tcp_out.c ****      */
1102:Source\LwIP\src\core/tcp_out.c ****     if ((tcp_do_output_nagle(pcb) == 0) &&
1103:Source\LwIP\src\core/tcp_out.c ****       ((pcb->flags & (TF_NAGLEMEMERR | TF_FIN)) == 0)) {
1104:Source\LwIP\src\core/tcp_out.c ****       break;
1105:Source\LwIP\src\core/tcp_out.c ****     }
1106:Source\LwIP\src\core/tcp_out.c **** #if TCP_CWND_DEBUG
1107:Source\LwIP\src\core/tcp_out.c ****     LWIP_DEBUGF(TCP_CWND_DEBUG, ("tcp_output: snd_wnd %"TCPWNDSIZE_F", cwnd %"TCPWNDSIZE_F", wnd %"
1108:Source\LwIP\src\core/tcp_out.c ****                             pcb->snd_wnd, pcb->cwnd, wnd,
1109:Source\LwIP\src\core/tcp_out.c ****                             lwip_ntohl(seg->tcphdr->seqno) + seg->len -
1110:Source\LwIP\src\core/tcp_out.c ****                             pcb->lastack,
1111:Source\LwIP\src\core/tcp_out.c ****                             lwip_ntohl(seg->tcphdr->seqno), pcb->lastack, i));
1112:Source\LwIP\src\core/tcp_out.c ****     ++i;
1113:Source\LwIP\src\core/tcp_out.c **** #endif /* TCP_CWND_DEBUG */
1114:Source\LwIP\src\core/tcp_out.c **** 
1115:Source\LwIP\src\core/tcp_out.c ****     if (pcb->state != SYN_SENT) {
1116:Source\LwIP\src\core/tcp_out.c ****       TCPH_SET_FLAG(seg->tcphdr, TCP_ACK);
1117:Source\LwIP\src\core/tcp_out.c ****     }
1118:Source\LwIP\src\core/tcp_out.c **** 
1119:Source\LwIP\src\core/tcp_out.c **** #if TCP_OVERSIZE_DBGCHECK
1120:Source\LwIP\src\core/tcp_out.c ****     seg->oversize_left = 0;
1121:Source\LwIP\src\core/tcp_out.c **** #endif /* TCP_OVERSIZE_DBGCHECK */
1122:Source\LwIP\src\core/tcp_out.c ****     err = tcp_output_segment(seg, pcb, netif);
1123:Source\LwIP\src\core/tcp_out.c ****     if (err != ERR_OK) {
1124:Source\LwIP\src\core/tcp_out.c ****       /* segment could not be sent, for whatever reason */
1125:Source\LwIP\src\core/tcp_out.c ****       pcb->flags |= TF_NAGLEMEMERR;
1126:Source\LwIP\src\core/tcp_out.c ****       return err;
1127:Source\LwIP\src\core/tcp_out.c ****     }
1128:Source\LwIP\src\core/tcp_out.c ****     pcb->unsent = seg->next;
1129:Source\LwIP\src\core/tcp_out.c ****     if (pcb->state != SYN_SENT) {
1130:Source\LwIP\src\core/tcp_out.c ****       pcb->flags &= ~(TF_ACK_DELAY | TF_ACK_NOW);
ARM GAS  C:\Users\Phuong\AppData\Local\Temp\cc5dKVKJ.s 			page 30


1131:Source\LwIP\src\core/tcp_out.c ****     }
1132:Source\LwIP\src\core/tcp_out.c ****     snd_nxt = lwip_ntohl(seg->tcphdr->seqno) + TCP_TCPLEN(seg);
1133:Source\LwIP\src\core/tcp_out.c ****     if (TCP_SEQ_LT(pcb->snd_nxt, snd_nxt)) {
1134:Source\LwIP\src\core/tcp_out.c ****       pcb->snd_nxt = snd_nxt;
1135:Source\LwIP\src\core/tcp_out.c ****     }
1136:Source\LwIP\src\core/tcp_out.c ****     /* put segment on unacknowledged list if length > 0 */
1137:Source\LwIP\src\core/tcp_out.c ****     if (TCP_TCPLEN(seg) > 0) {
1138:Source\LwIP\src\core/tcp_out.c ****       seg->next = NULL;
1139:Source\LwIP\src\core/tcp_out.c ****       /* unacked list is empty? */
1140:Source\LwIP\src\core/tcp_out.c ****       if (pcb->unacked == NULL) {
1141:Source\LwIP\src\core/tcp_out.c ****         pcb->unacked = seg;
1142:Source\LwIP\src\core/tcp_out.c ****         useg = seg;
1143:Source\LwIP\src\core/tcp_out.c ****       /* unacked list is not empty? */
1144:Source\LwIP\src\core/tcp_out.c ****       } else {
1145:Source\LwIP\src\core/tcp_out.c ****         /* In the case of fast retransmit, the packet should not go to the tail
1146:Source\LwIP\src\core/tcp_out.c ****          * of the unacked queue, but rather somewhere before it. We need to check for
1147:Source\LwIP\src\core/tcp_out.c ****          * this case. -STJ Jul 27, 2004 */
1148:Source\LwIP\src\core/tcp_out.c ****         if (TCP_SEQ_LT(lwip_ntohl(seg->tcphdr->seqno), lwip_ntohl(useg->tcphdr->seqno))) {
1149:Source\LwIP\src\core/tcp_out.c ****           /* add segment to before tail of unacked list, keeping the list sorted */
1150:Source\LwIP\src\core/tcp_out.c ****           struct tcp_seg **cur_seg = &(pcb->unacked);
1151:Source\LwIP\src\core/tcp_out.c ****           while (*cur_seg &&
1152:Source\LwIP\src\core/tcp_out.c ****             TCP_SEQ_LT(lwip_ntohl((*cur_seg)->tcphdr->seqno), lwip_ntohl(seg->tcphdr->seqno))) {
1153:Source\LwIP\src\core/tcp_out.c ****               cur_seg = &((*cur_seg)->next );
1154:Source\LwIP\src\core/tcp_out.c ****           }
1155:Source\LwIP\src\core/tcp_out.c ****           seg->next = (*cur_seg);
1156:Source\LwIP\src\core/tcp_out.c ****           (*cur_seg) = seg;
1157:Source\LwIP\src\core/tcp_out.c ****         } else {
1158:Source\LwIP\src\core/tcp_out.c ****           /* add segment to tail of unacked list */
1159:Source\LwIP\src\core/tcp_out.c ****           useg->next = seg;
1160:Source\LwIP\src\core/tcp_out.c ****           useg = useg->next;
1161:Source\LwIP\src\core/tcp_out.c ****         }
1162:Source\LwIP\src\core/tcp_out.c ****       }
1163:Source\LwIP\src\core/tcp_out.c ****     /* do not queue empty segments on the unacked list */
1164:Source\LwIP\src\core/tcp_out.c ****     } else {
1165:Source\LwIP\src\core/tcp_out.c ****       tcp_seg_free(seg);
1166:Source\LwIP\src\core/tcp_out.c ****     }
1167:Source\LwIP\src\core/tcp_out.c ****     seg = pcb->unsent;
1168:Source\LwIP\src\core/tcp_out.c ****   }
1169:Source\LwIP\src\core/tcp_out.c **** output_done:
1170:Source\LwIP\src\core/tcp_out.c **** #if TCP_OVERSIZE
1171:Source\LwIP\src\core/tcp_out.c ****   if (pcb->unsent == NULL) {
1172:Source\LwIP\src\core/tcp_out.c ****     /* last unsent has been removed, reset unsent_oversize */
1173:Source\LwIP\src\core/tcp_out.c ****     pcb->unsent_oversize = 0;
1174:Source\LwIP\src\core/tcp_out.c ****   }
1175:Source\LwIP\src\core/tcp_out.c **** #endif /* TCP_OVERSIZE */
1176:Source\LwIP\src\core/tcp_out.c **** 
1177:Source\LwIP\src\core/tcp_out.c ****   pcb->flags &= ~TF_NAGLEMEMERR;
1178:Source\LwIP\src\core/tcp_out.c ****   return ERR_OK;
1179:Source\LwIP\src\core/tcp_out.c **** }
1180:Source\LwIP\src\core/tcp_out.c **** 
1181:Source\LwIP\src\core/tcp_out.c **** /**
1182:Source\LwIP\src\core/tcp_out.c ****  * Called by tcp_output() to actually send a TCP segment over IP.
1183:Source\LwIP\src\core/tcp_out.c ****  *
1184:Source\LwIP\src\core/tcp_out.c ****  * @param seg the tcp_seg to send
1185:Source\LwIP\src\core/tcp_out.c ****  * @param pcb the tcp_pcb for the TCP connection used to send the segment
1186:Source\LwIP\src\core/tcp_out.c ****  * @param netif the netif used to send the segment
1187:Source\LwIP\src\core/tcp_out.c ****  */
ARM GAS  C:\Users\Phuong\AppData\Local\Temp\cc5dKVKJ.s 			page 31


1188:Source\LwIP\src\core/tcp_out.c **** static err_t
1189:Source\LwIP\src\core/tcp_out.c **** tcp_output_segment(struct tcp_seg *seg, struct tcp_pcb *pcb, struct netif *netif)
1190:Source\LwIP\src\core/tcp_out.c **** {
 478              		.loc 1 1190 0
 479              		.cfi_startproc
 480              		@ args = 0, pretend = 0, frame = 0
 481              		@ frame_needed = 0, uses_anonymous_args = 0
 482              	.LVL58:
 483 0000 F0B5     		push	{r4, r5, r6, r7, lr}
 484              		.cfi_def_cfa_offset 20
 485              		.cfi_offset 4, -20
 486              		.cfi_offset 5, -16
 487              		.cfi_offset 6, -12
 488              		.cfi_offset 7, -8
 489              		.cfi_offset 14, -4
 490 0002 4746     		mov	r7, r8
 491 0004 80B4     		push	{r7}
 492              		.cfi_def_cfa_offset 24
 493              		.cfi_offset 8, -24
 494 0006 84B0     		sub	sp, sp, #16
 495              		.cfi_def_cfa_offset 40
 496 0008 0400     		movs	r4, r0
 497 000a 0D00     		movs	r5, r1
 498 000c 1600     		movs	r6, r2
1191:Source\LwIP\src\core/tcp_out.c ****   err_t err;
1192:Source\LwIP\src\core/tcp_out.c ****   u16_t len;
1193:Source\LwIP\src\core/tcp_out.c ****   u32_t *opts;
1194:Source\LwIP\src\core/tcp_out.c **** 
1195:Source\LwIP\src\core/tcp_out.c ****   if (seg->p->ref != 1) {
 499              		.loc 1 1195 0
 500 000e 4368     		ldr	r3, [r0, #4]
 501 0010 DB89     		ldrh	r3, [r3, #14]
 502 0012 012B     		cmp	r3, #1
 503 0014 73D1     		bne	.L28
1196:Source\LwIP\src\core/tcp_out.c ****     /* This can happen if the pbuf of this segment is still referenced by the
1197:Source\LwIP\src\core/tcp_out.c ****        netif driver due to deferred transmission. Since this function modifies
1198:Source\LwIP\src\core/tcp_out.c ****        p->len, we must not continue in this case. */
1199:Source\LwIP\src\core/tcp_out.c ****     return ERR_OK;
1200:Source\LwIP\src\core/tcp_out.c ****   }
1201:Source\LwIP\src\core/tcp_out.c **** 
1202:Source\LwIP\src\core/tcp_out.c ****   /* The TCP header has already been constructed, but the ackno and
1203:Source\LwIP\src\core/tcp_out.c ****    wnd fields remain. */
1204:Source\LwIP\src\core/tcp_out.c ****   seg->tcphdr->ackno = lwip_htonl(pcb->rcv_nxt);
 504              		.loc 1 1204 0
 505 0016 0769     		ldr	r7, [r0, #16]
 506 0018 486A     		ldr	r0, [r1, #36]
 507              	.LVL59:
 508 001a FFF7FEFF 		bl	lwip_htonl
 509              	.LVL60:
 510 001e 3872     		strb	r0, [r7, #8]
 511 0020 030A     		lsrs	r3, r0, #8
 512 0022 7B72     		strb	r3, [r7, #9]
 513 0024 030C     		lsrs	r3, r0, #16
 514 0026 BB72     		strb	r3, [r7, #10]
 515 0028 000E     		lsrs	r0, r0, #24
 516 002a F872     		strb	r0, [r7, #11]
1205:Source\LwIP\src\core/tcp_out.c **** 
ARM GAS  C:\Users\Phuong\AppData\Local\Temp\cc5dKVKJ.s 			page 32


1206:Source\LwIP\src\core/tcp_out.c ****   /* advertise our receive window size in this TCP segment */
1207:Source\LwIP\src\core/tcp_out.c **** #if LWIP_WND_SCALE
1208:Source\LwIP\src\core/tcp_out.c ****   if (seg->flags & TF_SEG_OPTS_WND_SCALE) {
1209:Source\LwIP\src\core/tcp_out.c ****     /* The Window field in a SYN segment itself (the only type where we send
1210:Source\LwIP\src\core/tcp_out.c ****        the window scale option) is never scaled. */
1211:Source\LwIP\src\core/tcp_out.c ****     seg->tcphdr->wnd = lwip_htons(TCPWND_MIN16(pcb->rcv_ann_wnd));
1212:Source\LwIP\src\core/tcp_out.c ****   } else
1213:Source\LwIP\src\core/tcp_out.c **** #endif /* LWIP_WND_SCALE */
1214:Source\LwIP\src\core/tcp_out.c ****   {
1215:Source\LwIP\src\core/tcp_out.c ****     seg->tcphdr->wnd = lwip_htons(TCPWND_MIN16(RCV_WND_SCALE(pcb, pcb->rcv_ann_wnd)));
 517              		.loc 1 1215 0
 518 002c 2769     		ldr	r7, [r4, #16]
 519 002e 688D     		ldrh	r0, [r5, #42]
 520 0030 FFF7FEFF 		bl	lwip_htons
 521              	.LVL61:
 522 0034 B873     		strb	r0, [r7, #14]
 523 0036 000A     		lsrs	r0, r0, #8
 524 0038 F873     		strb	r0, [r7, #15]
1216:Source\LwIP\src\core/tcp_out.c ****   }
1217:Source\LwIP\src\core/tcp_out.c **** 
1218:Source\LwIP\src\core/tcp_out.c ****   pcb->rcv_ann_right_edge = pcb->rcv_nxt + pcb->rcv_ann_wnd;
 525              		.loc 1 1218 0
 526 003a 6B8D     		ldrh	r3, [r5, #42]
 527 003c 6A6A     		ldr	r2, [r5, #36]
 528 003e 9446     		mov	ip, r2
 529 0040 6344     		add	r3, r3, ip
 530 0042 EB62     		str	r3, [r5, #44]
1219:Source\LwIP\src\core/tcp_out.c **** 
1220:Source\LwIP\src\core/tcp_out.c ****   /* Add any requested options.  NB MSS option is only set on SYN
1221:Source\LwIP\src\core/tcp_out.c ****      packets, so ignore it here */
1222:Source\LwIP\src\core/tcp_out.c ****   /* cast through void* to get rid of alignment warnings */
1223:Source\LwIP\src\core/tcp_out.c ****   opts = (u32_t *)(void *)(seg->tcphdr + 1);
 531              		.loc 1 1223 0
 532 0044 2769     		ldr	r7, [r4, #16]
 533              	.LVL62:
1224:Source\LwIP\src\core/tcp_out.c ****   if (seg->flags & TF_SEG_OPTS_MSS) {
 534              		.loc 1 1224 0
 535 0046 237B     		ldrb	r3, [r4, #12]
 536 0048 DB07     		lsls	r3, r3, #31
 537 004a 09D5     		bpl	.L25
 538              	.LBB2:
1225:Source\LwIP\src\core/tcp_out.c ****     u16_t mss;
1226:Source\LwIP\src\core/tcp_out.c **** #if TCP_CALCULATE_EFF_SEND_MSS
1227:Source\LwIP\src\core/tcp_out.c ****     mss = tcp_eff_send_mss(TCP_MSS, &pcb->local_ip, &pcb->remote_ip);
 539              		.loc 1 1227 0
 540 004c 291D     		adds	r1, r5, #4
 541 004e 2E48     		ldr	r0, .L29
 542 0050 FFF7FEFF 		bl	tcp_eff_send_mss_impl
 543              	.LVL63:
1228:Source\LwIP\src\core/tcp_out.c **** #else /* TCP_CALCULATE_EFF_SEND_MSS */
1229:Source\LwIP\src\core/tcp_out.c ****     mss = TCP_MSS;
1230:Source\LwIP\src\core/tcp_out.c **** #endif /* TCP_CALCULATE_EFF_SEND_MSS */
1231:Source\LwIP\src\core/tcp_out.c ****     *opts = TCP_BUILD_MSS_OPTION(mss);
 544              		.loc 1 1231 0
 545 0054 8123     		movs	r3, #129
 546 0056 9B04     		lsls	r3, r3, #18
 547 0058 1843     		orrs	r0, r3
ARM GAS  C:\Users\Phuong\AppData\Local\Temp\cc5dKVKJ.s 			page 33


 548              	.LVL64:
 549 005a FFF7FEFF 		bl	lwip_htonl
 550              	.LVL65:
 551 005e 7861     		str	r0, [r7, #20]
 552              	.LVL66:
 553              	.L25:
 554              	.LBE2:
1232:Source\LwIP\src\core/tcp_out.c ****     opts += 1;
1233:Source\LwIP\src\core/tcp_out.c ****   }
1234:Source\LwIP\src\core/tcp_out.c **** #if LWIP_TCP_TIMESTAMPS
1235:Source\LwIP\src\core/tcp_out.c ****   pcb->ts_lastacksent = pcb->rcv_nxt;
1236:Source\LwIP\src\core/tcp_out.c **** 
1237:Source\LwIP\src\core/tcp_out.c ****   if (seg->flags & TF_SEG_OPTS_TS) {
1238:Source\LwIP\src\core/tcp_out.c ****     tcp_build_timestamp_option(pcb, opts);
1239:Source\LwIP\src\core/tcp_out.c ****     opts += 3;
1240:Source\LwIP\src\core/tcp_out.c ****   }
1241:Source\LwIP\src\core/tcp_out.c **** #endif
1242:Source\LwIP\src\core/tcp_out.c **** #if LWIP_WND_SCALE
1243:Source\LwIP\src\core/tcp_out.c ****   if (seg->flags & TF_SEG_OPTS_WND_SCALE) {
1244:Source\LwIP\src\core/tcp_out.c ****     tcp_build_wnd_scale_option(opts);
1245:Source\LwIP\src\core/tcp_out.c ****     opts += 1;
1246:Source\LwIP\src\core/tcp_out.c ****   }
1247:Source\LwIP\src\core/tcp_out.c **** #endif
1248:Source\LwIP\src\core/tcp_out.c **** 
1249:Source\LwIP\src\core/tcp_out.c ****   /* Set retransmission timer running if it is not currently enabled
1250:Source\LwIP\src\core/tcp_out.c ****      This must be set before checking the route. */
1251:Source\LwIP\src\core/tcp_out.c ****   if (pcb->rtime < 0) {
 555              		.loc 1 1251 0
 556 0060 3022     		movs	r2, #48
 557 0062 AB5E     		ldrsh	r3, [r5, r2]
 558 0064 002B     		cmp	r3, #0
 559 0066 01DA     		bge	.L26
1252:Source\LwIP\src\core/tcp_out.c ****     pcb->rtime = 0;
 560              		.loc 1 1252 0
 561 0068 0023     		movs	r3, #0
 562 006a 2B86     		strh	r3, [r5, #48]
 563              	.L26:
1253:Source\LwIP\src\core/tcp_out.c ****   }
1254:Source\LwIP\src\core/tcp_out.c **** 
1255:Source\LwIP\src\core/tcp_out.c ****   if (pcb->rttest == 0) {
 564              		.loc 1 1255 0
 565 006c 6B6B     		ldr	r3, [r5, #52]
 566 006e 002B     		cmp	r3, #0
 567 0070 12D1     		bne	.L27
1256:Source\LwIP\src\core/tcp_out.c ****     pcb->rttest = tcp_ticks;
 568              		.loc 1 1256 0
 569 0072 264B     		ldr	r3, .L29+4
 570 0074 1B68     		ldr	r3, [r3]
 571 0076 6B63     		str	r3, [r5, #52]
1257:Source\LwIP\src\core/tcp_out.c ****     pcb->rtseq = lwip_ntohl(seg->tcphdr->seqno);
 572              		.loc 1 1257 0
 573 0078 2769     		ldr	r7, [r4, #16]
 574 007a 3979     		ldrb	r1, [r7, #4]
 575 007c 7B79     		ldrb	r3, [r7, #5]
 576 007e 1B02     		lsls	r3, r3, #8
 577 0080 0B43     		orrs	r3, r1
 578 0082 1A00     		movs	r2, r3
ARM GAS  C:\Users\Phuong\AppData\Local\Temp\cc5dKVKJ.s 			page 34


 579 0084 B879     		ldrb	r0, [r7, #6]
 580 0086 0004     		lsls	r0, r0, #16
 581 0088 0300     		movs	r3, r0
 582 008a 1343     		orrs	r3, r2
 583 008c F879     		ldrb	r0, [r7, #7]
 584 008e 0006     		lsls	r0, r0, #24
 585 0090 1843     		orrs	r0, r3
 586 0092 FFF7FEFF 		bl	lwip_htonl
 587              	.LVL67:
 588 0096 A863     		str	r0, [r5, #56]
 589              	.L27:
1258:Source\LwIP\src\core/tcp_out.c **** 
1259:Source\LwIP\src\core/tcp_out.c ****     LWIP_DEBUGF(TCP_RTO_DEBUG, ("tcp_output_segment: rtseq %"U32_F"\n", pcb->rtseq));
1260:Source\LwIP\src\core/tcp_out.c ****   }
1261:Source\LwIP\src\core/tcp_out.c ****   LWIP_DEBUGF(TCP_OUTPUT_DEBUG, ("tcp_output_segment: %"U32_F":%"U32_F"\n",
1262:Source\LwIP\src\core/tcp_out.c ****           lwip_htonl(seg->tcphdr->seqno), lwip_htonl(seg->tcphdr->seqno) +
1263:Source\LwIP\src\core/tcp_out.c ****           seg->len));
1264:Source\LwIP\src\core/tcp_out.c **** 
1265:Source\LwIP\src\core/tcp_out.c ****   len = (u16_t)((u8_t *)seg->tcphdr - (u8_t *)seg->p->payload);
 590              		.loc 1 1265 0
 591 0098 6268     		ldr	r2, [r4, #4]
 592 009a 2369     		ldr	r3, [r4, #16]
 593 009c 5168     		ldr	r1, [r2, #4]
 594 009e 5B1A     		subs	r3, r3, r1
 595 00a0 9BB2     		uxth	r3, r3
 596              	.LVL68:
1266:Source\LwIP\src\core/tcp_out.c ****   if (len == 0) {
1267:Source\LwIP\src\core/tcp_out.c ****     /** Exclude retransmitted segments from this count. */
1268:Source\LwIP\src\core/tcp_out.c ****     MIB2_STATS_INC(mib2.tcpoutsegs);
1269:Source\LwIP\src\core/tcp_out.c ****   }
1270:Source\LwIP\src\core/tcp_out.c **** 
1271:Source\LwIP\src\core/tcp_out.c ****   seg->p->len -= len;
 597              		.loc 1 1271 0
 598 00a2 5189     		ldrh	r1, [r2, #10]
 599 00a4 C91A     		subs	r1, r1, r3
 600 00a6 5181     		strh	r1, [r2, #10]
1272:Source\LwIP\src\core/tcp_out.c ****   seg->p->tot_len -= len;
 601              		.loc 1 1272 0
 602 00a8 6168     		ldr	r1, [r4, #4]
 603 00aa 0A89     		ldrh	r2, [r1, #8]
 604 00ac D31A     		subs	r3, r2, r3
 605              	.LVL69:
 606 00ae 0B81     		strh	r3, [r1, #8]
1273:Source\LwIP\src\core/tcp_out.c **** 
1274:Source\LwIP\src\core/tcp_out.c ****   seg->p->payload = seg->tcphdr;
 607              		.loc 1 1274 0
 608 00b0 6368     		ldr	r3, [r4, #4]
 609 00b2 2269     		ldr	r2, [r4, #16]
 610 00b4 5A60     		str	r2, [r3, #4]
1275:Source\LwIP\src\core/tcp_out.c **** 
1276:Source\LwIP\src\core/tcp_out.c ****   seg->tcphdr->chksum = 0;
 611              		.loc 1 1276 0
 612 00b6 2369     		ldr	r3, [r4, #16]
 613 00b8 0022     		movs	r2, #0
 614 00ba 1A74     		strb	r2, [r3, #16]
 615 00bc 5A74     		strb	r2, [r3, #17]
1277:Source\LwIP\src\core/tcp_out.c **** #if CHECKSUM_GEN_TCP
ARM GAS  C:\Users\Phuong\AppData\Local\Temp\cc5dKVKJ.s 			page 35


1278:Source\LwIP\src\core/tcp_out.c ****   IF__NETIF_CHECKSUM_ENABLED(netif, NETIF_CHECKSUM_GEN_TCP) {
1279:Source\LwIP\src\core/tcp_out.c **** #if TCP_CHECKSUM_ON_COPY
1280:Source\LwIP\src\core/tcp_out.c ****     u32_t acc;
1281:Source\LwIP\src\core/tcp_out.c **** #if TCP_CHECKSUM_ON_COPY_SANITY_CHECK
1282:Source\LwIP\src\core/tcp_out.c ****     u16_t chksum_slow = ip_chksum_pseudo(seg->p, IP_PROTO_TCP,
1283:Source\LwIP\src\core/tcp_out.c ****       seg->p->tot_len, &pcb->local_ip, &pcb->remote_ip);
1284:Source\LwIP\src\core/tcp_out.c **** #endif /* TCP_CHECKSUM_ON_COPY_SANITY_CHECK */
1285:Source\LwIP\src\core/tcp_out.c ****     if ((seg->flags & TF_SEG_DATA_CHECKSUMMED) == 0) {
1286:Source\LwIP\src\core/tcp_out.c ****       LWIP_ASSERT("data included but not checksummed",
1287:Source\LwIP\src\core/tcp_out.c ****         seg->p->tot_len == (TCPH_HDRLEN(seg->tcphdr) * 4));
1288:Source\LwIP\src\core/tcp_out.c ****     }
1289:Source\LwIP\src\core/tcp_out.c **** 
1290:Source\LwIP\src\core/tcp_out.c ****     /* rebuild TCP header checksum (TCP header changes for retransmissions!) */
1291:Source\LwIP\src\core/tcp_out.c ****     acc = ip_chksum_pseudo_partial(seg->p, IP_PROTO_TCP,
1292:Source\LwIP\src\core/tcp_out.c ****       seg->p->tot_len, TCPH_HDRLEN(seg->tcphdr) * 4, &pcb->local_ip, &pcb->remote_ip);
1293:Source\LwIP\src\core/tcp_out.c ****     /* add payload checksum */
1294:Source\LwIP\src\core/tcp_out.c ****     if (seg->chksum_swapped) {
1295:Source\LwIP\src\core/tcp_out.c ****       seg->chksum = SWAP_BYTES_IN_WORD(seg->chksum);
1296:Source\LwIP\src\core/tcp_out.c ****       seg->chksum_swapped = 0;
1297:Source\LwIP\src\core/tcp_out.c ****     }
1298:Source\LwIP\src\core/tcp_out.c ****     acc += (u16_t)~(seg->chksum);
1299:Source\LwIP\src\core/tcp_out.c ****     seg->tcphdr->chksum = FOLD_U32T(acc);
1300:Source\LwIP\src\core/tcp_out.c **** #if TCP_CHECKSUM_ON_COPY_SANITY_CHECK
1301:Source\LwIP\src\core/tcp_out.c ****     if (chksum_slow != seg->tcphdr->chksum) {
1302:Source\LwIP\src\core/tcp_out.c ****       TCP_CHECKSUM_ON_COPY_SANITY_CHECK_FAIL(
1303:Source\LwIP\src\core/tcp_out.c ****                   ("tcp_output_segment: calculated checksum is %"X16_F" instead of %"X16_F"\n",
1304:Source\LwIP\src\core/tcp_out.c ****                   seg->tcphdr->chksum, chksum_slow));
1305:Source\LwIP\src\core/tcp_out.c ****       seg->tcphdr->chksum = chksum_slow;
1306:Source\LwIP\src\core/tcp_out.c ****     }
1307:Source\LwIP\src\core/tcp_out.c **** #endif /* TCP_CHECKSUM_ON_COPY_SANITY_CHECK */
1308:Source\LwIP\src\core/tcp_out.c **** #else /* TCP_CHECKSUM_ON_COPY */
1309:Source\LwIP\src\core/tcp_out.c ****     seg->tcphdr->chksum = ip_chksum_pseudo(seg->p, IP_PROTO_TCP,
 616              		.loc 1 1309 0
 617 00be 2369     		ldr	r3, [r4, #16]
 618 00c0 9846     		mov	r8, r3
1310:Source\LwIP\src\core/tcp_out.c ****       seg->p->tot_len, &pcb->local_ip, &pcb->remote_ip);
 619              		.loc 1 1310 0
 620 00c2 2F1D     		adds	r7, r5, #4
1309:Source\LwIP\src\core/tcp_out.c ****       seg->p->tot_len, &pcb->local_ip, &pcb->remote_ip);
 621              		.loc 1 1309 0
 622 00c4 6368     		ldr	r3, [r4, #4]
 623 00c6 1A89     		ldrh	r2, [r3, #8]
 624 00c8 0097     		str	r7, [sp]
 625 00ca 2B00     		movs	r3, r5
 626 00cc 0621     		movs	r1, #6
 627 00ce 6068     		ldr	r0, [r4, #4]
 628 00d0 FFF7FEFF 		bl	ip_chksum_pseudo
 629              	.LVL70:
 630 00d4 4346     		mov	r3, r8
 631 00d6 1874     		strb	r0, [r3, #16]
 632 00d8 000A     		lsrs	r0, r0, #8
 633 00da 5874     		strb	r0, [r3, #17]
1311:Source\LwIP\src\core/tcp_out.c **** #endif /* TCP_CHECKSUM_ON_COPY */
1312:Source\LwIP\src\core/tcp_out.c ****   }
1313:Source\LwIP\src\core/tcp_out.c **** #endif /* CHECKSUM_GEN_TCP */
1314:Source\LwIP\src\core/tcp_out.c ****   TCP_STATS_INC(tcp.xmit);
 634              		.loc 1 1314 0
ARM GAS  C:\Users\Phuong\AppData\Local\Temp\cc5dKVKJ.s 			page 36


 635 00dc 0C49     		ldr	r1, .L29+8
 636 00de AC22     		movs	r2, #172
 637 00e0 8B5A     		ldrh	r3, [r1, r2]
 638 00e2 0133     		adds	r3, r3, #1
 639 00e4 8B52     		strh	r3, [r1, r2]
1315:Source\LwIP\src\core/tcp_out.c **** 
1316:Source\LwIP\src\core/tcp_out.c ****   NETIF_SET_HWADDRHINT(netif, &(pcb->addr_hint));
1317:Source\LwIP\src\core/tcp_out.c ****   err = ip_output_if(seg->p, &pcb->local_ip, &pcb->remote_ip, pcb->ttl,
 640              		.loc 1 1317 0
 641 00e6 6068     		ldr	r0, [r4, #4]
 642 00e8 AB7A     		ldrb	r3, [r5, #10]
 643 00ea 6A7A     		ldrb	r2, [r5, #9]
 644 00ec 0296     		str	r6, [sp, #8]
 645 00ee 0621     		movs	r1, #6
 646 00f0 0191     		str	r1, [sp, #4]
 647 00f2 0092     		str	r2, [sp]
 648 00f4 3A00     		movs	r2, r7
 649 00f6 2900     		movs	r1, r5
 650 00f8 FFF7FEFF 		bl	ip4_output_if
 651              	.LVL71:
1318:Source\LwIP\src\core/tcp_out.c ****     pcb->tos, IP_PROTO_TCP, netif);
1319:Source\LwIP\src\core/tcp_out.c ****   NETIF_SET_HWADDRHINT(netif, NULL);
1320:Source\LwIP\src\core/tcp_out.c ****   return err;
 652              		.loc 1 1320 0
 653 00fc 00E0     		b	.L24
 654              	.LVL72:
 655              	.L28:
1199:Source\LwIP\src\core/tcp_out.c ****   }
 656              		.loc 1 1199 0
 657 00fe 0020     		movs	r0, #0
 658              	.LVL73:
 659              	.L24:
1321:Source\LwIP\src\core/tcp_out.c **** }
 660              		.loc 1 1321 0
 661 0100 04B0     		add	sp, sp, #16
 662              		@ sp needed
 663              	.LVL74:
 664              	.LVL75:
 665              	.LVL76:
 666 0102 04BC     		pop	{r2}
 667 0104 9046     		mov	r8, r2
 668 0106 F0BD     		pop	{r4, r5, r6, r7, pc}
 669              	.L30:
 670              		.align	2
 671              	.L29:
 672 0108 B4050000 		.word	1460
 673 010c 00000000 		.word	tcp_ticks
 674 0110 00000000 		.word	lwip_stats
 675              		.cfi_endproc
 676              	.LFE62:
 677              		.size	tcp_output_segment, .-tcp_output_segment
 678              		.section	.text.tcp_write,"ax",%progbits
 679              		.align	2
 680              		.global	tcp_write
 681              		.code	16
 682              		.thumb_func
 683              		.type	tcp_write, %function
ARM GAS  C:\Users\Phuong\AppData\Local\Temp\cc5dKVKJ.s 			page 37


 684              	tcp_write:
 685              	.LFB58:
 369:Source\LwIP\src\core/tcp_out.c ****   struct pbuf *concat_p = NULL;
 686              		.loc 1 369 0
 687              		.cfi_startproc
 688              		@ args = 0, pretend = 0, frame = 40
 689              		@ frame_needed = 0, uses_anonymous_args = 0
 690              	.LVL77:
 691 0000 F0B5     		push	{r4, r5, r6, r7, lr}
 692              		.cfi_def_cfa_offset 20
 693              		.cfi_offset 4, -20
 694              		.cfi_offset 5, -16
 695              		.cfi_offset 6, -12
 696              		.cfi_offset 7, -8
 697              		.cfi_offset 14, -4
 698 0002 5F46     		mov	r7, fp
 699 0004 5646     		mov	r6, r10
 700 0006 4D46     		mov	r5, r9
 701 0008 4446     		mov	r4, r8
 702 000a F0B4     		push	{r4, r5, r6, r7}
 703              		.cfi_def_cfa_offset 36
 704              		.cfi_offset 8, -36
 705              		.cfi_offset 9, -32
 706              		.cfi_offset 10, -28
 707              		.cfi_offset 11, -24
 708 000c 8FB0     		sub	sp, sp, #60
 709              		.cfi_def_cfa_offset 96
 710 000e 0500     		movs	r5, r0
 711 0010 0591     		str	r1, [sp, #20]
 712 0012 9146     		mov	r9, r2
 713 0014 0793     		str	r3, [sp, #28]
 714              	.LVL78:
 377:Source\LwIP\src\core/tcp_out.c ****   u16_t oversize_used = 0;
 715              		.loc 1 377 0
 716 0016 0022     		movs	r2, #0
 717              	.LVL79:
 718 0018 1623     		movs	r3, #22
 719              	.LVL80:
 720 001a 08A9     		add	r1, sp, #32
 721              	.LVL81:
 722 001c 8C46     		mov	ip, r1
 723 001e 6344     		add	r3, r3, ip
 724 0020 1A80     		strh	r2, [r3]
 725              	.LVL82:
 391:Source\LwIP\src\core/tcp_out.c ****   mss_local = mss_local ? mss_local : pcb->mss;
 726              		.loc 1 391 0
 727 0022 5E23     		movs	r3, #94
 728 0024 C35A     		ldrh	r3, [r0, r3]
 729 0026 428E     		ldrh	r2, [r0, #50]
 730 0028 5B08     		lsrs	r3, r3, #1
 731 002a 191C     		adds	r1, r3, #0
 732 002c 9BB2     		uxth	r3, r3
 733 002e 9342     		cmp	r3, r2
 734 0030 00D9     		bls	.L32
 735 0032 111C     		adds	r1, r2, #0
 736              	.L32:
 737 0034 8BB2     		uxth	r3, r1
ARM GAS  C:\Users\Phuong\AppData\Local\Temp\cc5dKVKJ.s 			page 38


 738 0036 0493     		str	r3, [sp, #16]
 739              	.LVL83:
 392:Source\LwIP\src\core/tcp_out.c **** 
 740              		.loc 1 392 0
 741 0038 002B     		cmp	r3, #0
 742 003a 00D1     		bne	.L33
 743 003c 0492     		str	r2, [sp, #16]
 744              	.L33:
 745              	.LVL84:
 396:Source\LwIP\src\core/tcp_out.c **** #endif /* LWIP_NETIF_TX_SINGLE_PBUF */
 746              		.loc 1 396 0 discriminator 4
 747 003e 0123     		movs	r3, #1
 748 0040 079A     		ldr	r2, [sp, #28]
 749 0042 1343     		orrs	r3, r2
 750 0044 DBB2     		uxtb	r3, r3
 751 0046 0693     		str	r3, [sp, #24]
 752              	.LVL85:
 401:Source\LwIP\src\core/tcp_out.c ****              arg != NULL, return ERR_ARG;);
 753              		.loc 1 401 0 discriminator 4
 754 0048 059B     		ldr	r3, [sp, #20]
 755 004a 002B     		cmp	r3, #0
 756 004c 00D1     		bne	.LCB768
 757 004e 7EE1     		b	.L58	@long jump
 758              	.LCB768:
 404:Source\LwIP\src\core/tcp_out.c ****   if (err != ERR_OK) {
 759              		.loc 1 404 0
 760 0050 4946     		mov	r1, r9
 761 0052 2800     		movs	r0, r5
 762              	.LVL86:
 763 0054 FFF7FEFF 		bl	tcp_write_checks
 764              	.LVL87:
 405:Source\LwIP\src\core/tcp_out.c ****     return err;
 765              		.loc 1 405 0
 766 0058 0028     		cmp	r0, #0
 767 005a 00D0     		beq	.LCB777
 768 005c 7FE1     		b	.L34	@long jump
 769              	.LCB777:
 408:Source\LwIP\src\core/tcp_out.c **** 
 770              		.loc 1 408 0
 771 005e 6223     		movs	r3, #98
 772 0060 EE5A     		ldrh	r6, [r5, r3]
 773              	.LVL88:
 445:Source\LwIP\src\core/tcp_out.c ****     u16_t space;
 774              		.loc 1 445 0
 775 0062 AB6E     		ldr	r3, [r5, #104]
 776 0064 9A46     		mov	r10, r3
 777 0066 002B     		cmp	r3, #0
 778 0068 02D1     		bne	.L71
 779 006a 72E0     		b	.L60
 780              	.LVL89:
 781              	.L61:
 782              	.LBB3:
 451:Source\LwIP\src\core/tcp_out.c **** 
 783              		.loc 1 451 0
 784 006c 1A00     		movs	r2, r3
 785              	.LVL90:
 786 006e 00E0     		b	.L36
ARM GAS  C:\Users\Phuong\AppData\Local\Temp\cc5dKVKJ.s 			page 39


 787              	.LVL91:
 788              	.L71:
 789 0070 1A00     		movs	r2, r3
 790              	.LVL92:
 791              	.L36:
 450:Source\LwIP\src\core/tcp_out.c ****          last_unsent = last_unsent->next);
 792              		.loc 1 450 0 discriminator 1
 793 0072 1368     		ldr	r3, [r2]
 794 0074 002B     		cmp	r3, #0
 795 0076 F9D1     		bne	.L61
 796 0078 9246     		mov	r10, r2
 797 007a 9846     		mov	r8, r3
 454:Source\LwIP\src\core/tcp_out.c ****     LWIP_ASSERT("mss_local is too small", mss_local >= last_unsent->len + unsent_optlen);
 798              		.loc 1 454 0
 799 007c 137B     		ldrb	r3, [r2, #12]
 800 007e DB07     		lsls	r3, r3, #31
 801 0080 01D5     		bpl	.L62
 802 0082 0422     		movs	r2, #4
 803              	.LVL93:
 804 0084 00E0     		b	.L37
 805              	.LVL94:
 806              	.L62:
 807 0086 0022     		movs	r2, #0
 808              	.LVL95:
 809              	.L37:
 455:Source\LwIP\src\core/tcp_out.c ****     space = mss_local - (last_unsent->len + unsent_optlen);
 810              		.loc 1 455 0 discriminator 4
 811 0088 5346     		mov	r3, r10
 812 008a 1989     		ldrh	r1, [r3, #8]
 456:Source\LwIP\src\core/tcp_out.c **** 
 813              		.loc 1 456 0 discriminator 4
 814 008c 5218     		adds	r2, r2, r1
 815              	.LVL96:
 816 008e 049B     		ldr	r3, [sp, #16]
 817 0090 9A1A     		subs	r2, r3, r2
 818 0092 92B2     		uxth	r2, r2
 819              	.LVL97:
 471:Source\LwIP\src\core/tcp_out.c ****     if (oversize > 0) {
 820              		.loc 1 471 0 discriminator 4
 821 0094 6423     		movs	r3, #100
 822 0096 EB5A     		ldrh	r3, [r5, r3]
 823 0098 1620     		movs	r0, #22
 824              	.LVL98:
 825 009a 08AC     		add	r4, sp, #32
 826 009c A446     		mov	ip, r4
 827 009e 6044     		add	r0, r0, ip
 828 00a0 0380     		strh	r3, [r0]
 472:Source\LwIP\src\core/tcp_out.c ****       LWIP_ASSERT("inconsistent oversize vs. space", oversize <= space);
 829              		.loc 1 472 0 discriminator 4
 830 00a2 002B     		cmp	r3, #0
 831 00a4 15D0     		beq	.L63
 832              	.LVL99:
 475:Source\LwIP\src\core/tcp_out.c ****       pos += oversize_used;
 833              		.loc 1 475 0
 834 00a6 4846     		mov	r0, r9
 835 00a8 9945     		cmp	r9, r3
 836 00aa 00D9     		bls	.L39
ARM GAS  C:\Users\Phuong\AppData\Local\Temp\cc5dKVKJ.s 			page 40


 837 00ac 181C     		adds	r0, r3, #0
 838              	.L39:
 839 00ae 171C     		adds	r7, r2, #0
 840 00b0 84B2     		uxth	r4, r0
 841 00b2 A242     		cmp	r2, r4
 842 00b4 00D9     		bls	.L40
 843 00b6 071C     		adds	r7, r0, #0
 844              	.L40:
 845 00b8 B8B2     		uxth	r0, r7
 846 00ba 0400     		movs	r4, r0
 847 00bc 0890     		str	r0, [sp, #32]
 848              	.LVL100:
 477:Source\LwIP\src\core/tcp_out.c ****       space -= oversize_used;
 849              		.loc 1 477 0
 850 00be 1B1A     		subs	r3, r3, r0
 851 00c0 1620     		movs	r0, #22
 852 00c2 08AF     		add	r7, sp, #32
 853              	.LVL101:
 854 00c4 BC46     		mov	ip, r7
 855 00c6 6044     		add	r0, r0, ip
 856 00c8 0380     		strh	r3, [r0]
 478:Source\LwIP\src\core/tcp_out.c ****     }
 857              		.loc 1 478 0
 858 00ca 121B     		subs	r2, r2, r4
 859              	.LVL102:
 860 00cc 92B2     		uxth	r2, r2
 861              	.LVL103:
 474:Source\LwIP\src\core/tcp_out.c ****       oversize_used = LWIP_MIN(space, LWIP_MIN(oversize, len));
 862              		.loc 1 474 0
 863 00ce 5746     		mov	r7, r10
 864 00d0 02E0     		b	.L38
 865              	.LVL104:
 866              	.L63:
 867              	.LBE3:
 371:Source\LwIP\src\core/tcp_out.c ****   u16_t pos = 0; /* position in 'arg' data */
 868              		.loc 1 371 0
 869 00d2 4746     		mov	r7, r8
 372:Source\LwIP\src\core/tcp_out.c ****   u16_t queuelen;
 870              		.loc 1 372 0
 871 00d4 0023     		movs	r3, #0
 872 00d6 0893     		str	r3, [sp, #32]
 873              	.LVL105:
 874              	.L38:
 875              	.LBB5:
 495:Source\LwIP\src\core/tcp_out.c ****       u16_t seglen = LWIP_MIN(space, len - pos);
 876              		.loc 1 495 0
 877 00d8 089B     		ldr	r3, [sp, #32]
 878 00da 4B45     		cmp	r3, r9
 879 00dc 40D2     		bcs	.L64
 495:Source\LwIP\src\core/tcp_out.c ****       u16_t seglen = LWIP_MIN(space, len - pos);
 880              		.loc 1 495 0 is_stmt 0 discriminator 1
 881 00de 002A     		cmp	r2, #0
 882 00e0 43D0     		beq	.L65
 495:Source\LwIP\src\core/tcp_out.c ****       u16_t seglen = LWIP_MIN(space, len - pos);
 883              		.loc 1 495 0 discriminator 2
 884 00e2 0029     		cmp	r1, #0
 885 00e4 46D0     		beq	.L66
ARM GAS  C:\Users\Phuong\AppData\Local\Temp\cc5dKVKJ.s 			page 41


 886              	.LBB4:
 496:Source\LwIP\src\core/tcp_out.c ****       seg = last_unsent;
 887              		.loc 1 496 0 is_stmt 1
 888 00e6 4B46     		mov	r3, r9
 889 00e8 0899     		ldr	r1, [sp, #32]
 890 00ea 5B1A     		subs	r3, r3, r1
 891 00ec 1700     		movs	r7, r2
 892              	.LVL106:
 893 00ee 9A42     		cmp	r2, r3
 894 00f0 00DD     		ble	.L41
 895 00f2 1F00     		movs	r7, r3
 896              	.L41:
 897 00f4 BCB2     		uxth	r4, r7
 898              	.LVL107:
 504:Source\LwIP\src\core/tcp_out.c ****           LWIP_DEBUGF(TCP_OUTPUT_DEBUG | LWIP_DBG_LEVEL_SERIOUS,
 899              		.loc 1 504 0
 900 00f6 0123     		movs	r3, #1
 901 00f8 0293     		str	r3, [sp, #8]
 902 00fa 069B     		ldr	r3, [sp, #24]
 903 00fc 0193     		str	r3, [sp, #4]
 904 00fe 0095     		str	r5, [sp]
 905 0100 1623     		movs	r3, #22
 906 0102 08A9     		add	r1, sp, #32
 907 0104 8C46     		mov	ip, r1
 908              	.LVL108:
 909 0106 6344     		add	r3, r3, ip
 910 0108 2100     		movs	r1, r4
 911              	.LVL109:
 912 010a 0420     		movs	r0, #4
 913 010c FFF7FEFF 		bl	tcp_pbuf_prealloc
 914              	.LVL110:
 915 0110 0990     		str	r0, [sp, #36]
 916              	.LVL111:
 917 0112 0028     		cmp	r0, #0
 918 0114 00D1     		bne	.LCB950
 919 0116 02E1     		b	.L42	@long jump
 920              	.LCB950:
 511:Source\LwIP\src\core/tcp_out.c **** #endif /* TCP_OVERSIZE_DBGCHECK */
 921              		.loc 1 511 0
 922 0118 1623     		movs	r3, #22
 923 011a 08A9     		add	r1, sp, #32
 924              	.LVL112:
 925 011c 8C46     		mov	ip, r1
 926 011e 6344     		add	r3, r3, ip
 927 0120 1B88     		ldrh	r3, [r3]
 928 0122 0B93     		str	r3, [sp, #44]
 929              	.LVL113:
 513:Source\LwIP\src\core/tcp_out.c **** #if TCP_CHECKSUM_ON_COPY
 930              		.loc 1 513 0
 931 0124 059B     		ldr	r3, [sp, #20]
 932 0126 1900     		movs	r1, r3
 933              	.LVL114:
 934 0128 089B     		ldr	r3, [sp, #32]
 935 012a 9C46     		mov	ip, r3
 936              	.LVL115:
 937 012c 6144     		add	r1, r1, ip
 938 012e 4268     		ldr	r2, [r0, #4]
ARM GAS  C:\Users\Phuong\AppData\Local\Temp\cc5dKVKJ.s 			page 42


 939 0130 0A92     		str	r2, [sp, #40]
 940 0132 3A04     		lsls	r2, r7, #16
 941 0134 120C     		lsrs	r2, r2, #16
 942 0136 0A98     		ldr	r0, [sp, #40]
 943              	.LVL116:
 944 0138 FFF7FEFF 		bl	memcpy
 945              	.LVL117:
 517:Source\LwIP\src\core/tcp_out.c ****       } else {
 946              		.loc 1 517 0
 947 013c 0998     		ldr	r0, [sp, #36]
 948 013e FFF7FEFF 		bl	pbuf_clen
 949              	.LVL118:
 950 0142 3618     		adds	r6, r6, r0
 951              	.LVL119:
 952 0144 B6B2     		uxth	r6, r6
 953              	.LVL120:
 544:Source\LwIP\src\core/tcp_out.c ****     }
 954              		.loc 1 544 0
 955 0146 089B     		ldr	r3, [sp, #32]
 956 0148 9C46     		mov	ip, r3
 957 014a 6444     		add	r4, r4, ip
 958              	.LVL121:
 959 014c A4B2     		uxth	r4, r4
 960              	.LVL122:
 497:Source\LwIP\src\core/tcp_out.c **** 
 961              		.loc 1 497 0
 962 014e 5746     		mov	r7, r10
 963              	.LVL123:
 964 0150 14E0     		b	.L35
 965              	.LVL124:
 966              	.L60:
 967              	.LBE4:
 968              	.LBE5:
 371:Source\LwIP\src\core/tcp_out.c ****   u16_t pos = 0; /* position in 'arg' data */
 969              		.loc 1 371 0
 970 0152 1F00     		movs	r7, r3
 380:Source\LwIP\src\core/tcp_out.c **** #endif /* TCP_OVERSIZE_DBGCHECK*/
 971              		.loc 1 380 0
 972 0154 0023     		movs	r3, #0
 973 0156 0B93     		str	r3, [sp, #44]
 378:Source\LwIP\src\core/tcp_out.c **** #if TCP_OVERSIZE_DBGCHECK
 974              		.loc 1 378 0
 975 0158 0893     		str	r3, [sp, #32]
 372:Source\LwIP\src\core/tcp_out.c ****   u16_t queuelen;
 976              		.loc 1 372 0
 977 015a 0024     		movs	r4, #0
 370:Source\LwIP\src\core/tcp_out.c ****   struct tcp_seg *last_unsent = NULL, *seg = NULL, *prev_seg = NULL, *queue = NULL;
 978              		.loc 1 370 0
 979 015c 0993     		str	r3, [sp, #36]
 980 015e 0DE0     		b	.L35
 981              	.LVL125:
 982              	.L64:
 983              	.LBB6:
 984 0160 089C     		ldr	r4, [sp, #32]
 985              	.LBE6:
 380:Source\LwIP\src\core/tcp_out.c **** #endif /* TCP_OVERSIZE_DBGCHECK*/
 986              		.loc 1 380 0
ARM GAS  C:\Users\Phuong\AppData\Local\Temp\cc5dKVKJ.s 			page 43


 987 0162 0023     		movs	r3, #0
 988 0164 0B93     		str	r3, [sp, #44]
 370:Source\LwIP\src\core/tcp_out.c ****   struct tcp_seg *last_unsent = NULL, *seg = NULL, *prev_seg = NULL, *queue = NULL;
 989              		.loc 1 370 0
 990 0166 0993     		str	r3, [sp, #36]
 991 0168 08E0     		b	.L35
 992              	.L65:
 993              	.LBB7:
 994 016a 089C     		ldr	r4, [sp, #32]
 995              	.LBE7:
 380:Source\LwIP\src\core/tcp_out.c **** #endif /* TCP_OVERSIZE_DBGCHECK*/
 996              		.loc 1 380 0
 997 016c 0023     		movs	r3, #0
 998 016e 0B93     		str	r3, [sp, #44]
 370:Source\LwIP\src\core/tcp_out.c ****   struct tcp_seg *last_unsent = NULL, *seg = NULL, *prev_seg = NULL, *queue = NULL;
 999              		.loc 1 370 0
 1000 0170 0993     		str	r3, [sp, #36]
 1001 0172 03E0     		b	.L35
 1002              	.L66:
 1003              	.LBB8:
 1004 0174 089C     		ldr	r4, [sp, #32]
 1005              	.LBE8:
 380:Source\LwIP\src\core/tcp_out.c **** #endif /* TCP_OVERSIZE_DBGCHECK*/
 1006              		.loc 1 380 0
 1007 0176 0023     		movs	r3, #0
 1008 0178 0B93     		str	r3, [sp, #44]
 370:Source\LwIP\src\core/tcp_out.c ****   struct tcp_seg *last_unsent = NULL, *seg = NULL, *prev_seg = NULL, *queue = NULL;
 1009              		.loc 1 370 0
 1010 017a 0993     		str	r3, [sp, #36]
 1011              	.LVL126:
 1012              	.L35:
 1013              	.LBB9:
 642:Source\LwIP\src\core/tcp_out.c ****     } else {
 1014              		.loc 1 642 0
 1015 017c 0023     		movs	r3, #0
 1016 017e 9846     		mov	r8, r3
 1017 0180 9B46     		mov	fp, r3
 1018 0182 5346     		mov	r3, r10
 1019 0184 0A93     		str	r3, [sp, #40]
 1020 0186 3800     		movs	r0, r7
 1021 0188 AA46     		mov	r10, r5
 1022 018a 3500     		movs	r5, r6
 1023              	.LVL127:
 1024 018c 2600     		movs	r6, r4
 1025              	.LVL128:
 1026 018e 4AE0     		b	.L43
 1027              	.LVL129:
 1028              	.L47:
 561:Source\LwIP\src\core/tcp_out.c ****     u16_t max_len = mss_local - optlen;
 1029              		.loc 1 561 0
 1030 0190 4B46     		mov	r3, r9
 1031 0192 9B1B     		subs	r3, r3, r6
 1032 0194 9BB2     		uxth	r3, r3
 1033              	.LVL130:
 563:Source\LwIP\src\core/tcp_out.c **** #if TCP_CHECKSUM_ON_COPY
 1034              		.loc 1 563 0
 1035 0196 049A     		ldr	r2, [sp, #16]
ARM GAS  C:\Users\Phuong\AppData\Local\Temp\cc5dKVKJ.s 			page 44


 1036 0198 141C     		adds	r4, r2, #0
 1037 019a 9A42     		cmp	r2, r3
 1038 019c 00D9     		bls	.L44
 1039 019e 1C1C     		adds	r4, r3, #0
 1040              	.L44:
 1041 01a0 A4B2     		uxth	r4, r4
 1042              	.LVL131:
 572:Source\LwIP\src\core/tcp_out.c ****         LWIP_DEBUGF(TCP_OUTPUT_DEBUG | LWIP_DBG_LEVEL_SERIOUS, ("tcp_write : could not allocate mem
 1043              		.loc 1 572 0
 1044 01a2 4346     		mov	r3, r8
 1045              	.LVL132:
 1046 01a4 5A42     		rsbs	r2, r3, #0
 1047 01a6 5341     		adcs	r3, r3, r2
 1048 01a8 0293     		str	r3, [sp, #8]
 1049 01aa 069B     		ldr	r3, [sp, #24]
 1050 01ac 0193     		str	r3, [sp, #4]
 1051 01ae 5346     		mov	r3, r10
 1052 01b0 0093     		str	r3, [sp]
 1053 01b2 1623     		movs	r3, #22
 1054 01b4 08AA     		add	r2, sp, #32
 1055              	.LVL133:
 1056 01b6 9446     		mov	ip, r2
 1057 01b8 6344     		add	r3, r3, ip
 1058 01ba 049A     		ldr	r2, [sp, #16]
 1059              	.LVL134:
 1060 01bc 2100     		movs	r1, r4
 1061 01be 0020     		movs	r0, #0
 1062              	.LVL135:
 1063 01c0 FFF7FEFF 		bl	tcp_pbuf_prealloc
 1064              	.LVL136:
 1065 01c4 071E     		subs	r7, r0, #0
 1066              	.LVL137:
 1067 01c6 00D1     		bne	.LCB1138
 1068 01c8 A6E0     		b	.L72	@long jump
 1069              	.LCB1138:
 578:Source\LwIP\src\core/tcp_out.c ****     } else {
 1070              		.loc 1 578 0
 1071 01ca 059B     		ldr	r3, [sp, #20]
 1072 01cc 9919     		adds	r1, r3, r6
 1073 01ce 2200     		movs	r2, r4
 1074 01d0 4068     		ldr	r0, [r0, #4]
 1075              	.LVL138:
 1076 01d2 FFF7FEFF 		bl	memcpy
 1077              	.LVL139:
 616:Source\LwIP\src\core/tcp_out.c **** 
 1078              		.loc 1 616 0
 1079 01d6 3800     		movs	r0, r7
 1080 01d8 FFF7FEFF 		bl	pbuf_clen
 1081              	.LVL140:
 1082 01dc 2D18     		adds	r5, r5, r0
 1083              	.LVL141:
 1084 01de ADB2     		uxth	r5, r5
 1085              	.LVL142:
 621:Source\LwIP\src\core/tcp_out.c ****       LWIP_DEBUGF(TCP_OUTPUT_DEBUG | LWIP_DBG_LEVEL_SERIOUS, ("tcp_write: queue too long %"U16_F" (
 1086              		.loc 1 621 0
 1087 01e0 182D     		cmp	r5, #24
 1088 01e2 04D9     		bls	.L45
ARM GAS  C:\Users\Phuong\AppData\Local\Temp\cc5dKVKJ.s 			page 45


 1089 01e4 5546     		mov	r5, r10
 1090              	.LVL143:
 624:Source\LwIP\src\core/tcp_out.c ****       goto memerr;
 1091              		.loc 1 624 0
 1092 01e6 3800     		movs	r0, r7
 1093 01e8 FFF7FEFF 		bl	pbuf_free
 1094              	.LVL144:
 625:Source\LwIP\src\core/tcp_out.c ****     }
 1095              		.loc 1 625 0
 1096 01ec 97E0     		b	.L42
 1097              	.LVL145:
 1098              	.L45:
 628:Source\LwIP\src\core/tcp_out.c ****       goto memerr;
 1099              		.loc 1 628 0
 1100 01ee 5346     		mov	r3, r10
 1101 01f0 9B6D     		ldr	r3, [r3, #88]
 1102 01f2 F318     		adds	r3, r6, r3
 1103 01f4 0022     		movs	r2, #0
 1104 01f6 0092     		str	r2, [sp]
 1105 01f8 3900     		movs	r1, r7
 1106 01fa 5046     		mov	r0, r10
 1107 01fc FFF7FEFF 		bl	tcp_create_segment
 1108              	.LVL146:
 1109 0200 0028     		cmp	r0, #0
 1110 0202 00D1     		bne	.LCB1180
 1111 0204 8AE0     		b	.L73	@long jump
 1112              	.LCB1180:
 632:Source\LwIP\src\core/tcp_out.c **** #endif /* TCP_OVERSIZE_DBGCHECK */
 1113              		.loc 1 632 0
 1114 0206 1623     		movs	r3, #22
 1115 0208 08AA     		add	r2, sp, #32
 1116              	.LVL147:
 1117 020a 9446     		mov	ip, r2
 1118 020c 6344     		add	r3, r3, ip
 1119 020e 1B88     		ldrh	r3, [r3]
 1120 0210 4381     		strh	r3, [r0, #10]
 641:Source\LwIP\src\core/tcp_out.c ****       queue = seg;
 1121              		.loc 1 641 0
 1122 0212 4346     		mov	r3, r8
 1123 0214 002B     		cmp	r3, #0
 1124 0216 02D0     		beq	.L67
 1125              	.LVL148:
 646:Source\LwIP\src\core/tcp_out.c ****     }
 1126              		.loc 1 646 0
 1127 0218 5B46     		mov	r3, fp
 1128              	.LVL149:
 1129 021a 1860     		str	r0, [r3]
 1130 021c 00E0     		b	.L46
 1131              	.LVL150:
 1132              	.L67:
 642:Source\LwIP\src\core/tcp_out.c ****     } else {
 1133              		.loc 1 642 0
 1134 021e 8046     		mov	r8, r0
 1135              	.LVL151:
 1136              	.L46:
 655:Source\LwIP\src\core/tcp_out.c ****   }
 1137              		.loc 1 655 0
ARM GAS  C:\Users\Phuong\AppData\Local\Temp\cc5dKVKJ.s 			page 46


 1138 0220 3419     		adds	r4, r6, r4
 1139              	.LVL152:
 1140 0222 A6B2     		uxth	r6, r4
 1141              	.LVL153:
 649:Source\LwIP\src\core/tcp_out.c **** 
 1142              		.loc 1 649 0
 1143 0224 8346     		mov	fp, r0
 1144              	.LVL154:
 1145              	.L43:
 1146              	.LBE9:
 559:Source\LwIP\src\core/tcp_out.c ****     struct pbuf *p;
 1147              		.loc 1 559 0
 1148 0226 4E45     		cmp	r6, r9
 1149 0228 B2D3     		bcc	.L47
 1150 022a 0700     		movs	r7, r0
 1151 022c 2E00     		movs	r6, r5
 1152              	.LVL155:
 1153 022e 5546     		mov	r5, r10
 1154              	.LVL156:
 1155 0230 0A9B     		ldr	r3, [sp, #40]
 1156 0232 9A46     		mov	r10, r3
 1157              	.LVL157:
 663:Source\LwIP\src\core/tcp_out.c ****     last_unsent->oversize_left += oversize_add;
 1158              		.loc 1 663 0
 1159 0234 002B     		cmp	r3, #0
 1160 0236 08D0     		beq	.L48
 663:Source\LwIP\src\core/tcp_out.c ****     last_unsent->oversize_left += oversize_add;
 1161              		.loc 1 663 0 is_stmt 0 discriminator 1
 1162 0238 0B9A     		ldr	r2, [sp, #44]
 1163 023a 002A     		cmp	r2, #0
 1164 023c 05D0     		beq	.L48
 664:Source\LwIP\src\core/tcp_out.c ****   }
 1165              		.loc 1 664 0 is_stmt 1
 1166 023e 5346     		mov	r3, r10
 1167 0240 5B89     		ldrh	r3, [r3, #10]
 1168 0242 9446     		mov	ip, r2
 1169 0244 6344     		add	r3, r3, ip
 1170 0246 5246     		mov	r2, r10
 1171 0248 5381     		strh	r3, [r2, #10]
 1172              	.LVL158:
 1173              	.L48:
 673:Source\LwIP\src\core/tcp_out.c ****     struct pbuf *p;
 1174              		.loc 1 673 0
 1175 024a 089B     		ldr	r3, [sp, #32]
 1176 024c 002B     		cmp	r3, #0
 1177 024e 24D0     		beq	.L49
 1178              	.LBB10:
 676:Source\LwIP\src\core/tcp_out.c ****       p->tot_len += oversize_used;
 1179              		.loc 1 676 0
 1180 0250 5246     		mov	r2, r10
 1181 0252 5468     		ldr	r4, [r2, #4]
 1182              	.LVL159:
 1183 0254 AB46     		mov	fp, r5
 1184              	.LVL160:
 1185 0256 1D00     		movs	r5, r3
 1186              	.LVL161:
 1187 0258 11E0     		b	.L50
ARM GAS  C:\Users\Phuong\AppData\Local\Temp\cc5dKVKJ.s 			page 47


 1188              	.LVL162:
 1189              	.L52:
 677:Source\LwIP\src\core/tcp_out.c ****       if (p->next == NULL) {
 1190              		.loc 1 677 0
 1191 025a 2389     		ldrh	r3, [r4, #8]
 1192 025c EB18     		adds	r3, r5, r3
 1193 025e 2381     		strh	r3, [r4, #8]
 678:Source\LwIP\src\core/tcp_out.c ****         TCP_DATA_COPY((char *)p->payload + p->len, arg, oversize_used, last_unsent);
 1194              		.loc 1 678 0
 1195 0260 2368     		ldr	r3, [r4]
 1196 0262 002B     		cmp	r3, #0
 1197 0264 0AD1     		bne	.L51
 679:Source\LwIP\src\core/tcp_out.c ****         p->len += oversize_used;
 1198              		.loc 1 679 0
 1199 0266 6089     		ldrh	r0, [r4, #10]
 1200 0268 6368     		ldr	r3, [r4, #4]
 1201 026a 9C46     		mov	ip, r3
 1202 026c 6044     		add	r0, r0, ip
 1203 026e 2A00     		movs	r2, r5
 1204 0270 0599     		ldr	r1, [sp, #20]
 1205 0272 FFF7FEFF 		bl	memcpy
 1206              	.LVL163:
 680:Source\LwIP\src\core/tcp_out.c ****       }
 1207              		.loc 1 680 0
 1208 0276 6389     		ldrh	r3, [r4, #10]
 1209 0278 EB18     		adds	r3, r5, r3
 1210 027a 6381     		strh	r3, [r4, #10]
 1211              	.L51:
 676:Source\LwIP\src\core/tcp_out.c ****       p->tot_len += oversize_used;
 1212              		.loc 1 676 0 discriminator 2
 1213 027c 2468     		ldr	r4, [r4]
 1214              	.LVL164:
 1215              	.L50:
 676:Source\LwIP\src\core/tcp_out.c ****       p->tot_len += oversize_used;
 1216              		.loc 1 676 0 is_stmt 0 discriminator 1
 1217 027e 002C     		cmp	r4, #0
 1218 0280 EBD1     		bne	.L52
 1219 0282 5D46     		mov	r5, fp
 683:Source\LwIP\src\core/tcp_out.c **** #if TCP_OVERSIZE_DBGCHECK
 1220              		.loc 1 683 0 is_stmt 1
 1221 0284 5346     		mov	r3, r10
 1222 0286 1B89     		ldrh	r3, [r3, #8]
 1223 0288 0899     		ldr	r1, [sp, #32]
 1224 028a 8C46     		mov	ip, r1
 1225 028c 6344     		add	r3, r3, ip
 1226 028e 5246     		mov	r2, r10
 1227 0290 1381     		strh	r3, [r2, #8]
 687:Source\LwIP\src\core/tcp_out.c **** #endif /* TCP_OVERSIZE_DBGCHECK */
 1228              		.loc 1 687 0
 1229 0292 5389     		ldrh	r3, [r2, #10]
 1230 0294 5B1A     		subs	r3, r3, r1
 1231 0296 5246     		mov	r2, r10
 1232 0298 5381     		strh	r3, [r2, #10]
 1233              	.LVL165:
 1234              	.L49:
 1235              	.LBE10:
 690:Source\LwIP\src\core/tcp_out.c **** #endif /* TCP_OVERSIZE */
ARM GAS  C:\Users\Phuong\AppData\Local\Temp\cc5dKVKJ.s 			page 48


 1236              		.loc 1 690 0
 1237 029a 1623     		movs	r3, #22
 1238 029c 08AA     		add	r2, sp, #32
 1239              	.LVL166:
 1240 029e 9446     		mov	ip, r2
 1241 02a0 6344     		add	r3, r3, ip
 1242 02a2 1A88     		ldrh	r2, [r3]
 1243              	.LVL167:
 1244 02a4 6423     		movs	r3, #100
 1245 02a6 EA52     		strh	r2, [r5, r3]
 697:Source\LwIP\src\core/tcp_out.c ****     LWIP_ASSERT("tcp_write: cannot concatenate when pcb->unsent is empty",
 1246              		.loc 1 697 0
 1247 02a8 099C     		ldr	r4, [sp, #36]
 1248 02aa 002C     		cmp	r4, #0
 1249 02ac 0AD0     		beq	.L53
 700:Source\LwIP\src\core/tcp_out.c ****     last_unsent->len += concat_p->tot_len;
 1250              		.loc 1 700 0
 1251 02ae 2100     		movs	r1, r4
 1252 02b0 5246     		mov	r2, r10
 1253 02b2 5068     		ldr	r0, [r2, #4]
 1254 02b4 FFF7FEFF 		bl	pbuf_cat
 1255              	.LVL168:
 701:Source\LwIP\src\core/tcp_out.c ****   } else if (extendlen > 0) {
 1256              		.loc 1 701 0
 1257 02b8 2289     		ldrh	r2, [r4, #8]
 1258 02ba 5346     		mov	r3, r10
 1259 02bc 1B89     		ldrh	r3, [r3, #8]
 1260 02be D318     		adds	r3, r2, r3
 1261 02c0 5246     		mov	r2, r10
 1262 02c2 1381     		strh	r3, [r2, #8]
 1263              	.L53:
 732:Source\LwIP\src\core/tcp_out.c ****     pcb->unsent = queue;
 1264              		.loc 1 732 0
 1265 02c4 5346     		mov	r3, r10
 1266 02c6 002B     		cmp	r3, #0
 1267 02c8 02D1     		bne	.L54
 1268              	.LVL169:
 733:Source\LwIP\src\core/tcp_out.c ****   } else {
 1269              		.loc 1 733 0
 1270 02ca 4346     		mov	r3, r8
 1271              	.LVL170:
 1272 02cc AB66     		str	r3, [r5, #104]
 1273 02ce 02E0     		b	.L55
 1274              	.LVL171:
 1275              	.L54:
 735:Source\LwIP\src\core/tcp_out.c ****   }
 1276              		.loc 1 735 0
 1277 02d0 5346     		mov	r3, r10
 1278              	.LVL172:
 1279 02d2 4246     		mov	r2, r8
 1280 02d4 1A60     		str	r2, [r3]
 1281              	.L55:
 741:Source\LwIP\src\core/tcp_out.c ****   pcb->snd_buf -= len;
 1282              		.loc 1 741 0
 1283 02d6 AB6D     		ldr	r3, [r5, #88]
 1284 02d8 4B44     		add	r3, r3, r9
 1285 02da AB65     		str	r3, [r5, #88]
ARM GAS  C:\Users\Phuong\AppData\Local\Temp\cc5dKVKJ.s 			page 49


 742:Source\LwIP\src\core/tcp_out.c ****   pcb->snd_queuelen = queuelen;
 1286              		.loc 1 742 0
 1287 02dc 6022     		movs	r2, #96
 1288 02de AB5A     		ldrh	r3, [r5, r2]
 1289 02e0 4946     		mov	r1, r9
 1290 02e2 5B1A     		subs	r3, r3, r1
 1291 02e4 AB52     		strh	r3, [r5, r2]
 743:Source\LwIP\src\core/tcp_out.c **** 
 1292              		.loc 1 743 0
 1293 02e6 6223     		movs	r3, #98
 1294 02e8 EE52     		strh	r6, [r5, r3]
 753:Source\LwIP\src\core/tcp_out.c ****     TCPH_SET_FLAG(seg->tcphdr, TCP_PSH);
 1295              		.loc 1 753 0
 1296 02ea 002F     		cmp	r7, #0
 1297 02ec 32D0     		beq	.L68
 753:Source\LwIP\src\core/tcp_out.c ****     TCPH_SET_FLAG(seg->tcphdr, TCP_PSH);
 1298              		.loc 1 753 0 is_stmt 0 discriminator 1
 1299 02ee 3C69     		ldr	r4, [r7, #16]
 1300 02f0 002C     		cmp	r4, #0
 1301 02f2 31D0     		beq	.L69
 753:Source\LwIP\src\core/tcp_out.c ****     TCPH_SET_FLAG(seg->tcphdr, TCP_PSH);
 1302              		.loc 1 753 0 discriminator 2
 1303 02f4 079B     		ldr	r3, [sp, #28]
 1304 02f6 9B07     		lsls	r3, r3, #30
 1305 02f8 30D4     		bmi	.L70
 754:Source\LwIP\src\core/tcp_out.c ****   }
 1306              		.loc 1 754 0 is_stmt 1
 1307 02fa 227B     		ldrb	r2, [r4, #12]
 1308 02fc 607B     		ldrb	r0, [r4, #13]
 1309 02fe 0002     		lsls	r0, r0, #8
 1310 0300 1043     		orrs	r0, r2
 1311 0302 0500     		movs	r5, r0
 1312              	.LVL173:
 1313 0304 0820     		movs	r0, #8
 1314 0306 FFF7FEFF 		bl	lwip_htons
 1315              	.LVL174:
 1316 030a 2843     		orrs	r0, r5
 1317 030c 83B2     		uxth	r3, r0
 1318 030e 2373     		strb	r3, [r4, #12]
 1319 0310 1B0A     		lsrs	r3, r3, #8
 1320 0312 6373     		strb	r3, [r4, #13]
 757:Source\LwIP\src\core/tcp_out.c **** memerr:
 1321              		.loc 1 757 0
 1322 0314 0020     		movs	r0, #0
 1323 0316 22E0     		b	.L34
 1324              	.LVL175:
 1325              	.L72:
 1326 0318 5546     		mov	r5, r10
 1327              	.LVL176:
 1328 031a 00E0     		b	.L42
 1329              	.LVL177:
 1330              	.L73:
 1331 031c 5546     		mov	r5, r10
 1332              	.LVL178:
 1333              	.L42:
 759:Source\LwIP\src\core/tcp_out.c ****   TCP_STATS_INC(tcp.memerr);
 1334              		.loc 1 759 0
ARM GAS  C:\Users\Phuong\AppData\Local\Temp\cc5dKVKJ.s 			page 50


 1335 031e 6A8B     		ldrh	r2, [r5, #26]
 1336 0320 8023     		movs	r3, #128
 1337 0322 1343     		orrs	r3, r2
 1338 0324 6B83     		strh	r3, [r5, #26]
 760:Source\LwIP\src\core/tcp_out.c **** 
 1339              		.loc 1 760 0
 1340 0326 1149     		ldr	r1, .L74
 1341 0328 B822     		movs	r2, #184
 1342 032a 8B5A     		ldrh	r3, [r1, r2]
 1343 032c 0133     		adds	r3, r3, #1
 1344 032e 8B52     		strh	r3, [r1, r2]
 762:Source\LwIP\src\core/tcp_out.c ****     pbuf_free(concat_p);
 1345              		.loc 1 762 0
 1346 0330 099B     		ldr	r3, [sp, #36]
 1347 0332 002B     		cmp	r3, #0
 1348 0334 02D0     		beq	.L56
 763:Source\LwIP\src\core/tcp_out.c ****   }
 1349              		.loc 1 763 0
 1350 0336 1800     		movs	r0, r3
 1351 0338 FFF7FEFF 		bl	pbuf_free
 1352              	.LVL179:
 1353              	.L56:
 765:Source\LwIP\src\core/tcp_out.c ****     tcp_segs_free(queue);
 1354              		.loc 1 765 0
 1355 033c 4346     		mov	r3, r8
 1356 033e 002B     		cmp	r3, #0
 1357 0340 02D0     		beq	.L57
 1358              	.LVL180:
 766:Source\LwIP\src\core/tcp_out.c ****   }
 1359              		.loc 1 766 0
 1360 0342 4046     		mov	r0, r8
 1361 0344 FFF7FEFF 		bl	tcp_segs_free
 1362              	.LVL181:
 1363              	.L57:
 773:Source\LwIP\src\core/tcp_out.c **** }
 1364              		.loc 1 773 0
 1365 0348 0120     		movs	r0, #1
 1366 034a 4042     		rsbs	r0, r0, #0
 1367 034c 07E0     		b	.L34
 1368              	.LVL182:
 1369              	.L58:
 401:Source\LwIP\src\core/tcp_out.c ****              arg != NULL, return ERR_ARG;);
 1370              		.loc 1 401 0
 1371 034e 1020     		movs	r0, #16
 1372              	.LVL183:
 1373 0350 4042     		rsbs	r0, r0, #0
 1374 0352 04E0     		b	.L34
 1375              	.LVL184:
 1376              	.L68:
 757:Source\LwIP\src\core/tcp_out.c **** memerr:
 1377              		.loc 1 757 0
 1378 0354 0020     		movs	r0, #0
 1379 0356 02E0     		b	.L34
 1380              	.L69:
 1381 0358 0020     		movs	r0, #0
 1382 035a 00E0     		b	.L34
 1383              	.L70:
ARM GAS  C:\Users\Phuong\AppData\Local\Temp\cc5dKVKJ.s 			page 51


 1384 035c 0020     		movs	r0, #0
 1385              	.LVL185:
 1386              	.L34:
 774:Source\LwIP\src\core/tcp_out.c **** 
 1387              		.loc 1 774 0
 1388 035e 0FB0     		add	sp, sp, #60
 1389              		@ sp needed
 1390 0360 3CBC     		pop	{r2, r3, r4, r5}
 1391 0362 9046     		mov	r8, r2
 1392 0364 9946     		mov	r9, r3
 1393 0366 A246     		mov	r10, r4
 1394 0368 AB46     		mov	fp, r5
 1395 036a F0BD     		pop	{r4, r5, r6, r7, pc}
 1396              	.L75:
 1397              		.align	2
 1398              	.L74:
 1399 036c 00000000 		.word	lwip_stats
 1400              		.cfi_endproc
 1401              	.LFE58:
 1402              		.size	tcp_write, .-tcp_write
 1403              		.section	.text.tcp_enqueue_flags,"ax",%progbits
 1404              		.align	2
 1405              		.global	tcp_enqueue_flags
 1406              		.code	16
 1407              		.thumb_func
 1408              		.type	tcp_enqueue_flags, %function
 1409              	tcp_enqueue_flags:
 1410              	.LFB59:
 786:Source\LwIP\src\core/tcp_out.c ****   struct pbuf *p;
 1411              		.loc 1 786 0
 1412              		.cfi_startproc
 1413              		@ args = 0, pretend = 0, frame = 0
 1414              		@ frame_needed = 0, uses_anonymous_args = 0
 1415              	.LVL186:
 1416 0000 F0B5     		push	{r4, r5, r6, r7, lr}
 1417              		.cfi_def_cfa_offset 20
 1418              		.cfi_offset 4, -20
 1419              		.cfi_offset 5, -16
 1420              		.cfi_offset 6, -12
 1421              		.cfi_offset 7, -8
 1422              		.cfi_offset 14, -4
 1423 0002 83B0     		sub	sp, sp, #12
 1424              		.cfi_def_cfa_offset 32
 1425 0004 0400     		movs	r4, r0
 1426 0006 0D00     		movs	r5, r1
 1427              	.LVL187:
 1428 0008 0326     		movs	r6, #3
 1429 000a 0E40     		ands	r6, r1
 798:Source\LwIP\src\core/tcp_out.c ****       ((flags & TCP_FIN) == 0)) {
 1430              		.loc 1 798 0
 1431 000c 6223     		movs	r3, #98
 1432 000e C35A     		ldrh	r3, [r0, r3]
 1433 0010 172B     		cmp	r3, #23
 1434 0012 0DD9     		bls	.L77
 798:Source\LwIP\src\core/tcp_out.c ****       ((flags & TCP_FIN) == 0)) {
 1435              		.loc 1 798 0 is_stmt 0 discriminator 1
 1436 0014 CB07     		lsls	r3, r1, #31
ARM GAS  C:\Users\Phuong\AppData\Local\Temp\cc5dKVKJ.s 			page 52


 1437 0016 0BD4     		bmi	.L77
 802:Source\LwIP\src\core/tcp_out.c ****     pcb->flags |= TF_NAGLEMEMERR;
 1438              		.loc 1 802 0 is_stmt 1
 1439 0018 2E49     		ldr	r1, .L90
 1440              	.LVL188:
 1441 001a B822     		movs	r2, #184
 1442 001c 8B5A     		ldrh	r3, [r1, r2]
 1443 001e 0133     		adds	r3, r3, #1
 1444 0020 8B52     		strh	r3, [r1, r2]
 803:Source\LwIP\src\core/tcp_out.c ****     return ERR_MEM;
 1445              		.loc 1 803 0
 1446 0022 428B     		ldrh	r2, [r0, #26]
 1447 0024 8023     		movs	r3, #128
 1448 0026 1343     		orrs	r3, r2
 1449 0028 4383     		strh	r3, [r0, #26]
 804:Source\LwIP\src\core/tcp_out.c ****   }
 1450              		.loc 1 804 0
 1451 002a 0120     		movs	r0, #1
 1452              	.LVL189:
 1453 002c 4042     		rsbs	r0, r0, #0
 1454 002e 4FE0     		b	.L78
 1455              	.LVL190:
 1456              	.L77:
 807:Source\LwIP\src\core/tcp_out.c ****     optflags = TF_SEG_OPTS_MSS;
 1457              		.loc 1 807 0
 1458 0030 AB07     		lsls	r3, r5, #30
 1459 0032 01D4     		bmi	.L87
 789:Source\LwIP\src\core/tcp_out.c ****   u8_t optlen = 0;
 1460              		.loc 1 789 0
 1461 0034 0027     		movs	r7, #0
 1462 0036 00E0     		b	.L79
 1463              	.L87:
 808:Source\LwIP\src\core/tcp_out.c **** #if LWIP_WND_SCALE
 1464              		.loc 1 808 0
 1465 0038 0127     		movs	r7, #1
 1466              	.L79:
 1467              	.LVL191:
 824:Source\LwIP\src\core/tcp_out.c **** 
 1468              		.loc 1 824 0
 1469 003a 002F     		cmp	r7, #0
 1470 003c 01D0     		beq	.L88
 1471 003e 0421     		movs	r1, #4
 1472              	.LVL192:
 1473 0040 00E0     		b	.L80
 1474              	.LVL193:
 1475              	.L88:
 1476 0042 0021     		movs	r1, #0
 1477              	.LVL194:
 1478              	.L80:
 827:Source\LwIP\src\core/tcp_out.c ****     pcb->flags |= TF_NAGLEMEMERR;
 1479              		.loc 1 827 0 discriminator 4
 1480 0044 89B2     		uxth	r1, r1
 1481              	.LVL195:
 1482 0046 0022     		movs	r2, #0
 1483 0048 0020     		movs	r0, #0
 1484              	.LVL196:
 1485 004a FFF7FEFF 		bl	pbuf_alloc
ARM GAS  C:\Users\Phuong\AppData\Local\Temp\cc5dKVKJ.s 			page 53


 1486              	.LVL197:
 1487 004e 0028     		cmp	r0, #0
 1488 0050 0AD1     		bne	.L81
 828:Source\LwIP\src\core/tcp_out.c ****     TCP_STATS_INC(tcp.memerr);
 1489              		.loc 1 828 0
 1490 0052 628B     		ldrh	r2, [r4, #26]
 1491 0054 8023     		movs	r3, #128
 1492 0056 1343     		orrs	r3, r2
 1493 0058 6383     		strh	r3, [r4, #26]
 829:Source\LwIP\src\core/tcp_out.c ****     return ERR_MEM;
 1494              		.loc 1 829 0
 1495 005a 1E49     		ldr	r1, .L90
 1496 005c B822     		movs	r2, #184
 1497 005e 8B5A     		ldrh	r3, [r1, r2]
 1498 0060 0133     		adds	r3, r3, #1
 1499 0062 8B52     		strh	r3, [r1, r2]
 830:Source\LwIP\src\core/tcp_out.c ****   }
 1500              		.loc 1 830 0
 1501 0064 0138     		subs	r0, r0, #1
 1502              	.LVL198:
 1503 0066 33E0     		b	.L78
 1504              	.LVL199:
 1505              	.L81:
 836:Source\LwIP\src\core/tcp_out.c ****     pcb->flags |= TF_NAGLEMEMERR;
 1506              		.loc 1 836 0
 1507 0068 0097     		str	r7, [sp]
 1508 006a A36D     		ldr	r3, [r4, #88]
 1509 006c 2A00     		movs	r2, r5
 1510 006e 0100     		movs	r1, r0
 1511 0070 2000     		movs	r0, r4
 1512              	.LVL200:
 1513 0072 FFF7FEFF 		bl	tcp_create_segment
 1514              	.LVL201:
 1515 0076 0028     		cmp	r0, #0
 1516 0078 0AD1     		bne	.L82
 837:Source\LwIP\src\core/tcp_out.c ****     TCP_STATS_INC(tcp.memerr);
 1517              		.loc 1 837 0
 1518 007a 628B     		ldrh	r2, [r4, #26]
 1519 007c 8023     		movs	r3, #128
 1520 007e 1343     		orrs	r3, r2
 1521 0080 6383     		strh	r3, [r4, #26]
 838:Source\LwIP\src\core/tcp_out.c ****     return ERR_MEM;
 1522              		.loc 1 838 0
 1523 0082 1449     		ldr	r1, .L90
 1524 0084 B822     		movs	r2, #184
 1525 0086 8B5A     		ldrh	r3, [r1, r2]
 1526 0088 0133     		adds	r3, r3, #1
 1527 008a 8B52     		strh	r3, [r1, r2]
 839:Source\LwIP\src\core/tcp_out.c ****   }
 1528              		.loc 1 839 0
 1529 008c 0138     		subs	r0, r0, #1
 1530              	.LVL202:
 1531 008e 1FE0     		b	.L78
 1532              	.LVL203:
 1533              	.L82:
 851:Source\LwIP\src\core/tcp_out.c ****     pcb->unsent = seg;
 1534              		.loc 1 851 0
ARM GAS  C:\Users\Phuong\AppData\Local\Temp\cc5dKVKJ.s 			page 54


 1535 0090 A26E     		ldr	r2, [r4, #104]
 1536 0092 002A     		cmp	r2, #0
 1537 0094 02D1     		bne	.L83
 852:Source\LwIP\src\core/tcp_out.c ****   } else {
 1538              		.loc 1 852 0
 1539 0096 A066     		str	r0, [r4, #104]
 1540 0098 04E0     		b	.L84
 1541              	.LVL204:
 1542              	.L89:
 1543              	.LBB11:
 855:Source\LwIP\src\core/tcp_out.c ****     useg->next = seg;
 1544              		.loc 1 855 0
 1545 009a 1A00     		movs	r2, r3
 1546              	.LVL205:
 1547              	.L83:
 855:Source\LwIP\src\core/tcp_out.c ****     useg->next = seg;
 1548              		.loc 1 855 0 is_stmt 0 discriminator 1
 1549 009c 1368     		ldr	r3, [r2]
 1550 009e 002B     		cmp	r3, #0
 1551 00a0 FBD1     		bne	.L89
 856:Source\LwIP\src\core/tcp_out.c ****   }
 1552              		.loc 1 856 0 is_stmt 1
 1553 00a2 1060     		str	r0, [r2]
 1554              	.LVL206:
 1555              	.L84:
 1556              	.LBE11:
 860:Source\LwIP\src\core/tcp_out.c **** #endif /* TCP_OVERSIZE */
 1557              		.loc 1 860 0
 1558 00a4 0022     		movs	r2, #0
 1559 00a6 6423     		movs	r3, #100
 1560 00a8 E252     		strh	r2, [r4, r3]
 864:Source\LwIP\src\core/tcp_out.c ****     pcb->snd_lbb++;
 1561              		.loc 1 864 0
 1562 00aa 002E     		cmp	r6, #0
 1563 00ac 02D0     		beq	.L85
 865:Source\LwIP\src\core/tcp_out.c ****     /* optlen does not influence snd_buf */
 1564              		.loc 1 865 0
 1565 00ae A36D     		ldr	r3, [r4, #88]
 1566 00b0 0133     		adds	r3, r3, #1
 1567 00b2 A365     		str	r3, [r4, #88]
 1568              	.L85:
 868:Source\LwIP\src\core/tcp_out.c ****     pcb->flags |= TF_FIN;
 1569              		.loc 1 868 0
 1570 00b4 EB07     		lsls	r3, r5, #31
 1571 00b6 03D5     		bpl	.L86
 869:Source\LwIP\src\core/tcp_out.c ****   }
 1572              		.loc 1 869 0
 1573 00b8 628B     		ldrh	r2, [r4, #26]
 1574 00ba 2023     		movs	r3, #32
 1575 00bc 1343     		orrs	r3, r2
 1576 00be 6383     		strh	r3, [r4, #26]
 1577              	.L86:
 873:Source\LwIP\src\core/tcp_out.c ****   LWIP_DEBUGF(TCP_QLEN_DEBUG, ("tcp_enqueue_flags: %"S16_F" (after enqueued)\n", pcb->snd_queuelen)
 1578              		.loc 1 873 0
 1579 00c0 4068     		ldr	r0, [r0, #4]
 1580              	.LVL207:
 1581 00c2 FFF7FEFF 		bl	pbuf_clen
ARM GAS  C:\Users\Phuong\AppData\Local\Temp\cc5dKVKJ.s 			page 55


 1582              	.LVL208:
 1583 00c6 6222     		movs	r2, #98
 1584 00c8 A35A     		ldrh	r3, [r4, r2]
 1585 00ca C018     		adds	r0, r0, r3
 1586 00cc A052     		strh	r0, [r4, r2]
 880:Source\LwIP\src\core/tcp_out.c **** }
 1587              		.loc 1 880 0
 1588 00ce 0020     		movs	r0, #0
 1589              	.LVL209:
 1590              	.L78:
 881:Source\LwIP\src\core/tcp_out.c **** 
 1591              		.loc 1 881 0
 1592 00d0 03B0     		add	sp, sp, #12
 1593              		@ sp needed
 1594              	.LVL210:
 1595 00d2 F0BD     		pop	{r4, r5, r6, r7, pc}
 1596              	.L91:
 1597              		.align	2
 1598              	.L90:
 1599 00d4 00000000 		.word	lwip_stats
 1600              		.cfi_endproc
 1601              	.LFE59:
 1602              		.size	tcp_enqueue_flags, .-tcp_enqueue_flags
 1603              		.section	.text.tcp_send_fin,"ax",%progbits
 1604              		.align	2
 1605              		.global	tcp_send_fin
 1606              		.code	16
 1607              		.thumb_func
 1608              		.type	tcp_send_fin, %function
 1609              	tcp_send_fin:
 1610              	.LFB54:
 140:Source\LwIP\src\core/tcp_out.c ****   /* first, try to add the fin to the last unsent segment */
 1611              		.loc 1 140 0
 1612              		.cfi_startproc
 1613              		@ args = 0, pretend = 0, frame = 0
 1614              		@ frame_needed = 0, uses_anonymous_args = 0
 1615              	.LVL211:
 1616 0000 70B5     		push	{r4, r5, r6, lr}
 1617              		.cfi_def_cfa_offset 16
 1618              		.cfi_offset 4, -16
 1619              		.cfi_offset 5, -12
 1620              		.cfi_offset 6, -8
 1621              		.cfi_offset 14, -4
 1622 0002 0500     		movs	r5, r0
 142:Source\LwIP\src\core/tcp_out.c ****     struct tcp_seg *last_unsent;
 1623              		.loc 1 142 0
 1624 0004 846E     		ldr	r4, [r0, #104]
 1625 0006 002C     		cmp	r4, #0
 1626 0008 01D1     		bne	.L94
 1627              	.LBB12:
 1628 000a 20E0     		b	.L93
 1629              	.LVL212:
 1630              	.L96:
 145:Source\LwIP\src\core/tcp_out.c **** 
 1631              		.loc 1 145 0
 1632 000c 1C00     		movs	r4, r3
 1633              	.LVL213:
ARM GAS  C:\Users\Phuong\AppData\Local\Temp\cc5dKVKJ.s 			page 56


 1634              	.L94:
 144:Source\LwIP\src\core/tcp_out.c ****          last_unsent = last_unsent->next);
 1635              		.loc 1 144 0 discriminator 1
 1636 000e 2368     		ldr	r3, [r4]
 1637 0010 002B     		cmp	r3, #0
 1638 0012 FBD1     		bne	.L96
 147:Source\LwIP\src\core/tcp_out.c ****       /* no SYN/FIN/RST flag in the header, we can add the FIN flag */
 1639              		.loc 1 147 0
 1640 0014 2269     		ldr	r2, [r4, #16]
 1641 0016 137B     		ldrb	r3, [r2, #12]
 1642 0018 507B     		ldrb	r0, [r2, #13]
 1643              	.LVL214:
 1644 001a 0002     		lsls	r0, r0, #8
 1645 001c 1843     		orrs	r0, r3
 1646 001e FFF7FEFF 		bl	lwip_htons
 1647              	.LVL215:
 1648 0022 4307     		lsls	r3, r0, #29
 1649 0024 13D1     		bne	.L93
 149:Source\LwIP\src\core/tcp_out.c ****       pcb->flags |= TF_FIN;
 1650              		.loc 1 149 0
 1651 0026 2469     		ldr	r4, [r4, #16]
 1652              	.LVL216:
 1653 0028 227B     		ldrb	r2, [r4, #12]
 1654 002a 607B     		ldrb	r0, [r4, #13]
 1655 002c 0002     		lsls	r0, r0, #8
 1656 002e 1043     		orrs	r0, r2
 1657 0030 0600     		movs	r6, r0
 1658 0032 0120     		movs	r0, #1
 1659 0034 FFF7FEFF 		bl	lwip_htons
 1660              	.LVL217:
 1661 0038 3043     		orrs	r0, r6
 1662 003a 83B2     		uxth	r3, r0
 1663 003c 2373     		strb	r3, [r4, #12]
 1664 003e 1B0A     		lsrs	r3, r3, #8
 1665 0040 6373     		strb	r3, [r4, #13]
 150:Source\LwIP\src\core/tcp_out.c ****       return ERR_OK;
 1666              		.loc 1 150 0
 1667 0042 6A8B     		ldrh	r2, [r5, #26]
 1668 0044 2023     		movs	r3, #32
 1669 0046 1343     		orrs	r3, r2
 1670 0048 6B83     		strh	r3, [r5, #26]
 151:Source\LwIP\src\core/tcp_out.c ****     }
 1671              		.loc 1 151 0
 1672 004a 0020     		movs	r0, #0
 1673 004c 03E0     		b	.L95
 1674              	.L93:
 1675              	.LBE12:
 155:Source\LwIP\src\core/tcp_out.c **** }
 1676              		.loc 1 155 0
 1677 004e 0121     		movs	r1, #1
 1678 0050 2800     		movs	r0, r5
 1679 0052 FFF7FEFF 		bl	tcp_enqueue_flags
 1680              	.LVL218:
 1681              	.L95:
 156:Source\LwIP\src\core/tcp_out.c **** 
 1682              		.loc 1 156 0
 1683              		@ sp needed
ARM GAS  C:\Users\Phuong\AppData\Local\Temp\cc5dKVKJ.s 			page 57


 1684              	.LVL219:
 1685 0056 70BD     		pop	{r4, r5, r6, pc}
 1686              		.cfi_endproc
 1687              	.LFE54:
 1688              		.size	tcp_send_fin, .-tcp_send_fin
 1689              		.section	.text.tcp_send_empty_ack,"ax",%progbits
 1690              		.align	2
 1691              		.global	tcp_send_empty_ack
 1692              		.code	16
 1693              		.thumb_func
 1694              		.type	tcp_send_empty_ack, %function
 1695              	tcp_send_empty_ack:
 1696              	.LFB60:
 919:Source\LwIP\src\core/tcp_out.c ****   err_t err;
 1697              		.loc 1 919 0
 1698              		.cfi_startproc
 1699              		@ args = 0, pretend = 0, frame = 0
 1700              		@ frame_needed = 0, uses_anonymous_args = 0
 1701              	.LVL220:
 1702 0000 F0B5     		push	{r4, r5, r6, r7, lr}
 1703              		.cfi_def_cfa_offset 20
 1704              		.cfi_offset 4, -20
 1705              		.cfi_offset 5, -16
 1706              		.cfi_offset 6, -12
 1707              		.cfi_offset 7, -8
 1708              		.cfi_offset 14, -4
 1709 0002 4746     		mov	r7, r8
 1710 0004 80B4     		push	{r7}
 1711              		.cfi_def_cfa_offset 24
 1712              		.cfi_offset 8, -24
 1713 0006 84B0     		sub	sp, sp, #16
 1714              		.cfi_def_cfa_offset 40
 1715 0008 0400     		movs	r4, r0
 1716              	.LVL221:
 934:Source\LwIP\src\core/tcp_out.c ****   if (p == NULL) {
 1717              		.loc 1 934 0
 1718 000a C06C     		ldr	r0, [r0, #76]
 1719              	.LVL222:
 1720 000c FFF7FEFF 		bl	lwip_htonl
 1721              	.LVL223:
 1722 0010 0300     		movs	r3, r0
 1723 0012 0022     		movs	r2, #0
 1724 0014 0021     		movs	r1, #0
 1725 0016 2000     		movs	r0, r4
 1726 0018 FFF7FEFF 		bl	tcp_output_alloc_header
 1727              	.LVL224:
 1728 001c 061E     		subs	r6, r0, #0
 1729              	.LVL225:
 935:Source\LwIP\src\core/tcp_out.c ****     /* let tcp_fasttmr retry sending this ACK */
 1730              		.loc 1 935 0
 1731 001e 06D1     		bne	.L98
 937:Source\LwIP\src\core/tcp_out.c ****     LWIP_DEBUGF(TCP_OUTPUT_DEBUG, ("tcp_output: (ACK) could not allocate pbuf\n"));
 1732              		.loc 1 937 0
 1733 0020 628B     		ldrh	r2, [r4, #26]
 1734 0022 0323     		movs	r3, #3
 1735 0024 1343     		orrs	r3, r2
 1736 0026 6383     		strh	r3, [r4, #26]
ARM GAS  C:\Users\Phuong\AppData\Local\Temp\cc5dKVKJ.s 			page 58


 939:Source\LwIP\src\core/tcp_out.c ****   }
 1737              		.loc 1 939 0
 1738 0028 0220     		movs	r0, #2
 1739              	.LVL226:
 1740 002a 4042     		rsbs	r0, r0, #0
 1741 002c 31E0     		b	.L99
 1742              	.LVL227:
 1743              	.L98:
 942:Source\LwIP\src\core/tcp_out.c **** #endif /* LWIP_TCP_TIMESTAMPS || CHECKSUM_GEN_TCP */
 1744              		.loc 1 942 0
 1745 002e 4368     		ldr	r3, [r0, #4]
 1746 0030 9846     		mov	r8, r3
 1747              	.LVL228:
 956:Source\LwIP\src\core/tcp_out.c ****   if (netif == NULL) {
 1748              		.loc 1 956 0
 1749 0032 251D     		adds	r5, r4, #4
 1750 0034 2800     		movs	r0, r5
 1751              	.LVL229:
 1752 0036 FFF7FEFF 		bl	ip4_route
 1753              	.LVL230:
 1754 003a 071E     		subs	r7, r0, #0
 1755              	.LVL231:
 957:Source\LwIP\src\core/tcp_out.c ****     err = ERR_RTE;
 1756              		.loc 1 957 0
 1757 003c 17D0     		beq	.L102
 962:Source\LwIP\src\core/tcp_out.c ****         &pcb->local_ip, &pcb->remote_ip);
 1758              		.loc 1 962 0
 1759 003e 3289     		ldrh	r2, [r6, #8]
 1760 0040 0095     		str	r5, [sp]
 1761 0042 2300     		movs	r3, r4
 1762 0044 0621     		movs	r1, #6
 1763 0046 3000     		movs	r0, r6
 1764              	.LVL232:
 1765 0048 FFF7FEFF 		bl	ip_chksum_pseudo
 1766              	.LVL233:
 1767 004c 4346     		mov	r3, r8
 1768 004e 1874     		strb	r0, [r3, #16]
 1769 0050 000A     		lsrs	r0, r0, #8
 1770 0052 5874     		strb	r0, [r3, #17]
 967:Source\LwIP\src\core/tcp_out.c ****       pcb->ttl, pcb->tos, IP_PROTO_TCP, netif);
 1771              		.loc 1 967 0
 1772 0054 A37A     		ldrb	r3, [r4, #10]
 1773 0056 627A     		ldrb	r2, [r4, #9]
 1774 0058 0297     		str	r7, [sp, #8]
 1775 005a 0621     		movs	r1, #6
 1776 005c 0191     		str	r1, [sp, #4]
 1777 005e 0092     		str	r2, [sp]
 1778 0060 2A00     		movs	r2, r5
 1779 0062 2100     		movs	r1, r4
 1780 0064 3000     		movs	r0, r6
 1781 0066 FFF7FEFF 		bl	ip4_output_if
 1782              	.LVL234:
 1783 006a 0500     		movs	r5, r0
 1784              	.LVL235:
 1785 006c 01E0     		b	.L100
 1786              	.LVL236:
 1787              	.L102:
ARM GAS  C:\Users\Phuong\AppData\Local\Temp\cc5dKVKJ.s 			page 59


 958:Source\LwIP\src\core/tcp_out.c ****   } else {
 1788              		.loc 1 958 0
 1789 006e 0425     		movs	r5, #4
 1790 0070 6D42     		rsbs	r5, r5, #0
 1791              	.LVL237:
 1792              	.L100:
 971:Source\LwIP\src\core/tcp_out.c **** 
 1793              		.loc 1 971 0
 1794 0072 3000     		movs	r0, r6
 1795 0074 FFF7FEFF 		bl	pbuf_free
 1796              	.LVL238:
 973:Source\LwIP\src\core/tcp_out.c ****     /* let tcp_fasttmr retry sending this ACK */
 1797              		.loc 1 973 0
 1798 0078 002D     		cmp	r5, #0
 1799 007a 05D0     		beq	.L101
 975:Source\LwIP\src\core/tcp_out.c ****   } else {
 1800              		.loc 1 975 0
 1801 007c 628B     		ldrh	r2, [r4, #26]
 1802 007e 0323     		movs	r3, #3
 1803 0080 1343     		orrs	r3, r2
 1804 0082 6383     		strh	r3, [r4, #26]
 981:Source\LwIP\src\core/tcp_out.c **** }
 1805              		.loc 1 981 0
 1806 0084 2800     		movs	r0, r5
 1807 0086 04E0     		b	.L99
 1808              	.L101:
 978:Source\LwIP\src\core/tcp_out.c ****   }
 1809              		.loc 1 978 0
 1810 0088 638B     		ldrh	r3, [r4, #26]
 1811 008a 0322     		movs	r2, #3
 1812 008c 9343     		bics	r3, r2
 1813 008e 6383     		strh	r3, [r4, #26]
 981:Source\LwIP\src\core/tcp_out.c **** }
 1814              		.loc 1 981 0
 1815 0090 2800     		movs	r0, r5
 1816              	.LVL239:
 1817              	.L99:
 982:Source\LwIP\src\core/tcp_out.c **** 
 1818              		.loc 1 982 0
 1819 0092 04B0     		add	sp, sp, #16
 1820              		@ sp needed
 1821              	.LVL240:
 1822              	.LVL241:
 1823 0094 04BC     		pop	{r2}
 1824 0096 9046     		mov	r8, r2
 1825 0098 F0BD     		pop	{r4, r5, r6, r7, pc}
 1826              		.cfi_endproc
 1827              	.LFE60:
 1828              		.size	tcp_send_empty_ack, .-tcp_send_empty_ack
 1829 009a C046     		.section	.text.tcp_output,"ax",%progbits
 1830              		.align	2
 1831              		.global	tcp_output
 1832              		.code	16
 1833              		.thumb_func
 1834              		.type	tcp_output, %function
 1835              	tcp_output:
 1836              	.LFB61:
ARM GAS  C:\Users\Phuong\AppData\Local\Temp\cc5dKVKJ.s 			page 60


 994:Source\LwIP\src\core/tcp_out.c ****   struct tcp_seg *seg, *useg;
 1837              		.loc 1 994 0
 1838              		.cfi_startproc
 1839              		@ args = 0, pretend = 0, frame = 8
 1840              		@ frame_needed = 0, uses_anonymous_args = 0
 1841              	.LVL242:
 1842 0000 F0B5     		push	{r4, r5, r6, r7, lr}
 1843              		.cfi_def_cfa_offset 20
 1844              		.cfi_offset 4, -20
 1845              		.cfi_offset 5, -16
 1846              		.cfi_offset 6, -12
 1847              		.cfi_offset 7, -8
 1848              		.cfi_offset 14, -4
 1849 0002 5746     		mov	r7, r10
 1850 0004 4646     		mov	r6, r8
 1851 0006 C0B4     		push	{r6, r7}
 1852              		.cfi_def_cfa_offset 28
 1853              		.cfi_offset 8, -28
 1854              		.cfi_offset 10, -24
 1855 0008 83B0     		sub	sp, sp, #12
 1856              		.cfi_def_cfa_offset 40
 1857 000a 0500     		movs	r5, r0
1011:Source\LwIP\src\core/tcp_out.c ****     return ERR_OK;
 1858              		.loc 1 1011 0
 1859 000c B54B     		ldr	r3, .L148
 1860 000e 1B68     		ldr	r3, [r3]
 1861 0010 9842     		cmp	r0, r3
 1862 0012 00D1     		bne	.LCB2062
 1863 0014 90E1     		b	.L135	@long jump
 1864              	.LCB2062:
1015:Source\LwIP\src\core/tcp_out.c **** 
 1865              		.loc 1 1015 0
 1866 0016 4823     		movs	r3, #72
 1867 0018 C35A     		ldrh	r3, [r0, r3]
 1868 001a 5C22     		movs	r2, #92
 1869 001c 815A     		ldrh	r1, [r0, r2]
 1870 001e 1A1C     		adds	r2, r3, #0
 1871 0020 8B42     		cmp	r3, r1
 1872 0022 00D9     		bls	.L105
 1873 0024 0A1C     		adds	r2, r1, #0
 1874              	.L105:
 1875 0026 93B2     		uxth	r3, r2
 1876 0028 9A46     		mov	r10, r3
 1877              	.LVL243:
1017:Source\LwIP\src\core/tcp_out.c **** 
 1878              		.loc 1 1017 0
 1879 002a AC6E     		ldr	r4, [r5, #104]
 1880              	.LVL244:
1025:Source\LwIP\src\core/tcp_out.c ****      (seg == NULL ||
 1881              		.loc 1 1025 0
 1882 002c 6B8B     		ldrh	r3, [r5, #26]
 1883              	.LVL245:
 1884 002e 9B07     		lsls	r3, r3, #30
 1885 0030 1AD5     		bpl	.L106
1025:Source\LwIP\src\core/tcp_out.c ****      (seg == NULL ||
 1886              		.loc 1 1025 0 is_stmt 0 discriminator 1
 1887 0032 002C     		cmp	r4, #0
ARM GAS  C:\Users\Phuong\AppData\Local\Temp\cc5dKVKJ.s 			page 61


 1888 0034 14D0     		beq	.L107
1027:Source\LwIP\src\core/tcp_out.c ****      return tcp_send_empty_ack(pcb);
 1889              		.loc 1 1027 0 is_stmt 1
 1890 0036 2669     		ldr	r6, [r4, #16]
 1891 0038 3179     		ldrb	r1, [r6, #4]
 1892 003a 7379     		ldrb	r3, [r6, #5]
 1893 003c 1B02     		lsls	r3, r3, #8
 1894 003e 0B43     		orrs	r3, r1
 1895 0040 1A00     		movs	r2, r3
 1896 0042 B079     		ldrb	r0, [r6, #6]
 1897              	.LVL246:
 1898 0044 0004     		lsls	r0, r0, #16
 1899 0046 0300     		movs	r3, r0
 1900 0048 1343     		orrs	r3, r2
 1901 004a F079     		ldrb	r0, [r6, #7]
 1902 004c 0006     		lsls	r0, r0, #24
 1903 004e 1843     		orrs	r0, r3
 1904 0050 FFF7FEFF 		bl	lwip_htonl
 1905              	.LVL247:
 1906 0054 6B6C     		ldr	r3, [r5, #68]
 1907 0056 C01A     		subs	r0, r0, r3
 1908 0058 2389     		ldrh	r3, [r4, #8]
 1909 005a 1818     		adds	r0, r3, r0
1026:Source\LwIP\src\core/tcp_out.c ****       lwip_ntohl(seg->tcphdr->seqno) - pcb->lastack + seg->len > wnd)) {
 1910              		.loc 1 1026 0
 1911 005c 8245     		cmp	r10, r0
 1912 005e 03D2     		bcs	.L106
 1913              	.L107:
1028:Source\LwIP\src\core/tcp_out.c ****   }
 1914              		.loc 1 1028 0
 1915 0060 2800     		movs	r0, r5
 1916 0062 FFF7FEFF 		bl	tcp_send_empty_ack
 1917              	.LVL248:
 1918 0066 6EE1     		b	.L104
 1919              	.L106:
1032:Source\LwIP\src\core/tcp_out.c ****   if (useg != NULL) {
 1920              		.loc 1 1032 0
 1921 0068 EE6E     		ldr	r6, [r5, #108]
 1922              	.LVL249:
1033:Source\LwIP\src\core/tcp_out.c ****     for (; useg->next != NULL; useg = useg->next);
 1923              		.loc 1 1033 0
 1924 006a 002E     		cmp	r6, #0
 1925 006c 01D1     		bne	.L109
 1926 006e 03E0     		b	.L108
 1927              	.L136:
1034:Source\LwIP\src\core/tcp_out.c ****   }
 1928              		.loc 1 1034 0
 1929 0070 1E00     		movs	r6, r3
 1930              	.LVL250:
 1931              	.L109:
1034:Source\LwIP\src\core/tcp_out.c ****   }
 1932              		.loc 1 1034 0 is_stmt 0 discriminator 1
 1933 0072 3368     		ldr	r3, [r6]
 1934 0074 002B     		cmp	r3, #0
 1935 0076 FBD1     		bne	.L136
 1936              	.L108:
1037:Source\LwIP\src\core/tcp_out.c ****   if (netif == NULL) {
ARM GAS  C:\Users\Phuong\AppData\Local\Temp\cc5dKVKJ.s 			page 62


 1937              		.loc 1 1037 0 is_stmt 1
 1938 0078 281D     		adds	r0, r5, #4
 1939 007a FFF7FEFF 		bl	ip4_route
 1940              	.LVL251:
 1941 007e 0190     		str	r0, [sp, #4]
 1942              	.LVL252:
1038:Source\LwIP\src\core/tcp_out.c ****     return ERR_RTE;
 1943              		.loc 1 1038 0
 1944 0080 0028     		cmp	r0, #0
 1945 0082 00D1     		bne	.LCB2148
 1946 0084 5AE1     		b	.L137	@long jump
 1947              	.LCB2148:
1043:Source\LwIP\src\core/tcp_out.c ****     const ip_addr_t *local_ip = ip_netif_get_local_ip(netif, &pcb->remote_ip);
 1948              		.loc 1 1043 0
 1949 0086 002D     		cmp	r5, #0
 1950 0088 02D0     		beq	.L110
1043:Source\LwIP\src\core/tcp_out.c ****     const ip_addr_t *local_ip = ip_netif_get_local_ip(netif, &pcb->remote_ip);
 1951              		.loc 1 1043 0 is_stmt 0 discriminator 1
 1952 008a 2B68     		ldr	r3, [r5]
 1953 008c 002B     		cmp	r3, #0
 1954 008e 0AD1     		bne	.L111
 1955              	.L110:
 1956              	.LBB13:
1044:Source\LwIP\src\core/tcp_out.c ****     if (local_ip == NULL) {
 1957              		.loc 1 1044 0 is_stmt 1
 1958 0090 019B     		ldr	r3, [sp, #4]
 1959 0092 002B     		cmp	r3, #0
 1960 0094 01D0     		beq	.L138
1044:Source\LwIP\src\core/tcp_out.c ****     if (local_ip == NULL) {
 1961              		.loc 1 1044 0 is_stmt 0 discriminator 1
 1962 0096 0433     		adds	r3, r3, #4
 1963 0098 00E0     		b	.L112
 1964              	.L138:
1044:Source\LwIP\src\core/tcp_out.c ****     if (local_ip == NULL) {
 1965              		.loc 1 1044 0
 1966 009a 0023     		movs	r3, #0
 1967              	.L112:
 1968              	.LVL253:
1045:Source\LwIP\src\core/tcp_out.c ****       return ERR_RTE;
 1969              		.loc 1 1045 0 is_stmt 1 discriminator 4
 1970 009c 002B     		cmp	r3, #0
 1971 009e 00D1     		bne	.LCB2171
 1972 00a0 4FE1     		b	.L139	@long jump
 1973              	.LCB2171:
1048:Source\LwIP\src\core/tcp_out.c ****   }
 1974              		.loc 1 1048 0
 1975 00a2 1B68     		ldr	r3, [r3]
 1976              	.LVL254:
 1977 00a4 2B60     		str	r3, [r5]
 1978              	.L111:
 1979              	.LBE13:
1080:Source\LwIP\src\core/tcp_out.c ****       lwip_ntohl(seg->tcphdr->seqno) - pcb->lastack + seg->len > wnd &&
 1980              		.loc 1 1080 0
 1981 00a6 002C     		cmp	r4, #0
 1982 00a8 00D1     		bne	.LCB2182
 1983 00aa 21E1     		b	.L115	@long jump
 1984              	.LCB2182:
ARM GAS  C:\Users\Phuong\AppData\Local\Temp\cc5dKVKJ.s 			page 63


1081:Source\LwIP\src\core/tcp_out.c ****       wnd > 0 && wnd == pcb->snd_wnd && pcb->unacked == NULL) {
 1985              		.loc 1 1081 0 discriminator 1
 1986 00ac 2769     		ldr	r7, [r4, #16]
 1987 00ae 3979     		ldrb	r1, [r7, #4]
 1988 00b0 7B79     		ldrb	r3, [r7, #5]
 1989 00b2 1B02     		lsls	r3, r3, #8
 1990 00b4 0B43     		orrs	r3, r1
 1991 00b6 1A00     		movs	r2, r3
 1992 00b8 B879     		ldrb	r0, [r7, #6]
 1993              	.LVL255:
 1994 00ba 0004     		lsls	r0, r0, #16
 1995 00bc 0300     		movs	r3, r0
 1996 00be 1343     		orrs	r3, r2
 1997 00c0 F879     		ldrb	r0, [r7, #7]
 1998 00c2 0006     		lsls	r0, r0, #24
 1999 00c4 1843     		orrs	r0, r3
 2000 00c6 FFF7FEFF 		bl	lwip_htonl
 2001              	.LVL256:
 2002 00ca 6B6C     		ldr	r3, [r5, #68]
 2003 00cc C01A     		subs	r0, r0, r3
 2004 00ce 2389     		ldrh	r3, [r4, #8]
 2005 00d0 1818     		adds	r0, r3, r0
1080:Source\LwIP\src\core/tcp_out.c ****       lwip_ntohl(seg->tcphdr->seqno) - pcb->lastack + seg->len > wnd &&
 2006              		.loc 1 1080 0 discriminator 1
 2007 00d2 8245     		cmp	r10, r0
 2008 00d4 00D3     		bcc	.LCB2205
 2009 00d6 0BE1     		b	.L115	@long jump
 2010              	.LCB2205:
1081:Source\LwIP\src\core/tcp_out.c ****       wnd > 0 && wnd == pcb->snd_wnd && pcb->unacked == NULL) {
 2011              		.loc 1 1081 0
 2012 00d8 5346     		mov	r3, r10
 2013 00da 002B     		cmp	r3, #0
 2014 00dc 00D1     		bne	.LCB2208
 2015 00de 07E1     		b	.L115	@long jump
 2016              	.LCB2208:
 2017              	.LVL257:
1082:Source\LwIP\src\core/tcp_out.c ****     /* Start the persist timer */
 2018              		.loc 1 1082 0
 2019 00e0 5C23     		movs	r3, #92
 2020              	.LVL258:
 2021 00e2 EB5A     		ldrh	r3, [r5, r3]
 2022 00e4 9A45     		cmp	r10, r3
 2023 00e6 00D0     		beq	.LCB2214
 2024 00e8 02E1     		b	.L115	@long jump
 2025              	.LCB2214:
1082:Source\LwIP\src\core/tcp_out.c ****     /* Start the persist timer */
 2026              		.loc 1 1082 0 is_stmt 0 discriminator 1
 2027 00ea EB6E     		ldr	r3, [r5, #108]
 2028 00ec 002B     		cmp	r3, #0
 2029 00ee 00D0     		beq	.LCB2218
 2030 00f0 FEE0     		b	.L115	@long jump
 2031              	.LCB2218:
1084:Source\LwIP\src\core/tcp_out.c ****       pcb->persist_cnt = 0;
 2032              		.loc 1 1084 0 is_stmt 1
 2033 00f2 9D33     		adds	r3, r3, #157
 2034 00f4 EB5C     		ldrb	r3, [r5, r3]
 2035 00f6 002B     		cmp	r3, #0
ARM GAS  C:\Users\Phuong\AppData\Local\Temp\cc5dKVKJ.s 			page 64


 2036 00f8 00D0     		beq	.LCB2222
 2037 00fa 11E1     		b	.L116	@long jump
 2038              	.LCB2222:
1085:Source\LwIP\src\core/tcp_out.c ****       pcb->persist_backoff = 1;
 2039              		.loc 1 1085 0
 2040 00fc 0022     		movs	r2, #0
 2041 00fe 9C33     		adds	r3, r3, #156
 2042 0100 EA54     		strb	r2, [r5, r3]
1086:Source\LwIP\src\core/tcp_out.c ****     }
 2043              		.loc 1 1086 0
 2044 0102 0132     		adds	r2, r2, #1
 2045 0104 0133     		adds	r3, r3, #1
 2046 0106 EA54     		strb	r2, [r5, r3]
 2047 0108 0AE1     		b	.L116
 2048              	.L133:
1093:Source\LwIP\src\core/tcp_out.c ****                 (TCPH_FLAGS(seg->tcphdr) & TCP_RST) == 0);
 2049              		.loc 1 1093 0
 2050 010a 2269     		ldr	r2, [r4, #16]
 2051 010c 137B     		ldrb	r3, [r2, #12]
 2052 010e 507B     		ldrb	r0, [r2, #13]
 2053 0110 0002     		lsls	r0, r0, #8
 2054 0112 1843     		orrs	r0, r3
 2055 0114 FFF7FEFF 		bl	lwip_htons
 2056              	.LVL259:
1102:Source\LwIP\src\core/tcp_out.c ****       ((pcb->flags & (TF_NAGLEMEMERR | TF_FIN)) == 0)) {
 2057              		.loc 1 1102 0
 2058 0118 EB6E     		ldr	r3, [r5, #108]
 2059 011a 002B     		cmp	r3, #0
 2060 011c 17D0     		beq	.L140
1102:Source\LwIP\src\core/tcp_out.c ****       ((pcb->flags & (TF_NAGLEMEMERR | TF_FIN)) == 0)) {
 2061              		.loc 1 1102 0 is_stmt 0 discriminator 2
 2062 011e 6B8B     		ldrh	r3, [r5, #26]
 2063 0120 4422     		movs	r2, #68
 2064 0122 1A42     		tst	r2, r3
 2065 0124 15D1     		bne	.L141
1102:Source\LwIP\src\core/tcp_out.c ****       ((pcb->flags & (TF_NAGLEMEMERR | TF_FIN)) == 0)) {
 2066              		.loc 1 1102 0 discriminator 4
 2067 0126 AB6E     		ldr	r3, [r5, #104]
 2068 0128 002B     		cmp	r3, #0
 2069 012a 06D0     		beq	.L118
1102:Source\LwIP\src\core/tcp_out.c ****       ((pcb->flags & (TF_NAGLEMEMERR | TF_FIN)) == 0)) {
 2070              		.loc 1 1102 0 discriminator 5
 2071 012c 1A68     		ldr	r2, [r3]
 2072 012e 002A     		cmp	r2, #0
 2073 0130 11D1     		bne	.L142
1102:Source\LwIP\src\core/tcp_out.c ****       ((pcb->flags & (TF_NAGLEMEMERR | TF_FIN)) == 0)) {
 2074              		.loc 1 1102 0 discriminator 8
 2075 0132 1A89     		ldrh	r2, [r3, #8]
 2076 0134 6B8E     		ldrh	r3, [r5, #50]
 2077 0136 9A42     		cmp	r2, r3
 2078 0138 0FD2     		bcs	.L143
 2079              	.L118:
1102:Source\LwIP\src\core/tcp_out.c ****       ((pcb->flags & (TF_NAGLEMEMERR | TF_FIN)) == 0)) {
 2080              		.loc 1 1102 0 discriminator 10
 2081 013a 6023     		movs	r3, #96
 2082 013c EB5A     		ldrh	r3, [r5, r3]
 2083 013e 002B     		cmp	r3, #0
ARM GAS  C:\Users\Phuong\AppData\Local\Temp\cc5dKVKJ.s 			page 65


 2084 0140 0DD0     		beq	.L144
1102:Source\LwIP\src\core/tcp_out.c ****       ((pcb->flags & (TF_NAGLEMEMERR | TF_FIN)) == 0)) {
 2085              		.loc 1 1102 0 discriminator 12
 2086 0142 6223     		movs	r3, #98
 2087 0144 EB5A     		ldrh	r3, [r5, r3]
 2088 0146 172B     		cmp	r3, #23
 2089 0148 0BD9     		bls	.L145
1102:Source\LwIP\src\core/tcp_out.c ****       ((pcb->flags & (TF_NAGLEMEMERR | TF_FIN)) == 0)) {
 2090              		.loc 1 1102 0
 2091 014a 0123     		movs	r3, #1
 2092 014c 0AE0     		b	.L117
 2093              	.L140:
 2094 014e 0123     		movs	r3, #1
 2095 0150 08E0     		b	.L117
 2096              	.L141:
 2097 0152 0123     		movs	r3, #1
 2098 0154 06E0     		b	.L117
 2099              	.L142:
 2100 0156 0123     		movs	r3, #1
 2101 0158 04E0     		b	.L117
 2102              	.L143:
 2103 015a 0123     		movs	r3, #1
 2104 015c 02E0     		b	.L117
 2105              	.L144:
 2106 015e 0123     		movs	r3, #1
 2107 0160 00E0     		b	.L117
 2108              	.L145:
 2109 0162 0023     		movs	r3, #0
 2110              	.L117:
1102:Source\LwIP\src\core/tcp_out.c ****       ((pcb->flags & (TF_NAGLEMEMERR | TF_FIN)) == 0)) {
 2111              		.loc 1 1102 0 discriminator 16
 2112 0164 002B     		cmp	r3, #0
 2113 0166 04D1     		bne	.L119
1103:Source\LwIP\src\core/tcp_out.c ****       break;
 2114              		.loc 1 1103 0 is_stmt 1 discriminator 17
 2115 0168 6B8B     		ldrh	r3, [r5, #26]
1102:Source\LwIP\src\core/tcp_out.c ****       ((pcb->flags & (TF_NAGLEMEMERR | TF_FIN)) == 0)) {
 2116              		.loc 1 1102 0 discriminator 17
 2117 016a A022     		movs	r2, #160
 2118 016c 1A42     		tst	r2, r3
 2119 016e 00D1     		bne	.LCB2322
 2120 0170 D6E0     		b	.L116	@long jump
 2121              	.LCB2322:
 2122              	.L119:
1115:Source\LwIP\src\core/tcp_out.c ****       TCPH_SET_FLAG(seg->tcphdr, TCP_ACK);
 2123              		.loc 1 1115 0
 2124 0172 2B7D     		ldrb	r3, [r5, #20]
 2125 0174 022B     		cmp	r3, #2
 2126 0176 0ED0     		beq	.L120
1116:Source\LwIP\src\core/tcp_out.c ****     }
 2127              		.loc 1 1116 0
 2128 0178 2769     		ldr	r7, [r4, #16]
 2129 017a 3B7B     		ldrb	r3, [r7, #12]
 2130 017c 787B     		ldrb	r0, [r7, #13]
 2131 017e 0002     		lsls	r0, r0, #8
 2132 0180 1843     		orrs	r0, r3
 2133 0182 8046     		mov	r8, r0
ARM GAS  C:\Users\Phuong\AppData\Local\Temp\cc5dKVKJ.s 			page 66


 2134 0184 1020     		movs	r0, #16
 2135 0186 FFF7FEFF 		bl	lwip_htons
 2136              	.LVL260:
 2137 018a 4346     		mov	r3, r8
 2138 018c 1843     		orrs	r0, r3
 2139 018e 80B2     		uxth	r0, r0
 2140 0190 3873     		strb	r0, [r7, #12]
 2141 0192 000A     		lsrs	r0, r0, #8
 2142 0194 7873     		strb	r0, [r7, #13]
 2143              	.L120:
1120:Source\LwIP\src\core/tcp_out.c **** #endif /* TCP_OVERSIZE_DBGCHECK */
 2144              		.loc 1 1120 0
 2145 0196 0023     		movs	r3, #0
 2146 0198 6381     		strh	r3, [r4, #10]
1122:Source\LwIP\src\core/tcp_out.c ****     if (err != ERR_OK) {
 2147              		.loc 1 1122 0
 2148 019a 019A     		ldr	r2, [sp, #4]
 2149 019c 2900     		movs	r1, r5
 2150 019e 2000     		movs	r0, r4
 2151 01a0 FFF7FEFF 		bl	tcp_output_segment
 2152              	.LVL261:
1123:Source\LwIP\src\core/tcp_out.c ****       /* segment could not be sent, for whatever reason */
 2153              		.loc 1 1123 0
 2154 01a4 0028     		cmp	r0, #0
 2155 01a6 04D0     		beq	.L121
1125:Source\LwIP\src\core/tcp_out.c ****       return err;
 2156              		.loc 1 1125 0
 2157 01a8 6A8B     		ldrh	r2, [r5, #26]
 2158 01aa 8023     		movs	r3, #128
 2159 01ac 1343     		orrs	r3, r2
 2160 01ae 6B83     		strh	r3, [r5, #26]
1126:Source\LwIP\src\core/tcp_out.c ****     }
 2161              		.loc 1 1126 0
 2162 01b0 C9E0     		b	.L104
 2163              	.L121:
1128:Source\LwIP\src\core/tcp_out.c ****     if (pcb->state != SYN_SENT) {
 2164              		.loc 1 1128 0
 2165 01b2 2368     		ldr	r3, [r4]
 2166 01b4 AB66     		str	r3, [r5, #104]
1129:Source\LwIP\src\core/tcp_out.c ****       pcb->flags &= ~(TF_ACK_DELAY | TF_ACK_NOW);
 2167              		.loc 1 1129 0
 2168 01b6 2B7D     		ldrb	r3, [r5, #20]
 2169 01b8 022B     		cmp	r3, #2
 2170 01ba 03D0     		beq	.L122
1130:Source\LwIP\src\core/tcp_out.c ****     }
 2171              		.loc 1 1130 0
 2172 01bc 6B8B     		ldrh	r3, [r5, #26]
 2173 01be 0322     		movs	r2, #3
 2174 01c0 9343     		bics	r3, r2
 2175 01c2 6B83     		strh	r3, [r5, #26]
 2176              	.L122:
1132:Source\LwIP\src\core/tcp_out.c ****     if (TCP_SEQ_LT(pcb->snd_nxt, snd_nxt)) {
 2177              		.loc 1 1132 0
 2178 01c4 2769     		ldr	r7, [r4, #16]
 2179 01c6 3979     		ldrb	r1, [r7, #4]
 2180 01c8 7B79     		ldrb	r3, [r7, #5]
 2181 01ca 1B02     		lsls	r3, r3, #8
ARM GAS  C:\Users\Phuong\AppData\Local\Temp\cc5dKVKJ.s 			page 67


 2182 01cc 0B43     		orrs	r3, r1
 2183 01ce 1A00     		movs	r2, r3
 2184 01d0 B879     		ldrb	r0, [r7, #6]
 2185              	.LVL262:
 2186 01d2 0004     		lsls	r0, r0, #16
 2187 01d4 0300     		movs	r3, r0
 2188 01d6 1343     		orrs	r3, r2
 2189 01d8 F879     		ldrb	r0, [r7, #7]
 2190 01da 0006     		lsls	r0, r0, #24
 2191 01dc 1843     		orrs	r0, r3
 2192 01de FFF7FEFF 		bl	lwip_htonl
 2193              	.LVL263:
 2194 01e2 8046     		mov	r8, r0
 2195 01e4 2789     		ldrh	r7, [r4, #8]
 2196 01e6 2269     		ldr	r2, [r4, #16]
 2197 01e8 137B     		ldrb	r3, [r2, #12]
 2198 01ea 507B     		ldrb	r0, [r2, #13]
 2199 01ec 0002     		lsls	r0, r0, #8
 2200 01ee 1843     		orrs	r0, r3
 2201 01f0 FFF7FEFF 		bl	lwip_htons
 2202              	.LVL264:
 2203 01f4 8307     		lsls	r3, r0, #30
 2204 01f6 01D0     		beq	.L146
 2205 01f8 0120     		movs	r0, #1
 2206 01fa 00E0     		b	.L123
 2207              	.L146:
 2208 01fc 0020     		movs	r0, #0
 2209              	.L123:
1132:Source\LwIP\src\core/tcp_out.c ****     if (TCP_SEQ_LT(pcb->snd_nxt, snd_nxt)) {
 2210              		.loc 1 1132 0 is_stmt 0 discriminator 4
 2211 01fe C019     		adds	r0, r0, r7
 2212 0200 4044     		add	r0, r0, r8
 2213              	.LVL265:
1133:Source\LwIP\src\core/tcp_out.c ****       pcb->snd_nxt = snd_nxt;
 2214              		.loc 1 1133 0 is_stmt 1 discriminator 4
 2215 0202 EB6C     		ldr	r3, [r5, #76]
 2216 0204 1B1A     		subs	r3, r3, r0
 2217 0206 00D5     		bpl	.L124
1134:Source\LwIP\src\core/tcp_out.c ****     }
 2218              		.loc 1 1134 0
 2219 0208 E864     		str	r0, [r5, #76]
 2220              	.L124:
1137:Source\LwIP\src\core/tcp_out.c ****       seg->next = NULL;
 2221              		.loc 1 1137 0
 2222 020a 2789     		ldrh	r7, [r4, #8]
 2223 020c 2269     		ldr	r2, [r4, #16]
 2224 020e 137B     		ldrb	r3, [r2, #12]
 2225 0210 507B     		ldrb	r0, [r2, #13]
 2226              	.LVL266:
 2227 0212 0002     		lsls	r0, r0, #8
 2228 0214 1843     		orrs	r0, r3
 2229 0216 FFF7FEFF 		bl	lwip_htons
 2230              	.LVL267:
 2231 021a 8307     		lsls	r3, r0, #30
 2232 021c 01D0     		beq	.L147
 2233 021e 0123     		movs	r3, #1
 2234 0220 00E0     		b	.L125
ARM GAS  C:\Users\Phuong\AppData\Local\Temp\cc5dKVKJ.s 			page 68


 2235              	.L147:
 2236 0222 0023     		movs	r3, #0
 2237              	.L125:
1137:Source\LwIP\src\core/tcp_out.c ****       seg->next = NULL;
 2238              		.loc 1 1137 0 is_stmt 0 discriminator 4
 2239 0224 DF19     		adds	r7, r3, r7
 2240 0226 002F     		cmp	r7, #0
 2241 0228 5ED0     		beq	.L126
1138:Source\LwIP\src\core/tcp_out.c ****       /* unacked list is empty? */
 2242              		.loc 1 1138 0 is_stmt 1
 2243 022a 0023     		movs	r3, #0
 2244 022c 2360     		str	r3, [r4]
1140:Source\LwIP\src\core/tcp_out.c ****         pcb->unacked = seg;
 2245              		.loc 1 1140 0
 2246 022e EB6E     		ldr	r3, [r5, #108]
 2247 0230 002B     		cmp	r3, #0
 2248 0232 02D1     		bne	.L127
1141:Source\LwIP\src\core/tcp_out.c ****         useg = seg;
 2249              		.loc 1 1141 0
 2250 0234 EC66     		str	r4, [r5, #108]
 2251              	.LVL268:
1142:Source\LwIP\src\core/tcp_out.c ****       /* unacked list is not empty? */
 2252              		.loc 1 1142 0
 2253 0236 2600     		movs	r6, r4
 2254 0238 59E0     		b	.L128
 2255              	.LVL269:
 2256              	.L127:
1148:Source\LwIP\src\core/tcp_out.c ****           /* add segment to before tail of unacked list, keeping the list sorted */
 2257              		.loc 1 1148 0
 2258 023a 2769     		ldr	r7, [r4, #16]
 2259 023c 3979     		ldrb	r1, [r7, #4]
 2260 023e 7B79     		ldrb	r3, [r7, #5]
 2261 0240 1B02     		lsls	r3, r3, #8
 2262 0242 0B43     		orrs	r3, r1
 2263 0244 1A00     		movs	r2, r3
 2264 0246 B879     		ldrb	r0, [r7, #6]
 2265 0248 0004     		lsls	r0, r0, #16
 2266 024a 0300     		movs	r3, r0
 2267 024c 1343     		orrs	r3, r2
 2268 024e F879     		ldrb	r0, [r7, #7]
 2269 0250 0006     		lsls	r0, r0, #24
 2270 0252 1843     		orrs	r0, r3
 2271 0254 FFF7FEFF 		bl	lwip_htonl
 2272              	.LVL270:
 2273 0258 0700     		movs	r7, r0
 2274 025a 3069     		ldr	r0, [r6, #16]
 2275 025c 0179     		ldrb	r1, [r0, #4]
 2276 025e 4379     		ldrb	r3, [r0, #5]
 2277 0260 1B02     		lsls	r3, r3, #8
 2278 0262 0B43     		orrs	r3, r1
 2279 0264 1A00     		movs	r2, r3
 2280 0266 8379     		ldrb	r3, [r0, #6]
 2281 0268 1B04     		lsls	r3, r3, #16
 2282 026a 1343     		orrs	r3, r2
 2283 026c C079     		ldrb	r0, [r0, #7]
 2284 026e 0006     		lsls	r0, r0, #24
 2285 0270 1843     		orrs	r0, r3
ARM GAS  C:\Users\Phuong\AppData\Local\Temp\cc5dKVKJ.s 			page 69


 2286 0272 FFF7FEFF 		bl	lwip_htonl
 2287              	.LVL271:
 2288 0276 3F1A     		subs	r7, r7, r0
 2289 0278 30D5     		bpl	.L129
 2290              	.LBB14:
1150:Source\LwIP\src\core/tcp_out.c ****           while (*cur_seg &&
 2291              		.loc 1 1150 0
 2292 027a 6C23     		movs	r3, #108
 2293 027c 9846     		mov	r8, r3
 2294 027e A844     		add	r8, r8, r5
 2295              	.LVL272:
1151:Source\LwIP\src\core/tcp_out.c ****             TCP_SEQ_LT(lwip_ntohl((*cur_seg)->tcphdr->seqno), lwip_ntohl(seg->tcphdr->seqno))) {
 2296              		.loc 1 1151 0
 2297 0280 02E0     		b	.L130
 2298              	.L132:
1153:Source\LwIP\src\core/tcp_out.c ****           }
 2299              		.loc 1 1153 0
 2300 0282 4346     		mov	r3, r8
 2301 0284 1B68     		ldr	r3, [r3]
 2302 0286 9846     		mov	r8, r3
 2303              	.LVL273:
 2304              	.L130:
1151:Source\LwIP\src\core/tcp_out.c ****             TCP_SEQ_LT(lwip_ntohl((*cur_seg)->tcphdr->seqno), lwip_ntohl(seg->tcphdr->seqno))) {
 2305              		.loc 1 1151 0
 2306 0288 4346     		mov	r3, r8
 2307 028a 1B68     		ldr	r3, [r3]
 2308 028c 002B     		cmp	r3, #0
 2309 028e 1FD0     		beq	.L131
1152:Source\LwIP\src\core/tcp_out.c ****               cur_seg = &((*cur_seg)->next );
 2310              		.loc 1 1152 0 discriminator 1
 2311 0290 1F69     		ldr	r7, [r3, #16]
 2312 0292 3979     		ldrb	r1, [r7, #4]
 2313 0294 7B79     		ldrb	r3, [r7, #5]
 2314 0296 1B02     		lsls	r3, r3, #8
 2315 0298 0B43     		orrs	r3, r1
 2316 029a 1A00     		movs	r2, r3
 2317 029c B879     		ldrb	r0, [r7, #6]
 2318 029e 0004     		lsls	r0, r0, #16
 2319 02a0 0300     		movs	r3, r0
 2320 02a2 1343     		orrs	r3, r2
 2321 02a4 F879     		ldrb	r0, [r7, #7]
 2322 02a6 0006     		lsls	r0, r0, #24
 2323 02a8 1843     		orrs	r0, r3
 2324 02aa FFF7FEFF 		bl	lwip_htonl
 2325              	.LVL274:
 2326 02ae 0700     		movs	r7, r0
 2327 02b0 2069     		ldr	r0, [r4, #16]
 2328 02b2 0179     		ldrb	r1, [r0, #4]
 2329 02b4 4379     		ldrb	r3, [r0, #5]
 2330 02b6 1B02     		lsls	r3, r3, #8
 2331 02b8 0B43     		orrs	r3, r1
 2332 02ba 1A00     		movs	r2, r3
 2333 02bc 8379     		ldrb	r3, [r0, #6]
 2334 02be 1B04     		lsls	r3, r3, #16
 2335 02c0 1343     		orrs	r3, r2
 2336 02c2 C079     		ldrb	r0, [r0, #7]
 2337 02c4 0006     		lsls	r0, r0, #24
ARM GAS  C:\Users\Phuong\AppData\Local\Temp\cc5dKVKJ.s 			page 70


 2338 02c6 1843     		orrs	r0, r3
 2339 02c8 FFF7FEFF 		bl	lwip_htonl
 2340              	.LVL275:
 2341 02cc 3F1A     		subs	r7, r7, r0
1151:Source\LwIP\src\core/tcp_out.c ****             TCP_SEQ_LT(lwip_ntohl((*cur_seg)->tcphdr->seqno), lwip_ntohl(seg->tcphdr->seqno))) {
 2342              		.loc 1 1151 0 discriminator 1
 2343 02ce D8D4     		bmi	.L132
 2344              	.L131:
1155:Source\LwIP\src\core/tcp_out.c ****           (*cur_seg) = seg;
 2345              		.loc 1 1155 0
 2346 02d0 4346     		mov	r3, r8
 2347 02d2 1B68     		ldr	r3, [r3]
 2348 02d4 2360     		str	r3, [r4]
1156:Source\LwIP\src\core/tcp_out.c ****         } else {
 2349              		.loc 1 1156 0
 2350 02d6 4346     		mov	r3, r8
 2351 02d8 1C60     		str	r4, [r3]
 2352              	.LBE14:
 2353 02da 08E0     		b	.L128
 2354              	.LVL276:
 2355              	.L129:
1159:Source\LwIP\src\core/tcp_out.c ****           useg = useg->next;
 2356              		.loc 1 1159 0
 2357 02dc 3460     		str	r4, [r6]
 2358              	.LVL277:
1160:Source\LwIP\src\core/tcp_out.c ****         }
 2359              		.loc 1 1160 0
 2360 02de 2600     		movs	r6, r4
 2361              	.LVL278:
 2362 02e0 05E0     		b	.L128
 2363              	.L149:
 2364 02e2 C046     		.align	2
 2365              	.L148:
 2366 02e4 00000000 		.word	tcp_input_pcb
 2367              	.L126:
1165:Source\LwIP\src\core/tcp_out.c ****     }
 2368              		.loc 1 1165 0
 2369 02e8 2000     		movs	r0, r4
 2370 02ea FFF7FEFF 		bl	tcp_seg_free
 2371              	.LVL279:
 2372              	.L128:
1167:Source\LwIP\src\core/tcp_out.c ****   }
 2373              		.loc 1 1167 0
 2374 02ee AC6E     		ldr	r4, [r5, #104]
 2375              	.LVL280:
 2376              	.L115:
1091:Source\LwIP\src\core/tcp_out.c ****          lwip_ntohl(seg->tcphdr->seqno) - pcb->lastack + seg->len <= wnd) {
 2377              		.loc 1 1091 0
 2378 02f0 002C     		cmp	r4, #0
 2379 02f2 15D0     		beq	.L116
1092:Source\LwIP\src\core/tcp_out.c ****     LWIP_ASSERT("RST not expected here!",
 2380              		.loc 1 1092 0 discriminator 1
 2381 02f4 2769     		ldr	r7, [r4, #16]
 2382 02f6 3979     		ldrb	r1, [r7, #4]
 2383 02f8 7B79     		ldrb	r3, [r7, #5]
 2384 02fa 1B02     		lsls	r3, r3, #8
 2385 02fc 0B43     		orrs	r3, r1
ARM GAS  C:\Users\Phuong\AppData\Local\Temp\cc5dKVKJ.s 			page 71


 2386 02fe 1A00     		movs	r2, r3
 2387 0300 B879     		ldrb	r0, [r7, #6]
 2388 0302 0004     		lsls	r0, r0, #16
 2389 0304 0300     		movs	r3, r0
 2390 0306 1343     		orrs	r3, r2
 2391 0308 F879     		ldrb	r0, [r7, #7]
 2392 030a 0006     		lsls	r0, r0, #24
 2393 030c 1843     		orrs	r0, r3
 2394 030e FFF7FEFF 		bl	lwip_htonl
 2395              	.LVL281:
 2396 0312 6B6C     		ldr	r3, [r5, #68]
 2397 0314 C01A     		subs	r0, r0, r3
 2398 0316 2389     		ldrh	r3, [r4, #8]
 2399 0318 1818     		adds	r0, r3, r0
1091:Source\LwIP\src\core/tcp_out.c ****          lwip_ntohl(seg->tcphdr->seqno) - pcb->lastack + seg->len <= wnd) {
 2400              		.loc 1 1091 0 discriminator 1
 2401 031a 8245     		cmp	r10, r0
 2402 031c 00D3     		bcc	.LCB2644
 2403 031e F4E6     		b	.L133	@long jump
 2404              	.LCB2644:
 2405              	.L116:
1171:Source\LwIP\src\core/tcp_out.c ****     /* last unsent has been removed, reset unsent_oversize */
 2406              		.loc 1 1171 0
 2407 0320 AB6E     		ldr	r3, [r5, #104]
 2408 0322 002B     		cmp	r3, #0
 2409 0324 02D1     		bne	.L134
1173:Source\LwIP\src\core/tcp_out.c ****   }
 2410              		.loc 1 1173 0
 2411 0326 0022     		movs	r2, #0
 2412 0328 6433     		adds	r3, r3, #100
 2413 032a EA52     		strh	r2, [r5, r3]
 2414              	.L134:
1177:Source\LwIP\src\core/tcp_out.c ****   return ERR_OK;
 2415              		.loc 1 1177 0
 2416 032c 6B8B     		ldrh	r3, [r5, #26]
 2417 032e 8022     		movs	r2, #128
 2418 0330 9343     		bics	r3, r2
 2419 0332 6B83     		strh	r3, [r5, #26]
1178:Source\LwIP\src\core/tcp_out.c **** }
 2420              		.loc 1 1178 0
 2421 0334 0020     		movs	r0, #0
 2422 0336 06E0     		b	.L104
 2423              	.LVL282:
 2424              	.L135:
1012:Source\LwIP\src\core/tcp_out.c ****   }
 2425              		.loc 1 1012 0
 2426 0338 0020     		movs	r0, #0
 2427              	.LVL283:
 2428 033a 04E0     		b	.L104
 2429              	.LVL284:
 2430              	.L137:
1039:Source\LwIP\src\core/tcp_out.c ****   }
 2431              		.loc 1 1039 0
 2432 033c 0420     		movs	r0, #4
 2433              	.LVL285:
 2434 033e 4042     		rsbs	r0, r0, #0
 2435 0340 01E0     		b	.L104
ARM GAS  C:\Users\Phuong\AppData\Local\Temp\cc5dKVKJ.s 			page 72


 2436              	.LVL286:
 2437              	.L139:
 2438              	.LBB15:
1046:Source\LwIP\src\core/tcp_out.c ****     }
 2439              		.loc 1 1046 0
 2440 0342 0420     		movs	r0, #4
 2441              	.LVL287:
 2442 0344 4042     		rsbs	r0, r0, #0
 2443              	.LVL288:
 2444              	.L104:
 2445              	.LBE15:
1179:Source\LwIP\src\core/tcp_out.c **** 
 2446              		.loc 1 1179 0
 2447 0346 03B0     		add	sp, sp, #12
 2448              		@ sp needed
 2449              	.LVL289:
 2450 0348 0CBC     		pop	{r2, r3}
 2451 034a 9046     		mov	r8, r2
 2452 034c 9A46     		mov	r10, r3
 2453 034e F0BD     		pop	{r4, r5, r6, r7, pc}
 2454              		.cfi_endproc
 2455              	.LFE61:
 2456              		.size	tcp_output, .-tcp_output
 2457              		.section	.text.tcp_rst,"ax",%progbits
 2458              		.align	2
 2459              		.global	tcp_rst
 2460              		.code	16
 2461              		.thumb_func
 2462              		.type	tcp_rst, %function
 2463              	tcp_rst:
 2464              	.LFB63:
1322:Source\LwIP\src\core/tcp_out.c **** 
1323:Source\LwIP\src\core/tcp_out.c **** /**
1324:Source\LwIP\src\core/tcp_out.c ****  * Send a TCP RESET packet (empty segment with RST flag set) either to
1325:Source\LwIP\src\core/tcp_out.c ****  * abort a connection or to show that there is no matching local connection
1326:Source\LwIP\src\core/tcp_out.c ****  * for a received segment.
1327:Source\LwIP\src\core/tcp_out.c ****  *
1328:Source\LwIP\src\core/tcp_out.c ****  * Called by tcp_abort() (to abort a local connection), tcp_input() (if no
1329:Source\LwIP\src\core/tcp_out.c ****  * matching local pcb was found), tcp_listen_input() (if incoming segment
1330:Source\LwIP\src\core/tcp_out.c ****  * has ACK flag set) and tcp_process() (received segment in the wrong state)
1331:Source\LwIP\src\core/tcp_out.c ****  *
1332:Source\LwIP\src\core/tcp_out.c ****  * Since a RST segment is in most cases not sent for an active connection,
1333:Source\LwIP\src\core/tcp_out.c ****  * tcp_rst() has a number of arguments that are taken from a tcp_pcb for
1334:Source\LwIP\src\core/tcp_out.c ****  * most other segment output functions.
1335:Source\LwIP\src\core/tcp_out.c ****  *
1336:Source\LwIP\src\core/tcp_out.c ****  * @param seqno the sequence number to use for the outgoing segment
1337:Source\LwIP\src\core/tcp_out.c ****  * @param ackno the acknowledge number to use for the outgoing segment
1338:Source\LwIP\src\core/tcp_out.c ****  * @param local_ip the local IP address to send the segment from
1339:Source\LwIP\src\core/tcp_out.c ****  * @param remote_ip the remote IP address to send the segment to
1340:Source\LwIP\src\core/tcp_out.c ****  * @param local_port the local TCP port to send the segment from
1341:Source\LwIP\src\core/tcp_out.c ****  * @param remote_port the remote TCP port to send the segment to
1342:Source\LwIP\src\core/tcp_out.c ****  */
1343:Source\LwIP\src\core/tcp_out.c **** void
1344:Source\LwIP\src\core/tcp_out.c **** tcp_rst(u32_t seqno, u32_t ackno,
1345:Source\LwIP\src\core/tcp_out.c ****   const ip_addr_t *local_ip, const ip_addr_t *remote_ip,
1346:Source\LwIP\src\core/tcp_out.c ****   u16_t local_port, u16_t remote_port)
1347:Source\LwIP\src\core/tcp_out.c **** {
ARM GAS  C:\Users\Phuong\AppData\Local\Temp\cc5dKVKJ.s 			page 73


 2465              		.loc 1 1347 0
 2466              		.cfi_startproc
 2467              		@ args = 8, pretend = 0, frame = 16
 2468              		@ frame_needed = 0, uses_anonymous_args = 0
 2469              	.LVL290:
 2470 0000 F0B5     		push	{r4, r5, r6, r7, lr}
 2471              		.cfi_def_cfa_offset 20
 2472              		.cfi_offset 4, -20
 2473              		.cfi_offset 5, -16
 2474              		.cfi_offset 6, -12
 2475              		.cfi_offset 7, -8
 2476              		.cfi_offset 14, -4
 2477 0002 89B0     		sub	sp, sp, #36
 2478              		.cfi_def_cfa_offset 56
 2479 0004 0590     		str	r0, [sp, #20]
 2480 0006 0691     		str	r1, [sp, #24]
 2481 0008 0492     		str	r2, [sp, #16]
 2482 000a 0793     		str	r3, [sp, #28]
 2483 000c 0EAB     		add	r3, sp, #56
 2484              	.LVL291:
 2485 000e 1C88     		ldrh	r4, [r3]
 2486 0010 0FAB     		add	r3, sp, #60
 2487              	.LVL292:
 2488 0012 1E88     		ldrh	r6, [r3]
1348:Source\LwIP\src\core/tcp_out.c ****   struct pbuf *p;
1349:Source\LwIP\src\core/tcp_out.c ****   struct tcp_hdr *tcphdr;
1350:Source\LwIP\src\core/tcp_out.c ****   struct netif *netif;
1351:Source\LwIP\src\core/tcp_out.c ****   p = pbuf_alloc(PBUF_IP, TCP_HLEN, PBUF_RAM);
 2489              		.loc 1 1351 0
 2490 0014 0022     		movs	r2, #0
 2491              	.LVL293:
 2492 0016 1421     		movs	r1, #20
 2493              	.LVL294:
 2494 0018 0120     		movs	r0, #1
 2495              	.LVL295:
 2496 001a FFF7FEFF 		bl	pbuf_alloc
 2497              	.LVL296:
 2498 001e 071E     		subs	r7, r0, #0
 2499              	.LVL297:
1352:Source\LwIP\src\core/tcp_out.c ****   if (p == NULL) {
 2500              		.loc 1 1352 0
 2501 0020 52D0     		beq	.L150
1353:Source\LwIP\src\core/tcp_out.c ****     LWIP_DEBUGF(TCP_DEBUG, ("tcp_rst: could not allocate memory for pbuf\n"));
1354:Source\LwIP\src\core/tcp_out.c ****     return;
1355:Source\LwIP\src\core/tcp_out.c ****   }
1356:Source\LwIP\src\core/tcp_out.c ****   LWIP_ASSERT("check that first pbuf can hold struct tcp_hdr",
1357:Source\LwIP\src\core/tcp_out.c ****               (p->len >= sizeof(struct tcp_hdr)));
1358:Source\LwIP\src\core/tcp_out.c **** 
1359:Source\LwIP\src\core/tcp_out.c ****   tcphdr = (struct tcp_hdr *)p->payload;
 2502              		.loc 1 1359 0
 2503 0022 4568     		ldr	r5, [r0, #4]
 2504              	.LVL298:
1360:Source\LwIP\src\core/tcp_out.c ****   tcphdr->src = lwip_htons(local_port);
 2505              		.loc 1 1360 0
 2506 0024 2000     		movs	r0, r4
 2507              	.LVL299:
 2508 0026 FFF7FEFF 		bl	lwip_htons
ARM GAS  C:\Users\Phuong\AppData\Local\Temp\cc5dKVKJ.s 			page 74


 2509              	.LVL300:
 2510 002a 2870     		strb	r0, [r5]
 2511 002c 000A     		lsrs	r0, r0, #8
 2512 002e 6870     		strb	r0, [r5, #1]
1361:Source\LwIP\src\core/tcp_out.c ****   tcphdr->dest = lwip_htons(remote_port);
 2513              		.loc 1 1361 0
 2514 0030 3000     		movs	r0, r6
 2515 0032 FFF7FEFF 		bl	lwip_htons
 2516              	.LVL301:
 2517 0036 A870     		strb	r0, [r5, #2]
 2518 0038 000A     		lsrs	r0, r0, #8
 2519 003a E870     		strb	r0, [r5, #3]
1362:Source\LwIP\src\core/tcp_out.c ****   tcphdr->seqno = lwip_htonl(seqno);
 2520              		.loc 1 1362 0
 2521 003c 0598     		ldr	r0, [sp, #20]
 2522 003e FFF7FEFF 		bl	lwip_htonl
 2523              	.LVL302:
 2524 0042 2871     		strb	r0, [r5, #4]
 2525 0044 030A     		lsrs	r3, r0, #8
 2526 0046 6B71     		strb	r3, [r5, #5]
 2527 0048 030C     		lsrs	r3, r0, #16
 2528 004a AB71     		strb	r3, [r5, #6]
 2529 004c 000E     		lsrs	r0, r0, #24
 2530 004e E871     		strb	r0, [r5, #7]
1363:Source\LwIP\src\core/tcp_out.c ****   tcphdr->ackno = lwip_htonl(ackno);
 2531              		.loc 1 1363 0
 2532 0050 0698     		ldr	r0, [sp, #24]
 2533 0052 FFF7FEFF 		bl	lwip_htonl
 2534              	.LVL303:
 2535 0056 2872     		strb	r0, [r5, #8]
 2536 0058 030A     		lsrs	r3, r0, #8
 2537 005a 6B72     		strb	r3, [r5, #9]
 2538 005c 030C     		lsrs	r3, r0, #16
 2539 005e AB72     		strb	r3, [r5, #10]
 2540 0060 000E     		lsrs	r0, r0, #24
 2541 0062 E872     		strb	r0, [r5, #11]
1364:Source\LwIP\src\core/tcp_out.c ****   TCPH_HDRLEN_FLAGS_SET(tcphdr, TCP_HLEN/4, TCP_RST | TCP_ACK);
 2542              		.loc 1 1364 0
 2543 0064 1948     		ldr	r0, .L153
 2544 0066 FFF7FEFF 		bl	lwip_htons
 2545              	.LVL304:
 2546 006a 2873     		strb	r0, [r5, #12]
 2547 006c 000A     		lsrs	r0, r0, #8
 2548 006e 6873     		strb	r0, [r5, #13]
1365:Source\LwIP\src\core/tcp_out.c **** #if LWIP_WND_SCALE
1366:Source\LwIP\src\core/tcp_out.c ****   tcphdr->wnd = PP_HTONS(((TCP_WND >> TCP_RCV_SCALE) & 0xFFFF));
1367:Source\LwIP\src\core/tcp_out.c **** #else
1368:Source\LwIP\src\core/tcp_out.c ****   tcphdr->wnd = PP_HTONS(TCP_WND);
 2549              		.loc 1 1368 0
 2550 0070 1623     		movs	r3, #22
 2551 0072 AB73     		strb	r3, [r5, #14]
 2552 0074 463B     		subs	r3, r3, #70
 2553 0076 EB73     		strb	r3, [r5, #15]
1369:Source\LwIP\src\core/tcp_out.c **** #endif
1370:Source\LwIP\src\core/tcp_out.c ****   tcphdr->chksum = 0;
 2554              		.loc 1 1370 0
 2555 0078 0023     		movs	r3, #0
ARM GAS  C:\Users\Phuong\AppData\Local\Temp\cc5dKVKJ.s 			page 75


 2556 007a 2B74     		strb	r3, [r5, #16]
 2557 007c 6B74     		strb	r3, [r5, #17]
1371:Source\LwIP\src\core/tcp_out.c ****   tcphdr->urgp = 0;
 2558              		.loc 1 1371 0
 2559 007e AB74     		strb	r3, [r5, #18]
 2560 0080 EB74     		strb	r3, [r5, #19]
1372:Source\LwIP\src\core/tcp_out.c **** 
1373:Source\LwIP\src\core/tcp_out.c ****   TCP_STATS_INC(tcp.xmit);
 2561              		.loc 1 1373 0
 2562 0082 1349     		ldr	r1, .L153+4
 2563 0084 AC22     		movs	r2, #172
 2564 0086 8B5A     		ldrh	r3, [r1, r2]
 2565 0088 0133     		adds	r3, r3, #1
 2566 008a 8B52     		strh	r3, [r1, r2]
1374:Source\LwIP\src\core/tcp_out.c ****   MIB2_STATS_INC(mib2.tcpoutrsts);
1375:Source\LwIP\src\core/tcp_out.c **** 
1376:Source\LwIP\src\core/tcp_out.c ****   netif = ip_route(local_ip, remote_ip);
 2567              		.loc 1 1376 0
 2568 008c 079C     		ldr	r4, [sp, #28]
 2569 008e 2000     		movs	r0, r4
 2570 0090 FFF7FEFF 		bl	ip4_route
 2571              	.LVL305:
 2572 0094 061E     		subs	r6, r0, #0
 2573              	.LVL306:
1377:Source\LwIP\src\core/tcp_out.c ****   if (netif != NULL) {
 2574              		.loc 1 1377 0
 2575 0096 14D0     		beq	.L152
1378:Source\LwIP\src\core/tcp_out.c **** #if CHECKSUM_GEN_TCP
1379:Source\LwIP\src\core/tcp_out.c ****     IF__NETIF_CHECKSUM_ENABLED(netif, NETIF_CHECKSUM_GEN_TCP) {
1380:Source\LwIP\src\core/tcp_out.c ****       tcphdr->chksum = ip_chksum_pseudo(p, IP_PROTO_TCP, p->tot_len,
 2576              		.loc 1 1380 0
 2577 0098 3A89     		ldrh	r2, [r7, #8]
 2578 009a 0094     		str	r4, [sp]
 2579 009c 049B     		ldr	r3, [sp, #16]
 2580 009e 0621     		movs	r1, #6
 2581 00a0 3800     		movs	r0, r7
 2582              	.LVL307:
 2583 00a2 FFF7FEFF 		bl	ip_chksum_pseudo
 2584              	.LVL308:
 2585 00a6 2874     		strb	r0, [r5, #16]
 2586 00a8 000A     		lsrs	r0, r0, #8
 2587 00aa 6874     		strb	r0, [r5, #17]
1381:Source\LwIP\src\core/tcp_out.c ****                                         local_ip, remote_ip);
1382:Source\LwIP\src\core/tcp_out.c ****     }
1383:Source\LwIP\src\core/tcp_out.c **** #endif
1384:Source\LwIP\src\core/tcp_out.c ****     /* Send output with hardcoded TTL/HL since we have no access to the pcb */
1385:Source\LwIP\src\core/tcp_out.c ****     ip_output_if(p, local_ip, remote_ip, TCP_TTL, 0, IP_PROTO_TCP, netif);
 2588              		.loc 1 1385 0
 2589 00ac 0296     		str	r6, [sp, #8]
 2590 00ae 0623     		movs	r3, #6
 2591 00b0 0193     		str	r3, [sp, #4]
 2592 00b2 0023     		movs	r3, #0
 2593 00b4 0093     		str	r3, [sp]
 2594 00b6 FF33     		adds	r3, r3, #255
 2595 00b8 2200     		movs	r2, r4
 2596 00ba 0499     		ldr	r1, [sp, #16]
 2597 00bc 3800     		movs	r0, r7
ARM GAS  C:\Users\Phuong\AppData\Local\Temp\cc5dKVKJ.s 			page 76


 2598 00be FFF7FEFF 		bl	ip4_output_if
 2599              	.LVL309:
 2600              	.L152:
1386:Source\LwIP\src\core/tcp_out.c ****   }
1387:Source\LwIP\src\core/tcp_out.c ****   pbuf_free(p);
 2601              		.loc 1 1387 0
 2602 00c2 3800     		movs	r0, r7
 2603 00c4 FFF7FEFF 		bl	pbuf_free
 2604              	.LVL310:
 2605              	.L150:
1388:Source\LwIP\src\core/tcp_out.c ****   LWIP_DEBUGF(TCP_RST_DEBUG, ("tcp_rst: seqno %"U32_F" ackno %"U32_F".\n", seqno, ackno));
1389:Source\LwIP\src\core/tcp_out.c **** }
 2606              		.loc 1 1389 0
 2607 00c8 09B0     		add	sp, sp, #36
 2608              		@ sp needed
 2609              	.LVL311:
 2610 00ca F0BD     		pop	{r4, r5, r6, r7, pc}
 2611              	.L154:
 2612              		.align	2
 2613              	.L153:
 2614 00cc 14500000 		.word	20500
 2615 00d0 00000000 		.word	lwip_stats
 2616              		.cfi_endproc
 2617              	.LFE63:
 2618              		.size	tcp_rst, .-tcp_rst
 2619              		.section	.text.tcp_rexmit_rto,"ax",%progbits
 2620              		.align	2
 2621              		.global	tcp_rexmit_rto
 2622              		.code	16
 2623              		.thumb_func
 2624              		.type	tcp_rexmit_rto, %function
 2625              	tcp_rexmit_rto:
 2626              	.LFB64:
1390:Source\LwIP\src\core/tcp_out.c **** 
1391:Source\LwIP\src\core/tcp_out.c **** /**
1392:Source\LwIP\src\core/tcp_out.c ****  * Requeue all unacked segments for retransmission
1393:Source\LwIP\src\core/tcp_out.c ****  *
1394:Source\LwIP\src\core/tcp_out.c ****  * Called by tcp_slowtmr() for slow retransmission.
1395:Source\LwIP\src\core/tcp_out.c ****  *
1396:Source\LwIP\src\core/tcp_out.c ****  * @param pcb the tcp_pcb for which to re-enqueue all unacked segments
1397:Source\LwIP\src\core/tcp_out.c ****  */
1398:Source\LwIP\src\core/tcp_out.c **** void
1399:Source\LwIP\src\core/tcp_out.c **** tcp_rexmit_rto(struct tcp_pcb *pcb)
1400:Source\LwIP\src\core/tcp_out.c **** {
 2627              		.loc 1 1400 0
 2628              		.cfi_startproc
 2629              		@ args = 0, pretend = 0, frame = 0
 2630              		@ frame_needed = 0, uses_anonymous_args = 0
 2631              	.LVL312:
 2632 0000 10B5     		push	{r4, lr}
 2633              		.cfi_def_cfa_offset 8
 2634              		.cfi_offset 4, -8
 2635              		.cfi_offset 14, -4
1401:Source\LwIP\src\core/tcp_out.c ****   struct tcp_seg *seg;
1402:Source\LwIP\src\core/tcp_out.c **** 
1403:Source\LwIP\src\core/tcp_out.c ****   if (pcb->unacked == NULL) {
 2636              		.loc 1 1403 0
ARM GAS  C:\Users\Phuong\AppData\Local\Temp\cc5dKVKJ.s 			page 77


 2637 0002 C26E     		ldr	r2, [r0, #108]
 2638 0004 002A     		cmp	r2, #0
 2639 0006 01D1     		bne	.L157
 2640 0008 1AE0     		b	.L155
 2641              	.LVL313:
 2642              	.L160:
1404:Source\LwIP\src\core/tcp_out.c ****     return;
1405:Source\LwIP\src\core/tcp_out.c ****   }
1406:Source\LwIP\src\core/tcp_out.c **** 
1407:Source\LwIP\src\core/tcp_out.c ****   /* Move all unacked segments to the head of the unsent queue */
1408:Source\LwIP\src\core/tcp_out.c ****   for (seg = pcb->unacked; seg->next != NULL; seg = seg->next);
 2643              		.loc 1 1408 0
 2644 000a 1A00     		movs	r2, r3
 2645              	.LVL314:
 2646              	.L157:
 2647              		.loc 1 1408 0 is_stmt 0 discriminator 1
 2648 000c 1368     		ldr	r3, [r2]
 2649 000e 002B     		cmp	r3, #0
 2650 0010 FBD1     		bne	.L160
1409:Source\LwIP\src\core/tcp_out.c ****   /* concatenate unsent queue after unacked queue */
1410:Source\LwIP\src\core/tcp_out.c ****   seg->next = pcb->unsent;
 2651              		.loc 1 1410 0 is_stmt 1
 2652 0012 836E     		ldr	r3, [r0, #104]
 2653 0014 1360     		str	r3, [r2]
1411:Source\LwIP\src\core/tcp_out.c **** #if TCP_OVERSIZE_DBGCHECK
1412:Source\LwIP\src\core/tcp_out.c ****   /* if last unsent changed, we need to update unsent_oversize */
1413:Source\LwIP\src\core/tcp_out.c ****   if (pcb->unsent == NULL) {
 2654              		.loc 1 1413 0
 2655 0016 836E     		ldr	r3, [r0, #104]
 2656 0018 002B     		cmp	r3, #0
 2657 001a 02D1     		bne	.L158
1414:Source\LwIP\src\core/tcp_out.c ****     pcb->unsent_oversize = seg->oversize_left;
 2658              		.loc 1 1414 0
 2659 001c 5289     		ldrh	r2, [r2, #10]
 2660              	.LVL315:
 2661 001e 6433     		adds	r3, r3, #100
 2662 0020 C252     		strh	r2, [r0, r3]
 2663              	.L158:
1415:Source\LwIP\src\core/tcp_out.c ****   }
1416:Source\LwIP\src\core/tcp_out.c **** #endif /* TCP_OVERSIZE_DBGCHECK */
1417:Source\LwIP\src\core/tcp_out.c ****   /* unsent queue is the concatenated queue (of unacked, unsent) */
1418:Source\LwIP\src\core/tcp_out.c ****   pcb->unsent = pcb->unacked;
 2664              		.loc 1 1418 0
 2665 0022 C36E     		ldr	r3, [r0, #108]
 2666 0024 8366     		str	r3, [r0, #104]
1419:Source\LwIP\src\core/tcp_out.c ****   /* unacked queue is now empty */
1420:Source\LwIP\src\core/tcp_out.c ****   pcb->unacked = NULL;
 2667              		.loc 1 1420 0
 2668 0026 0023     		movs	r3, #0
 2669 0028 C366     		str	r3, [r0, #108]
1421:Source\LwIP\src\core/tcp_out.c **** 
1422:Source\LwIP\src\core/tcp_out.c ****   /* increment number of retransmissions */
1423:Source\LwIP\src\core/tcp_out.c ****   if (pcb->nrtx < 0xFF) {
 2670              		.loc 1 1423 0
 2671 002a 4233     		adds	r3, r3, #66
 2672 002c C35C     		ldrb	r3, [r0, r3]
 2673 002e FF2B     		cmp	r3, #255
ARM GAS  C:\Users\Phuong\AppData\Local\Temp\cc5dKVKJ.s 			page 78


 2674 0030 02D0     		beq	.L159
1424:Source\LwIP\src\core/tcp_out.c ****     ++pcb->nrtx;
 2675              		.loc 1 1424 0
 2676 0032 0133     		adds	r3, r3, #1
 2677 0034 4222     		movs	r2, #66
 2678 0036 8354     		strb	r3, [r0, r2]
 2679              	.L159:
1425:Source\LwIP\src\core/tcp_out.c ****   }
1426:Source\LwIP\src\core/tcp_out.c **** 
1427:Source\LwIP\src\core/tcp_out.c ****   /* Don't take any RTT measurements after retransmitting. */
1428:Source\LwIP\src\core/tcp_out.c ****   pcb->rttest = 0;
 2680              		.loc 1 1428 0
 2681 0038 0023     		movs	r3, #0
 2682 003a 4363     		str	r3, [r0, #52]
1429:Source\LwIP\src\core/tcp_out.c **** 
1430:Source\LwIP\src\core/tcp_out.c ****   /* Do the actual retransmission */
1431:Source\LwIP\src\core/tcp_out.c ****   tcp_output(pcb);
 2683              		.loc 1 1431 0
 2684 003c FFF7FEFF 		bl	tcp_output
 2685              	.LVL316:
 2686              	.L155:
1432:Source\LwIP\src\core/tcp_out.c **** }
 2687              		.loc 1 1432 0
 2688              		@ sp needed
 2689 0040 10BD     		pop	{r4, pc}
 2690              		.cfi_endproc
 2691              	.LFE64:
 2692              		.size	tcp_rexmit_rto, .-tcp_rexmit_rto
 2693 0042 C046     		.section	.text.tcp_rexmit,"ax",%progbits
 2694              		.align	2
 2695              		.global	tcp_rexmit
 2696              		.code	16
 2697              		.thumb_func
 2698              		.type	tcp_rexmit, %function
 2699              	tcp_rexmit:
 2700              	.LFB65:
1433:Source\LwIP\src\core/tcp_out.c **** 
1434:Source\LwIP\src\core/tcp_out.c **** /**
1435:Source\LwIP\src\core/tcp_out.c ****  * Requeue the first unacked segment for retransmission
1436:Source\LwIP\src\core/tcp_out.c ****  *
1437:Source\LwIP\src\core/tcp_out.c ****  * Called by tcp_receive() for fast retransmit.
1438:Source\LwIP\src\core/tcp_out.c ****  *
1439:Source\LwIP\src\core/tcp_out.c ****  * @param pcb the tcp_pcb for which to retransmit the first unacked segment
1440:Source\LwIP\src\core/tcp_out.c ****  */
1441:Source\LwIP\src\core/tcp_out.c **** void
1442:Source\LwIP\src\core/tcp_out.c **** tcp_rexmit(struct tcp_pcb *pcb)
1443:Source\LwIP\src\core/tcp_out.c **** {
 2701              		.loc 1 1443 0
 2702              		.cfi_startproc
 2703              		@ args = 0, pretend = 0, frame = 0
 2704              		@ frame_needed = 0, uses_anonymous_args = 0
 2705              	.LVL317:
 2706 0000 F8B5     		push	{r3, r4, r5, r6, r7, lr}
 2707              		.cfi_def_cfa_offset 24
 2708              		.cfi_offset 3, -24
 2709              		.cfi_offset 4, -20
 2710              		.cfi_offset 5, -16
ARM GAS  C:\Users\Phuong\AppData\Local\Temp\cc5dKVKJ.s 			page 79


 2711              		.cfi_offset 6, -12
 2712              		.cfi_offset 7, -8
 2713              		.cfi_offset 14, -4
 2714 0002 0600     		movs	r6, r0
1444:Source\LwIP\src\core/tcp_out.c ****   struct tcp_seg *seg;
1445:Source\LwIP\src\core/tcp_out.c ****   struct tcp_seg **cur_seg;
1446:Source\LwIP\src\core/tcp_out.c **** 
1447:Source\LwIP\src\core/tcp_out.c ****   if (pcb->unacked == NULL) {
 2715              		.loc 1 1447 0
 2716 0004 C56E     		ldr	r5, [r0, #108]
 2717 0006 002D     		cmp	r5, #0
 2718 0008 3AD0     		beq	.L161
 2719              	.LVL318:
1448:Source\LwIP\src\core/tcp_out.c ****     return;
1449:Source\LwIP\src\core/tcp_out.c ****   }
1450:Source\LwIP\src\core/tcp_out.c **** 
1451:Source\LwIP\src\core/tcp_out.c ****   /* Move the first unacked segment to the unsent queue */
1452:Source\LwIP\src\core/tcp_out.c ****   /* Keep the unsent queue sorted. */
1453:Source\LwIP\src\core/tcp_out.c ****   seg = pcb->unacked;
1454:Source\LwIP\src\core/tcp_out.c ****   pcb->unacked = seg->next;
 2720              		.loc 1 1454 0
 2721 000a 2B68     		ldr	r3, [r5]
 2722 000c C366     		str	r3, [r0, #108]
1455:Source\LwIP\src\core/tcp_out.c **** 
1456:Source\LwIP\src\core/tcp_out.c ****   cur_seg = &(pcb->unsent);
 2723              		.loc 1 1456 0
 2724 000e 0400     		movs	r4, r0
 2725 0010 6834     		adds	r4, r4, #104
 2726              	.LVL319:
1457:Source\LwIP\src\core/tcp_out.c ****   while (*cur_seg &&
 2727              		.loc 1 1457 0
 2728 0012 00E0     		b	.L163
 2729              	.LVL320:
 2730              	.L165:
1458:Source\LwIP\src\core/tcp_out.c ****     TCP_SEQ_LT(lwip_ntohl((*cur_seg)->tcphdr->seqno), lwip_ntohl(seg->tcphdr->seqno))) {
1459:Source\LwIP\src\core/tcp_out.c ****       cur_seg = &((*cur_seg)->next );
 2731              		.loc 1 1459 0
 2732 0014 2468     		ldr	r4, [r4]
 2733              	.LVL321:
 2734              	.L163:
1457:Source\LwIP\src\core/tcp_out.c ****   while (*cur_seg &&
 2735              		.loc 1 1457 0
 2736 0016 2368     		ldr	r3, [r4]
 2737 0018 002B     		cmp	r3, #0
 2738 001a 1FD0     		beq	.L164
1458:Source\LwIP\src\core/tcp_out.c ****     TCP_SEQ_LT(lwip_ntohl((*cur_seg)->tcphdr->seqno), lwip_ntohl(seg->tcphdr->seqno))) {
 2739              		.loc 1 1458 0 discriminator 1
 2740 001c 1F69     		ldr	r7, [r3, #16]
 2741 001e 3979     		ldrb	r1, [r7, #4]
 2742 0020 7B79     		ldrb	r3, [r7, #5]
 2743 0022 1B02     		lsls	r3, r3, #8
 2744 0024 0B43     		orrs	r3, r1
 2745 0026 1A00     		movs	r2, r3
 2746 0028 B879     		ldrb	r0, [r7, #6]
 2747 002a 0004     		lsls	r0, r0, #16
 2748 002c 0300     		movs	r3, r0
 2749 002e 1343     		orrs	r3, r2
ARM GAS  C:\Users\Phuong\AppData\Local\Temp\cc5dKVKJ.s 			page 80


 2750 0030 F879     		ldrb	r0, [r7, #7]
 2751 0032 0006     		lsls	r0, r0, #24
 2752 0034 1843     		orrs	r0, r3
 2753 0036 FFF7FEFF 		bl	lwip_htonl
 2754              	.LVL322:
 2755 003a 0700     		movs	r7, r0
 2756 003c 2869     		ldr	r0, [r5, #16]
 2757 003e 0179     		ldrb	r1, [r0, #4]
 2758 0040 4379     		ldrb	r3, [r0, #5]
 2759 0042 1B02     		lsls	r3, r3, #8
 2760 0044 0B43     		orrs	r3, r1
 2761 0046 1A00     		movs	r2, r3
 2762 0048 8379     		ldrb	r3, [r0, #6]
 2763 004a 1B04     		lsls	r3, r3, #16
 2764 004c 1343     		orrs	r3, r2
 2765 004e C079     		ldrb	r0, [r0, #7]
 2766 0050 0006     		lsls	r0, r0, #24
 2767 0052 1843     		orrs	r0, r3
 2768 0054 FFF7FEFF 		bl	lwip_htonl
 2769              	.LVL323:
 2770 0058 3F1A     		subs	r7, r7, r0
1457:Source\LwIP\src\core/tcp_out.c ****   while (*cur_seg &&
 2771              		.loc 1 1457 0 discriminator 1
 2772 005a DBD4     		bmi	.L165
 2773              	.L164:
1460:Source\LwIP\src\core/tcp_out.c ****   }
1461:Source\LwIP\src\core/tcp_out.c ****   seg->next = *cur_seg;
 2774              		.loc 1 1461 0
 2775 005c 2368     		ldr	r3, [r4]
 2776 005e 2B60     		str	r3, [r5]
1462:Source\LwIP\src\core/tcp_out.c ****   *cur_seg = seg;
 2777              		.loc 1 1462 0
 2778 0060 2560     		str	r5, [r4]
1463:Source\LwIP\src\core/tcp_out.c **** #if TCP_OVERSIZE
1464:Source\LwIP\src\core/tcp_out.c ****   if (seg->next == NULL) {
 2779              		.loc 1 1464 0
 2780 0062 2B68     		ldr	r3, [r5]
 2781 0064 002B     		cmp	r3, #0
 2782 0066 02D1     		bne	.L166
1465:Source\LwIP\src\core/tcp_out.c ****     /* the retransmitted segment is last in unsent, so reset unsent_oversize */
1466:Source\LwIP\src\core/tcp_out.c ****     pcb->unsent_oversize = 0;
 2783              		.loc 1 1466 0
 2784 0068 0022     		movs	r2, #0
 2785 006a 6433     		adds	r3, r3, #100
 2786 006c F252     		strh	r2, [r6, r3]
 2787              	.L166:
1467:Source\LwIP\src\core/tcp_out.c ****   }
1468:Source\LwIP\src\core/tcp_out.c **** #endif /* TCP_OVERSIZE */
1469:Source\LwIP\src\core/tcp_out.c **** 
1470:Source\LwIP\src\core/tcp_out.c ****   if (pcb->nrtx < 0xFF) {
 2788              		.loc 1 1470 0
 2789 006e 4223     		movs	r3, #66
 2790 0070 F35C     		ldrb	r3, [r6, r3]
 2791 0072 FF2B     		cmp	r3, #255
 2792 0074 02D0     		beq	.L167
1471:Source\LwIP\src\core/tcp_out.c ****     ++pcb->nrtx;
 2793              		.loc 1 1471 0
ARM GAS  C:\Users\Phuong\AppData\Local\Temp\cc5dKVKJ.s 			page 81


 2794 0076 0133     		adds	r3, r3, #1
 2795 0078 4222     		movs	r2, #66
 2796 007a B354     		strb	r3, [r6, r2]
 2797              	.L167:
1472:Source\LwIP\src\core/tcp_out.c ****   }
1473:Source\LwIP\src\core/tcp_out.c **** 
1474:Source\LwIP\src\core/tcp_out.c ****   /* Don't take any rtt measurements after retransmitting. */
1475:Source\LwIP\src\core/tcp_out.c ****   pcb->rttest = 0;
 2798              		.loc 1 1475 0
 2799 007c 0023     		movs	r3, #0
 2800 007e 7363     		str	r3, [r6, #52]
 2801              	.LVL324:
 2802              	.L161:
1476:Source\LwIP\src\core/tcp_out.c **** 
1477:Source\LwIP\src\core/tcp_out.c ****   /* Do the actual retransmission. */
1478:Source\LwIP\src\core/tcp_out.c ****   MIB2_STATS_INC(mib2.tcpretranssegs);
1479:Source\LwIP\src\core/tcp_out.c ****   /* No need to call tcp_output: we are always called from tcp_input()
1480:Source\LwIP\src\core/tcp_out.c ****      and thus tcp_output directly returns. */
1481:Source\LwIP\src\core/tcp_out.c **** }
 2803              		.loc 1 1481 0
 2804              		@ sp needed
 2805              	.LVL325:
 2806 0080 F8BD     		pop	{r3, r4, r5, r6, r7, pc}
 2807              		.cfi_endproc
 2808              	.LFE65:
 2809              		.size	tcp_rexmit, .-tcp_rexmit
 2810 0082 C046     		.section	.text.tcp_rexmit_fast,"ax",%progbits
 2811              		.align	2
 2812              		.global	tcp_rexmit_fast
 2813              		.code	16
 2814              		.thumb_func
 2815              		.type	tcp_rexmit_fast, %function
 2816              	tcp_rexmit_fast:
 2817              	.LFB66:
1482:Source\LwIP\src\core/tcp_out.c **** 
1483:Source\LwIP\src\core/tcp_out.c **** 
1484:Source\LwIP\src\core/tcp_out.c **** /**
1485:Source\LwIP\src\core/tcp_out.c ****  * Handle retransmission after three dupacks received
1486:Source\LwIP\src\core/tcp_out.c ****  *
1487:Source\LwIP\src\core/tcp_out.c ****  * @param pcb the tcp_pcb for which to retransmit the first unacked segment
1488:Source\LwIP\src\core/tcp_out.c ****  */
1489:Source\LwIP\src\core/tcp_out.c **** void
1490:Source\LwIP\src\core/tcp_out.c **** tcp_rexmit_fast(struct tcp_pcb *pcb)
1491:Source\LwIP\src\core/tcp_out.c **** {
 2818              		.loc 1 1491 0
 2819              		.cfi_startproc
 2820              		@ args = 0, pretend = 0, frame = 0
 2821              		@ frame_needed = 0, uses_anonymous_args = 0
 2822              	.LVL326:
 2823 0000 10B5     		push	{r4, lr}
 2824              		.cfi_def_cfa_offset 8
 2825              		.cfi_offset 4, -8
 2826              		.cfi_offset 14, -4
 2827 0002 0400     		movs	r4, r0
1492:Source\LwIP\src\core/tcp_out.c ****   if (pcb->unacked != NULL && !(pcb->flags & TF_INFR)) {
 2828              		.loc 1 1492 0
 2829 0004 C36E     		ldr	r3, [r0, #108]
ARM GAS  C:\Users\Phuong\AppData\Local\Temp\cc5dKVKJ.s 			page 82


 2830 0006 002B     		cmp	r3, #0
 2831 0008 24D0     		beq	.L168
 2832              		.loc 1 1492 0 is_stmt 0 discriminator 1
 2833 000a 438B     		ldrh	r3, [r0, #26]
 2834 000c 5B07     		lsls	r3, r3, #29
 2835 000e 21D4     		bmi	.L168
1493:Source\LwIP\src\core/tcp_out.c ****     /* This is fast retransmit. Retransmit the first unacked segment. */
1494:Source\LwIP\src\core/tcp_out.c ****     LWIP_DEBUGF(TCP_FR_DEBUG,
1495:Source\LwIP\src\core/tcp_out.c ****                 ("tcp_receive: dupacks %"U16_F" (%"U32_F
1496:Source\LwIP\src\core/tcp_out.c ****                  "), fast retransmit %"U32_F"\n",
1497:Source\LwIP\src\core/tcp_out.c ****                  (u16_t)pcb->dupacks, pcb->lastack,
1498:Source\LwIP\src\core/tcp_out.c ****                  lwip_ntohl(pcb->unacked->tcphdr->seqno)));
1499:Source\LwIP\src\core/tcp_out.c ****     tcp_rexmit(pcb);
 2836              		.loc 1 1499 0 is_stmt 1
 2837 0010 FFF7FEFF 		bl	tcp_rexmit
 2838              	.LVL327:
1500:Source\LwIP\src\core/tcp_out.c **** 
1501:Source\LwIP\src\core/tcp_out.c ****     /* Set ssthresh to half of the minimum of the current
1502:Source\LwIP\src\core/tcp_out.c ****      * cwnd and the advertised window */
1503:Source\LwIP\src\core/tcp_out.c ****     pcb->ssthresh = LWIP_MIN(pcb->cwnd, pcb->snd_wnd) / 2;
 2839              		.loc 1 1503 0
 2840 0014 5C23     		movs	r3, #92
 2841 0016 E25A     		ldrh	r2, [r4, r3]
 2842 0018 143B     		subs	r3, r3, #20
 2843 001a E15A     		ldrh	r1, [r4, r3]
 2844 001c 131C     		adds	r3, r2, #0
 2845 001e 8A42     		cmp	r2, r1
 2846 0020 00D9     		bls	.L170
 2847 0022 0B1C     		adds	r3, r1, #0
 2848              	.L170:
 2849 0024 9BB2     		uxth	r3, r3
 2850 0026 5B08     		lsrs	r3, r3, #1
 2851 0028 4A22     		movs	r2, #74
 2852 002a A352     		strh	r3, [r4, r2]
1504:Source\LwIP\src\core/tcp_out.c **** 
1505:Source\LwIP\src\core/tcp_out.c ****     /* The minimum value for ssthresh should be 2 MSS */
1506:Source\LwIP\src\core/tcp_out.c ****     if (pcb->ssthresh < (2U * pcb->mss)) {
 2853              		.loc 1 1506 0
 2854 002c 618E     		ldrh	r1, [r4, #50]
 2855 002e 4A00     		lsls	r2, r1, #1
 2856 0030 9342     		cmp	r3, r2
 2857 0032 02D2     		bcs	.L171
1507:Source\LwIP\src\core/tcp_out.c ****       LWIP_DEBUGF(TCP_FR_DEBUG,
1508:Source\LwIP\src\core/tcp_out.c ****                   ("tcp_receive: The minimum value for ssthresh %"TCPWNDSIZE_F
1509:Source\LwIP\src\core/tcp_out.c ****                    " should be min 2 mss %"U16_F"...\n",
1510:Source\LwIP\src\core/tcp_out.c ****                    pcb->ssthresh, (u16_t)(2*pcb->mss)));
1511:Source\LwIP\src\core/tcp_out.c ****       pcb->ssthresh = 2*pcb->mss;
 2858              		.loc 1 1511 0
 2859 0034 1300     		movs	r3, r2
 2860 0036 4A22     		movs	r2, #74
 2861 0038 A352     		strh	r3, [r4, r2]
 2862              	.L171:
1512:Source\LwIP\src\core/tcp_out.c ****     }
1513:Source\LwIP\src\core/tcp_out.c **** 
1514:Source\LwIP\src\core/tcp_out.c ****     pcb->cwnd = pcb->ssthresh + 3 * pcb->mss;
 2863              		.loc 1 1514 0
 2864 003a 4A23     		movs	r3, #74
ARM GAS  C:\Users\Phuong\AppData\Local\Temp\cc5dKVKJ.s 			page 83


 2865 003c E05A     		ldrh	r0, [r4, r3]
 2866 003e 4A00     		lsls	r2, r1, #1
 2867 0040 8B18     		adds	r3, r1, r2
 2868 0042 C318     		adds	r3, r0, r3
 2869 0044 4822     		movs	r2, #72
 2870 0046 A352     		strh	r3, [r4, r2]
1515:Source\LwIP\src\core/tcp_out.c ****     pcb->flags |= TF_INFR;
 2871              		.loc 1 1515 0
 2872 0048 628B     		ldrh	r2, [r4, #26]
 2873 004a 0423     		movs	r3, #4
 2874 004c 1343     		orrs	r3, r2
 2875 004e 6383     		strh	r3, [r4, #26]
1516:Source\LwIP\src\core/tcp_out.c **** 
1517:Source\LwIP\src\core/tcp_out.c ****     /* Reset the retransmission timer to prevent immediate rto retransmissions */
1518:Source\LwIP\src\core/tcp_out.c ****     pcb->rtime = 0;
 2876              		.loc 1 1518 0
 2877 0050 0023     		movs	r3, #0
 2878 0052 2386     		strh	r3, [r4, #48]
 2879              	.L168:
1519:Source\LwIP\src\core/tcp_out.c ****   }
1520:Source\LwIP\src\core/tcp_out.c **** }
 2880              		.loc 1 1520 0
 2881              		@ sp needed
 2882              	.LVL328:
 2883 0054 10BD     		pop	{r4, pc}
 2884              		.cfi_endproc
 2885              	.LFE66:
 2886              		.size	tcp_rexmit_fast, .-tcp_rexmit_fast
 2887 0056 C046     		.section	.text.tcp_keepalive,"ax",%progbits
 2888              		.align	2
 2889              		.global	tcp_keepalive
 2890              		.code	16
 2891              		.thumb_func
 2892              		.type	tcp_keepalive, %function
 2893              	tcp_keepalive:
 2894              	.LFB67:
1521:Source\LwIP\src\core/tcp_out.c **** 
1522:Source\LwIP\src\core/tcp_out.c **** 
1523:Source\LwIP\src\core/tcp_out.c **** /**
1524:Source\LwIP\src\core/tcp_out.c ****  * Send keepalive packets to keep a connection active although
1525:Source\LwIP\src\core/tcp_out.c ****  * no data is sent over it.
1526:Source\LwIP\src\core/tcp_out.c ****  *
1527:Source\LwIP\src\core/tcp_out.c ****  * Called by tcp_slowtmr()
1528:Source\LwIP\src\core/tcp_out.c ****  *
1529:Source\LwIP\src\core/tcp_out.c ****  * @param pcb the tcp_pcb for which to send a keepalive packet
1530:Source\LwIP\src\core/tcp_out.c ****  */
1531:Source\LwIP\src\core/tcp_out.c **** err_t
1532:Source\LwIP\src\core/tcp_out.c **** tcp_keepalive(struct tcp_pcb *pcb)
1533:Source\LwIP\src\core/tcp_out.c **** {
 2895              		.loc 1 1533 0
 2896              		.cfi_startproc
 2897              		@ args = 0, pretend = 0, frame = 0
 2898              		@ frame_needed = 0, uses_anonymous_args = 0
 2899              	.LVL329:
 2900 0000 F0B5     		push	{r4, r5, r6, r7, lr}
 2901              		.cfi_def_cfa_offset 20
 2902              		.cfi_offset 4, -20
