ARM GAS  C:\Users\Phuong\AppData\Local\Temp\ccrk5OoE.s 			page 1


   1              		.syntax unified
   2              		.cpu cortex-m0plus
   3              		.fpu softvfp
   4              		.eabi_attribute 20, 1
   5              		.eabi_attribute 21, 1
   6              		.eabi_attribute 23, 3
   7              		.eabi_attribute 24, 1
   8              		.eabi_attribute 25, 1
   9              		.eabi_attribute 26, 1
  10              		.eabi_attribute 30, 1
  11              		.eabi_attribute 34, 0
  12              		.eabi_attribute 18, 4
  13              		.thumb
  14              		.syntax unified
  15              		.file	"tcp_client_dhcp.c"
  16              		.text
  17              	.Ltext0:
  18              		.cfi_sections	.debug_frame
  19              		.section	.text.app_thread,"ax",%progbits
  20              		.align	2
  21              		.global	app_thread
  22              		.code	16
  23              		.thumb_func
  24              		.type	app_thread, %function
  25              	app_thread:
  26              	.LFB468:
  27              		.file 1 "Source\\tcp_client_dhcp.c"
   1:Source/tcp_client_dhcp.c **** #include <stdlib.h>
   2:Source/tcp_client_dhcp.c **** #include <string.h>
   3:Source/tcp_client_dhcp.c **** #include "lwip/sockets.h"
   4:Source/tcp_client_dhcp.c **** 
   5:Source/tcp_client_dhcp.c **** #include "project.h"
   6:Source/tcp_client_dhcp.c **** #include "FreeRTOS.h"
   7:Source/tcp_client_dhcp.c **** #include "task.h"
   8:Source/tcp_client_dhcp.c **** 
   9:Source/tcp_client_dhcp.c **** #include "lwip/init.h"
  10:Source/tcp_client_dhcp.c **** #include "lwip/mem.h"
  11:Source/tcp_client_dhcp.c **** #include "lwip/sys.h"
  12:Source/tcp_client_dhcp.c **** #include "lwip/udp.h"
  13:Source/tcp_client_dhcp.c **** #include "lwip/tcp.h"
  14:Source/tcp_client_dhcp.c **** #include "lwip/opt.h"
  15:Source/tcp_client_dhcp.c **** #include "lwip/debug.h"
  16:Source/tcp_client_dhcp.c **** #include "lwip/ip_addr.h"
  17:Source/tcp_client_dhcp.c **** #include "netif/slipif.h"
  18:Source/tcp_client_dhcp.c **** #include "lwip/sio.h"
  19:Source/tcp_client_dhcp.c **** #include "lwip/tcpip.h"
  20:Source/tcp_client_dhcp.c **** #include "lwip/dhcp.h"
  21:Source/tcp_client_dhcp.c **** 
  22:Source/tcp_client_dhcp.c **** #define SERVER_PORT_NUM 5671
  23:Source/tcp_client_dhcp.c **** #define SERVER_IP_ADDRESS "192.168.2.1"
  24:Source/tcp_client_dhcp.c **** 
  25:Source/tcp_client_dhcp.c **** ip4_addr_t ipaddr_slip, netmask_slip, gw_slip;
  26:Source/tcp_client_dhcp.c **** u8_t num_slip = 0;
  27:Source/tcp_client_dhcp.c **** struct netif slipif;
  28:Source/tcp_client_dhcp.c **** 
  29:Source/tcp_client_dhcp.c **** unsigned int memfreeHeap, memfreeStack;
  30:Source/tcp_client_dhcp.c **** 
ARM GAS  C:\Users\Phuong\AppData\Local\Temp\ccrk5OoE.s 			page 2


  31:Source/tcp_client_dhcp.c **** void print_ip(char *msg, ip_addr_t *ip)
  32:Source/tcp_client_dhcp.c **** {
  33:Source/tcp_client_dhcp.c **** 	printf("%s", msg);
  34:Source/tcp_client_dhcp.c **** 	printf("%d.%d.%d.%d\n\r", ip4_addr1(ip), ip4_addr2(ip),
  35:Source/tcp_client_dhcp.c **** 			ip4_addr3(ip), ip4_addr4(ip));
  36:Source/tcp_client_dhcp.c **** }
  37:Source/tcp_client_dhcp.c **** 
  38:Source/tcp_client_dhcp.c **** void print_ip_settings(ip_addr_t *ip, ip_addr_t *mask, ip_addr_t *gw)
  39:Source/tcp_client_dhcp.c **** {
  40:Source/tcp_client_dhcp.c **** 	print_ip("Board IP: ", ip);
  41:Source/tcp_client_dhcp.c **** 	print_ip("Netmask : ", mask);
  42:Source/tcp_client_dhcp.c **** 	print_ip("Gateway : ", gw);
  43:Source/tcp_client_dhcp.c **** }
  44:Source/tcp_client_dhcp.c **** 
  45:Source/tcp_client_dhcp.c **** void app_thread()
  46:Source/tcp_client_dhcp.c **** {
  28              		.loc 1 46 0
  29              		.cfi_startproc
  30              		@ args = 0, pretend = 0, frame = 1040
  31              		@ frame_needed = 0, uses_anonymous_args = 0
  32 0000 30B5     		push	{r4, r5, lr}
  33              		.cfi_def_cfa_offset 12
  34              		.cfi_offset 4, -12
  35              		.cfi_offset 5, -8
  36              		.cfi_offset 14, -4
  37 0002 294C     		ldr	r4, .L4
  38 0004 A544     		add	sp, sp, r4
  39              		.cfi_def_cfa_offset 1056
  40              	.LVL0:
  47:Source/tcp_client_dhcp.c ****     struct sockaddr_in address;
  48:Source/tcp_client_dhcp.c ****     int sock = 0, valread;
  49:Source/tcp_client_dhcp.c ****     struct sockaddr_in serv_addr;
  50:Source/tcp_client_dhcp.c ****     char *hello = "Hello from client";
  51:Source/tcp_client_dhcp.c ****     char buffer[1024] = {0};   
  41              		.loc 1 51 0
  42 0006 8022     		movs	r2, #128
  43 0008 D200     		lsls	r2, r2, #3
  44 000a 0021     		movs	r1, #0
  45 000c 6846     		mov	r0, sp
  46 000e FFF7FEFF 		bl	memset
  47              	.LVL1:
  52:Source/tcp_client_dhcp.c ****     
  53:Source/tcp_client_dhcp.c ****     if ((sock = socket(AF_INET, SOCK_STREAM, 0)) < 0)
  48              		.loc 1 53 0
  49 0012 0022     		movs	r2, #0
  50 0014 0121     		movs	r1, #1
  51 0016 0220     		movs	r0, #2
  52 0018 FFF7FEFF 		bl	lwip_socket
  53              	.LVL2:
  54 001c 051E     		subs	r5, r0, #0
  55              	.LVL3:
  56 001e 05DA     		bge	.L2
  54:Source/tcp_client_dhcp.c ****     {
  55:Source/tcp_client_dhcp.c ****         printf("\n Socket creation error \n");
  57              		.loc 1 55 0
  58 0020 2248     		ldr	r0, .L4+4
  59              	.LVL4:
ARM GAS  C:\Users\Phuong\AppData\Local\Temp\ccrk5OoE.s 			page 3


  60 0022 FFF7FEFF 		bl	puts
  61              	.LVL5:
  56:Source/tcp_client_dhcp.c ****         exit(2);
  62              		.loc 1 56 0
  63 0026 0220     		movs	r0, #2
  64 0028 FFF7FEFF 		bl	exit
  65              	.LVL6:
  66              	.L2:
  57:Source/tcp_client_dhcp.c ****     }
  58:Source/tcp_client_dhcp.c **** 
  59:Source/tcp_client_dhcp.c ****     memset(&serv_addr, '0', sizeof(serv_addr));
  67              		.loc 1 59 0
  68 002c FFAC     		add	r4, sp, #1020
  69 002e 0434     		adds	r4, r4, #4
  70 0030 1022     		movs	r2, #16
  71 0032 3021     		movs	r1, #48
  72 0034 2000     		movs	r0, r4
  73              	.LVL7:
  74 0036 FFF7FEFF 		bl	memset
  75              	.LVL8:
  60:Source/tcp_client_dhcp.c **** 
  61:Source/tcp_client_dhcp.c ****     serv_addr.sin_family = AF_INET;
  76              		.loc 1 61 0
  77 003a 0223     		movs	r3, #2
  78 003c 6370     		strb	r3, [r4, #1]
  62:Source/tcp_client_dhcp.c ****     serv_addr.sin_addr.s_addr = inet_addr(SERVER_IP_ADDRESS);
  79              		.loc 1 62 0
  80 003e 1C48     		ldr	r0, .L4+8
  81 0040 FFF7FEFF 		bl	ipaddr_addr
  82              	.LVL9:
  83 0044 6060     		str	r0, [r4, #4]
  63:Source/tcp_client_dhcp.c ****     serv_addr.sin_port = htons(SERVER_PORT_NUM);
  84              		.loc 1 63 0
  85 0046 1B48     		ldr	r0, .L4+12
  86 0048 FFF7FEFF 		bl	lwip_htons
  87              	.LVL10:
  88 004c 6080     		strh	r0, [r4, #2]
  64:Source/tcp_client_dhcp.c **** 
  65:Source/tcp_client_dhcp.c ****     if (connect(sock, (struct sockaddr *)&serv_addr, sizeof(serv_addr)) < 0)
  89              		.loc 1 65 0
  90 004e 1022     		movs	r2, #16
  91 0050 2100     		movs	r1, r4
  92 0052 2800     		movs	r0, r5
  93 0054 FFF7FEFF 		bl	lwip_connect
  94              	.LVL11:
  95 0058 0028     		cmp	r0, #0
  96 005a 05DA     		bge	.L3
  66:Source/tcp_client_dhcp.c ****     {
  67:Source/tcp_client_dhcp.c ****         printf("\n Connection Failed \n");
  97              		.loc 1 67 0
  98 005c 1648     		ldr	r0, .L4+16
  99 005e FFF7FEFF 		bl	puts
 100              	.LVL12:
  68:Source/tcp_client_dhcp.c ****         exit(2);
 101              		.loc 1 68 0
 102 0062 0220     		movs	r0, #2
 103 0064 FFF7FEFF 		bl	exit
ARM GAS  C:\Users\Phuong\AppData\Local\Temp\ccrk5OoE.s 			page 4


 104              	.LVL13:
 105              	.L3:
  69:Source/tcp_client_dhcp.c ****     }
  70:Source/tcp_client_dhcp.c ****     
  71:Source/tcp_client_dhcp.c ****     send(sock , hello , strlen(hello) , 0 );
 106              		.loc 1 71 0
 107 0068 0023     		movs	r3, #0
 108 006a 1122     		movs	r2, #17
 109 006c 1349     		ldr	r1, .L4+20
 110 006e 2800     		movs	r0, r5
 111 0070 FFF7FEFF 		bl	lwip_send
 112              	.LVL14:
  72:Source/tcp_client_dhcp.c ****     printf("Client: Hello message sent\r\n");
 113              		.loc 1 72 0
 114 0074 1248     		ldr	r0, .L4+24
 115 0076 FFF7FEFF 		bl	puts
 116              	.LVL15:
  73:Source/tcp_client_dhcp.c ****     
  74:Source/tcp_client_dhcp.c ****     memset(buffer, 0, 1024);
 117              		.loc 1 74 0
 118 007a 8024     		movs	r4, #128
 119 007c E400     		lsls	r4, r4, #3
 120 007e 2200     		movs	r2, r4
 121 0080 0021     		movs	r1, #0
 122 0082 6846     		mov	r0, sp
 123 0084 FFF7FEFF 		bl	memset
 124              	.LVL16:
  75:Source/tcp_client_dhcp.c ****     valread = recv( sock , buffer, 1024, 0);
 125              		.loc 1 75 0
 126 0088 0023     		movs	r3, #0
 127 008a 2200     		movs	r2, r4
 128 008c 6946     		mov	r1, sp
 129 008e 2800     		movs	r0, r5
 130 0090 FFF7FEFF 		bl	lwip_recv
 131              	.LVL17:
  76:Source/tcp_client_dhcp.c ****     printf("Client: %s\r\n",buffer ); 
 132              		.loc 1 76 0
 133 0094 6946     		mov	r1, sp
 134 0096 0B48     		ldr	r0, .L4+28
 135 0098 FFF7FEFF 		bl	printf
 136              	.LVL18:
  77:Source/tcp_client_dhcp.c ****     
  78:Source/tcp_client_dhcp.c ****     vTaskDelete(NULL);    
 137              		.loc 1 78 0
 138 009c 0020     		movs	r0, #0
 139 009e FFF7FEFF 		bl	vTaskDelete
 140              	.LVL19:
  79:Source/tcp_client_dhcp.c **** }
 141              		.loc 1 79 0
 142 00a2 094B     		ldr	r3, .L4+32
 143 00a4 9D44     		add	sp, sp, r3
 144              		@ sp needed
 145              	.LVL20:
 146 00a6 30BD     		pop	{r4, r5, pc}
 147              	.L5:
 148              		.align	2
 149              	.L4:
ARM GAS  C:\Users\Phuong\AppData\Local\Temp\ccrk5OoE.s 			page 5


 150 00a8 ECFBFFFF 		.word	-1044
 151 00ac 00000000 		.word	.LC1
 152 00b0 1C000000 		.word	.LC3
 153 00b4 27160000 		.word	5671
 154 00b8 28000000 		.word	.LC5
 155 00bc 40000000 		.word	.LC7
 156 00c0 54000000 		.word	.LC9
 157 00c4 70000000 		.word	.LC11
 158 00c8 14040000 		.word	1044
 159              		.cfi_endproc
 160              	.LFE468:
 161              		.size	app_thread, .-app_thread
 162              		.section	.text.network_thread,"ax",%progbits
 163              		.align	2
 164              		.global	network_thread
 165              		.code	16
 166              		.thumb_func
 167              		.type	network_thread, %function
 168              	network_thread:
 169              	.LFB469:
  80:Source/tcp_client_dhcp.c **** 
  81:Source/tcp_client_dhcp.c **** void network_thread()
  82:Source/tcp_client_dhcp.c **** {        
 170              		.loc 1 82 0
 171              		.cfi_startproc
 172              		@ args = 0, pretend = 0, frame = 16
 173              		@ frame_needed = 0, uses_anonymous_args = 0
 174 0000 10B5     		push	{r4, lr}
 175              		.cfi_def_cfa_offset 8
 176              		.cfi_offset 4, -8
 177              		.cfi_offset 14, -4
 178 0002 88B0     		sub	sp, sp, #32
 179              		.cfi_def_cfa_offset 40
 180              	.LVL21:
  83:Source/tcp_client_dhcp.c ****     struct netif *netif;
  84:Source/tcp_client_dhcp.c ****     /* the mac address of the board. this should be unique per board */
  85:Source/tcp_client_dhcp.c ****     unsigned char mac_ethernet_address[] = { 0x00, 0x0a, 0x35, 0x00, 0x01, 0x02 };
  86:Source/tcp_client_dhcp.c ****     ip_addr_t ipaddr, netmask, gw;
  87:Source/tcp_client_dhcp.c ****     
  88:Source/tcp_client_dhcp.c **** #if LWIP_DHCP==1
  89:Source/tcp_client_dhcp.c ****     int mscnt = 0;
  90:Source/tcp_client_dhcp.c **** #endif
  91:Source/tcp_client_dhcp.c **** 
  92:Source/tcp_client_dhcp.c ****     netif = &slipif;
  93:Source/tcp_client_dhcp.c **** 
  94:Source/tcp_client_dhcp.c **** #if LWIP_DHCP==0
  95:Source/tcp_client_dhcp.c ****     /* initliaze IP addresses to be used */
  96:Source/tcp_client_dhcp.c ****     IP4_ADDR(&ipaddr,  192, 168, 1, 250);
  97:Source/tcp_client_dhcp.c ****     IP4_ADDR(&netmask, 255, 255, 255,  0);
  98:Source/tcp_client_dhcp.c ****     IP4_ADDR(&gw,      192, 168, 1, 1);
  99:Source/tcp_client_dhcp.c **** #endif
 100:Source/tcp_client_dhcp.c **** 
 101:Source/tcp_client_dhcp.c ****     /* print out IP settings of the board */
 102:Source/tcp_client_dhcp.c **** 
 103:Source/tcp_client_dhcp.c **** #if LWIP_DHCP==0
 104:Source/tcp_client_dhcp.c ****     print_ip_settings(&ipaddr, &netmask, &gw);
 105:Source/tcp_client_dhcp.c **** #endif
ARM GAS  C:\Users\Phuong\AppData\Local\Temp\ccrk5OoE.s 			page 6


 106:Source/tcp_client_dhcp.c **** 
 107:Source/tcp_client_dhcp.c **** #if LWIP_DHCP==1
 108:Source/tcp_client_dhcp.c **** 	ipaddr.addr = 0;
 181              		.loc 1 108 0
 182 0004 0023     		movs	r3, #0
 183 0006 0793     		str	r3, [sp, #28]
 109:Source/tcp_client_dhcp.c **** 	gw.addr = 0;
 184              		.loc 1 109 0
 185 0008 0593     		str	r3, [sp, #20]
 110:Source/tcp_client_dhcp.c **** 	netmask.addr = 0;
 186              		.loc 1 110 0
 187 000a 0693     		str	r3, [sp, #24]
 111:Source/tcp_client_dhcp.c **** #endif
 112:Source/tcp_client_dhcp.c **** 
 113:Source/tcp_client_dhcp.c ****     /* Add network interface to the netif_list, and set it as default */
 114:Source/tcp_client_dhcp.c ****     
 115:Source/tcp_client_dhcp.c ****     netif_add(netif, &ipaddr, &netmask, &gw, &num_slip, slipif_init, ip_input);
 188              		.loc 1 115 0
 189 000c 134C     		ldr	r4, .L9
 190 000e 144B     		ldr	r3, .L9+4
 191 0010 0293     		str	r3, [sp, #8]
 192 0012 144B     		ldr	r3, .L9+8
 193 0014 0193     		str	r3, [sp, #4]
 194 0016 144B     		ldr	r3, .L9+12
 195 0018 0093     		str	r3, [sp]
 196 001a 05AB     		add	r3, sp, #20
 197 001c 06AA     		add	r2, sp, #24
 198 001e 07A9     		add	r1, sp, #28
 199 0020 2000     		movs	r0, r4
 200 0022 FFF7FEFF 		bl	netif_add
 201              	.LVL22:
 116:Source/tcp_client_dhcp.c ****         
 117:Source/tcp_client_dhcp.c ****     netif_set_default(netif);
 202              		.loc 1 117 0
 203 0026 2000     		movs	r0, r4
 204 0028 FFF7FEFF 		bl	netif_set_default
 205              	.LVL23:
 118:Source/tcp_client_dhcp.c **** 
 119:Source/tcp_client_dhcp.c ****     /* specify that the network if is up */
 120:Source/tcp_client_dhcp.c ****     netif_set_up(netif);
 206              		.loc 1 120 0
 207 002c 2000     		movs	r0, r4
 208 002e FFF7FEFF 		bl	netif_set_up
 209              	.LVL24:
 121:Source/tcp_client_dhcp.c ****     
 122:Source/tcp_client_dhcp.c ****     netif_set_link_up(&slipif);
 210              		.loc 1 122 0
 211 0032 2000     		movs	r0, r4
 212 0034 FFF7FEFF 		bl	netif_set_link_up
 213              	.LVL25:
 123:Source/tcp_client_dhcp.c **** 
 124:Source/tcp_client_dhcp.c **** #if LWIP_DHCP==1
 125:Source/tcp_client_dhcp.c ****     dhcp_start(netif);
 214              		.loc 1 125 0
 215 0038 2000     		movs	r0, r4
 216 003a FFF7FEFF 		bl	dhcp_start
 217              	.LVL26:
ARM GAS  C:\Users\Phuong\AppData\Local\Temp\ccrk5OoE.s 			page 7


 218              	.L8:
  82:Source/tcp_client_dhcp.c ****     struct netif *netif;
 219              		.loc 1 82 0
 220 003e 0024     		movs	r4, #0
 221              	.LVL27:
 222              	.L7:
 126:Source/tcp_client_dhcp.c ****     while (1) {
 127:Source/tcp_client_dhcp.c **** 		vTaskDelay(DHCP_FINE_TIMER_MSECS / configTICK_PERIOD_MS);
 223              		.loc 1 127 0
 224 0040 FA20     		movs	r0, #250
 225 0042 4000     		lsls	r0, r0, #1
 226 0044 FFF7FEFF 		bl	vTaskDelay
 227              	.LVL28:
 128:Source/tcp_client_dhcp.c **** 		dhcp_fine_tmr();
 228              		.loc 1 128 0
 229 0048 FFF7FEFF 		bl	dhcp_fine_tmr
 230              	.LVL29:
 129:Source/tcp_client_dhcp.c **** 		mscnt += DHCP_FINE_TIMER_MSECS;
 231              		.loc 1 129 0
 232 004c F534     		adds	r4, r4, #245
 233              	.LVL30:
 234 004e FF34     		adds	r4, r4, #255
 235              	.LVL31:
 130:Source/tcp_client_dhcp.c **** 		if (mscnt >= DHCP_COARSE_TIMER_SECS*1000) {
 236              		.loc 1 130 0
 237 0050 064B     		ldr	r3, .L9+16
 238 0052 9C42     		cmp	r4, r3
 239 0054 F4DD     		ble	.L7
 131:Source/tcp_client_dhcp.c **** 			dhcp_coarse_tmr();
 240              		.loc 1 131 0
 241 0056 FFF7FEFF 		bl	dhcp_coarse_tmr
 242              	.LVL32:
 243 005a F0E7     		b	.L8
 244              	.L10:
 245              		.align	2
 246              	.L9:
 247 005c 00000000 		.word	slipif
 248 0060 00000000 		.word	ip4_input
 249 0064 00000000 		.word	slipif_init
 250 0068 00000000 		.word	.LANCHOR0
 251 006c 5FEA0000 		.word	59999
 252              		.cfi_endproc
 253              	.LFE469:
 254              		.size	network_thread, .-network_thread
 255              		.section	.text.print_ip,"ax",%progbits
 256              		.align	2
 257              		.global	print_ip
 258              		.code	16
 259              		.thumb_func
 260              		.type	print_ip, %function
 261              	print_ip:
 262              	.LFB466:
  32:Source/tcp_client_dhcp.c **** 	printf("%s", msg);
 263              		.loc 1 32 0
 264              		.cfi_startproc
 265              		@ args = 0, pretend = 0, frame = 0
 266              		@ frame_needed = 0, uses_anonymous_args = 0
ARM GAS  C:\Users\Phuong\AppData\Local\Temp\ccrk5OoE.s 			page 8


 267              	.LVL33:
 268 0000 10B5     		push	{r4, lr}
 269              		.cfi_def_cfa_offset 8
 270              		.cfi_offset 4, -8
 271              		.cfi_offset 14, -4
 272 0002 82B0     		sub	sp, sp, #8
 273              		.cfi_def_cfa_offset 16
 274 0004 0C00     		movs	r4, r1
  33:Source/tcp_client_dhcp.c **** 	printf("%d.%d.%d.%d\n\r", ip4_addr1(ip), ip4_addr2(ip),
 275              		.loc 1 33 0
 276 0006 0100     		movs	r1, r0
 277              	.LVL34:
 278 0008 0648     		ldr	r0, .L12
 279              	.LVL35:
 280 000a FFF7FEFF 		bl	printf
 281              	.LVL36:
  34:Source/tcp_client_dhcp.c **** 			ip4_addr3(ip), ip4_addr4(ip));
 282              		.loc 1 34 0
 283 000e 2178     		ldrb	r1, [r4]
 284 0010 6278     		ldrb	r2, [r4, #1]
  35:Source/tcp_client_dhcp.c **** }
 285              		.loc 1 35 0
 286 0012 A378     		ldrb	r3, [r4, #2]
 287 0014 E078     		ldrb	r0, [r4, #3]
  34:Source/tcp_client_dhcp.c **** 			ip4_addr3(ip), ip4_addr4(ip));
 288              		.loc 1 34 0
 289 0016 0090     		str	r0, [sp]
 290 0018 0348     		ldr	r0, .L12+4
 291 001a FFF7FEFF 		bl	printf
 292              	.LVL37:
  36:Source/tcp_client_dhcp.c **** 
 293              		.loc 1 36 0
 294 001e 02B0     		add	sp, sp, #8
 295              		@ sp needed
 296              	.LVL38:
 297 0020 10BD     		pop	{r4, pc}
 298              	.L13:
 299 0022 C046     		.align	2
 300              	.L12:
 301 0024 80000000 		.word	.LC17
 302 0028 84000000 		.word	.LC19
 303              		.cfi_endproc
 304              	.LFE466:
 305              		.size	print_ip, .-print_ip
 306              		.section	.text.print_ip_settings,"ax",%progbits
 307              		.align	2
 308              		.global	print_ip_settings
 309              		.code	16
 310              		.thumb_func
 311              		.type	print_ip_settings, %function
 312              	print_ip_settings:
 313              	.LFB467:
  39:Source/tcp_client_dhcp.c **** 	print_ip("Board IP: ", ip);
 314              		.loc 1 39 0
 315              		.cfi_startproc
 316              		@ args = 0, pretend = 0, frame = 0
 317              		@ frame_needed = 0, uses_anonymous_args = 0
ARM GAS  C:\Users\Phuong\AppData\Local\Temp\ccrk5OoE.s 			page 9


 318              	.LVL39:
 319 0000 70B5     		push	{r4, r5, r6, lr}
 320              		.cfi_def_cfa_offset 16
 321              		.cfi_offset 4, -16
 322              		.cfi_offset 5, -12
 323              		.cfi_offset 6, -8
 324              		.cfi_offset 14, -4
 325 0002 0D00     		movs	r5, r1
 326 0004 1400     		movs	r4, r2
  40:Source/tcp_client_dhcp.c **** 	print_ip("Netmask : ", mask);
 327              		.loc 1 40 0
 328 0006 0100     		movs	r1, r0
 329              	.LVL40:
 330 0008 0548     		ldr	r0, .L15
 331              	.LVL41:
 332 000a FFF7FEFF 		bl	print_ip
 333              	.LVL42:
  41:Source/tcp_client_dhcp.c **** 	print_ip("Gateway : ", gw);
 334              		.loc 1 41 0
 335 000e 2900     		movs	r1, r5
 336 0010 0448     		ldr	r0, .L15+4
 337 0012 FFF7FEFF 		bl	print_ip
 338              	.LVL43:
  42:Source/tcp_client_dhcp.c **** }
 339              		.loc 1 42 0
 340 0016 2100     		movs	r1, r4
 341 0018 0348     		ldr	r0, .L15+8
 342 001a FFF7FEFF 		bl	print_ip
 343              	.LVL44:
  43:Source/tcp_client_dhcp.c **** 
 344              		.loc 1 43 0
 345              		@ sp needed
 346              	.LVL45:
 347              	.LVL46:
 348 001e 70BD     		pop	{r4, r5, r6, pc}
 349              	.L16:
 350              		.align	2
 351              	.L15:
 352 0020 94000000 		.word	.LC21
 353 0024 A0000000 		.word	.LC23
 354 0028 AC000000 		.word	.LC25
 355              		.cfi_endproc
 356              	.LFE467:
 357              		.size	print_ip_settings, .-print_ip_settings
 358              		.section	.text.main_thread,"ax",%progbits
 359              		.align	2
 360              		.global	main_thread
 361              		.code	16
 362              		.thumb_func
 363              		.type	main_thread, %function
 364              	main_thread:
 365              	.LFB470:
 132:Source/tcp_client_dhcp.c **** 			mscnt = 0;
 133:Source/tcp_client_dhcp.c **** 		}
 134:Source/tcp_client_dhcp.c **** 	}
 135:Source/tcp_client_dhcp.c **** #else
 136:Source/tcp_client_dhcp.c ****     sys_thread_new("application thread", app_thread, 0, 2048, 1);
ARM GAS  C:\Users\Phuong\AppData\Local\Temp\ccrk5OoE.s 			page 10


 137:Source/tcp_client_dhcp.c ****     vTaskDelete(NULL);
 138:Source/tcp_client_dhcp.c **** #endif
 139:Source/tcp_client_dhcp.c ****     return;
 140:Source/tcp_client_dhcp.c **** }
 141:Source/tcp_client_dhcp.c **** 
 142:Source/tcp_client_dhcp.c **** int main_thread()
 143:Source/tcp_client_dhcp.c **** {
 366              		.loc 1 143 0
 367              		.cfi_startproc
 368              		@ args = 0, pretend = 0, frame = 0
 369              		@ frame_needed = 0, uses_anonymous_args = 0
 370 0000 10B5     		push	{r4, lr}
 371              		.cfi_def_cfa_offset 8
 372              		.cfi_offset 4, -8
 373              		.cfi_offset 14, -4
 374 0002 82B0     		sub	sp, sp, #8
 375              		.cfi_def_cfa_offset 16
 376              	.LVL47:
 144:Source/tcp_client_dhcp.c **** #if LWIP_DHCP==1
 145:Source/tcp_client_dhcp.c ****     int mscnt = 0;
 146:Source/tcp_client_dhcp.c **** #endif    
 147:Source/tcp_client_dhcp.c ****     tcpip_init(NULL, NULL);
 377              		.loc 1 147 0
 378 0004 0021     		movs	r1, #0
 379 0006 0020     		movs	r0, #0
 380 0008 FFF7FEFF 		bl	tcpip_init
 381              	.LVL48:
 148:Source/tcp_client_dhcp.c ****     sys_thread_new("network thread", network_thread, 0 , 2048, 1); 
 382              		.loc 1 148 0
 383 000c 0123     		movs	r3, #1
 384 000e 0093     		str	r3, [sp]
 385 0010 8023     		movs	r3, #128
 386 0012 1B01     		lsls	r3, r3, #4
 387 0014 0022     		movs	r2, #0
 388 0016 2449     		ldr	r1, .L21
 389 0018 2448     		ldr	r0, .L21+4
 390 001a FFF7FEFF 		bl	sys_thread_new
 391              	.LVL49:
 145:Source/tcp_client_dhcp.c **** #endif    
 392              		.loc 1 145 0
 393 001e 0024     		movs	r4, #0
 394              	.LVL50:
 395              	.L20:
 149:Source/tcp_client_dhcp.c **** 
 150:Source/tcp_client_dhcp.c **** #if LWIP_DHCP==1
 151:Source/tcp_client_dhcp.c ****     while (1) {
 152:Source/tcp_client_dhcp.c **** 	vTaskDelay(DHCP_FINE_TIMER_MSECS / configTICK_PERIOD_MS);
 396              		.loc 1 152 0
 397 0020 FA20     		movs	r0, #250
 398 0022 4000     		lsls	r0, r0, #1
 399 0024 FFF7FEFF 		bl	vTaskDelay
 400              	.LVL51:
 153:Source/tcp_client_dhcp.c **** 		if (slipif.ip_addr.addr) {
 401              		.loc 1 153 0
 402 0028 214B     		ldr	r3, .L21+8
 403 002a 5B68     		ldr	r3, [r3, #4]
 404 002c 002B     		cmp	r3, #0
ARM GAS  C:\Users\Phuong\AppData\Local\Temp\ccrk5OoE.s 			page 11


 405 002e 12D0     		beq	.L18
 154:Source/tcp_client_dhcp.c **** 			printf("DHCP request success\r\n");
 406              		.loc 1 154 0
 407 0030 2048     		ldr	r0, .L21+12
 408 0032 FFF7FEFF 		bl	puts
 409              	.LVL52:
 155:Source/tcp_client_dhcp.c **** 			print_ip_settings(&(slipif.ip_addr), &(slipif.netmask), &(slipif.gw));
 410              		.loc 1 155 0
 411 0036 204A     		ldr	r2, .L21+16
 412 0038 111F     		subs	r1, r2, #4
 413 003a 1000     		movs	r0, r2
 414 003c 0838     		subs	r0, r0, #8
 415 003e FFF7FEFF 		bl	print_ip_settings
 416              	.LVL53:
 156:Source/tcp_client_dhcp.c ****             
 157:Source/tcp_client_dhcp.c **** 			sys_thread_new("application thread", app_thread, 0, 2048, 1);
 417              		.loc 1 157 0
 418 0042 0123     		movs	r3, #1
 419 0044 0093     		str	r3, [sp]
 420 0046 8023     		movs	r3, #128
 421 0048 1B01     		lsls	r3, r3, #4
 422 004a 0022     		movs	r2, #0
 423 004c 1B49     		ldr	r1, .L21+20
 424 004e 1C48     		ldr	r0, .L21+24
 425 0050 FFF7FEFF 		bl	sys_thread_new
 426              	.LVL54:
 158:Source/tcp_client_dhcp.c **** 			break;
 427              		.loc 1 158 0
 428 0054 21E0     		b	.L19
 429              	.L18:
 159:Source/tcp_client_dhcp.c **** 		}
 160:Source/tcp_client_dhcp.c **** 		mscnt += DHCP_FINE_TIMER_MSECS;
 430              		.loc 1 160 0
 431 0056 F534     		adds	r4, r4, #245
 432              	.LVL55:
 433 0058 FF34     		adds	r4, r4, #255
 434              	.LVL56:
 161:Source/tcp_client_dhcp.c **** 		if (mscnt >= 10000) {
 435              		.loc 1 161 0
 436 005a 1A4B     		ldr	r3, .L21+28
 437 005c 9C42     		cmp	r4, r3
 438 005e DFDD     		ble	.L20
 162:Source/tcp_client_dhcp.c **** 			printf("ERROR: DHCP request timed out\r\n");
 439              		.loc 1 162 0
 440 0060 1948     		ldr	r0, .L21+32
 441 0062 FFF7FEFF 		bl	puts
 442              	.LVL57:
 163:Source/tcp_client_dhcp.c **** 			printf("Configuring default IP of 192.168.1.10\r\n");
 443              		.loc 1 163 0
 444 0066 1948     		ldr	r0, .L21+36
 445 0068 FFF7FEFF 		bl	puts
 446              	.LVL58:
 164:Source/tcp_client_dhcp.c **** 			IP4_ADDR(&(slipif.ip_addr),  192, 168, 1, 250);
 447              		.loc 1 164 0
 448 006c 1048     		ldr	r0, .L21+8
 449 006e 184B     		ldr	r3, .L21+40
 450 0070 4360     		str	r3, [r0, #4]
ARM GAS  C:\Users\Phuong\AppData\Local\Temp\ccrk5OoE.s 			page 12


 165:Source/tcp_client_dhcp.c **** 			IP4_ADDR(&(slipif.netmask), 255, 255, 255,  0);
 451              		.loc 1 165 0
 452 0072 184B     		ldr	r3, .L21+44
 453 0074 8360     		str	r3, [r0, #8]
 166:Source/tcp_client_dhcp.c **** 			IP4_ADDR(&(slipif.gw),  192, 168, 1, 1);
 454              		.loc 1 166 0
 455 0076 184B     		ldr	r3, .L21+48
 456 0078 C360     		str	r3, [r0, #12]
 167:Source/tcp_client_dhcp.c **** 			print_ip_settings(&(slipif.ip_addr), &(slipif.netmask), &(slipif.gw));
 457              		.loc 1 167 0
 458 007a 0200     		movs	r2, r0
 459 007c 0C32     		adds	r2, r2, #12
 460 007e 0100     		movs	r1, r0
 461 0080 0831     		adds	r1, r1, #8
 462 0082 0430     		adds	r0, r0, #4
 463 0084 FFF7FEFF 		bl	print_ip_settings
 464              	.LVL59:
 168:Source/tcp_client_dhcp.c **** 
 169:Source/tcp_client_dhcp.c **** 			sys_thread_new("application thread", app_thread, 0, 2048, 1);
 465              		.loc 1 169 0
 466 0088 0123     		movs	r3, #1
 467 008a 0093     		str	r3, [sp]
 468 008c 8023     		movs	r3, #128
 469 008e 1B01     		lsls	r3, r3, #4
 470 0090 0022     		movs	r2, #0
 471 0092 0A49     		ldr	r1, .L21+20
 472 0094 0A48     		ldr	r0, .L21+24
 473 0096 FFF7FEFF 		bl	sys_thread_new
 474              	.LVL60:
 475              	.L19:
 170:Source/tcp_client_dhcp.c **** 			break;
 171:Source/tcp_client_dhcp.c **** 		}
 172:Source/tcp_client_dhcp.c **** 	}
 173:Source/tcp_client_dhcp.c **** #endif
 174:Source/tcp_client_dhcp.c ****     vTaskDelete(NULL);   
 476              		.loc 1 174 0
 477 009a 0020     		movs	r0, #0
 478 009c FFF7FEFF 		bl	vTaskDelete
 479              	.LVL61:
 175:Source/tcp_client_dhcp.c ****     return 0;
 176:Source/tcp_client_dhcp.c **** }
 480              		.loc 1 176 0
 481 00a0 0020     		movs	r0, #0
 482 00a2 02B0     		add	sp, sp, #8
 483              		@ sp needed
 484              	.LVL62:
 485 00a4 10BD     		pop	{r4, pc}
 486              	.L22:
 487 00a6 C046     		.align	2
 488              	.L21:
 489 00a8 00000000 		.word	network_thread
 490 00ac B8000000 		.word	.LC28
 491 00b0 00000000 		.word	slipif
 492 00b4 C8000000 		.word	.LC31
 493 00b8 0C000000 		.word	slipif+12
 494 00bc 00000000 		.word	app_thread
 495 00c0 E0000000 		.word	.LC37
ARM GAS  C:\Users\Phuong\AppData\Local\Temp\ccrk5OoE.s 			page 13


 496 00c4 0F270000 		.word	9999
 497 00c8 F4000000 		.word	.LC39
 498 00cc 14010000 		.word	.LC41
 499 00d0 C0A801FA 		.word	-100554560
 500 00d4 FFFFFF00 		.word	16777215
 501 00d8 C0A80101 		.word	16885952
 502              		.cfi_endproc
 503              	.LFE470:
 504              		.size	main_thread, .-main_thread
 505              		.comm	memfreeStack,4,4
 506              		.comm	memfreeHeap,4,4
 507              		.comm	slipif,72,4
 508              		.global	num_slip
 509              		.comm	gw_slip,4,4
 510              		.comm	netmask_slip,4,4
 511              		.comm	ipaddr_slip,4,4
 512              		.section	.rodata.str1.4,"aMS",%progbits,1
 513              		.align	2
 514              	.LC1:
 515 0000 0A20536F 		.ascii	"\012 Socket creation error \000"
 515      636B6574 
 515      20637265 
 515      6174696F 
 515      6E206572 
 516 0019 000000   		.space	3
 517              	.LC3:
 518 001c 3139322E 		.ascii	"192.168.2.1\000"
 518      3136382E 
 518      322E3100 
 519              	.LC5:
 520 0028 0A20436F 		.ascii	"\012 Connection Failed \000"
 520      6E6E6563 
 520      74696F6E 
 520      20466169 
 520      6C656420 
 521 003d 000000   		.space	3
 522              	.LC7:
 523 0040 48656C6C 		.ascii	"Hello from client\000"
 523      6F206672 
 523      6F6D2063 
 523      6C69656E 
 523      7400
 524 0052 0000     		.space	2
 525              	.LC9:
 526 0054 436C6965 		.ascii	"Client: Hello message sent\015\000"
 526      6E743A20 
 526      48656C6C 
 526      6F206D65 
 526      73736167 
 527              	.LC11:
 528 0070 436C6965 		.ascii	"Client: %s\015\012\000"
 528      6E743A20 
 528      25730D0A 
 528      00
 529 007d 000000   		.space	3
 530              	.LC17:
 531 0080 257300   		.ascii	"%s\000"
ARM GAS  C:\Users\Phuong\AppData\Local\Temp\ccrk5OoE.s 			page 14


 532 0083 00       		.space	1
 533              	.LC19:
 534 0084 25642E25 		.ascii	"%d.%d.%d.%d\012\015\000"
 534      642E2564 
 534      2E25640A 
 534      0D00
 535 0092 0000     		.space	2
 536              	.LC21:
 537 0094 426F6172 		.ascii	"Board IP: \000"
 537      64204950 
 537      3A2000
 538 009f 00       		.space	1
 539              	.LC23:
 540 00a0 4E65746D 		.ascii	"Netmask : \000"
 540      61736B20 
 540      3A2000
 541 00ab 00       		.space	1
 542              	.LC25:
 543 00ac 47617465 		.ascii	"Gateway : \000"
 543      77617920 
 543      3A2000
 544 00b7 00       		.space	1
 545              	.LC28:
 546 00b8 6E657477 		.ascii	"network thread\000"
 546      6F726B20 
 546      74687265 
 546      616400
 547 00c7 00       		.space	1
 548              	.LC31:
 549 00c8 44484350 		.ascii	"DHCP request success\015\000"
 549      20726571 
 549      75657374 
 549      20737563 
 549      63657373 
 550 00de 0000     		.space	2
 551              	.LC37:
 552 00e0 6170706C 		.ascii	"application thread\000"
 552      69636174 
 552      696F6E20 
 552      74687265 
 552      616400
 553 00f3 00       		.space	1
 554              	.LC39:
 555 00f4 4552524F 		.ascii	"ERROR: DHCP request timed out\015\000"
 555      523A2044 
 555      48435020 
 555      72657175 
 555      65737420 
 556 0113 00       		.space	1
 557              	.LC41:
 558 0114 436F6E66 		.ascii	"Configuring default IP of 192.168.1.10\015\000"
 558      69677572 
 558      696E6720 
 558      64656661 
 558      756C7420 
 559              		.bss
 560              		.set	.LANCHOR0,. + 0
ARM GAS  C:\Users\Phuong\AppData\Local\Temp\ccrk5OoE.s 			page 15


 561              		.type	num_slip, %object
 562              		.size	num_slip, 1
 563              	num_slip:
 564 0000 00       		.space	1
 565              		.text
 566              	.Letext0:
 567              		.file 2 "c:\\program files (x86)\\cypress\\psoc creator\\4.2\\psoc creator\\import\\gnu\\arm\\5.4.
 568              		.file 3 "c:\\program files (x86)\\cypress\\psoc creator\\4.2\\psoc creator\\import\\gnu\\arm\\5.4.
 569              		.file 4 "c:\\program files (x86)\\cypress\\psoc creator\\4.2\\psoc creator\\import\\gnu\\arm\\5.4.
 570              		.file 5 ".\\Source\\FreeRTOS\\10.0.1\\Source\\portable\\GCC\\CM0/portmacro.h"
 571              		.file 6 ".\\Source\\LwIP\\src\\include/arch/cc.h"
 572              		.file 7 ".\\Source\\LwIP\\src\\include/lwip/ip4_addr.h"
 573              		.file 8 ".\\Source\\LwIP\\src\\include/lwip/ip_addr.h"
 574              		.file 9 ".\\Source\\LwIP\\src\\include/lwip/err.h"
 575              		.file 10 ".\\Source\\LwIP\\src\\include/lwip/inet.h"
 576              		.file 11 ".\\Source\\LwIP\\src\\include/lwip/sockets.h"
 577              		.file 12 "Generated_Source\\PSoC6\\pdl\\drivers/peripheral/scb/cy_scb_i2c.h"
 578              		.file 13 "Generated_Source\\PSoC6\\pdl\\drivers/peripheral/scb/cy_scb_uart.h"
 579              		.file 14 ".\\Source\\LwIP\\src\\include/lwip/pbuf.h"
 580              		.file 15 ".\\Source\\LwIP\\src\\include/lwip/memp.h"
 581              		.file 16 ".\\Source\\LwIP\\src\\include/lwip/netif.h"
 582              		.file 17 "Generated_Source\\PSoC6/UART_1.h"
 583              		.file 18 "Generated_Source\\PSoC6/I2C.h"
 584              		.file 19 "Generated_Source\\PSoC6/UART_2.h"
 585              		.file 20 "c:\\program files (x86)\\cypress\\psoc creator\\4.2\\psoc creator\\import\\gnu\\arm\\5.4
 586              		.file 21 "c:\\program files (x86)\\cypress\\psoc creator\\4.2\\psoc creator\\import\\gnu\\arm\\5.4
 587              		.file 22 ".\\Source\\LwIP\\src\\include/lwip/def.h"
 588              		.file 23 "c:\\program files (x86)\\cypress\\psoc creator\\4.2\\psoc creator\\import\\gnu\\arm\\5.4
 589              		.file 24 ".\\Source\\FreeRTOS\\10.0.1\\Source\\include/task.h"
 590              		.file 25 ".\\Source\\LwIP\\src\\include/lwip/dhcp.h"
 591              		.file 26 ".\\Source\\LwIP\\src\\include/lwip/tcpip.h"
 592              		.file 27 ".\\Source\\LwIP\\src\\include/lwip/sys.h"
 593              		.file 28 "<built-in>"