ARM GAS  C:\Users\Phuong\AppData\Local\Temp\cc3aKFPW.s 			page 1


   1              		.syntax unified
   2              		.cpu cortex-m0plus
   3              		.fpu softvfp
   4              		.eabi_attribute 20, 1
   5              		.eabi_attribute 21, 1
   6              		.eabi_attribute 23, 3
   7              		.eabi_attribute 24, 1
   8              		.eabi_attribute 25, 1
   9              		.eabi_attribute 26, 1
  10              		.eabi_attribute 30, 1
  11              		.eabi_attribute 34, 0
  12              		.eabi_attribute 18, 4
  13              		.thumb
  14              		.syntax unified
  15              		.file	"tcpip.c"
  16              		.text
  17              	.Ltext0:
  18              		.cfi_sections	.debug_frame
  19              		.section	.text.tcpip_thread,"ax",%progbits
  20              		.align	2
  21              		.code	16
  22              		.thumb_func
  23              		.type	tcpip_thread, %function
  24              	tcpip_thread:
  25              	.LFB53:
  26              		.file 1 "Source\\LwIP\\src\\api\\tcpip.c"
   1:Source\LwIP\src\api/tcpip.c **** /**
   2:Source\LwIP\src\api/tcpip.c ****  * @file
   3:Source\LwIP\src\api/tcpip.c ****  * Sequential API Main thread module
   4:Source\LwIP\src\api/tcpip.c ****  *
   5:Source\LwIP\src\api/tcpip.c ****  */
   6:Source\LwIP\src\api/tcpip.c **** 
   7:Source\LwIP\src\api/tcpip.c **** /*
   8:Source\LwIP\src\api/tcpip.c ****  * Copyright (c) 2001-2004 Swedish Institute of Computer Science.
   9:Source\LwIP\src\api/tcpip.c ****  * All rights reserved.
  10:Source\LwIP\src\api/tcpip.c ****  *
  11:Source\LwIP\src\api/tcpip.c ****  * Redistribution and use in source and binary forms, with or without modification,
  12:Source\LwIP\src\api/tcpip.c ****  * are permitted provided that the following conditions are met:
  13:Source\LwIP\src\api/tcpip.c ****  *
  14:Source\LwIP\src\api/tcpip.c ****  * 1. Redistributions of source code must retain the above copyright notice,
  15:Source\LwIP\src\api/tcpip.c ****  *    this list of conditions and the following disclaimer.
  16:Source\LwIP\src\api/tcpip.c ****  * 2. Redistributions in binary form must reproduce the above copyright notice,
  17:Source\LwIP\src\api/tcpip.c ****  *    this list of conditions and the following disclaimer in the documentation
  18:Source\LwIP\src\api/tcpip.c ****  *    and/or other materials provided with the distribution.
  19:Source\LwIP\src\api/tcpip.c ****  * 3. The name of the author may not be used to endorse or promote products
  20:Source\LwIP\src\api/tcpip.c ****  *    derived from this software without specific prior written permission.
  21:Source\LwIP\src\api/tcpip.c ****  *
  22:Source\LwIP\src\api/tcpip.c ****  * THIS SOFTWARE IS PROVIDED BY THE AUTHOR ``AS IS'' AND ANY EXPRESS OR IMPLIED
  23:Source\LwIP\src\api/tcpip.c ****  * WARRANTIES, INCLUDING, BUT NOT LIMITED TO, THE IMPLIED WARRANTIES OF
  24:Source\LwIP\src\api/tcpip.c ****  * MERCHANTABILITY AND FITNESS FOR A PARTICULAR PURPOSE ARE DISCLAIMED. IN NO EVENT
  25:Source\LwIP\src\api/tcpip.c ****  * SHALL THE AUTHOR BE LIABLE FOR ANY DIRECT, INDIRECT, INCIDENTAL, SPECIAL,
  26:Source\LwIP\src\api/tcpip.c ****  * EXEMPLARY, OR CONSEQUENTIAL DAMAGES (INCLUDING, BUT NOT LIMITED TO, PROCUREMENT
  27:Source\LwIP\src\api/tcpip.c ****  * OF SUBSTITUTE GOODS OR SERVICES; LOSS OF USE, DATA, OR PROFITS; OR BUSINESS
  28:Source\LwIP\src\api/tcpip.c ****  * INTERRUPTION) HOWEVER CAUSED AND ON ANY THEORY OF LIABILITY, WHETHER IN
  29:Source\LwIP\src\api/tcpip.c ****  * CONTRACT, STRICT LIABILITY, OR TORT (INCLUDING NEGLIGENCE OR OTHERWISE) ARISING
  30:Source\LwIP\src\api/tcpip.c ****  * IN ANY WAY OUT OF THE USE OF THIS SOFTWARE, EVEN IF ADVISED OF THE POSSIBILITY
  31:Source\LwIP\src\api/tcpip.c ****  * OF SUCH DAMAGE.
ARM GAS  C:\Users\Phuong\AppData\Local\Temp\cc3aKFPW.s 			page 2


  32:Source\LwIP\src\api/tcpip.c ****  *
  33:Source\LwIP\src\api/tcpip.c ****  * This file is part of the lwIP TCP/IP stack.
  34:Source\LwIP\src\api/tcpip.c ****  *
  35:Source\LwIP\src\api/tcpip.c ****  * Author: Adam Dunkels <adam@sics.se>
  36:Source\LwIP\src\api/tcpip.c ****  *
  37:Source\LwIP\src\api/tcpip.c ****  */
  38:Source\LwIP\src\api/tcpip.c **** 
  39:Source\LwIP\src\api/tcpip.c **** #include "lwip/opt.h"
  40:Source\LwIP\src\api/tcpip.c **** 
  41:Source\LwIP\src\api/tcpip.c **** #if !NO_SYS /* don't build if not configured for use in lwipopts.h */
  42:Source\LwIP\src\api/tcpip.c **** 
  43:Source\LwIP\src\api/tcpip.c **** #include "lwip/priv/tcpip_priv.h"
  44:Source\LwIP\src\api/tcpip.c **** #include "lwip/sys.h"
  45:Source\LwIP\src\api/tcpip.c **** #include "lwip/memp.h"
  46:Source\LwIP\src\api/tcpip.c **** #include "lwip/mem.h"
  47:Source\LwIP\src\api/tcpip.c **** #include "lwip/init.h"
  48:Source\LwIP\src\api/tcpip.c **** #include "lwip/ip.h"
  49:Source\LwIP\src\api/tcpip.c **** #include "lwip/pbuf.h"
  50:Source\LwIP\src\api/tcpip.c **** #include "lwip/etharp.h"
  51:Source\LwIP\src\api/tcpip.c **** #include "netif/ethernet.h"
  52:Source\LwIP\src\api/tcpip.c **** 
  53:Source\LwIP\src\api/tcpip.c **** #define TCPIP_MSG_VAR_REF(name)     API_VAR_REF(name)
  54:Source\LwIP\src\api/tcpip.c **** #define TCPIP_MSG_VAR_DECLARE(name) API_VAR_DECLARE(struct tcpip_msg, name)
  55:Source\LwIP\src\api/tcpip.c **** #define TCPIP_MSG_VAR_ALLOC(name)   API_VAR_ALLOC(struct tcpip_msg, MEMP_TCPIP_MSG_API, name, ERR_M
  56:Source\LwIP\src\api/tcpip.c **** #define TCPIP_MSG_VAR_FREE(name)    API_VAR_FREE(MEMP_TCPIP_MSG_API, name)
  57:Source\LwIP\src\api/tcpip.c **** 
  58:Source\LwIP\src\api/tcpip.c **** /* global variables */
  59:Source\LwIP\src\api/tcpip.c **** static tcpip_init_done_fn tcpip_init_done;
  60:Source\LwIP\src\api/tcpip.c **** static void *tcpip_init_done_arg;
  61:Source\LwIP\src\api/tcpip.c **** static sys_mbox_t mbox;
  62:Source\LwIP\src\api/tcpip.c **** 
  63:Source\LwIP\src\api/tcpip.c **** #if LWIP_TCPIP_CORE_LOCKING
  64:Source\LwIP\src\api/tcpip.c **** /** The global semaphore to lock the stack. */
  65:Source\LwIP\src\api/tcpip.c **** sys_mutex_t lock_tcpip_core;
  66:Source\LwIP\src\api/tcpip.c **** #endif /* LWIP_TCPIP_CORE_LOCKING */
  67:Source\LwIP\src\api/tcpip.c **** 
  68:Source\LwIP\src\api/tcpip.c **** #if LWIP_TIMERS
  69:Source\LwIP\src\api/tcpip.c **** /* wait for a message, timeouts are processed while waiting */
  70:Source\LwIP\src\api/tcpip.c **** #define TCPIP_MBOX_FETCH(mbox, msg) sys_timeouts_mbox_fetch(mbox, msg)
  71:Source\LwIP\src\api/tcpip.c **** #else /* LWIP_TIMERS */
  72:Source\LwIP\src\api/tcpip.c **** /* wait for a message with timers disabled (e.g. pass a timer-check trigger into tcpip_thread) */
  73:Source\LwIP\src\api/tcpip.c **** #define TCPIP_MBOX_FETCH(mbox, msg) sys_mbox_fetch(mbox, msg)
  74:Source\LwIP\src\api/tcpip.c **** #endif /* LWIP_TIMERS */
  75:Source\LwIP\src\api/tcpip.c **** 
  76:Source\LwIP\src\api/tcpip.c **** /**
  77:Source\LwIP\src\api/tcpip.c ****  * The main lwIP thread. This thread has exclusive access to lwIP core functions
  78:Source\LwIP\src\api/tcpip.c ****  * (unless access to them is not locked). Other threads communicate with this
  79:Source\LwIP\src\api/tcpip.c ****  * thread using message boxes.
  80:Source\LwIP\src\api/tcpip.c ****  *
  81:Source\LwIP\src\api/tcpip.c ****  * It also starts all the timers to make sure they are running in the right
  82:Source\LwIP\src\api/tcpip.c ****  * thread context.
  83:Source\LwIP\src\api/tcpip.c ****  *
  84:Source\LwIP\src\api/tcpip.c ****  * @param arg unused argument
  85:Source\LwIP\src\api/tcpip.c ****  */
  86:Source\LwIP\src\api/tcpip.c **** static void
  87:Source\LwIP\src\api/tcpip.c **** tcpip_thread(void *arg)
  88:Source\LwIP\src\api/tcpip.c **** {
ARM GAS  C:\Users\Phuong\AppData\Local\Temp\cc3aKFPW.s 			page 3


  27              		.loc 1 88 0
  28              		.cfi_startproc
  29              		@ args = 0, pretend = 0, frame = 8
  30              		@ frame_needed = 0, uses_anonymous_args = 0
  31              	.LVL0:
  32 0000 10B5     		push	{r4, lr}
  33              		.cfi_def_cfa_offset 8
  34              		.cfi_offset 4, -8
  35              		.cfi_offset 14, -4
  36 0002 82B0     		sub	sp, sp, #8
  37              		.cfi_def_cfa_offset 16
  89:Source\LwIP\src\api/tcpip.c ****   struct tcpip_msg *msg;
  90:Source\LwIP\src\api/tcpip.c ****   LWIP_UNUSED_ARG(arg);
  91:Source\LwIP\src\api/tcpip.c **** 
  92:Source\LwIP\src\api/tcpip.c ****   if (tcpip_init_done != NULL) {
  38              		.loc 1 92 0
  39 0004 254B     		ldr	r3, .L13
  40 0006 1B68     		ldr	r3, [r3]
  41 0008 002B     		cmp	r3, #0
  42 000a 02D0     		beq	.L3
  93:Source\LwIP\src\api/tcpip.c ****     tcpip_init_done(tcpip_init_done_arg);
  43              		.loc 1 93 0
  44 000c 234A     		ldr	r2, .L13
  45 000e 5068     		ldr	r0, [r2, #4]
  46              	.LVL1:
  47 0010 9847     		blx	r3
  48              	.LVL2:
  49              	.L3:
  94:Source\LwIP\src\api/tcpip.c ****   }
  95:Source\LwIP\src\api/tcpip.c **** 
  96:Source\LwIP\src\api/tcpip.c ****   LOCK_TCPIP_CORE();
  97:Source\LwIP\src\api/tcpip.c ****   while (1) {                          /* MAIN Loop */
  98:Source\LwIP\src\api/tcpip.c ****     UNLOCK_TCPIP_CORE();
  99:Source\LwIP\src\api/tcpip.c ****     LWIP_TCPIP_THREAD_ALIVE();
 100:Source\LwIP\src\api/tcpip.c ****     /* wait for a message, timeouts are processed while waiting */
 101:Source\LwIP\src\api/tcpip.c ****     TCPIP_MBOX_FETCH(&mbox, (void **)&msg);
  50              		.loc 1 101 0
  51 0012 01A9     		add	r1, sp, #4
  52 0014 2148     		ldr	r0, .L13
  53 0016 0830     		adds	r0, r0, #8
  54 0018 FFF7FEFF 		bl	sys_timeouts_mbox_fetch
  55              	.LVL3:
 102:Source\LwIP\src\api/tcpip.c ****     LOCK_TCPIP_CORE();
 103:Source\LwIP\src\api/tcpip.c ****     if (msg == NULL) {
  56              		.loc 1 103 0
  57 001c 019B     		ldr	r3, [sp, #4]
  58 001e 002B     		cmp	r3, #0
  59 0020 F7D0     		beq	.L3
 104:Source\LwIP\src\api/tcpip.c ****       LWIP_DEBUGF(TCPIP_DEBUG, ("tcpip_thread: invalid message: NULL\n"));
 105:Source\LwIP\src\api/tcpip.c ****       LWIP_ASSERT("tcpip_thread: invalid message", 0);
 106:Source\LwIP\src\api/tcpip.c ****       continue;
 107:Source\LwIP\src\api/tcpip.c ****     }
 108:Source\LwIP\src\api/tcpip.c ****     switch (msg->type) {
  60              		.loc 1 108 0
  61 0022 1A78     		ldrb	r2, [r3]
  62 0024 062A     		cmp	r2, #6
  63 0026 F4D8     		bhi	.L3
ARM GAS  C:\Users\Phuong\AppData\Local\Temp\cc3aKFPW.s 			page 4


  64 0028 9200     		lsls	r2, r2, #2
  65 002a 1D49     		ldr	r1, .L13+4
  66 002c 8A58     		ldr	r2, [r1, r2]
  67 002e 9746     		mov	pc, r2
  68              		.section	.rodata
  69              		.align	2
  70              	.L6:
  71 0000 30000000 		.word	.L5
  72 0004 38000000 		.word	.L7
  73 0008 4C000000 		.word	.L8
  74 000c 5E000000 		.word	.L9
  75 0010 72000000 		.word	.L10
  76 0014 84000000 		.word	.L11
  77 0018 94000000 		.word	.L12
  78              		.section	.text.tcpip_thread
  79              	.L5:
 109:Source\LwIP\src\api/tcpip.c **** #if !LWIP_TCPIP_CORE_LOCKING
 110:Source\LwIP\src\api/tcpip.c ****     case TCPIP_MSG_API:
 111:Source\LwIP\src\api/tcpip.c ****       LWIP_DEBUGF(TCPIP_DEBUG, ("tcpip_thread: API message %p\n", (void *)msg));
 112:Source\LwIP\src\api/tcpip.c ****       msg->msg.api_msg.function(msg->msg.api_msg.msg);
  80              		.loc 1 112 0
  81 0030 5A68     		ldr	r2, [r3, #4]
  82 0032 9868     		ldr	r0, [r3, #8]
  83 0034 9047     		blx	r2
  84              	.LVL4:
 113:Source\LwIP\src\api/tcpip.c ****       break;
  85              		.loc 1 113 0
  86 0036 ECE7     		b	.L3
  87              	.L7:
 114:Source\LwIP\src\api/tcpip.c ****     case TCPIP_MSG_API_CALL:
 115:Source\LwIP\src\api/tcpip.c ****       LWIP_DEBUGF(TCPIP_DEBUG, ("tcpip_thread: API CALL message %p\n", (void *)msg));
 116:Source\LwIP\src\api/tcpip.c ****       msg->msg.api_call.arg->err = msg->msg.api_call.function(msg->msg.api_call.arg);
  88              		.loc 1 116 0
  89 0038 5A68     		ldr	r2, [r3, #4]
  90 003a 9C68     		ldr	r4, [r3, #8]
  91 003c 2000     		movs	r0, r4
  92 003e 9047     		blx	r2
  93              	.LVL5:
  94 0040 2070     		strb	r0, [r4]
 117:Source\LwIP\src\api/tcpip.c ****       sys_sem_signal(msg->msg.api_call.sem);
  95              		.loc 1 117 0
  96 0042 019B     		ldr	r3, [sp, #4]
  97 0044 D868     		ldr	r0, [r3, #12]
  98 0046 FFF7FEFF 		bl	sys_sem_signal
  99              	.LVL6:
 118:Source\LwIP\src\api/tcpip.c ****       break;
 100              		.loc 1 118 0
 101 004a E2E7     		b	.L3
 102              	.L8:
 119:Source\LwIP\src\api/tcpip.c **** #endif /* !LWIP_TCPIP_CORE_LOCKING */
 120:Source\LwIP\src\api/tcpip.c **** 
 121:Source\LwIP\src\api/tcpip.c **** #if !LWIP_TCPIP_CORE_LOCKING_INPUT
 122:Source\LwIP\src\api/tcpip.c ****     case TCPIP_MSG_INPKT:
 123:Source\LwIP\src\api/tcpip.c ****       LWIP_DEBUGF(TCPIP_DEBUG, ("tcpip_thread: PACKET %p\n", (void *)msg));
 124:Source\LwIP\src\api/tcpip.c ****       msg->msg.inp.input_fn(msg->msg.inp.p, msg->msg.inp.netif);
 103              		.loc 1 124 0
 104 004c DA68     		ldr	r2, [r3, #12]
ARM GAS  C:\Users\Phuong\AppData\Local\Temp\cc3aKFPW.s 			page 5


 105 004e 9968     		ldr	r1, [r3, #8]
 106 0050 5868     		ldr	r0, [r3, #4]
 107 0052 9047     		blx	r2
 108              	.LVL7:
 125:Source\LwIP\src\api/tcpip.c ****       memp_free(MEMP_TCPIP_MSG_INPKT, msg);
 109              		.loc 1 125 0
 110 0054 0199     		ldr	r1, [sp, #4]
 111 0056 0920     		movs	r0, #9
 112 0058 FFF7FEFF 		bl	memp_free
 113              	.LVL8:
 126:Source\LwIP\src\api/tcpip.c ****       break;
 114              		.loc 1 126 0
 115 005c D9E7     		b	.L3
 116              	.L9:
 127:Source\LwIP\src\api/tcpip.c **** #endif /* !LWIP_TCPIP_CORE_LOCKING_INPUT */
 128:Source\LwIP\src\api/tcpip.c **** 
 129:Source\LwIP\src\api/tcpip.c **** #if LWIP_TCPIP_TIMEOUT && LWIP_TIMERS
 130:Source\LwIP\src\api/tcpip.c ****     case TCPIP_MSG_TIMEOUT:
 131:Source\LwIP\src\api/tcpip.c ****       LWIP_DEBUGF(TCPIP_DEBUG, ("tcpip_thread: TIMEOUT %p\n", (void *)msg));
 132:Source\LwIP\src\api/tcpip.c ****       sys_timeout(msg->msg.tmo.msecs, msg->msg.tmo.h, msg->msg.tmo.arg);
 117              		.loc 1 132 0
 118 005e DA68     		ldr	r2, [r3, #12]
 119 0060 9968     		ldr	r1, [r3, #8]
 120 0062 5868     		ldr	r0, [r3, #4]
 121 0064 FFF7FEFF 		bl	sys_timeout
 122              	.LVL9:
 133:Source\LwIP\src\api/tcpip.c ****       memp_free(MEMP_TCPIP_MSG_API, msg);
 123              		.loc 1 133 0
 124 0068 0199     		ldr	r1, [sp, #4]
 125 006a 0820     		movs	r0, #8
 126 006c FFF7FEFF 		bl	memp_free
 127              	.LVL10:
 134:Source\LwIP\src\api/tcpip.c ****       break;
 128              		.loc 1 134 0
 129 0070 CFE7     		b	.L3
 130              	.L10:
 135:Source\LwIP\src\api/tcpip.c ****     case TCPIP_MSG_UNTIMEOUT:
 136:Source\LwIP\src\api/tcpip.c ****       LWIP_DEBUGF(TCPIP_DEBUG, ("tcpip_thread: UNTIMEOUT %p\n", (void *)msg));
 137:Source\LwIP\src\api/tcpip.c ****       sys_untimeout(msg->msg.tmo.h, msg->msg.tmo.arg);
 131              		.loc 1 137 0
 132 0072 D968     		ldr	r1, [r3, #12]
 133 0074 9868     		ldr	r0, [r3, #8]
 134 0076 FFF7FEFF 		bl	sys_untimeout
 135              	.LVL11:
 138:Source\LwIP\src\api/tcpip.c ****       memp_free(MEMP_TCPIP_MSG_API, msg);
 136              		.loc 1 138 0
 137 007a 0199     		ldr	r1, [sp, #4]
 138 007c 0820     		movs	r0, #8
 139 007e FFF7FEFF 		bl	memp_free
 140              	.LVL12:
 139:Source\LwIP\src\api/tcpip.c ****       break;
 141              		.loc 1 139 0
 142 0082 C6E7     		b	.L3
 143              	.L11:
 140:Source\LwIP\src\api/tcpip.c **** #endif /* LWIP_TCPIP_TIMEOUT && LWIP_TIMERS */
 141:Source\LwIP\src\api/tcpip.c **** 
 142:Source\LwIP\src\api/tcpip.c ****     case TCPIP_MSG_CALLBACK:
ARM GAS  C:\Users\Phuong\AppData\Local\Temp\cc3aKFPW.s 			page 6


 143:Source\LwIP\src\api/tcpip.c ****       LWIP_DEBUGF(TCPIP_DEBUG, ("tcpip_thread: CALLBACK %p\n", (void *)msg));
 144:Source\LwIP\src\api/tcpip.c ****       msg->msg.cb.function(msg->msg.cb.ctx);
 144              		.loc 1 144 0
 145 0084 5A68     		ldr	r2, [r3, #4]
 146 0086 9868     		ldr	r0, [r3, #8]
 147 0088 9047     		blx	r2
 148              	.LVL13:
 145:Source\LwIP\src\api/tcpip.c ****       memp_free(MEMP_TCPIP_MSG_API, msg);
 149              		.loc 1 145 0
 150 008a 0199     		ldr	r1, [sp, #4]
 151 008c 0820     		movs	r0, #8
 152 008e FFF7FEFF 		bl	memp_free
 153              	.LVL14:
 146:Source\LwIP\src\api/tcpip.c ****       break;
 154              		.loc 1 146 0
 155 0092 BEE7     		b	.L3
 156              	.L12:
 147:Source\LwIP\src\api/tcpip.c **** 
 148:Source\LwIP\src\api/tcpip.c ****     case TCPIP_MSG_CALLBACK_STATIC:
 149:Source\LwIP\src\api/tcpip.c ****       LWIP_DEBUGF(TCPIP_DEBUG, ("tcpip_thread: CALLBACK_STATIC %p\n", (void *)msg));
 150:Source\LwIP\src\api/tcpip.c ****       msg->msg.cb.function(msg->msg.cb.ctx);
 157              		.loc 1 150 0
 158 0094 5A68     		ldr	r2, [r3, #4]
 159 0096 9868     		ldr	r0, [r3, #8]
 160 0098 9047     		blx	r2
 161              	.LVL15:
 151:Source\LwIP\src\api/tcpip.c ****       break;
 162              		.loc 1 151 0
 163 009a BAE7     		b	.L3
 164              	.L14:
 165              		.align	2
 166              	.L13:
 167 009c 00000000 		.word	.LANCHOR0
 168 00a0 00000000 		.word	.L6
 169              		.cfi_endproc
 170              	.LFE53:
 171              		.size	tcpip_thread, .-tcpip_thread
 172              		.section	.text.pbuf_free_int,"ax",%progbits
 173              		.align	2
 174              		.code	16
 175              		.thumb_func
 176              		.type	pbuf_free_int, %function
 177              	pbuf_free_int:
 178              	.LFB65:
 152:Source\LwIP\src\api/tcpip.c **** 
 153:Source\LwIP\src\api/tcpip.c ****     default:
 154:Source\LwIP\src\api/tcpip.c ****       LWIP_DEBUGF(TCPIP_DEBUG, ("tcpip_thread: invalid message: %d\n", msg->type));
 155:Source\LwIP\src\api/tcpip.c ****       LWIP_ASSERT("tcpip_thread: invalid message", 0);
 156:Source\LwIP\src\api/tcpip.c ****       break;
 157:Source\LwIP\src\api/tcpip.c ****     }
 158:Source\LwIP\src\api/tcpip.c ****   }
 159:Source\LwIP\src\api/tcpip.c **** }
 160:Source\LwIP\src\api/tcpip.c **** 
 161:Source\LwIP\src\api/tcpip.c **** /**
 162:Source\LwIP\src\api/tcpip.c ****  * Pass a received packet to tcpip_thread for input processing
 163:Source\LwIP\src\api/tcpip.c ****  *
 164:Source\LwIP\src\api/tcpip.c ****  * @param p the received packet
ARM GAS  C:\Users\Phuong\AppData\Local\Temp\cc3aKFPW.s 			page 7


 165:Source\LwIP\src\api/tcpip.c ****  * @param inp the network interface on which the packet was received
 166:Source\LwIP\src\api/tcpip.c ****  * @param input_fn input function to call
 167:Source\LwIP\src\api/tcpip.c ****  */
 168:Source\LwIP\src\api/tcpip.c **** err_t
 169:Source\LwIP\src\api/tcpip.c **** tcpip_inpkt(struct pbuf *p, struct netif *inp, netif_input_fn input_fn)
 170:Source\LwIP\src\api/tcpip.c **** {
 171:Source\LwIP\src\api/tcpip.c **** #if LWIP_TCPIP_CORE_LOCKING_INPUT
 172:Source\LwIP\src\api/tcpip.c ****   err_t ret;
 173:Source\LwIP\src\api/tcpip.c ****   LWIP_DEBUGF(TCPIP_DEBUG, ("tcpip_inpkt: PACKET %p/%p\n", (void *)p, (void *)inp));
 174:Source\LwIP\src\api/tcpip.c ****   LOCK_TCPIP_CORE();
 175:Source\LwIP\src\api/tcpip.c ****   ret = input_fn(p, inp);
 176:Source\LwIP\src\api/tcpip.c ****   UNLOCK_TCPIP_CORE();
 177:Source\LwIP\src\api/tcpip.c ****   return ret;
 178:Source\LwIP\src\api/tcpip.c **** #else /* LWIP_TCPIP_CORE_LOCKING_INPUT */
 179:Source\LwIP\src\api/tcpip.c ****   struct tcpip_msg *msg;
 180:Source\LwIP\src\api/tcpip.c **** 
 181:Source\LwIP\src\api/tcpip.c ****   LWIP_ASSERT("Invalid mbox", sys_mbox_valid_val(mbox));
 182:Source\LwIP\src\api/tcpip.c **** 
 183:Source\LwIP\src\api/tcpip.c ****   msg = (struct tcpip_msg *)memp_malloc(MEMP_TCPIP_MSG_INPKT);
 184:Source\LwIP\src\api/tcpip.c ****   if (msg == NULL) {
 185:Source\LwIP\src\api/tcpip.c ****     return ERR_MEM;
 186:Source\LwIP\src\api/tcpip.c ****   }
 187:Source\LwIP\src\api/tcpip.c **** 
 188:Source\LwIP\src\api/tcpip.c ****   msg->type = TCPIP_MSG_INPKT;
 189:Source\LwIP\src\api/tcpip.c ****   msg->msg.inp.p = p;
 190:Source\LwIP\src\api/tcpip.c ****   msg->msg.inp.netif = inp;
 191:Source\LwIP\src\api/tcpip.c ****   msg->msg.inp.input_fn = input_fn;
 192:Source\LwIP\src\api/tcpip.c ****   if (sys_mbox_trypost(&mbox, msg) != ERR_OK) {
 193:Source\LwIP\src\api/tcpip.c ****     memp_free(MEMP_TCPIP_MSG_INPKT, msg);
 194:Source\LwIP\src\api/tcpip.c ****     return ERR_MEM;
 195:Source\LwIP\src\api/tcpip.c ****   }
 196:Source\LwIP\src\api/tcpip.c ****   return ERR_OK;
 197:Source\LwIP\src\api/tcpip.c **** #endif /* LWIP_TCPIP_CORE_LOCKING_INPUT */
 198:Source\LwIP\src\api/tcpip.c **** }
 199:Source\LwIP\src\api/tcpip.c **** 
 200:Source\LwIP\src\api/tcpip.c **** /**
 201:Source\LwIP\src\api/tcpip.c ****  * @ingroup lwip_os
 202:Source\LwIP\src\api/tcpip.c ****  * Pass a received packet to tcpip_thread for input processing with
 203:Source\LwIP\src\api/tcpip.c ****  * ethernet_input or ip_input. Don't call directly, pass to netif_add()
 204:Source\LwIP\src\api/tcpip.c ****  * and call netif->input().
 205:Source\LwIP\src\api/tcpip.c ****  *
 206:Source\LwIP\src\api/tcpip.c ****  * @param p the received packet, p->payload pointing to the Ethernet header or
 207:Source\LwIP\src\api/tcpip.c ****  *          to an IP header (if inp doesn't have NETIF_FLAG_ETHARP or
 208:Source\LwIP\src\api/tcpip.c ****  *          NETIF_FLAG_ETHERNET flags)
 209:Source\LwIP\src\api/tcpip.c ****  * @param inp the network interface on which the packet was received
 210:Source\LwIP\src\api/tcpip.c ****  */
 211:Source\LwIP\src\api/tcpip.c **** err_t
 212:Source\LwIP\src\api/tcpip.c **** tcpip_input(struct pbuf *p, struct netif *inp)
 213:Source\LwIP\src\api/tcpip.c **** {
 214:Source\LwIP\src\api/tcpip.c **** #if LWIP_ETHERNET
 215:Source\LwIP\src\api/tcpip.c ****   if (inp->flags & (NETIF_FLAG_ETHARP | NETIF_FLAG_ETHERNET)) {
 216:Source\LwIP\src\api/tcpip.c ****     return tcpip_inpkt(p, inp, ethernet_input);
 217:Source\LwIP\src\api/tcpip.c ****   } else
 218:Source\LwIP\src\api/tcpip.c **** #endif /* LWIP_ETHERNET */
 219:Source\LwIP\src\api/tcpip.c ****   return tcpip_inpkt(p, inp, ip_input);
 220:Source\LwIP\src\api/tcpip.c **** }
 221:Source\LwIP\src\api/tcpip.c **** 
ARM GAS  C:\Users\Phuong\AppData\Local\Temp\cc3aKFPW.s 			page 8


 222:Source\LwIP\src\api/tcpip.c **** /**
 223:Source\LwIP\src\api/tcpip.c ****  * Call a specific function in the thread context of
 224:Source\LwIP\src\api/tcpip.c ****  * tcpip_thread for easy access synchronization.
 225:Source\LwIP\src\api/tcpip.c ****  * A function called in that way may access lwIP core code
 226:Source\LwIP\src\api/tcpip.c ****  * without fearing concurrent access.
 227:Source\LwIP\src\api/tcpip.c ****  *
 228:Source\LwIP\src\api/tcpip.c ****  * @param function the function to call
 229:Source\LwIP\src\api/tcpip.c ****  * @param ctx parameter passed to f
 230:Source\LwIP\src\api/tcpip.c ****  * @param block 1 to block until the request is posted, 0 to non-blocking mode
 231:Source\LwIP\src\api/tcpip.c ****  * @return ERR_OK if the function was called, another err_t if not
 232:Source\LwIP\src\api/tcpip.c ****  */
 233:Source\LwIP\src\api/tcpip.c **** err_t
 234:Source\LwIP\src\api/tcpip.c **** tcpip_callback_with_block(tcpip_callback_fn function, void *ctx, u8_t block)
 235:Source\LwIP\src\api/tcpip.c **** {
 236:Source\LwIP\src\api/tcpip.c ****   struct tcpip_msg *msg;
 237:Source\LwIP\src\api/tcpip.c **** 
 238:Source\LwIP\src\api/tcpip.c ****   LWIP_ASSERT("Invalid mbox", sys_mbox_valid_val(mbox));
 239:Source\LwIP\src\api/tcpip.c **** 
 240:Source\LwIP\src\api/tcpip.c ****   msg = (struct tcpip_msg *)memp_malloc(MEMP_TCPIP_MSG_API);
 241:Source\LwIP\src\api/tcpip.c ****   if (msg == NULL) {
 242:Source\LwIP\src\api/tcpip.c ****     return ERR_MEM;
 243:Source\LwIP\src\api/tcpip.c ****   }
 244:Source\LwIP\src\api/tcpip.c **** 
 245:Source\LwIP\src\api/tcpip.c ****   msg->type = TCPIP_MSG_CALLBACK;
 246:Source\LwIP\src\api/tcpip.c ****   msg->msg.cb.function = function;
 247:Source\LwIP\src\api/tcpip.c ****   msg->msg.cb.ctx = ctx;
 248:Source\LwIP\src\api/tcpip.c ****   if (block) {
 249:Source\LwIP\src\api/tcpip.c ****     sys_mbox_post(&mbox, msg);
 250:Source\LwIP\src\api/tcpip.c ****   } else {
 251:Source\LwIP\src\api/tcpip.c ****     if (sys_mbox_trypost(&mbox, msg) != ERR_OK) {
 252:Source\LwIP\src\api/tcpip.c ****       memp_free(MEMP_TCPIP_MSG_API, msg);
 253:Source\LwIP\src\api/tcpip.c ****       return ERR_MEM;
 254:Source\LwIP\src\api/tcpip.c ****     }
 255:Source\LwIP\src\api/tcpip.c ****   }
 256:Source\LwIP\src\api/tcpip.c ****   return ERR_OK;
 257:Source\LwIP\src\api/tcpip.c **** }
 258:Source\LwIP\src\api/tcpip.c **** 
 259:Source\LwIP\src\api/tcpip.c **** #if LWIP_TCPIP_TIMEOUT && LWIP_TIMERS
 260:Source\LwIP\src\api/tcpip.c **** /**
 261:Source\LwIP\src\api/tcpip.c ****  * call sys_timeout in tcpip_thread
 262:Source\LwIP\src\api/tcpip.c ****  *
 263:Source\LwIP\src\api/tcpip.c ****  * @param msecs time in milliseconds for timeout
 264:Source\LwIP\src\api/tcpip.c ****  * @param h function to be called on timeout
 265:Source\LwIP\src\api/tcpip.c ****  * @param arg argument to pass to timeout function h
 266:Source\LwIP\src\api/tcpip.c ****  * @return ERR_MEM on memory error, ERR_OK otherwise
 267:Source\LwIP\src\api/tcpip.c ****  */
 268:Source\LwIP\src\api/tcpip.c **** err_t
 269:Source\LwIP\src\api/tcpip.c **** tcpip_timeout(u32_t msecs, sys_timeout_handler h, void *arg)
 270:Source\LwIP\src\api/tcpip.c **** {
 271:Source\LwIP\src\api/tcpip.c ****   struct tcpip_msg *msg;
 272:Source\LwIP\src\api/tcpip.c **** 
 273:Source\LwIP\src\api/tcpip.c ****   LWIP_ASSERT("Invalid mbox", sys_mbox_valid_val(mbox));
 274:Source\LwIP\src\api/tcpip.c **** 
 275:Source\LwIP\src\api/tcpip.c ****   msg = (struct tcpip_msg *)memp_malloc(MEMP_TCPIP_MSG_API);
 276:Source\LwIP\src\api/tcpip.c ****   if (msg == NULL) {
 277:Source\LwIP\src\api/tcpip.c ****     return ERR_MEM;
 278:Source\LwIP\src\api/tcpip.c ****   }
ARM GAS  C:\Users\Phuong\AppData\Local\Temp\cc3aKFPW.s 			page 9


 279:Source\LwIP\src\api/tcpip.c **** 
 280:Source\LwIP\src\api/tcpip.c ****   msg->type = TCPIP_MSG_TIMEOUT;
 281:Source\LwIP\src\api/tcpip.c ****   msg->msg.tmo.msecs = msecs;
 282:Source\LwIP\src\api/tcpip.c ****   msg->msg.tmo.h = h;
 283:Source\LwIP\src\api/tcpip.c ****   msg->msg.tmo.arg = arg;
 284:Source\LwIP\src\api/tcpip.c ****   sys_mbox_post(&mbox, msg);
 285:Source\LwIP\src\api/tcpip.c ****   return ERR_OK;
 286:Source\LwIP\src\api/tcpip.c **** }
 287:Source\LwIP\src\api/tcpip.c **** 
 288:Source\LwIP\src\api/tcpip.c **** /**
 289:Source\LwIP\src\api/tcpip.c ****  * call sys_untimeout in tcpip_thread
 290:Source\LwIP\src\api/tcpip.c ****  *
 291:Source\LwIP\src\api/tcpip.c ****  * @param h function to be called on timeout
 292:Source\LwIP\src\api/tcpip.c ****  * @param arg argument to pass to timeout function h
 293:Source\LwIP\src\api/tcpip.c ****  * @return ERR_MEM on memory error, ERR_OK otherwise
 294:Source\LwIP\src\api/tcpip.c ****  */
 295:Source\LwIP\src\api/tcpip.c **** err_t
 296:Source\LwIP\src\api/tcpip.c **** tcpip_untimeout(sys_timeout_handler h, void *arg)
 297:Source\LwIP\src\api/tcpip.c **** {
 298:Source\LwIP\src\api/tcpip.c ****   struct tcpip_msg *msg;
 299:Source\LwIP\src\api/tcpip.c **** 
 300:Source\LwIP\src\api/tcpip.c ****   LWIP_ASSERT("Invalid mbox", sys_mbox_valid_val(mbox));
 301:Source\LwIP\src\api/tcpip.c **** 
 302:Source\LwIP\src\api/tcpip.c ****   msg = (struct tcpip_msg *)memp_malloc(MEMP_TCPIP_MSG_API);
 303:Source\LwIP\src\api/tcpip.c ****   if (msg == NULL) {
 304:Source\LwIP\src\api/tcpip.c ****     return ERR_MEM;
 305:Source\LwIP\src\api/tcpip.c ****   }
 306:Source\LwIP\src\api/tcpip.c **** 
 307:Source\LwIP\src\api/tcpip.c ****   msg->type = TCPIP_MSG_UNTIMEOUT;
 308:Source\LwIP\src\api/tcpip.c ****   msg->msg.tmo.h = h;
 309:Source\LwIP\src\api/tcpip.c ****   msg->msg.tmo.arg = arg;
 310:Source\LwIP\src\api/tcpip.c ****   sys_mbox_post(&mbox, msg);
 311:Source\LwIP\src\api/tcpip.c ****   return ERR_OK;
 312:Source\LwIP\src\api/tcpip.c **** }
 313:Source\LwIP\src\api/tcpip.c **** #endif /* LWIP_TCPIP_TIMEOUT && LWIP_TIMERS */
 314:Source\LwIP\src\api/tcpip.c **** 
 315:Source\LwIP\src\api/tcpip.c **** 
 316:Source\LwIP\src\api/tcpip.c **** /**
 317:Source\LwIP\src\api/tcpip.c ****  * Sends a message to TCPIP thread to call a function. Caller thread blocks on
 318:Source\LwIP\src\api/tcpip.c ****  * on a provided semaphore, which ist NOT automatically signalled by TCPIP thread,
 319:Source\LwIP\src\api/tcpip.c ****  * this has to be done by the user.
 320:Source\LwIP\src\api/tcpip.c ****  * It is recommended to use LWIP_TCPIP_CORE_LOCKING since this is the way
 321:Source\LwIP\src\api/tcpip.c ****  * with least runtime overhead.
 322:Source\LwIP\src\api/tcpip.c ****  *
 323:Source\LwIP\src\api/tcpip.c ****  * @param fn function to be called from TCPIP thread
 324:Source\LwIP\src\api/tcpip.c ****  * @param apimsg argument to API function
 325:Source\LwIP\src\api/tcpip.c ****  * @param sem semaphore to wait on
 326:Source\LwIP\src\api/tcpip.c ****  * @return ERR_OK if the function was called, another err_t if not
 327:Source\LwIP\src\api/tcpip.c ****  */
 328:Source\LwIP\src\api/tcpip.c **** err_t
 329:Source\LwIP\src\api/tcpip.c **** tcpip_send_msg_wait_sem(tcpip_callback_fn fn, void *apimsg, sys_sem_t* sem)
 330:Source\LwIP\src\api/tcpip.c **** {
 331:Source\LwIP\src\api/tcpip.c **** #if LWIP_TCPIP_CORE_LOCKING
 332:Source\LwIP\src\api/tcpip.c ****   LWIP_UNUSED_ARG(sem);
 333:Source\LwIP\src\api/tcpip.c ****   LOCK_TCPIP_CORE();
 334:Source\LwIP\src\api/tcpip.c ****   fn(apimsg);
 335:Source\LwIP\src\api/tcpip.c ****   UNLOCK_TCPIP_CORE();
ARM GAS  C:\Users\Phuong\AppData\Local\Temp\cc3aKFPW.s 			page 10


 336:Source\LwIP\src\api/tcpip.c ****   return ERR_OK;
 337:Source\LwIP\src\api/tcpip.c **** #else /* LWIP_TCPIP_CORE_LOCKING */
 338:Source\LwIP\src\api/tcpip.c ****   TCPIP_MSG_VAR_DECLARE(msg);
 339:Source\LwIP\src\api/tcpip.c **** 
 340:Source\LwIP\src\api/tcpip.c ****   LWIP_ASSERT("semaphore not initialized", sys_sem_valid(sem));
 341:Source\LwIP\src\api/tcpip.c ****   LWIP_ASSERT("Invalid mbox", sys_mbox_valid_val(mbox));
 342:Source\LwIP\src\api/tcpip.c **** 
 343:Source\LwIP\src\api/tcpip.c ****   TCPIP_MSG_VAR_ALLOC(msg);
 344:Source\LwIP\src\api/tcpip.c ****   TCPIP_MSG_VAR_REF(msg).type = TCPIP_MSG_API;
 345:Source\LwIP\src\api/tcpip.c ****   TCPIP_MSG_VAR_REF(msg).msg.api_msg.function = fn;
 346:Source\LwIP\src\api/tcpip.c ****   TCPIP_MSG_VAR_REF(msg).msg.api_msg.msg = apimsg;
 347:Source\LwIP\src\api/tcpip.c ****   sys_mbox_post(&mbox, &TCPIP_MSG_VAR_REF(msg));
 348:Source\LwIP\src\api/tcpip.c ****   sys_arch_sem_wait(sem, 0);
 349:Source\LwIP\src\api/tcpip.c ****   TCPIP_MSG_VAR_FREE(msg);
 350:Source\LwIP\src\api/tcpip.c ****   return ERR_OK;
 351:Source\LwIP\src\api/tcpip.c **** #endif /* LWIP_TCPIP_CORE_LOCKING */
 352:Source\LwIP\src\api/tcpip.c **** }
 353:Source\LwIP\src\api/tcpip.c **** 
 354:Source\LwIP\src\api/tcpip.c **** /**
 355:Source\LwIP\src\api/tcpip.c ****  * Synchronously calls function in TCPIP thread and waits for its completion.
 356:Source\LwIP\src\api/tcpip.c ****  * It is recommended to use LWIP_TCPIP_CORE_LOCKING (preferred) or
 357:Source\LwIP\src\api/tcpip.c ****  * LWIP_NETCONN_SEM_PER_THREAD. 
 358:Source\LwIP\src\api/tcpip.c ****  * If not, a semaphore is created and destroyed on every call which is usually
 359:Source\LwIP\src\api/tcpip.c ****  * an expensive/slow operation.
 360:Source\LwIP\src\api/tcpip.c ****  * @param fn Function to call
 361:Source\LwIP\src\api/tcpip.c ****  * @param call Call parameters
 362:Source\LwIP\src\api/tcpip.c ****  * @return Return value from tcpip_api_call_fn
 363:Source\LwIP\src\api/tcpip.c ****  */
 364:Source\LwIP\src\api/tcpip.c **** err_t
 365:Source\LwIP\src\api/tcpip.c **** tcpip_api_call(tcpip_api_call_fn fn, struct tcpip_api_call_data *call)
 366:Source\LwIP\src\api/tcpip.c **** {
 367:Source\LwIP\src\api/tcpip.c **** #if LWIP_TCPIP_CORE_LOCKING
 368:Source\LwIP\src\api/tcpip.c ****   err_t err;
 369:Source\LwIP\src\api/tcpip.c ****   LOCK_TCPIP_CORE();
 370:Source\LwIP\src\api/tcpip.c ****   err = fn(call);
 371:Source\LwIP\src\api/tcpip.c ****   UNLOCK_TCPIP_CORE();
 372:Source\LwIP\src\api/tcpip.c ****   return err;
 373:Source\LwIP\src\api/tcpip.c **** #else /* LWIP_TCPIP_CORE_LOCKING */
 374:Source\LwIP\src\api/tcpip.c ****   TCPIP_MSG_VAR_DECLARE(msg);
 375:Source\LwIP\src\api/tcpip.c **** 
 376:Source\LwIP\src\api/tcpip.c **** #if !LWIP_NETCONN_SEM_PER_THREAD
 377:Source\LwIP\src\api/tcpip.c ****   err_t err = sys_sem_new(&call->sem, 0);
 378:Source\LwIP\src\api/tcpip.c ****   if (err != ERR_OK) {
 379:Source\LwIP\src\api/tcpip.c ****     return err;
 380:Source\LwIP\src\api/tcpip.c ****   }
 381:Source\LwIP\src\api/tcpip.c **** #endif /* LWIP_NETCONN_SEM_PER_THREAD */
 382:Source\LwIP\src\api/tcpip.c **** 
 383:Source\LwIP\src\api/tcpip.c ****   LWIP_ASSERT("Invalid mbox", sys_mbox_valid_val(mbox));
 384:Source\LwIP\src\api/tcpip.c **** 
 385:Source\LwIP\src\api/tcpip.c ****   TCPIP_MSG_VAR_ALLOC(msg);
 386:Source\LwIP\src\api/tcpip.c ****   TCPIP_MSG_VAR_REF(msg).type = TCPIP_MSG_API_CALL;
 387:Source\LwIP\src\api/tcpip.c ****   TCPIP_MSG_VAR_REF(msg).msg.api_call.arg = call;
 388:Source\LwIP\src\api/tcpip.c ****   TCPIP_MSG_VAR_REF(msg).msg.api_call.function = fn;
 389:Source\LwIP\src\api/tcpip.c **** #if LWIP_NETCONN_SEM_PER_THREAD
 390:Source\LwIP\src\api/tcpip.c ****   TCPIP_MSG_VAR_REF(msg).msg.api_call.sem = LWIP_NETCONN_THREAD_SEM_GET();
 391:Source\LwIP\src\api/tcpip.c **** #else /* LWIP_NETCONN_SEM_PER_THREAD */
 392:Source\LwIP\src\api/tcpip.c ****   TCPIP_MSG_VAR_REF(msg).msg.api_call.sem = &call->sem;
ARM GAS  C:\Users\Phuong\AppData\Local\Temp\cc3aKFPW.s 			page 11


 393:Source\LwIP\src\api/tcpip.c **** #endif /* LWIP_NETCONN_SEM_PER_THREAD */
 394:Source\LwIP\src\api/tcpip.c ****   sys_mbox_post(&mbox, &TCPIP_MSG_VAR_REF(msg));
 395:Source\LwIP\src\api/tcpip.c ****   sys_arch_sem_wait(TCPIP_MSG_VAR_REF(msg).msg.api_call.sem, 0);
 396:Source\LwIP\src\api/tcpip.c ****   TCPIP_MSG_VAR_FREE(msg);
 397:Source\LwIP\src\api/tcpip.c **** 
 398:Source\LwIP\src\api/tcpip.c **** #if !LWIP_NETCONN_SEM_PER_THREAD
 399:Source\LwIP\src\api/tcpip.c ****   sys_sem_free(&call->sem);
 400:Source\LwIP\src\api/tcpip.c **** #endif /* LWIP_NETCONN_SEM_PER_THREAD */
 401:Source\LwIP\src\api/tcpip.c **** 
 402:Source\LwIP\src\api/tcpip.c ****   return call->err;
 403:Source\LwIP\src\api/tcpip.c **** #endif /* LWIP_TCPIP_CORE_LOCKING */
 404:Source\LwIP\src\api/tcpip.c **** }
 405:Source\LwIP\src\api/tcpip.c **** 
 406:Source\LwIP\src\api/tcpip.c **** /**
 407:Source\LwIP\src\api/tcpip.c ****  * Allocate a structure for a static callback message and initialize it.
 408:Source\LwIP\src\api/tcpip.c ****  * This is intended to be used to send "static" messages from interrupt context.
 409:Source\LwIP\src\api/tcpip.c ****  *
 410:Source\LwIP\src\api/tcpip.c ****  * @param function the function to call
 411:Source\LwIP\src\api/tcpip.c ****  * @param ctx parameter passed to function
 412:Source\LwIP\src\api/tcpip.c ****  * @return a struct pointer to pass to tcpip_trycallback().
 413:Source\LwIP\src\api/tcpip.c ****  */
 414:Source\LwIP\src\api/tcpip.c **** struct tcpip_callback_msg*
 415:Source\LwIP\src\api/tcpip.c **** tcpip_callbackmsg_new(tcpip_callback_fn function, void *ctx)
 416:Source\LwIP\src\api/tcpip.c **** {
 417:Source\LwIP\src\api/tcpip.c ****   struct tcpip_msg *msg = (struct tcpip_msg *)memp_malloc(MEMP_TCPIP_MSG_API);
 418:Source\LwIP\src\api/tcpip.c ****   if (msg == NULL) {
 419:Source\LwIP\src\api/tcpip.c ****     return NULL;
 420:Source\LwIP\src\api/tcpip.c ****   }
 421:Source\LwIP\src\api/tcpip.c ****   msg->type = TCPIP_MSG_CALLBACK_STATIC;
 422:Source\LwIP\src\api/tcpip.c ****   msg->msg.cb.function = function;
 423:Source\LwIP\src\api/tcpip.c ****   msg->msg.cb.ctx = ctx;
 424:Source\LwIP\src\api/tcpip.c ****   return (struct tcpip_callback_msg*)msg;
 425:Source\LwIP\src\api/tcpip.c **** }
 426:Source\LwIP\src\api/tcpip.c **** 
 427:Source\LwIP\src\api/tcpip.c **** /**
 428:Source\LwIP\src\api/tcpip.c ****  * Free a callback message allocated by tcpip_callbackmsg_new().
 429:Source\LwIP\src\api/tcpip.c ****  *
 430:Source\LwIP\src\api/tcpip.c ****  * @param msg the message to free
 431:Source\LwIP\src\api/tcpip.c ****  */
 432:Source\LwIP\src\api/tcpip.c **** void
 433:Source\LwIP\src\api/tcpip.c **** tcpip_callbackmsg_delete(struct tcpip_callback_msg* msg)
 434:Source\LwIP\src\api/tcpip.c **** {
 435:Source\LwIP\src\api/tcpip.c ****   memp_free(MEMP_TCPIP_MSG_API, msg);
 436:Source\LwIP\src\api/tcpip.c **** }
 437:Source\LwIP\src\api/tcpip.c **** 
 438:Source\LwIP\src\api/tcpip.c **** /**
 439:Source\LwIP\src\api/tcpip.c ****  * Try to post a callback-message to the tcpip_thread mbox
 440:Source\LwIP\src\api/tcpip.c ****  * This is intended to be used to send "static" messages from interrupt context.
 441:Source\LwIP\src\api/tcpip.c ****  *
 442:Source\LwIP\src\api/tcpip.c ****  * @param msg pointer to the message to post
 443:Source\LwIP\src\api/tcpip.c ****  * @return sys_mbox_trypost() return code
 444:Source\LwIP\src\api/tcpip.c ****  */
 445:Source\LwIP\src\api/tcpip.c **** err_t
 446:Source\LwIP\src\api/tcpip.c **** tcpip_trycallback(struct tcpip_callback_msg* msg)
 447:Source\LwIP\src\api/tcpip.c **** {
 448:Source\LwIP\src\api/tcpip.c ****   LWIP_ASSERT("Invalid mbox", sys_mbox_valid_val(mbox));
 449:Source\LwIP\src\api/tcpip.c ****   return sys_mbox_trypost(&mbox, msg);
ARM GAS  C:\Users\Phuong\AppData\Local\Temp\cc3aKFPW.s 			page 12


 450:Source\LwIP\src\api/tcpip.c **** }
 451:Source\LwIP\src\api/tcpip.c **** 
 452:Source\LwIP\src\api/tcpip.c **** /**
 453:Source\LwIP\src\api/tcpip.c ****  * @ingroup lwip_os
 454:Source\LwIP\src\api/tcpip.c ****  * Initialize this module:
 455:Source\LwIP\src\api/tcpip.c ****  * - initialize all sub modules
 456:Source\LwIP\src\api/tcpip.c ****  * - start the tcpip_thread
 457:Source\LwIP\src\api/tcpip.c ****  *
 458:Source\LwIP\src\api/tcpip.c ****  * @param initfunc a function to call when tcpip_thread is running and finished initializing
 459:Source\LwIP\src\api/tcpip.c ****  * @param arg argument to pass to initfunc
 460:Source\LwIP\src\api/tcpip.c ****  */
 461:Source\LwIP\src\api/tcpip.c **** void
 462:Source\LwIP\src\api/tcpip.c **** tcpip_init(tcpip_init_done_fn initfunc, void *arg)
 463:Source\LwIP\src\api/tcpip.c **** {
 464:Source\LwIP\src\api/tcpip.c ****   lwip_init();
 465:Source\LwIP\src\api/tcpip.c **** 
 466:Source\LwIP\src\api/tcpip.c ****   tcpip_init_done = initfunc;
 467:Source\LwIP\src\api/tcpip.c ****   tcpip_init_done_arg = arg;
 468:Source\LwIP\src\api/tcpip.c ****   if (sys_mbox_new(&mbox, TCPIP_MBOX_SIZE) != ERR_OK) {
 469:Source\LwIP\src\api/tcpip.c ****     LWIP_ASSERT("failed to create tcpip_thread mbox", 0);
 470:Source\LwIP\src\api/tcpip.c ****   }
 471:Source\LwIP\src\api/tcpip.c **** #if LWIP_TCPIP_CORE_LOCKING
 472:Source\LwIP\src\api/tcpip.c ****   if (sys_mutex_new(&lock_tcpip_core) != ERR_OK) {
 473:Source\LwIP\src\api/tcpip.c ****     LWIP_ASSERT("failed to create lock_tcpip_core", 0);
 474:Source\LwIP\src\api/tcpip.c ****   }
 475:Source\LwIP\src\api/tcpip.c **** #endif /* LWIP_TCPIP_CORE_LOCKING */
 476:Source\LwIP\src\api/tcpip.c **** 
 477:Source\LwIP\src\api/tcpip.c ****   sys_thread_new(TCPIP_THREAD_NAME, tcpip_thread, NULL, TCPIP_THREAD_STACKSIZE, TCPIP_THREAD_PRIO);
 478:Source\LwIP\src\api/tcpip.c **** }
 479:Source\LwIP\src\api/tcpip.c **** 
 480:Source\LwIP\src\api/tcpip.c **** /**
 481:Source\LwIP\src\api/tcpip.c ****  * Simple callback function used with tcpip_callback to free a pbuf
 482:Source\LwIP\src\api/tcpip.c ****  * (pbuf_free has a wrong signature for tcpip_callback)
 483:Source\LwIP\src\api/tcpip.c ****  *
 484:Source\LwIP\src\api/tcpip.c ****  * @param p The pbuf (chain) to be dereferenced.
 485:Source\LwIP\src\api/tcpip.c ****  */
 486:Source\LwIP\src\api/tcpip.c **** static void
 487:Source\LwIP\src\api/tcpip.c **** pbuf_free_int(void *p)
 488:Source\LwIP\src\api/tcpip.c **** {
 179              		.loc 1 488 0
 180              		.cfi_startproc
 181              		@ args = 0, pretend = 0, frame = 0
 182              		@ frame_needed = 0, uses_anonymous_args = 0
 183              	.LVL16:
 184 0000 10B5     		push	{r4, lr}
 185              		.cfi_def_cfa_offset 8
 186              		.cfi_offset 4, -8
 187              		.cfi_offset 14, -4
 188              	.LVL17:
 489:Source\LwIP\src\api/tcpip.c ****   struct pbuf *q = (struct pbuf *)p;
 490:Source\LwIP\src\api/tcpip.c ****   pbuf_free(q);
 189              		.loc 1 490 0
 190 0002 FFF7FEFF 		bl	pbuf_free
 191              	.LVL18:
 491:Source\LwIP\src\api/tcpip.c **** }
 192              		.loc 1 491 0
 193              		@ sp needed
ARM GAS  C:\Users\Phuong\AppData\Local\Temp\cc3aKFPW.s 			page 13


 194 0006 10BD     		pop	{r4, pc}
 195              		.cfi_endproc
 196              	.LFE65:
 197              		.size	pbuf_free_int, .-pbuf_free_int
 198              		.section	.text.tcpip_inpkt,"ax",%progbits
 199              		.align	2
 200              		.global	tcpip_inpkt
 201              		.code	16
 202              		.thumb_func
 203              		.type	tcpip_inpkt, %function
 204              	tcpip_inpkt:
 205              	.LFB54:
 170:Source\LwIP\src\api/tcpip.c **** #if LWIP_TCPIP_CORE_LOCKING_INPUT
 206              		.loc 1 170 0
 207              		.cfi_startproc
 208              		@ args = 0, pretend = 0, frame = 0
 209              		@ frame_needed = 0, uses_anonymous_args = 0
 210              	.LVL19:
 211 0000 F8B5     		push	{r3, r4, r5, r6, r7, lr}
 212              		.cfi_def_cfa_offset 24
 213              		.cfi_offset 3, -24
 214              		.cfi_offset 4, -20
 215              		.cfi_offset 5, -16
 216              		.cfi_offset 6, -12
 217              		.cfi_offset 7, -8
 218              		.cfi_offset 14, -4
 219 0002 0700     		movs	r7, r0
 220 0004 0E00     		movs	r6, r1
 221 0006 1500     		movs	r5, r2
 181:Source\LwIP\src\api/tcpip.c **** 
 222              		.loc 1 181 0
 223 0008 1048     		ldr	r0, .L19
 224              	.LVL20:
 225 000a 0830     		adds	r0, r0, #8
 226 000c FFF7FEFF 		bl	sys_mbox_valid
 227              	.LVL21:
 183:Source\LwIP\src\api/tcpip.c ****   if (msg == NULL) {
 228              		.loc 1 183 0
 229 0010 B722     		movs	r2, #183
 230 0012 0F49     		ldr	r1, .L19+4
 231 0014 0920     		movs	r0, #9
 232 0016 FFF7FEFF 		bl	memp_malloc_fn
 233              	.LVL22:
 234 001a 041E     		subs	r4, r0, #0
 235              	.LVL23:
 184:Source\LwIP\src\api/tcpip.c ****     return ERR_MEM;
 236              		.loc 1 184 0
 237 001c 12D0     		beq	.L18
 188:Source\LwIP\src\api/tcpip.c ****   msg->msg.inp.p = p;
 238              		.loc 1 188 0
 239 001e 0223     		movs	r3, #2
 240 0020 0370     		strb	r3, [r0]
 189:Source\LwIP\src\api/tcpip.c ****   msg->msg.inp.netif = inp;
 241              		.loc 1 189 0
 242 0022 4760     		str	r7, [r0, #4]
 190:Source\LwIP\src\api/tcpip.c ****   msg->msg.inp.input_fn = input_fn;
 243              		.loc 1 190 0
ARM GAS  C:\Users\Phuong\AppData\Local\Temp\cc3aKFPW.s 			page 14


 244 0024 8660     		str	r6, [r0, #8]
 191:Source\LwIP\src\api/tcpip.c ****   if (sys_mbox_trypost(&mbox, msg) != ERR_OK) {
 245              		.loc 1 191 0
 246 0026 C560     		str	r5, [r0, #12]
 192:Source\LwIP\src\api/tcpip.c ****     memp_free(MEMP_TCPIP_MSG_INPKT, msg);
 247              		.loc 1 192 0
 248 0028 0100     		movs	r1, r0
 249 002a 0848     		ldr	r0, .L19
 250              	.LVL24:
 251 002c 0830     		adds	r0, r0, #8
 252 002e FFF7FEFF 		bl	sys_mbox_trypost
 253              	.LVL25:
 254 0032 0028     		cmp	r0, #0
 255 0034 08D0     		beq	.L17
 193:Source\LwIP\src\api/tcpip.c ****     return ERR_MEM;
 256              		.loc 1 193 0
 257 0036 2100     		movs	r1, r4
 258 0038 0920     		movs	r0, #9
 259 003a FFF7FEFF 		bl	memp_free
 260              	.LVL26:
 194:Source\LwIP\src\api/tcpip.c ****   }
 261              		.loc 1 194 0
 262 003e 0120     		movs	r0, #1
 263 0040 4042     		rsbs	r0, r0, #0
 264 0042 01E0     		b	.L17
 265              	.LVL27:
 266              	.L18:
 185:Source\LwIP\src\api/tcpip.c ****   }
 267              		.loc 1 185 0
 268 0044 0120     		movs	r0, #1
 269              	.LVL28:
 270 0046 4042     		rsbs	r0, r0, #0
 271              	.L17:
 198:Source\LwIP\src\api/tcpip.c **** 
 272              		.loc 1 198 0
 273              		@ sp needed
 274              	.LVL29:
 275              	.LVL30:
 276              	.LVL31:
 277              	.LVL32:
 278 0048 F8BD     		pop	{r3, r4, r5, r6, r7, pc}
 279              	.L20:
 280 004a C046     		.align	2
 281              	.L19:
 282 004c 00000000 		.word	.LANCHOR0
 283 0050 00000000 		.word	.LC3
 284              		.cfi_endproc
 285              	.LFE54:
 286              		.size	tcpip_inpkt, .-tcpip_inpkt
 287              		.section	.text.tcpip_input,"ax",%progbits
 288              		.align	2
 289              		.global	tcpip_input
 290              		.code	16
 291              		.thumb_func
 292              		.type	tcpip_input, %function
 293              	tcpip_input:
 294              	.LFB55:
ARM GAS  C:\Users\Phuong\AppData\Local\Temp\cc3aKFPW.s 			page 15


 213:Source\LwIP\src\api/tcpip.c **** #if LWIP_ETHERNET
 295              		.loc 1 213 0
 296              		.cfi_startproc
 297              		@ args = 0, pretend = 0, frame = 0
 298              		@ frame_needed = 0, uses_anonymous_args = 0
 299              	.LVL33:
 300 0000 10B5     		push	{r4, lr}
 301              		.cfi_def_cfa_offset 8
 302              		.cfi_offset 4, -8
 303              		.cfi_offset 14, -4
 215:Source\LwIP\src\api/tcpip.c ****     return tcpip_inpkt(p, inp, ethernet_input);
 304              		.loc 1 215 0
 305 0002 3D23     		movs	r3, #61
 306 0004 CB5C     		ldrb	r3, [r1, r3]
 307 0006 1822     		movs	r2, #24
 308 0008 1A42     		tst	r2, r3
 309 000a 03D0     		beq	.L22
 216:Source\LwIP\src\api/tcpip.c ****   } else
 310              		.loc 1 216 0
 311 000c 034A     		ldr	r2, .L24
 312 000e FFF7FEFF 		bl	tcpip_inpkt
 313              	.LVL34:
 314 0012 02E0     		b	.L23
 315              	.LVL35:
 316              	.L22:
 219:Source\LwIP\src\api/tcpip.c **** }
 317              		.loc 1 219 0
 318 0014 024A     		ldr	r2, .L24+4
 319 0016 FFF7FEFF 		bl	tcpip_inpkt
 320              	.LVL36:
 321              	.L23:
 220:Source\LwIP\src\api/tcpip.c **** 
 322              		.loc 1 220 0
 323              		@ sp needed
 324 001a 10BD     		pop	{r4, pc}
 325              	.L25:
 326              		.align	2
 327              	.L24:
 328 001c 00000000 		.word	ethernet_input
 329 0020 00000000 		.word	ip4_input
 330              		.cfi_endproc
 331              	.LFE55:
 332              		.size	tcpip_input, .-tcpip_input
 333              		.section	.text.tcpip_callback_with_block,"ax",%progbits
 334              		.align	2
 335              		.global	tcpip_callback_with_block
 336              		.code	16
 337              		.thumb_func
 338              		.type	tcpip_callback_with_block, %function
 339              	tcpip_callback_with_block:
 340              	.LFB56:
 235:Source\LwIP\src\api/tcpip.c ****   struct tcpip_msg *msg;
 341              		.loc 1 235 0
 342              		.cfi_startproc
 343              		@ args = 0, pretend = 0, frame = 0
 344              		@ frame_needed = 0, uses_anonymous_args = 0
 345              	.LVL37:
ARM GAS  C:\Users\Phuong\AppData\Local\Temp\cc3aKFPW.s 			page 16


 346 0000 F8B5     		push	{r3, r4, r5, r6, r7, lr}
 347              		.cfi_def_cfa_offset 24
 348              		.cfi_offset 3, -24
 349              		.cfi_offset 4, -20
 350              		.cfi_offset 5, -16
 351              		.cfi_offset 6, -12
 352              		.cfi_offset 7, -8
 353              		.cfi_offset 14, -4
 354 0002 0700     		movs	r7, r0
 355 0004 0E00     		movs	r6, r1
 356 0006 1500     		movs	r5, r2
 238:Source\LwIP\src\api/tcpip.c **** 
 357              		.loc 1 238 0
 358 0008 1448     		ldr	r0, .L30
 359              	.LVL38:
 360 000a 0830     		adds	r0, r0, #8
 361 000c FFF7FEFF 		bl	sys_mbox_valid
 362              	.LVL39:
 240:Source\LwIP\src\api/tcpip.c ****   if (msg == NULL) {
 363              		.loc 1 240 0
 364 0010 F022     		movs	r2, #240
 365 0012 1349     		ldr	r1, .L30+4
 366 0014 0820     		movs	r0, #8
 367 0016 FFF7FEFF 		bl	memp_malloc_fn
 368              	.LVL40:
 369 001a 041E     		subs	r4, r0, #0
 370              	.LVL41:
 241:Source\LwIP\src\api/tcpip.c ****     return ERR_MEM;
 371              		.loc 1 241 0
 372 001c 1AD0     		beq	.L29
 245:Source\LwIP\src\api/tcpip.c ****   msg->msg.cb.function = function;
 373              		.loc 1 245 0
 374 001e 0523     		movs	r3, #5
 375 0020 0370     		strb	r3, [r0]
 246:Source\LwIP\src\api/tcpip.c ****   msg->msg.cb.ctx = ctx;
 376              		.loc 1 246 0
 377 0022 4760     		str	r7, [r0, #4]
 247:Source\LwIP\src\api/tcpip.c ****   if (block) {
 378              		.loc 1 247 0
 379 0024 8660     		str	r6, [r0, #8]
 248:Source\LwIP\src\api/tcpip.c ****     sys_mbox_post(&mbox, msg);
 380              		.loc 1 248 0
 381 0026 002D     		cmp	r5, #0
 382 0028 06D0     		beq	.L28
 249:Source\LwIP\src\api/tcpip.c ****   } else {
 383              		.loc 1 249 0
 384 002a 0100     		movs	r1, r0
 385 002c 0B48     		ldr	r0, .L30
 386              	.LVL42:
 387 002e 0830     		adds	r0, r0, #8
 388 0030 FFF7FEFF 		bl	sys_mbox_post
 389              	.LVL43:
 256:Source\LwIP\src\api/tcpip.c **** }
 390              		.loc 1 256 0
 391 0034 0020     		movs	r0, #0
 392 0036 0FE0     		b	.L27
 393              	.LVL44:
ARM GAS  C:\Users\Phuong\AppData\Local\Temp\cc3aKFPW.s 			page 17


 394              	.L28:
 251:Source\LwIP\src\api/tcpip.c ****       memp_free(MEMP_TCPIP_MSG_API, msg);
 395              		.loc 1 251 0
 396 0038 0100     		movs	r1, r0
 397 003a 0848     		ldr	r0, .L30
 398              	.LVL45:
 399 003c 0830     		adds	r0, r0, #8
 400 003e FFF7FEFF 		bl	sys_mbox_trypost
 401              	.LVL46:
 402 0042 0028     		cmp	r0, #0
 403 0044 08D0     		beq	.L27
 252:Source\LwIP\src\api/tcpip.c ****       return ERR_MEM;
 404              		.loc 1 252 0
 405 0046 2100     		movs	r1, r4
 406 0048 0820     		movs	r0, #8
 407 004a FFF7FEFF 		bl	memp_free
 408              	.LVL47:
 253:Source\LwIP\src\api/tcpip.c ****     }
 409              		.loc 1 253 0
 410 004e 0120     		movs	r0, #1
 411 0050 4042     		rsbs	r0, r0, #0
 412 0052 01E0     		b	.L27
 413              	.LVL48:
 414              	.L29:
 242:Source\LwIP\src\api/tcpip.c ****   }
 415              		.loc 1 242 0
 416 0054 0120     		movs	r0, #1
 417              	.LVL49:
 418 0056 4042     		rsbs	r0, r0, #0
 419              	.L27:
 257:Source\LwIP\src\api/tcpip.c **** 
 420              		.loc 1 257 0
 421              		@ sp needed
 422              	.LVL50:
 423              	.LVL51:
 424              	.LVL52:
 425 0058 F8BD     		pop	{r3, r4, r5, r6, r7, pc}
 426              	.L31:
 427 005a C046     		.align	2
 428              	.L30:
 429 005c 00000000 		.word	.LANCHOR0
 430 0060 00000000 		.word	.LC3
 431              		.cfi_endproc
 432              	.LFE56:
 433              		.size	tcpip_callback_with_block, .-tcpip_callback_with_block
 434              		.section	.text.tcpip_timeout,"ax",%progbits
 435              		.align	2
 436              		.global	tcpip_timeout
 437              		.code	16
 438              		.thumb_func
 439              		.type	tcpip_timeout, %function
 440              	tcpip_timeout:
 441              	.LFB57:
 270:Source\LwIP\src\api/tcpip.c ****   struct tcpip_msg *msg;
 442              		.loc 1 270 0
 443              		.cfi_startproc
 444              		@ args = 0, pretend = 0, frame = 0
ARM GAS  C:\Users\Phuong\AppData\Local\Temp\cc3aKFPW.s 			page 18


 445              		@ frame_needed = 0, uses_anonymous_args = 0
 446              	.LVL53:
 447 0000 70B5     		push	{r4, r5, r6, lr}
 448              		.cfi_def_cfa_offset 16
 449              		.cfi_offset 4, -16
 450              		.cfi_offset 5, -12
 451              		.cfi_offset 6, -8
 452              		.cfi_offset 14, -4
 453 0002 0600     		movs	r6, r0
 454 0004 0D00     		movs	r5, r1
 455 0006 1400     		movs	r4, r2
 273:Source\LwIP\src\api/tcpip.c **** 
 456              		.loc 1 273 0
 457 0008 0D48     		ldr	r0, .L35
 458              	.LVL54:
 459 000a 0830     		adds	r0, r0, #8
 460 000c FFF7FEFF 		bl	sys_mbox_valid
 461              	.LVL55:
 275:Source\LwIP\src\api/tcpip.c ****   if (msg == NULL) {
 462              		.loc 1 275 0
 463 0010 1422     		movs	r2, #20
 464 0012 FF32     		adds	r2, r2, #255
 465 0014 0B49     		ldr	r1, .L35+4
 466 0016 0820     		movs	r0, #8
 467 0018 FFF7FEFF 		bl	memp_malloc_fn
 468              	.LVL56:
 276:Source\LwIP\src\api/tcpip.c ****     return ERR_MEM;
 469              		.loc 1 276 0
 470 001c 0028     		cmp	r0, #0
 471 001e 0BD0     		beq	.L34
 280:Source\LwIP\src\api/tcpip.c ****   msg->msg.tmo.msecs = msecs;
 472              		.loc 1 280 0
 473 0020 0323     		movs	r3, #3
 474 0022 0370     		strb	r3, [r0]
 281:Source\LwIP\src\api/tcpip.c ****   msg->msg.tmo.h = h;
 475              		.loc 1 281 0
 476 0024 4660     		str	r6, [r0, #4]
 282:Source\LwIP\src\api/tcpip.c ****   msg->msg.tmo.arg = arg;
 477              		.loc 1 282 0
 478 0026 8560     		str	r5, [r0, #8]
 283:Source\LwIP\src\api/tcpip.c ****   sys_mbox_post(&mbox, msg);
 479              		.loc 1 283 0
 480 0028 C460     		str	r4, [r0, #12]
 284:Source\LwIP\src\api/tcpip.c ****   return ERR_OK;
 481              		.loc 1 284 0
 482 002a 0100     		movs	r1, r0
 483 002c 0448     		ldr	r0, .L35
 484              	.LVL57:
 485 002e 0830     		adds	r0, r0, #8
 486 0030 FFF7FEFF 		bl	sys_mbox_post
 487              	.LVL58:
 285:Source\LwIP\src\api/tcpip.c **** }
 488              		.loc 1 285 0
 489 0034 0020     		movs	r0, #0
 490 0036 01E0     		b	.L33
 491              	.LVL59:
 492              	.L34:
ARM GAS  C:\Users\Phuong\AppData\Local\Temp\cc3aKFPW.s 			page 19


 277:Source\LwIP\src\api/tcpip.c ****   }
 493              		.loc 1 277 0
 494 0038 0120     		movs	r0, #1
 495              	.LVL60:
 496 003a 4042     		rsbs	r0, r0, #0
 497              	.L33:
 286:Source\LwIP\src\api/tcpip.c **** 
 498              		.loc 1 286 0
 499              		@ sp needed
 500              	.LVL61:
 501              	.LVL62:
 502              	.LVL63:
 503 003c 70BD     		pop	{r4, r5, r6, pc}
 504              	.L36:
 505 003e C046     		.align	2
 506              	.L35:
 507 0040 00000000 		.word	.LANCHOR0
 508 0044 00000000 		.word	.LC3
 509              		.cfi_endproc
 510              	.LFE57:
 511              		.size	tcpip_timeout, .-tcpip_timeout
 512              		.section	.text.tcpip_untimeout,"ax",%progbits
 513              		.align	2
 514              		.global	tcpip_untimeout
 515              		.code	16
 516              		.thumb_func
 517              		.type	tcpip_untimeout, %function
 518              	tcpip_untimeout:
 519              	.LFB58:
 297:Source\LwIP\src\api/tcpip.c ****   struct tcpip_msg *msg;
 520              		.loc 1 297 0
 521              		.cfi_startproc
 522              		@ args = 0, pretend = 0, frame = 0
 523              		@ frame_needed = 0, uses_anonymous_args = 0
 524              	.LVL64:
 525 0000 70B5     		push	{r4, r5, r6, lr}
 526              		.cfi_def_cfa_offset 16
 527              		.cfi_offset 4, -16
 528              		.cfi_offset 5, -12
 529              		.cfi_offset 6, -8
 530              		.cfi_offset 14, -4
 531 0002 0500     		movs	r5, r0
 532 0004 0C00     		movs	r4, r1
 300:Source\LwIP\src\api/tcpip.c **** 
 533              		.loc 1 300 0
 534 0006 0D48     		ldr	r0, .L40
 535              	.LVL65:
 536 0008 0830     		adds	r0, r0, #8
 537 000a FFF7FEFF 		bl	sys_mbox_valid
 538              	.LVL66:
 302:Source\LwIP\src\api/tcpip.c ****   if (msg == NULL) {
 539              		.loc 1 302 0
 540 000e 9722     		movs	r2, #151
 541 0010 5200     		lsls	r2, r2, #1
 542 0012 0B49     		ldr	r1, .L40+4
 543 0014 0820     		movs	r0, #8
 544 0016 FFF7FEFF 		bl	memp_malloc_fn
ARM GAS  C:\Users\Phuong\AppData\Local\Temp\cc3aKFPW.s 			page 20


 545              	.LVL67:
 303:Source\LwIP\src\api/tcpip.c ****     return ERR_MEM;
 546              		.loc 1 303 0
 547 001a 0028     		cmp	r0, #0
 548 001c 0AD0     		beq	.L39
 307:Source\LwIP\src\api/tcpip.c ****   msg->msg.tmo.h = h;
 549              		.loc 1 307 0
 550 001e 0423     		movs	r3, #4
 551 0020 0370     		strb	r3, [r0]
 308:Source\LwIP\src\api/tcpip.c ****   msg->msg.tmo.arg = arg;
 552              		.loc 1 308 0
 553 0022 8560     		str	r5, [r0, #8]
 309:Source\LwIP\src\api/tcpip.c ****   sys_mbox_post(&mbox, msg);
 554              		.loc 1 309 0
 555 0024 C460     		str	r4, [r0, #12]
 310:Source\LwIP\src\api/tcpip.c ****   return ERR_OK;
 556              		.loc 1 310 0
 557 0026 0100     		movs	r1, r0
 558 0028 0448     		ldr	r0, .L40
 559              	.LVL68:
 560 002a 0830     		adds	r0, r0, #8
 561 002c FFF7FEFF 		bl	sys_mbox_post
 562              	.LVL69:
 311:Source\LwIP\src\api/tcpip.c **** }
 563              		.loc 1 311 0
 564 0030 0020     		movs	r0, #0
 565 0032 01E0     		b	.L38
 566              	.LVL70:
 567              	.L39:
 304:Source\LwIP\src\api/tcpip.c ****   }
 568              		.loc 1 304 0
 569 0034 0120     		movs	r0, #1
 570              	.LVL71:
 571 0036 4042     		rsbs	r0, r0, #0
 572              	.L38:
 312:Source\LwIP\src\api/tcpip.c **** #endif /* LWIP_TCPIP_TIMEOUT && LWIP_TIMERS */
 573              		.loc 1 312 0
 574              		@ sp needed
 575              	.LVL72:
 576              	.LVL73:
 577 0038 70BD     		pop	{r4, r5, r6, pc}
 578              	.L41:
 579 003a C046     		.align	2
 580              	.L40:
 581 003c 00000000 		.word	.LANCHOR0
 582 0040 00000000 		.word	.LC3
 583              		.cfi_endproc
 584              	.LFE58:
 585              		.size	tcpip_untimeout, .-tcpip_untimeout
 586              		.section	.text.tcpip_send_msg_wait_sem,"ax",%progbits
 587              		.align	2
 588              		.global	tcpip_send_msg_wait_sem
 589              		.code	16
 590              		.thumb_func
 591              		.type	tcpip_send_msg_wait_sem, %function
 592              	tcpip_send_msg_wait_sem:
 593              	.LFB59:
ARM GAS  C:\Users\Phuong\AppData\Local\Temp\cc3aKFPW.s 			page 21


 330:Source\LwIP\src\api/tcpip.c **** #if LWIP_TCPIP_CORE_LOCKING
 594              		.loc 1 330 0
 595              		.cfi_startproc
 596              		@ args = 0, pretend = 0, frame = 16
 597              		@ frame_needed = 0, uses_anonymous_args = 0
 598              	.LVL74:
 599 0000 F0B5     		push	{r4, r5, r6, r7, lr}
 600              		.cfi_def_cfa_offset 20
 601              		.cfi_offset 4, -20
 602              		.cfi_offset 5, -16
 603              		.cfi_offset 6, -12
 604              		.cfi_offset 7, -8
 605              		.cfi_offset 14, -4
 606 0002 85B0     		sub	sp, sp, #20
 607              		.cfi_def_cfa_offset 40
 608 0004 0700     		movs	r7, r0
 609 0006 0E00     		movs	r6, r1
 610 0008 1500     		movs	r5, r2
 340:Source\LwIP\src\api/tcpip.c ****   LWIP_ASSERT("Invalid mbox", sys_mbox_valid_val(mbox));
 611              		.loc 1 340 0
 612 000a 1000     		movs	r0, r2
 613              	.LVL75:
 614 000c FFF7FEFF 		bl	sys_sem_valid
 615              	.LVL76:
 341:Source\LwIP\src\api/tcpip.c **** 
 616              		.loc 1 341 0
 617 0010 0A4C     		ldr	r4, .L43
 618 0012 0834     		adds	r4, r4, #8
 619 0014 2000     		movs	r0, r4
 620 0016 FFF7FEFF 		bl	sys_mbox_valid
 621              	.LVL77:
 344:Source\LwIP\src\api/tcpip.c ****   TCPIP_MSG_VAR_REF(msg).msg.api_msg.function = fn;
 622              		.loc 1 344 0
 623 001a 0023     		movs	r3, #0
 624 001c 6A46     		mov	r2, sp
 625 001e 1370     		strb	r3, [r2]
 345:Source\LwIP\src\api/tcpip.c ****   TCPIP_MSG_VAR_REF(msg).msg.api_msg.msg = apimsg;
 626              		.loc 1 345 0
 627 0020 0197     		str	r7, [sp, #4]
 346:Source\LwIP\src\api/tcpip.c ****   sys_mbox_post(&mbox, &TCPIP_MSG_VAR_REF(msg));
 628              		.loc 1 346 0
 629 0022 0296     		str	r6, [sp, #8]
 347:Source\LwIP\src\api/tcpip.c ****   sys_arch_sem_wait(sem, 0);
 630              		.loc 1 347 0
 631 0024 6946     		mov	r1, sp
 632 0026 2000     		movs	r0, r4
 633 0028 FFF7FEFF 		bl	sys_mbox_post
 634              	.LVL78:
 348:Source\LwIP\src\api/tcpip.c ****   TCPIP_MSG_VAR_FREE(msg);
 635              		.loc 1 348 0
 636 002c 0021     		movs	r1, #0
 637 002e 2800     		movs	r0, r5
 638 0030 FFF7FEFF 		bl	sys_arch_sem_wait
 639              	.LVL79:
 352:Source\LwIP\src\api/tcpip.c **** 
 640              		.loc 1 352 0
 641 0034 0020     		movs	r0, #0
ARM GAS  C:\Users\Phuong\AppData\Local\Temp\cc3aKFPW.s 			page 22


 642 0036 05B0     		add	sp, sp, #20
 643              		@ sp needed
 644              	.LVL80:
 645              	.LVL81:
 646              	.LVL82:
 647 0038 F0BD     		pop	{r4, r5, r6, r7, pc}
 648              	.L44:
 649 003a C046     		.align	2
 650              	.L43:
 651 003c 00000000 		.word	.LANCHOR0
 652              		.cfi_endproc
 653              	.LFE59:
 654              		.size	tcpip_send_msg_wait_sem, .-tcpip_send_msg_wait_sem
 655              		.section	.text.tcpip_api_call,"ax",%progbits
 656              		.align	2
 657              		.global	tcpip_api_call
 658              		.code	16
 659              		.thumb_func
 660              		.type	tcpip_api_call, %function
 661              	tcpip_api_call:
 662              	.LFB60:
 366:Source\LwIP\src\api/tcpip.c **** #if LWIP_TCPIP_CORE_LOCKING
 663              		.loc 1 366 0
 664              		.cfi_startproc
 665              		@ args = 0, pretend = 0, frame = 16
 666              		@ frame_needed = 0, uses_anonymous_args = 0
 667              	.LVL83:
 668 0000 F0B5     		push	{r4, r5, r6, r7, lr}
 669              		.cfi_def_cfa_offset 20
 670              		.cfi_offset 4, -20
 671              		.cfi_offset 5, -16
 672              		.cfi_offset 6, -12
 673              		.cfi_offset 7, -8
 674              		.cfi_offset 14, -4
 675 0002 85B0     		sub	sp, sp, #20
 676              		.cfi_def_cfa_offset 40
 677 0004 0600     		movs	r6, r0
 678 0006 0C00     		movs	r4, r1
 377:Source\LwIP\src\api/tcpip.c ****   if (err != ERR_OK) {
 679              		.loc 1 377 0
 680 0008 0D1D     		adds	r5, r1, #4
 681 000a 0021     		movs	r1, #0
 682              	.LVL84:
 683 000c 2800     		movs	r0, r5
 684              	.LVL85:
 685 000e FFF7FEFF 		bl	sys_sem_new
 686              	.LVL86:
 378:Source\LwIP\src\api/tcpip.c ****     return err;
 687              		.loc 1 378 0
 688 0012 0028     		cmp	r0, #0
 689 0014 17D1     		bne	.L46
 383:Source\LwIP\src\api/tcpip.c **** 
 690              		.loc 1 383 0
 691 0016 0D4F     		ldr	r7, .L48
 692 0018 0837     		adds	r7, r7, #8
 693 001a 3800     		movs	r0, r7
 694              	.LVL87:
ARM GAS  C:\Users\Phuong\AppData\Local\Temp\cc3aKFPW.s 			page 23


 695 001c FFF7FEFF 		bl	sys_mbox_valid
 696              	.LVL88:
 386:Source\LwIP\src\api/tcpip.c ****   TCPIP_MSG_VAR_REF(msg).msg.api_call.arg = call;
 697              		.loc 1 386 0
 698 0020 0123     		movs	r3, #1
 699 0022 6A46     		mov	r2, sp
 700 0024 1370     		strb	r3, [r2]
 387:Source\LwIP\src\api/tcpip.c ****   TCPIP_MSG_VAR_REF(msg).msg.api_call.function = fn;
 701              		.loc 1 387 0
 702 0026 0294     		str	r4, [sp, #8]
 388:Source\LwIP\src\api/tcpip.c **** #if LWIP_NETCONN_SEM_PER_THREAD
 703              		.loc 1 388 0
 704 0028 0196     		str	r6, [sp, #4]
 392:Source\LwIP\src\api/tcpip.c **** #endif /* LWIP_NETCONN_SEM_PER_THREAD */
 705              		.loc 1 392 0
 706 002a 0395     		str	r5, [sp, #12]
 394:Source\LwIP\src\api/tcpip.c ****   sys_arch_sem_wait(TCPIP_MSG_VAR_REF(msg).msg.api_call.sem, 0);
 707              		.loc 1 394 0
 708 002c 6946     		mov	r1, sp
 709 002e 3800     		movs	r0, r7
 710 0030 FFF7FEFF 		bl	sys_mbox_post
 711              	.LVL89:
 395:Source\LwIP\src\api/tcpip.c ****   TCPIP_MSG_VAR_FREE(msg);
 712              		.loc 1 395 0
 713 0034 0398     		ldr	r0, [sp, #12]
 714 0036 0021     		movs	r1, #0
 715 0038 FFF7FEFF 		bl	sys_arch_sem_wait
 716              	.LVL90:
 399:Source\LwIP\src\api/tcpip.c **** #endif /* LWIP_NETCONN_SEM_PER_THREAD */
 717              		.loc 1 399 0
 718 003c 2800     		movs	r0, r5
 719 003e FFF7FEFF 		bl	sys_sem_free
 720              	.LVL91:
 402:Source\LwIP\src\api/tcpip.c **** #endif /* LWIP_TCPIP_CORE_LOCKING */
 721              		.loc 1 402 0
 722 0042 0020     		movs	r0, #0
 723 0044 2056     		ldrsb	r0, [r4, r0]
 724              	.L46:
 404:Source\LwIP\src\api/tcpip.c **** 
 725              		.loc 1 404 0
 726 0046 05B0     		add	sp, sp, #20
 727              		@ sp needed
 728              	.LVL92:
 729              	.LVL93:
 730              	.LVL94:
 731 0048 F0BD     		pop	{r4, r5, r6, r7, pc}
 732              	.L49:
 733 004a C046     		.align	2
 734              	.L48:
 735 004c 00000000 		.word	.LANCHOR0
 736              		.cfi_endproc
 737              	.LFE60:
 738              		.size	tcpip_api_call, .-tcpip_api_call
 739              		.section	.text.tcpip_callbackmsg_new,"ax",%progbits
 740              		.align	2
 741              		.global	tcpip_callbackmsg_new
 742              		.code	16
ARM GAS  C:\Users\Phuong\AppData\Local\Temp\cc3aKFPW.s 			page 24


 743              		.thumb_func
 744              		.type	tcpip_callbackmsg_new, %function
 745              	tcpip_callbackmsg_new:
 746              	.LFB61:
 416:Source\LwIP\src\api/tcpip.c ****   struct tcpip_msg *msg = (struct tcpip_msg *)memp_malloc(MEMP_TCPIP_MSG_API);
 747              		.loc 1 416 0
 748              		.cfi_startproc
 749              		@ args = 0, pretend = 0, frame = 0
 750              		@ frame_needed = 0, uses_anonymous_args = 0
 751              	.LVL95:
 752 0000 70B5     		push	{r4, r5, r6, lr}
 753              		.cfi_def_cfa_offset 16
 754              		.cfi_offset 4, -16
 755              		.cfi_offset 5, -12
 756              		.cfi_offset 6, -8
 757              		.cfi_offset 14, -4
 758 0002 0500     		movs	r5, r0
 759 0004 0C00     		movs	r4, r1
 417:Source\LwIP\src\api/tcpip.c ****   if (msg == NULL) {
 760              		.loc 1 417 0
 761 0006 A222     		movs	r2, #162
 762 0008 FF32     		adds	r2, r2, #255
 763 000a 0649     		ldr	r1, .L53
 764              	.LVL96:
 765 000c 0820     		movs	r0, #8
 766              	.LVL97:
 767 000e FFF7FEFF 		bl	memp_malloc_fn
 768              	.LVL98:
 418:Source\LwIP\src\api/tcpip.c ****     return NULL;
 769              		.loc 1 418 0
 770 0012 0028     		cmp	r0, #0
 771 0014 04D0     		beq	.L52
 421:Source\LwIP\src\api/tcpip.c ****   msg->msg.cb.function = function;
 772              		.loc 1 421 0
 773 0016 0623     		movs	r3, #6
 774 0018 0370     		strb	r3, [r0]
 422:Source\LwIP\src\api/tcpip.c ****   msg->msg.cb.ctx = ctx;
 775              		.loc 1 422 0
 776 001a 4560     		str	r5, [r0, #4]
 423:Source\LwIP\src\api/tcpip.c ****   return (struct tcpip_callback_msg*)msg;
 777              		.loc 1 423 0
 778 001c 8460     		str	r4, [r0, #8]
 424:Source\LwIP\src\api/tcpip.c **** }
 779              		.loc 1 424 0
 780 001e 00E0     		b	.L51
 781              	.L52:
 419:Source\LwIP\src\api/tcpip.c ****   }
 782              		.loc 1 419 0
 783 0020 0020     		movs	r0, #0
 784              	.LVL99:
 785              	.L51:
 425:Source\LwIP\src\api/tcpip.c **** 
 786              		.loc 1 425 0
 787              		@ sp needed
 788              	.LVL100:
 789              	.LVL101:
 790 0022 70BD     		pop	{r4, r5, r6, pc}
ARM GAS  C:\Users\Phuong\AppData\Local\Temp\cc3aKFPW.s 			page 25


 791              	.L54:
 792              		.align	2
 793              	.L53:
 794 0024 00000000 		.word	.LC3
 795              		.cfi_endproc
 796              	.LFE61:
 797              		.size	tcpip_callbackmsg_new, .-tcpip_callbackmsg_new
 798              		.section	.text.tcpip_callbackmsg_delete,"ax",%progbits
 799              		.align	2
 800              		.global	tcpip_callbackmsg_delete
 801              		.code	16
 802              		.thumb_func
 803              		.type	tcpip_callbackmsg_delete, %function
 804              	tcpip_callbackmsg_delete:
 805              	.LFB62:
 434:Source\LwIP\src\api/tcpip.c ****   memp_free(MEMP_TCPIP_MSG_API, msg);
 806              		.loc 1 434 0
 807              		.cfi_startproc
 808              		@ args = 0, pretend = 0, frame = 0
 809              		@ frame_needed = 0, uses_anonymous_args = 0
 810              	.LVL102:
 811 0000 10B5     		push	{r4, lr}
 812              		.cfi_def_cfa_offset 8
 813              		.cfi_offset 4, -8
 814              		.cfi_offset 14, -4
 815 0002 0100     		movs	r1, r0
 435:Source\LwIP\src\api/tcpip.c **** }
 816              		.loc 1 435 0
 817 0004 0820     		movs	r0, #8
 818              	.LVL103:
 819 0006 FFF7FEFF 		bl	memp_free
 820              	.LVL104:
 436:Source\LwIP\src\api/tcpip.c **** 
 821              		.loc 1 436 0
 822              		@ sp needed
 823 000a 10BD     		pop	{r4, pc}
 824              		.cfi_endproc
 825              	.LFE62:
 826              		.size	tcpip_callbackmsg_delete, .-tcpip_callbackmsg_delete
 827              		.section	.text.tcpip_trycallback,"ax",%progbits
 828              		.align	2
 829              		.global	tcpip_trycallback
 830              		.code	16
 831              		.thumb_func
 832              		.type	tcpip_trycallback, %function
 833              	tcpip_trycallback:
 834              	.LFB63:
 447:Source\LwIP\src\api/tcpip.c ****   LWIP_ASSERT("Invalid mbox", sys_mbox_valid_val(mbox));
 835              		.loc 1 447 0
 836              		.cfi_startproc
 837              		@ args = 0, pretend = 0, frame = 0
 838              		@ frame_needed = 0, uses_anonymous_args = 0
 839              	.LVL105:
 840 0000 70B5     		push	{r4, r5, r6, lr}
 841              		.cfi_def_cfa_offset 16
 842              		.cfi_offset 4, -16
 843              		.cfi_offset 5, -12
ARM GAS  C:\Users\Phuong\AppData\Local\Temp\cc3aKFPW.s 			page 26


 844              		.cfi_offset 6, -8
 845              		.cfi_offset 14, -4
 846 0002 0500     		movs	r5, r0
 448:Source\LwIP\src\api/tcpip.c ****   return sys_mbox_trypost(&mbox, msg);
 847              		.loc 1 448 0
 848 0004 044C     		ldr	r4, .L57
 849 0006 0834     		adds	r4, r4, #8
 850 0008 2000     		movs	r0, r4
 851              	.LVL106:
 852 000a FFF7FEFF 		bl	sys_mbox_valid
 853              	.LVL107:
 449:Source\LwIP\src\api/tcpip.c **** }
 854              		.loc 1 449 0
 855 000e 2900     		movs	r1, r5
 856 0010 2000     		movs	r0, r4
 857 0012 FFF7FEFF 		bl	sys_mbox_trypost
 858              	.LVL108:
 450:Source\LwIP\src\api/tcpip.c **** 
 859              		.loc 1 450 0
 860              		@ sp needed
 861              	.LVL109:
 862 0016 70BD     		pop	{r4, r5, r6, pc}
 863              	.L58:
 864              		.align	2
 865              	.L57:
 866 0018 00000000 		.word	.LANCHOR0
 867              		.cfi_endproc
 868              	.LFE63:
 869              		.size	tcpip_trycallback, .-tcpip_trycallback
 870              		.section	.text.tcpip_init,"ax",%progbits
 871              		.align	2
 872              		.global	tcpip_init
 873              		.code	16
 874              		.thumb_func
 875              		.type	tcpip_init, %function
 876              	tcpip_init:
 877              	.LFB64:
 463:Source\LwIP\src\api/tcpip.c ****   lwip_init();
 878              		.loc 1 463 0
 879              		.cfi_startproc
 880              		@ args = 0, pretend = 0, frame = 0
 881              		@ frame_needed = 0, uses_anonymous_args = 0
 882              	.LVL110:
 883 0000 30B5     		push	{r4, r5, lr}
 884              		.cfi_def_cfa_offset 12
 885              		.cfi_offset 4, -12
 886              		.cfi_offset 5, -8
 887              		.cfi_offset 14, -4
 888 0002 83B0     		sub	sp, sp, #12
 889              		.cfi_def_cfa_offset 24
 890 0004 0500     		movs	r5, r0
 891 0006 0C00     		movs	r4, r1
 464:Source\LwIP\src\api/tcpip.c **** 
 892              		.loc 1 464 0
 893 0008 FFF7FEFF 		bl	lwip_init
 894              	.LVL111:
 466:Source\LwIP\src\api/tcpip.c ****   tcpip_init_done_arg = arg;
ARM GAS  C:\Users\Phuong\AppData\Local\Temp\cc3aKFPW.s 			page 27


 895              		.loc 1 466 0
 896 000c 0848     		ldr	r0, .L60
 897 000e 0560     		str	r5, [r0]
 467:Source\LwIP\src\api/tcpip.c ****   if (sys_mbox_new(&mbox, TCPIP_MBOX_SIZE) != ERR_OK) {
 898              		.loc 1 467 0
 899 0010 4460     		str	r4, [r0, #4]
 468:Source\LwIP\src\api/tcpip.c ****     LWIP_ASSERT("failed to create tcpip_thread mbox", 0);
 900              		.loc 1 468 0
 901 0012 0830     		adds	r0, r0, #8
 902 0014 0021     		movs	r1, #0
 903 0016 FFF7FEFF 		bl	sys_mbox_new
 904              	.LVL112:
 477:Source\LwIP\src\api/tcpip.c **** }
 905              		.loc 1 477 0
 906 001a 0723     		movs	r3, #7
 907 001c 0093     		str	r3, [sp]
 908 001e 8023     		movs	r3, #128
 909 0020 5B01     		lsls	r3, r3, #5
 910 0022 0022     		movs	r2, #0
 911 0024 0349     		ldr	r1, .L60+4
 912 0026 0448     		ldr	r0, .L60+8
 913 0028 FFF7FEFF 		bl	sys_thread_new
 914              	.LVL113:
 478:Source\LwIP\src\api/tcpip.c **** 
 915              		.loc 1 478 0
 916 002c 03B0     		add	sp, sp, #12
 917              		@ sp needed
 918              	.LVL114:
 919              	.LVL115:
 920 002e 30BD     		pop	{r4, r5, pc}
 921              	.L61:
 922              		.align	2
 923              	.L60:
 924 0030 00000000 		.word	.LANCHOR0
 925 0034 00000000 		.word	tcpip_thread
 926 0038 1C000000 		.word	.LC22
 927              		.cfi_endproc
 928              	.LFE64:
 929              		.size	tcpip_init, .-tcpip_init
 930              		.section	.text.pbuf_free_callback,"ax",%progbits
 931              		.align	2
 932              		.global	pbuf_free_callback
 933              		.code	16
 934              		.thumb_func
 935              		.type	pbuf_free_callback, %function
 936              	pbuf_free_callback:
 937              	.LFB66:
 492:Source\LwIP\src\api/tcpip.c **** 
 493:Source\LwIP\src\api/tcpip.c **** /**
 494:Source\LwIP\src\api/tcpip.c ****  * A simple wrapper function that allows you to free a pbuf from interrupt context.
 495:Source\LwIP\src\api/tcpip.c ****  *
 496:Source\LwIP\src\api/tcpip.c ****  * @param p The pbuf (chain) to be dereferenced.
 497:Source\LwIP\src\api/tcpip.c ****  * @return ERR_OK if callback could be enqueued, an err_t if not
 498:Source\LwIP\src\api/tcpip.c ****  */
 499:Source\LwIP\src\api/tcpip.c **** err_t
 500:Source\LwIP\src\api/tcpip.c **** pbuf_free_callback(struct pbuf *p)
 501:Source\LwIP\src\api/tcpip.c **** {
ARM GAS  C:\Users\Phuong\AppData\Local\Temp\cc3aKFPW.s 			page 28


 938              		.loc 1 501 0
 939              		.cfi_startproc
 940              		@ args = 0, pretend = 0, frame = 0
 941              		@ frame_needed = 0, uses_anonymous_args = 0
 942              	.LVL116:
 943 0000 10B5     		push	{r4, lr}
 944              		.cfi_def_cfa_offset 8
 945              		.cfi_offset 4, -8
 946              		.cfi_offset 14, -4
 947 0002 0100     		movs	r1, r0
 502:Source\LwIP\src\api/tcpip.c ****   return tcpip_callback_with_block(pbuf_free_int, p, 0);
 948              		.loc 1 502 0
 949 0004 0022     		movs	r2, #0
 950 0006 0248     		ldr	r0, .L63
 951              	.LVL117:
 952 0008 FFF7FEFF 		bl	tcpip_callback_with_block
 953              	.LVL118:
 503:Source\LwIP\src\api/tcpip.c **** }
 954              		.loc 1 503 0
 955              		@ sp needed
 956 000c 10BD     		pop	{r4, pc}
 957              	.L64:
 958 000e C046     		.align	2
 959              	.L63:
 960 0010 00000000 		.word	pbuf_free_int
 961              		.cfi_endproc
 962              	.LFE66:
 963              		.size	pbuf_free_callback, .-pbuf_free_callback
 964              		.section	.text.mem_free_callback,"ax",%progbits
 965              		.align	2
 966              		.global	mem_free_callback
 967              		.code	16
 968              		.thumb_func
 969              		.type	mem_free_callback, %function
 970              	mem_free_callback:
 971              	.LFB67:
 504:Source\LwIP\src\api/tcpip.c **** 
 505:Source\LwIP\src\api/tcpip.c **** /**
 506:Source\LwIP\src\api/tcpip.c ****  * A simple wrapper function that allows you to free heap memory from
 507:Source\LwIP\src\api/tcpip.c ****  * interrupt context.
 508:Source\LwIP\src\api/tcpip.c ****  *
 509:Source\LwIP\src\api/tcpip.c ****  * @param m the heap memory to free
 510:Source\LwIP\src\api/tcpip.c ****  * @return ERR_OK if callback could be enqueued, an err_t if not
 511:Source\LwIP\src\api/tcpip.c ****  */
 512:Source\LwIP\src\api/tcpip.c **** err_t
 513:Source\LwIP\src\api/tcpip.c **** mem_free_callback(void *m)
 514:Source\LwIP\src\api/tcpip.c **** {
 972              		.loc 1 514 0
 973              		.cfi_startproc
 974              		@ args = 0, pretend = 0, frame = 0
 975              		@ frame_needed = 0, uses_anonymous_args = 0
 976              	.LVL119:
 977 0000 10B5     		push	{r4, lr}
 978              		.cfi_def_cfa_offset 8
 979              		.cfi_offset 4, -8
 980              		.cfi_offset 14, -4
 981 0002 0100     		movs	r1, r0
ARM GAS  C:\Users\Phuong\AppData\Local\Temp\cc3aKFPW.s 			page 29


 515:Source\LwIP\src\api/tcpip.c ****   return tcpip_callback_with_block(mem_free, m, 0);
 982              		.loc 1 515 0
 983 0004 0022     		movs	r2, #0
 984 0006 0248     		ldr	r0, .L66
 985              	.LVL120:
 986 0008 FFF7FEFF 		bl	tcpip_callback_with_block
 987              	.LVL121:
 516:Source\LwIP\src\api/tcpip.c **** }
 988              		.loc 1 516 0
 989              		@ sp needed
 990 000c 10BD     		pop	{r4, pc}
 991              	.L67:
 992 000e C046     		.align	2
 993              	.L66:
 994 0010 00000000 		.word	mem_free
 995              		.cfi_endproc
 996              	.LFE67:
 997              		.size	mem_free_callback, .-mem_free_callback
 998              		.section	.rodata.str1.4,"aMS",%progbits,1
 999              		.align	2
 1000              	.LC3:
 1001 0000 536F7572 		.ascii	"Source\\LwIP\\src\\api\\tcpip.c\000"
 1001      63655C4C 
 1001      7749505C 
 1001      7372635C 
 1001      6170695C 
 1002              	.LC22:
 1003 001c 74637069 		.ascii	"tcpip_thread\000"
 1003      705F7468 
 1003      72656164 
 1003      00
 1004              		.bss
 1005              		.align	2
 1006              		.set	.LANCHOR0,. + 0
 1007              		.type	tcpip_init_done, %object
 1008              		.size	tcpip_init_done, 4
 1009              	tcpip_init_done:
 1010 0000 00000000 		.space	4
 1011              		.type	tcpip_init_done_arg, %object
 1012              		.size	tcpip_init_done_arg, 4
 1013              	tcpip_init_done_arg:
 1014 0004 00000000 		.space	4
 1015              		.type	mbox, %object
 1016              		.size	mbox, 4
 1017              	mbox:
 1018 0008 00000000 		.space	4
 1019              		.text
 1020              	.Letext0:
 1021              		.file 2 "c:\\program files (x86)\\cypress\\psoc creator\\4.2\\psoc creator\\import\\gnu\\arm\\5.4.
 1022              		.file 3 "c:\\program files (x86)\\cypress\\psoc creator\\4.2\\psoc creator\\import\\gnu\\arm\\5.4.
 1023              		.file 4 ".\\Source\\FreeRTOS\\10.0.1\\Source\\include/queue.h"
 1024              		.file 5 ".\\Source\\FreeRTOS\\10.0.1\\Source\\include/semphr.h"
 1025              		.file 6 ".\\Source\\LwIP\\src\\include/arch/sys_arch.h"
 1026              		.file 7 ".\\Source\\LwIP\\src\\include/arch/cc.h"
 1027              		.file 8 ".\\Source\\LwIP\\src\\include/lwip/err.h"
 1028              		.file 9 ".\\Source\\LwIP\\src\\include/lwip/timeouts.h"
 1029              		.file 10 ".\\Source\\LwIP\\src\\include/lwip/ip4_addr.h"
ARM GAS  C:\Users\Phuong\AppData\Local\Temp\cc3aKFPW.s 			page 30


 1030              		.file 11 ".\\Source\\LwIP\\src\\include/lwip/ip_addr.h"
 1031              		.file 12 ".\\Source\\LwIP\\src\\include/lwip/pbuf.h"
 1032              		.file 13 ".\\Source\\LwIP\\src\\include/lwip/memp.h"
 1033              		.file 14 ".\\Source\\LwIP\\src\\include/lwip/netif.h"
 1034              		.file 15 ".\\Source\\LwIP\\src\\include/lwip/tcpip.h"
 1035              		.file 16 ".\\Source\\LwIP\\src\\include/lwip/priv/tcpip_priv.h"
 1036              		.file 17 ".\\Source\\LwIP\\src\\include/lwip/sys.h"
 1037              		.file 18 ".\\Source\\LwIP\\src\\include/lwip/init.h"