ARM GAS  C:\Users\Phuong\AppData\Local\Temp\cc84n0Xc.s 			page 1


   1              		.syntax unified
   2              		.cpu cortex-m0plus
   3              		.fpu softvfp
   4              		.eabi_attribute 20, 1
   5              		.eabi_attribute 21, 1
   6              		.eabi_attribute 23, 3
   7              		.eabi_attribute 24, 1
   8              		.eabi_attribute 25, 1
   9              		.eabi_attribute 26, 1
  10              		.eabi_attribute 30, 1
  11              		.eabi_attribute 34, 0
  12              		.eabi_attribute 18, 4
  13              		.thumb
  14              		.syntax unified
  15              		.file	"TCPSocketConnection.cpp"
  16              		.text
  17              	.Ltext0:
  18              		.cfi_sections	.debug_frame
  19              		.section	.text._ZN19TCPSocketConnectionC2Ev,"ax",%progbits
  20              		.align	2
  21              		.global	_ZN19TCPSocketConnectionC2Ev
  22              		.code	16
  23              		.thumb_func
  24              		.type	_ZN19TCPSocketConnectionC2Ev, %function
  25              	_ZN19TCPSocketConnectionC2Ev:
  26              	.LFB61:
  27              		.file 1 "Source\\azure_iot_sdk\\c-utility\\Socket\\src\\TCPSocketConnection.cpp"
   1:Source\azure_iot_sdk\c-utility\Socket\src/TCPSocketConnection.cpp **** /* Copyright (C) 2012 mbed.org, MIT License
   2:Source\azure_iot_sdk\c-utility\Socket\src/TCPSocketConnection.cpp ****  *
   3:Source\azure_iot_sdk\c-utility\Socket\src/TCPSocketConnection.cpp ****  * Permission is hereby granted, free of charge, to any person obtaining a copy of this software
   4:Source\azure_iot_sdk\c-utility\Socket\src/TCPSocketConnection.cpp ****  * and associated documentation files (the "Software"), to deal in the Software without restriction
   5:Source\azure_iot_sdk\c-utility\Socket\src/TCPSocketConnection.cpp ****  * including without limitation the rights to use, copy, modify, merge, publish, distribute,
   6:Source\azure_iot_sdk\c-utility\Socket\src/TCPSocketConnection.cpp ****  * sublicense, and/or sell copies of the Software, and to permit persons to whom the Software is
   7:Source\azure_iot_sdk\c-utility\Socket\src/TCPSocketConnection.cpp ****  * furnished to do so, subject to the following conditions:
   8:Source\azure_iot_sdk\c-utility\Socket\src/TCPSocketConnection.cpp ****  *
   9:Source\azure_iot_sdk\c-utility\Socket\src/TCPSocketConnection.cpp ****  * The above copyright notice and this permission notice shall be included in all copies or
  10:Source\azure_iot_sdk\c-utility\Socket\src/TCPSocketConnection.cpp ****  * substantial portions of the Software.
  11:Source\azure_iot_sdk\c-utility\Socket\src/TCPSocketConnection.cpp ****  *
  12:Source\azure_iot_sdk\c-utility\Socket\src/TCPSocketConnection.cpp ****  * THE SOFTWARE IS PROVIDED "AS IS", WITHOUT WARRANTY OF ANY KIND, EXPRESS OR IMPLIED, INCLUDING
  13:Source\azure_iot_sdk\c-utility\Socket\src/TCPSocketConnection.cpp ****  * BUT NOT LIMITED TO THE WARRANTIES OF MERCHANTABILITY, FITNESS FOR A PARTICULAR PURPOSE AND
  14:Source\azure_iot_sdk\c-utility\Socket\src/TCPSocketConnection.cpp ****  * NONINFRINGEMENT. IN NO EVENT SHALL THE AUTHORS OR COPYRIGHT HOLDERS BE LIABLE FOR ANY CLAIM,
  15:Source\azure_iot_sdk\c-utility\Socket\src/TCPSocketConnection.cpp ****  * DAMAGES OR OTHER LIABILITY, WHETHER IN AN ACTION OF CONTRACT, TORT OR OTHERWISE, ARISING FROM,
  16:Source\azure_iot_sdk\c-utility\Socket\src/TCPSocketConnection.cpp ****  * OUT OF OR IN CONNECTION WITH THE SOFTWARE OR THE USE OR OTHER DEALINGS IN THE SOFTWARE.
  17:Source\azure_iot_sdk\c-utility\Socket\src/TCPSocketConnection.cpp ****  */
  18:Source\azure_iot_sdk\c-utility\Socket\src/TCPSocketConnection.cpp **** #include "TCPSocketConnection.h"
  19:Source\azure_iot_sdk\c-utility\Socket\src/TCPSocketConnection.cpp **** //#include "lwip/sockets.h"
  20:Source\azure_iot_sdk\c-utility\Socket\src/TCPSocketConnection.cpp **** #include <cstring>
  21:Source\azure_iot_sdk\c-utility\Socket\src/TCPSocketConnection.cpp **** 
  22:Source\azure_iot_sdk\c-utility\Socket\src/TCPSocketConnection.cpp **** using std::memset;
  23:Source\azure_iot_sdk\c-utility\Socket\src/TCPSocketConnection.cpp **** using std::memcpy;
  24:Source\azure_iot_sdk\c-utility\Socket\src/TCPSocketConnection.cpp **** 
  25:Source\azure_iot_sdk\c-utility\Socket\src/TCPSocketConnection.cpp **** TCPSocketConnection::TCPSocketConnection() :
  28              		.loc 1 25 0
  29              		.cfi_startproc
  30              		@ args = 0, pretend = 0, frame = 0
  31              		@ frame_needed = 0, uses_anonymous_args = 0
  32              	.LVL0:
ARM GAS  C:\Users\Phuong\AppData\Local\Temp\cc84n0Xc.s 			page 2


  33 0000 10B5     		push	{r4, lr}
  34              		.cfi_def_cfa_offset 8
  35              		.cfi_offset 4, -8
  36              		.cfi_offset 14, -4
  37 0002 0400     		movs	r4, r0
  38              	.LBB2:
  26:Source\azure_iot_sdk\c-utility\Socket\src/TCPSocketConnection.cpp ****         _is_connected(false) {
  39              		.loc 1 26 0
  40 0004 FFF7FEFF 		bl	_ZN6SocketC2Ev
  41              	.LVL1:
  42 0008 2000     		movs	r0, r4
  43 000a 0C30     		adds	r0, r0, #12
  44 000c FFF7FEFF 		bl	_ZN8EndpointC2Ev
  45              	.LVL2:
  46 0010 0022     		movs	r2, #0
  47 0012 3023     		movs	r3, #48
  48 0014 E254     		strb	r2, [r4, r3]
  49              	.LBE2:
  27:Source\azure_iot_sdk\c-utility\Socket\src/TCPSocketConnection.cpp **** }
  50              		.loc 1 27 0
  51 0016 2000     		movs	r0, r4
  52              		@ sp needed
  53              	.LVL3:
  54 0018 10BD     		pop	{r4, pc}
  55              		.cfi_endproc
  56              	.LFE61:
  57              		.size	_ZN19TCPSocketConnectionC2Ev, .-_ZN19TCPSocketConnectionC2Ev
  58              		.global	_ZN19TCPSocketConnectionC1Ev
  59              		.thumb_set _ZN19TCPSocketConnectionC1Ev,_ZN19TCPSocketConnectionC2Ev
  60 001a C046     		.section	.text._ZN19TCPSocketConnection7connectEPKci,"ax",%progbits
  61              		.align	2
  62              		.global	_ZN19TCPSocketConnection7connectEPKci
  63              		.code	16
  64              		.thumb_func
  65              		.type	_ZN19TCPSocketConnection7connectEPKci, %function
  66              	_ZN19TCPSocketConnection7connectEPKci:
  67              	.LFB63:
  28:Source\azure_iot_sdk\c-utility\Socket\src/TCPSocketConnection.cpp **** 
  29:Source\azure_iot_sdk\c-utility\Socket\src/TCPSocketConnection.cpp **** int TCPSocketConnection::connect(const char* host, const int port) {
  68              		.loc 1 29 0
  69              		.cfi_startproc
  70              		@ args = 0, pretend = 0, frame = 0
  71              		@ frame_needed = 0, uses_anonymous_args = 0
  72              	.LVL4:
  73 0000 70B5     		push	{r4, r5, r6, lr}
  74              		.cfi_def_cfa_offset 16
  75              		.cfi_offset 4, -16
  76              		.cfi_offset 5, -12
  77              		.cfi_offset 6, -8
  78              		.cfi_offset 14, -4
  79 0002 0400     		movs	r4, r0
  80 0004 0D00     		movs	r5, r1
  81 0006 1600     		movs	r6, r2
  30:Source\azure_iot_sdk\c-utility\Socket\src/TCPSocketConnection.cpp ****     if (init_socket(SOCK_STREAM) < 0)
  82              		.loc 1 30 0
  83 0008 0121     		movs	r1, #1
  84              	.LVL5:
ARM GAS  C:\Users\Phuong\AppData\Local\Temp\cc84n0Xc.s 			page 3


  85 000a FFF7FEFF 		bl	_ZN6Socket11init_socketEi
  86              	.LVL6:
  87 000e 0028     		cmp	r0, #0
  88 0010 1FDB     		blt	.L5
  31:Source\azure_iot_sdk\c-utility\Socket\src/TCPSocketConnection.cpp ****         return -1;
  32:Source\azure_iot_sdk\c-utility\Socket\src/TCPSocketConnection.cpp ****     
  33:Source\azure_iot_sdk\c-utility\Socket\src/TCPSocketConnection.cpp ****     if (set_address(host, port) != 0)
  89              		.loc 1 33 0
  90 0012 2000     		movs	r0, r4
  91 0014 0C30     		adds	r0, r0, #12
  92 0016 3200     		movs	r2, r6
  93 0018 2900     		movs	r1, r5
  94 001a FFF7FEFF 		bl	_ZN8Endpoint11set_addressEPKci
  95              	.LVL7:
  96 001e 051E     		subs	r5, r0, #0
  97              	.LVL8:
  98 0020 1AD1     		bne	.L6
  34:Source\azure_iot_sdk\c-utility\Socket\src/TCPSocketConnection.cpp ****         return -1;
  35:Source\azure_iot_sdk\c-utility\Socket\src/TCPSocketConnection.cpp ****     
  36:Source\azure_iot_sdk\c-utility\Socket\src/TCPSocketConnection.cpp ****     if (lwip_connect(_sock_fd, (const struct sockaddr *) &_remoteHost, sizeof(_remoteHost)) < 0) {
  99              		.loc 1 36 0
 100 0022 2100     		movs	r1, r4
 101 0024 2031     		adds	r1, r1, #32
 102 0026 1022     		movs	r2, #16
 103 0028 2068     		ldr	r0, [r4]
 104 002a FFF7FEFF 		bl	lwip_connect
 105              	.LVL9:
 106 002e 0028     		cmp	r0, #0
 107 0030 05DA     		bge	.L4
  37:Source\azure_iot_sdk\c-utility\Socket\src/TCPSocketConnection.cpp ****         close();
 108              		.loc 1 37 0
 109 0032 0121     		movs	r1, #1
 110 0034 2000     		movs	r0, r4
 111 0036 FFF7FEFF 		bl	_ZN6Socket5closeEb
 112              	.LVL10:
  38:Source\azure_iot_sdk\c-utility\Socket\src/TCPSocketConnection.cpp ****         return -1;
 113              		.loc 1 38 0
 114 003a 013D     		subs	r5, r5, #1
 115 003c 0EE0     		b	.L3
 116              	.L4:
  39:Source\azure_iot_sdk\c-utility\Socket\src/TCPSocketConnection.cpp ****     }
  40:Source\azure_iot_sdk\c-utility\Socket\src/TCPSocketConnection.cpp ****     _is_connected = true;
 117              		.loc 1 40 0
 118 003e 0122     		movs	r2, #1
 119 0040 3023     		movs	r3, #48
 120 0042 E254     		strb	r2, [r4, r3]
 121              	.LVL11:
  41:Source\azure_iot_sdk\c-utility\Socket\src/TCPSocketConnection.cpp ****     
  42:Source\azure_iot_sdk\c-utility\Socket\src/TCPSocketConnection.cpp ****     char *hello = "Hello from Azure IoT SDK on PSOC6!";
  43:Source\azure_iot_sdk\c-utility\Socket\src/TCPSocketConnection.cpp ****     lwip_send(_sock_fd , hello , strlen(hello) , 0 ); // for testing purpose
 122              		.loc 1 43 0
 123 0044 2068     		ldr	r0, [r4]
 124 0046 0023     		movs	r3, #0
 125 0048 2132     		adds	r2, r2, #33
 126 004a 0549     		ldr	r1, .L7
 127 004c FFF7FEFF 		bl	lwip_send
 128              	.LVL12:
ARM GAS  C:\Users\Phuong\AppData\Local\Temp\cc84n0Xc.s 			page 4


  44:Source\azure_iot_sdk\c-utility\Socket\src/TCPSocketConnection.cpp ****     
  45:Source\azure_iot_sdk\c-utility\Socket\src/TCPSocketConnection.cpp ****     return 0;
 129              		.loc 1 45 0
 130 0050 04E0     		b	.L3
 131              	.LVL13:
 132              	.L5:
  31:Source\azure_iot_sdk\c-utility\Socket\src/TCPSocketConnection.cpp ****     
 133              		.loc 1 31 0
 134 0052 0125     		movs	r5, #1
 135              	.LVL14:
 136 0054 6D42     		rsbs	r5, r5, #0
 137 0056 01E0     		b	.L3
 138              	.L6:
  34:Source\azure_iot_sdk\c-utility\Socket\src/TCPSocketConnection.cpp ****     
 139              		.loc 1 34 0
 140 0058 0125     		movs	r5, #1
 141 005a 6D42     		rsbs	r5, r5, #0
 142              	.L3:
  46:Source\azure_iot_sdk\c-utility\Socket\src/TCPSocketConnection.cpp **** }
 143              		.loc 1 46 0
 144 005c 2800     		movs	r0, r5
 145              		@ sp needed
 146              	.LVL15:
 147              	.LVL16:
 148 005e 70BD     		pop	{r4, r5, r6, pc}
 149              	.L8:
 150              		.align	2
 151              	.L7:
 152 0060 00000000 		.word	.LC0
 153              		.cfi_endproc
 154              	.LFE63:
 155              		.size	_ZN19TCPSocketConnection7connectEPKci, .-_ZN19TCPSocketConnection7connectEPKci
 156              		.section	.text._ZN19TCPSocketConnection12is_connectedEv,"ax",%progbits
 157              		.align	2
 158              		.global	_ZN19TCPSocketConnection12is_connectedEv
 159              		.code	16
 160              		.thumb_func
 161              		.type	_ZN19TCPSocketConnection12is_connectedEv, %function
 162              	_ZN19TCPSocketConnection12is_connectedEv:
 163              	.LFB64:
  47:Source\azure_iot_sdk\c-utility\Socket\src/TCPSocketConnection.cpp **** 
  48:Source\azure_iot_sdk\c-utility\Socket\src/TCPSocketConnection.cpp **** bool TCPSocketConnection::is_connected(void) {
 164              		.loc 1 48 0
 165              		.cfi_startproc
 166              		@ args = 0, pretend = 0, frame = 0
 167              		@ frame_needed = 0, uses_anonymous_args = 0
 168              		@ link register save eliminated.
 169              	.LVL17:
  49:Source\azure_iot_sdk\c-utility\Socket\src/TCPSocketConnection.cpp ****     return _is_connected;
 170              		.loc 1 49 0
 171 0000 3023     		movs	r3, #48
 172 0002 C05C     		ldrb	r0, [r0, r3]
 173              	.LVL18:
  50:Source\azure_iot_sdk\c-utility\Socket\src/TCPSocketConnection.cpp **** }
 174              		.loc 1 50 0
 175              		@ sp needed
 176 0004 7047     		bx	lr
ARM GAS  C:\Users\Phuong\AppData\Local\Temp\cc84n0Xc.s 			page 5


 177              		.cfi_endproc
 178              	.LFE64:
 179              		.size	_ZN19TCPSocketConnection12is_connectedEv, .-_ZN19TCPSocketConnection12is_connectedEv
 180 0006 C046     		.section	.text._ZN19TCPSocketConnection4sendEPci,"ax",%progbits
 181              		.align	2
 182              		.global	_ZN19TCPSocketConnection4sendEPci
 183              		.code	16
 184              		.thumb_func
 185              		.type	_ZN19TCPSocketConnection4sendEPci, %function
 186              	_ZN19TCPSocketConnection4sendEPci:
 187              	.LFB65:
  51:Source\azure_iot_sdk\c-utility\Socket\src/TCPSocketConnection.cpp **** 
  52:Source\azure_iot_sdk\c-utility\Socket\src/TCPSocketConnection.cpp **** int TCPSocketConnection::send(char* data, int length) {
 188              		.loc 1 52 0
 189              		.cfi_startproc
 190              		@ args = 0, pretend = 0, frame = 8
 191              		@ frame_needed = 0, uses_anonymous_args = 0
 192              	.LVL19:
 193 0000 70B5     		push	{r4, r5, r6, lr}
 194              		.cfi_def_cfa_offset 16
 195              		.cfi_offset 4, -16
 196              		.cfi_offset 5, -12
 197              		.cfi_offset 6, -8
 198              		.cfi_offset 14, -4
 199 0002 82B0     		sub	sp, sp, #8
 200              		.cfi_def_cfa_offset 24
 201 0004 0400     		movs	r4, r0
 202 0006 0D00     		movs	r5, r1
 203 0008 1600     		movs	r6, r2
  53:Source\azure_iot_sdk\c-utility\Socket\src/TCPSocketConnection.cpp ****     if ((_sock_fd < 0) || !_is_connected)
 204              		.loc 1 53 0
 205 000a 0368     		ldr	r3, [r0]
 206 000c 002B     		cmp	r3, #0
 207 000e 1FDB     		blt	.L14
 208              		.loc 1 53 0 is_stmt 0 discriminator 1
 209 0010 3023     		movs	r3, #48
 210 0012 C35C     		ldrb	r3, [r0, r3]
 211 0014 002B     		cmp	r3, #0
 212 0016 1ED0     		beq	.L15
 213              	.LBB3:
  54:Source\azure_iot_sdk\c-utility\Socket\src/TCPSocketConnection.cpp ****         return -1;
  55:Source\azure_iot_sdk\c-utility\Socket\src/TCPSocketConnection.cpp ****     
  56:Source\azure_iot_sdk\c-utility\Socket\src/TCPSocketConnection.cpp ****     if (!_blocking) {
 214              		.loc 1 56 0 is_stmt 1
 215 0018 0379     		ldrb	r3, [r0, #4]
 216 001a 002B     		cmp	r3, #0
 217 001c 0CD1     		bne	.L12
 218              	.LBB4:
  57:Source\azure_iot_sdk\c-utility\Socket\src/TCPSocketConnection.cpp ****         TimeInterval timeout(_timeout);
 219              		.loc 1 57 0
 220 001e 8168     		ldr	r1, [r0, #8]
 221              	.LVL20:
 222 0020 6846     		mov	r0, sp
 223              	.LVL21:
 224 0022 FFF7FEFF 		bl	_ZN12TimeIntervalC1Ej
 225              	.LVL22:
  58:Source\azure_iot_sdk\c-utility\Socket\src/TCPSocketConnection.cpp ****         if (wait_writable(timeout) != 0)
ARM GAS  C:\Users\Phuong\AppData\Local\Temp\cc84n0Xc.s 			page 6


 226              		.loc 1 58 0
 227 0026 6946     		mov	r1, sp
 228 0028 2000     		movs	r0, r4
 229 002a FFF7FEFF 		bl	_ZN6Socket13wait_writableER12TimeInterval
 230              	.LVL23:
 231 002e 0028     		cmp	r0, #0
 232 0030 02D0     		beq	.L12
  59:Source\azure_iot_sdk\c-utility\Socket\src/TCPSocketConnection.cpp ****             return -1;
 233              		.loc 1 59 0
 234 0032 0120     		movs	r0, #1
 235 0034 4042     		rsbs	r0, r0, #0
 236 0036 10E0     		b	.L11
 237              	.L12:
 238              	.LBE4:
 239              	.LBE3:
  60:Source\azure_iot_sdk\c-utility\Socket\src/TCPSocketConnection.cpp ****     }
  61:Source\azure_iot_sdk\c-utility\Socket\src/TCPSocketConnection.cpp ****     
  62:Source\azure_iot_sdk\c-utility\Socket\src/TCPSocketConnection.cpp ****     int n = lwip_send(_sock_fd, data, length, 0);
 240              		.loc 1 62 0
 241 0038 0023     		movs	r3, #0
 242 003a 3200     		movs	r2, r6
 243 003c 2900     		movs	r1, r5
 244 003e 2068     		ldr	r0, [r4]
 245 0040 FFF7FEFF 		bl	lwip_send
 246              	.LVL24:
  63:Source\azure_iot_sdk\c-utility\Socket\src/TCPSocketConnection.cpp ****     _is_connected = (n != 0);
 247              		.loc 1 63 0
 248 0044 0200     		movs	r2, r0
 249 0046 531E     		subs	r3, r2, #1
 250 0048 9A41     		sbcs	r2, r2, r3
 251 004a 3023     		movs	r3, #48
 252 004c E254     		strb	r2, [r4, r3]
  64:Source\azure_iot_sdk\c-utility\Socket\src/TCPSocketConnection.cpp ****     
  65:Source\azure_iot_sdk\c-utility\Socket\src/TCPSocketConnection.cpp ****     return n;
 253              		.loc 1 65 0
 254 004e 04E0     		b	.L11
 255              	.LVL25:
 256              	.L14:
  54:Source\azure_iot_sdk\c-utility\Socket\src/TCPSocketConnection.cpp ****     
 257              		.loc 1 54 0
 258 0050 0120     		movs	r0, #1
 259              	.LVL26:
 260 0052 4042     		rsbs	r0, r0, #0
 261 0054 01E0     		b	.L11
 262              	.LVL27:
 263              	.L15:
 264 0056 0120     		movs	r0, #1
 265              	.LVL28:
 266 0058 4042     		rsbs	r0, r0, #0
 267              	.LVL29:
 268              	.L11:
  66:Source\azure_iot_sdk\c-utility\Socket\src/TCPSocketConnection.cpp **** }
 269              		.loc 1 66 0
 270 005a 02B0     		add	sp, sp, #8
 271              		@ sp needed
 272              	.LVL30:
 273              	.LVL31:
ARM GAS  C:\Users\Phuong\AppData\Local\Temp\cc84n0Xc.s 			page 7


 274              	.LVL32:
 275 005c 70BD     		pop	{r4, r5, r6, pc}
 276              		.cfi_endproc
 277              	.LFE65:
 278              		.size	_ZN19TCPSocketConnection4sendEPci, .-_ZN19TCPSocketConnection4sendEPci
 279 005e C046     		.section	.text._ZN19TCPSocketConnection8send_allEPci,"ax",%progbits
 280              		.align	2
 281              		.global	_ZN19TCPSocketConnection8send_allEPci
 282              		.code	16
 283              		.thumb_func
 284              		.type	_ZN19TCPSocketConnection8send_allEPci, %function
 285              	_ZN19TCPSocketConnection8send_allEPci:
 286              	.LFB66:
  67:Source\azure_iot_sdk\c-utility\Socket\src/TCPSocketConnection.cpp **** 
  68:Source\azure_iot_sdk\c-utility\Socket\src/TCPSocketConnection.cpp **** // -1 if unsuccessful, else number of bytes written
  69:Source\azure_iot_sdk\c-utility\Socket\src/TCPSocketConnection.cpp **** int TCPSocketConnection::send_all(char* data, int length) {
 287              		.loc 1 69 0
 288              		.cfi_startproc
 289              		@ args = 0, pretend = 0, frame = 8
 290              		@ frame_needed = 0, uses_anonymous_args = 0
 291              	.LVL33:
 292 0000 F0B5     		push	{r4, r5, r6, r7, lr}
 293              		.cfi_def_cfa_offset 20
 294              		.cfi_offset 4, -20
 295              		.cfi_offset 5, -16
 296              		.cfi_offset 6, -12
 297              		.cfi_offset 7, -8
 298              		.cfi_offset 14, -4
 299 0002 83B0     		sub	sp, sp, #12
 300              		.cfi_def_cfa_offset 32
 301 0004 0500     		movs	r5, r0
 302 0006 0F00     		movs	r7, r1
 303 0008 1600     		movs	r6, r2
  70:Source\azure_iot_sdk\c-utility\Socket\src/TCPSocketConnection.cpp ****     if ((_sock_fd < 0) || !_is_connected)
 304              		.loc 1 70 0
 305 000a 0368     		ldr	r3, [r0]
 306 000c 002B     		cmp	r3, #0
 307 000e 24DB     		blt	.L21
 308              		.loc 1 70 0 is_stmt 0 discriminator 1
 309 0010 3023     		movs	r3, #48
 310 0012 C35C     		ldrb	r3, [r0, r3]
 311 0014 002B     		cmp	r3, #0
 312 0016 23D0     		beq	.L22
 313              	.LVL34:
  71:Source\azure_iot_sdk\c-utility\Socket\src/TCPSocketConnection.cpp ****         return -1;
  72:Source\azure_iot_sdk\c-utility\Socket\src/TCPSocketConnection.cpp ****     
  73:Source\azure_iot_sdk\c-utility\Socket\src/TCPSocketConnection.cpp ****     int writtenLen = 0;
  74:Source\azure_iot_sdk\c-utility\Socket\src/TCPSocketConnection.cpp ****     TimeInterval timeout(_timeout);
 314              		.loc 1 74 0 is_stmt 1
 315 0018 8168     		ldr	r1, [r0, #8]
 316              	.LVL35:
 317 001a 6846     		mov	r0, sp
 318              	.LVL36:
 319 001c FFF7FEFF 		bl	_ZN12TimeIntervalC1Ej
 320              	.LVL37:
  73:Source\azure_iot_sdk\c-utility\Socket\src/TCPSocketConnection.cpp ****     TimeInterval timeout(_timeout);
 321              		.loc 1 73 0
ARM GAS  C:\Users\Phuong\AppData\Local\Temp\cc84n0Xc.s 			page 8


 322 0020 0024     		movs	r4, #0
 323              	.LVL38:
 324              	.L20:
  75:Source\azure_iot_sdk\c-utility\Socket\src/TCPSocketConnection.cpp ****     while (writtenLen < length) {
 325              		.loc 1 75 0
 326 0022 B442     		cmp	r4, r6
 327 0024 1FDA     		bge	.L23
 328              	.LBB5:
  76:Source\azure_iot_sdk\c-utility\Socket\src/TCPSocketConnection.cpp ****         if (!_blocking) {
 329              		.loc 1 76 0
 330 0026 2B79     		ldrb	r3, [r5, #4]
 331 0028 002B     		cmp	r3, #0
 332 002a 05D1     		bne	.L18
  77:Source\azure_iot_sdk\c-utility\Socket\src/TCPSocketConnection.cpp ****             // Wait for socket to be writeable
  78:Source\azure_iot_sdk\c-utility\Socket\src/TCPSocketConnection.cpp ****             if (wait_writable(timeout) != 0)
 333              		.loc 1 78 0
 334 002c 6946     		mov	r1, sp
 335 002e 2800     		movs	r0, r5
 336 0030 FFF7FEFF 		bl	_ZN6Socket13wait_writableER12TimeInterval
 337              	.LVL39:
 338 0034 0028     		cmp	r0, #0
 339 0036 18D1     		bne	.L24
 340              	.L18:
  79:Source\azure_iot_sdk\c-utility\Socket\src/TCPSocketConnection.cpp ****                 return writtenLen;
  80:Source\azure_iot_sdk\c-utility\Socket\src/TCPSocketConnection.cpp ****         }
  81:Source\azure_iot_sdk\c-utility\Socket\src/TCPSocketConnection.cpp ****         
  82:Source\azure_iot_sdk\c-utility\Socket\src/TCPSocketConnection.cpp ****         int ret = lwip_send(_sock_fd, data + writtenLen, length - writtenLen, 0);
 341              		.loc 1 82 0
 342 0038 3919     		adds	r1, r7, r4
 343 003a 321B     		subs	r2, r6, r4
 344 003c 0023     		movs	r3, #0
 345 003e 2868     		ldr	r0, [r5]
 346 0040 FFF7FEFF 		bl	lwip_send
 347              	.LVL40:
  83:Source\azure_iot_sdk\c-utility\Socket\src/TCPSocketConnection.cpp ****         if (ret > 0) {
 348              		.loc 1 83 0
 349 0044 0028     		cmp	r0, #0
 350 0046 01DD     		ble	.L19
  84:Source\azure_iot_sdk\c-utility\Socket\src/TCPSocketConnection.cpp ****             writtenLen += ret;
 351              		.loc 1 84 0
 352 0048 2418     		adds	r4, r4, r0
 353              	.LVL41:
 354              	.LBE5:
  75:Source\azure_iot_sdk\c-utility\Socket\src/TCPSocketConnection.cpp ****         if (!_blocking) {
 355              		.loc 1 75 0
 356 004a EAE7     		b	.L20
 357              	.L19:
 358              	.LBB6:
  85:Source\azure_iot_sdk\c-utility\Socket\src/TCPSocketConnection.cpp ****             continue;
  86:Source\azure_iot_sdk\c-utility\Socket\src/TCPSocketConnection.cpp ****         } else if (ret == 0) {
 359              		.loc 1 86 0
 360 004c 0028     		cmp	r0, #0
 361 004e 0ED1     		bne	.L25
  87:Source\azure_iot_sdk\c-utility\Socket\src/TCPSocketConnection.cpp ****             _is_connected = false;
 362              		.loc 1 87 0
 363 0050 0022     		movs	r2, #0
 364 0052 3023     		movs	r3, #48
ARM GAS  C:\Users\Phuong\AppData\Local\Temp\cc84n0Xc.s 			page 9


 365 0054 EA54     		strb	r2, [r5, r3]
  88:Source\azure_iot_sdk\c-utility\Socket\src/TCPSocketConnection.cpp ****             return writtenLen;
 366              		.loc 1 88 0
 367 0056 2000     		movs	r0, r4
 368              	.LVL42:
 369 0058 0BE0     		b	.L17
 370              	.LVL43:
 371              	.L21:
 372              	.LBE6:
  71:Source\azure_iot_sdk\c-utility\Socket\src/TCPSocketConnection.cpp ****     
 373              		.loc 1 71 0
 374 005a 0120     		movs	r0, #1
 375              	.LVL44:
 376 005c 4042     		rsbs	r0, r0, #0
 377 005e 08E0     		b	.L17
 378              	.LVL45:
 379              	.L22:
 380 0060 0120     		movs	r0, #1
 381              	.LVL46:
 382 0062 4042     		rsbs	r0, r0, #0
 383 0064 05E0     		b	.L17
 384              	.LVL47:
 385              	.L23:
  89:Source\azure_iot_sdk\c-utility\Socket\src/TCPSocketConnection.cpp ****         } else {
  90:Source\azure_iot_sdk\c-utility\Socket\src/TCPSocketConnection.cpp ****             return -1; //Connnection error
  91:Source\azure_iot_sdk\c-utility\Socket\src/TCPSocketConnection.cpp ****         }
  92:Source\azure_iot_sdk\c-utility\Socket\src/TCPSocketConnection.cpp ****     }
  93:Source\azure_iot_sdk\c-utility\Socket\src/TCPSocketConnection.cpp ****     return writtenLen;
 386              		.loc 1 93 0
 387 0066 2000     		movs	r0, r4
 388 0068 03E0     		b	.L17
 389              	.L24:
 390              	.LBB7:
  79:Source\azure_iot_sdk\c-utility\Socket\src/TCPSocketConnection.cpp ****         }
 391              		.loc 1 79 0
 392 006a 2000     		movs	r0, r4
 393 006c 01E0     		b	.L17
 394              	.LVL48:
 395              	.L25:
  90:Source\azure_iot_sdk\c-utility\Socket\src/TCPSocketConnection.cpp ****         }
 396              		.loc 1 90 0
 397 006e 0120     		movs	r0, #1
 398              	.LVL49:
 399 0070 4042     		rsbs	r0, r0, #0
 400              	.LVL50:
 401              	.L17:
 402              	.LBE7:
  94:Source\azure_iot_sdk\c-utility\Socket\src/TCPSocketConnection.cpp **** }
 403              		.loc 1 94 0
 404 0072 03B0     		add	sp, sp, #12
 405              		@ sp needed
 406              	.LVL51:
 407              	.LVL52:
 408              	.LVL53:
 409 0074 F0BD     		pop	{r4, r5, r6, r7, pc}
 410              		.cfi_endproc
 411              	.LFE66:
ARM GAS  C:\Users\Phuong\AppData\Local\Temp\cc84n0Xc.s 			page 10


 412              		.size	_ZN19TCPSocketConnection8send_allEPci, .-_ZN19TCPSocketConnection8send_allEPci
 413 0076 C046     		.section	.text._ZN19TCPSocketConnection7receiveEPci,"ax",%progbits
 414              		.align	2
 415              		.global	_ZN19TCPSocketConnection7receiveEPci
 416              		.code	16
 417              		.thumb_func
 418              		.type	_ZN19TCPSocketConnection7receiveEPci, %function
 419              	_ZN19TCPSocketConnection7receiveEPci:
 420              	.LFB67:
  95:Source\azure_iot_sdk\c-utility\Socket\src/TCPSocketConnection.cpp **** 
  96:Source\azure_iot_sdk\c-utility\Socket\src/TCPSocketConnection.cpp **** int TCPSocketConnection::receive(char* data, int length) {
 421              		.loc 1 96 0
 422              		.cfi_startproc
 423              		@ args = 0, pretend = 0, frame = 8
 424              		@ frame_needed = 0, uses_anonymous_args = 0
 425              	.LVL54:
 426 0000 70B5     		push	{r4, r5, r6, lr}
 427              		.cfi_def_cfa_offset 16
 428              		.cfi_offset 4, -16
 429              		.cfi_offset 5, -12
 430              		.cfi_offset 6, -8
 431              		.cfi_offset 14, -4
 432 0002 82B0     		sub	sp, sp, #8
 433              		.cfi_def_cfa_offset 24
 434 0004 0400     		movs	r4, r0
 435 0006 0D00     		movs	r5, r1
 436 0008 1600     		movs	r6, r2
  97:Source\azure_iot_sdk\c-utility\Socket\src/TCPSocketConnection.cpp ****     if ((_sock_fd < 0) || !_is_connected)
 437              		.loc 1 97 0
 438 000a 0368     		ldr	r3, [r0]
 439 000c 002B     		cmp	r3, #0
 440 000e 1FDB     		blt	.L30
 441              		.loc 1 97 0 is_stmt 0 discriminator 1
 442 0010 3023     		movs	r3, #48
 443 0012 C35C     		ldrb	r3, [r0, r3]
 444 0014 002B     		cmp	r3, #0
 445 0016 1ED0     		beq	.L31
 446              	.LBB8:
  98:Source\azure_iot_sdk\c-utility\Socket\src/TCPSocketConnection.cpp ****         return -1;
  99:Source\azure_iot_sdk\c-utility\Socket\src/TCPSocketConnection.cpp ****     
 100:Source\azure_iot_sdk\c-utility\Socket\src/TCPSocketConnection.cpp ****     if (!_blocking) {
 447              		.loc 1 100 0 is_stmt 1
 448 0018 0379     		ldrb	r3, [r0, #4]
 449 001a 002B     		cmp	r3, #0
 450 001c 0CD1     		bne	.L28
 451              	.LBB9:
 101:Source\azure_iot_sdk\c-utility\Socket\src/TCPSocketConnection.cpp ****         TimeInterval timeout(_timeout);
 452              		.loc 1 101 0
 453 001e 8168     		ldr	r1, [r0, #8]
 454              	.LVL55:
 455 0020 6846     		mov	r0, sp
 456              	.LVL56:
 457 0022 FFF7FEFF 		bl	_ZN12TimeIntervalC1Ej
 458              	.LVL57:
 102:Source\azure_iot_sdk\c-utility\Socket\src/TCPSocketConnection.cpp ****         if (wait_readable(timeout) != 0)
 459              		.loc 1 102 0
 460 0026 6946     		mov	r1, sp
ARM GAS  C:\Users\Phuong\AppData\Local\Temp\cc84n0Xc.s 			page 11


 461 0028 2000     		movs	r0, r4
 462 002a FFF7FEFF 		bl	_ZN6Socket13wait_readableER12TimeInterval
 463              	.LVL58:
 464 002e 0028     		cmp	r0, #0
 465 0030 02D0     		beq	.L28
 103:Source\azure_iot_sdk\c-utility\Socket\src/TCPSocketConnection.cpp ****             return -1;
 466              		.loc 1 103 0
 467 0032 0120     		movs	r0, #1
 468 0034 4042     		rsbs	r0, r0, #0
 469 0036 10E0     		b	.L27
 470              	.L28:
 471              	.LBE9:
 472              	.LBE8:
 104:Source\azure_iot_sdk\c-utility\Socket\src/TCPSocketConnection.cpp ****     }
 105:Source\azure_iot_sdk\c-utility\Socket\src/TCPSocketConnection.cpp ****     
 106:Source\azure_iot_sdk\c-utility\Socket\src/TCPSocketConnection.cpp ****     int n = lwip_recv(_sock_fd, data, length, 0);
 473              		.loc 1 106 0
 474 0038 0023     		movs	r3, #0
 475 003a 3200     		movs	r2, r6
 476 003c 2900     		movs	r1, r5
 477 003e 2068     		ldr	r0, [r4]
 478 0040 FFF7FEFF 		bl	lwip_recv
 479              	.LVL59:
 107:Source\azure_iot_sdk\c-utility\Socket\src/TCPSocketConnection.cpp ****     _is_connected = (n != 0);
 480              		.loc 1 107 0
 481 0044 0200     		movs	r2, r0
 482 0046 531E     		subs	r3, r2, #1
 483 0048 9A41     		sbcs	r2, r2, r3
 484 004a 3023     		movs	r3, #48
 485 004c E254     		strb	r2, [r4, r3]
 108:Source\azure_iot_sdk\c-utility\Socket\src/TCPSocketConnection.cpp ****     
 109:Source\azure_iot_sdk\c-utility\Socket\src/TCPSocketConnection.cpp ****     return n;
 486              		.loc 1 109 0
 487 004e 04E0     		b	.L27
 488              	.LVL60:
 489              	.L30:
  98:Source\azure_iot_sdk\c-utility\Socket\src/TCPSocketConnection.cpp ****     
 490              		.loc 1 98 0
 491 0050 0120     		movs	r0, #1
 492              	.LVL61:
 493 0052 4042     		rsbs	r0, r0, #0
 494 0054 01E0     		b	.L27
 495              	.LVL62:
 496              	.L31:
 497 0056 0120     		movs	r0, #1
 498              	.LVL63:
 499 0058 4042     		rsbs	r0, r0, #0
 500              	.LVL64:
 501              	.L27:
 110:Source\azure_iot_sdk\c-utility\Socket\src/TCPSocketConnection.cpp **** }
 502              		.loc 1 110 0
 503 005a 02B0     		add	sp, sp, #8
 504              		@ sp needed
 505              	.LVL65:
 506              	.LVL66:
 507              	.LVL67:
 508 005c 70BD     		pop	{r4, r5, r6, pc}
ARM GAS  C:\Users\Phuong\AppData\Local\Temp\cc84n0Xc.s 			page 12


 509              		.cfi_endproc
 510              	.LFE67:
 511              		.size	_ZN19TCPSocketConnection7receiveEPci, .-_ZN19TCPSocketConnection7receiveEPci
 512 005e C046     		.section	.text._ZN19TCPSocketConnection11receive_allEPci,"ax",%progbits
 513              		.align	2
 514              		.global	_ZN19TCPSocketConnection11receive_allEPci
 515              		.code	16
 516              		.thumb_func
 517              		.type	_ZN19TCPSocketConnection11receive_allEPci, %function
 518              	_ZN19TCPSocketConnection11receive_allEPci:
 519              	.LFB68:
 111:Source\azure_iot_sdk\c-utility\Socket\src/TCPSocketConnection.cpp **** 
 112:Source\azure_iot_sdk\c-utility\Socket\src/TCPSocketConnection.cpp **** // -1 if unsuccessful, else number of bytes received
 113:Source\azure_iot_sdk\c-utility\Socket\src/TCPSocketConnection.cpp **** int TCPSocketConnection::receive_all(char* data, int length) {
 520              		.loc 1 113 0
 521              		.cfi_startproc
 522              		@ args = 0, pretend = 0, frame = 8
 523              		@ frame_needed = 0, uses_anonymous_args = 0
 524              	.LVL68:
 525 0000 F0B5     		push	{r4, r5, r6, r7, lr}
 526              		.cfi_def_cfa_offset 20
 527              		.cfi_offset 4, -20
 528              		.cfi_offset 5, -16
 529              		.cfi_offset 6, -12
 530              		.cfi_offset 7, -8
 531              		.cfi_offset 14, -4
 532 0002 83B0     		sub	sp, sp, #12
 533              		.cfi_def_cfa_offset 32
 534 0004 0500     		movs	r5, r0
 535 0006 0F00     		movs	r7, r1
 536 0008 1600     		movs	r6, r2
 114:Source\azure_iot_sdk\c-utility\Socket\src/TCPSocketConnection.cpp ****     if ((_sock_fd < 0) || !_is_connected)
 537              		.loc 1 114 0
 538 000a 0368     		ldr	r3, [r0]
 539 000c 002B     		cmp	r3, #0
 540 000e 24DB     		blt	.L37
 541              		.loc 1 114 0 is_stmt 0 discriminator 1
 542 0010 3023     		movs	r3, #48
 543 0012 C35C     		ldrb	r3, [r0, r3]
 544 0014 002B     		cmp	r3, #0
 545 0016 23D0     		beq	.L38
 546              	.LVL69:
 115:Source\azure_iot_sdk\c-utility\Socket\src/TCPSocketConnection.cpp ****         return -1;
 116:Source\azure_iot_sdk\c-utility\Socket\src/TCPSocketConnection.cpp ****     
 117:Source\azure_iot_sdk\c-utility\Socket\src/TCPSocketConnection.cpp ****     int readLen = 0;
 118:Source\azure_iot_sdk\c-utility\Socket\src/TCPSocketConnection.cpp ****     TimeInterval timeout(_timeout);
 547              		.loc 1 118 0 is_stmt 1
 548 0018 8168     		ldr	r1, [r0, #8]
 549              	.LVL70:
 550 001a 6846     		mov	r0, sp
 551              	.LVL71:
 552 001c FFF7FEFF 		bl	_ZN12TimeIntervalC1Ej
 553              	.LVL72:
 117:Source\azure_iot_sdk\c-utility\Socket\src/TCPSocketConnection.cpp ****     TimeInterval timeout(_timeout);
 554              		.loc 1 117 0
 555 0020 0024     		movs	r4, #0
 556              	.LVL73:
ARM GAS  C:\Users\Phuong\AppData\Local\Temp\cc84n0Xc.s 			page 13


 557              	.L36:
 119:Source\azure_iot_sdk\c-utility\Socket\src/TCPSocketConnection.cpp ****     while (readLen < length) {
 558              		.loc 1 119 0
 559 0022 B442     		cmp	r4, r6
 560 0024 1FDA     		bge	.L39
 561              	.LBB10:
 120:Source\azure_iot_sdk\c-utility\Socket\src/TCPSocketConnection.cpp ****         if (!_blocking) {
 562              		.loc 1 120 0
 563 0026 2B79     		ldrb	r3, [r5, #4]
 564 0028 002B     		cmp	r3, #0
 565 002a 05D1     		bne	.L34
 121:Source\azure_iot_sdk\c-utility\Socket\src/TCPSocketConnection.cpp ****             //Wait for socket to be readable
 122:Source\azure_iot_sdk\c-utility\Socket\src/TCPSocketConnection.cpp ****             if (wait_readable(timeout) != 0)
 566              		.loc 1 122 0
 567 002c 6946     		mov	r1, sp
 568 002e 2800     		movs	r0, r5
 569 0030 FFF7FEFF 		bl	_ZN6Socket13wait_readableER12TimeInterval
 570              	.LVL74:
 571 0034 0028     		cmp	r0, #0
 572 0036 18D1     		bne	.L40
 573              	.L34:
 123:Source\azure_iot_sdk\c-utility\Socket\src/TCPSocketConnection.cpp ****                 return readLen;
 124:Source\azure_iot_sdk\c-utility\Socket\src/TCPSocketConnection.cpp ****         }
 125:Source\azure_iot_sdk\c-utility\Socket\src/TCPSocketConnection.cpp ****         
 126:Source\azure_iot_sdk\c-utility\Socket\src/TCPSocketConnection.cpp ****         int ret = lwip_recv(_sock_fd, data + readLen, length - readLen, 0);
 574              		.loc 1 126 0
 575 0038 3919     		adds	r1, r7, r4
 576 003a 321B     		subs	r2, r6, r4
 577 003c 0023     		movs	r3, #0
 578 003e 2868     		ldr	r0, [r5]
 579 0040 FFF7FEFF 		bl	lwip_recv
 580              	.LVL75:
 127:Source\azure_iot_sdk\c-utility\Socket\src/TCPSocketConnection.cpp ****         if (ret > 0) {
 581              		.loc 1 127 0
 582 0044 0028     		cmp	r0, #0
 583 0046 01DD     		ble	.L35
 128:Source\azure_iot_sdk\c-utility\Socket\src/TCPSocketConnection.cpp ****             readLen += ret;
 584              		.loc 1 128 0
 585 0048 2418     		adds	r4, r4, r0
 586              	.LVL76:
 587              	.LBE10:
 119:Source\azure_iot_sdk\c-utility\Socket\src/TCPSocketConnection.cpp ****         if (!_blocking) {
 588              		.loc 1 119 0
 589 004a EAE7     		b	.L36
 590              	.L35:
 591              	.LBB11:
 129:Source\azure_iot_sdk\c-utility\Socket\src/TCPSocketConnection.cpp ****         } else if (ret == 0) {
 592              		.loc 1 129 0
 593 004c 0028     		cmp	r0, #0
 594 004e 0ED1     		bne	.L41
 130:Source\azure_iot_sdk\c-utility\Socket\src/TCPSocketConnection.cpp ****             _is_connected = false;
 595              		.loc 1 130 0
 596 0050 0022     		movs	r2, #0
 597 0052 3023     		movs	r3, #48
 598 0054 EA54     		strb	r2, [r5, r3]
 131:Source\azure_iot_sdk\c-utility\Socket\src/TCPSocketConnection.cpp ****             return readLen;
 599              		.loc 1 131 0
ARM GAS  C:\Users\Phuong\AppData\Local\Temp\cc84n0Xc.s 			page 14


 600 0056 2000     		movs	r0, r4
 601              	.LVL77:
 602 0058 0BE0     		b	.L33
 603              	.LVL78:
 604              	.L37:
 605              	.LBE11:
 115:Source\azure_iot_sdk\c-utility\Socket\src/TCPSocketConnection.cpp ****     
 606              		.loc 1 115 0
 607 005a 0120     		movs	r0, #1
 608              	.LVL79:
 609 005c 4042     		rsbs	r0, r0, #0
 610 005e 08E0     		b	.L33
 611              	.LVL80:
 612              	.L38:
 613 0060 0120     		movs	r0, #1
 614              	.LVL81:
 615 0062 4042     		rsbs	r0, r0, #0
 616 0064 05E0     		b	.L33
 617              	.LVL82:
 618              	.L39:
 132:Source\azure_iot_sdk\c-utility\Socket\src/TCPSocketConnection.cpp ****         } else {
 133:Source\azure_iot_sdk\c-utility\Socket\src/TCPSocketConnection.cpp ****             return -1; //Connnection error
 134:Source\azure_iot_sdk\c-utility\Socket\src/TCPSocketConnection.cpp ****         }
 135:Source\azure_iot_sdk\c-utility\Socket\src/TCPSocketConnection.cpp ****     }
 136:Source\azure_iot_sdk\c-utility\Socket\src/TCPSocketConnection.cpp ****     return readLen;
 619              		.loc 1 136 0
 620 0066 2000     		movs	r0, r4
 621 0068 03E0     		b	.L33
 622              	.L40:
 623              	.LBB12:
 123:Source\azure_iot_sdk\c-utility\Socket\src/TCPSocketConnection.cpp ****         }
 624              		.loc 1 123 0
 625 006a 2000     		movs	r0, r4
 626 006c 01E0     		b	.L33
 627              	.LVL83:
 628              	.L41:
 133:Source\azure_iot_sdk\c-utility\Socket\src/TCPSocketConnection.cpp ****         }
 629              		.loc 1 133 0
 630 006e 0120     		movs	r0, #1
 631              	.LVL84:
 632 0070 4042     		rsbs	r0, r0, #0
 633              	.LVL85:
 634              	.L33:
 635              	.LBE12:
 137:Source\azure_iot_sdk\c-utility\Socket\src/TCPSocketConnection.cpp **** }
 636              		.loc 1 137 0
 637 0072 03B0     		add	sp, sp, #12
 638              		@ sp needed
 639              	.LVL86:
 640              	.LVL87:
 641              	.LVL88:
 642 0074 F0BD     		pop	{r4, r5, r6, r7, pc}
 643              		.cfi_endproc
 644              	.LFE68:
 645              		.size	_ZN19TCPSocketConnection11receive_allEPci, .-_ZN19TCPSocketConnection11receive_allEPci
 646 0076 C046     		.section	.rodata.str1.4,"aMS",%progbits,1
 647              		.align	2
ARM GAS  C:\Users\Phuong\AppData\Local\Temp\cc84n0Xc.s 			page 15


 648              	.LC0:
 649 0000 48656C6C 		.ascii	"Hello from Azure IoT SDK on PSOC6!\000"
 649      6F206672 
 649      6F6D2041 
 649      7A757265 
 649      20496F54 
 650              		.text
 651              	.Letext0:
 652              		.file 2 "c:\\program files (x86)\\cypress\\psoc creator\\4.2\\psoc creator\\import\\gnu\\arm\\5.4.
 653              		.file 3 "c:\\program files (x86)\\cypress\\psoc creator\\4.2\\psoc creator\\import\\gnu\\arm\\5.4.
 654              		.file 4 "c:\\program files (x86)\\cypress\\psoc creator\\4.2\\psoc creator\\import\\gnu\\arm\\5.4.
 655              		.file 5 "c:\\program files (x86)\\cypress\\psoc creator\\4.2\\psoc creator\\import\\gnu\\arm\\5.4.
 656              		.file 6 "c:\\program files (x86)\\cypress\\psoc creator\\4.2\\psoc creator\\import\\gnu\\arm\\5.4.
 657              		.file 7 ".\\Source\\LwIP\\src\\include/arch/cc.h"
 658              		.file 8 ".\\Source\\LwIP\\src\\include/lwip/inet.h"
 659              		.file 9 ".\\Source\\LwIP\\src\\include/lwip/sockets.h"
 660              		.file 10 ".\\Source\\azure_iot_sdk\\c-utility\\Socket\\inc/Socket.h"
 661              		.file 11 ".\\Source\\azure_iot_sdk\\c-utility\\Socket\\inc/Endpoint.h"
 662              		.file 12 ".\\Source\\azure_iot_sdk\\c-utility\\Socket\\inc/TCPSocketConnection.h"
 663              		.file 13 "c:\\program files (x86)\\cypress\\psoc creator\\4.2\\psoc creator\\import\\gnu\\arm\\5.4
 664              		.file 14 "c:\\program files (x86)\\cypress\\psoc creator\\4.2\\psoc creator\\import\\gnu\\arm\\5.4
 665              		.file 15 "c:\\program files (x86)\\cypress\\psoc creator\\4.2\\psoc creator\\import\\gnu\\arm\\5.4
 666              		.file 16 "<built-in>"