ARM GAS  C:\Users\Phuong\AppData\Local\Temp\cczCDyuF.s 			page 1


   1              		.syntax unified
   2              		.cpu cortex-m0plus
   3              		.fpu softvfp
   4              		.eabi_attribute 20, 1
   5              		.eabi_attribute 21, 1
   6              		.eabi_attribute 23, 3
   7              		.eabi_attribute 24, 1
   8              		.eabi_attribute 25, 1
   9              		.eabi_attribute 26, 1
  10              		.eabi_attribute 30, 1
  11              		.eabi_attribute 34, 0
  12              		.eabi_attribute 18, 4
  13              		.thumb
  14              		.syntax unified
  15              		.file	"TCPSocketServer.cpp"
  16              		.text
  17              	.Ltext0:
  18              		.cfi_sections	.debug_frame
  19              		.section	.text._ZN15TCPSocketServerC2Ev,"ax",%progbits
  20              		.align	2
  21              		.global	_ZN15TCPSocketServerC2Ev
  22              		.code	16
  23              		.thumb_func
  24              		.type	_ZN15TCPSocketServerC2Ev, %function
  25              	_ZN15TCPSocketServerC2Ev:
  26              	.LFB61:
  27              		.file 1 "Source\\azure_iot_sdk\\c-utility\\Socket\\src\\TCPSocketServer.cpp"
   1:Source\azure_iot_sdk\c-utility\Socket\src/TCPSocketServer.cpp **** /* Copyright (C) 2012 mbed.org, MIT License
   2:Source\azure_iot_sdk\c-utility\Socket\src/TCPSocketServer.cpp ****  *
   3:Source\azure_iot_sdk\c-utility\Socket\src/TCPSocketServer.cpp ****  * Permission is hereby granted, free of charge, to any person obtaining a copy of this software
   4:Source\azure_iot_sdk\c-utility\Socket\src/TCPSocketServer.cpp ****  * and associated documentation files (the "Software"), to deal in the Software without restriction
   5:Source\azure_iot_sdk\c-utility\Socket\src/TCPSocketServer.cpp ****  * including without limitation the rights to use, copy, modify, merge, publish, distribute,
   6:Source\azure_iot_sdk\c-utility\Socket\src/TCPSocketServer.cpp ****  * sublicense, and/or sell copies of the Software, and to permit persons to whom the Software is
   7:Source\azure_iot_sdk\c-utility\Socket\src/TCPSocketServer.cpp ****  * furnished to do so, subject to the following conditions:
   8:Source\azure_iot_sdk\c-utility\Socket\src/TCPSocketServer.cpp ****  *
   9:Source\azure_iot_sdk\c-utility\Socket\src/TCPSocketServer.cpp ****  * The above copyright notice and this permission notice shall be included in all copies or
  10:Source\azure_iot_sdk\c-utility\Socket\src/TCPSocketServer.cpp ****  * substantial portions of the Software.
  11:Source\azure_iot_sdk\c-utility\Socket\src/TCPSocketServer.cpp ****  *
  12:Source\azure_iot_sdk\c-utility\Socket\src/TCPSocketServer.cpp ****  * THE SOFTWARE IS PROVIDED "AS IS", WITHOUT WARRANTY OF ANY KIND, EXPRESS OR IMPLIED, INCLUDING
  13:Source\azure_iot_sdk\c-utility\Socket\src/TCPSocketServer.cpp ****  * BUT NOT LIMITED TO THE WARRANTIES OF MERCHANTABILITY, FITNESS FOR A PARTICULAR PURPOSE AND
  14:Source\azure_iot_sdk\c-utility\Socket\src/TCPSocketServer.cpp ****  * NONINFRINGEMENT. IN NO EVENT SHALL THE AUTHORS OR COPYRIGHT HOLDERS BE LIABLE FOR ANY CLAIM,
  15:Source\azure_iot_sdk\c-utility\Socket\src/TCPSocketServer.cpp ****  * DAMAGES OR OTHER LIABILITY, WHETHER IN AN ACTION OF CONTRACT, TORT OR OTHERWISE, ARISING FROM,
  16:Source\azure_iot_sdk\c-utility\Socket\src/TCPSocketServer.cpp ****  * OUT OF OR IN CONNECTION WITH THE SOFTWARE OR THE USE OR OTHER DEALINGS IN THE SOFTWARE.
  17:Source\azure_iot_sdk\c-utility\Socket\src/TCPSocketServer.cpp ****  */
  18:Source\azure_iot_sdk\c-utility\Socket\src/TCPSocketServer.cpp **** #include "TCPSocketServer.h"
  19:Source\azure_iot_sdk\c-utility\Socket\src/TCPSocketServer.cpp **** 
  20:Source\azure_iot_sdk\c-utility\Socket\src/TCPSocketServer.cpp **** #include <cstring>
  21:Source\azure_iot_sdk\c-utility\Socket\src/TCPSocketServer.cpp **** 
  22:Source\azure_iot_sdk\c-utility\Socket\src/TCPSocketServer.cpp **** using std::memset;
  23:Source\azure_iot_sdk\c-utility\Socket\src/TCPSocketServer.cpp **** using std::memcpy;
  24:Source\azure_iot_sdk\c-utility\Socket\src/TCPSocketServer.cpp **** 
  25:Source\azure_iot_sdk\c-utility\Socket\src/TCPSocketServer.cpp **** TCPSocketServer::TCPSocketServer() {
  28              		.loc 1 25 0
  29              		.cfi_startproc
  30              		@ args = 0, pretend = 0, frame = 0
  31              		@ frame_needed = 0, uses_anonymous_args = 0
  32              	.LVL0:
ARM GAS  C:\Users\Phuong\AppData\Local\Temp\cczCDyuF.s 			page 2


  33 0000 10B5     		push	{r4, lr}
  34              		.cfi_def_cfa_offset 8
  35              		.cfi_offset 4, -8
  36              		.cfi_offset 14, -4
  37 0002 0400     		movs	r4, r0
  38              	.LBB2:
  39              		.loc 1 25 0
  40 0004 FFF7FEFF 		bl	_ZN6SocketC2Ev
  41              	.LVL1:
  42              	.LBE2:
  26:Source\azure_iot_sdk\c-utility\Socket\src/TCPSocketServer.cpp ****     
  27:Source\azure_iot_sdk\c-utility\Socket\src/TCPSocketServer.cpp **** }
  43              		.loc 1 27 0
  44 0008 2000     		movs	r0, r4
  45              		@ sp needed
  46              	.LVL2:
  47 000a 10BD     		pop	{r4, pc}
  48              		.cfi_endproc
  49              	.LFE61:
  50              		.size	_ZN15TCPSocketServerC2Ev, .-_ZN15TCPSocketServerC2Ev
  51              		.global	_ZN15TCPSocketServerC1Ev
  52              		.thumb_set _ZN15TCPSocketServerC1Ev,_ZN15TCPSocketServerC2Ev
  53              		.section	.text._ZN15TCPSocketServer4bindEi,"ax",%progbits
  54              		.align	2
  55              		.global	_ZN15TCPSocketServer4bindEi
  56              		.code	16
  57              		.thumb_func
  58              		.type	_ZN15TCPSocketServer4bindEi, %function
  59              	_ZN15TCPSocketServer4bindEi:
  60              	.LFB63:
  28:Source\azure_iot_sdk\c-utility\Socket\src/TCPSocketServer.cpp **** 
  29:Source\azure_iot_sdk\c-utility\Socket\src/TCPSocketServer.cpp **** int TCPSocketServer::bind(int port) {
  61              		.loc 1 29 0
  62              		.cfi_startproc
  63              		@ args = 0, pretend = 0, frame = 16
  64              		@ frame_needed = 0, uses_anonymous_args = 0
  65              	.LVL3:
  66 0000 30B5     		push	{r4, r5, lr}
  67              		.cfi_def_cfa_offset 12
  68              		.cfi_offset 4, -12
  69              		.cfi_offset 5, -8
  70              		.cfi_offset 14, -4
  71 0002 85B0     		sub	sp, sp, #20
  72              		.cfi_def_cfa_offset 32
  73 0004 0500     		movs	r5, r0
  74 0006 0C00     		movs	r4, r1
  30:Source\azure_iot_sdk\c-utility\Socket\src/TCPSocketServer.cpp ****     if (init_socket(SOCK_STREAM) < 0)
  75              		.loc 1 30 0
  76 0008 0121     		movs	r1, #1
  77              	.LVL4:
  78 000a FFF7FEFF 		bl	_ZN6Socket11init_socketEi
  79              	.LVL5:
  80 000e 0028     		cmp	r0, #0
  81 0010 1CDB     		blt	.L4
  31:Source\azure_iot_sdk\c-utility\Socket\src/TCPSocketServer.cpp ****         return -1;
  32:Source\azure_iot_sdk\c-utility\Socket\src/TCPSocketServer.cpp ****     
  33:Source\azure_iot_sdk\c-utility\Socket\src/TCPSocketServer.cpp ****     struct sockaddr_in localHost;
ARM GAS  C:\Users\Phuong\AppData\Local\Temp\cczCDyuF.s 			page 3


  34:Source\azure_iot_sdk\c-utility\Socket\src/TCPSocketServer.cpp ****     memset(&localHost, 0, sizeof(localHost));
  82              		.loc 1 34 0
  83 0012 1022     		movs	r2, #16
  84 0014 0021     		movs	r1, #0
  85 0016 6846     		mov	r0, sp
  86 0018 FFF7FEFF 		bl	memset
  87              	.LVL6:
  35:Source\azure_iot_sdk\c-utility\Socket\src/TCPSocketServer.cpp ****     
  36:Source\azure_iot_sdk\c-utility\Socket\src/TCPSocketServer.cpp ****     localHost.sin_family = AF_INET;
  88              		.loc 1 36 0
  89 001c 0223     		movs	r3, #2
  90 001e 6A46     		mov	r2, sp
  91 0020 5370     		strb	r3, [r2, #1]
  37:Source\azure_iot_sdk\c-utility\Socket\src/TCPSocketServer.cpp ****     localHost.sin_port = htons(port);
  92              		.loc 1 37 0
  93 0022 A0B2     		uxth	r0, r4
  94 0024 FFF7FEFF 		bl	lwip_htons
  95              	.LVL7:
  96 0028 6B46     		mov	r3, sp
  97 002a 5880     		strh	r0, [r3, #2]
  38:Source\azure_iot_sdk\c-utility\Socket\src/TCPSocketServer.cpp ****     localHost.sin_addr.s_addr = INADDR_ANY;
  98              		.loc 1 38 0
  99 002c 0023     		movs	r3, #0
 100 002e 0193     		str	r3, [sp, #4]
  39:Source\azure_iot_sdk\c-utility\Socket\src/TCPSocketServer.cpp ****     
  40:Source\azure_iot_sdk\c-utility\Socket\src/TCPSocketServer.cpp ****     if (lwip_bind(_sock_fd, (const struct sockaddr *) &localHost, sizeof(localHost)) < 0) {
 101              		.loc 1 40 0
 102 0030 1022     		movs	r2, #16
 103 0032 6946     		mov	r1, sp
 104 0034 2868     		ldr	r0, [r5]
 105 0036 FFF7FEFF 		bl	lwip_bind
 106              	.LVL8:
 107 003a 0028     		cmp	r0, #0
 108 003c 09DA     		bge	.L5
  41:Source\azure_iot_sdk\c-utility\Socket\src/TCPSocketServer.cpp ****         close();
 109              		.loc 1 41 0
 110 003e 0121     		movs	r1, #1
 111 0040 2800     		movs	r0, r5
 112 0042 FFF7FEFF 		bl	_ZN6Socket5closeEb
 113              	.LVL9:
  42:Source\azure_iot_sdk\c-utility\Socket\src/TCPSocketServer.cpp ****         return -1;
 114              		.loc 1 42 0
 115 0046 0120     		movs	r0, #1
 116 0048 4042     		rsbs	r0, r0, #0
 117 004a 03E0     		b	.L3
 118              	.L4:
  31:Source\azure_iot_sdk\c-utility\Socket\src/TCPSocketServer.cpp ****     
 119              		.loc 1 31 0
 120 004c 0120     		movs	r0, #1
 121 004e 4042     		rsbs	r0, r0, #0
 122 0050 00E0     		b	.L3
 123              	.L5:
  43:Source\azure_iot_sdk\c-utility\Socket\src/TCPSocketServer.cpp ****     }
  44:Source\azure_iot_sdk\c-utility\Socket\src/TCPSocketServer.cpp ****     
  45:Source\azure_iot_sdk\c-utility\Socket\src/TCPSocketServer.cpp ****     return 0;
 124              		.loc 1 45 0
 125 0052 0020     		movs	r0, #0
ARM GAS  C:\Users\Phuong\AppData\Local\Temp\cczCDyuF.s 			page 4


 126              	.L3:
  46:Source\azure_iot_sdk\c-utility\Socket\src/TCPSocketServer.cpp **** }
 127              		.loc 1 46 0
 128 0054 05B0     		add	sp, sp, #20
 129              		@ sp needed
 130              	.LVL10:
 131              	.LVL11:
 132 0056 30BD     		pop	{r4, r5, pc}
 133              		.cfi_endproc
 134              	.LFE63:
 135              		.size	_ZN15TCPSocketServer4bindEi, .-_ZN15TCPSocketServer4bindEi
 136              		.section	.text._ZN15TCPSocketServer6listenEi,"ax",%progbits
 137              		.align	2
 138              		.global	_ZN15TCPSocketServer6listenEi
 139              		.code	16
 140              		.thumb_func
 141              		.type	_ZN15TCPSocketServer6listenEi, %function
 142              	_ZN15TCPSocketServer6listenEi:
 143              	.LFB64:
  47:Source\azure_iot_sdk\c-utility\Socket\src/TCPSocketServer.cpp **** 
  48:Source\azure_iot_sdk\c-utility\Socket\src/TCPSocketServer.cpp **** int TCPSocketServer::listen(int max) {
 144              		.loc 1 48 0
 145              		.cfi_startproc
 146              		@ args = 0, pretend = 0, frame = 0
 147              		@ frame_needed = 0, uses_anonymous_args = 0
 148              	.LVL12:
 149 0000 10B5     		push	{r4, lr}
 150              		.cfi_def_cfa_offset 8
 151              		.cfi_offset 4, -8
 152              		.cfi_offset 14, -4
 153 0002 0400     		movs	r4, r0
  49:Source\azure_iot_sdk\c-utility\Socket\src/TCPSocketServer.cpp ****     if (_sock_fd < 0)
 154              		.loc 1 49 0
 155 0004 0068     		ldr	r0, [r0]
 156              	.LVL13:
 157 0006 0028     		cmp	r0, #0
 158 0008 0ADB     		blt	.L8
  50:Source\azure_iot_sdk\c-utility\Socket\src/TCPSocketServer.cpp ****         return -1;
  51:Source\azure_iot_sdk\c-utility\Socket\src/TCPSocketServer.cpp ****     
  52:Source\azure_iot_sdk\c-utility\Socket\src/TCPSocketServer.cpp ****     if (lwip_listen(_sock_fd, max) < 0) {
 159              		.loc 1 52 0
 160 000a FFF7FEFF 		bl	lwip_listen
 161              	.LVL14:
 162 000e 0028     		cmp	r0, #0
 163 0010 09DA     		bge	.L9
  53:Source\azure_iot_sdk\c-utility\Socket\src/TCPSocketServer.cpp ****         close();
 164              		.loc 1 53 0
 165 0012 0121     		movs	r1, #1
 166 0014 2000     		movs	r0, r4
 167 0016 FFF7FEFF 		bl	_ZN6Socket5closeEb
 168              	.LVL15:
  54:Source\azure_iot_sdk\c-utility\Socket\src/TCPSocketServer.cpp ****         return -1;
 169              		.loc 1 54 0
 170 001a 0120     		movs	r0, #1
 171 001c 4042     		rsbs	r0, r0, #0
 172 001e 03E0     		b	.L7
 173              	.LVL16:
ARM GAS  C:\Users\Phuong\AppData\Local\Temp\cczCDyuF.s 			page 5


 174              	.L8:
  50:Source\azure_iot_sdk\c-utility\Socket\src/TCPSocketServer.cpp ****         return -1;
 175              		.loc 1 50 0
 176 0020 0120     		movs	r0, #1
 177 0022 4042     		rsbs	r0, r0, #0
 178 0024 00E0     		b	.L7
 179              	.LVL17:
 180              	.L9:
  55:Source\azure_iot_sdk\c-utility\Socket\src/TCPSocketServer.cpp ****     }
  56:Source\azure_iot_sdk\c-utility\Socket\src/TCPSocketServer.cpp ****     
  57:Source\azure_iot_sdk\c-utility\Socket\src/TCPSocketServer.cpp ****     return 0;
 181              		.loc 1 57 0
 182 0026 0020     		movs	r0, #0
 183              	.L7:
  58:Source\azure_iot_sdk\c-utility\Socket\src/TCPSocketServer.cpp **** }
 184              		.loc 1 58 0
 185              		@ sp needed
 186              	.LVL18:
 187 0028 10BD     		pop	{r4, pc}
 188              		.cfi_endproc
 189              	.LFE64:
 190              		.size	_ZN15TCPSocketServer6listenEi, .-_ZN15TCPSocketServer6listenEi
 191 002a C046     		.section	.text._ZN15TCPSocketServer6acceptER19TCPSocketConnection,"ax",%progbits
 192              		.align	2
 193              		.global	_ZN15TCPSocketServer6acceptER19TCPSocketConnection
 194              		.code	16
 195              		.thumb_func
 196              		.type	_ZN15TCPSocketServer6acceptER19TCPSocketConnection, %function
 197              	_ZN15TCPSocketServer6acceptER19TCPSocketConnection:
 198              	.LFB65:
  59:Source\azure_iot_sdk\c-utility\Socket\src/TCPSocketServer.cpp **** 
  60:Source\azure_iot_sdk\c-utility\Socket\src/TCPSocketServer.cpp **** int TCPSocketServer::accept(TCPSocketConnection& connection) {
 199              		.loc 1 60 0
 200              		.cfi_startproc
 201              		@ args = 0, pretend = 0, frame = 16
 202              		@ frame_needed = 0, uses_anonymous_args = 0
 203              	.LVL19:
 204 0000 30B5     		push	{r4, r5, lr}
 205              		.cfi_def_cfa_offset 12
 206              		.cfi_offset 4, -12
 207              		.cfi_offset 5, -8
 208              		.cfi_offset 14, -4
 209 0002 85B0     		sub	sp, sp, #20
 210              		.cfi_def_cfa_offset 32
 211 0004 0400     		movs	r4, r0
 212 0006 0D00     		movs	r5, r1
  61:Source\azure_iot_sdk\c-utility\Socket\src/TCPSocketServer.cpp ****     if (_sock_fd < 0)
 213              		.loc 1 61 0
 214 0008 0368     		ldr	r3, [r0]
 215 000a 002B     		cmp	r3, #0
 216 000c 23DB     		blt	.L14
 217              	.LBB3:
  62:Source\azure_iot_sdk\c-utility\Socket\src/TCPSocketServer.cpp ****         return -1;
  63:Source\azure_iot_sdk\c-utility\Socket\src/TCPSocketServer.cpp ****     
  64:Source\azure_iot_sdk\c-utility\Socket\src/TCPSocketServer.cpp ****     if (!_blocking) {
 218              		.loc 1 64 0
 219 000e 0379     		ldrb	r3, [r0, #4]
ARM GAS  C:\Users\Phuong\AppData\Local\Temp\cczCDyuF.s 			page 6


 220 0010 002B     		cmp	r3, #0
 221 0012 0CD1     		bne	.L12
 222              	.LBB4:
  65:Source\azure_iot_sdk\c-utility\Socket\src/TCPSocketServer.cpp ****         TimeInterval timeout(_timeout);
 223              		.loc 1 65 0
 224 0014 8168     		ldr	r1, [r0, #8]
 225              	.LVL20:
 226 0016 01A8     		add	r0, sp, #4
 227              	.LVL21:
 228 0018 FFF7FEFF 		bl	_ZN12TimeIntervalC1Ej
 229              	.LVL22:
  66:Source\azure_iot_sdk\c-utility\Socket\src/TCPSocketServer.cpp ****         if (wait_readable(timeout) != 0)
 230              		.loc 1 66 0
 231 001c 01A9     		add	r1, sp, #4
 232 001e 2000     		movs	r0, r4
 233 0020 FFF7FEFF 		bl	_ZN6Socket13wait_readableER12TimeInterval
 234              	.LVL23:
 235 0024 0028     		cmp	r0, #0
 236 0026 02D0     		beq	.L12
  67:Source\azure_iot_sdk\c-utility\Socket\src/TCPSocketServer.cpp ****             return -1;
 237              		.loc 1 67 0
 238 0028 0120     		movs	r0, #1
 239 002a 4042     		rsbs	r0, r0, #0
 240 002c 18E0     		b	.L11
 241              	.L12:
 242              	.LBE4:
 243              	.LBE3:
  68:Source\azure_iot_sdk\c-utility\Socket\src/TCPSocketServer.cpp ****     }
  69:Source\azure_iot_sdk\c-utility\Socket\src/TCPSocketServer.cpp ****     connection.reset_address();
 244              		.loc 1 69 0
 245 002e 2800     		movs	r0, r5
 246 0030 0C30     		adds	r0, r0, #12
 247 0032 FFF7FEFF 		bl	_ZN8Endpoint13reset_addressEv
 248              	.LVL24:
  70:Source\azure_iot_sdk\c-utility\Socket\src/TCPSocketServer.cpp ****     socklen_t newSockRemoteHostLen = sizeof(connection._remoteHost);
 249              		.loc 1 70 0
 250 0036 1023     		movs	r3, #16
 251 0038 0393     		str	r3, [sp, #12]
  71:Source\azure_iot_sdk\c-utility\Socket\src/TCPSocketServer.cpp ****     int fd = lwip_accept(_sock_fd, (struct sockaddr*) &connection._remoteHost, &newSockRemoteHostLe
 252              		.loc 1 71 0
 253 003a 2068     		ldr	r0, [r4]
 254 003c 2900     		movs	r1, r5
 255 003e 2031     		adds	r1, r1, #32
 256 0040 03AA     		add	r2, sp, #12
 257 0042 FFF7FEFF 		bl	lwip_accept
 258              	.LVL25:
  72:Source\azure_iot_sdk\c-utility\Socket\src/TCPSocketServer.cpp ****     if (fd < 0)
 259              		.loc 1 72 0
 260 0046 0028     		cmp	r0, #0
 261 0048 08DB     		blt	.L15
  73:Source\azure_iot_sdk\c-utility\Socket\src/TCPSocketServer.cpp ****         return -1; //Accept failed
  74:Source\azure_iot_sdk\c-utility\Socket\src/TCPSocketServer.cpp ****     connection._sock_fd = fd;
 262              		.loc 1 74 0
 263 004a 2860     		str	r0, [r5]
  75:Source\azure_iot_sdk\c-utility\Socket\src/TCPSocketServer.cpp ****     connection._is_connected = true;
 264              		.loc 1 75 0
 265 004c 0122     		movs	r2, #1
ARM GAS  C:\Users\Phuong\AppData\Local\Temp\cczCDyuF.s 			page 7


 266 004e 3023     		movs	r3, #48
 267 0050 EA54     		strb	r2, [r5, r3]
  76:Source\azure_iot_sdk\c-utility\Socket\src/TCPSocketServer.cpp ****     
  77:Source\azure_iot_sdk\c-utility\Socket\src/TCPSocketServer.cpp ****     return 0;
 268              		.loc 1 77 0
 269 0052 0020     		movs	r0, #0
 270              	.LVL26:
 271 0054 04E0     		b	.L11
 272              	.LVL27:
 273              	.L14:
  62:Source\azure_iot_sdk\c-utility\Socket\src/TCPSocketServer.cpp ****     
 274              		.loc 1 62 0
 275 0056 0120     		movs	r0, #1
 276              	.LVL28:
 277 0058 4042     		rsbs	r0, r0, #0
 278 005a 01E0     		b	.L11
 279              	.LVL29:
 280              	.L15:
  73:Source\azure_iot_sdk\c-utility\Socket\src/TCPSocketServer.cpp ****     connection._sock_fd = fd;
 281              		.loc 1 73 0
 282 005c 0120     		movs	r0, #1
 283              	.LVL30:
 284 005e 4042     		rsbs	r0, r0, #0
 285              	.L11:
  78:Source\azure_iot_sdk\c-utility\Socket\src/TCPSocketServer.cpp **** }
 286              		.loc 1 78 0
 287 0060 05B0     		add	sp, sp, #20
 288              		@ sp needed
 289              	.LVL31:
 290              	.LVL32:
 291 0062 30BD     		pop	{r4, r5, pc}
 292              		.cfi_endproc
 293              	.LFE65:
 294              		.size	_ZN15TCPSocketServer6acceptER19TCPSocketConnection, .-_ZN15TCPSocketServer6acceptER19TCPSock
 295              		.text
 296              	.Letext0:
 297              		.file 2 "c:\\program files (x86)\\cypress\\psoc creator\\4.2\\psoc creator\\import\\gnu\\arm\\5.4.
 298              		.file 3 "c:\\program files (x86)\\cypress\\psoc creator\\4.2\\psoc creator\\import\\gnu\\arm\\5.4.
 299              		.file 4 "c:\\program files (x86)\\cypress\\psoc creator\\4.2\\psoc creator\\import\\gnu\\arm\\5.4.
 300              		.file 5 "c:\\program files (x86)\\cypress\\psoc creator\\4.2\\psoc creator\\import\\gnu\\arm\\5.4.
 301              		.file 6 "c:\\program files (x86)\\cypress\\psoc creator\\4.2\\psoc creator\\import\\gnu\\arm\\5.4.
 302              		.file 7 ".\\Source\\LwIP\\src\\include/arch/cc.h"
 303              		.file 8 ".\\Source\\LwIP\\src\\include/lwip/inet.h"
 304              		.file 9 ".\\Source\\LwIP\\src\\include/lwip/sockets.h"
 305              		.file 10 ".\\Source\\azure_iot_sdk\\c-utility\\Socket\\inc/Socket.h"
 306              		.file 11 ".\\Source\\azure_iot_sdk\\c-utility\\Socket\\inc/Endpoint.h"
 307              		.file 12 ".\\Source\\azure_iot_sdk\\c-utility\\Socket\\inc/TCPSocketConnection.h"
 308              		.file 13 ".\\Source\\azure_iot_sdk\\c-utility\\Socket\\inc/TCPSocketServer.h"
 309              		.file 14 "c:\\program files (x86)\\cypress\\psoc creator\\4.2\\psoc creator\\import\\gnu\\arm\\5.4
 310              		.file 15 "c:\\program files (x86)\\cypress\\psoc creator\\4.2\\psoc creator\\import\\gnu\\arm\\5.4
 311              		.file 16 "c:\\program files (x86)\\cypress\\psoc creator\\4.2\\psoc creator\\import\\gnu\\arm\\5.4
 312              		.file 17 ".\\Source\\LwIP\\src\\include/lwip/def.h"
 313              		.file 18 "<built-in>"