ARM GAS  C:\Users\Phuong\AppData\Local\Temp\cclX8w4l.s 			page 1


   1              		.syntax unified
   2              		.cpu cortex-m0plus
   3              		.fpu softvfp
   4              		.eabi_attribute 20, 1
   5              		.eabi_attribute 21, 1
   6              		.eabi_attribute 23, 3
   7              		.eabi_attribute 24, 1
   8              		.eabi_attribute 25, 1
   9              		.eabi_attribute 26, 1
  10              		.eabi_attribute 30, 1
  11              		.eabi_attribute 34, 0
  12              		.eabi_attribute 18, 4
  13              		.thumb
  14              		.syntax unified
  15              		.file	"tcpsocketconnection_c.cpp"
  16              		.text
  17              	.Ltext0:
  18              		.cfi_sections	.debug_frame
  19              		.section	.text._Znwj,"ax",%progbits
  20              		.align	2
  21              		.global	_Znwj
  22              		.code	16
  23              		.thumb_func
  24              		.type	_Znwj, %function
  25              	_Znwj:
  26              	.LFB55:
  27              		.file 1 "Source\\azure_iot_sdk\\c-utility\\Socket\\src\\tcpsocketconnection_c.cpp"
   1:Source\azure_iot_sdk\c-utility\Socket\src/tcpsocketconnection_c.cpp **** // Copyright (c) Microsoft. All rights reserved.
   2:Source\azure_iot_sdk\c-utility\Socket\src/tcpsocketconnection_c.cpp **** // Licensed under the MIT license. See LICENSE file in the project root for full license informatio
   3:Source\azure_iot_sdk\c-utility\Socket\src/tcpsocketconnection_c.cpp **** 
   4:Source\azure_iot_sdk\c-utility\Socket\src/tcpsocketconnection_c.cpp **** //#include "mbed.h"
   5:Source\azure_iot_sdk\c-utility\Socket\src/tcpsocketconnection_c.cpp **** #include <stdlib.h>
   6:Source\azure_iot_sdk\c-utility\Socket\src/tcpsocketconnection_c.cpp **** #include <stddef.h>
   7:Source\azure_iot_sdk\c-utility\Socket\src/tcpsocketconnection_c.cpp **** #include "TCPSocketConnection.h"
   8:Source\azure_iot_sdk\c-utility\Socket\src/tcpsocketconnection_c.cpp **** #include "azure_c_shared_utility/tcpsocketconnection_c.h"
   9:Source\azure_iot_sdk\c-utility\Socket\src/tcpsocketconnection_c.cpp **** 
  10:Source\azure_iot_sdk\c-utility\Socket\src/tcpsocketconnection_c.cpp **** void* operator new(size_t size) 
  11:Source\azure_iot_sdk\c-utility\Socket\src/tcpsocketconnection_c.cpp **** { 
  28              		.loc 1 11 0
  29              		.cfi_startproc
  30              		@ args = 0, pretend = 0, frame = 0
  31              		@ frame_needed = 0, uses_anonymous_args = 0
  32              	.LVL0:
  33 0000 10B5     		push	{r4, lr}
  34              		.cfi_def_cfa_offset 8
  35              		.cfi_offset 4, -8
  36              		.cfi_offset 14, -4
  12:Source\azure_iot_sdk\c-utility\Socket\src/tcpsocketconnection_c.cpp **** 	return malloc(size); 
  37              		.loc 1 12 0
  38 0002 FFF7FEFF 		bl	malloc
  39              	.LVL1:
  13:Source\azure_iot_sdk\c-utility\Socket\src/tcpsocketconnection_c.cpp **** } 
  40              		.loc 1 13 0
  41              		@ sp needed
  42 0006 10BD     		pop	{r4, pc}
  43              		.cfi_endproc
  44              	.LFE55:
ARM GAS  C:\Users\Phuong\AppData\Local\Temp\cclX8w4l.s 			page 2


  45              		.size	_Znwj, .-_Znwj
  46              		.section	.text._ZdlPv,"ax",%progbits
  47              		.align	2
  48              		.global	_ZdlPv
  49              		.code	16
  50              		.thumb_func
  51              		.type	_ZdlPv, %function
  52              	_ZdlPv:
  53              	.LFB56:
  14:Source\azure_iot_sdk\c-utility\Socket\src/tcpsocketconnection_c.cpp ****  
  15:Source\azure_iot_sdk\c-utility\Socket\src/tcpsocketconnection_c.cpp **** void operator delete(void* ptr) 
  16:Source\azure_iot_sdk\c-utility\Socket\src/tcpsocketconnection_c.cpp **** { 
  54              		.loc 1 16 0
  55              		.cfi_startproc
  56              		@ args = 0, pretend = 0, frame = 0
  57              		@ frame_needed = 0, uses_anonymous_args = 0
  58              	.LVL2:
  59 0000 10B5     		push	{r4, lr}
  60              		.cfi_def_cfa_offset 8
  61              		.cfi_offset 4, -8
  62              		.cfi_offset 14, -4
  17:Source\azure_iot_sdk\c-utility\Socket\src/tcpsocketconnection_c.cpp **** 	free(ptr); 
  63              		.loc 1 17 0
  64 0002 FFF7FEFF 		bl	free
  65              	.LVL3:
  18:Source\azure_iot_sdk\c-utility\Socket\src/tcpsocketconnection_c.cpp **** }
  66              		.loc 1 18 0
  67              		@ sp needed
  68 0006 10BD     		pop	{r4, pc}
  69              		.cfi_endproc
  70              	.LFE56:
  71              		.size	_ZdlPv, .-_ZdlPv
  72              		.section	.text.tcpsocketconnection_create,"ax",%progbits
  73              		.align	2
  74              		.global	tcpsocketconnection_create
  75              		.code	16
  76              		.thumb_func
  77              		.type	tcpsocketconnection_create, %function
  78              	tcpsocketconnection_create:
  79              	.LFB57:
  19:Source\azure_iot_sdk\c-utility\Socket\src/tcpsocketconnection_c.cpp **** 
  20:Source\azure_iot_sdk\c-utility\Socket\src/tcpsocketconnection_c.cpp **** 
  21:Source\azure_iot_sdk\c-utility\Socket\src/tcpsocketconnection_c.cpp **** TCPSOCKETCONNECTION_HANDLE tcpsocketconnection_create(void)
  22:Source\azure_iot_sdk\c-utility\Socket\src/tcpsocketconnection_c.cpp **** {
  80              		.loc 1 22 0
  81              		.cfi_startproc
  82              		@ args = 0, pretend = 0, frame = 0
  83              		@ frame_needed = 0, uses_anonymous_args = 0
  84 0000 10B5     		push	{r4, lr}
  85              		.cfi_def_cfa_offset 8
  86              		.cfi_offset 4, -8
  87              		.cfi_offset 14, -4
  23:Source\azure_iot_sdk\c-utility\Socket\src/tcpsocketconnection_c.cpp ****     return new TCPSocketConnection();
  88              		.loc 1 23 0
  89 0002 3420     		movs	r0, #52
  90 0004 FFF7FEFF 		bl	_Znwj
  91              	.LVL4:
ARM GAS  C:\Users\Phuong\AppData\Local\Temp\cclX8w4l.s 			page 3


  92 0008 0400     		movs	r4, r0
  93 000a FFF7FEFF 		bl	_ZN19TCPSocketConnectionC1Ev
  94              	.LVL5:
  24:Source\azure_iot_sdk\c-utility\Socket\src/tcpsocketconnection_c.cpp **** }
  95              		.loc 1 24 0
  96 000e 2000     		movs	r0, r4
  97              		@ sp needed
  98 0010 10BD     		pop	{r4, pc}
  99              		.cfi_endproc
 100              	.LFE57:
 101              		.size	tcpsocketconnection_create, .-tcpsocketconnection_create
 102 0012 C046     		.section	.text.tcpsocketconnection_set_blocking,"ax",%progbits
 103              		.align	2
 104              		.global	tcpsocketconnection_set_blocking
 105              		.code	16
 106              		.thumb_func
 107              		.type	tcpsocketconnection_set_blocking, %function
 108              	tcpsocketconnection_set_blocking:
 109              	.LFB58:
  25:Source\azure_iot_sdk\c-utility\Socket\src/tcpsocketconnection_c.cpp **** 
  26:Source\azure_iot_sdk\c-utility\Socket\src/tcpsocketconnection_c.cpp **** void tcpsocketconnection_set_blocking(TCPSOCKETCONNECTION_HANDLE tcpSocketConnectionHandle, bool bl
  27:Source\azure_iot_sdk\c-utility\Socket\src/tcpsocketconnection_c.cpp **** {
 110              		.loc 1 27 0
 111              		.cfi_startproc
 112              		@ args = 0, pretend = 0, frame = 0
 113              		@ frame_needed = 0, uses_anonymous_args = 0
 114              	.LVL6:
 115 0000 10B5     		push	{r4, lr}
 116              		.cfi_def_cfa_offset 8
 117              		.cfi_offset 4, -8
 118              		.cfi_offset 14, -4
 119              	.LVL7:
  28:Source\azure_iot_sdk\c-utility\Socket\src/tcpsocketconnection_c.cpp **** 	TCPSocketConnection* tsc = (TCPSocketConnection*)tcpSocketConnectionHandle;
  29:Source\azure_iot_sdk\c-utility\Socket\src/tcpsocketconnection_c.cpp **** 	tsc->set_blocking(blocking, timeout);
 120              		.loc 1 29 0
 121 0002 FFF7FEFF 		bl	_ZN6Socket12set_blockingEbj
 122              	.LVL8:
  30:Source\azure_iot_sdk\c-utility\Socket\src/tcpsocketconnection_c.cpp **** }
 123              		.loc 1 30 0
 124              		@ sp needed
 125 0006 10BD     		pop	{r4, pc}
 126              		.cfi_endproc
 127              	.LFE58:
 128              		.size	tcpsocketconnection_set_blocking, .-tcpsocketconnection_set_blocking
 129              		.section	.text.tcpsocketconnection_destroy,"ax",%progbits
 130              		.align	2
 131              		.global	tcpsocketconnection_destroy
 132              		.code	16
 133              		.thumb_func
 134              		.type	tcpsocketconnection_destroy, %function
 135              	tcpsocketconnection_destroy:
 136              	.LFB59:
  31:Source\azure_iot_sdk\c-utility\Socket\src/tcpsocketconnection_c.cpp **** 
  32:Source\azure_iot_sdk\c-utility\Socket\src/tcpsocketconnection_c.cpp **** void tcpsocketconnection_destroy(TCPSOCKETCONNECTION_HANDLE tcpSocketConnectionHandle)
  33:Source\azure_iot_sdk\c-utility\Socket\src/tcpsocketconnection_c.cpp **** {
 137              		.loc 1 33 0
 138              		.cfi_startproc
ARM GAS  C:\Users\Phuong\AppData\Local\Temp\cclX8w4l.s 			page 4


 139              		@ args = 0, pretend = 0, frame = 0
 140              		@ frame_needed = 0, uses_anonymous_args = 0
 141              	.LVL9:
 142 0000 10B5     		push	{r4, lr}
 143              		.cfi_def_cfa_offset 8
 144              		.cfi_offset 4, -8
 145              		.cfi_offset 14, -4
 146 0002 041E     		subs	r4, r0, #0
  34:Source\azure_iot_sdk\c-utility\Socket\src/tcpsocketconnection_c.cpp **** 	delete (TCPSocketConnection*)tcpSocketConnectionHandle;
 147              		.loc 1 34 0
 148 0004 08D0     		beq	.L5
 149              	.LVL10:
 150              	.LBB5:
 151              	.LBB6:
 152              		.file 2 ".\\Source\\azure_iot_sdk\\c-utility\\Socket\\inc/TCPSocketConnection.h"
   1:.\Source\azure_iot_sdk\c-utility\Socket\inc/TCPSocketConnection.h **** /* Copyright (C) 2012 mbed.org, MIT License
   2:.\Source\azure_iot_sdk\c-utility\Socket\inc/TCPSocketConnection.h ****  *
   3:.\Source\azure_iot_sdk\c-utility\Socket\inc/TCPSocketConnection.h ****  * Permission is hereby granted, free of charge, to any person obtaining a copy of this software
   4:.\Source\azure_iot_sdk\c-utility\Socket\inc/TCPSocketConnection.h ****  * and associated documentation files (the "Software"), to deal in the Software without restriction
   5:.\Source\azure_iot_sdk\c-utility\Socket\inc/TCPSocketConnection.h ****  * including without limitation the rights to use, copy, modify, merge, publish, distribute,
   6:.\Source\azure_iot_sdk\c-utility\Socket\inc/TCPSocketConnection.h ****  * sublicense, and/or sell copies of the Software, and to permit persons to whom the Software is
   7:.\Source\azure_iot_sdk\c-utility\Socket\inc/TCPSocketConnection.h ****  * furnished to do so, subject to the following conditions:
   8:.\Source\azure_iot_sdk\c-utility\Socket\inc/TCPSocketConnection.h ****  *
   9:.\Source\azure_iot_sdk\c-utility\Socket\inc/TCPSocketConnection.h ****  * The above copyright notice and this permission notice shall be included in all copies or
  10:.\Source\azure_iot_sdk\c-utility\Socket\inc/TCPSocketConnection.h ****  * substantial portions of the Software.
  11:.\Source\azure_iot_sdk\c-utility\Socket\inc/TCPSocketConnection.h ****  *
  12:.\Source\azure_iot_sdk\c-utility\Socket\inc/TCPSocketConnection.h ****  * THE SOFTWARE IS PROVIDED "AS IS", WITHOUT WARRANTY OF ANY KIND, EXPRESS OR IMPLIED, INCLUDING
  13:.\Source\azure_iot_sdk\c-utility\Socket\inc/TCPSocketConnection.h ****  * BUT NOT LIMITED TO THE WARRANTIES OF MERCHANTABILITY, FITNESS FOR A PARTICULAR PURPOSE AND
  14:.\Source\azure_iot_sdk\c-utility\Socket\inc/TCPSocketConnection.h ****  * NONINFRINGEMENT. IN NO EVENT SHALL THE AUTHORS OR COPYRIGHT HOLDERS BE LIABLE FOR ANY CLAIM,
  15:.\Source\azure_iot_sdk\c-utility\Socket\inc/TCPSocketConnection.h ****  * DAMAGES OR OTHER LIABILITY, WHETHER IN AN ACTION OF CONTRACT, TORT OR OTHERWISE, ARISING FROM,
  16:.\Source\azure_iot_sdk\c-utility\Socket\inc/TCPSocketConnection.h ****  * OUT OF OR IN CONNECTION WITH THE SOFTWARE OR THE USE OR OTHER DEALINGS IN THE SOFTWARE.
  17:.\Source\azure_iot_sdk\c-utility\Socket\inc/TCPSocketConnection.h ****  */
  18:.\Source\azure_iot_sdk\c-utility\Socket\inc/TCPSocketConnection.h **** 
  19:.\Source\azure_iot_sdk\c-utility\Socket\inc/TCPSocketConnection.h **** #ifndef TCPSOCKET_H
  20:.\Source\azure_iot_sdk\c-utility\Socket\inc/TCPSocketConnection.h **** #define TCPSOCKET_H
  21:.\Source\azure_iot_sdk\c-utility\Socket\inc/TCPSocketConnection.h **** 
  22:.\Source\azure_iot_sdk\c-utility\Socket\inc/TCPSocketConnection.h ****    // #include "lwip/sockets.h"
  23:.\Source\azure_iot_sdk\c-utility\Socket\inc/TCPSocketConnection.h **** #include "Socket.h"
  24:.\Source\azure_iot_sdk\c-utility\Socket\inc/TCPSocketConnection.h **** #include "Endpoint.h"
  25:.\Source\azure_iot_sdk\c-utility\Socket\inc/TCPSocketConnection.h **** 
  26:.\Source\azure_iot_sdk\c-utility\Socket\inc/TCPSocketConnection.h **** /**
  27:.\Source\azure_iot_sdk\c-utility\Socket\inc/TCPSocketConnection.h **** TCP socket connection
  28:.\Source\azure_iot_sdk\c-utility\Socket\inc/TCPSocketConnection.h **** */
  29:.\Source\azure_iot_sdk\c-utility\Socket\inc/TCPSocketConnection.h **** class TCPSocketConnection : public Socket, public Endpoint {
 153              		.loc 2 29 0
 154 0006 0C30     		adds	r0, r0, #12
 155              	.LVL11:
 156 0008 FFF7FEFF 		bl	_ZN8EndpointD2Ev
 157              	.LVL12:
 158 000c 2000     		movs	r0, r4
 159 000e FFF7FEFF 		bl	_ZN6SocketD2Ev
 160              	.LVL13:
 161              	.LBE6:
 162              	.LBE5:
 163              		.loc 1 34 0
 164 0012 2000     		movs	r0, r4
 165 0014 FFF7FEFF 		bl	_ZdlPv
ARM GAS  C:\Users\Phuong\AppData\Local\Temp\cclX8w4l.s 			page 5


 166              	.LVL14:
 167              	.L5:
  35:Source\azure_iot_sdk\c-utility\Socket\src/tcpsocketconnection_c.cpp **** }
 168              		.loc 1 35 0
 169              		@ sp needed
 170              	.LVL15:
 171 0018 10BD     		pop	{r4, pc}
 172              		.cfi_endproc
 173              	.LFE59:
 174              		.size	tcpsocketconnection_destroy, .-tcpsocketconnection_destroy
 175 001a C046     		.section	.text.tcpsocketconnection_connect,"ax",%progbits
 176              		.align	2
 177              		.global	tcpsocketconnection_connect
 178              		.code	16
 179              		.thumb_func
 180              		.type	tcpsocketconnection_connect, %function
 181              	tcpsocketconnection_connect:
 182              	.LFB63:
  36:Source\azure_iot_sdk\c-utility\Socket\src/tcpsocketconnection_c.cpp **** 
  37:Source\azure_iot_sdk\c-utility\Socket\src/tcpsocketconnection_c.cpp **** int tcpsocketconnection_connect(TCPSOCKETCONNECTION_HANDLE tcpSocketConnectionHandle, const char* h
  38:Source\azure_iot_sdk\c-utility\Socket\src/tcpsocketconnection_c.cpp **** {
 183              		.loc 1 38 0
 184              		.cfi_startproc
 185              		@ args = 0, pretend = 0, frame = 0
 186              		@ frame_needed = 0, uses_anonymous_args = 0
 187              	.LVL16:
 188 0000 10B5     		push	{r4, lr}
 189              		.cfi_def_cfa_offset 8
 190              		.cfi_offset 4, -8
 191              		.cfi_offset 14, -4
 192              	.LVL17:
  39:Source\azure_iot_sdk\c-utility\Socket\src/tcpsocketconnection_c.cpp **** 	TCPSocketConnection* tsc = (TCPSocketConnection*)tcpSocketConnectionHandle;
  40:Source\azure_iot_sdk\c-utility\Socket\src/tcpsocketconnection_c.cpp **** 	return tsc->connect(host, port);
 193              		.loc 1 40 0
 194 0002 FFF7FEFF 		bl	_ZN19TCPSocketConnection7connectEPKci
 195              	.LVL18:
  41:Source\azure_iot_sdk\c-utility\Socket\src/tcpsocketconnection_c.cpp **** }
 196              		.loc 1 41 0
 197              		@ sp needed
 198 0006 10BD     		pop	{r4, pc}
 199              		.cfi_endproc
 200              	.LFE63:
 201              		.size	tcpsocketconnection_connect, .-tcpsocketconnection_connect
 202              		.section	.text.tcpsocketconnection_is_connected,"ax",%progbits
 203              		.align	2
 204              		.global	tcpsocketconnection_is_connected
 205              		.code	16
 206              		.thumb_func
 207              		.type	tcpsocketconnection_is_connected, %function
 208              	tcpsocketconnection_is_connected:
 209              	.LFB64:
  42:Source\azure_iot_sdk\c-utility\Socket\src/tcpsocketconnection_c.cpp **** 
  43:Source\azure_iot_sdk\c-utility\Socket\src/tcpsocketconnection_c.cpp **** bool tcpsocketconnection_is_connected(TCPSOCKETCONNECTION_HANDLE tcpSocketConnectionHandle)
  44:Source\azure_iot_sdk\c-utility\Socket\src/tcpsocketconnection_c.cpp **** {
 210              		.loc 1 44 0
 211              		.cfi_startproc
 212              		@ args = 0, pretend = 0, frame = 0
ARM GAS  C:\Users\Phuong\AppData\Local\Temp\cclX8w4l.s 			page 6


 213              		@ frame_needed = 0, uses_anonymous_args = 0
 214              	.LVL19:
 215 0000 10B5     		push	{r4, lr}
 216              		.cfi_def_cfa_offset 8
 217              		.cfi_offset 4, -8
 218              		.cfi_offset 14, -4
 219              	.LVL20:
  45:Source\azure_iot_sdk\c-utility\Socket\src/tcpsocketconnection_c.cpp **** 	TCPSocketConnection* tsc = (TCPSocketConnection*)tcpSocketConnectionHandle;
  46:Source\azure_iot_sdk\c-utility\Socket\src/tcpsocketconnection_c.cpp **** 	return tsc->is_connected();
 220              		.loc 1 46 0
 221 0002 FFF7FEFF 		bl	_ZN19TCPSocketConnection12is_connectedEv
 222              	.LVL21:
  47:Source\azure_iot_sdk\c-utility\Socket\src/tcpsocketconnection_c.cpp **** }
 223              		.loc 1 47 0
 224              		@ sp needed
 225 0006 10BD     		pop	{r4, pc}
 226              		.cfi_endproc
 227              	.LFE64:
 228              		.size	tcpsocketconnection_is_connected, .-tcpsocketconnection_is_connected
 229              		.section	.text.tcpsocketconnection_close,"ax",%progbits
 230              		.align	2
 231              		.global	tcpsocketconnection_close
 232              		.code	16
 233              		.thumb_func
 234              		.type	tcpsocketconnection_close, %function
 235              	tcpsocketconnection_close:
 236              	.LFB65:
  48:Source\azure_iot_sdk\c-utility\Socket\src/tcpsocketconnection_c.cpp **** 
  49:Source\azure_iot_sdk\c-utility\Socket\src/tcpsocketconnection_c.cpp **** void tcpsocketconnection_close(TCPSOCKETCONNECTION_HANDLE tcpSocketConnectionHandle)
  50:Source\azure_iot_sdk\c-utility\Socket\src/tcpsocketconnection_c.cpp **** {
 237              		.loc 1 50 0
 238              		.cfi_startproc
 239              		@ args = 0, pretend = 0, frame = 0
 240              		@ frame_needed = 0, uses_anonymous_args = 0
 241              	.LVL22:
 242 0000 10B5     		push	{r4, lr}
 243              		.cfi_def_cfa_offset 8
 244              		.cfi_offset 4, -8
 245              		.cfi_offset 14, -4
 246              	.LVL23:
  51:Source\azure_iot_sdk\c-utility\Socket\src/tcpsocketconnection_c.cpp **** 	TCPSocketConnection* tsc = (TCPSocketConnection*)tcpSocketConnectionHandle;
  52:Source\azure_iot_sdk\c-utility\Socket\src/tcpsocketconnection_c.cpp **** 	tsc->close();
 247              		.loc 1 52 0
 248 0002 0121     		movs	r1, #1
 249 0004 FFF7FEFF 		bl	_ZN6Socket5closeEb
 250              	.LVL24:
  53:Source\azure_iot_sdk\c-utility\Socket\src/tcpsocketconnection_c.cpp **** }
 251              		.loc 1 53 0
 252              		@ sp needed
 253 0008 10BD     		pop	{r4, pc}
 254              		.cfi_endproc
 255              	.LFE65:
 256              		.size	tcpsocketconnection_close, .-tcpsocketconnection_close
 257 000a C046     		.section	.text.tcpsocketconnection_send,"ax",%progbits
 258              		.align	2
 259              		.global	tcpsocketconnection_send
 260              		.code	16
ARM GAS  C:\Users\Phuong\AppData\Local\Temp\cclX8w4l.s 			page 7


 261              		.thumb_func
 262              		.type	tcpsocketconnection_send, %function
 263              	tcpsocketconnection_send:
 264              	.LFB66:
  54:Source\azure_iot_sdk\c-utility\Socket\src/tcpsocketconnection_c.cpp **** 
  55:Source\azure_iot_sdk\c-utility\Socket\src/tcpsocketconnection_c.cpp **** int tcpsocketconnection_send(TCPSOCKETCONNECTION_HANDLE tcpSocketConnectionHandle, const char* data
  56:Source\azure_iot_sdk\c-utility\Socket\src/tcpsocketconnection_c.cpp **** {
 265              		.loc 1 56 0
 266              		.cfi_startproc
 267              		@ args = 0, pretend = 0, frame = 0
 268              		@ frame_needed = 0, uses_anonymous_args = 0
 269              	.LVL25:
 270 0000 10B5     		push	{r4, lr}
 271              		.cfi_def_cfa_offset 8
 272              		.cfi_offset 4, -8
 273              		.cfi_offset 14, -4
 274              	.LVL26:
  57:Source\azure_iot_sdk\c-utility\Socket\src/tcpsocketconnection_c.cpp **** 	TCPSocketConnection* tsc = (TCPSocketConnection*)tcpSocketConnectionHandle;
  58:Source\azure_iot_sdk\c-utility\Socket\src/tcpsocketconnection_c.cpp **** 	return tsc->send((char*)data, length);
 275              		.loc 1 58 0
 276 0002 FFF7FEFF 		bl	_ZN19TCPSocketConnection4sendEPci
 277              	.LVL27:
  59:Source\azure_iot_sdk\c-utility\Socket\src/tcpsocketconnection_c.cpp **** }
 278              		.loc 1 59 0
 279              		@ sp needed
 280 0006 10BD     		pop	{r4, pc}
 281              		.cfi_endproc
 282              	.LFE66:
 283              		.size	tcpsocketconnection_send, .-tcpsocketconnection_send
 284              		.section	.text.tcpsocketconnection_send_all,"ax",%progbits
 285              		.align	2
 286              		.global	tcpsocketconnection_send_all
 287              		.code	16
 288              		.thumb_func
 289              		.type	tcpsocketconnection_send_all, %function
 290              	tcpsocketconnection_send_all:
 291              	.LFB67:
  60:Source\azure_iot_sdk\c-utility\Socket\src/tcpsocketconnection_c.cpp **** 
  61:Source\azure_iot_sdk\c-utility\Socket\src/tcpsocketconnection_c.cpp **** int tcpsocketconnection_send_all(TCPSOCKETCONNECTION_HANDLE tcpSocketConnectionHandle, const char* 
  62:Source\azure_iot_sdk\c-utility\Socket\src/tcpsocketconnection_c.cpp **** {
 292              		.loc 1 62 0
 293              		.cfi_startproc
 294              		@ args = 0, pretend = 0, frame = 0
 295              		@ frame_needed = 0, uses_anonymous_args = 0
 296              	.LVL28:
 297 0000 10B5     		push	{r4, lr}
 298              		.cfi_def_cfa_offset 8
 299              		.cfi_offset 4, -8
 300              		.cfi_offset 14, -4
 301              	.LVL29:
  63:Source\azure_iot_sdk\c-utility\Socket\src/tcpsocketconnection_c.cpp **** 	TCPSocketConnection* tsc = (TCPSocketConnection*)tcpSocketConnectionHandle;
  64:Source\azure_iot_sdk\c-utility\Socket\src/tcpsocketconnection_c.cpp **** 	return tsc->send_all((char*)data, length);
 302              		.loc 1 64 0
 303 0002 FFF7FEFF 		bl	_ZN19TCPSocketConnection8send_allEPci
 304              	.LVL30:
  65:Source\azure_iot_sdk\c-utility\Socket\src/tcpsocketconnection_c.cpp **** }
 305              		.loc 1 65 0
ARM GAS  C:\Users\Phuong\AppData\Local\Temp\cclX8w4l.s 			page 8


 306              		@ sp needed
 307 0006 10BD     		pop	{r4, pc}
 308              		.cfi_endproc
 309              	.LFE67:
 310              		.size	tcpsocketconnection_send_all, .-tcpsocketconnection_send_all
 311              		.section	.text.tcpsocketconnection_receive,"ax",%progbits
 312              		.align	2
 313              		.global	tcpsocketconnection_receive
 314              		.code	16
 315              		.thumb_func
 316              		.type	tcpsocketconnection_receive, %function
 317              	tcpsocketconnection_receive:
 318              	.LFB68:
  66:Source\azure_iot_sdk\c-utility\Socket\src/tcpsocketconnection_c.cpp **** 
  67:Source\azure_iot_sdk\c-utility\Socket\src/tcpsocketconnection_c.cpp **** int tcpsocketconnection_receive(TCPSOCKETCONNECTION_HANDLE tcpSocketConnectionHandle, char* data, i
  68:Source\azure_iot_sdk\c-utility\Socket\src/tcpsocketconnection_c.cpp **** {
 319              		.loc 1 68 0
 320              		.cfi_startproc
 321              		@ args = 0, pretend = 0, frame = 0
 322              		@ frame_needed = 0, uses_anonymous_args = 0
 323              	.LVL31:
 324 0000 10B5     		push	{r4, lr}
 325              		.cfi_def_cfa_offset 8
 326              		.cfi_offset 4, -8
 327              		.cfi_offset 14, -4
 328              	.LVL32:
  69:Source\azure_iot_sdk\c-utility\Socket\src/tcpsocketconnection_c.cpp **** 	TCPSocketConnection* tsc = (TCPSocketConnection*)tcpSocketConnectionHandle;
  70:Source\azure_iot_sdk\c-utility\Socket\src/tcpsocketconnection_c.cpp **** 	return tsc->receive(data, length);
 329              		.loc 1 70 0
 330 0002 FFF7FEFF 		bl	_ZN19TCPSocketConnection7receiveEPci
 331              	.LVL33:
  71:Source\azure_iot_sdk\c-utility\Socket\src/tcpsocketconnection_c.cpp **** }
 332              		.loc 1 71 0
 333              		@ sp needed
 334 0006 10BD     		pop	{r4, pc}
 335              		.cfi_endproc
 336              	.LFE68:
 337              		.size	tcpsocketconnection_receive, .-tcpsocketconnection_receive
 338              		.section	.text.tcpsocketconnection_receive_all,"ax",%progbits
 339              		.align	2
 340              		.global	tcpsocketconnection_receive_all
 341              		.code	16
 342              		.thumb_func
 343              		.type	tcpsocketconnection_receive_all, %function
 344              	tcpsocketconnection_receive_all:
 345              	.LFB69:
  72:Source\azure_iot_sdk\c-utility\Socket\src/tcpsocketconnection_c.cpp **** 
  73:Source\azure_iot_sdk\c-utility\Socket\src/tcpsocketconnection_c.cpp **** int tcpsocketconnection_receive_all(TCPSOCKETCONNECTION_HANDLE tcpSocketConnectionHandle, char* dat
  74:Source\azure_iot_sdk\c-utility\Socket\src/tcpsocketconnection_c.cpp **** {
 346              		.loc 1 74 0
 347              		.cfi_startproc
 348              		@ args = 0, pretend = 0, frame = 0
 349              		@ frame_needed = 0, uses_anonymous_args = 0
 350              	.LVL34:
 351 0000 10B5     		push	{r4, lr}
 352              		.cfi_def_cfa_offset 8
 353              		.cfi_offset 4, -8
ARM GAS  C:\Users\Phuong\AppData\Local\Temp\cclX8w4l.s 			page 9


 354              		.cfi_offset 14, -4
 355              	.LVL35:
  75:Source\azure_iot_sdk\c-utility\Socket\src/tcpsocketconnection_c.cpp **** 	TCPSocketConnection* tsc = (TCPSocketConnection*)tcpSocketConnectionHandle;
  76:Source\azure_iot_sdk\c-utility\Socket\src/tcpsocketconnection_c.cpp **** 	return tsc->receive_all(data, length);
 356              		.loc 1 76 0
 357 0002 FFF7FEFF 		bl	_ZN19TCPSocketConnection11receive_allEPci
 358              	.LVL36:
  77:Source\azure_iot_sdk\c-utility\Socket\src/tcpsocketconnection_c.cpp **** }
 359              		.loc 1 77 0
 360              		@ sp needed
 361 0006 10BD     		pop	{r4, pc}
 362              		.cfi_endproc
 363              	.LFE69:
 364              		.size	tcpsocketconnection_receive_all, .-tcpsocketconnection_receive_all
 365              		.text
 366              	.Letext0:
 367              		.file 3 "c:\\program files (x86)\\cypress\\psoc creator\\4.2\\psoc creator\\import\\gnu\\arm\\5.4.
 368              		.file 4 "c:\\program files (x86)\\cypress\\psoc creator\\4.2\\psoc creator\\import\\gnu\\arm\\5.4.
 369              		.file 5 "c:\\program files (x86)\\cypress\\psoc creator\\4.2\\psoc creator\\import\\gnu\\arm\\5.4.
 370              		.file 6 "c:\\program files (x86)\\cypress\\psoc creator\\4.2\\psoc creator\\import\\gnu\\arm\\5.4.
 371              		.file 7 "c:\\program files (x86)\\cypress\\psoc creator\\4.2\\psoc creator\\import\\gnu\\arm\\5.4.
 372              		.file 8 ".\\Source\\LwIP\\src\\include/arch/cc.h"
 373              		.file 9 ".\\Source\\LwIP\\src\\include/lwip/inet.h"
 374              		.file 10 ".\\Source\\LwIP\\src\\include/lwip/sockets.h"
 375              		.file 11 ".\\Source\\azure_iot_sdk\\c-utility\\Socket\\inc/Socket.h"
 376              		.file 12 ".\\Source\\azure_iot_sdk\\c-utility\\Socket\\inc/Endpoint.h"
 377              		.file 13 ".\\Source\\azure_iot_sdk\\c-utility\\inc/azure_c_shared_utility/tcpsocketconnection_c.h"
 378              		.file 14 "c:\\program files (x86)\\cypress\\psoc creator\\4.2\\psoc creator\\import\\gnu\\arm\\5.4