ARM GAS  C:\Users\Phuong\AppData\Local\Temp\ccA6qjKe.s 			page 1


   1              		.syntax unified
   2              		.cpu cortex-m0plus
   3              		.fpu softvfp
   4              		.eabi_attribute 20, 1
   5              		.eabi_attribute 21, 1
   6              		.eabi_attribute 23, 3
   7              		.eabi_attribute 24, 1
   8              		.eabi_attribute 25, 1
   9              		.eabi_attribute 26, 1
  10              		.eabi_attribute 30, 1
  11              		.eabi_attribute 34, 0
  12              		.eabi_attribute 18, 4
  13              		.thumb
  14              		.syntax unified
  15              		.file	"threadapi.c"
  16              		.text
  17              	.Ltext0:
  18              		.cfi_sections	.debug_frame
  19              		.global	__aeabi_uidiv
  20              		.section	.text.ThreadAPI_Sleep,"ax",%progbits
  21              		.align	2
  22              		.global	ThreadAPI_Sleep
  23              		.code	16
  24              		.thumb_func
  25              		.type	ThreadAPI_Sleep, %function
  26              	ThreadAPI_Sleep:
  27              	.LFB37:
  28              		.file 1 "Source\\azure_iot_sdk\\c-utility\\pal\\freertos\\threadapi.c"
   1:Source\azure_iot_sdk\c-utility\pal\freertos/threadapi.c **** // Copyright (c) Microsoft. All rights reserved.
   2:Source\azure_iot_sdk\c-utility\pal\freertos/threadapi.c **** // Licensed under the MIT license. See LICENSE file in the project root for full license informatio
   3:Source\azure_iot_sdk\c-utility\pal\freertos/threadapi.c **** 
   4:Source\azure_iot_sdk\c-utility\pal\freertos/threadapi.c **** #include "azure_c_shared_utility/xlogging.h"
   5:Source\azure_iot_sdk\c-utility\pal\freertos/threadapi.c **** 
   6:Source\azure_iot_sdk\c-utility\pal\freertos/threadapi.c **** /*Codes_SRS_THREADAPI_FREERTOS_30_001: [ The threadapi_freertos shall implement the method ThreadAP
   7:Source\azure_iot_sdk\c-utility\pal\freertos/threadapi.c **** #include "azure_c_shared_utility/threadapi.h"
   8:Source\azure_iot_sdk\c-utility\pal\freertos/threadapi.c **** 
   9:Source\azure_iot_sdk\c-utility\pal\freertos/threadapi.c **** #include "FreeRTOS.h"
  10:Source\azure_iot_sdk\c-utility\pal\freertos/threadapi.c **** #include "task.h"
  11:Source\azure_iot_sdk\c-utility\pal\freertos/threadapi.c **** 
  12:Source\azure_iot_sdk\c-utility\pal\freertos/threadapi.c **** /*Codes_SRS_THREADAPI_FREERTOS_30_002: [ The ThreadAPI_Sleep shall receive a time in milliseconds. 
  13:Source\azure_iot_sdk\c-utility\pal\freertos/threadapi.c **** /*Codes_SRS_THREADAPI_FREERTOS_30_003: [ The ThreadAPI_Sleep shall stop the thread for the specifie
  14:Source\azure_iot_sdk\c-utility\pal\freertos/threadapi.c **** void ThreadAPI_Sleep(unsigned int milliseconds)
  15:Source\azure_iot_sdk\c-utility\pal\freertos/threadapi.c **** {
  29              		.loc 1 15 0
  30              		.cfi_startproc
  31              		@ args = 0, pretend = 0, frame = 0
  32              		@ frame_needed = 0, uses_anonymous_args = 0
  33              	.LVL0:
  34 0000 10B5     		push	{r4, lr}
  35              		.cfi_def_cfa_offset 8
  36              		.cfi_offset 4, -8
  37              		.cfi_offset 14, -4
  16:Source\azure_iot_sdk\c-utility\pal\freertos/threadapi.c ****     vTaskDelay((milliseconds * CONFIG_FREERTOS_HZ) / 1000);
  38              		.loc 1 16 0
  39 0002 FA21     		movs	r1, #250
  40 0004 8900     		lsls	r1, r1, #2
  41 0006 4843     		muls	r0, r1
ARM GAS  C:\Users\Phuong\AppData\Local\Temp\ccA6qjKe.s 			page 2


  42              	.LVL1:
  43 0008 FFF7FEFF 		bl	__aeabi_uidiv
  44              	.LVL2:
  45 000c FFF7FEFF 		bl	vTaskDelay
  46              	.LVL3:
  17:Source\azure_iot_sdk\c-utility\pal\freertos/threadapi.c **** }
  47              		.loc 1 17 0
  48              		@ sp needed
  49 0010 10BD     		pop	{r4, pc}
  50              		.cfi_endproc
  51              	.LFE37:
  52              		.size	ThreadAPI_Sleep, .-ThreadAPI_Sleep
  53 0012 C046     		.section	.text.ThreadAPI_Create,"ax",%progbits
  54              		.align	2
  55              		.global	ThreadAPI_Create
  56              		.code	16
  57              		.thumb_func
  58              		.type	ThreadAPI_Create, %function
  59              	ThreadAPI_Create:
  60              	.LFB38:
  18:Source\azure_iot_sdk\c-utility\pal\freertos/threadapi.c **** 
  19:Source\azure_iot_sdk\c-utility\pal\freertos/threadapi.c **** /*Codes_SRS_THREADAPI_FREERTOS_30_004: [ FreeRTOS is not guaranteed to support threading, so Thread
  20:Source\azure_iot_sdk\c-utility\pal\freertos/threadapi.c **** THREADAPI_RESULT ThreadAPI_Create(THREAD_HANDLE* threadHandle, THREAD_START_FUNC func, void* arg)
  21:Source\azure_iot_sdk\c-utility\pal\freertos/threadapi.c **** {
  61              		.loc 1 21 0
  62              		.cfi_startproc
  63              		@ args = 0, pretend = 0, frame = 0
  64              		@ frame_needed = 0, uses_anonymous_args = 0
  65              	.LVL4:
  66 0000 10B5     		push	{r4, lr}
  67              		.cfi_def_cfa_offset 8
  68              		.cfi_offset 4, -8
  69              		.cfi_offset 14, -4
  70 0002 82B0     		sub	sp, sp, #8
  71              		.cfi_def_cfa_offset 16
  72              	.LBB2:
  22:Source\azure_iot_sdk\c-utility\pal\freertos/threadapi.c ****     (void)threadHandle;
  23:Source\azure_iot_sdk\c-utility\pal\freertos/threadapi.c ****     (void)func;
  24:Source\azure_iot_sdk\c-utility\pal\freertos/threadapi.c ****     (void)arg;
  25:Source\azure_iot_sdk\c-utility\pal\freertos/threadapi.c ****     LogError("FreeRTOS does not support multi-threading.");
  73              		.loc 1 25 0
  74 0004 FFF7FEFF 		bl	xlogging_get_log_function
  75              	.LVL5:
  76 0008 041E     		subs	r4, r0, #0
  77              	.LVL6:
  78 000a 08D0     		beq	.L3
  79              		.loc 1 25 0 is_stmt 0 discriminator 4
  80 000c 054B     		ldr	r3, .L4
  81 000e 0193     		str	r3, [sp, #4]
  82 0010 0123     		movs	r3, #1
  83 0012 0093     		str	r3, [sp]
  84 0014 1833     		adds	r3, r3, #24
  85 0016 044A     		ldr	r2, .L4+4
  86 0018 0449     		ldr	r1, .L4+8
  87 001a 0020     		movs	r0, #0
  88              	.LVL7:
  89 001c A047     		blx	r4
ARM GAS  C:\Users\Phuong\AppData\Local\Temp\ccA6qjKe.s 			page 3


  90              	.LVL8:
  91              	.L3:
  92              	.LBE2:
  26:Source\azure_iot_sdk\c-utility\pal\freertos/threadapi.c ****     return THREADAPI_ERROR;
  27:Source\azure_iot_sdk\c-utility\pal\freertos/threadapi.c **** }
  93              		.loc 1 27 0 is_stmt 1
  94 001e 0320     		movs	r0, #3
  95 0020 02B0     		add	sp, sp, #8
  96              		@ sp needed
  97              	.LVL9:
  98 0022 10BD     		pop	{r4, pc}
  99              	.L5:
 100              		.align	2
 101              	.L4:
 102 0024 38000000 		.word	.LC3
 103 0028 00000000 		.word	.LANCHOR0
 104 002c 00000000 		.word	.LC1
 105              		.cfi_endproc
 106              	.LFE38:
 107              		.size	ThreadAPI_Create, .-ThreadAPI_Create
 108              		.section	.text.ThreadAPI_Join,"ax",%progbits
 109              		.align	2
 110              		.global	ThreadAPI_Join
 111              		.code	16
 112              		.thumb_func
 113              		.type	ThreadAPI_Join, %function
 114              	ThreadAPI_Join:
 115              	.LFB39:
  28:Source\azure_iot_sdk\c-utility\pal\freertos/threadapi.c **** 
  29:Source\azure_iot_sdk\c-utility\pal\freertos/threadapi.c **** /*Codes_SRS_THREADAPI_FREERTOS_30_005: [ FreeRTOS is not guaranteed to support threading, so Thread
  30:Source\azure_iot_sdk\c-utility\pal\freertos/threadapi.c **** THREADAPI_RESULT ThreadAPI_Join(THREAD_HANDLE threadHandle, int* res)
  31:Source\azure_iot_sdk\c-utility\pal\freertos/threadapi.c **** {
 116              		.loc 1 31 0
 117              		.cfi_startproc
 118              		@ args = 0, pretend = 0, frame = 0
 119              		@ frame_needed = 0, uses_anonymous_args = 0
 120              	.LVL10:
 121 0000 10B5     		push	{r4, lr}
 122              		.cfi_def_cfa_offset 8
 123              		.cfi_offset 4, -8
 124              		.cfi_offset 14, -4
 125 0002 82B0     		sub	sp, sp, #8
 126              		.cfi_def_cfa_offset 16
 127              	.LBB3:
  32:Source\azure_iot_sdk\c-utility\pal\freertos/threadapi.c ****     (void)threadHandle;
  33:Source\azure_iot_sdk\c-utility\pal\freertos/threadapi.c ****     (void)res;
  34:Source\azure_iot_sdk\c-utility\pal\freertos/threadapi.c ****     LogError("FreeRTOS does not support multi-threading.");
 128              		.loc 1 34 0
 129 0004 FFF7FEFF 		bl	xlogging_get_log_function
 130              	.LVL11:
 131 0008 041E     		subs	r4, r0, #0
 132              	.LVL12:
 133 000a 09D0     		beq	.L7
 134              		.loc 1 34 0 is_stmt 0 discriminator 4
 135 000c 064B     		ldr	r3, .L8
 136 000e 0193     		str	r3, [sp, #4]
 137 0010 0123     		movs	r3, #1
ARM GAS  C:\Users\Phuong\AppData\Local\Temp\ccA6qjKe.s 			page 4


 138 0012 0093     		str	r3, [sp]
 139 0014 2133     		adds	r3, r3, #33
 140 0016 054A     		ldr	r2, .L8+4
 141 0018 1432     		adds	r2, r2, #20
 142 001a 0549     		ldr	r1, .L8+8
 143 001c 0020     		movs	r0, #0
 144              	.LVL13:
 145 001e A047     		blx	r4
 146              	.LVL14:
 147              	.L7:
 148              	.LBE3:
  35:Source\azure_iot_sdk\c-utility\pal\freertos/threadapi.c ****     return THREADAPI_ERROR;
  36:Source\azure_iot_sdk\c-utility\pal\freertos/threadapi.c **** }
 149              		.loc 1 36 0 is_stmt 1
 150 0020 0320     		movs	r0, #3
 151 0022 02B0     		add	sp, sp, #8
 152              		@ sp needed
 153              	.LVL15:
 154 0024 10BD     		pop	{r4, pc}
 155              	.L9:
 156 0026 C046     		.align	2
 157              	.L8:
 158 0028 38000000 		.word	.LC3
 159 002c 00000000 		.word	.LANCHOR0
 160 0030 00000000 		.word	.LC1
 161              		.cfi_endproc
 162              	.LFE39:
 163              		.size	ThreadAPI_Join, .-ThreadAPI_Join
 164              		.section	.text.ThreadAPI_Exit,"ax",%progbits
 165              		.align	2
 166              		.global	ThreadAPI_Exit
 167              		.code	16
 168              		.thumb_func
 169              		.type	ThreadAPI_Exit, %function
 170              	ThreadAPI_Exit:
 171              	.LFB40:
  37:Source\azure_iot_sdk\c-utility\pal\freertos/threadapi.c **** 
  38:Source\azure_iot_sdk\c-utility\pal\freertos/threadapi.c **** /*Codes_SRS_THREADAPI_FREERTOS_30_006: [ FreeRTOS is not guaranteed to support threading, so Thread
  39:Source\azure_iot_sdk\c-utility\pal\freertos/threadapi.c **** void ThreadAPI_Exit(int res)
  40:Source\azure_iot_sdk\c-utility\pal\freertos/threadapi.c **** {
 172              		.loc 1 40 0
 173              		.cfi_startproc
 174              		@ args = 0, pretend = 0, frame = 0
 175              		@ frame_needed = 0, uses_anonymous_args = 0
 176              	.LVL16:
 177 0000 10B5     		push	{r4, lr}
 178              		.cfi_def_cfa_offset 8
 179              		.cfi_offset 4, -8
 180              		.cfi_offset 14, -4
 181 0002 82B0     		sub	sp, sp, #8
 182              		.cfi_def_cfa_offset 16
 183              	.LBB4:
  41:Source\azure_iot_sdk\c-utility\pal\freertos/threadapi.c ****     (void)res;
  42:Source\azure_iot_sdk\c-utility\pal\freertos/threadapi.c ****     LogError("FreeRTOS does not support multi-threading.");
 184              		.loc 1 42 0
 185 0004 FFF7FEFF 		bl	xlogging_get_log_function
 186              	.LVL17:
ARM GAS  C:\Users\Phuong\AppData\Local\Temp\ccA6qjKe.s 			page 5


 187 0008 041E     		subs	r4, r0, #0
 188              	.LVL18:
 189 000a 09D0     		beq	.L10
 190              		.loc 1 42 0 is_stmt 0 discriminator 4
 191 000c 054B     		ldr	r3, .L12
 192 000e 0193     		str	r3, [sp, #4]
 193 0010 0123     		movs	r3, #1
 194 0012 0093     		str	r3, [sp]
 195 0014 2933     		adds	r3, r3, #41
 196 0016 044A     		ldr	r2, .L12+4
 197 0018 2432     		adds	r2, r2, #36
 198 001a 0449     		ldr	r1, .L12+8
 199 001c 0020     		movs	r0, #0
 200              	.LVL19:
 201 001e A047     		blx	r4
 202              	.LVL20:
 203              	.L10:
 204              	.LBE4:
  43:Source\azure_iot_sdk\c-utility\pal\freertos/threadapi.c **** }
 205              		.loc 1 43 0 is_stmt 1
 206 0020 02B0     		add	sp, sp, #8
 207              		@ sp needed
 208              	.LVL21:
 209 0022 10BD     		pop	{r4, pc}
 210              	.L13:
 211              		.align	2
 212              	.L12:
 213 0024 38000000 		.word	.LC3
 214 0028 00000000 		.word	.LANCHOR0
 215 002c 00000000 		.word	.LC1
 216              		.cfi_endproc
 217              	.LFE40:
 218              		.size	ThreadAPI_Exit, .-ThreadAPI_Exit
 219              		.section	.rodata
 220              		.align	2
 221              		.set	.LANCHOR0,. + 0
 222              		.type	__func__.10952, %object
 223              		.size	__func__.10952, 17
 224              	__func__.10952:
 225 0000 54687265 		.ascii	"ThreadAPI_Create\000"
 225      61644150 
 225      495F4372 
 225      65617465 
 225      00
 226 0011 000000   		.space	3
 227              		.type	__func__.10960, %object
 228              		.size	__func__.10960, 15
 229              	__func__.10960:
 230 0014 54687265 		.ascii	"ThreadAPI_Join\000"
 230      61644150 
 230      495F4A6F 
 230      696E00
 231 0023 00       		.space	1
 232              		.type	__func__.10967, %object
 233              		.size	__func__.10967, 15
 234              	__func__.10967:
 235 0024 54687265 		.ascii	"ThreadAPI_Exit\000"
ARM GAS  C:\Users\Phuong\AppData\Local\Temp\ccA6qjKe.s 			page 6


 235      61644150 
 235      495F4578 
 235      697400
 236              		.section	.rodata.str1.4,"aMS",%progbits,1
 237              		.align	2
 238              	.LC1:
 239 0000 536F7572 		.ascii	"Source\\azure_iot_sdk\\c-utility\\pal\\freertos\\th"
 239      63655C61 
 239      7A757265 
 239      5F696F74 
 239      5F73646B 
 240 002e 72656164 		.ascii	"readapi.c\000"
 240      6170692E 
 240      6300
 241              	.LC3:
 242 0038 46726565 		.ascii	"FreeRTOS does not support multi-threading.\000"
 242      52544F53 
 242      20646F65 
 242      73206E6F 
 242      74207375 
 243              		.text
 244              	.Letext0:
 245              		.file 2 ".\\Source\\azure_iot_sdk\\c-utility\\inc/azure_c_shared_utility/xlogging.h"
 246              		.file 3 ".\\Source\\azure_iot_sdk\\c-utility\\inc/azure_c_shared_utility/threadapi.h"
 247              		.file 4 ".\\Source\\FreeRTOS\\10.0.1\\Source\\include/task.h"