ARM GAS  C:\Users\Phuong\AppData\Local\Temp\ccaHdweV.s 			page 1


   1              		.syntax unified
   2              		.cpu cortex-m0plus
   3              		.fpu softvfp
   4              		.eabi_attribute 20, 1
   5              		.eabi_attribute 21, 1
   6              		.eabi_attribute 23, 3
   7              		.eabi_attribute 24, 1
   8              		.eabi_attribute 25, 1
   9              		.eabi_attribute 26, 1
  10              		.eabi_attribute 30, 1
  11              		.eabi_attribute 34, 0
  12              		.eabi_attribute 18, 4
  13              		.thumb
  14              		.syntax unified
  15              		.file	"timers.c"
  16              		.text
  17              	.Ltext0:
  18              		.cfi_sections	.debug_frame
  19              		.section	.text.prvGetNextExpireTime,"ax",%progbits
  20              		.align	2
  21              		.code	16
  22              		.thumb_func
  23              		.type	prvGetNextExpireTime, %function
  24              	prvGetNextExpireTime:
  25              	.LFB47:
  26              		.file 1 "Source\\FreeRTOS\\10.0.1\\Source\\timers.c"
   1:Source\FreeRTOS\10.0.1\Source/timers.c **** /*
   2:Source\FreeRTOS\10.0.1\Source/timers.c ****  * FreeRTOS Kernel V10.0.1
   3:Source\FreeRTOS\10.0.1\Source/timers.c ****  * Copyright (C) 2017 Amazon.com, Inc. or its affiliates.  All Rights Reserved.
   4:Source\FreeRTOS\10.0.1\Source/timers.c ****  *
   5:Source\FreeRTOS\10.0.1\Source/timers.c ****  * Permission is hereby granted, free of charge, to any person obtaining a copy of
   6:Source\FreeRTOS\10.0.1\Source/timers.c ****  * this software and associated documentation files (the "Software"), to deal in
   7:Source\FreeRTOS\10.0.1\Source/timers.c ****  * the Software without restriction, including without limitation the rights to
   8:Source\FreeRTOS\10.0.1\Source/timers.c ****  * use, copy, modify, merge, publish, distribute, sublicense, and/or sell copies of
   9:Source\FreeRTOS\10.0.1\Source/timers.c ****  * the Software, and to permit persons to whom the Software is furnished to do so,
  10:Source\FreeRTOS\10.0.1\Source/timers.c ****  * subject to the following conditions:
  11:Source\FreeRTOS\10.0.1\Source/timers.c ****  *
  12:Source\FreeRTOS\10.0.1\Source/timers.c ****  * The above copyright notice and this permission notice shall be included in all
  13:Source\FreeRTOS\10.0.1\Source/timers.c ****  * copies or substantial portions of the Software.
  14:Source\FreeRTOS\10.0.1\Source/timers.c ****  *
  15:Source\FreeRTOS\10.0.1\Source/timers.c ****  * THE SOFTWARE IS PROVIDED "AS IS", WITHOUT WARRANTY OF ANY KIND, EXPRESS OR
  16:Source\FreeRTOS\10.0.1\Source/timers.c ****  * IMPLIED, INCLUDING BUT NOT LIMITED TO THE WARRANTIES OF MERCHANTABILITY, FITNESS
  17:Source\FreeRTOS\10.0.1\Source/timers.c ****  * FOR A PARTICULAR PURPOSE AND NONINFRINGEMENT. IN NO EVENT SHALL THE AUTHORS OR
  18:Source\FreeRTOS\10.0.1\Source/timers.c ****  * COPYRIGHT HOLDERS BE LIABLE FOR ANY CLAIM, DAMAGES OR OTHER LIABILITY, WHETHER
  19:Source\FreeRTOS\10.0.1\Source/timers.c ****  * IN AN ACTION OF CONTRACT, TORT OR OTHERWISE, ARISING FROM, OUT OF OR IN
  20:Source\FreeRTOS\10.0.1\Source/timers.c ****  * CONNECTION WITH THE SOFTWARE OR THE USE OR OTHER DEALINGS IN THE SOFTWARE.
  21:Source\FreeRTOS\10.0.1\Source/timers.c ****  *
  22:Source\FreeRTOS\10.0.1\Source/timers.c ****  * http://www.FreeRTOS.org
  23:Source\FreeRTOS\10.0.1\Source/timers.c ****  * http://aws.amazon.com/freertos
  24:Source\FreeRTOS\10.0.1\Source/timers.c ****  *
  25:Source\FreeRTOS\10.0.1\Source/timers.c ****  * 1 tab == 4 spaces!
  26:Source\FreeRTOS\10.0.1\Source/timers.c ****  */
  27:Source\FreeRTOS\10.0.1\Source/timers.c **** 
  28:Source\FreeRTOS\10.0.1\Source/timers.c **** /* Standard includes. */
  29:Source\FreeRTOS\10.0.1\Source/timers.c **** #include <stdlib.h>
  30:Source\FreeRTOS\10.0.1\Source/timers.c **** 
  31:Source\FreeRTOS\10.0.1\Source/timers.c **** /* Defining MPU_WRAPPERS_INCLUDED_FROM_API_FILE prevents task.h from redefining
ARM GAS  C:\Users\Phuong\AppData\Local\Temp\ccaHdweV.s 			page 2


  32:Source\FreeRTOS\10.0.1\Source/timers.c **** all the API functions to use the MPU wrappers.  That should only be done when
  33:Source\FreeRTOS\10.0.1\Source/timers.c **** task.h is included from an application file. */
  34:Source\FreeRTOS\10.0.1\Source/timers.c **** #define MPU_WRAPPERS_INCLUDED_FROM_API_FILE
  35:Source\FreeRTOS\10.0.1\Source/timers.c **** 
  36:Source\FreeRTOS\10.0.1\Source/timers.c **** #include "FreeRTOS.h"
  37:Source\FreeRTOS\10.0.1\Source/timers.c **** #include "task.h"
  38:Source\FreeRTOS\10.0.1\Source/timers.c **** #include "queue.h"
  39:Source\FreeRTOS\10.0.1\Source/timers.c **** #include "timers.h"
  40:Source\FreeRTOS\10.0.1\Source/timers.c **** 
  41:Source\FreeRTOS\10.0.1\Source/timers.c **** #if ( INCLUDE_xTimerPendFunctionCall == 1 ) && ( configUSE_TIMERS == 0 )
  42:Source\FreeRTOS\10.0.1\Source/timers.c **** 	#error configUSE_TIMERS must be set to 1 to make the xTimerPendFunctionCall() function available.
  43:Source\FreeRTOS\10.0.1\Source/timers.c **** #endif
  44:Source\FreeRTOS\10.0.1\Source/timers.c **** 
  45:Source\FreeRTOS\10.0.1\Source/timers.c **** /* Lint e961 and e750 are suppressed as a MISRA exception justified because the
  46:Source\FreeRTOS\10.0.1\Source/timers.c **** MPU ports require MPU_WRAPPERS_INCLUDED_FROM_API_FILE to be defined for the
  47:Source\FreeRTOS\10.0.1\Source/timers.c **** header files above, but not in this file, in order to generate the correct
  48:Source\FreeRTOS\10.0.1\Source/timers.c **** privileged Vs unprivileged linkage and placement. */
  49:Source\FreeRTOS\10.0.1\Source/timers.c **** #undef MPU_WRAPPERS_INCLUDED_FROM_API_FILE /*lint !e961 !e750. */
  50:Source\FreeRTOS\10.0.1\Source/timers.c **** 
  51:Source\FreeRTOS\10.0.1\Source/timers.c **** 
  52:Source\FreeRTOS\10.0.1\Source/timers.c **** /* This entire source file will be skipped if the application is not configured
  53:Source\FreeRTOS\10.0.1\Source/timers.c **** to include software timer functionality.  This #if is closed at the very bottom
  54:Source\FreeRTOS\10.0.1\Source/timers.c **** of this file.  If you want to include software timer functionality then ensure
  55:Source\FreeRTOS\10.0.1\Source/timers.c **** configUSE_TIMERS is set to 1 in FreeRTOSConfig.h. */
  56:Source\FreeRTOS\10.0.1\Source/timers.c **** #if ( configUSE_TIMERS == 1 )
  57:Source\FreeRTOS\10.0.1\Source/timers.c **** 
  58:Source\FreeRTOS\10.0.1\Source/timers.c **** /* Misc definitions. */
  59:Source\FreeRTOS\10.0.1\Source/timers.c **** #define tmrNO_DELAY		( TickType_t ) 0U
  60:Source\FreeRTOS\10.0.1\Source/timers.c **** 
  61:Source\FreeRTOS\10.0.1\Source/timers.c **** /* The name assigned to the timer service task.  This can be overridden by
  62:Source\FreeRTOS\10.0.1\Source/timers.c **** defining trmTIMER_SERVICE_TASK_NAME in FreeRTOSConfig.h. */
  63:Source\FreeRTOS\10.0.1\Source/timers.c **** #ifndef configTIMER_SERVICE_TASK_NAME
  64:Source\FreeRTOS\10.0.1\Source/timers.c **** 	#define configTIMER_SERVICE_TASK_NAME "Tmr Svc"
  65:Source\FreeRTOS\10.0.1\Source/timers.c **** #endif
  66:Source\FreeRTOS\10.0.1\Source/timers.c **** 
  67:Source\FreeRTOS\10.0.1\Source/timers.c **** /* The definition of the timers themselves. */
  68:Source\FreeRTOS\10.0.1\Source/timers.c **** typedef struct tmrTimerControl
  69:Source\FreeRTOS\10.0.1\Source/timers.c **** {
  70:Source\FreeRTOS\10.0.1\Source/timers.c **** 	const char				*pcTimerName;		/*<< Text name.  This is not used by the kernel, it is included simpl
  71:Source\FreeRTOS\10.0.1\Source/timers.c **** 	ListItem_t				xTimerListItem;		/*<< Standard linked list item as used by all kernel features for e
  72:Source\FreeRTOS\10.0.1\Source/timers.c **** 	TickType_t				xTimerPeriodInTicks;/*<< How quickly and often the timer expires. */
  73:Source\FreeRTOS\10.0.1\Source/timers.c **** 	UBaseType_t				uxAutoReload;		/*<< Set to pdTRUE if the timer should be automatically restarted on
  74:Source\FreeRTOS\10.0.1\Source/timers.c **** 	void 					*pvTimerID;			/*<< An ID to identify the timer.  This allows the timer to be identified 
  75:Source\FreeRTOS\10.0.1\Source/timers.c **** 	TimerCallbackFunction_t	pxCallbackFunction;	/*<< The function that will be called when the timer e
  76:Source\FreeRTOS\10.0.1\Source/timers.c **** 	#if( configUSE_TRACE_FACILITY == 1 )
  77:Source\FreeRTOS\10.0.1\Source/timers.c **** 		UBaseType_t			uxTimerNumber;		/*<< An ID assigned by trace tools such as FreeRTOS+Trace */
  78:Source\FreeRTOS\10.0.1\Source/timers.c **** 	#endif
  79:Source\FreeRTOS\10.0.1\Source/timers.c **** 
  80:Source\FreeRTOS\10.0.1\Source/timers.c **** 	#if( ( configSUPPORT_STATIC_ALLOCATION == 1 ) && ( configSUPPORT_DYNAMIC_ALLOCATION == 1 ) )
  81:Source\FreeRTOS\10.0.1\Source/timers.c **** 		uint8_t 			ucStaticallyAllocated; /*<< Set to pdTRUE if the timer was created statically so no at
  82:Source\FreeRTOS\10.0.1\Source/timers.c **** 	#endif
  83:Source\FreeRTOS\10.0.1\Source/timers.c **** } xTIMER;
  84:Source\FreeRTOS\10.0.1\Source/timers.c **** 
  85:Source\FreeRTOS\10.0.1\Source/timers.c **** /* The old xTIMER name is maintained above then typedefed to the new Timer_t
  86:Source\FreeRTOS\10.0.1\Source/timers.c **** name below to enable the use of older kernel aware debuggers. */
  87:Source\FreeRTOS\10.0.1\Source/timers.c **** typedef xTIMER Timer_t;
  88:Source\FreeRTOS\10.0.1\Source/timers.c **** 
ARM GAS  C:\Users\Phuong\AppData\Local\Temp\ccaHdweV.s 			page 3


  89:Source\FreeRTOS\10.0.1\Source/timers.c **** /* The definition of messages that can be sent and received on the timer queue.
  90:Source\FreeRTOS\10.0.1\Source/timers.c **** Two types of message can be queued - messages that manipulate a software timer,
  91:Source\FreeRTOS\10.0.1\Source/timers.c **** and messages that request the execution of a non-timer related callback.  The
  92:Source\FreeRTOS\10.0.1\Source/timers.c **** two message types are defined in two separate structures, xTimerParametersType
  93:Source\FreeRTOS\10.0.1\Source/timers.c **** and xCallbackParametersType respectively. */
  94:Source\FreeRTOS\10.0.1\Source/timers.c **** typedef struct tmrTimerParameters
  95:Source\FreeRTOS\10.0.1\Source/timers.c **** {
  96:Source\FreeRTOS\10.0.1\Source/timers.c **** 	TickType_t			xMessageValue;		/*<< An optional value used by a subset of commands, for example, whe
  97:Source\FreeRTOS\10.0.1\Source/timers.c **** 	Timer_t *			pxTimer;			/*<< The timer to which the command will be applied. */
  98:Source\FreeRTOS\10.0.1\Source/timers.c **** } TimerParameter_t;
  99:Source\FreeRTOS\10.0.1\Source/timers.c **** 
 100:Source\FreeRTOS\10.0.1\Source/timers.c **** 
 101:Source\FreeRTOS\10.0.1\Source/timers.c **** typedef struct tmrCallbackParameters
 102:Source\FreeRTOS\10.0.1\Source/timers.c **** {
 103:Source\FreeRTOS\10.0.1\Source/timers.c **** 	PendedFunction_t	pxCallbackFunction;	/* << The callback function to execute. */
 104:Source\FreeRTOS\10.0.1\Source/timers.c **** 	void *pvParameter1;						/* << The value that will be used as the callback functions first paramet
 105:Source\FreeRTOS\10.0.1\Source/timers.c **** 	uint32_t ulParameter2;					/* << The value that will be used as the callback functions second para
 106:Source\FreeRTOS\10.0.1\Source/timers.c **** } CallbackParameters_t;
 107:Source\FreeRTOS\10.0.1\Source/timers.c **** 
 108:Source\FreeRTOS\10.0.1\Source/timers.c **** /* The structure that contains the two message types, along with an identifier
 109:Source\FreeRTOS\10.0.1\Source/timers.c **** that is used to determine which message type is valid. */
 110:Source\FreeRTOS\10.0.1\Source/timers.c **** typedef struct tmrTimerQueueMessage
 111:Source\FreeRTOS\10.0.1\Source/timers.c **** {
 112:Source\FreeRTOS\10.0.1\Source/timers.c **** 	BaseType_t			xMessageID;			/*<< The command being sent to the timer service task. */
 113:Source\FreeRTOS\10.0.1\Source/timers.c **** 	union
 114:Source\FreeRTOS\10.0.1\Source/timers.c **** 	{
 115:Source\FreeRTOS\10.0.1\Source/timers.c **** 		TimerParameter_t xTimerParameters;
 116:Source\FreeRTOS\10.0.1\Source/timers.c **** 
 117:Source\FreeRTOS\10.0.1\Source/timers.c **** 		/* Don't include xCallbackParameters if it is not going to be used as
 118:Source\FreeRTOS\10.0.1\Source/timers.c **** 		it makes the structure (and therefore the timer queue) larger. */
 119:Source\FreeRTOS\10.0.1\Source/timers.c **** 		#if ( INCLUDE_xTimerPendFunctionCall == 1 )
 120:Source\FreeRTOS\10.0.1\Source/timers.c **** 			CallbackParameters_t xCallbackParameters;
 121:Source\FreeRTOS\10.0.1\Source/timers.c **** 		#endif /* INCLUDE_xTimerPendFunctionCall */
 122:Source\FreeRTOS\10.0.1\Source/timers.c **** 	} u;
 123:Source\FreeRTOS\10.0.1\Source/timers.c **** } DaemonTaskMessage_t;
 124:Source\FreeRTOS\10.0.1\Source/timers.c **** 
 125:Source\FreeRTOS\10.0.1\Source/timers.c **** /*lint -save -e956 A manual analysis and inspection has been used to determine
 126:Source\FreeRTOS\10.0.1\Source/timers.c **** which static variables must be declared volatile. */
 127:Source\FreeRTOS\10.0.1\Source/timers.c **** 
 128:Source\FreeRTOS\10.0.1\Source/timers.c **** /* The list in which active timers are stored.  Timers are referenced in expire
 129:Source\FreeRTOS\10.0.1\Source/timers.c **** time order, with the nearest expiry time at the front of the list.  Only the
 130:Source\FreeRTOS\10.0.1\Source/timers.c **** timer service task is allowed to access these lists. */
 131:Source\FreeRTOS\10.0.1\Source/timers.c **** PRIVILEGED_DATA static List_t xActiveTimerList1;
 132:Source\FreeRTOS\10.0.1\Source/timers.c **** PRIVILEGED_DATA static List_t xActiveTimerList2;
 133:Source\FreeRTOS\10.0.1\Source/timers.c **** PRIVILEGED_DATA static List_t *pxCurrentTimerList;
 134:Source\FreeRTOS\10.0.1\Source/timers.c **** PRIVILEGED_DATA static List_t *pxOverflowTimerList;
 135:Source\FreeRTOS\10.0.1\Source/timers.c **** 
 136:Source\FreeRTOS\10.0.1\Source/timers.c **** /* A queue that is used to send commands to the timer service task. */
 137:Source\FreeRTOS\10.0.1\Source/timers.c **** PRIVILEGED_DATA static QueueHandle_t xTimerQueue = NULL;
 138:Source\FreeRTOS\10.0.1\Source/timers.c **** PRIVILEGED_DATA static TaskHandle_t xTimerTaskHandle = NULL;
 139:Source\FreeRTOS\10.0.1\Source/timers.c **** 
 140:Source\FreeRTOS\10.0.1\Source/timers.c **** /*lint -restore */
 141:Source\FreeRTOS\10.0.1\Source/timers.c **** 
 142:Source\FreeRTOS\10.0.1\Source/timers.c **** /*-----------------------------------------------------------*/
 143:Source\FreeRTOS\10.0.1\Source/timers.c **** 
 144:Source\FreeRTOS\10.0.1\Source/timers.c **** #if( configSUPPORT_STATIC_ALLOCATION == 1 )
 145:Source\FreeRTOS\10.0.1\Source/timers.c **** 
ARM GAS  C:\Users\Phuong\AppData\Local\Temp\ccaHdweV.s 			page 4


 146:Source\FreeRTOS\10.0.1\Source/timers.c **** 	/* If static allocation is supported then the application must provide the
 147:Source\FreeRTOS\10.0.1\Source/timers.c **** 	following callback function - which enables the application to optionally
 148:Source\FreeRTOS\10.0.1\Source/timers.c **** 	provide the memory that will be used by the timer task as the task's stack
 149:Source\FreeRTOS\10.0.1\Source/timers.c **** 	and TCB. */
 150:Source\FreeRTOS\10.0.1\Source/timers.c **** 	extern void vApplicationGetTimerTaskMemory( StaticTask_t **ppxTimerTaskTCBBuffer, StackType_t **pp
 151:Source\FreeRTOS\10.0.1\Source/timers.c **** 
 152:Source\FreeRTOS\10.0.1\Source/timers.c **** #endif
 153:Source\FreeRTOS\10.0.1\Source/timers.c **** 
 154:Source\FreeRTOS\10.0.1\Source/timers.c **** /*
 155:Source\FreeRTOS\10.0.1\Source/timers.c ****  * Initialise the infrastructure used by the timer service task if it has not
 156:Source\FreeRTOS\10.0.1\Source/timers.c ****  * been initialised already.
 157:Source\FreeRTOS\10.0.1\Source/timers.c ****  */
 158:Source\FreeRTOS\10.0.1\Source/timers.c **** static void prvCheckForValidListAndQueue( void ) PRIVILEGED_FUNCTION;
 159:Source\FreeRTOS\10.0.1\Source/timers.c **** 
 160:Source\FreeRTOS\10.0.1\Source/timers.c **** /*
 161:Source\FreeRTOS\10.0.1\Source/timers.c ****  * The timer service task (daemon).  Timer functionality is controlled by this
 162:Source\FreeRTOS\10.0.1\Source/timers.c ****  * task.  Other tasks communicate with the timer service task using the
 163:Source\FreeRTOS\10.0.1\Source/timers.c ****  * xTimerQueue queue.
 164:Source\FreeRTOS\10.0.1\Source/timers.c ****  */
 165:Source\FreeRTOS\10.0.1\Source/timers.c **** static void prvTimerTask( void *pvParameters ) PRIVILEGED_FUNCTION;
 166:Source\FreeRTOS\10.0.1\Source/timers.c **** 
 167:Source\FreeRTOS\10.0.1\Source/timers.c **** /*
 168:Source\FreeRTOS\10.0.1\Source/timers.c ****  * Called by the timer service task to interpret and process a command it
 169:Source\FreeRTOS\10.0.1\Source/timers.c ****  * received on the timer queue.
 170:Source\FreeRTOS\10.0.1\Source/timers.c ****  */
 171:Source\FreeRTOS\10.0.1\Source/timers.c **** static void prvProcessReceivedCommands( void ) PRIVILEGED_FUNCTION;
 172:Source\FreeRTOS\10.0.1\Source/timers.c **** 
 173:Source\FreeRTOS\10.0.1\Source/timers.c **** /*
 174:Source\FreeRTOS\10.0.1\Source/timers.c ****  * Insert the timer into either xActiveTimerList1, or xActiveTimerList2,
 175:Source\FreeRTOS\10.0.1\Source/timers.c ****  * depending on if the expire time causes a timer counter overflow.
 176:Source\FreeRTOS\10.0.1\Source/timers.c ****  */
 177:Source\FreeRTOS\10.0.1\Source/timers.c **** static BaseType_t prvInsertTimerInActiveList( Timer_t * const pxTimer, const TickType_t xNextExpiry
 178:Source\FreeRTOS\10.0.1\Source/timers.c **** 
 179:Source\FreeRTOS\10.0.1\Source/timers.c **** /*
 180:Source\FreeRTOS\10.0.1\Source/timers.c ****  * An active timer has reached its expire time.  Reload the timer if it is an
 181:Source\FreeRTOS\10.0.1\Source/timers.c ****  * auto reload timer, then call its callback.
 182:Source\FreeRTOS\10.0.1\Source/timers.c ****  */
 183:Source\FreeRTOS\10.0.1\Source/timers.c **** static void prvProcessExpiredTimer( const TickType_t xNextExpireTime, const TickType_t xTimeNow ) P
 184:Source\FreeRTOS\10.0.1\Source/timers.c **** 
 185:Source\FreeRTOS\10.0.1\Source/timers.c **** /*
 186:Source\FreeRTOS\10.0.1\Source/timers.c ****  * The tick count has overflowed.  Switch the timer lists after ensuring the
 187:Source\FreeRTOS\10.0.1\Source/timers.c ****  * current timer list does not still reference some timers.
 188:Source\FreeRTOS\10.0.1\Source/timers.c ****  */
 189:Source\FreeRTOS\10.0.1\Source/timers.c **** static void prvSwitchTimerLists( void ) PRIVILEGED_FUNCTION;
 190:Source\FreeRTOS\10.0.1\Source/timers.c **** 
 191:Source\FreeRTOS\10.0.1\Source/timers.c **** /*
 192:Source\FreeRTOS\10.0.1\Source/timers.c ****  * Obtain the current tick count, setting *pxTimerListsWereSwitched to pdTRUE
 193:Source\FreeRTOS\10.0.1\Source/timers.c ****  * if a tick count overflow occurred since prvSampleTimeNow() was last called.
 194:Source\FreeRTOS\10.0.1\Source/timers.c ****  */
 195:Source\FreeRTOS\10.0.1\Source/timers.c **** static TickType_t prvSampleTimeNow( BaseType_t * const pxTimerListsWereSwitched ) PRIVILEGED_FUNCTI
 196:Source\FreeRTOS\10.0.1\Source/timers.c **** 
 197:Source\FreeRTOS\10.0.1\Source/timers.c **** /*
 198:Source\FreeRTOS\10.0.1\Source/timers.c ****  * If the timer list contains any active timers then return the expire time of
 199:Source\FreeRTOS\10.0.1\Source/timers.c ****  * the timer that will expire first and set *pxListWasEmpty to false.  If the
 200:Source\FreeRTOS\10.0.1\Source/timers.c ****  * timer list does not contain any timers then return 0 and set *pxListWasEmpty
 201:Source\FreeRTOS\10.0.1\Source/timers.c ****  * to pdTRUE.
 202:Source\FreeRTOS\10.0.1\Source/timers.c ****  */
ARM GAS  C:\Users\Phuong\AppData\Local\Temp\ccaHdweV.s 			page 5


 203:Source\FreeRTOS\10.0.1\Source/timers.c **** static TickType_t prvGetNextExpireTime( BaseType_t * const pxListWasEmpty ) PRIVILEGED_FUNCTION;
 204:Source\FreeRTOS\10.0.1\Source/timers.c **** 
 205:Source\FreeRTOS\10.0.1\Source/timers.c **** /*
 206:Source\FreeRTOS\10.0.1\Source/timers.c ****  * If a timer has expired, process it.  Otherwise, block the timer service task
 207:Source\FreeRTOS\10.0.1\Source/timers.c ****  * until either a timer does expire or a command is received.
 208:Source\FreeRTOS\10.0.1\Source/timers.c ****  */
 209:Source\FreeRTOS\10.0.1\Source/timers.c **** static void prvProcessTimerOrBlockTask( const TickType_t xNextExpireTime, BaseType_t xListWasEmpty 
 210:Source\FreeRTOS\10.0.1\Source/timers.c **** 
 211:Source\FreeRTOS\10.0.1\Source/timers.c **** /*
 212:Source\FreeRTOS\10.0.1\Source/timers.c ****  * Called after a Timer_t structure has been allocated either statically or
 213:Source\FreeRTOS\10.0.1\Source/timers.c ****  * dynamically to fill in the structure's members.
 214:Source\FreeRTOS\10.0.1\Source/timers.c ****  */
 215:Source\FreeRTOS\10.0.1\Source/timers.c **** static void prvInitialiseNewTimer(	const char * const pcTimerName,			/*lint !e971 Unqualified char 
 216:Source\FreeRTOS\10.0.1\Source/timers.c **** 									const TickType_t xTimerPeriodInTicks,
 217:Source\FreeRTOS\10.0.1\Source/timers.c **** 									const UBaseType_t uxAutoReload,
 218:Source\FreeRTOS\10.0.1\Source/timers.c **** 									void * const pvTimerID,
 219:Source\FreeRTOS\10.0.1\Source/timers.c **** 									TimerCallbackFunction_t pxCallbackFunction,
 220:Source\FreeRTOS\10.0.1\Source/timers.c **** 									Timer_t *pxNewTimer ) PRIVILEGED_FUNCTION;
 221:Source\FreeRTOS\10.0.1\Source/timers.c **** /*-----------------------------------------------------------*/
 222:Source\FreeRTOS\10.0.1\Source/timers.c **** 
 223:Source\FreeRTOS\10.0.1\Source/timers.c **** BaseType_t xTimerCreateTimerTask( void )
 224:Source\FreeRTOS\10.0.1\Source/timers.c **** {
 225:Source\FreeRTOS\10.0.1\Source/timers.c **** BaseType_t xReturn = pdFAIL;
 226:Source\FreeRTOS\10.0.1\Source/timers.c **** 
 227:Source\FreeRTOS\10.0.1\Source/timers.c **** 	/* This function is called when the scheduler is started if
 228:Source\FreeRTOS\10.0.1\Source/timers.c **** 	configUSE_TIMERS is set to 1.  Check that the infrastructure used by the
 229:Source\FreeRTOS\10.0.1\Source/timers.c **** 	timer service task has been created/initialised.  If timers have already
 230:Source\FreeRTOS\10.0.1\Source/timers.c **** 	been created then the initialisation will already have been performed. */
 231:Source\FreeRTOS\10.0.1\Source/timers.c **** 	prvCheckForValidListAndQueue();
 232:Source\FreeRTOS\10.0.1\Source/timers.c **** 
 233:Source\FreeRTOS\10.0.1\Source/timers.c **** 	if( xTimerQueue != NULL )
 234:Source\FreeRTOS\10.0.1\Source/timers.c **** 	{
 235:Source\FreeRTOS\10.0.1\Source/timers.c **** 		#if( configSUPPORT_STATIC_ALLOCATION == 1 )
 236:Source\FreeRTOS\10.0.1\Source/timers.c **** 		{
 237:Source\FreeRTOS\10.0.1\Source/timers.c **** 			StaticTask_t *pxTimerTaskTCBBuffer = NULL;
 238:Source\FreeRTOS\10.0.1\Source/timers.c **** 			StackType_t *pxTimerTaskStackBuffer = NULL;
 239:Source\FreeRTOS\10.0.1\Source/timers.c **** 			uint32_t ulTimerTaskStackSize;
 240:Source\FreeRTOS\10.0.1\Source/timers.c **** 
 241:Source\FreeRTOS\10.0.1\Source/timers.c **** 			vApplicationGetTimerTaskMemory( &pxTimerTaskTCBBuffer, &pxTimerTaskStackBuffer, &ulTimerTaskStac
 242:Source\FreeRTOS\10.0.1\Source/timers.c **** 			xTimerTaskHandle = xTaskCreateStatic(	prvTimerTask,
 243:Source\FreeRTOS\10.0.1\Source/timers.c **** 													configTIMER_SERVICE_TASK_NAME,
 244:Source\FreeRTOS\10.0.1\Source/timers.c **** 													ulTimerTaskStackSize,
 245:Source\FreeRTOS\10.0.1\Source/timers.c **** 													NULL,
 246:Source\FreeRTOS\10.0.1\Source/timers.c **** 													( ( UBaseType_t ) configTIMER_TASK_PRIORITY ) | portPRIVILEGE_BIT,
 247:Source\FreeRTOS\10.0.1\Source/timers.c **** 													pxTimerTaskStackBuffer,
 248:Source\FreeRTOS\10.0.1\Source/timers.c **** 													pxTimerTaskTCBBuffer );
 249:Source\FreeRTOS\10.0.1\Source/timers.c **** 
 250:Source\FreeRTOS\10.0.1\Source/timers.c **** 			if( xTimerTaskHandle != NULL )
 251:Source\FreeRTOS\10.0.1\Source/timers.c **** 			{
 252:Source\FreeRTOS\10.0.1\Source/timers.c **** 				xReturn = pdPASS;
 253:Source\FreeRTOS\10.0.1\Source/timers.c **** 			}
 254:Source\FreeRTOS\10.0.1\Source/timers.c **** 		}
 255:Source\FreeRTOS\10.0.1\Source/timers.c **** 		#else
 256:Source\FreeRTOS\10.0.1\Source/timers.c **** 		{
 257:Source\FreeRTOS\10.0.1\Source/timers.c **** 			xReturn = xTaskCreate(	prvTimerTask,
 258:Source\FreeRTOS\10.0.1\Source/timers.c **** 									configTIMER_SERVICE_TASK_NAME,
 259:Source\FreeRTOS\10.0.1\Source/timers.c **** 									configTIMER_TASK_STACK_DEPTH,
ARM GAS  C:\Users\Phuong\AppData\Local\Temp\ccaHdweV.s 			page 6


 260:Source\FreeRTOS\10.0.1\Source/timers.c **** 									NULL,
 261:Source\FreeRTOS\10.0.1\Source/timers.c **** 									( ( UBaseType_t ) configTIMER_TASK_PRIORITY ) | portPRIVILEGE_BIT,
 262:Source\FreeRTOS\10.0.1\Source/timers.c **** 									&xTimerTaskHandle );
 263:Source\FreeRTOS\10.0.1\Source/timers.c **** 		}
 264:Source\FreeRTOS\10.0.1\Source/timers.c **** 		#endif /* configSUPPORT_STATIC_ALLOCATION */
 265:Source\FreeRTOS\10.0.1\Source/timers.c **** 	}
 266:Source\FreeRTOS\10.0.1\Source/timers.c **** 	else
 267:Source\FreeRTOS\10.0.1\Source/timers.c **** 	{
 268:Source\FreeRTOS\10.0.1\Source/timers.c **** 		mtCOVERAGE_TEST_MARKER();
 269:Source\FreeRTOS\10.0.1\Source/timers.c **** 	}
 270:Source\FreeRTOS\10.0.1\Source/timers.c **** 
 271:Source\FreeRTOS\10.0.1\Source/timers.c **** 	configASSERT( xReturn );
 272:Source\FreeRTOS\10.0.1\Source/timers.c **** 	return xReturn;
 273:Source\FreeRTOS\10.0.1\Source/timers.c **** }
 274:Source\FreeRTOS\10.0.1\Source/timers.c **** /*-----------------------------------------------------------*/
 275:Source\FreeRTOS\10.0.1\Source/timers.c **** 
 276:Source\FreeRTOS\10.0.1\Source/timers.c **** #if( configSUPPORT_DYNAMIC_ALLOCATION == 1 )
 277:Source\FreeRTOS\10.0.1\Source/timers.c **** 
 278:Source\FreeRTOS\10.0.1\Source/timers.c **** 	TimerHandle_t xTimerCreate(	const char * const pcTimerName,			/*lint !e971 Unqualified char types 
 279:Source\FreeRTOS\10.0.1\Source/timers.c **** 								const TickType_t xTimerPeriodInTicks,
 280:Source\FreeRTOS\10.0.1\Source/timers.c **** 								const UBaseType_t uxAutoReload,
 281:Source\FreeRTOS\10.0.1\Source/timers.c **** 								void * const pvTimerID,
 282:Source\FreeRTOS\10.0.1\Source/timers.c **** 								TimerCallbackFunction_t pxCallbackFunction )
 283:Source\FreeRTOS\10.0.1\Source/timers.c **** 	{
 284:Source\FreeRTOS\10.0.1\Source/timers.c **** 	Timer_t *pxNewTimer;
 285:Source\FreeRTOS\10.0.1\Source/timers.c **** 
 286:Source\FreeRTOS\10.0.1\Source/timers.c **** 		pxNewTimer = ( Timer_t * ) pvPortMalloc( sizeof( Timer_t ) );
 287:Source\FreeRTOS\10.0.1\Source/timers.c **** 
 288:Source\FreeRTOS\10.0.1\Source/timers.c **** 		if( pxNewTimer != NULL )
 289:Source\FreeRTOS\10.0.1\Source/timers.c **** 		{
 290:Source\FreeRTOS\10.0.1\Source/timers.c **** 			prvInitialiseNewTimer( pcTimerName, xTimerPeriodInTicks, uxAutoReload, pvTimerID, pxCallbackFunc
 291:Source\FreeRTOS\10.0.1\Source/timers.c **** 
 292:Source\FreeRTOS\10.0.1\Source/timers.c **** 			#if( configSUPPORT_STATIC_ALLOCATION == 1 )
 293:Source\FreeRTOS\10.0.1\Source/timers.c **** 			{
 294:Source\FreeRTOS\10.0.1\Source/timers.c **** 				/* Timers can be created statically or dynamically, so note this
 295:Source\FreeRTOS\10.0.1\Source/timers.c **** 				timer was created dynamically in case the timer is later
 296:Source\FreeRTOS\10.0.1\Source/timers.c **** 				deleted. */
 297:Source\FreeRTOS\10.0.1\Source/timers.c **** 				pxNewTimer->ucStaticallyAllocated = pdFALSE;
 298:Source\FreeRTOS\10.0.1\Source/timers.c **** 			}
 299:Source\FreeRTOS\10.0.1\Source/timers.c **** 			#endif /* configSUPPORT_STATIC_ALLOCATION */
 300:Source\FreeRTOS\10.0.1\Source/timers.c **** 		}
 301:Source\FreeRTOS\10.0.1\Source/timers.c **** 
 302:Source\FreeRTOS\10.0.1\Source/timers.c **** 		return pxNewTimer;
 303:Source\FreeRTOS\10.0.1\Source/timers.c **** 	}
 304:Source\FreeRTOS\10.0.1\Source/timers.c **** 
 305:Source\FreeRTOS\10.0.1\Source/timers.c **** #endif /* configSUPPORT_STATIC_ALLOCATION */
 306:Source\FreeRTOS\10.0.1\Source/timers.c **** /*-----------------------------------------------------------*/
 307:Source\FreeRTOS\10.0.1\Source/timers.c **** 
 308:Source\FreeRTOS\10.0.1\Source/timers.c **** #if( configSUPPORT_STATIC_ALLOCATION == 1 )
 309:Source\FreeRTOS\10.0.1\Source/timers.c **** 
 310:Source\FreeRTOS\10.0.1\Source/timers.c **** 	TimerHandle_t xTimerCreateStatic(	const char * const pcTimerName,		/*lint !e971 Unqualified char t
 311:Source\FreeRTOS\10.0.1\Source/timers.c **** 										const TickType_t xTimerPeriodInTicks,
 312:Source\FreeRTOS\10.0.1\Source/timers.c **** 										const UBaseType_t uxAutoReload,
 313:Source\FreeRTOS\10.0.1\Source/timers.c **** 										void * const pvTimerID,
 314:Source\FreeRTOS\10.0.1\Source/timers.c **** 										TimerCallbackFunction_t pxCallbackFunction,
 315:Source\FreeRTOS\10.0.1\Source/timers.c **** 										StaticTimer_t *pxTimerBuffer )
 316:Source\FreeRTOS\10.0.1\Source/timers.c **** 	{
ARM GAS  C:\Users\Phuong\AppData\Local\Temp\ccaHdweV.s 			page 7


 317:Source\FreeRTOS\10.0.1\Source/timers.c **** 	Timer_t *pxNewTimer;
 318:Source\FreeRTOS\10.0.1\Source/timers.c **** 
 319:Source\FreeRTOS\10.0.1\Source/timers.c **** 		#if( configASSERT_DEFINED == 1 )
 320:Source\FreeRTOS\10.0.1\Source/timers.c **** 		{
 321:Source\FreeRTOS\10.0.1\Source/timers.c **** 			/* Sanity check that the size of the structure used to declare a
 322:Source\FreeRTOS\10.0.1\Source/timers.c **** 			variable of type StaticTimer_t equals the size of the real timer
 323:Source\FreeRTOS\10.0.1\Source/timers.c **** 			structure. */
 324:Source\FreeRTOS\10.0.1\Source/timers.c **** 			volatile size_t xSize = sizeof( StaticTimer_t );
 325:Source\FreeRTOS\10.0.1\Source/timers.c **** 			configASSERT( xSize == sizeof( Timer_t ) );
 326:Source\FreeRTOS\10.0.1\Source/timers.c **** 		}
 327:Source\FreeRTOS\10.0.1\Source/timers.c **** 		#endif /* configASSERT_DEFINED */
 328:Source\FreeRTOS\10.0.1\Source/timers.c **** 
 329:Source\FreeRTOS\10.0.1\Source/timers.c **** 		/* A pointer to a StaticTimer_t structure MUST be provided, use it. */
 330:Source\FreeRTOS\10.0.1\Source/timers.c **** 		configASSERT( pxTimerBuffer );
 331:Source\FreeRTOS\10.0.1\Source/timers.c **** 		pxNewTimer = ( Timer_t * ) pxTimerBuffer; /*lint !e740 Unusual cast is ok as the structures are d
 332:Source\FreeRTOS\10.0.1\Source/timers.c **** 
 333:Source\FreeRTOS\10.0.1\Source/timers.c **** 		if( pxNewTimer != NULL )
 334:Source\FreeRTOS\10.0.1\Source/timers.c **** 		{
 335:Source\FreeRTOS\10.0.1\Source/timers.c **** 			prvInitialiseNewTimer( pcTimerName, xTimerPeriodInTicks, uxAutoReload, pvTimerID, pxCallbackFunc
 336:Source\FreeRTOS\10.0.1\Source/timers.c **** 
 337:Source\FreeRTOS\10.0.1\Source/timers.c **** 			#if( configSUPPORT_DYNAMIC_ALLOCATION == 1 )
 338:Source\FreeRTOS\10.0.1\Source/timers.c **** 			{
 339:Source\FreeRTOS\10.0.1\Source/timers.c **** 				/* Timers can be created statically or dynamically so note this
 340:Source\FreeRTOS\10.0.1\Source/timers.c **** 				timer was created statically in case it is later deleted. */
 341:Source\FreeRTOS\10.0.1\Source/timers.c **** 				pxNewTimer->ucStaticallyAllocated = pdTRUE;
 342:Source\FreeRTOS\10.0.1\Source/timers.c **** 			}
 343:Source\FreeRTOS\10.0.1\Source/timers.c **** 			#endif /* configSUPPORT_DYNAMIC_ALLOCATION */
 344:Source\FreeRTOS\10.0.1\Source/timers.c **** 		}
 345:Source\FreeRTOS\10.0.1\Source/timers.c **** 
 346:Source\FreeRTOS\10.0.1\Source/timers.c **** 		return pxNewTimer;
 347:Source\FreeRTOS\10.0.1\Source/timers.c **** 	}
 348:Source\FreeRTOS\10.0.1\Source/timers.c **** 
 349:Source\FreeRTOS\10.0.1\Source/timers.c **** #endif /* configSUPPORT_STATIC_ALLOCATION */
 350:Source\FreeRTOS\10.0.1\Source/timers.c **** /*-----------------------------------------------------------*/
 351:Source\FreeRTOS\10.0.1\Source/timers.c **** 
 352:Source\FreeRTOS\10.0.1\Source/timers.c **** static void prvInitialiseNewTimer(	const char * const pcTimerName,			/*lint !e971 Unqualified char 
 353:Source\FreeRTOS\10.0.1\Source/timers.c **** 									const TickType_t xTimerPeriodInTicks,
 354:Source\FreeRTOS\10.0.1\Source/timers.c **** 									const UBaseType_t uxAutoReload,
 355:Source\FreeRTOS\10.0.1\Source/timers.c **** 									void * const pvTimerID,
 356:Source\FreeRTOS\10.0.1\Source/timers.c **** 									TimerCallbackFunction_t pxCallbackFunction,
 357:Source\FreeRTOS\10.0.1\Source/timers.c **** 									Timer_t *pxNewTimer )
 358:Source\FreeRTOS\10.0.1\Source/timers.c **** {
 359:Source\FreeRTOS\10.0.1\Source/timers.c **** 	/* 0 is not a valid value for xTimerPeriodInTicks. */
 360:Source\FreeRTOS\10.0.1\Source/timers.c **** 	configASSERT( ( xTimerPeriodInTicks > 0 ) );
 361:Source\FreeRTOS\10.0.1\Source/timers.c **** 
 362:Source\FreeRTOS\10.0.1\Source/timers.c **** 	if( pxNewTimer != NULL )
 363:Source\FreeRTOS\10.0.1\Source/timers.c **** 	{
 364:Source\FreeRTOS\10.0.1\Source/timers.c **** 		/* Ensure the infrastructure used by the timer service task has been
 365:Source\FreeRTOS\10.0.1\Source/timers.c **** 		created/initialised. */
 366:Source\FreeRTOS\10.0.1\Source/timers.c **** 		prvCheckForValidListAndQueue();
 367:Source\FreeRTOS\10.0.1\Source/timers.c **** 
 368:Source\FreeRTOS\10.0.1\Source/timers.c **** 		/* Initialise the timer structure members using the function
 369:Source\FreeRTOS\10.0.1\Source/timers.c **** 		parameters. */
 370:Source\FreeRTOS\10.0.1\Source/timers.c **** 		pxNewTimer->pcTimerName = pcTimerName;
 371:Source\FreeRTOS\10.0.1\Source/timers.c **** 		pxNewTimer->xTimerPeriodInTicks = xTimerPeriodInTicks;
 372:Source\FreeRTOS\10.0.1\Source/timers.c **** 		pxNewTimer->uxAutoReload = uxAutoReload;
 373:Source\FreeRTOS\10.0.1\Source/timers.c **** 		pxNewTimer->pvTimerID = pvTimerID;
ARM GAS  C:\Users\Phuong\AppData\Local\Temp\ccaHdweV.s 			page 8


 374:Source\FreeRTOS\10.0.1\Source/timers.c **** 		pxNewTimer->pxCallbackFunction = pxCallbackFunction;
 375:Source\FreeRTOS\10.0.1\Source/timers.c **** 		vListInitialiseItem( &( pxNewTimer->xTimerListItem ) );
 376:Source\FreeRTOS\10.0.1\Source/timers.c **** 		traceTIMER_CREATE( pxNewTimer );
 377:Source\FreeRTOS\10.0.1\Source/timers.c **** 	}
 378:Source\FreeRTOS\10.0.1\Source/timers.c **** }
 379:Source\FreeRTOS\10.0.1\Source/timers.c **** /*-----------------------------------------------------------*/
 380:Source\FreeRTOS\10.0.1\Source/timers.c **** 
 381:Source\FreeRTOS\10.0.1\Source/timers.c **** BaseType_t xTimerGenericCommand( TimerHandle_t xTimer, const BaseType_t xCommandID, const TickType_
 382:Source\FreeRTOS\10.0.1\Source/timers.c **** {
 383:Source\FreeRTOS\10.0.1\Source/timers.c **** BaseType_t xReturn = pdFAIL;
 384:Source\FreeRTOS\10.0.1\Source/timers.c **** DaemonTaskMessage_t xMessage;
 385:Source\FreeRTOS\10.0.1\Source/timers.c **** 
 386:Source\FreeRTOS\10.0.1\Source/timers.c **** 	configASSERT( xTimer );
 387:Source\FreeRTOS\10.0.1\Source/timers.c **** 
 388:Source\FreeRTOS\10.0.1\Source/timers.c **** 	/* Send a message to the timer service task to perform a particular action
 389:Source\FreeRTOS\10.0.1\Source/timers.c **** 	on a particular timer definition. */
 390:Source\FreeRTOS\10.0.1\Source/timers.c **** 	if( xTimerQueue != NULL )
 391:Source\FreeRTOS\10.0.1\Source/timers.c **** 	{
 392:Source\FreeRTOS\10.0.1\Source/timers.c **** 		/* Send a command to the timer service task to start the xTimer timer. */
 393:Source\FreeRTOS\10.0.1\Source/timers.c **** 		xMessage.xMessageID = xCommandID;
 394:Source\FreeRTOS\10.0.1\Source/timers.c **** 		xMessage.u.xTimerParameters.xMessageValue = xOptionalValue;
 395:Source\FreeRTOS\10.0.1\Source/timers.c **** 		xMessage.u.xTimerParameters.pxTimer = ( Timer_t * ) xTimer;
 396:Source\FreeRTOS\10.0.1\Source/timers.c **** 
 397:Source\FreeRTOS\10.0.1\Source/timers.c **** 		if( xCommandID < tmrFIRST_FROM_ISR_COMMAND )
 398:Source\FreeRTOS\10.0.1\Source/timers.c **** 		{
 399:Source\FreeRTOS\10.0.1\Source/timers.c **** 			if( xTaskGetSchedulerState() == taskSCHEDULER_RUNNING )
 400:Source\FreeRTOS\10.0.1\Source/timers.c **** 			{
 401:Source\FreeRTOS\10.0.1\Source/timers.c **** 				xReturn = xQueueSendToBack( xTimerQueue, &xMessage, xTicksToWait );
 402:Source\FreeRTOS\10.0.1\Source/timers.c **** 			}
 403:Source\FreeRTOS\10.0.1\Source/timers.c **** 			else
 404:Source\FreeRTOS\10.0.1\Source/timers.c **** 			{
 405:Source\FreeRTOS\10.0.1\Source/timers.c **** 				xReturn = xQueueSendToBack( xTimerQueue, &xMessage, tmrNO_DELAY );
 406:Source\FreeRTOS\10.0.1\Source/timers.c **** 			}
 407:Source\FreeRTOS\10.0.1\Source/timers.c **** 		}
 408:Source\FreeRTOS\10.0.1\Source/timers.c **** 		else
 409:Source\FreeRTOS\10.0.1\Source/timers.c **** 		{
 410:Source\FreeRTOS\10.0.1\Source/timers.c **** 			xReturn = xQueueSendToBackFromISR( xTimerQueue, &xMessage, pxHigherPriorityTaskWoken );
 411:Source\FreeRTOS\10.0.1\Source/timers.c **** 		}
 412:Source\FreeRTOS\10.0.1\Source/timers.c **** 
 413:Source\FreeRTOS\10.0.1\Source/timers.c **** 		traceTIMER_COMMAND_SEND( xTimer, xCommandID, xOptionalValue, xReturn );
 414:Source\FreeRTOS\10.0.1\Source/timers.c **** 	}
 415:Source\FreeRTOS\10.0.1\Source/timers.c **** 	else
 416:Source\FreeRTOS\10.0.1\Source/timers.c **** 	{
 417:Source\FreeRTOS\10.0.1\Source/timers.c **** 		mtCOVERAGE_TEST_MARKER();
 418:Source\FreeRTOS\10.0.1\Source/timers.c **** 	}
 419:Source\FreeRTOS\10.0.1\Source/timers.c **** 
 420:Source\FreeRTOS\10.0.1\Source/timers.c **** 	return xReturn;
 421:Source\FreeRTOS\10.0.1\Source/timers.c **** }
 422:Source\FreeRTOS\10.0.1\Source/timers.c **** /*-----------------------------------------------------------*/
 423:Source\FreeRTOS\10.0.1\Source/timers.c **** 
 424:Source\FreeRTOS\10.0.1\Source/timers.c **** TaskHandle_t xTimerGetTimerDaemonTaskHandle( void )
 425:Source\FreeRTOS\10.0.1\Source/timers.c **** {
 426:Source\FreeRTOS\10.0.1\Source/timers.c **** 	/* If xTimerGetTimerDaemonTaskHandle() is called before the scheduler has been
 427:Source\FreeRTOS\10.0.1\Source/timers.c **** 	started, then xTimerTaskHandle will be NULL. */
 428:Source\FreeRTOS\10.0.1\Source/timers.c **** 	configASSERT( ( xTimerTaskHandle != NULL ) );
 429:Source\FreeRTOS\10.0.1\Source/timers.c **** 	return xTimerTaskHandle;
 430:Source\FreeRTOS\10.0.1\Source/timers.c **** }
ARM GAS  C:\Users\Phuong\AppData\Local\Temp\ccaHdweV.s 			page 9


 431:Source\FreeRTOS\10.0.1\Source/timers.c **** /*-----------------------------------------------------------*/
 432:Source\FreeRTOS\10.0.1\Source/timers.c **** 
 433:Source\FreeRTOS\10.0.1\Source/timers.c **** TickType_t xTimerGetPeriod( TimerHandle_t xTimer )
 434:Source\FreeRTOS\10.0.1\Source/timers.c **** {
 435:Source\FreeRTOS\10.0.1\Source/timers.c **** Timer_t *pxTimer = ( Timer_t * ) xTimer;
 436:Source\FreeRTOS\10.0.1\Source/timers.c **** 
 437:Source\FreeRTOS\10.0.1\Source/timers.c **** 	configASSERT( xTimer );
 438:Source\FreeRTOS\10.0.1\Source/timers.c **** 	return pxTimer->xTimerPeriodInTicks;
 439:Source\FreeRTOS\10.0.1\Source/timers.c **** }
 440:Source\FreeRTOS\10.0.1\Source/timers.c **** /*-----------------------------------------------------------*/
 441:Source\FreeRTOS\10.0.1\Source/timers.c **** 
 442:Source\FreeRTOS\10.0.1\Source/timers.c **** TickType_t xTimerGetExpiryTime( TimerHandle_t xTimer )
 443:Source\FreeRTOS\10.0.1\Source/timers.c **** {
 444:Source\FreeRTOS\10.0.1\Source/timers.c **** Timer_t * pxTimer = ( Timer_t * ) xTimer;
 445:Source\FreeRTOS\10.0.1\Source/timers.c **** TickType_t xReturn;
 446:Source\FreeRTOS\10.0.1\Source/timers.c **** 
 447:Source\FreeRTOS\10.0.1\Source/timers.c **** 	configASSERT( xTimer );
 448:Source\FreeRTOS\10.0.1\Source/timers.c **** 	xReturn = listGET_LIST_ITEM_VALUE( &( pxTimer->xTimerListItem ) );
 449:Source\FreeRTOS\10.0.1\Source/timers.c **** 	return xReturn;
 450:Source\FreeRTOS\10.0.1\Source/timers.c **** }
 451:Source\FreeRTOS\10.0.1\Source/timers.c **** /*-----------------------------------------------------------*/
 452:Source\FreeRTOS\10.0.1\Source/timers.c **** 
 453:Source\FreeRTOS\10.0.1\Source/timers.c **** const char * pcTimerGetName( TimerHandle_t xTimer ) /*lint !e971 Unqualified char types are allowed
 454:Source\FreeRTOS\10.0.1\Source/timers.c **** {
 455:Source\FreeRTOS\10.0.1\Source/timers.c **** Timer_t *pxTimer = ( Timer_t * ) xTimer;
 456:Source\FreeRTOS\10.0.1\Source/timers.c **** 
 457:Source\FreeRTOS\10.0.1\Source/timers.c **** 	configASSERT( xTimer );
 458:Source\FreeRTOS\10.0.1\Source/timers.c **** 	return pxTimer->pcTimerName;
 459:Source\FreeRTOS\10.0.1\Source/timers.c **** }
 460:Source\FreeRTOS\10.0.1\Source/timers.c **** /*-----------------------------------------------------------*/
 461:Source\FreeRTOS\10.0.1\Source/timers.c **** 
 462:Source\FreeRTOS\10.0.1\Source/timers.c **** static void prvProcessExpiredTimer( const TickType_t xNextExpireTime, const TickType_t xTimeNow )
 463:Source\FreeRTOS\10.0.1\Source/timers.c **** {
 464:Source\FreeRTOS\10.0.1\Source/timers.c **** BaseType_t xResult;
 465:Source\FreeRTOS\10.0.1\Source/timers.c **** Timer_t * const pxTimer = ( Timer_t * ) listGET_OWNER_OF_HEAD_ENTRY( pxCurrentTimerList );
 466:Source\FreeRTOS\10.0.1\Source/timers.c **** 
 467:Source\FreeRTOS\10.0.1\Source/timers.c **** 	/* Remove the timer from the list of active timers.  A check has already
 468:Source\FreeRTOS\10.0.1\Source/timers.c **** 	been performed to ensure the list is not empty. */
 469:Source\FreeRTOS\10.0.1\Source/timers.c **** 	( void ) uxListRemove( &( pxTimer->xTimerListItem ) );
 470:Source\FreeRTOS\10.0.1\Source/timers.c **** 	traceTIMER_EXPIRED( pxTimer );
 471:Source\FreeRTOS\10.0.1\Source/timers.c **** 
 472:Source\FreeRTOS\10.0.1\Source/timers.c **** 	/* If the timer is an auto reload timer then calculate the next
 473:Source\FreeRTOS\10.0.1\Source/timers.c **** 	expiry time and re-insert the timer in the list of active timers. */
 474:Source\FreeRTOS\10.0.1\Source/timers.c **** 	if( pxTimer->uxAutoReload == ( UBaseType_t ) pdTRUE )
 475:Source\FreeRTOS\10.0.1\Source/timers.c **** 	{
 476:Source\FreeRTOS\10.0.1\Source/timers.c **** 		/* The timer is inserted into a list using a time relative to anything
 477:Source\FreeRTOS\10.0.1\Source/timers.c **** 		other than the current time.  It will therefore be inserted into the
 478:Source\FreeRTOS\10.0.1\Source/timers.c **** 		correct list relative to the time this task thinks it is now. */
 479:Source\FreeRTOS\10.0.1\Source/timers.c **** 		if( prvInsertTimerInActiveList( pxTimer, ( xNextExpireTime + pxTimer->xTimerPeriodInTicks ), xTim
 480:Source\FreeRTOS\10.0.1\Source/timers.c **** 		{
 481:Source\FreeRTOS\10.0.1\Source/timers.c **** 			/* The timer expired before it was added to the active timer
 482:Source\FreeRTOS\10.0.1\Source/timers.c **** 			list.  Reload it now.  */
 483:Source\FreeRTOS\10.0.1\Source/timers.c **** 			xResult = xTimerGenericCommand( pxTimer, tmrCOMMAND_START_DONT_TRACE, xNextExpireTime, NULL, tmr
 484:Source\FreeRTOS\10.0.1\Source/timers.c **** 			configASSERT( xResult );
 485:Source\FreeRTOS\10.0.1\Source/timers.c **** 			( void ) xResult;
 486:Source\FreeRTOS\10.0.1\Source/timers.c **** 		}
 487:Source\FreeRTOS\10.0.1\Source/timers.c **** 		else
ARM GAS  C:\Users\Phuong\AppData\Local\Temp\ccaHdweV.s 			page 10


 488:Source\FreeRTOS\10.0.1\Source/timers.c **** 		{
 489:Source\FreeRTOS\10.0.1\Source/timers.c **** 			mtCOVERAGE_TEST_MARKER();
 490:Source\FreeRTOS\10.0.1\Source/timers.c **** 		}
 491:Source\FreeRTOS\10.0.1\Source/timers.c **** 	}
 492:Source\FreeRTOS\10.0.1\Source/timers.c **** 	else
 493:Source\FreeRTOS\10.0.1\Source/timers.c **** 	{
 494:Source\FreeRTOS\10.0.1\Source/timers.c **** 		mtCOVERAGE_TEST_MARKER();
 495:Source\FreeRTOS\10.0.1\Source/timers.c **** 	}
 496:Source\FreeRTOS\10.0.1\Source/timers.c **** 
 497:Source\FreeRTOS\10.0.1\Source/timers.c **** 	/* Call the timer callback. */
 498:Source\FreeRTOS\10.0.1\Source/timers.c **** 	pxTimer->pxCallbackFunction( ( TimerHandle_t ) pxTimer );
 499:Source\FreeRTOS\10.0.1\Source/timers.c **** }
 500:Source\FreeRTOS\10.0.1\Source/timers.c **** /*-----------------------------------------------------------*/
 501:Source\FreeRTOS\10.0.1\Source/timers.c **** 
 502:Source\FreeRTOS\10.0.1\Source/timers.c **** static void prvTimerTask( void *pvParameters )
 503:Source\FreeRTOS\10.0.1\Source/timers.c **** {
 504:Source\FreeRTOS\10.0.1\Source/timers.c **** TickType_t xNextExpireTime;
 505:Source\FreeRTOS\10.0.1\Source/timers.c **** BaseType_t xListWasEmpty;
 506:Source\FreeRTOS\10.0.1\Source/timers.c **** 
 507:Source\FreeRTOS\10.0.1\Source/timers.c **** 	/* Just to avoid compiler warnings. */
 508:Source\FreeRTOS\10.0.1\Source/timers.c **** 	( void ) pvParameters;
 509:Source\FreeRTOS\10.0.1\Source/timers.c **** 
 510:Source\FreeRTOS\10.0.1\Source/timers.c **** 	#if( configUSE_DAEMON_TASK_STARTUP_HOOK == 1 )
 511:Source\FreeRTOS\10.0.1\Source/timers.c **** 	{
 512:Source\FreeRTOS\10.0.1\Source/timers.c **** 		extern void vApplicationDaemonTaskStartupHook( void );
 513:Source\FreeRTOS\10.0.1\Source/timers.c **** 
 514:Source\FreeRTOS\10.0.1\Source/timers.c **** 		/* Allow the application writer to execute some code in the context of
 515:Source\FreeRTOS\10.0.1\Source/timers.c **** 		this task at the point the task starts executing.  This is useful if the
 516:Source\FreeRTOS\10.0.1\Source/timers.c **** 		application includes initialisation code that would benefit from
 517:Source\FreeRTOS\10.0.1\Source/timers.c **** 		executing after the scheduler has been started. */
 518:Source\FreeRTOS\10.0.1\Source/timers.c **** 		vApplicationDaemonTaskStartupHook();
 519:Source\FreeRTOS\10.0.1\Source/timers.c **** 	}
 520:Source\FreeRTOS\10.0.1\Source/timers.c **** 	#endif /* configUSE_DAEMON_TASK_STARTUP_HOOK */
 521:Source\FreeRTOS\10.0.1\Source/timers.c **** 
 522:Source\FreeRTOS\10.0.1\Source/timers.c **** 	for( ;; )
 523:Source\FreeRTOS\10.0.1\Source/timers.c **** 	{
 524:Source\FreeRTOS\10.0.1\Source/timers.c **** 		/* Query the timers list to see if it contains any timers, and if so,
 525:Source\FreeRTOS\10.0.1\Source/timers.c **** 		obtain the time at which the next timer will expire. */
 526:Source\FreeRTOS\10.0.1\Source/timers.c **** 		xNextExpireTime = prvGetNextExpireTime( &xListWasEmpty );
 527:Source\FreeRTOS\10.0.1\Source/timers.c **** 
 528:Source\FreeRTOS\10.0.1\Source/timers.c **** 		/* If a timer has expired, process it.  Otherwise, block this task
 529:Source\FreeRTOS\10.0.1\Source/timers.c **** 		until either a timer does expire, or a command is received. */
 530:Source\FreeRTOS\10.0.1\Source/timers.c **** 		prvProcessTimerOrBlockTask( xNextExpireTime, xListWasEmpty );
 531:Source\FreeRTOS\10.0.1\Source/timers.c **** 
 532:Source\FreeRTOS\10.0.1\Source/timers.c **** 		/* Empty the command queue. */
 533:Source\FreeRTOS\10.0.1\Source/timers.c **** 		prvProcessReceivedCommands();
 534:Source\FreeRTOS\10.0.1\Source/timers.c **** 	}
 535:Source\FreeRTOS\10.0.1\Source/timers.c **** }
 536:Source\FreeRTOS\10.0.1\Source/timers.c **** /*-----------------------------------------------------------*/
 537:Source\FreeRTOS\10.0.1\Source/timers.c **** 
 538:Source\FreeRTOS\10.0.1\Source/timers.c **** static void prvProcessTimerOrBlockTask( const TickType_t xNextExpireTime, BaseType_t xListWasEmpty 
 539:Source\FreeRTOS\10.0.1\Source/timers.c **** {
 540:Source\FreeRTOS\10.0.1\Source/timers.c **** TickType_t xTimeNow;
 541:Source\FreeRTOS\10.0.1\Source/timers.c **** BaseType_t xTimerListsWereSwitched;
 542:Source\FreeRTOS\10.0.1\Source/timers.c **** 
 543:Source\FreeRTOS\10.0.1\Source/timers.c **** 	vTaskSuspendAll();
 544:Source\FreeRTOS\10.0.1\Source/timers.c **** 	{
ARM GAS  C:\Users\Phuong\AppData\Local\Temp\ccaHdweV.s 			page 11


 545:Source\FreeRTOS\10.0.1\Source/timers.c **** 		/* Obtain the time now to make an assessment as to whether the timer
 546:Source\FreeRTOS\10.0.1\Source/timers.c **** 		has expired or not.  If obtaining the time causes the lists to switch
 547:Source\FreeRTOS\10.0.1\Source/timers.c **** 		then don't process this timer as any timers that remained in the list
 548:Source\FreeRTOS\10.0.1\Source/timers.c **** 		when the lists were switched will have been processed within the
 549:Source\FreeRTOS\10.0.1\Source/timers.c **** 		prvSampleTimeNow() function. */
 550:Source\FreeRTOS\10.0.1\Source/timers.c **** 		xTimeNow = prvSampleTimeNow( &xTimerListsWereSwitched );
 551:Source\FreeRTOS\10.0.1\Source/timers.c **** 		if( xTimerListsWereSwitched == pdFALSE )
 552:Source\FreeRTOS\10.0.1\Source/timers.c **** 		{
 553:Source\FreeRTOS\10.0.1\Source/timers.c **** 			/* The tick count has not overflowed, has the timer expired? */
 554:Source\FreeRTOS\10.0.1\Source/timers.c **** 			if( ( xListWasEmpty == pdFALSE ) && ( xNextExpireTime <= xTimeNow ) )
 555:Source\FreeRTOS\10.0.1\Source/timers.c **** 			{
 556:Source\FreeRTOS\10.0.1\Source/timers.c **** 				( void ) xTaskResumeAll();
 557:Source\FreeRTOS\10.0.1\Source/timers.c **** 				prvProcessExpiredTimer( xNextExpireTime, xTimeNow );
 558:Source\FreeRTOS\10.0.1\Source/timers.c **** 			}
 559:Source\FreeRTOS\10.0.1\Source/timers.c **** 			else
 560:Source\FreeRTOS\10.0.1\Source/timers.c **** 			{
 561:Source\FreeRTOS\10.0.1\Source/timers.c **** 				/* The tick count has not overflowed, and the next expire
 562:Source\FreeRTOS\10.0.1\Source/timers.c **** 				time has not been reached yet.  This task should therefore
 563:Source\FreeRTOS\10.0.1\Source/timers.c **** 				block to wait for the next expire time or a command to be
 564:Source\FreeRTOS\10.0.1\Source/timers.c **** 				received - whichever comes first.  The following line cannot
 565:Source\FreeRTOS\10.0.1\Source/timers.c **** 				be reached unless xNextExpireTime > xTimeNow, except in the
 566:Source\FreeRTOS\10.0.1\Source/timers.c **** 				case when the current timer list is empty. */
 567:Source\FreeRTOS\10.0.1\Source/timers.c **** 				if( xListWasEmpty != pdFALSE )
 568:Source\FreeRTOS\10.0.1\Source/timers.c **** 				{
 569:Source\FreeRTOS\10.0.1\Source/timers.c **** 					/* The current timer list is empty - is the overflow list
 570:Source\FreeRTOS\10.0.1\Source/timers.c **** 					also empty? */
 571:Source\FreeRTOS\10.0.1\Source/timers.c **** 					xListWasEmpty = listLIST_IS_EMPTY( pxOverflowTimerList );
 572:Source\FreeRTOS\10.0.1\Source/timers.c **** 				}
 573:Source\FreeRTOS\10.0.1\Source/timers.c **** 
 574:Source\FreeRTOS\10.0.1\Source/timers.c **** 				vQueueWaitForMessageRestricted( xTimerQueue, ( xNextExpireTime - xTimeNow ), xListWasEmpty );
 575:Source\FreeRTOS\10.0.1\Source/timers.c **** 
 576:Source\FreeRTOS\10.0.1\Source/timers.c **** 				if( xTaskResumeAll() == pdFALSE )
 577:Source\FreeRTOS\10.0.1\Source/timers.c **** 				{
 578:Source\FreeRTOS\10.0.1\Source/timers.c **** 					/* Yield to wait for either a command to arrive, or the
 579:Source\FreeRTOS\10.0.1\Source/timers.c **** 					block time to expire.  If a command arrived between the
 580:Source\FreeRTOS\10.0.1\Source/timers.c **** 					critical section being exited and this yield then the yield
 581:Source\FreeRTOS\10.0.1\Source/timers.c **** 					will not cause the task to block. */
 582:Source\FreeRTOS\10.0.1\Source/timers.c **** 					portYIELD_WITHIN_API();
 583:Source\FreeRTOS\10.0.1\Source/timers.c **** 				}
 584:Source\FreeRTOS\10.0.1\Source/timers.c **** 				else
 585:Source\FreeRTOS\10.0.1\Source/timers.c **** 				{
 586:Source\FreeRTOS\10.0.1\Source/timers.c **** 					mtCOVERAGE_TEST_MARKER();
 587:Source\FreeRTOS\10.0.1\Source/timers.c **** 				}
 588:Source\FreeRTOS\10.0.1\Source/timers.c **** 			}
 589:Source\FreeRTOS\10.0.1\Source/timers.c **** 		}
 590:Source\FreeRTOS\10.0.1\Source/timers.c **** 		else
 591:Source\FreeRTOS\10.0.1\Source/timers.c **** 		{
 592:Source\FreeRTOS\10.0.1\Source/timers.c **** 			( void ) xTaskResumeAll();
 593:Source\FreeRTOS\10.0.1\Source/timers.c **** 		}
 594:Source\FreeRTOS\10.0.1\Source/timers.c **** 	}
 595:Source\FreeRTOS\10.0.1\Source/timers.c **** }
 596:Source\FreeRTOS\10.0.1\Source/timers.c **** /*-----------------------------------------------------------*/
 597:Source\FreeRTOS\10.0.1\Source/timers.c **** 
 598:Source\FreeRTOS\10.0.1\Source/timers.c **** static TickType_t prvGetNextExpireTime( BaseType_t * const pxListWasEmpty )
 599:Source\FreeRTOS\10.0.1\Source/timers.c **** {
  27              		.loc 1 599 0
  28              		.cfi_startproc
ARM GAS  C:\Users\Phuong\AppData\Local\Temp\ccaHdweV.s 			page 12


  29              		@ args = 0, pretend = 0, frame = 0
  30              		@ frame_needed = 0, uses_anonymous_args = 0
  31              		@ link register save eliminated.
  32              	.LVL0:
 600:Source\FreeRTOS\10.0.1\Source/timers.c **** TickType_t xNextExpireTime;
 601:Source\FreeRTOS\10.0.1\Source/timers.c **** 
 602:Source\FreeRTOS\10.0.1\Source/timers.c **** 	/* Timers are listed in expiry time order, with the head of the list
 603:Source\FreeRTOS\10.0.1\Source/timers.c **** 	referencing the task that will expire first.  Obtain the time at which
 604:Source\FreeRTOS\10.0.1\Source/timers.c **** 	the timer with the nearest expiry time will expire.  If there are no
 605:Source\FreeRTOS\10.0.1\Source/timers.c **** 	active timers then just set the next expire time to 0.  That will cause
 606:Source\FreeRTOS\10.0.1\Source/timers.c **** 	this task to unblock when the tick count overflows, at which point the
 607:Source\FreeRTOS\10.0.1\Source/timers.c **** 	timer lists will be switched and the next expiry time can be
 608:Source\FreeRTOS\10.0.1\Source/timers.c **** 	re-assessed.  */
 609:Source\FreeRTOS\10.0.1\Source/timers.c **** 	*pxListWasEmpty = listLIST_IS_EMPTY( pxCurrentTimerList );
  33              		.loc 1 609 0
  34 0000 064B     		ldr	r3, .L4
  35 0002 1A68     		ldr	r2, [r3]
  36 0004 1368     		ldr	r3, [r2]
  37 0006 5942     		rsbs	r1, r3, #0
  38 0008 4B41     		adcs	r3, r3, r1
  39 000a 0360     		str	r3, [r0]
 610:Source\FreeRTOS\10.0.1\Source/timers.c **** 	if( *pxListWasEmpty == pdFALSE )
  40              		.loc 1 610 0
  41 000c 002B     		cmp	r3, #0
  42 000e 02D1     		bne	.L3
 611:Source\FreeRTOS\10.0.1\Source/timers.c **** 	{
 612:Source\FreeRTOS\10.0.1\Source/timers.c **** 		xNextExpireTime = listGET_ITEM_VALUE_OF_HEAD_ENTRY( pxCurrentTimerList );
  43              		.loc 1 612 0
  44 0010 D368     		ldr	r3, [r2, #12]
  45 0012 1868     		ldr	r0, [r3]
  46              	.LVL1:
  47 0014 00E0     		b	.L2
  48              	.LVL2:
  49              	.L3:
 613:Source\FreeRTOS\10.0.1\Source/timers.c **** 	}
 614:Source\FreeRTOS\10.0.1\Source/timers.c **** 	else
 615:Source\FreeRTOS\10.0.1\Source/timers.c **** 	{
 616:Source\FreeRTOS\10.0.1\Source/timers.c **** 		/* Ensure the task unblocks when the tick count rolls over. */
 617:Source\FreeRTOS\10.0.1\Source/timers.c **** 		xNextExpireTime = ( TickType_t ) 0U;
  50              		.loc 1 617 0
  51 0016 0020     		movs	r0, #0
  52              	.LVL3:
  53              	.L2:
 618:Source\FreeRTOS\10.0.1\Source/timers.c **** 	}
 619:Source\FreeRTOS\10.0.1\Source/timers.c **** 
 620:Source\FreeRTOS\10.0.1\Source/timers.c **** 	return xNextExpireTime;
 621:Source\FreeRTOS\10.0.1\Source/timers.c **** }
  54              		.loc 1 621 0
  55              		@ sp needed
  56 0018 7047     		bx	lr
  57              	.L5:
  58 001a C046     		.align	2
  59              	.L4:
  60 001c 00000000 		.word	.LANCHOR0
  61              		.cfi_endproc
  62              	.LFE47:
  63              		.size	prvGetNextExpireTime, .-prvGetNextExpireTime
ARM GAS  C:\Users\Phuong\AppData\Local\Temp\ccaHdweV.s 			page 13


  64              		.section	.text.prvInsertTimerInActiveList,"ax",%progbits
  65              		.align	2
  66              		.code	16
  67              		.thumb_func
  68              		.type	prvInsertTimerInActiveList, %function
  69              	prvInsertTimerInActiveList:
  70              	.LFB49:
 622:Source\FreeRTOS\10.0.1\Source/timers.c **** /*-----------------------------------------------------------*/
 623:Source\FreeRTOS\10.0.1\Source/timers.c **** 
 624:Source\FreeRTOS\10.0.1\Source/timers.c **** static TickType_t prvSampleTimeNow( BaseType_t * const pxTimerListsWereSwitched )
 625:Source\FreeRTOS\10.0.1\Source/timers.c **** {
 626:Source\FreeRTOS\10.0.1\Source/timers.c **** TickType_t xTimeNow;
 627:Source\FreeRTOS\10.0.1\Source/timers.c **** PRIVILEGED_DATA static TickType_t xLastTime = ( TickType_t ) 0U; /*lint !e956 Variable is only acce
 628:Source\FreeRTOS\10.0.1\Source/timers.c **** 
 629:Source\FreeRTOS\10.0.1\Source/timers.c **** 	xTimeNow = xTaskGetTickCount();
 630:Source\FreeRTOS\10.0.1\Source/timers.c **** 
 631:Source\FreeRTOS\10.0.1\Source/timers.c **** 	if( xTimeNow < xLastTime )
 632:Source\FreeRTOS\10.0.1\Source/timers.c **** 	{
 633:Source\FreeRTOS\10.0.1\Source/timers.c **** 		prvSwitchTimerLists();
 634:Source\FreeRTOS\10.0.1\Source/timers.c **** 		*pxTimerListsWereSwitched = pdTRUE;
 635:Source\FreeRTOS\10.0.1\Source/timers.c **** 	}
 636:Source\FreeRTOS\10.0.1\Source/timers.c **** 	else
 637:Source\FreeRTOS\10.0.1\Source/timers.c **** 	{
 638:Source\FreeRTOS\10.0.1\Source/timers.c **** 		*pxTimerListsWereSwitched = pdFALSE;
 639:Source\FreeRTOS\10.0.1\Source/timers.c **** 	}
 640:Source\FreeRTOS\10.0.1\Source/timers.c **** 
 641:Source\FreeRTOS\10.0.1\Source/timers.c **** 	xLastTime = xTimeNow;
 642:Source\FreeRTOS\10.0.1\Source/timers.c **** 
 643:Source\FreeRTOS\10.0.1\Source/timers.c **** 	return xTimeNow;
 644:Source\FreeRTOS\10.0.1\Source/timers.c **** }
 645:Source\FreeRTOS\10.0.1\Source/timers.c **** /*-----------------------------------------------------------*/
 646:Source\FreeRTOS\10.0.1\Source/timers.c **** 
 647:Source\FreeRTOS\10.0.1\Source/timers.c **** static BaseType_t prvInsertTimerInActiveList( Timer_t * const pxTimer, const TickType_t xNextExpiry
 648:Source\FreeRTOS\10.0.1\Source/timers.c **** {
  71              		.loc 1 648 0
  72              		.cfi_startproc
  73              		@ args = 0, pretend = 0, frame = 0
  74              		@ frame_needed = 0, uses_anonymous_args = 0
  75              	.LVL4:
  76 0000 10B5     		push	{r4, lr}
  77              		.cfi_def_cfa_offset 8
  78              		.cfi_offset 4, -8
  79              		.cfi_offset 14, -4
  80              	.LVL5:
 649:Source\FreeRTOS\10.0.1\Source/timers.c **** BaseType_t xProcessTimerNow = pdFALSE;
 650:Source\FreeRTOS\10.0.1\Source/timers.c **** 
 651:Source\FreeRTOS\10.0.1\Source/timers.c **** 	listSET_LIST_ITEM_VALUE( &( pxTimer->xTimerListItem ), xNextExpiryTime );
  81              		.loc 1 651 0
  82 0002 4160     		str	r1, [r0, #4]
 652:Source\FreeRTOS\10.0.1\Source/timers.c **** 	listSET_LIST_ITEM_OWNER( &( pxTimer->xTimerListItem ), pxTimer );
  83              		.loc 1 652 0
  84 0004 0061     		str	r0, [r0, #16]
 653:Source\FreeRTOS\10.0.1\Source/timers.c **** 
 654:Source\FreeRTOS\10.0.1\Source/timers.c **** 	if( xNextExpiryTime <= xTimeNow )
  85              		.loc 1 654 0
  86 0006 9142     		cmp	r1, r2
  87 0008 0AD8     		bhi	.L7
ARM GAS  C:\Users\Phuong\AppData\Local\Temp\ccaHdweV.s 			page 14


 655:Source\FreeRTOS\10.0.1\Source/timers.c **** 	{
 656:Source\FreeRTOS\10.0.1\Source/timers.c **** 		/* Has the expiry time elapsed between the command to start/reset a
 657:Source\FreeRTOS\10.0.1\Source/timers.c **** 		timer was issued, and the time the command was processed? */
 658:Source\FreeRTOS\10.0.1\Source/timers.c **** 		if( ( ( TickType_t ) ( xTimeNow - xCommandTime ) ) >= pxTimer->xTimerPeriodInTicks ) /*lint !e961
  88              		.loc 1 658 0
  89 000a D21A     		subs	r2, r2, r3
  90              	.LVL6:
  91 000c 8369     		ldr	r3, [r0, #24]
  92              	.LVL7:
  93 000e 9A42     		cmp	r2, r3
  94 0010 11D2     		bcs	.L10
 659:Source\FreeRTOS\10.0.1\Source/timers.c **** 		{
 660:Source\FreeRTOS\10.0.1\Source/timers.c **** 			/* The time between a command being issued and the command being
 661:Source\FreeRTOS\10.0.1\Source/timers.c **** 			processed actually exceeds the timers period.  */
 662:Source\FreeRTOS\10.0.1\Source/timers.c **** 			xProcessTimerNow = pdTRUE;
 663:Source\FreeRTOS\10.0.1\Source/timers.c **** 		}
 664:Source\FreeRTOS\10.0.1\Source/timers.c **** 		else
 665:Source\FreeRTOS\10.0.1\Source/timers.c **** 		{
 666:Source\FreeRTOS\10.0.1\Source/timers.c **** 			vListInsert( pxOverflowTimerList, &( pxTimer->xTimerListItem ) );
  95              		.loc 1 666 0
  96 0012 011D     		adds	r1, r0, #4
  97              	.LVL8:
  98 0014 0A4B     		ldr	r3, .L12
  99 0016 5868     		ldr	r0, [r3, #4]
 100              	.LVL9:
 101 0018 FFF7FEFF 		bl	vListInsert
 102              	.LVL10:
 649:Source\FreeRTOS\10.0.1\Source/timers.c **** 
 103              		.loc 1 649 0
 104 001c 0020     		movs	r0, #0
 105 001e 0DE0     		b	.L8
 106              	.LVL11:
 107              	.L7:
 667:Source\FreeRTOS\10.0.1\Source/timers.c **** 		}
 668:Source\FreeRTOS\10.0.1\Source/timers.c **** 	}
 669:Source\FreeRTOS\10.0.1\Source/timers.c **** 	else
 670:Source\FreeRTOS\10.0.1\Source/timers.c **** 	{
 671:Source\FreeRTOS\10.0.1\Source/timers.c **** 		if( ( xTimeNow < xCommandTime ) && ( xNextExpiryTime >= xCommandTime ) )
 108              		.loc 1 671 0
 109 0020 9A42     		cmp	r2, r3
 110 0022 01D2     		bcs	.L9
 111              		.loc 1 671 0 is_stmt 0 discriminator 1
 112 0024 9942     		cmp	r1, r3
 113 0026 08D2     		bcs	.L11
 114              	.L9:
 672:Source\FreeRTOS\10.0.1\Source/timers.c **** 		{
 673:Source\FreeRTOS\10.0.1\Source/timers.c **** 			/* If, since the command was issued, the tick count has overflowed
 674:Source\FreeRTOS\10.0.1\Source/timers.c **** 			but the expiry time has not, then the timer must have already passed
 675:Source\FreeRTOS\10.0.1\Source/timers.c **** 			its expiry time and should be processed immediately. */
 676:Source\FreeRTOS\10.0.1\Source/timers.c **** 			xProcessTimerNow = pdTRUE;
 677:Source\FreeRTOS\10.0.1\Source/timers.c **** 		}
 678:Source\FreeRTOS\10.0.1\Source/timers.c **** 		else
 679:Source\FreeRTOS\10.0.1\Source/timers.c **** 		{
 680:Source\FreeRTOS\10.0.1\Source/timers.c **** 			vListInsert( pxCurrentTimerList, &( pxTimer->xTimerListItem ) );
 115              		.loc 1 680 0 is_stmt 1
 116 0028 011D     		adds	r1, r0, #4
 117              	.LVL12:
ARM GAS  C:\Users\Phuong\AppData\Local\Temp\ccaHdweV.s 			page 15


 118 002a 054B     		ldr	r3, .L12
 119              	.LVL13:
 120 002c 1868     		ldr	r0, [r3]
 121              	.LVL14:
 122 002e FFF7FEFF 		bl	vListInsert
 123              	.LVL15:
 649:Source\FreeRTOS\10.0.1\Source/timers.c **** 
 124              		.loc 1 649 0
 125 0032 0020     		movs	r0, #0
 126 0034 02E0     		b	.L8
 127              	.LVL16:
 128              	.L10:
 662:Source\FreeRTOS\10.0.1\Source/timers.c **** 		}
 129              		.loc 1 662 0
 130 0036 0120     		movs	r0, #1
 131              	.LVL17:
 132 0038 00E0     		b	.L8
 133              	.LVL18:
 134              	.L11:
 676:Source\FreeRTOS\10.0.1\Source/timers.c **** 		}
 135              		.loc 1 676 0
 136 003a 0120     		movs	r0, #1
 137              	.LVL19:
 138              	.L8:
 681:Source\FreeRTOS\10.0.1\Source/timers.c **** 		}
 682:Source\FreeRTOS\10.0.1\Source/timers.c **** 	}
 683:Source\FreeRTOS\10.0.1\Source/timers.c **** 
 684:Source\FreeRTOS\10.0.1\Source/timers.c **** 	return xProcessTimerNow;
 685:Source\FreeRTOS\10.0.1\Source/timers.c **** }
 139              		.loc 1 685 0
 140              		@ sp needed
 141 003c 10BD     		pop	{r4, pc}
 142              	.L13:
 143 003e C046     		.align	2
 144              	.L12:
 145 0040 00000000 		.word	.LANCHOR0
 146              		.cfi_endproc
 147              	.LFE49:
 148              		.size	prvInsertTimerInActiveList, .-prvInsertTimerInActiveList
 149              		.section	.text.prvCheckForValidListAndQueue,"ax",%progbits
 150              		.align	2
 151              		.code	16
 152              		.thumb_func
 153              		.type	prvCheckForValidListAndQueue, %function
 154              	prvCheckForValidListAndQueue:
 155              	.LFB52:
 686:Source\FreeRTOS\10.0.1\Source/timers.c **** /*-----------------------------------------------------------*/
 687:Source\FreeRTOS\10.0.1\Source/timers.c **** 
 688:Source\FreeRTOS\10.0.1\Source/timers.c **** static void	prvProcessReceivedCommands( void )
 689:Source\FreeRTOS\10.0.1\Source/timers.c **** {
 690:Source\FreeRTOS\10.0.1\Source/timers.c **** DaemonTaskMessage_t xMessage;
 691:Source\FreeRTOS\10.0.1\Source/timers.c **** Timer_t *pxTimer;
 692:Source\FreeRTOS\10.0.1\Source/timers.c **** BaseType_t xTimerListsWereSwitched, xResult;
 693:Source\FreeRTOS\10.0.1\Source/timers.c **** TickType_t xTimeNow;
 694:Source\FreeRTOS\10.0.1\Source/timers.c **** 
 695:Source\FreeRTOS\10.0.1\Source/timers.c **** 	while( xQueueReceive( xTimerQueue, &xMessage, tmrNO_DELAY ) != pdFAIL ) /*lint !e603 xMessage does
 696:Source\FreeRTOS\10.0.1\Source/timers.c **** 	{
ARM GAS  C:\Users\Phuong\AppData\Local\Temp\ccaHdweV.s 			page 16


 697:Source\FreeRTOS\10.0.1\Source/timers.c **** 		#if ( INCLUDE_xTimerPendFunctionCall == 1 )
 698:Source\FreeRTOS\10.0.1\Source/timers.c **** 		{
 699:Source\FreeRTOS\10.0.1\Source/timers.c **** 			/* Negative commands are pended function calls rather than timer
 700:Source\FreeRTOS\10.0.1\Source/timers.c **** 			commands. */
 701:Source\FreeRTOS\10.0.1\Source/timers.c **** 			if( xMessage.xMessageID < ( BaseType_t ) 0 )
 702:Source\FreeRTOS\10.0.1\Source/timers.c **** 			{
 703:Source\FreeRTOS\10.0.1\Source/timers.c **** 				const CallbackParameters_t * const pxCallback = &( xMessage.u.xCallbackParameters );
 704:Source\FreeRTOS\10.0.1\Source/timers.c **** 
 705:Source\FreeRTOS\10.0.1\Source/timers.c **** 				/* The timer uses the xCallbackParameters member to request a
 706:Source\FreeRTOS\10.0.1\Source/timers.c **** 				callback be executed.  Check the callback is not NULL. */
 707:Source\FreeRTOS\10.0.1\Source/timers.c **** 				configASSERT( pxCallback );
 708:Source\FreeRTOS\10.0.1\Source/timers.c **** 
 709:Source\FreeRTOS\10.0.1\Source/timers.c **** 				/* Call the function. */
 710:Source\FreeRTOS\10.0.1\Source/timers.c **** 				pxCallback->pxCallbackFunction( pxCallback->pvParameter1, pxCallback->ulParameter2 );
 711:Source\FreeRTOS\10.0.1\Source/timers.c **** 			}
 712:Source\FreeRTOS\10.0.1\Source/timers.c **** 			else
 713:Source\FreeRTOS\10.0.1\Source/timers.c **** 			{
 714:Source\FreeRTOS\10.0.1\Source/timers.c **** 				mtCOVERAGE_TEST_MARKER();
 715:Source\FreeRTOS\10.0.1\Source/timers.c **** 			}
 716:Source\FreeRTOS\10.0.1\Source/timers.c **** 		}
 717:Source\FreeRTOS\10.0.1\Source/timers.c **** 		#endif /* INCLUDE_xTimerPendFunctionCall */
 718:Source\FreeRTOS\10.0.1\Source/timers.c **** 
 719:Source\FreeRTOS\10.0.1\Source/timers.c **** 		/* Commands that are positive are timer commands rather than pended
 720:Source\FreeRTOS\10.0.1\Source/timers.c **** 		function calls. */
 721:Source\FreeRTOS\10.0.1\Source/timers.c **** 		if( xMessage.xMessageID >= ( BaseType_t ) 0 )
 722:Source\FreeRTOS\10.0.1\Source/timers.c **** 		{
 723:Source\FreeRTOS\10.0.1\Source/timers.c **** 			/* The messages uses the xTimerParameters member to work on a
 724:Source\FreeRTOS\10.0.1\Source/timers.c **** 			software timer. */
 725:Source\FreeRTOS\10.0.1\Source/timers.c **** 			pxTimer = xMessage.u.xTimerParameters.pxTimer;
 726:Source\FreeRTOS\10.0.1\Source/timers.c **** 
 727:Source\FreeRTOS\10.0.1\Source/timers.c **** 			if( listIS_CONTAINED_WITHIN( NULL, &( pxTimer->xTimerListItem ) ) == pdFALSE ) /*lint !e961. The
 728:Source\FreeRTOS\10.0.1\Source/timers.c **** 			{
 729:Source\FreeRTOS\10.0.1\Source/timers.c **** 				/* The timer is in a list, remove it. */
 730:Source\FreeRTOS\10.0.1\Source/timers.c **** 				( void ) uxListRemove( &( pxTimer->xTimerListItem ) );
 731:Source\FreeRTOS\10.0.1\Source/timers.c **** 			}
 732:Source\FreeRTOS\10.0.1\Source/timers.c **** 			else
 733:Source\FreeRTOS\10.0.1\Source/timers.c **** 			{
 734:Source\FreeRTOS\10.0.1\Source/timers.c **** 				mtCOVERAGE_TEST_MARKER();
 735:Source\FreeRTOS\10.0.1\Source/timers.c **** 			}
 736:Source\FreeRTOS\10.0.1\Source/timers.c **** 
 737:Source\FreeRTOS\10.0.1\Source/timers.c **** 			traceTIMER_COMMAND_RECEIVED( pxTimer, xMessage.xMessageID, xMessage.u.xTimerParameters.xMessageV
 738:Source\FreeRTOS\10.0.1\Source/timers.c **** 
 739:Source\FreeRTOS\10.0.1\Source/timers.c **** 			/* In this case the xTimerListsWereSwitched parameter is not used, but
 740:Source\FreeRTOS\10.0.1\Source/timers.c **** 			it must be present in the function call.  prvSampleTimeNow() must be
 741:Source\FreeRTOS\10.0.1\Source/timers.c **** 			called after the message is received from xTimerQueue so there is no
 742:Source\FreeRTOS\10.0.1\Source/timers.c **** 			possibility of a higher priority task adding a message to the message
 743:Source\FreeRTOS\10.0.1\Source/timers.c **** 			queue with a time that is ahead of the timer daemon task (because it
 744:Source\FreeRTOS\10.0.1\Source/timers.c **** 			pre-empted the timer daemon task after the xTimeNow value was set). */
 745:Source\FreeRTOS\10.0.1\Source/timers.c **** 			xTimeNow = prvSampleTimeNow( &xTimerListsWereSwitched );
 746:Source\FreeRTOS\10.0.1\Source/timers.c **** 
 747:Source\FreeRTOS\10.0.1\Source/timers.c **** 			switch( xMessage.xMessageID )
 748:Source\FreeRTOS\10.0.1\Source/timers.c **** 			{
 749:Source\FreeRTOS\10.0.1\Source/timers.c **** 				case tmrCOMMAND_START :
 750:Source\FreeRTOS\10.0.1\Source/timers.c **** 			    case tmrCOMMAND_START_FROM_ISR :
 751:Source\FreeRTOS\10.0.1\Source/timers.c **** 			    case tmrCOMMAND_RESET :
 752:Source\FreeRTOS\10.0.1\Source/timers.c **** 			    case tmrCOMMAND_RESET_FROM_ISR :
 753:Source\FreeRTOS\10.0.1\Source/timers.c **** 				case tmrCOMMAND_START_DONT_TRACE :
ARM GAS  C:\Users\Phuong\AppData\Local\Temp\ccaHdweV.s 			page 17


 754:Source\FreeRTOS\10.0.1\Source/timers.c **** 					/* Start or restart a timer. */
 755:Source\FreeRTOS\10.0.1\Source/timers.c **** 					if( prvInsertTimerInActiveList( pxTimer,  xMessage.u.xTimerParameters.xMessageValue + pxTimer-
 756:Source\FreeRTOS\10.0.1\Source/timers.c **** 					{
 757:Source\FreeRTOS\10.0.1\Source/timers.c **** 						/* The timer expired before it was added to the active
 758:Source\FreeRTOS\10.0.1\Source/timers.c **** 						timer list.  Process it now. */
 759:Source\FreeRTOS\10.0.1\Source/timers.c **** 						pxTimer->pxCallbackFunction( ( TimerHandle_t ) pxTimer );
 760:Source\FreeRTOS\10.0.1\Source/timers.c **** 						traceTIMER_EXPIRED( pxTimer );
 761:Source\FreeRTOS\10.0.1\Source/timers.c **** 
 762:Source\FreeRTOS\10.0.1\Source/timers.c **** 						if( pxTimer->uxAutoReload == ( UBaseType_t ) pdTRUE )
 763:Source\FreeRTOS\10.0.1\Source/timers.c **** 						{
 764:Source\FreeRTOS\10.0.1\Source/timers.c **** 							xResult = xTimerGenericCommand( pxTimer, tmrCOMMAND_START_DONT_TRACE, xMessage.u.xTimerParam
 765:Source\FreeRTOS\10.0.1\Source/timers.c **** 							configASSERT( xResult );
 766:Source\FreeRTOS\10.0.1\Source/timers.c **** 							( void ) xResult;
 767:Source\FreeRTOS\10.0.1\Source/timers.c **** 						}
 768:Source\FreeRTOS\10.0.1\Source/timers.c **** 						else
 769:Source\FreeRTOS\10.0.1\Source/timers.c **** 						{
 770:Source\FreeRTOS\10.0.1\Source/timers.c **** 							mtCOVERAGE_TEST_MARKER();
 771:Source\FreeRTOS\10.0.1\Source/timers.c **** 						}
 772:Source\FreeRTOS\10.0.1\Source/timers.c **** 					}
 773:Source\FreeRTOS\10.0.1\Source/timers.c **** 					else
 774:Source\FreeRTOS\10.0.1\Source/timers.c **** 					{
 775:Source\FreeRTOS\10.0.1\Source/timers.c **** 						mtCOVERAGE_TEST_MARKER();
 776:Source\FreeRTOS\10.0.1\Source/timers.c **** 					}
 777:Source\FreeRTOS\10.0.1\Source/timers.c **** 					break;
 778:Source\FreeRTOS\10.0.1\Source/timers.c **** 
 779:Source\FreeRTOS\10.0.1\Source/timers.c **** 				case tmrCOMMAND_STOP :
 780:Source\FreeRTOS\10.0.1\Source/timers.c **** 				case tmrCOMMAND_STOP_FROM_ISR :
 781:Source\FreeRTOS\10.0.1\Source/timers.c **** 					/* The timer has already been removed from the active list.
 782:Source\FreeRTOS\10.0.1\Source/timers.c **** 					There is nothing to do here. */
 783:Source\FreeRTOS\10.0.1\Source/timers.c **** 					break;
 784:Source\FreeRTOS\10.0.1\Source/timers.c **** 
 785:Source\FreeRTOS\10.0.1\Source/timers.c **** 				case tmrCOMMAND_CHANGE_PERIOD :
 786:Source\FreeRTOS\10.0.1\Source/timers.c **** 				case tmrCOMMAND_CHANGE_PERIOD_FROM_ISR :
 787:Source\FreeRTOS\10.0.1\Source/timers.c **** 					pxTimer->xTimerPeriodInTicks = xMessage.u.xTimerParameters.xMessageValue;
 788:Source\FreeRTOS\10.0.1\Source/timers.c **** 					configASSERT( ( pxTimer->xTimerPeriodInTicks > 0 ) );
 789:Source\FreeRTOS\10.0.1\Source/timers.c **** 
 790:Source\FreeRTOS\10.0.1\Source/timers.c **** 					/* The new period does not really have a reference, and can
 791:Source\FreeRTOS\10.0.1\Source/timers.c **** 					be longer or shorter than the old one.  The command time is
 792:Source\FreeRTOS\10.0.1\Source/timers.c **** 					therefore set to the current time, and as the period cannot
 793:Source\FreeRTOS\10.0.1\Source/timers.c **** 					be zero the next expiry time can only be in the future,
 794:Source\FreeRTOS\10.0.1\Source/timers.c **** 					meaning (unlike for the xTimerStart() case above) there is
 795:Source\FreeRTOS\10.0.1\Source/timers.c **** 					no fail case that needs to be handled here. */
 796:Source\FreeRTOS\10.0.1\Source/timers.c **** 					( void ) prvInsertTimerInActiveList( pxTimer, ( xTimeNow + pxTimer->xTimerPeriodInTicks ), xTi
 797:Source\FreeRTOS\10.0.1\Source/timers.c **** 					break;
 798:Source\FreeRTOS\10.0.1\Source/timers.c **** 
 799:Source\FreeRTOS\10.0.1\Source/timers.c **** 				case tmrCOMMAND_DELETE :
 800:Source\FreeRTOS\10.0.1\Source/timers.c **** 					/* The timer has already been removed from the active list,
 801:Source\FreeRTOS\10.0.1\Source/timers.c **** 					just free up the memory if the memory was dynamically
 802:Source\FreeRTOS\10.0.1\Source/timers.c **** 					allocated. */
 803:Source\FreeRTOS\10.0.1\Source/timers.c **** 					#if( ( configSUPPORT_DYNAMIC_ALLOCATION == 1 ) && ( configSUPPORT_STATIC_ALLOCATION == 0 ) )
 804:Source\FreeRTOS\10.0.1\Source/timers.c **** 					{
 805:Source\FreeRTOS\10.0.1\Source/timers.c **** 						/* The timer can only have been allocated dynamically -
 806:Source\FreeRTOS\10.0.1\Source/timers.c **** 						free it again. */
 807:Source\FreeRTOS\10.0.1\Source/timers.c **** 						vPortFree( pxTimer );
 808:Source\FreeRTOS\10.0.1\Source/timers.c **** 					}
 809:Source\FreeRTOS\10.0.1\Source/timers.c **** 					#elif( ( configSUPPORT_DYNAMIC_ALLOCATION == 1 ) && ( configSUPPORT_STATIC_ALLOCATION == 1 ) )
 810:Source\FreeRTOS\10.0.1\Source/timers.c **** 					{
ARM GAS  C:\Users\Phuong\AppData\Local\Temp\ccaHdweV.s 			page 18


 811:Source\FreeRTOS\10.0.1\Source/timers.c **** 						/* The timer could have been allocated statically or
 812:Source\FreeRTOS\10.0.1\Source/timers.c **** 						dynamically, so check before attempting to free the
 813:Source\FreeRTOS\10.0.1\Source/timers.c **** 						memory. */
 814:Source\FreeRTOS\10.0.1\Source/timers.c **** 						if( pxTimer->ucStaticallyAllocated == ( uint8_t ) pdFALSE )
 815:Source\FreeRTOS\10.0.1\Source/timers.c **** 						{
 816:Source\FreeRTOS\10.0.1\Source/timers.c **** 							vPortFree( pxTimer );
 817:Source\FreeRTOS\10.0.1\Source/timers.c **** 						}
 818:Source\FreeRTOS\10.0.1\Source/timers.c **** 						else
 819:Source\FreeRTOS\10.0.1\Source/timers.c **** 						{
 820:Source\FreeRTOS\10.0.1\Source/timers.c **** 							mtCOVERAGE_TEST_MARKER();
 821:Source\FreeRTOS\10.0.1\Source/timers.c **** 						}
 822:Source\FreeRTOS\10.0.1\Source/timers.c **** 					}
 823:Source\FreeRTOS\10.0.1\Source/timers.c **** 					#endif /* configSUPPORT_DYNAMIC_ALLOCATION */
 824:Source\FreeRTOS\10.0.1\Source/timers.c **** 					break;
 825:Source\FreeRTOS\10.0.1\Source/timers.c **** 
 826:Source\FreeRTOS\10.0.1\Source/timers.c **** 				default	:
 827:Source\FreeRTOS\10.0.1\Source/timers.c **** 					/* Don't expect to get here. */
 828:Source\FreeRTOS\10.0.1\Source/timers.c **** 					break;
 829:Source\FreeRTOS\10.0.1\Source/timers.c **** 			}
 830:Source\FreeRTOS\10.0.1\Source/timers.c **** 		}
 831:Source\FreeRTOS\10.0.1\Source/timers.c **** 	}
 832:Source\FreeRTOS\10.0.1\Source/timers.c **** }
 833:Source\FreeRTOS\10.0.1\Source/timers.c **** /*-----------------------------------------------------------*/
 834:Source\FreeRTOS\10.0.1\Source/timers.c **** 
 835:Source\FreeRTOS\10.0.1\Source/timers.c **** static void prvSwitchTimerLists( void )
 836:Source\FreeRTOS\10.0.1\Source/timers.c **** {
 837:Source\FreeRTOS\10.0.1\Source/timers.c **** TickType_t xNextExpireTime, xReloadTime;
 838:Source\FreeRTOS\10.0.1\Source/timers.c **** List_t *pxTemp;
 839:Source\FreeRTOS\10.0.1\Source/timers.c **** Timer_t *pxTimer;
 840:Source\FreeRTOS\10.0.1\Source/timers.c **** BaseType_t xResult;
 841:Source\FreeRTOS\10.0.1\Source/timers.c **** 
 842:Source\FreeRTOS\10.0.1\Source/timers.c **** 	/* The tick count has overflowed.  The timer lists must be switched.
 843:Source\FreeRTOS\10.0.1\Source/timers.c **** 	If there are any timers still referenced from the current timer list
 844:Source\FreeRTOS\10.0.1\Source/timers.c **** 	then they must have expired and should be processed before the lists
 845:Source\FreeRTOS\10.0.1\Source/timers.c **** 	are switched. */
 846:Source\FreeRTOS\10.0.1\Source/timers.c **** 	while( listLIST_IS_EMPTY( pxCurrentTimerList ) == pdFALSE )
 847:Source\FreeRTOS\10.0.1\Source/timers.c **** 	{
 848:Source\FreeRTOS\10.0.1\Source/timers.c **** 		xNextExpireTime = listGET_ITEM_VALUE_OF_HEAD_ENTRY( pxCurrentTimerList );
 849:Source\FreeRTOS\10.0.1\Source/timers.c **** 
 850:Source\FreeRTOS\10.0.1\Source/timers.c **** 		/* Remove the timer from the list. */
 851:Source\FreeRTOS\10.0.1\Source/timers.c **** 		pxTimer = ( Timer_t * ) listGET_OWNER_OF_HEAD_ENTRY( pxCurrentTimerList );
 852:Source\FreeRTOS\10.0.1\Source/timers.c **** 		( void ) uxListRemove( &( pxTimer->xTimerListItem ) );
 853:Source\FreeRTOS\10.0.1\Source/timers.c **** 		traceTIMER_EXPIRED( pxTimer );
 854:Source\FreeRTOS\10.0.1\Source/timers.c **** 
 855:Source\FreeRTOS\10.0.1\Source/timers.c **** 		/* Execute its callback, then send a command to restart the timer if
 856:Source\FreeRTOS\10.0.1\Source/timers.c **** 		it is an auto-reload timer.  It cannot be restarted here as the lists
 857:Source\FreeRTOS\10.0.1\Source/timers.c **** 		have not yet been switched. */
 858:Source\FreeRTOS\10.0.1\Source/timers.c **** 		pxTimer->pxCallbackFunction( ( TimerHandle_t ) pxTimer );
 859:Source\FreeRTOS\10.0.1\Source/timers.c **** 
 860:Source\FreeRTOS\10.0.1\Source/timers.c **** 		if( pxTimer->uxAutoReload == ( UBaseType_t ) pdTRUE )
 861:Source\FreeRTOS\10.0.1\Source/timers.c **** 		{
 862:Source\FreeRTOS\10.0.1\Source/timers.c **** 			/* Calculate the reload value, and if the reload value results in
 863:Source\FreeRTOS\10.0.1\Source/timers.c **** 			the timer going into the same timer list then it has already expired
 864:Source\FreeRTOS\10.0.1\Source/timers.c **** 			and the timer should be re-inserted into the current list so it is
 865:Source\FreeRTOS\10.0.1\Source/timers.c **** 			processed again within this loop.  Otherwise a command should be sent
 866:Source\FreeRTOS\10.0.1\Source/timers.c **** 			to restart the timer to ensure it is only inserted into a list after
 867:Source\FreeRTOS\10.0.1\Source/timers.c **** 			the lists have been swapped. */
ARM GAS  C:\Users\Phuong\AppData\Local\Temp\ccaHdweV.s 			page 19


 868:Source\FreeRTOS\10.0.1\Source/timers.c **** 			xReloadTime = ( xNextExpireTime + pxTimer->xTimerPeriodInTicks );
 869:Source\FreeRTOS\10.0.1\Source/timers.c **** 			if( xReloadTime > xNextExpireTime )
 870:Source\FreeRTOS\10.0.1\Source/timers.c **** 			{
 871:Source\FreeRTOS\10.0.1\Source/timers.c **** 				listSET_LIST_ITEM_VALUE( &( pxTimer->xTimerListItem ), xReloadTime );
 872:Source\FreeRTOS\10.0.1\Source/timers.c **** 				listSET_LIST_ITEM_OWNER( &( pxTimer->xTimerListItem ), pxTimer );
 873:Source\FreeRTOS\10.0.1\Source/timers.c **** 				vListInsert( pxCurrentTimerList, &( pxTimer->xTimerListItem ) );
 874:Source\FreeRTOS\10.0.1\Source/timers.c **** 			}
 875:Source\FreeRTOS\10.0.1\Source/timers.c **** 			else
 876:Source\FreeRTOS\10.0.1\Source/timers.c **** 			{
 877:Source\FreeRTOS\10.0.1\Source/timers.c **** 				xResult = xTimerGenericCommand( pxTimer, tmrCOMMAND_START_DONT_TRACE, xNextExpireTime, NULL, tm
 878:Source\FreeRTOS\10.0.1\Source/timers.c **** 				configASSERT( xResult );
 879:Source\FreeRTOS\10.0.1\Source/timers.c **** 				( void ) xResult;
 880:Source\FreeRTOS\10.0.1\Source/timers.c **** 			}
 881:Source\FreeRTOS\10.0.1\Source/timers.c **** 		}
 882:Source\FreeRTOS\10.0.1\Source/timers.c **** 		else
 883:Source\FreeRTOS\10.0.1\Source/timers.c **** 		{
 884:Source\FreeRTOS\10.0.1\Source/timers.c **** 			mtCOVERAGE_TEST_MARKER();
 885:Source\FreeRTOS\10.0.1\Source/timers.c **** 		}
 886:Source\FreeRTOS\10.0.1\Source/timers.c **** 	}
 887:Source\FreeRTOS\10.0.1\Source/timers.c **** 
 888:Source\FreeRTOS\10.0.1\Source/timers.c **** 	pxTemp = pxCurrentTimerList;
 889:Source\FreeRTOS\10.0.1\Source/timers.c **** 	pxCurrentTimerList = pxOverflowTimerList;
 890:Source\FreeRTOS\10.0.1\Source/timers.c **** 	pxOverflowTimerList = pxTemp;
 891:Source\FreeRTOS\10.0.1\Source/timers.c **** }
 892:Source\FreeRTOS\10.0.1\Source/timers.c **** /*-----------------------------------------------------------*/
 893:Source\FreeRTOS\10.0.1\Source/timers.c **** 
 894:Source\FreeRTOS\10.0.1\Source/timers.c **** static void prvCheckForValidListAndQueue( void )
 895:Source\FreeRTOS\10.0.1\Source/timers.c **** {
 156              		.loc 1 895 0
 157              		.cfi_startproc
 158              		@ args = 0, pretend = 0, frame = 0
 159              		@ frame_needed = 0, uses_anonymous_args = 0
 160 0000 70B5     		push	{r4, r5, r6, lr}
 161              		.cfi_def_cfa_offset 16
 162              		.cfi_offset 4, -16
 163              		.cfi_offset 5, -12
 164              		.cfi_offset 6, -8
 165              		.cfi_offset 14, -4
 896:Source\FreeRTOS\10.0.1\Source/timers.c **** 	/* Check that the list from which active timers are referenced, and the
 897:Source\FreeRTOS\10.0.1\Source/timers.c **** 	queue used to communicate with the timer service, have been
 898:Source\FreeRTOS\10.0.1\Source/timers.c **** 	initialised. */
 899:Source\FreeRTOS\10.0.1\Source/timers.c **** 	taskENTER_CRITICAL();
 166              		.loc 1 899 0
 167 0002 FFF7FEFF 		bl	vPortEnterCritical
 168              	.LVL20:
 900:Source\FreeRTOS\10.0.1\Source/timers.c **** 	{
 901:Source\FreeRTOS\10.0.1\Source/timers.c **** 		if( xTimerQueue == NULL )
 169              		.loc 1 901 0
 170 0006 0F4B     		ldr	r3, .L16
 171 0008 9B68     		ldr	r3, [r3, #8]
 172 000a 002B     		cmp	r3, #0
 173 000c 17D1     		bne	.L15
 902:Source\FreeRTOS\10.0.1\Source/timers.c **** 		{
 903:Source\FreeRTOS\10.0.1\Source/timers.c **** 			vListInitialise( &xActiveTimerList1 );
 174              		.loc 1 903 0
 175 000e 0D4C     		ldr	r4, .L16
 176 0010 2600     		movs	r6, r4
ARM GAS  C:\Users\Phuong\AppData\Local\Temp\ccaHdweV.s 			page 20


 177 0012 0C36     		adds	r6, r6, #12
 178 0014 3000     		movs	r0, r6
 179 0016 FFF7FEFF 		bl	vListInitialise
 180              	.LVL21:
 904:Source\FreeRTOS\10.0.1\Source/timers.c **** 			vListInitialise( &xActiveTimerList2 );
 181              		.loc 1 904 0
 182 001a 2500     		movs	r5, r4
 183 001c 2035     		adds	r5, r5, #32
 184 001e 2800     		movs	r0, r5
 185 0020 FFF7FEFF 		bl	vListInitialise
 186              	.LVL22:
 905:Source\FreeRTOS\10.0.1\Source/timers.c **** 			pxCurrentTimerList = &xActiveTimerList1;
 187              		.loc 1 905 0
 188 0024 2660     		str	r6, [r4]
 906:Source\FreeRTOS\10.0.1\Source/timers.c **** 			pxOverflowTimerList = &xActiveTimerList2;
 189              		.loc 1 906 0
 190 0026 6560     		str	r5, [r4, #4]
 907:Source\FreeRTOS\10.0.1\Source/timers.c **** 
 908:Source\FreeRTOS\10.0.1\Source/timers.c **** 			#if( configSUPPORT_STATIC_ALLOCATION == 1 )
 909:Source\FreeRTOS\10.0.1\Source/timers.c **** 			{
 910:Source\FreeRTOS\10.0.1\Source/timers.c **** 				/* The timer queue is allocated statically in case
 911:Source\FreeRTOS\10.0.1\Source/timers.c **** 				configSUPPORT_DYNAMIC_ALLOCATION is 0. */
 912:Source\FreeRTOS\10.0.1\Source/timers.c **** 				static StaticQueue_t xStaticTimerQueue; /*lint !e956 Ok to declare in this manner to prevent ad
 913:Source\FreeRTOS\10.0.1\Source/timers.c **** 				static uint8_t ucStaticTimerQueueStorage[ ( size_t ) configTIMER_QUEUE_LENGTH * sizeof( DaemonT
 914:Source\FreeRTOS\10.0.1\Source/timers.c **** 
 915:Source\FreeRTOS\10.0.1\Source/timers.c **** 				xTimerQueue = xQueueCreateStatic( ( UBaseType_t ) configTIMER_QUEUE_LENGTH, ( UBaseType_t ) siz
 916:Source\FreeRTOS\10.0.1\Source/timers.c **** 			}
 917:Source\FreeRTOS\10.0.1\Source/timers.c **** 			#else
 918:Source\FreeRTOS\10.0.1\Source/timers.c **** 			{
 919:Source\FreeRTOS\10.0.1\Source/timers.c **** 				xTimerQueue = xQueueCreate( ( UBaseType_t ) configTIMER_QUEUE_LENGTH, sizeof( DaemonTaskMessage
 191              		.loc 1 919 0
 192 0028 0022     		movs	r2, #0
 193 002a 0C21     		movs	r1, #12
 194 002c 0A20     		movs	r0, #10
 195 002e FFF7FEFF 		bl	xQueueGenericCreate
 196              	.LVL23:
 197 0032 A060     		str	r0, [r4, #8]
 920:Source\FreeRTOS\10.0.1\Source/timers.c **** 			}
 921:Source\FreeRTOS\10.0.1\Source/timers.c **** 			#endif
 922:Source\FreeRTOS\10.0.1\Source/timers.c **** 
 923:Source\FreeRTOS\10.0.1\Source/timers.c **** 			#if ( configQUEUE_REGISTRY_SIZE > 0 )
 924:Source\FreeRTOS\10.0.1\Source/timers.c **** 			{
 925:Source\FreeRTOS\10.0.1\Source/timers.c **** 				if( xTimerQueue != NULL )
 198              		.loc 1 925 0
 199 0034 0028     		cmp	r0, #0
 200 0036 02D0     		beq	.L15
 926:Source\FreeRTOS\10.0.1\Source/timers.c **** 				{
 927:Source\FreeRTOS\10.0.1\Source/timers.c **** 					vQueueAddToRegistry( xTimerQueue, "TmrQ" );
 201              		.loc 1 927 0
 202 0038 0349     		ldr	r1, .L16+4
 203 003a FFF7FEFF 		bl	vQueueAddToRegistry
 204              	.LVL24:
 205              	.L15:
 928:Source\FreeRTOS\10.0.1\Source/timers.c **** 				}
 929:Source\FreeRTOS\10.0.1\Source/timers.c **** 				else
 930:Source\FreeRTOS\10.0.1\Source/timers.c **** 				{
 931:Source\FreeRTOS\10.0.1\Source/timers.c **** 					mtCOVERAGE_TEST_MARKER();
ARM GAS  C:\Users\Phuong\AppData\Local\Temp\ccaHdweV.s 			page 21


 932:Source\FreeRTOS\10.0.1\Source/timers.c **** 				}
 933:Source\FreeRTOS\10.0.1\Source/timers.c **** 			}
 934:Source\FreeRTOS\10.0.1\Source/timers.c **** 			#endif /* configQUEUE_REGISTRY_SIZE */
 935:Source\FreeRTOS\10.0.1\Source/timers.c **** 		}
 936:Source\FreeRTOS\10.0.1\Source/timers.c **** 		else
 937:Source\FreeRTOS\10.0.1\Source/timers.c **** 		{
 938:Source\FreeRTOS\10.0.1\Source/timers.c **** 			mtCOVERAGE_TEST_MARKER();
 939:Source\FreeRTOS\10.0.1\Source/timers.c **** 		}
 940:Source\FreeRTOS\10.0.1\Source/timers.c **** 	}
 941:Source\FreeRTOS\10.0.1\Source/timers.c **** 	taskEXIT_CRITICAL();
 206              		.loc 1 941 0
 207 003e FFF7FEFF 		bl	vPortExitCritical
 208              	.LVL25:
 942:Source\FreeRTOS\10.0.1\Source/timers.c **** }
 209              		.loc 1 942 0
 210              		@ sp needed
 211 0042 70BD     		pop	{r4, r5, r6, pc}
 212              	.L17:
 213              		.align	2
 214              	.L16:
 215 0044 00000000 		.word	.LANCHOR0
 216 0048 00000000 		.word	.LC3
 217              		.cfi_endproc
 218              	.LFE52:
 219              		.size	prvCheckForValidListAndQueue, .-prvCheckForValidListAndQueue
 220              		.section	.text.prvInitialiseNewTimer,"ax",%progbits
 221              		.align	2
 222              		.code	16
 223              		.thumb_func
 224              		.type	prvInitialiseNewTimer, %function
 225              	prvInitialiseNewTimer:
 226              	.LFB38:
 358:Source\FreeRTOS\10.0.1\Source/timers.c **** 	/* 0 is not a valid value for xTimerPeriodInTicks. */
 227              		.loc 1 358 0
 228              		.cfi_startproc
 229              		@ args = 8, pretend = 0, frame = 0
 230              		@ frame_needed = 0, uses_anonymous_args = 0
 231              	.LVL26:
 232 0000 F0B5     		push	{r4, r5, r6, r7, lr}
 233              		.cfi_def_cfa_offset 20
 234              		.cfi_offset 4, -20
 235              		.cfi_offset 5, -16
 236              		.cfi_offset 6, -12
 237              		.cfi_offset 7, -8
 238              		.cfi_offset 14, -4
 239 0002 4746     		mov	r7, r8
 240 0004 80B4     		push	{r7}
 241              		.cfi_def_cfa_offset 24
 242              		.cfi_offset 8, -24
 243 0006 8046     		mov	r8, r0
 244 0008 0D00     		movs	r5, r1
 245 000a 1700     		movs	r7, r2
 246 000c 1E00     		movs	r6, r3
 247 000e 079C     		ldr	r4, [sp, #28]
 360:Source\FreeRTOS\10.0.1\Source/timers.c **** 
 248              		.loc 1 360 0
 249 0010 0029     		cmp	r1, #0
ARM GAS  C:\Users\Phuong\AppData\Local\Temp\ccaHdweV.s 			page 22


 250 0012 01D1     		bne	.L19
 360:Source\FreeRTOS\10.0.1\Source/timers.c **** 
 251              		.loc 1 360 0 is_stmt 0 discriminator 1
 252              		.syntax divided
 253              	@ 360 "Source\FreeRTOS\10.0.1\Source\timers.c" 1
 254 0014 72B6     		 cpsid i 
 255              	@ 0 "" 2
 256              		.thumb
 257              		.syntax unified
 258              	.L20:
 259 0016 FEE7     		b	.L20
 260              	.L19:
 362:Source\FreeRTOS\10.0.1\Source/timers.c **** 	{
 261              		.loc 1 362 0 is_stmt 1
 262 0018 002C     		cmp	r4, #0
 263 001a 0BD0     		beq	.L18
 366:Source\FreeRTOS\10.0.1\Source/timers.c **** 
 264              		.loc 1 366 0
 265 001c FFF7FEFF 		bl	prvCheckForValidListAndQueue
 266              	.LVL27:
 370:Source\FreeRTOS\10.0.1\Source/timers.c **** 		pxNewTimer->xTimerPeriodInTicks = xTimerPeriodInTicks;
 267              		.loc 1 370 0
 268 0020 4346     		mov	r3, r8
 269 0022 2360     		str	r3, [r4]
 371:Source\FreeRTOS\10.0.1\Source/timers.c **** 		pxNewTimer->uxAutoReload = uxAutoReload;
 270              		.loc 1 371 0
 271 0024 A561     		str	r5, [r4, #24]
 372:Source\FreeRTOS\10.0.1\Source/timers.c **** 		pxNewTimer->pvTimerID = pvTimerID;
 272              		.loc 1 372 0
 273 0026 E761     		str	r7, [r4, #28]
 373:Source\FreeRTOS\10.0.1\Source/timers.c **** 		pxNewTimer->pxCallbackFunction = pxCallbackFunction;
 274              		.loc 1 373 0
 275 0028 2662     		str	r6, [r4, #32]
 374:Source\FreeRTOS\10.0.1\Source/timers.c **** 		vListInitialiseItem( &( pxNewTimer->xTimerListItem ) );
 276              		.loc 1 374 0
 277 002a 069B     		ldr	r3, [sp, #24]
 278 002c 6362     		str	r3, [r4, #36]
 375:Source\FreeRTOS\10.0.1\Source/timers.c **** 		traceTIMER_CREATE( pxNewTimer );
 279              		.loc 1 375 0
 280 002e 201D     		adds	r0, r4, #4
 281 0030 FFF7FEFF 		bl	vListInitialiseItem
 282              	.LVL28:
 283              	.L18:
 378:Source\FreeRTOS\10.0.1\Source/timers.c **** /*-----------------------------------------------------------*/
 284              		.loc 1 378 0
 285              		@ sp needed
 286              	.LVL29:
 287              	.LVL30:
 288              	.LVL31:
 289              	.LVL32:
 290 0034 04BC     		pop	{r2}
 291 0036 9046     		mov	r8, r2
 292 0038 F0BD     		pop	{r4, r5, r6, r7, pc}
 293              		.cfi_endproc
 294              	.LFE38:
 295              		.size	prvInitialiseNewTimer, .-prvInitialiseNewTimer
 296 003a C046     		.section	.text.xTimerCreateTimerTask,"ax",%progbits
ARM GAS  C:\Users\Phuong\AppData\Local\Temp\ccaHdweV.s 			page 23


 297              		.align	2
 298              		.global	xTimerCreateTimerTask
 299              		.code	16
 300              		.thumb_func
 301              		.type	xTimerCreateTimerTask, %function
 302              	xTimerCreateTimerTask:
 303              	.LFB36:
 224:Source\FreeRTOS\10.0.1\Source/timers.c **** BaseType_t xReturn = pdFAIL;
 304              		.loc 1 224 0
 305              		.cfi_startproc
 306              		@ args = 0, pretend = 0, frame = 0
 307              		@ frame_needed = 0, uses_anonymous_args = 0
 308 0000 00B5     		push	{lr}
 309              		.cfi_def_cfa_offset 4
 310              		.cfi_offset 14, -4
 311 0002 83B0     		sub	sp, sp, #12
 312              		.cfi_def_cfa_offset 16
 313              	.LVL33:
 231:Source\FreeRTOS\10.0.1\Source/timers.c **** 
 314              		.loc 1 231 0
 315 0004 FFF7FEFF 		bl	prvCheckForValidListAndQueue
 316              	.LVL34:
 233:Source\FreeRTOS\10.0.1\Source/timers.c **** 	{
 317              		.loc 1 233 0
 318 0008 0B4B     		ldr	r3, .L27
 319 000a 9B68     		ldr	r3, [r3, #8]
 320 000c 002B     		cmp	r3, #0
 321 000e 0BD0     		beq	.L26
 257:Source\FreeRTOS\10.0.1\Source/timers.c **** 									configTIMER_SERVICE_TASK_NAME,
 322              		.loc 1 257 0
 323 0010 094B     		ldr	r3, .L27
 324 0012 3433     		adds	r3, r3, #52
 325 0014 0193     		str	r3, [sp, #4]
 326 0016 0323     		movs	r3, #3
 327 0018 0093     		str	r3, [sp]
 328 001a 0023     		movs	r3, #0
 329 001c 8022     		movs	r2, #128
 330 001e 0749     		ldr	r1, .L27+4
 331 0020 0748     		ldr	r0, .L27+8
 332 0022 FFF7FEFF 		bl	xTaskCreate
 333              	.LVL35:
 334 0026 00E0     		b	.L23
 335              	.LVL36:
 336              	.L26:
 225:Source\FreeRTOS\10.0.1\Source/timers.c **** 
 337              		.loc 1 225 0
 338 0028 0020     		movs	r0, #0
 339              	.LVL37:
 340              	.L23:
 271:Source\FreeRTOS\10.0.1\Source/timers.c **** 	return xReturn;
 341              		.loc 1 271 0
 342 002a 0028     		cmp	r0, #0
 343 002c 01D1     		bne	.L24
 271:Source\FreeRTOS\10.0.1\Source/timers.c **** 	return xReturn;
 344              		.loc 1 271 0 is_stmt 0 discriminator 1
 345              		.syntax divided
 346              	@ 271 "Source\FreeRTOS\10.0.1\Source\timers.c" 1
ARM GAS  C:\Users\Phuong\AppData\Local\Temp\ccaHdweV.s 			page 24


 347 002e 72B6     		 cpsid i 
 348              	@ 0 "" 2
 349              		.thumb
 350              		.syntax unified
 351              	.L25:
 352 0030 FEE7     		b	.L25
 353              	.L24:
 273:Source\FreeRTOS\10.0.1\Source/timers.c **** /*-----------------------------------------------------------*/
 354              		.loc 1 273 0 is_stmt 1
 355 0032 03B0     		add	sp, sp, #12
 356              		@ sp needed
 357 0034 00BD     		pop	{pc}
 358              	.L28:
 359 0036 C046     		.align	2
 360              	.L27:
 361 0038 00000000 		.word	.LANCHOR0
 362 003c 08000000 		.word	.LC8
 363 0040 00000000 		.word	prvTimerTask
 364              		.cfi_endproc
 365              	.LFE36:
 366              		.size	xTimerCreateTimerTask, .-xTimerCreateTimerTask
 367              		.section	.text.xTimerCreate,"ax",%progbits
 368              		.align	2
 369              		.global	xTimerCreate
 370              		.code	16
 371              		.thumb_func
 372              		.type	xTimerCreate, %function
 373              	xTimerCreate:
 374              	.LFB37:
 283:Source\FreeRTOS\10.0.1\Source/timers.c **** 	Timer_t *pxNewTimer;
 375              		.loc 1 283 0
 376              		.cfi_startproc
 377              		@ args = 4, pretend = 0, frame = 8
 378              		@ frame_needed = 0, uses_anonymous_args = 0
 379              	.LVL38:
 380 0000 F0B5     		push	{r4, r5, r6, r7, lr}
 381              		.cfi_def_cfa_offset 20
 382              		.cfi_offset 4, -20
 383              		.cfi_offset 5, -16
 384              		.cfi_offset 6, -12
 385              		.cfi_offset 7, -8
 386              		.cfi_offset 14, -4
 387 0002 85B0     		sub	sp, sp, #20
 388              		.cfi_def_cfa_offset 40
 389 0004 0390     		str	r0, [sp, #12]
 390 0006 0D00     		movs	r5, r1
 391 0008 1600     		movs	r6, r2
 392 000a 1F00     		movs	r7, r3
 286:Source\FreeRTOS\10.0.1\Source/timers.c **** 
 393              		.loc 1 286 0
 394 000c 2C20     		movs	r0, #44
 395              	.LVL39:
 396 000e FFF7FEFF 		bl	pvPortMalloc
 397              	.LVL40:
 398 0012 041E     		subs	r4, r0, #0
 399              	.LVL41:
 288:Source\FreeRTOS\10.0.1\Source/timers.c **** 		{
ARM GAS  C:\Users\Phuong\AppData\Local\Temp\ccaHdweV.s 			page 25


 400              		.loc 1 288 0
 401 0014 08D0     		beq	.L30
 290:Source\FreeRTOS\10.0.1\Source/timers.c **** 
 402              		.loc 1 290 0
 403 0016 0190     		str	r0, [sp, #4]
 404 0018 0A9B     		ldr	r3, [sp, #40]
 405 001a 0093     		str	r3, [sp]
 406 001c 3B00     		movs	r3, r7
 407 001e 3200     		movs	r2, r6
 408 0020 2900     		movs	r1, r5
 409 0022 0398     		ldr	r0, [sp, #12]
 410              	.LVL42:
 411 0024 FFF7FEFF 		bl	prvInitialiseNewTimer
 412              	.LVL43:
 413              	.L30:
 303:Source\FreeRTOS\10.0.1\Source/timers.c **** 
 414              		.loc 1 303 0
 415 0028 2000     		movs	r0, r4
 416 002a 05B0     		add	sp, sp, #20
 417              		@ sp needed
 418              	.LVL44:
 419              	.LVL45:
 420              	.LVL46:
 421              	.LVL47:
 422 002c F0BD     		pop	{r4, r5, r6, r7, pc}
 423              		.cfi_endproc
 424              	.LFE37:
 425              		.size	xTimerCreate, .-xTimerCreate
 426 002e C046     		.section	.text.xTimerGenericCommand,"ax",%progbits
 427              		.align	2
 428              		.global	xTimerGenericCommand
 429              		.code	16
 430              		.thumb_func
 431              		.type	xTimerGenericCommand, %function
 432              	xTimerGenericCommand:
 433              	.LFB39:
 382:Source\FreeRTOS\10.0.1\Source/timers.c **** BaseType_t xReturn = pdFAIL;
 434              		.loc 1 382 0
 435              		.cfi_startproc
 436              		@ args = 4, pretend = 0, frame = 16
 437              		@ frame_needed = 0, uses_anonymous_args = 0
 438              	.LVL48:
 439 0000 30B5     		push	{r4, r5, lr}
 440              		.cfi_def_cfa_offset 12
 441              		.cfi_offset 4, -12
 442              		.cfi_offset 5, -8
 443              		.cfi_offset 14, -4
 444 0002 85B0     		sub	sp, sp, #20
 445              		.cfi_def_cfa_offset 32
 446 0004 0400     		movs	r4, r0
 447 0006 1D00     		movs	r5, r3
 448              	.LVL49:
 386:Source\FreeRTOS\10.0.1\Source/timers.c **** 
 449              		.loc 1 386 0
 450 0008 0028     		cmp	r0, #0
 451 000a 01D1     		bne	.L32
 386:Source\FreeRTOS\10.0.1\Source/timers.c **** 
ARM GAS  C:\Users\Phuong\AppData\Local\Temp\ccaHdweV.s 			page 26


 452              		.loc 1 386 0 is_stmt 0 discriminator 1
 453              		.syntax divided
 454              	@ 386 "Source\FreeRTOS\10.0.1\Source\timers.c" 1
 455 000c 72B6     		 cpsid i 
 456              	@ 0 "" 2
 457              		.thumb
 458              		.syntax unified
 459              	.L33:
 460 000e FEE7     		b	.L33
 461              	.L32:
 390:Source\FreeRTOS\10.0.1\Source/timers.c **** 	{
 462              		.loc 1 390 0 is_stmt 1
 463 0010 124B     		ldr	r3, .L38
 464              	.LVL50:
 465 0012 9868     		ldr	r0, [r3, #8]
 466              	.LVL51:
 467 0014 0028     		cmp	r0, #0
 468 0016 1ED0     		beq	.L37
 393:Source\FreeRTOS\10.0.1\Source/timers.c **** 		xMessage.u.xTimerParameters.xMessageValue = xOptionalValue;
 469              		.loc 1 393 0
 470 0018 0191     		str	r1, [sp, #4]
 394:Source\FreeRTOS\10.0.1\Source/timers.c **** 		xMessage.u.xTimerParameters.pxTimer = ( Timer_t * ) xTimer;
 471              		.loc 1 394 0
 472 001a 0292     		str	r2, [sp, #8]
 395:Source\FreeRTOS\10.0.1\Source/timers.c **** 
 473              		.loc 1 395 0
 474 001c 0394     		str	r4, [sp, #12]
 397:Source\FreeRTOS\10.0.1\Source/timers.c **** 		{
 475              		.loc 1 397 0
 476 001e 0529     		cmp	r1, #5
 477 0020 13DC     		bgt	.L35
 399:Source\FreeRTOS\10.0.1\Source/timers.c **** 			{
 478              		.loc 1 399 0
 479 0022 FFF7FEFF 		bl	xTaskGetSchedulerState
 480              	.LVL52:
 481 0026 0228     		cmp	r0, #2
 482 0028 07D1     		bne	.L36
 401:Source\FreeRTOS\10.0.1\Source/timers.c **** 			}
 483              		.loc 1 401 0
 484 002a 0C4B     		ldr	r3, .L38
 485 002c 9868     		ldr	r0, [r3, #8]
 486 002e 0023     		movs	r3, #0
 487 0030 089A     		ldr	r2, [sp, #32]
 488 0032 01A9     		add	r1, sp, #4
 489 0034 FFF7FEFF 		bl	xQueueGenericSend
 490              	.LVL53:
 491 0038 0EE0     		b	.L34
 492              	.LVL54:
 493              	.L36:
 405:Source\FreeRTOS\10.0.1\Source/timers.c **** 			}
 494              		.loc 1 405 0
 495 003a 084B     		ldr	r3, .L38
 496 003c 9868     		ldr	r0, [r3, #8]
 497 003e 0023     		movs	r3, #0
 498 0040 0022     		movs	r2, #0
 499 0042 01A9     		add	r1, sp, #4
 500 0044 FFF7FEFF 		bl	xQueueGenericSend
ARM GAS  C:\Users\Phuong\AppData\Local\Temp\ccaHdweV.s 			page 27


 501              	.LVL55:
 502 0048 06E0     		b	.L34
 503              	.LVL56:
 504              	.L35:
 410:Source\FreeRTOS\10.0.1\Source/timers.c **** 		}
 505              		.loc 1 410 0
 506 004a 0023     		movs	r3, #0
 507 004c 2A00     		movs	r2, r5
 508              	.LVL57:
 509 004e 01A9     		add	r1, sp, #4
 510              	.LVL58:
 511 0050 FFF7FEFF 		bl	xQueueGenericSendFromISR
 512              	.LVL59:
 513 0054 00E0     		b	.L34
 514              	.LVL60:
 515              	.L37:
 383:Source\FreeRTOS\10.0.1\Source/timers.c **** DaemonTaskMessage_t xMessage;
 516              		.loc 1 383 0
 517 0056 0020     		movs	r0, #0
 518              	.LVL61:
 519              	.L34:
 421:Source\FreeRTOS\10.0.1\Source/timers.c **** /*-----------------------------------------------------------*/
 520              		.loc 1 421 0
 521 0058 05B0     		add	sp, sp, #20
 522              		@ sp needed
 523              	.LVL62:
 524              	.LVL63:
 525 005a 30BD     		pop	{r4, r5, pc}
 526              	.L39:
 527              		.align	2
 528              	.L38:
 529 005c 00000000 		.word	.LANCHOR0
 530              		.cfi_endproc
 531              	.LFE39:
 532              		.size	xTimerGenericCommand, .-xTimerGenericCommand
 533              		.section	.text.prvSwitchTimerLists,"ax",%progbits
 534              		.align	2
 535              		.code	16
 536              		.thumb_func
 537              		.type	prvSwitchTimerLists, %function
 538              	prvSwitchTimerLists:
 539              	.LFB51:
 836:Source\FreeRTOS\10.0.1\Source/timers.c **** TickType_t xNextExpireTime, xReloadTime;
 540              		.loc 1 836 0
 541              		.cfi_startproc
 542              		@ args = 0, pretend = 0, frame = 0
 543              		@ frame_needed = 0, uses_anonymous_args = 0
 544 0000 70B5     		push	{r4, r5, r6, lr}
 545              		.cfi_def_cfa_offset 16
 546              		.cfi_offset 4, -16
 547              		.cfi_offset 5, -12
 548              		.cfi_offset 6, -8
 549              		.cfi_offset 14, -4
 550 0002 82B0     		sub	sp, sp, #8
 551              		.cfi_def_cfa_offset 24
 846:Source\FreeRTOS\10.0.1\Source/timers.c **** 	{
 552              		.loc 1 846 0
ARM GAS  C:\Users\Phuong\AppData\Local\Temp\ccaHdweV.s 			page 28


 553 0004 23E0     		b	.L42
 554              	.L46:
 848:Source\FreeRTOS\10.0.1\Source/timers.c **** 
 555              		.loc 1 848 0
 556 0006 DB68     		ldr	r3, [r3, #12]
 557 0008 1E68     		ldr	r6, [r3]
 558              	.LVL64:
 851:Source\FreeRTOS\10.0.1\Source/timers.c **** 		( void ) uxListRemove( &( pxTimer->xTimerListItem ) );
 559              		.loc 1 851 0
 560 000a DC68     		ldr	r4, [r3, #12]
 561              	.LVL65:
 852:Source\FreeRTOS\10.0.1\Source/timers.c **** 		traceTIMER_EXPIRED( pxTimer );
 562              		.loc 1 852 0
 563 000c 251D     		adds	r5, r4, #4
 564 000e 2800     		movs	r0, r5
 565 0010 FFF7FEFF 		bl	uxListRemove
 566              	.LVL66:
 858:Source\FreeRTOS\10.0.1\Source/timers.c **** 
 567              		.loc 1 858 0
 568 0014 2000     		movs	r0, r4
 569 0016 636A     		ldr	r3, [r4, #36]
 570 0018 9847     		blx	r3
 571              	.LVL67:
 860:Source\FreeRTOS\10.0.1\Source/timers.c **** 		{
 572              		.loc 1 860 0
 573 001a E369     		ldr	r3, [r4, #28]
 574 001c 012B     		cmp	r3, #1
 575 001e 16D1     		bne	.L42
 868:Source\FreeRTOS\10.0.1\Source/timers.c **** 			if( xReloadTime > xNextExpireTime )
 576              		.loc 1 868 0
 577 0020 A369     		ldr	r3, [r4, #24]
 578 0022 F318     		adds	r3, r6, r3
 579              	.LVL68:
 869:Source\FreeRTOS\10.0.1\Source/timers.c **** 			{
 580              		.loc 1 869 0
 581 0024 9E42     		cmp	r6, r3
 582 0026 07D2     		bcs	.L43
 871:Source\FreeRTOS\10.0.1\Source/timers.c **** 				listSET_LIST_ITEM_OWNER( &( pxTimer->xTimerListItem ), pxTimer );
 583              		.loc 1 871 0
 584 0028 6360     		str	r3, [r4, #4]
 872:Source\FreeRTOS\10.0.1\Source/timers.c **** 				vListInsert( pxCurrentTimerList, &( pxTimer->xTimerListItem ) );
 585              		.loc 1 872 0
 586 002a 2461     		str	r4, [r4, #16]
 873:Source\FreeRTOS\10.0.1\Source/timers.c **** 			}
 587              		.loc 1 873 0
 588 002c 0D4B     		ldr	r3, .L47
 589              	.LVL69:
 590 002e 1868     		ldr	r0, [r3]
 591 0030 2900     		movs	r1, r5
 592 0032 FFF7FEFF 		bl	vListInsert
 593              	.LVL70:
 594 0036 0AE0     		b	.L42
 595              	.LVL71:
 596              	.L43:
 877:Source\FreeRTOS\10.0.1\Source/timers.c **** 				configASSERT( xResult );
 597              		.loc 1 877 0
 598 0038 0023     		movs	r3, #0
ARM GAS  C:\Users\Phuong\AppData\Local\Temp\ccaHdweV.s 			page 29


 599              	.LVL72:
 600 003a 0093     		str	r3, [sp]
 601              	.LVL73:
 602 003c 3200     		movs	r2, r6
 603 003e 0021     		movs	r1, #0
 604 0040 2000     		movs	r0, r4
 605 0042 FFF7FEFF 		bl	xTimerGenericCommand
 606              	.LVL74:
 878:Source\FreeRTOS\10.0.1\Source/timers.c **** 				( void ) xResult;
 607              		.loc 1 878 0
 608 0046 0028     		cmp	r0, #0
 609 0048 01D1     		bne	.L42
 878:Source\FreeRTOS\10.0.1\Source/timers.c **** 				( void ) xResult;
 610              		.loc 1 878 0 is_stmt 0 discriminator 1
 611              		.syntax divided
 612              	@ 878 "Source\FreeRTOS\10.0.1\Source\timers.c" 1
 613 004a 72B6     		 cpsid i 
 614              	@ 0 "" 2
 615              		.thumb
 616              		.syntax unified
 617              	.L45:
 618 004c FEE7     		b	.L45
 619              	.LVL75:
 620              	.L42:
 846:Source\FreeRTOS\10.0.1\Source/timers.c **** 	{
 621              		.loc 1 846 0 is_stmt 1
 622 004e 054B     		ldr	r3, .L47
 623 0050 1B68     		ldr	r3, [r3]
 624 0052 1A68     		ldr	r2, [r3]
 625 0054 002A     		cmp	r2, #0
 626 0056 D6D1     		bne	.L46
 627              	.LVL76:
 889:Source\FreeRTOS\10.0.1\Source/timers.c **** 	pxOverflowTimerList = pxTemp;
 628              		.loc 1 889 0
 629 0058 024A     		ldr	r2, .L47
 630 005a 5168     		ldr	r1, [r2, #4]
 631 005c 1160     		str	r1, [r2]
 890:Source\FreeRTOS\10.0.1\Source/timers.c **** }
 632              		.loc 1 890 0
 633 005e 5360     		str	r3, [r2, #4]
 891:Source\FreeRTOS\10.0.1\Source/timers.c **** /*-----------------------------------------------------------*/
 634              		.loc 1 891 0
 635 0060 02B0     		add	sp, sp, #8
 636              		@ sp needed
 637 0062 70BD     		pop	{r4, r5, r6, pc}
 638              	.L48:
 639              		.align	2
 640              	.L47:
 641 0064 00000000 		.word	.LANCHOR0
 642              		.cfi_endproc
 643              	.LFE51:
 644              		.size	prvSwitchTimerLists, .-prvSwitchTimerLists
 645              		.section	.text.prvSampleTimeNow,"ax",%progbits
 646              		.align	2
 647              		.code	16
 648              		.thumb_func
 649              		.type	prvSampleTimeNow, %function
ARM GAS  C:\Users\Phuong\AppData\Local\Temp\ccaHdweV.s 			page 30


 650              	prvSampleTimeNow:
 651              	.LFB48:
 625:Source\FreeRTOS\10.0.1\Source/timers.c **** TickType_t xTimeNow;
 652              		.loc 1 625 0
 653              		.cfi_startproc
 654              		@ args = 0, pretend = 0, frame = 0
 655              		@ frame_needed = 0, uses_anonymous_args = 0
 656              	.LVL77:
 657 0000 70B5     		push	{r4, r5, r6, lr}
 658              		.cfi_def_cfa_offset 16
 659              		.cfi_offset 4, -16
 660              		.cfi_offset 5, -12
 661              		.cfi_offset 6, -8
 662              		.cfi_offset 14, -4
 663 0002 0500     		movs	r5, r0
 629:Source\FreeRTOS\10.0.1\Source/timers.c **** 
 664              		.loc 1 629 0
 665 0004 FFF7FEFF 		bl	xTaskGetTickCount
 666              	.LVL78:
 667 0008 0400     		movs	r4, r0
 668              	.LVL79:
 631:Source\FreeRTOS\10.0.1\Source/timers.c **** 	{
 669              		.loc 1 631 0
 670 000a 074B     		ldr	r3, .L52
 671 000c 9B6B     		ldr	r3, [r3, #56]
 672 000e 9842     		cmp	r0, r3
 673 0010 04D2     		bcs	.L50
 633:Source\FreeRTOS\10.0.1\Source/timers.c **** 		*pxTimerListsWereSwitched = pdTRUE;
 674              		.loc 1 633 0
 675 0012 FFF7FEFF 		bl	prvSwitchTimerLists
 676              	.LVL80:
 634:Source\FreeRTOS\10.0.1\Source/timers.c **** 	}
 677              		.loc 1 634 0
 678 0016 0123     		movs	r3, #1
 679 0018 2B60     		str	r3, [r5]
 680 001a 01E0     		b	.L51
 681              	.LVL81:
 682              	.L50:
 638:Source\FreeRTOS\10.0.1\Source/timers.c **** 	}
 683              		.loc 1 638 0
 684 001c 0023     		movs	r3, #0
 685 001e 2B60     		str	r3, [r5]
 686              	.LVL82:
 687              	.L51:
 641:Source\FreeRTOS\10.0.1\Source/timers.c **** 
 688              		.loc 1 641 0
 689 0020 014B     		ldr	r3, .L52
 690 0022 9C63     		str	r4, [r3, #56]
 644:Source\FreeRTOS\10.0.1\Source/timers.c **** /*-----------------------------------------------------------*/
 691              		.loc 1 644 0
 692 0024 2000     		movs	r0, r4
 693              		@ sp needed
 694              	.LVL83:
 695              	.LVL84:
 696 0026 70BD     		pop	{r4, r5, r6, pc}
 697              	.L53:
 698              		.align	2
ARM GAS  C:\Users\Phuong\AppData\Local\Temp\ccaHdweV.s 			page 31


 699              	.L52:
 700 0028 00000000 		.word	.LANCHOR0
 701              		.cfi_endproc
 702              	.LFE48:
 703              		.size	prvSampleTimeNow, .-prvSampleTimeNow
 704              		.section	.text.prvProcessExpiredTimer,"ax",%progbits
 705              		.align	2
 706              		.code	16
 707              		.thumb_func
 708              		.type	prvProcessExpiredTimer, %function
 709              	prvProcessExpiredTimer:
 710              	.LFB44:
 463:Source\FreeRTOS\10.0.1\Source/timers.c **** BaseType_t xResult;
 711              		.loc 1 463 0
 712              		.cfi_startproc
 713              		@ args = 0, pretend = 0, frame = 0
 714              		@ frame_needed = 0, uses_anonymous_args = 0
 715              	.LVL85:
 716 0000 70B5     		push	{r4, r5, r6, lr}
 717              		.cfi_def_cfa_offset 16
 718              		.cfi_offset 4, -16
 719              		.cfi_offset 5, -12
 720              		.cfi_offset 6, -8
 721              		.cfi_offset 14, -4
 722 0002 82B0     		sub	sp, sp, #8
 723              		.cfi_def_cfa_offset 24
 724 0004 0500     		movs	r5, r0
 725 0006 0E00     		movs	r6, r1
 465:Source\FreeRTOS\10.0.1\Source/timers.c **** 
 726              		.loc 1 465 0
 727 0008 114B     		ldr	r3, .L57
 728 000a 1B68     		ldr	r3, [r3]
 729 000c DB68     		ldr	r3, [r3, #12]
 730 000e DC68     		ldr	r4, [r3, #12]
 731              	.LVL86:
 469:Source\FreeRTOS\10.0.1\Source/timers.c **** 	traceTIMER_EXPIRED( pxTimer );
 732              		.loc 1 469 0
 733 0010 201D     		adds	r0, r4, #4
 734              	.LVL87:
 735 0012 FFF7FEFF 		bl	uxListRemove
 736              	.LVL88:
 474:Source\FreeRTOS\10.0.1\Source/timers.c **** 	{
 737              		.loc 1 474 0
 738 0016 E369     		ldr	r3, [r4, #28]
 739 0018 012B     		cmp	r3, #1
 740 001a 13D1     		bne	.L55
 479:Source\FreeRTOS\10.0.1\Source/timers.c **** 		{
 741              		.loc 1 479 0
 742 001c A369     		ldr	r3, [r4, #24]
 743 001e 5919     		adds	r1, r3, r5
 744 0020 2B00     		movs	r3, r5
 745 0022 3200     		movs	r2, r6
 746 0024 2000     		movs	r0, r4
 747 0026 FFF7FEFF 		bl	prvInsertTimerInActiveList
 748              	.LVL89:
 749 002a 0028     		cmp	r0, #0
 750 002c 0AD0     		beq	.L55
ARM GAS  C:\Users\Phuong\AppData\Local\Temp\ccaHdweV.s 			page 32


 483:Source\FreeRTOS\10.0.1\Source/timers.c **** 			configASSERT( xResult );
 751              		.loc 1 483 0
 752 002e 0023     		movs	r3, #0
 753 0030 0093     		str	r3, [sp]
 754 0032 2A00     		movs	r2, r5
 755 0034 0021     		movs	r1, #0
 756 0036 2000     		movs	r0, r4
 757 0038 FFF7FEFF 		bl	xTimerGenericCommand
 758              	.LVL90:
 484:Source\FreeRTOS\10.0.1\Source/timers.c **** 			( void ) xResult;
 759              		.loc 1 484 0
 760 003c 0028     		cmp	r0, #0
 761 003e 01D1     		bne	.L55
 484:Source\FreeRTOS\10.0.1\Source/timers.c **** 			( void ) xResult;
 762              		.loc 1 484 0 is_stmt 0 discriminator 1
 763              		.syntax divided
 764              	@ 484 "Source\FreeRTOS\10.0.1\Source\timers.c" 1
 765 0040 72B6     		 cpsid i 
 766              	@ 0 "" 2
 767              		.thumb
 768              		.syntax unified
 769              	.L56:
 770 0042 FEE7     		b	.L56
 771              	.LVL91:
 772              	.L55:
 498:Source\FreeRTOS\10.0.1\Source/timers.c **** }
 773              		.loc 1 498 0 is_stmt 1
 774 0044 636A     		ldr	r3, [r4, #36]
 775 0046 2000     		movs	r0, r4
 776 0048 9847     		blx	r3
 777              	.LVL92:
 499:Source\FreeRTOS\10.0.1\Source/timers.c **** /*-----------------------------------------------------------*/
 778              		.loc 1 499 0
 779 004a 02B0     		add	sp, sp, #8
 780              		@ sp needed
 781              	.LVL93:
 782              	.LVL94:
 783              	.LVL95:
 784 004c 70BD     		pop	{r4, r5, r6, pc}
 785              	.L58:
 786 004e C046     		.align	2
 787              	.L57:
 788 0050 00000000 		.word	.LANCHOR0
 789              		.cfi_endproc
 790              	.LFE44:
 791              		.size	prvProcessExpiredTimer, .-prvProcessExpiredTimer
 792              		.section	.text.prvProcessTimerOrBlockTask,"ax",%progbits
 793              		.align	2
 794              		.code	16
 795              		.thumb_func
 796              		.type	prvProcessTimerOrBlockTask, %function
 797              	prvProcessTimerOrBlockTask:
 798              	.LFB46:
 539:Source\FreeRTOS\10.0.1\Source/timers.c **** TickType_t xTimeNow;
 799              		.loc 1 539 0
 800              		.cfi_startproc
 801              		@ args = 0, pretend = 0, frame = 8
ARM GAS  C:\Users\Phuong\AppData\Local\Temp\ccaHdweV.s 			page 33


 802              		@ frame_needed = 0, uses_anonymous_args = 0
 803              	.LVL96:
 804 0000 70B5     		push	{r4, r5, r6, lr}
 805              		.cfi_def_cfa_offset 16
 806              		.cfi_offset 4, -16
 807              		.cfi_offset 5, -12
 808              		.cfi_offset 6, -8
 809              		.cfi_offset 14, -4
 810 0002 82B0     		sub	sp, sp, #8
 811              		.cfi_def_cfa_offset 24
 812 0004 0500     		movs	r5, r0
 813 0006 0C00     		movs	r4, r1
 543:Source\FreeRTOS\10.0.1\Source/timers.c **** 	{
 814              		.loc 1 543 0
 815 0008 FFF7FEFF 		bl	vTaskSuspendAll
 816              	.LVL97:
 550:Source\FreeRTOS\10.0.1\Source/timers.c **** 		if( xTimerListsWereSwitched == pdFALSE )
 817              		.loc 1 550 0
 818 000c 01A8     		add	r0, sp, #4
 819 000e FFF7FEFF 		bl	prvSampleTimeNow
 820              	.LVL98:
 821 0012 0600     		movs	r6, r0
 822              	.LVL99:
 551:Source\FreeRTOS\10.0.1\Source/timers.c **** 		{
 823              		.loc 1 551 0
 824 0014 019B     		ldr	r3, [sp, #4]
 825 0016 002B     		cmp	r3, #0
 826 0018 1FD1     		bne	.L60
 554:Source\FreeRTOS\10.0.1\Source/timers.c **** 			{
 827              		.loc 1 554 0
 828 001a 002C     		cmp	r4, #0
 829 001c 08D1     		bne	.L61
 554:Source\FreeRTOS\10.0.1\Source/timers.c **** 			{
 830              		.loc 1 554 0 is_stmt 0 discriminator 1
 831 001e A842     		cmp	r0, r5
 832 0020 06D3     		bcc	.L61
 556:Source\FreeRTOS\10.0.1\Source/timers.c **** 				prvProcessExpiredTimer( xNextExpireTime, xTimeNow );
 833              		.loc 1 556 0 is_stmt 1
 834 0022 FFF7FEFF 		bl	xTaskResumeAll
 835              	.LVL100:
 557:Source\FreeRTOS\10.0.1\Source/timers.c **** 			}
 836              		.loc 1 557 0
 837 0026 3100     		movs	r1, r6
 838 0028 2800     		movs	r0, r5
 839 002a FFF7FEFF 		bl	prvProcessExpiredTimer
 840              	.LVL101:
 841 002e 16E0     		b	.L59
 842              	.LVL102:
 843              	.L61:
 567:Source\FreeRTOS\10.0.1\Source/timers.c **** 				{
 844              		.loc 1 567 0
 845 0030 002C     		cmp	r4, #0
 846 0032 05D0     		beq	.L63
 571:Source\FreeRTOS\10.0.1\Source/timers.c **** 				}
 847              		.loc 1 571 0
 848 0034 0B4B     		ldr	r3, .L64
 849 0036 5B68     		ldr	r3, [r3, #4]
ARM GAS  C:\Users\Phuong\AppData\Local\Temp\ccaHdweV.s 			page 34


 850 0038 1C68     		ldr	r4, [r3]
 851              	.LVL103:
 852 003a 6342     		rsbs	r3, r4, #0
 853 003c 5C41     		adcs	r4, r4, r3
 854 003e E4B2     		uxtb	r4, r4
 855              	.LVL104:
 856              	.L63:
 574:Source\FreeRTOS\10.0.1\Source/timers.c **** 
 857              		.loc 1 574 0
 858 0040 A91B     		subs	r1, r5, r6
 859 0042 084B     		ldr	r3, .L64
 860 0044 9868     		ldr	r0, [r3, #8]
 861              	.LVL105:
 862 0046 2200     		movs	r2, r4
 863 0048 FFF7FEFF 		bl	vQueueWaitForMessageRestricted
 864              	.LVL106:
 576:Source\FreeRTOS\10.0.1\Source/timers.c **** 				{
 865              		.loc 1 576 0
 866 004c FFF7FEFF 		bl	xTaskResumeAll
 867              	.LVL107:
 868 0050 0028     		cmp	r0, #0
 869 0052 04D1     		bne	.L59
 582:Source\FreeRTOS\10.0.1\Source/timers.c **** 				}
 870              		.loc 1 582 0
 871 0054 FFF7FEFF 		bl	vPortYield
 872              	.LVL108:
 873 0058 01E0     		b	.L59
 874              	.LVL109:
 875              	.L60:
 592:Source\FreeRTOS\10.0.1\Source/timers.c **** 		}
 876              		.loc 1 592 0
 877 005a FFF7FEFF 		bl	xTaskResumeAll
 878              	.LVL110:
 879              	.L59:
 595:Source\FreeRTOS\10.0.1\Source/timers.c **** /*-----------------------------------------------------------*/
 880              		.loc 1 595 0
 881 005e 02B0     		add	sp, sp, #8
 882              		@ sp needed
 883              	.LVL111:
 884              	.LVL112:
 885              	.LVL113:
 886 0060 70BD     		pop	{r4, r5, r6, pc}
 887              	.L65:
 888 0062 C046     		.align	2
 889              	.L64:
 890 0064 00000000 		.word	.LANCHOR0
 891              		.cfi_endproc
 892              	.LFE46:
 893              		.size	prvProcessTimerOrBlockTask, .-prvProcessTimerOrBlockTask
 894              		.section	.text.prvProcessReceivedCommands,"ax",%progbits
 895              		.align	2
 896              		.code	16
 897              		.thumb_func
 898              		.type	prvProcessReceivedCommands, %function
 899              	prvProcessReceivedCommands:
 900              	.LFB50:
 689:Source\FreeRTOS\10.0.1\Source/timers.c **** DaemonTaskMessage_t xMessage;
ARM GAS  C:\Users\Phuong\AppData\Local\Temp\ccaHdweV.s 			page 35


 901              		.loc 1 689 0
 902              		.cfi_startproc
 903              		@ args = 0, pretend = 0, frame = 16
 904              		@ frame_needed = 0, uses_anonymous_args = 0
 905 0000 10B5     		push	{r4, lr}
 906              		.cfi_def_cfa_offset 8
 907              		.cfi_offset 4, -8
 908              		.cfi_offset 14, -4
 909 0002 86B0     		sub	sp, sp, #24
 910              		.cfi_def_cfa_offset 32
 695:Source\FreeRTOS\10.0.1\Source/timers.c **** 	{
 911              		.loc 1 695 0
 912 0004 44E0     		b	.L68
 913              	.L79:
 721:Source\FreeRTOS\10.0.1\Source/timers.c **** 		{
 914              		.loc 1 721 0
 915 0006 039B     		ldr	r3, [sp, #12]
 916 0008 002B     		cmp	r3, #0
 917 000a 41DB     		blt	.L68
 725:Source\FreeRTOS\10.0.1\Source/timers.c **** 
 918              		.loc 1 725 0
 919 000c 059C     		ldr	r4, [sp, #20]
 920              	.LVL114:
 727:Source\FreeRTOS\10.0.1\Source/timers.c **** 			{
 921              		.loc 1 727 0
 922 000e 6369     		ldr	r3, [r4, #20]
 923 0010 002B     		cmp	r3, #0
 924 0012 02D0     		beq	.L69
 730:Source\FreeRTOS\10.0.1\Source/timers.c **** 			}
 925              		.loc 1 730 0
 926 0014 201D     		adds	r0, r4, #4
 927 0016 FFF7FEFF 		bl	uxListRemove
 928              	.LVL115:
 929              	.L69:
 745:Source\FreeRTOS\10.0.1\Source/timers.c **** 
 930              		.loc 1 745 0
 931 001a 02A8     		add	r0, sp, #8
 932 001c FFF7FEFF 		bl	prvSampleTimeNow
 933              	.LVL116:
 747:Source\FreeRTOS\10.0.1\Source/timers.c **** 			{
 934              		.loc 1 747 0
 935 0020 039B     		ldr	r3, [sp, #12]
 936 0022 092B     		cmp	r3, #9
 937 0024 34D8     		bhi	.L68
 938 0026 9B00     		lsls	r3, r3, #2
 939 0028 1E4A     		ldr	r2, .L80
 940 002a D358     		ldr	r3, [r2, r3]
 941 002c 9F46     		mov	pc, r3
 942              		.section	.rodata
 943              		.align	2
 944              	.L72:
 945 0000 2E000000 		.word	.L71
 946 0004 2E000000 		.word	.L71
 947 0008 2E000000 		.word	.L71
 948 000c 90000000 		.word	.L68
 949 0010 70000000 		.word	.L73
 950 0014 8A000000 		.word	.L74
ARM GAS  C:\Users\Phuong\AppData\Local\Temp\ccaHdweV.s 			page 36


 951 0018 2E000000 		.word	.L71
 952 001c 2E000000 		.word	.L71
 953 0020 90000000 		.word	.L68
 954 0024 70000000 		.word	.L73
 955              		.section	.text.prvProcessReceivedCommands
 956              	.L71:
 755:Source\FreeRTOS\10.0.1\Source/timers.c **** 					{
 957              		.loc 1 755 0
 958 002e 049B     		ldr	r3, [sp, #16]
 959 0030 A269     		ldr	r2, [r4, #24]
 960 0032 9446     		mov	ip, r2
 961 0034 6344     		add	r3, r3, ip
 962 0036 1900     		movs	r1, r3
 963 0038 049B     		ldr	r3, [sp, #16]
 964 003a 0200     		movs	r2, r0
 965 003c 2000     		movs	r0, r4
 966              	.LVL117:
 967 003e FFF7FEFF 		bl	prvInsertTimerInActiveList
 968              	.LVL118:
 969 0042 0028     		cmp	r0, #0
 970 0044 24D0     		beq	.L68
 759:Source\FreeRTOS\10.0.1\Source/timers.c **** 						traceTIMER_EXPIRED( pxTimer );
 971              		.loc 1 759 0
 972 0046 2000     		movs	r0, r4
 973 0048 636A     		ldr	r3, [r4, #36]
 974 004a 9847     		blx	r3
 975              	.LVL119:
 762:Source\FreeRTOS\10.0.1\Source/timers.c **** 						{
 976              		.loc 1 762 0
 977 004c E369     		ldr	r3, [r4, #28]
 978 004e 012B     		cmp	r3, #1
 979 0050 1ED1     		bne	.L68
 764:Source\FreeRTOS\10.0.1\Source/timers.c **** 							configASSERT( xResult );
 980              		.loc 1 764 0
 981 0052 049B     		ldr	r3, [sp, #16]
 982 0054 A169     		ldr	r1, [r4, #24]
 983 0056 8C46     		mov	ip, r1
 984 0058 6344     		add	r3, r3, ip
 985 005a 1A00     		movs	r2, r3
 986 005c 0023     		movs	r3, #0
 987 005e 0093     		str	r3, [sp]
 988 0060 0021     		movs	r1, #0
 989 0062 2000     		movs	r0, r4
 990 0064 FFF7FEFF 		bl	xTimerGenericCommand
 991              	.LVL120:
 765:Source\FreeRTOS\10.0.1\Source/timers.c **** 							( void ) xResult;
 992              		.loc 1 765 0
 993 0068 0028     		cmp	r0, #0
 994 006a 11D1     		bne	.L68
 765:Source\FreeRTOS\10.0.1\Source/timers.c **** 							( void ) xResult;
 995              		.loc 1 765 0 is_stmt 0 discriminator 1
 996              		.syntax divided
 997              	@ 765 "Source\FreeRTOS\10.0.1\Source\timers.c" 1
 998 006c 72B6     		 cpsid i 
 999              	@ 0 "" 2
 1000              		.thumb
 1001              		.syntax unified
ARM GAS  C:\Users\Phuong\AppData\Local\Temp\ccaHdweV.s 			page 37


 1002              	.L76:
 1003 006e FEE7     		b	.L76
 1004              	.LVL121:
 1005              	.L73:
 787:Source\FreeRTOS\10.0.1\Source/timers.c **** 					configASSERT( ( pxTimer->xTimerPeriodInTicks > 0 ) );
 1006              		.loc 1 787 0 is_stmt 1
 1007 0070 0499     		ldr	r1, [sp, #16]
 1008 0072 A161     		str	r1, [r4, #24]
 788:Source\FreeRTOS\10.0.1\Source/timers.c **** 
 1009              		.loc 1 788 0
 1010 0074 0029     		cmp	r1, #0
 1011 0076 01D1     		bne	.L77
 788:Source\FreeRTOS\10.0.1\Source/timers.c **** 
 1012              		.loc 1 788 0 is_stmt 0 discriminator 1
 1013              		.syntax divided
 1014              	@ 788 "Source\FreeRTOS\10.0.1\Source\timers.c" 1
 1015 0078 72B6     		 cpsid i 
 1016              	@ 0 "" 2
 1017              		.thumb
 1018              		.syntax unified
 1019              	.L78:
 1020 007a FEE7     		b	.L78
 1021              	.L77:
 796:Source\FreeRTOS\10.0.1\Source/timers.c **** 					break;
 1022              		.loc 1 796 0 is_stmt 1
 1023 007c 4118     		adds	r1, r0, r1
 1024 007e 0300     		movs	r3, r0
 1025 0080 0200     		movs	r2, r0
 1026 0082 2000     		movs	r0, r4
 1027              	.LVL122:
 1028 0084 FFF7FEFF 		bl	prvInsertTimerInActiveList
 1029              	.LVL123:
 797:Source\FreeRTOS\10.0.1\Source/timers.c **** 
 1030              		.loc 1 797 0
 1031 0088 02E0     		b	.L68
 1032              	.LVL124:
 1033              	.L74:
 807:Source\FreeRTOS\10.0.1\Source/timers.c **** 					}
 1034              		.loc 1 807 0
 1035 008a 2000     		movs	r0, r4
 1036              	.LVL125:
 1037 008c FFF7FEFF 		bl	vPortFree
 1038              	.LVL126:
 1039              	.L68:
 695:Source\FreeRTOS\10.0.1\Source/timers.c **** 	{
 1040              		.loc 1 695 0
 1041 0090 054B     		ldr	r3, .L80+4
 1042 0092 9868     		ldr	r0, [r3, #8]
 1043 0094 0022     		movs	r2, #0
 1044 0096 03A9     		add	r1, sp, #12
 1045 0098 FFF7FEFF 		bl	xQueueReceive
 1046              	.LVL127:
 1047 009c 0028     		cmp	r0, #0
 1048 009e B2D1     		bne	.L79
 832:Source\FreeRTOS\10.0.1\Source/timers.c **** /*-----------------------------------------------------------*/
 1049              		.loc 1 832 0
 1050 00a0 06B0     		add	sp, sp, #24
ARM GAS  C:\Users\Phuong\AppData\Local\Temp\ccaHdweV.s 			page 38


 1051              		@ sp needed
 1052 00a2 10BD     		pop	{r4, pc}
 1053              	.L81:
 1054              		.align	2
 1055              	.L80:
 1056 00a4 00000000 		.word	.L72
 1057 00a8 00000000 		.word	.LANCHOR0
 1058              		.cfi_endproc
 1059              	.LFE50:
 1060              		.size	prvProcessReceivedCommands, .-prvProcessReceivedCommands
 1061              		.section	.text.prvTimerTask,"ax",%progbits
 1062              		.align	2
 1063              		.code	16
 1064              		.thumb_func
 1065              		.type	prvTimerTask, %function
 1066              	prvTimerTask:
 1067              	.LFB45:
 503:Source\FreeRTOS\10.0.1\Source/timers.c **** TickType_t xNextExpireTime;
 1068              		.loc 1 503 0
 1069              		.cfi_startproc
 1070              		@ args = 0, pretend = 0, frame = 8
 1071              		@ frame_needed = 0, uses_anonymous_args = 0
 1072              	.LVL128:
 1073 0000 00B5     		push	{lr}
 1074              		.cfi_def_cfa_offset 4
 1075              		.cfi_offset 14, -4
 1076 0002 83B0     		sub	sp, sp, #12
 1077              		.cfi_def_cfa_offset 16
 1078              	.LVL129:
 1079              	.L83:
 526:Source\FreeRTOS\10.0.1\Source/timers.c **** 
 1080              		.loc 1 526 0 discriminator 1
 1081 0004 01A8     		add	r0, sp, #4
 1082 0006 FFF7FEFF 		bl	prvGetNextExpireTime
 1083              	.LVL130:
 530:Source\FreeRTOS\10.0.1\Source/timers.c **** 
 1084              		.loc 1 530 0 discriminator 1
 1085 000a 0199     		ldr	r1, [sp, #4]
 1086 000c FFF7FEFF 		bl	prvProcessTimerOrBlockTask
 1087              	.LVL131:
 533:Source\FreeRTOS\10.0.1\Source/timers.c **** 	}
 1088              		.loc 1 533 0 discriminator 1
 1089 0010 FFF7FEFF 		bl	prvProcessReceivedCommands
 1090              	.LVL132:
 1091 0014 F6E7     		b	.L83
 1092              		.cfi_endproc
 1093              	.LFE45:
 1094              		.size	prvTimerTask, .-prvTimerTask
 1095 0016 C046     		.section	.text.xTimerGetTimerDaemonTaskHandle,"ax",%progbits
 1096              		.align	2
 1097              		.global	xTimerGetTimerDaemonTaskHandle
 1098              		.code	16
 1099              		.thumb_func
 1100              		.type	xTimerGetTimerDaemonTaskHandle, %function
 1101              	xTimerGetTimerDaemonTaskHandle:
 1102              	.LFB40:
 425:Source\FreeRTOS\10.0.1\Source/timers.c **** 	/* If xTimerGetTimerDaemonTaskHandle() is called before the scheduler has been
ARM GAS  C:\Users\Phuong\AppData\Local\Temp\ccaHdweV.s 			page 39


 1103              		.loc 1 425 0
 1104              		.cfi_startproc
 1105              		@ args = 0, pretend = 0, frame = 0
 1106              		@ frame_needed = 0, uses_anonymous_args = 0
 1107              		@ link register save eliminated.
 428:Source\FreeRTOS\10.0.1\Source/timers.c **** 	return xTimerTaskHandle;
 1108              		.loc 1 428 0
 1109 0000 034B     		ldr	r3, .L87
 1110 0002 586B     		ldr	r0, [r3, #52]
 1111 0004 0028     		cmp	r0, #0
 1112 0006 01D1     		bne	.L85
 428:Source\FreeRTOS\10.0.1\Source/timers.c **** 	return xTimerTaskHandle;
 1113              		.loc 1 428 0 is_stmt 0 discriminator 1
 1114              		.syntax divided
 1115              	@ 428 "Source\FreeRTOS\10.0.1\Source\timers.c" 1
 1116 0008 72B6     		 cpsid i 
 1117              	@ 0 "" 2
 1118              		.thumb
 1119              		.syntax unified
 1120              	.L86:
 1121 000a FEE7     		b	.L86
 1122              	.L85:
 430:Source\FreeRTOS\10.0.1\Source/timers.c **** /*-----------------------------------------------------------*/
 1123              		.loc 1 430 0 is_stmt 1
 1124              		@ sp needed
 1125 000c 7047     		bx	lr
 1126              	.L88:
 1127 000e C046     		.align	2
 1128              	.L87:
 1129 0010 00000000 		.word	.LANCHOR0
 1130              		.cfi_endproc
 1131              	.LFE40:
 1132              		.size	xTimerGetTimerDaemonTaskHandle, .-xTimerGetTimerDaemonTaskHandle
 1133              		.section	.text.xTimerGetPeriod,"ax",%progbits
 1134              		.align	2
 1135              		.global	xTimerGetPeriod
 1136              		.code	16
 1137              		.thumb_func
 1138              		.type	xTimerGetPeriod, %function
 1139              	xTimerGetPeriod:
 1140              	.LFB41:
 434:Source\FreeRTOS\10.0.1\Source/timers.c **** Timer_t *pxTimer = ( Timer_t * ) xTimer;
 1141              		.loc 1 434 0
 1142              		.cfi_startproc
 1143              		@ args = 0, pretend = 0, frame = 0
 1144              		@ frame_needed = 0, uses_anonymous_args = 0
 1145              		@ link register save eliminated.
 1146              	.LVL133:
 437:Source\FreeRTOS\10.0.1\Source/timers.c **** 	return pxTimer->xTimerPeriodInTicks;
 1147              		.loc 1 437 0
 1148 0000 0028     		cmp	r0, #0
 1149 0002 01D1     		bne	.L90
 437:Source\FreeRTOS\10.0.1\Source/timers.c **** 	return pxTimer->xTimerPeriodInTicks;
 1150              		.loc 1 437 0 is_stmt 0 discriminator 1
 1151              		.syntax divided
 1152              	@ 437 "Source\FreeRTOS\10.0.1\Source\timers.c" 1
 1153 0004 72B6     		 cpsid i 
ARM GAS  C:\Users\Phuong\AppData\Local\Temp\ccaHdweV.s 			page 40


 1154              	@ 0 "" 2
 1155              		.thumb
 1156              		.syntax unified
 1157              	.L91:
 1158 0006 FEE7     		b	.L91
 1159              	.L90:
 438:Source\FreeRTOS\10.0.1\Source/timers.c **** }
 1160              		.loc 1 438 0 is_stmt 1
 1161 0008 8069     		ldr	r0, [r0, #24]
 1162              	.LVL134:
 439:Source\FreeRTOS\10.0.1\Source/timers.c **** /*-----------------------------------------------------------*/
 1163              		.loc 1 439 0
 1164              		@ sp needed
 1165 000a 7047     		bx	lr
 1166              		.cfi_endproc
 1167              	.LFE41:
 1168              		.size	xTimerGetPeriod, .-xTimerGetPeriod
 1169              		.section	.text.xTimerGetExpiryTime,"ax",%progbits
 1170              		.align	2
 1171              		.global	xTimerGetExpiryTime
 1172              		.code	16
 1173              		.thumb_func
 1174              		.type	xTimerGetExpiryTime, %function
 1175              	xTimerGetExpiryTime:
 1176              	.LFB42:
 443:Source\FreeRTOS\10.0.1\Source/timers.c **** Timer_t * pxTimer = ( Timer_t * ) xTimer;
 1177              		.loc 1 443 0
 1178              		.cfi_startproc
 1179              		@ args = 0, pretend = 0, frame = 0
 1180              		@ frame_needed = 0, uses_anonymous_args = 0
 1181              		@ link register save eliminated.
 1182              	.LVL135:
 447:Source\FreeRTOS\10.0.1\Source/timers.c **** 	xReturn = listGET_LIST_ITEM_VALUE( &( pxTimer->xTimerListItem ) );
 1183              		.loc 1 447 0
 1184 0000 0028     		cmp	r0, #0
 1185 0002 01D1     		bne	.L93
 447:Source\FreeRTOS\10.0.1\Source/timers.c **** 	xReturn = listGET_LIST_ITEM_VALUE( &( pxTimer->xTimerListItem ) );
 1186              		.loc 1 447 0 is_stmt 0 discriminator 1
 1187              		.syntax divided
 1188              	@ 447 "Source\FreeRTOS\10.0.1\Source\timers.c" 1
 1189 0004 72B6     		 cpsid i 
 1190              	@ 0 "" 2
 1191              		.thumb
 1192              		.syntax unified
 1193              	.L94:
 1194 0006 FEE7     		b	.L94
 1195              	.L93:
 448:Source\FreeRTOS\10.0.1\Source/timers.c **** 	return xReturn;
 1196              		.loc 1 448 0 is_stmt 1
 1197 0008 4068     		ldr	r0, [r0, #4]
 1198              	.LVL136:
 450:Source\FreeRTOS\10.0.1\Source/timers.c **** /*-----------------------------------------------------------*/
 1199              		.loc 1 450 0
 1200              		@ sp needed
 1201 000a 7047     		bx	lr
 1202              		.cfi_endproc
 1203              	.LFE42:
ARM GAS  C:\Users\Phuong\AppData\Local\Temp\ccaHdweV.s 			page 41


 1204              		.size	xTimerGetExpiryTime, .-xTimerGetExpiryTime
 1205              		.section	.text.pcTimerGetName,"ax",%progbits
 1206              		.align	2
 1207              		.global	pcTimerGetName
 1208              		.code	16
 1209              		.thumb_func
 1210              		.type	pcTimerGetName, %function
 1211              	pcTimerGetName:
 1212              	.LFB43:
 454:Source\FreeRTOS\10.0.1\Source/timers.c **** Timer_t *pxTimer = ( Timer_t * ) xTimer;
 1213              		.loc 1 454 0
 1214              		.cfi_startproc
 1215              		@ args = 0, pretend = 0, frame = 0
 1216              		@ frame_needed = 0, uses_anonymous_args = 0
 1217              		@ link register save eliminated.
 1218              	.LVL137:
 457:Source\FreeRTOS\10.0.1\Source/timers.c **** 	return pxTimer->pcTimerName;
 1219              		.loc 1 457 0
 1220 0000 0028     		cmp	r0, #0
 1221 0002 01D1     		bne	.L96
 457:Source\FreeRTOS\10.0.1\Source/timers.c **** 	return pxTimer->pcTimerName;
 1222              		.loc 1 457 0 is_stmt 0 discriminator 1
 1223              		.syntax divided
 1224              	@ 457 "Source\FreeRTOS\10.0.1\Source\timers.c" 1
 1225 0004 72B6     		 cpsid i 
 1226              	@ 0 "" 2
 1227              		.thumb
 1228              		.syntax unified
 1229              	.L97:
 1230 0006 FEE7     		b	.L97
 1231              	.L96:
 458:Source\FreeRTOS\10.0.1\Source/timers.c **** }
 1232              		.loc 1 458 0 is_stmt 1
 1233 0008 0068     		ldr	r0, [r0]
 1234              	.LVL138:
 459:Source\FreeRTOS\10.0.1\Source/timers.c **** /*-----------------------------------------------------------*/
 1235              		.loc 1 459 0
 1236              		@ sp needed
 1237 000a 7047     		bx	lr
 1238              		.cfi_endproc
 1239              	.LFE43:
 1240              		.size	pcTimerGetName, .-pcTimerGetName
 1241              		.section	.text.xTimerIsTimerActive,"ax",%progbits
 1242              		.align	2
 1243              		.global	xTimerIsTimerActive
 1244              		.code	16
 1245              		.thumb_func
 1246              		.type	xTimerIsTimerActive, %function
 1247              	xTimerIsTimerActive:
 1248              	.LFB53:
 943:Source\FreeRTOS\10.0.1\Source/timers.c **** /*-----------------------------------------------------------*/
 944:Source\FreeRTOS\10.0.1\Source/timers.c **** 
 945:Source\FreeRTOS\10.0.1\Source/timers.c **** BaseType_t xTimerIsTimerActive( TimerHandle_t xTimer )
 946:Source\FreeRTOS\10.0.1\Source/timers.c **** {
 1249              		.loc 1 946 0
 1250              		.cfi_startproc
 1251              		@ args = 0, pretend = 0, frame = 0
ARM GAS  C:\Users\Phuong\AppData\Local\Temp\ccaHdweV.s 			page 42


 1252              		@ frame_needed = 0, uses_anonymous_args = 0
 1253              	.LVL139:
 1254 0000 10B5     		push	{r4, lr}
 1255              		.cfi_def_cfa_offset 8
 1256              		.cfi_offset 4, -8
 1257              		.cfi_offset 14, -4
 1258 0002 041E     		subs	r4, r0, #0
 1259              	.LVL140:
 947:Source\FreeRTOS\10.0.1\Source/timers.c **** BaseType_t xTimerIsInActiveList;
 948:Source\FreeRTOS\10.0.1\Source/timers.c **** Timer_t *pxTimer = ( Timer_t * ) xTimer;
 949:Source\FreeRTOS\10.0.1\Source/timers.c **** 
 950:Source\FreeRTOS\10.0.1\Source/timers.c **** 	configASSERT( xTimer );
 1260              		.loc 1 950 0
 1261 0004 01D1     		bne	.L99
 1262              		.loc 1 950 0 is_stmt 0 discriminator 1
 1263              		.syntax divided
 1264              	@ 950 "Source\FreeRTOS\10.0.1\Source\timers.c" 1
 1265 0006 72B6     		 cpsid i 
 1266              	@ 0 "" 2
 1267              		.thumb
 1268              		.syntax unified
 1269              	.L100:
 1270 0008 FEE7     		b	.L100
 1271              	.L99:
 951:Source\FreeRTOS\10.0.1\Source/timers.c **** 
 952:Source\FreeRTOS\10.0.1\Source/timers.c **** 	/* Is the timer in the list of active timers? */
 953:Source\FreeRTOS\10.0.1\Source/timers.c **** 	taskENTER_CRITICAL();
 1272              		.loc 1 953 0 is_stmt 1
 1273 000a FFF7FEFF 		bl	vPortEnterCritical
 1274              	.LVL141:
 954:Source\FreeRTOS\10.0.1\Source/timers.c **** 	{
 955:Source\FreeRTOS\10.0.1\Source/timers.c **** 		/* Checking to see if it is in the NULL list in effect checks to see if
 956:Source\FreeRTOS\10.0.1\Source/timers.c **** 		it is referenced from either the current or the overflow timer lists in
 957:Source\FreeRTOS\10.0.1\Source/timers.c **** 		one go, but the logic has to be reversed, hence the '!'. */
 958:Source\FreeRTOS\10.0.1\Source/timers.c **** 		xTimerIsInActiveList = ( BaseType_t ) !( listIS_CONTAINED_WITHIN( NULL, &( pxTimer->xTimerListIte
 1275              		.loc 1 958 0
 1276 000e 6469     		ldr	r4, [r4, #20]
 1277              	.LVL142:
 1278 0010 631E     		subs	r3, r4, #1
 1279 0012 9C41     		sbcs	r4, r4, r3
 1280 0014 E4B2     		uxtb	r4, r4
 1281              	.LVL143:
 959:Source\FreeRTOS\10.0.1\Source/timers.c **** 	}
 960:Source\FreeRTOS\10.0.1\Source/timers.c **** 	taskEXIT_CRITICAL();
 1282              		.loc 1 960 0
 1283 0016 FFF7FEFF 		bl	vPortExitCritical
 1284              	.LVL144:
 961:Source\FreeRTOS\10.0.1\Source/timers.c **** 
 962:Source\FreeRTOS\10.0.1\Source/timers.c **** 	return xTimerIsInActiveList;
 963:Source\FreeRTOS\10.0.1\Source/timers.c **** } /*lint !e818 Can't be pointer to const due to the typedef. */
 1285              		.loc 1 963 0
 1286 001a 2000     		movs	r0, r4
 1287              		@ sp needed
 1288              	.LVL145:
 1289 001c 10BD     		pop	{r4, pc}
 1290              		.cfi_endproc
 1291              	.LFE53:
ARM GAS  C:\Users\Phuong\AppData\Local\Temp\ccaHdweV.s 			page 43


 1292              		.size	xTimerIsTimerActive, .-xTimerIsTimerActive
 1293 001e C046     		.section	.text.pvTimerGetTimerID,"ax",%progbits
 1294              		.align	2
 1295              		.global	pvTimerGetTimerID
 1296              		.code	16
 1297              		.thumb_func
 1298              		.type	pvTimerGetTimerID, %function
 1299              	pvTimerGetTimerID:
 1300              	.LFB54:
 964:Source\FreeRTOS\10.0.1\Source/timers.c **** /*-----------------------------------------------------------*/
 965:Source\FreeRTOS\10.0.1\Source/timers.c **** 
 966:Source\FreeRTOS\10.0.1\Source/timers.c **** void *pvTimerGetTimerID( const TimerHandle_t xTimer )
 967:Source\FreeRTOS\10.0.1\Source/timers.c **** {
 1301              		.loc 1 967 0
 1302              		.cfi_startproc
 1303              		@ args = 0, pretend = 0, frame = 0
 1304              		@ frame_needed = 0, uses_anonymous_args = 0
 1305              	.LVL146:
 1306 0000 10B5     		push	{r4, lr}
 1307              		.cfi_def_cfa_offset 8
 1308              		.cfi_offset 4, -8
 1309              		.cfi_offset 14, -4
 1310 0002 041E     		subs	r4, r0, #0
 1311              	.LVL147:
 968:Source\FreeRTOS\10.0.1\Source/timers.c **** Timer_t * const pxTimer = ( Timer_t * ) xTimer;
 969:Source\FreeRTOS\10.0.1\Source/timers.c **** void *pvReturn;
 970:Source\FreeRTOS\10.0.1\Source/timers.c **** 
 971:Source\FreeRTOS\10.0.1\Source/timers.c **** 	configASSERT( xTimer );
 1312              		.loc 1 971 0
 1313 0004 01D1     		bne	.L102
 1314              		.loc 1 971 0 is_stmt 0 discriminator 1
 1315              		.syntax divided
 1316              	@ 971 "Source\FreeRTOS\10.0.1\Source\timers.c" 1
 1317 0006 72B6     		 cpsid i 
 1318              	@ 0 "" 2
 1319              		.thumb
 1320              		.syntax unified
 1321              	.L103:
 1322 0008 FEE7     		b	.L103
 1323              	.L102:
 972:Source\FreeRTOS\10.0.1\Source/timers.c **** 
 973:Source\FreeRTOS\10.0.1\Source/timers.c **** 	taskENTER_CRITICAL();
 1324              		.loc 1 973 0 is_stmt 1
 1325 000a FFF7FEFF 		bl	vPortEnterCritical
 1326              	.LVL148:
 974:Source\FreeRTOS\10.0.1\Source/timers.c **** 	{
 975:Source\FreeRTOS\10.0.1\Source/timers.c **** 		pvReturn = pxTimer->pvTimerID;
 1327              		.loc 1 975 0
 1328 000e 246A     		ldr	r4, [r4, #32]
 1329              	.LVL149:
 976:Source\FreeRTOS\10.0.1\Source/timers.c **** 	}
 977:Source\FreeRTOS\10.0.1\Source/timers.c **** 	taskEXIT_CRITICAL();
 1330              		.loc 1 977 0
 1331 0010 FFF7FEFF 		bl	vPortExitCritical
 1332              	.LVL150:
 978:Source\FreeRTOS\10.0.1\Source/timers.c **** 
 979:Source\FreeRTOS\10.0.1\Source/timers.c **** 	return pvReturn;
ARM GAS  C:\Users\Phuong\AppData\Local\Temp\ccaHdweV.s 			page 44


 980:Source\FreeRTOS\10.0.1\Source/timers.c **** }
 1333              		.loc 1 980 0
 1334 0014 2000     		movs	r0, r4
 1335              		@ sp needed
 1336              	.LVL151:
 1337 0016 10BD     		pop	{r4, pc}
 1338              		.cfi_endproc
 1339              	.LFE54:
 1340              		.size	pvTimerGetTimerID, .-pvTimerGetTimerID
 1341              		.section	.text.vTimerSetTimerID,"ax",%progbits
 1342              		.align	2
 1343              		.global	vTimerSetTimerID
 1344              		.code	16
 1345              		.thumb_func
 1346              		.type	vTimerSetTimerID, %function
 1347              	vTimerSetTimerID:
 1348              	.LFB55:
 981:Source\FreeRTOS\10.0.1\Source/timers.c **** /*-----------------------------------------------------------*/
 982:Source\FreeRTOS\10.0.1\Source/timers.c **** 
 983:Source\FreeRTOS\10.0.1\Source/timers.c **** void vTimerSetTimerID( TimerHandle_t xTimer, void *pvNewID )
 984:Source\FreeRTOS\10.0.1\Source/timers.c **** {
 1349              		.loc 1 984 0
 1350              		.cfi_startproc
 1351              		@ args = 0, pretend = 0, frame = 0
 1352              		@ frame_needed = 0, uses_anonymous_args = 0
 1353              	.LVL152:
 1354 0000 70B5     		push	{r4, r5, r6, lr}
 1355              		.cfi_def_cfa_offset 16
 1356              		.cfi_offset 4, -16
 1357              		.cfi_offset 5, -12
 1358              		.cfi_offset 6, -8
 1359              		.cfi_offset 14, -4
 1360 0002 0400     		movs	r4, r0
 1361 0004 0D00     		movs	r5, r1
 1362              	.LVL153:
 985:Source\FreeRTOS\10.0.1\Source/timers.c **** Timer_t * const pxTimer = ( Timer_t * ) xTimer;
 986:Source\FreeRTOS\10.0.1\Source/timers.c **** 
 987:Source\FreeRTOS\10.0.1\Source/timers.c **** 	configASSERT( xTimer );
 1363              		.loc 1 987 0
 1364 0006 0028     		cmp	r0, #0
 1365 0008 01D1     		bne	.L105
 1366              		.loc 1 987 0 is_stmt 0 discriminator 1
 1367              		.syntax divided
 1368              	@ 987 "Source\FreeRTOS\10.0.1\Source\timers.c" 1
 1369 000a 72B6     		 cpsid i 
 1370              	@ 0 "" 2
 1371              		.thumb
 1372              		.syntax unified
 1373              	.L106:
 1374 000c FEE7     		b	.L106
 1375              	.L105:
 988:Source\FreeRTOS\10.0.1\Source/timers.c **** 
 989:Source\FreeRTOS\10.0.1\Source/timers.c **** 	taskENTER_CRITICAL();
 1376              		.loc 1 989 0 is_stmt 1
 1377 000e FFF7FEFF 		bl	vPortEnterCritical
 1378              	.LVL154:
 990:Source\FreeRTOS\10.0.1\Source/timers.c **** 	{
ARM GAS  C:\Users\Phuong\AppData\Local\Temp\ccaHdweV.s 			page 45


 991:Source\FreeRTOS\10.0.1\Source/timers.c **** 		pxTimer->pvTimerID = pvNewID;
 1379              		.loc 1 991 0
 1380 0012 2562     		str	r5, [r4, #32]
 992:Source\FreeRTOS\10.0.1\Source/timers.c **** 	}
 993:Source\FreeRTOS\10.0.1\Source/timers.c **** 	taskEXIT_CRITICAL();
 1381              		.loc 1 993 0
 1382 0014 FFF7FEFF 		bl	vPortExitCritical
 1383              	.LVL155:
 994:Source\FreeRTOS\10.0.1\Source/timers.c **** }
 1384              		.loc 1 994 0
 1385              		@ sp needed
 1386              	.LVL156:
 1387              	.LVL157:
 1388 0018 70BD     		pop	{r4, r5, r6, pc}
 1389              		.cfi_endproc
 1390              	.LFE55:
 1391              		.size	vTimerSetTimerID, .-vTimerSetTimerID
 1392 001a C046     		.section	.text.uxTimerGetTimerNumber,"ax",%progbits
 1393              		.align	2
 1394              		.global	uxTimerGetTimerNumber
 1395              		.code	16
 1396              		.thumb_func
 1397              		.type	uxTimerGetTimerNumber, %function
 1398              	uxTimerGetTimerNumber:
 1399              	.LFB56:
 995:Source\FreeRTOS\10.0.1\Source/timers.c **** /*-----------------------------------------------------------*/
 996:Source\FreeRTOS\10.0.1\Source/timers.c **** 
 997:Source\FreeRTOS\10.0.1\Source/timers.c **** #if( INCLUDE_xTimerPendFunctionCall == 1 )
 998:Source\FreeRTOS\10.0.1\Source/timers.c **** 
 999:Source\FreeRTOS\10.0.1\Source/timers.c **** 	BaseType_t xTimerPendFunctionCallFromISR( PendedFunction_t xFunctionToPend, void *pvParameter1, ui
1000:Source\FreeRTOS\10.0.1\Source/timers.c **** 	{
1001:Source\FreeRTOS\10.0.1\Source/timers.c **** 	DaemonTaskMessage_t xMessage;
1002:Source\FreeRTOS\10.0.1\Source/timers.c **** 	BaseType_t xReturn;
1003:Source\FreeRTOS\10.0.1\Source/timers.c **** 
1004:Source\FreeRTOS\10.0.1\Source/timers.c **** 		/* Complete the message with the function parameters and post it to the
1005:Source\FreeRTOS\10.0.1\Source/timers.c **** 		daemon task. */
1006:Source\FreeRTOS\10.0.1\Source/timers.c **** 		xMessage.xMessageID = tmrCOMMAND_EXECUTE_CALLBACK_FROM_ISR;
1007:Source\FreeRTOS\10.0.1\Source/timers.c **** 		xMessage.u.xCallbackParameters.pxCallbackFunction = xFunctionToPend;
1008:Source\FreeRTOS\10.0.1\Source/timers.c **** 		xMessage.u.xCallbackParameters.pvParameter1 = pvParameter1;
1009:Source\FreeRTOS\10.0.1\Source/timers.c **** 		xMessage.u.xCallbackParameters.ulParameter2 = ulParameter2;
1010:Source\FreeRTOS\10.0.1\Source/timers.c **** 
1011:Source\FreeRTOS\10.0.1\Source/timers.c **** 		xReturn = xQueueSendFromISR( xTimerQueue, &xMessage, pxHigherPriorityTaskWoken );
1012:Source\FreeRTOS\10.0.1\Source/timers.c **** 
1013:Source\FreeRTOS\10.0.1\Source/timers.c **** 		tracePEND_FUNC_CALL_FROM_ISR( xFunctionToPend, pvParameter1, ulParameter2, xReturn );
1014:Source\FreeRTOS\10.0.1\Source/timers.c **** 
1015:Source\FreeRTOS\10.0.1\Source/timers.c **** 		return xReturn;
1016:Source\FreeRTOS\10.0.1\Source/timers.c **** 	}
1017:Source\FreeRTOS\10.0.1\Source/timers.c **** 
1018:Source\FreeRTOS\10.0.1\Source/timers.c **** #endif /* INCLUDE_xTimerPendFunctionCall */
1019:Source\FreeRTOS\10.0.1\Source/timers.c **** /*-----------------------------------------------------------*/
1020:Source\FreeRTOS\10.0.1\Source/timers.c **** 
1021:Source\FreeRTOS\10.0.1\Source/timers.c **** #if( INCLUDE_xTimerPendFunctionCall == 1 )
1022:Source\FreeRTOS\10.0.1\Source/timers.c **** 
1023:Source\FreeRTOS\10.0.1\Source/timers.c **** 	BaseType_t xTimerPendFunctionCall( PendedFunction_t xFunctionToPend, void *pvParameter1, uint32_t 
1024:Source\FreeRTOS\10.0.1\Source/timers.c **** 	{
1025:Source\FreeRTOS\10.0.1\Source/timers.c **** 	DaemonTaskMessage_t xMessage;
1026:Source\FreeRTOS\10.0.1\Source/timers.c **** 	BaseType_t xReturn;
ARM GAS  C:\Users\Phuong\AppData\Local\Temp\ccaHdweV.s 			page 46


1027:Source\FreeRTOS\10.0.1\Source/timers.c **** 
1028:Source\FreeRTOS\10.0.1\Source/timers.c **** 		/* This function can only be called after a timer has been created or
1029:Source\FreeRTOS\10.0.1\Source/timers.c **** 		after the scheduler has been started because, until then, the timer
1030:Source\FreeRTOS\10.0.1\Source/timers.c **** 		queue does not exist. */
1031:Source\FreeRTOS\10.0.1\Source/timers.c **** 		configASSERT( xTimerQueue );
1032:Source\FreeRTOS\10.0.1\Source/timers.c **** 
1033:Source\FreeRTOS\10.0.1\Source/timers.c **** 		/* Complete the message with the function parameters and post it to the
1034:Source\FreeRTOS\10.0.1\Source/timers.c **** 		daemon task. */
1035:Source\FreeRTOS\10.0.1\Source/timers.c **** 		xMessage.xMessageID = tmrCOMMAND_EXECUTE_CALLBACK;
1036:Source\FreeRTOS\10.0.1\Source/timers.c **** 		xMessage.u.xCallbackParameters.pxCallbackFunction = xFunctionToPend;
1037:Source\FreeRTOS\10.0.1\Source/timers.c **** 		xMessage.u.xCallbackParameters.pvParameter1 = pvParameter1;
1038:Source\FreeRTOS\10.0.1\Source/timers.c **** 		xMessage.u.xCallbackParameters.ulParameter2 = ulParameter2;
1039:Source\FreeRTOS\10.0.1\Source/timers.c **** 
1040:Source\FreeRTOS\10.0.1\Source/timers.c **** 		xReturn = xQueueSendToBack( xTimerQueue, &xMessage, xTicksToWait );
1041:Source\FreeRTOS\10.0.1\Source/timers.c **** 
1042:Source\FreeRTOS\10.0.1\Source/timers.c **** 		tracePEND_FUNC_CALL( xFunctionToPend, pvParameter1, ulParameter2, xReturn );
1043:Source\FreeRTOS\10.0.1\Source/timers.c **** 
1044:Source\FreeRTOS\10.0.1\Source/timers.c **** 		return xReturn;
1045:Source\FreeRTOS\10.0.1\Source/timers.c **** 	}
1046:Source\FreeRTOS\10.0.1\Source/timers.c **** 
1047:Source\FreeRTOS\10.0.1\Source/timers.c **** #endif /* INCLUDE_xTimerPendFunctionCall */
1048:Source\FreeRTOS\10.0.1\Source/timers.c **** /*-----------------------------------------------------------*/
1049:Source\FreeRTOS\10.0.1\Source/timers.c **** 
1050:Source\FreeRTOS\10.0.1\Source/timers.c **** #if ( configUSE_TRACE_FACILITY == 1 )
1051:Source\FreeRTOS\10.0.1\Source/timers.c **** 
1052:Source\FreeRTOS\10.0.1\Source/timers.c **** 	UBaseType_t uxTimerGetTimerNumber( TimerHandle_t xTimer )
1053:Source\FreeRTOS\10.0.1\Source/timers.c **** 	{
 1400              		.loc 1 1053 0
 1401              		.cfi_startproc
 1402              		@ args = 0, pretend = 0, frame = 0
 1403              		@ frame_needed = 0, uses_anonymous_args = 0
 1404              		@ link register save eliminated.
 1405              	.LVL158:
1054:Source\FreeRTOS\10.0.1\Source/timers.c **** 		return ( ( Timer_t * ) xTimer )->uxTimerNumber;
 1406              		.loc 1 1054 0
 1407 0000 806A     		ldr	r0, [r0, #40]
 1408              	.LVL159:
1055:Source\FreeRTOS\10.0.1\Source/timers.c **** 	}
 1409              		.loc 1 1055 0
 1410              		@ sp needed
 1411 0002 7047     		bx	lr
 1412              		.cfi_endproc
 1413              	.LFE56:
 1414              		.size	uxTimerGetTimerNumber, .-uxTimerGetTimerNumber
 1415              		.section	.text.vTimerSetTimerNumber,"ax",%progbits
 1416              		.align	2
 1417              		.global	vTimerSetTimerNumber
 1418              		.code	16
 1419              		.thumb_func
 1420              		.type	vTimerSetTimerNumber, %function
 1421              	vTimerSetTimerNumber:
 1422              	.LFB57:
1056:Source\FreeRTOS\10.0.1\Source/timers.c **** 
1057:Source\FreeRTOS\10.0.1\Source/timers.c **** #endif /* configUSE_TRACE_FACILITY */
1058:Source\FreeRTOS\10.0.1\Source/timers.c **** /*-----------------------------------------------------------*/
1059:Source\FreeRTOS\10.0.1\Source/timers.c **** 
1060:Source\FreeRTOS\10.0.1\Source/timers.c **** #if ( configUSE_TRACE_FACILITY == 1 )
ARM GAS  C:\Users\Phuong\AppData\Local\Temp\ccaHdweV.s 			page 47


1061:Source\FreeRTOS\10.0.1\Source/timers.c **** 
1062:Source\FreeRTOS\10.0.1\Source/timers.c **** 	void vTimerSetTimerNumber( TimerHandle_t xTimer, UBaseType_t uxTimerNumber )
1063:Source\FreeRTOS\10.0.1\Source/timers.c **** 	{
 1423              		.loc 1 1063 0
 1424              		.cfi_startproc
 1425              		@ args = 0, pretend = 0, frame = 0
 1426              		@ frame_needed = 0, uses_anonymous_args = 0
 1427              		@ link register save eliminated.
 1428              	.LVL160:
1064:Source\FreeRTOS\10.0.1\Source/timers.c **** 		( ( Timer_t * ) xTimer )->uxTimerNumber = uxTimerNumber;
 1429              		.loc 1 1064 0
 1430 0000 8162     		str	r1, [r0, #40]
1065:Source\FreeRTOS\10.0.1\Source/timers.c **** 	}
 1431              		.loc 1 1065 0
 1432              		@ sp needed
 1433 0002 7047     		bx	lr
 1434              		.cfi_endproc
 1435              	.LFE57:
 1436              		.size	vTimerSetTimerNumber, .-vTimerSetTimerNumber
 1437              		.section	.rodata.str1.4,"aMS",%progbits,1
 1438              		.align	2
 1439              	.LC3:
 1440 0000 546D7251 		.ascii	"TmrQ\000"
 1440      00
 1441 0005 000000   		.space	3
 1442              	.LC8:
 1443 0008 546D7220 		.ascii	"Tmr Svc\000"
 1443      53766300 
 1444              		.bss
 1445              		.align	2
 1446              		.set	.LANCHOR0,. + 0
 1447              		.type	pxCurrentTimerList, %object
 1448              		.size	pxCurrentTimerList, 4
 1449              	pxCurrentTimerList:
 1450 0000 00000000 		.space	4
 1451              		.type	pxOverflowTimerList, %object
 1452              		.size	pxOverflowTimerList, 4
 1453              	pxOverflowTimerList:
 1454 0004 00000000 		.space	4
 1455              		.type	xTimerQueue, %object
 1456              		.size	xTimerQueue, 4
 1457              	xTimerQueue:
 1458 0008 00000000 		.space	4
 1459              		.type	xActiveTimerList1, %object
 1460              		.size	xActiveTimerList1, 20
 1461              	xActiveTimerList1:
 1462 000c 00000000 		.space	20
 1462      00000000 
 1462      00000000 
 1462      00000000 
 1462      00000000 
 1463              		.type	xActiveTimerList2, %object
 1464              		.size	xActiveTimerList2, 20
 1465              	xActiveTimerList2:
 1466 0020 00000000 		.space	20
 1466      00000000 
 1466      00000000 
ARM GAS  C:\Users\Phuong\AppData\Local\Temp\ccaHdweV.s 			page 48


 1466      00000000 
 1466      00000000 
 1467              		.type	xTimerTaskHandle, %object
 1468              		.size	xTimerTaskHandle, 4
 1469              	xTimerTaskHandle:
 1470 0034 00000000 		.space	4
 1471              		.type	xLastTime.10590, %object
 1472              		.size	xLastTime.10590, 4
 1473              	xLastTime.10590:
 1474 0038 00000000 		.space	4
 1475              		.text
 1476              	.Letext0:
 1477              		.file 2 "c:\\program files (x86)\\cypress\\psoc creator\\4.2\\psoc creator\\import\\gnu\\arm\\5.4.
 1478              		.file 3 "c:\\program files (x86)\\cypress\\psoc creator\\4.2\\psoc creator\\import\\gnu\\arm\\5.4.
 1479              		.file 4 ".\\Source\\FreeRTOS\\10.0.1\\Source\\portable\\GCC\\CM0/portmacro.h"
 1480              		.file 5 ".\\Source\\FreeRTOS\\10.0.1\\Source\\include/list.h"
 1481              		.file 6 ".\\Source\\FreeRTOS\\10.0.1\\Source\\include/task.h"
 1482              		.file 7 ".\\Source\\FreeRTOS\\10.0.1\\Source\\include/queue.h"
 1483              		.file 8 ".\\Source\\FreeRTOS\\10.0.1\\Source\\include/timers.h"
 1484              		.file 9 ".\\Source\\FreeRTOS\\10.0.1\\Source\\include/portable.h"