ARM GAS  C:\Users\Phuong\AppData\Local\Temp\ccaanp9k.s 			page 1


   1              		.syntax unified
   2              		.cpu cortex-m0plus
   3              		.fpu softvfp
   4              		.eabi_attribute 20, 1
   5              		.eabi_attribute 21, 1
   6              		.eabi_attribute 23, 3
   7              		.eabi_attribute 24, 1
   8              		.eabi_attribute 25, 1
   9              		.eabi_attribute 26, 1
  10              		.eabi_attribute 30, 1
  11              		.eabi_attribute 34, 0
  12              		.eabi_attribute 18, 4
  13              		.thumb
  14              		.syntax unified
  15              		.file	"timeouts.c"
  16              		.text
  17              	.Ltext0:
  18              		.cfi_sections	.debug_frame
  19              		.section	.text.sys_timeouts_sleeptime,"ax",%progbits
  20              		.align	2
  21              		.code	16
  22              		.thumb_func
  23              		.type	sys_timeouts_sleeptime, %function
  24              	sys_timeouts_sleeptime:
  25              	.LFB61:
  26              		.file 1 "Source\\LwIP\\src\\core\\timeouts.c"
   1:Source\LwIP\src\core/timeouts.c **** /**
   2:Source\LwIP\src\core/timeouts.c ****  * @file
   3:Source\LwIP\src\core/timeouts.c ****  * Stack-internal timers implementation.
   4:Source\LwIP\src\core/timeouts.c ****  * This file includes timer callbacks for stack-internal timers as well as
   5:Source\LwIP\src\core/timeouts.c ****  * functions to set up or stop timers and check for expired timers.
   6:Source\LwIP\src\core/timeouts.c ****  *
   7:Source\LwIP\src\core/timeouts.c ****  */
   8:Source\LwIP\src\core/timeouts.c **** 
   9:Source\LwIP\src\core/timeouts.c **** /*
  10:Source\LwIP\src\core/timeouts.c ****  * Copyright (c) 2001-2004 Swedish Institute of Computer Science.
  11:Source\LwIP\src\core/timeouts.c ****  * All rights reserved.
  12:Source\LwIP\src\core/timeouts.c ****  *
  13:Source\LwIP\src\core/timeouts.c ****  * Redistribution and use in source and binary forms, with or without modification,
  14:Source\LwIP\src\core/timeouts.c ****  * are permitted provided that the following conditions are met:
  15:Source\LwIP\src\core/timeouts.c ****  *
  16:Source\LwIP\src\core/timeouts.c ****  * 1. Redistributions of source code must retain the above copyright notice,
  17:Source\LwIP\src\core/timeouts.c ****  *    this list of conditions and the following disclaimer.
  18:Source\LwIP\src\core/timeouts.c ****  * 2. Redistributions in binary form must reproduce the above copyright notice,
  19:Source\LwIP\src\core/timeouts.c ****  *    this list of conditions and the following disclaimer in the documentation
  20:Source\LwIP\src\core/timeouts.c ****  *    and/or other materials provided with the distribution.
  21:Source\LwIP\src\core/timeouts.c ****  * 3. The name of the author may not be used to endorse or promote products
  22:Source\LwIP\src\core/timeouts.c ****  *    derived from this software without specific prior written permission.
  23:Source\LwIP\src\core/timeouts.c ****  *
  24:Source\LwIP\src\core/timeouts.c ****  * THIS SOFTWARE IS PROVIDED BY THE AUTHOR ``AS IS'' AND ANY EXPRESS OR IMPLIED
  25:Source\LwIP\src\core/timeouts.c ****  * WARRANTIES, INCLUDING, BUT NOT LIMITED TO, THE IMPLIED WARRANTIES OF
  26:Source\LwIP\src\core/timeouts.c ****  * MERCHANTABILITY AND FITNESS FOR A PARTICULAR PURPOSE ARE DISCLAIMED. IN NO EVENT
  27:Source\LwIP\src\core/timeouts.c ****  * SHALL THE AUTHOR BE LIABLE FOR ANY DIRECT, INDIRECT, INCIDENTAL, SPECIAL,
  28:Source\LwIP\src\core/timeouts.c ****  * EXEMPLARY, OR CONSEQUENTIAL DAMAGES (INCLUDING, BUT NOT LIMITED TO, PROCUREMENT
  29:Source\LwIP\src\core/timeouts.c ****  * OF SUBSTITUTE GOODS OR SERVICES; LOSS OF USE, DATA, OR PROFITS; OR BUSINESS
  30:Source\LwIP\src\core/timeouts.c ****  * INTERRUPTION) HOWEVER CAUSED AND ON ANY THEORY OF LIABILITY, WHETHER IN
  31:Source\LwIP\src\core/timeouts.c ****  * CONTRACT, STRICT LIABILITY, OR TORT (INCLUDING NEGLIGENCE OR OTHERWISE) ARISING
ARM GAS  C:\Users\Phuong\AppData\Local\Temp\ccaanp9k.s 			page 2


  32:Source\LwIP\src\core/timeouts.c ****  * IN ANY WAY OUT OF THE USE OF THIS SOFTWARE, EVEN IF ADVISED OF THE POSSIBILITY
  33:Source\LwIP\src\core/timeouts.c ****  * OF SUCH DAMAGE.
  34:Source\LwIP\src\core/timeouts.c ****  *
  35:Source\LwIP\src\core/timeouts.c ****  * This file is part of the lwIP TCP/IP stack.
  36:Source\LwIP\src\core/timeouts.c ****  *
  37:Source\LwIP\src\core/timeouts.c ****  * Author: Adam Dunkels <adam@sics.se>
  38:Source\LwIP\src\core/timeouts.c ****  *         Simon Goldschmidt
  39:Source\LwIP\src\core/timeouts.c ****  *
  40:Source\LwIP\src\core/timeouts.c ****  */
  41:Source\LwIP\src\core/timeouts.c **** 
  42:Source\LwIP\src\core/timeouts.c **** #include "lwip/opt.h"
  43:Source\LwIP\src\core/timeouts.c **** 
  44:Source\LwIP\src\core/timeouts.c **** #include "lwip/timeouts.h"
  45:Source\LwIP\src\core/timeouts.c **** #include "lwip/priv/tcp_priv.h"
  46:Source\LwIP\src\core/timeouts.c **** 
  47:Source\LwIP\src\core/timeouts.c **** #include "lwip/def.h"
  48:Source\LwIP\src\core/timeouts.c **** #include "lwip/memp.h"
  49:Source\LwIP\src\core/timeouts.c **** #include "lwip/priv/tcpip_priv.h"
  50:Source\LwIP\src\core/timeouts.c **** 
  51:Source\LwIP\src\core/timeouts.c **** #include "lwip/ip4_frag.h"
  52:Source\LwIP\src\core/timeouts.c **** #include "lwip/etharp.h"
  53:Source\LwIP\src\core/timeouts.c **** #include "lwip/dhcp.h"
  54:Source\LwIP\src\core/timeouts.c **** #include "lwip/autoip.h"
  55:Source\LwIP\src\core/timeouts.c **** #include "lwip/igmp.h"
  56:Source\LwIP\src\core/timeouts.c **** #include "lwip/dns.h"
  57:Source\LwIP\src\core/timeouts.c **** #include "lwip/nd6.h"
  58:Source\LwIP\src\core/timeouts.c **** #include "lwip/ip6_frag.h"
  59:Source\LwIP\src\core/timeouts.c **** #include "lwip/mld6.h"
  60:Source\LwIP\src\core/timeouts.c **** #include "lwip/sys.h"
  61:Source\LwIP\src\core/timeouts.c **** #include "lwip/pbuf.h"
  62:Source\LwIP\src\core/timeouts.c **** 
  63:Source\LwIP\src\core/timeouts.c **** #if LWIP_DEBUG_TIMERNAMES
  64:Source\LwIP\src\core/timeouts.c **** #define HANDLER(x) x, #x
  65:Source\LwIP\src\core/timeouts.c **** #else /* LWIP_DEBUG_TIMERNAMES */
  66:Source\LwIP\src\core/timeouts.c **** #define HANDLER(x) x
  67:Source\LwIP\src\core/timeouts.c **** #endif /* LWIP_DEBUG_TIMERNAMES */
  68:Source\LwIP\src\core/timeouts.c **** 
  69:Source\LwIP\src\core/timeouts.c **** /** This array contains all stack-internal cyclic timers. To get the number of
  70:Source\LwIP\src\core/timeouts.c ****  * timers, use LWIP_ARRAYSIZE() */
  71:Source\LwIP\src\core/timeouts.c **** const struct lwip_cyclic_timer lwip_cyclic_timers[] = {
  72:Source\LwIP\src\core/timeouts.c **** #if LWIP_TCP
  73:Source\LwIP\src\core/timeouts.c ****   /* The TCP timer is a special case: it does not have to run always and
  74:Source\LwIP\src\core/timeouts.c ****      is triggered to start from TCP using tcp_timer_needed() */
  75:Source\LwIP\src\core/timeouts.c ****   {TCP_TMR_INTERVAL, HANDLER(tcp_tmr)},
  76:Source\LwIP\src\core/timeouts.c **** #endif /* LWIP_TCP */
  77:Source\LwIP\src\core/timeouts.c **** #if LWIP_IPV4
  78:Source\LwIP\src\core/timeouts.c **** #if IP_REASSEMBLY
  79:Source\LwIP\src\core/timeouts.c ****   {IP_TMR_INTERVAL, HANDLER(ip_reass_tmr)},
  80:Source\LwIP\src\core/timeouts.c **** #endif /* IP_REASSEMBLY */
  81:Source\LwIP\src\core/timeouts.c **** #if LWIP_ARP
  82:Source\LwIP\src\core/timeouts.c ****   {ARP_TMR_INTERVAL, HANDLER(etharp_tmr)},
  83:Source\LwIP\src\core/timeouts.c **** #endif /* LWIP_ARP */
  84:Source\LwIP\src\core/timeouts.c **** #if LWIP_DHCP
  85:Source\LwIP\src\core/timeouts.c ****   {DHCP_COARSE_TIMER_MSECS, HANDLER(dhcp_coarse_tmr)},
  86:Source\LwIP\src\core/timeouts.c ****   {DHCP_FINE_TIMER_MSECS, HANDLER(dhcp_fine_tmr)},
  87:Source\LwIP\src\core/timeouts.c **** #endif /* LWIP_DHCP */
  88:Source\LwIP\src\core/timeouts.c **** #if LWIP_AUTOIP
ARM GAS  C:\Users\Phuong\AppData\Local\Temp\ccaanp9k.s 			page 3


  89:Source\LwIP\src\core/timeouts.c ****   {AUTOIP_TMR_INTERVAL, HANDLER(autoip_tmr)},
  90:Source\LwIP\src\core/timeouts.c **** #endif /* LWIP_AUTOIP */
  91:Source\LwIP\src\core/timeouts.c **** #if LWIP_IGMP
  92:Source\LwIP\src\core/timeouts.c ****   {IGMP_TMR_INTERVAL, HANDLER(igmp_tmr)},
  93:Source\LwIP\src\core/timeouts.c **** #endif /* LWIP_IGMP */
  94:Source\LwIP\src\core/timeouts.c **** #endif /* LWIP_IPV4 */
  95:Source\LwIP\src\core/timeouts.c **** #if LWIP_DNS
  96:Source\LwIP\src\core/timeouts.c ****   {DNS_TMR_INTERVAL, HANDLER(dns_tmr)},
  97:Source\LwIP\src\core/timeouts.c **** #endif /* LWIP_DNS */
  98:Source\LwIP\src\core/timeouts.c **** #if LWIP_IPV6
  99:Source\LwIP\src\core/timeouts.c ****   {ND6_TMR_INTERVAL, HANDLER(nd6_tmr)},
 100:Source\LwIP\src\core/timeouts.c **** #if LWIP_IPV6_REASS
 101:Source\LwIP\src\core/timeouts.c ****   {IP6_REASS_TMR_INTERVAL, HANDLER(ip6_reass_tmr)},
 102:Source\LwIP\src\core/timeouts.c **** #endif /* LWIP_IPV6_REASS */
 103:Source\LwIP\src\core/timeouts.c **** #if LWIP_IPV6_MLD
 104:Source\LwIP\src\core/timeouts.c ****   {MLD6_TMR_INTERVAL, HANDLER(mld6_tmr)},
 105:Source\LwIP\src\core/timeouts.c **** #endif /* LWIP_IPV6_MLD */
 106:Source\LwIP\src\core/timeouts.c **** #endif /* LWIP_IPV6 */
 107:Source\LwIP\src\core/timeouts.c **** };
 108:Source\LwIP\src\core/timeouts.c **** 
 109:Source\LwIP\src\core/timeouts.c **** #if LWIP_TIMERS && !LWIP_TIMERS_CUSTOM
 110:Source\LwIP\src\core/timeouts.c **** 
 111:Source\LwIP\src\core/timeouts.c **** /** The one and only timeout list */
 112:Source\LwIP\src\core/timeouts.c **** static struct sys_timeo *next_timeout;
 113:Source\LwIP\src\core/timeouts.c **** static u32_t timeouts_last_time;
 114:Source\LwIP\src\core/timeouts.c **** 
 115:Source\LwIP\src\core/timeouts.c **** #if LWIP_TCP
 116:Source\LwIP\src\core/timeouts.c **** /** global variable that shows if the tcp timer is currently scheduled or not */
 117:Source\LwIP\src\core/timeouts.c **** static int tcpip_tcp_timer_active;
 118:Source\LwIP\src\core/timeouts.c **** 
 119:Source\LwIP\src\core/timeouts.c **** /**
 120:Source\LwIP\src\core/timeouts.c ****  * Timer callback function that calls tcp_tmr() and reschedules itself.
 121:Source\LwIP\src\core/timeouts.c ****  *
 122:Source\LwIP\src\core/timeouts.c ****  * @param arg unused argument
 123:Source\LwIP\src\core/timeouts.c ****  */
 124:Source\LwIP\src\core/timeouts.c **** static void
 125:Source\LwIP\src\core/timeouts.c **** tcpip_tcp_timer(void *arg)
 126:Source\LwIP\src\core/timeouts.c **** {
 127:Source\LwIP\src\core/timeouts.c ****   LWIP_UNUSED_ARG(arg);
 128:Source\LwIP\src\core/timeouts.c **** 
 129:Source\LwIP\src\core/timeouts.c ****   /* call TCP timer handler */
 130:Source\LwIP\src\core/timeouts.c ****   tcp_tmr();
 131:Source\LwIP\src\core/timeouts.c ****   /* timer still needed? */
 132:Source\LwIP\src\core/timeouts.c ****   if (tcp_active_pcbs || tcp_tw_pcbs) {
 133:Source\LwIP\src\core/timeouts.c ****     /* restart timer */
 134:Source\LwIP\src\core/timeouts.c ****     sys_timeout(TCP_TMR_INTERVAL, tcpip_tcp_timer, NULL);
 135:Source\LwIP\src\core/timeouts.c ****   } else {
 136:Source\LwIP\src\core/timeouts.c ****     /* disable timer */
 137:Source\LwIP\src\core/timeouts.c ****     tcpip_tcp_timer_active = 0;
 138:Source\LwIP\src\core/timeouts.c ****   }
 139:Source\LwIP\src\core/timeouts.c **** }
 140:Source\LwIP\src\core/timeouts.c **** 
 141:Source\LwIP\src\core/timeouts.c **** /**
 142:Source\LwIP\src\core/timeouts.c ****  * Called from TCP_REG when registering a new PCB:
 143:Source\LwIP\src\core/timeouts.c ****  * the reason is to have the TCP timer only running when
 144:Source\LwIP\src\core/timeouts.c ****  * there are active (or time-wait) PCBs.
 145:Source\LwIP\src\core/timeouts.c ****  */
ARM GAS  C:\Users\Phuong\AppData\Local\Temp\ccaanp9k.s 			page 4


 146:Source\LwIP\src\core/timeouts.c **** void
 147:Source\LwIP\src\core/timeouts.c **** tcp_timer_needed(void)
 148:Source\LwIP\src\core/timeouts.c **** {
 149:Source\LwIP\src\core/timeouts.c ****   /* timer is off but needed again? */
 150:Source\LwIP\src\core/timeouts.c ****   if (!tcpip_tcp_timer_active && (tcp_active_pcbs || tcp_tw_pcbs)) {
 151:Source\LwIP\src\core/timeouts.c ****     /* enable and start timer */
 152:Source\LwIP\src\core/timeouts.c ****     tcpip_tcp_timer_active = 1;
 153:Source\LwIP\src\core/timeouts.c ****     sys_timeout(TCP_TMR_INTERVAL, tcpip_tcp_timer, NULL);
 154:Source\LwIP\src\core/timeouts.c ****   }
 155:Source\LwIP\src\core/timeouts.c **** }
 156:Source\LwIP\src\core/timeouts.c **** #endif /* LWIP_TCP */
 157:Source\LwIP\src\core/timeouts.c **** 
 158:Source\LwIP\src\core/timeouts.c **** /**
 159:Source\LwIP\src\core/timeouts.c ****  * Timer callback function that calls mld6_tmr() and reschedules itself.
 160:Source\LwIP\src\core/timeouts.c ****  *
 161:Source\LwIP\src\core/timeouts.c ****  * @param arg unused argument
 162:Source\LwIP\src\core/timeouts.c ****  */
 163:Source\LwIP\src\core/timeouts.c **** static void
 164:Source\LwIP\src\core/timeouts.c **** cyclic_timer(void *arg)
 165:Source\LwIP\src\core/timeouts.c **** {
 166:Source\LwIP\src\core/timeouts.c ****   const struct lwip_cyclic_timer* cyclic = (const struct lwip_cyclic_timer*)arg;
 167:Source\LwIP\src\core/timeouts.c **** #if LWIP_DEBUG_TIMERNAMES
 168:Source\LwIP\src\core/timeouts.c ****   LWIP_DEBUGF(TIMERS_DEBUG, ("tcpip: %s()\n", cyclic->handler_name));
 169:Source\LwIP\src\core/timeouts.c **** #endif
 170:Source\LwIP\src\core/timeouts.c ****   cyclic->handler();
 171:Source\LwIP\src\core/timeouts.c ****   sys_timeout(cyclic->interval_ms, cyclic_timer, arg);
 172:Source\LwIP\src\core/timeouts.c **** }
 173:Source\LwIP\src\core/timeouts.c **** 
 174:Source\LwIP\src\core/timeouts.c **** /** Initialize this module */
 175:Source\LwIP\src\core/timeouts.c **** void sys_timeouts_init(void)
 176:Source\LwIP\src\core/timeouts.c **** {
 177:Source\LwIP\src\core/timeouts.c ****   size_t i;
 178:Source\LwIP\src\core/timeouts.c ****   /* tcp_tmr() at index 0 is started on demand */
 179:Source\LwIP\src\core/timeouts.c ****   for (i = (LWIP_TCP ? 1 : 0); i < LWIP_ARRAYSIZE(lwip_cyclic_timers); i++) {
 180:Source\LwIP\src\core/timeouts.c ****     /* we have to cast via size_t to get rid of const warning
 181:Source\LwIP\src\core/timeouts.c ****       (this is OK as cyclic_timer() casts back to const* */
 182:Source\LwIP\src\core/timeouts.c ****     sys_timeout(lwip_cyclic_timers[i].interval_ms, cyclic_timer, LWIP_CONST_CAST(void*, &lwip_cycli
 183:Source\LwIP\src\core/timeouts.c ****   }
 184:Source\LwIP\src\core/timeouts.c **** 
 185:Source\LwIP\src\core/timeouts.c ****   /* Initialise timestamp for sys_check_timeouts */
 186:Source\LwIP\src\core/timeouts.c ****   timeouts_last_time = sys_now();
 187:Source\LwIP\src\core/timeouts.c **** }
 188:Source\LwIP\src\core/timeouts.c **** 
 189:Source\LwIP\src\core/timeouts.c **** /**
 190:Source\LwIP\src\core/timeouts.c ****  * Create a one-shot timer (aka timeout). Timeouts are processed in the
 191:Source\LwIP\src\core/timeouts.c ****  * following cases:
 192:Source\LwIP\src\core/timeouts.c ****  * - while waiting for a message using sys_timeouts_mbox_fetch()
 193:Source\LwIP\src\core/timeouts.c ****  * - by calling sys_check_timeouts() (NO_SYS==1 only)
 194:Source\LwIP\src\core/timeouts.c ****  *
 195:Source\LwIP\src\core/timeouts.c ****  * @param msecs time in milliseconds after that the timer should expire
 196:Source\LwIP\src\core/timeouts.c ****  * @param handler callback function to call when msecs have elapsed
 197:Source\LwIP\src\core/timeouts.c ****  * @param arg argument to pass to the callback function
 198:Source\LwIP\src\core/timeouts.c ****  */
 199:Source\LwIP\src\core/timeouts.c **** #if LWIP_DEBUG_TIMERNAMES
 200:Source\LwIP\src\core/timeouts.c **** void
 201:Source\LwIP\src\core/timeouts.c **** sys_timeout_debug(u32_t msecs, sys_timeout_handler handler, void *arg, const char* handler_name)
 202:Source\LwIP\src\core/timeouts.c **** #else /* LWIP_DEBUG_TIMERNAMES */
ARM GAS  C:\Users\Phuong\AppData\Local\Temp\ccaanp9k.s 			page 5


 203:Source\LwIP\src\core/timeouts.c **** void
 204:Source\LwIP\src\core/timeouts.c **** sys_timeout(u32_t msecs, sys_timeout_handler handler, void *arg)
 205:Source\LwIP\src\core/timeouts.c **** #endif /* LWIP_DEBUG_TIMERNAMES */
 206:Source\LwIP\src\core/timeouts.c **** {
 207:Source\LwIP\src\core/timeouts.c ****   struct sys_timeo *timeout, *t;
 208:Source\LwIP\src\core/timeouts.c ****   u32_t now, diff;
 209:Source\LwIP\src\core/timeouts.c **** 
 210:Source\LwIP\src\core/timeouts.c ****   timeout = (struct sys_timeo *)memp_malloc(MEMP_SYS_TIMEOUT);
 211:Source\LwIP\src\core/timeouts.c ****   if (timeout == NULL) {
 212:Source\LwIP\src\core/timeouts.c ****     LWIP_ASSERT("sys_timeout: timeout != NULL, pool MEMP_SYS_TIMEOUT is empty", timeout != NULL);
 213:Source\LwIP\src\core/timeouts.c ****     return;
 214:Source\LwIP\src\core/timeouts.c ****   }
 215:Source\LwIP\src\core/timeouts.c **** 
 216:Source\LwIP\src\core/timeouts.c ****   now = sys_now();
 217:Source\LwIP\src\core/timeouts.c ****   if (next_timeout == NULL) {
 218:Source\LwIP\src\core/timeouts.c ****     diff = 0;
 219:Source\LwIP\src\core/timeouts.c ****     timeouts_last_time = now;
 220:Source\LwIP\src\core/timeouts.c ****   } else {
 221:Source\LwIP\src\core/timeouts.c ****     diff = now - timeouts_last_time;
 222:Source\LwIP\src\core/timeouts.c ****   }
 223:Source\LwIP\src\core/timeouts.c **** 
 224:Source\LwIP\src\core/timeouts.c ****   timeout->next = NULL;
 225:Source\LwIP\src\core/timeouts.c ****   timeout->h = handler;
 226:Source\LwIP\src\core/timeouts.c ****   timeout->arg = arg;
 227:Source\LwIP\src\core/timeouts.c ****   timeout->time = msecs + diff;
 228:Source\LwIP\src\core/timeouts.c **** #if LWIP_DEBUG_TIMERNAMES
 229:Source\LwIP\src\core/timeouts.c ****   timeout->handler_name = handler_name;
 230:Source\LwIP\src\core/timeouts.c ****   LWIP_DEBUGF(TIMERS_DEBUG, ("sys_timeout: %p msecs=%"U32_F" handler=%s arg=%p\n",
 231:Source\LwIP\src\core/timeouts.c ****     (void *)timeout, msecs, handler_name, (void *)arg));
 232:Source\LwIP\src\core/timeouts.c **** #endif /* LWIP_DEBUG_TIMERNAMES */
 233:Source\LwIP\src\core/timeouts.c **** 
 234:Source\LwIP\src\core/timeouts.c ****   if (next_timeout == NULL) {
 235:Source\LwIP\src\core/timeouts.c ****     next_timeout = timeout;
 236:Source\LwIP\src\core/timeouts.c ****     return;
 237:Source\LwIP\src\core/timeouts.c ****   }
 238:Source\LwIP\src\core/timeouts.c **** 
 239:Source\LwIP\src\core/timeouts.c ****   if (next_timeout->time > msecs) {
 240:Source\LwIP\src\core/timeouts.c ****     next_timeout->time -= msecs;
 241:Source\LwIP\src\core/timeouts.c ****     timeout->next = next_timeout;
 242:Source\LwIP\src\core/timeouts.c ****     next_timeout = timeout;
 243:Source\LwIP\src\core/timeouts.c ****   } else {
 244:Source\LwIP\src\core/timeouts.c ****     for (t = next_timeout; t != NULL; t = t->next) {
 245:Source\LwIP\src\core/timeouts.c ****       timeout->time -= t->time;
 246:Source\LwIP\src\core/timeouts.c ****       if (t->next == NULL || t->next->time > timeout->time) {
 247:Source\LwIP\src\core/timeouts.c ****         if (t->next != NULL) {
 248:Source\LwIP\src\core/timeouts.c ****           t->next->time -= timeout->time;
 249:Source\LwIP\src\core/timeouts.c ****         } else if (timeout->time > msecs) {
 250:Source\LwIP\src\core/timeouts.c ****           /* If this is the case, 'timeouts_last_time' and 'now' differs too much.
 251:Source\LwIP\src\core/timeouts.c ****              This can be due to sys_check_timeouts() not being called at the right
 252:Source\LwIP\src\core/timeouts.c ****              times, but also when stopping in a breakpoint. Anyway, let's assume
 253:Source\LwIP\src\core/timeouts.c ****              this is not wanted, so add the first timer's time instead of 'diff' */
 254:Source\LwIP\src\core/timeouts.c ****           timeout->time = msecs + next_timeout->time;
 255:Source\LwIP\src\core/timeouts.c ****         }
 256:Source\LwIP\src\core/timeouts.c ****         timeout->next = t->next;
 257:Source\LwIP\src\core/timeouts.c ****         t->next = timeout;
 258:Source\LwIP\src\core/timeouts.c ****         break;
 259:Source\LwIP\src\core/timeouts.c ****       }
ARM GAS  C:\Users\Phuong\AppData\Local\Temp\ccaanp9k.s 			page 6


 260:Source\LwIP\src\core/timeouts.c ****     }
 261:Source\LwIP\src\core/timeouts.c ****   }
 262:Source\LwIP\src\core/timeouts.c **** }
 263:Source\LwIP\src\core/timeouts.c **** 
 264:Source\LwIP\src\core/timeouts.c **** /**
 265:Source\LwIP\src\core/timeouts.c ****  * Go through timeout list (for this task only) and remove the first matching
 266:Source\LwIP\src\core/timeouts.c ****  * entry (subsequent entries remain untouched), even though the timeout has not
 267:Source\LwIP\src\core/timeouts.c ****  * triggered yet.
 268:Source\LwIP\src\core/timeouts.c ****  *
 269:Source\LwIP\src\core/timeouts.c ****  * @param handler callback function that would be called by the timeout
 270:Source\LwIP\src\core/timeouts.c ****  * @param arg callback argument that would be passed to handler
 271:Source\LwIP\src\core/timeouts.c **** */
 272:Source\LwIP\src\core/timeouts.c **** void
 273:Source\LwIP\src\core/timeouts.c **** sys_untimeout(sys_timeout_handler handler, void *arg)
 274:Source\LwIP\src\core/timeouts.c **** {
 275:Source\LwIP\src\core/timeouts.c ****   struct sys_timeo *prev_t, *t;
 276:Source\LwIP\src\core/timeouts.c **** 
 277:Source\LwIP\src\core/timeouts.c ****   if (next_timeout == NULL) {
 278:Source\LwIP\src\core/timeouts.c ****     return;
 279:Source\LwIP\src\core/timeouts.c ****   }
 280:Source\LwIP\src\core/timeouts.c **** 
 281:Source\LwIP\src\core/timeouts.c ****   for (t = next_timeout, prev_t = NULL; t != NULL; prev_t = t, t = t->next) {
 282:Source\LwIP\src\core/timeouts.c ****     if ((t->h == handler) && (t->arg == arg)) {
 283:Source\LwIP\src\core/timeouts.c ****       /* We have a match */
 284:Source\LwIP\src\core/timeouts.c ****       /* Unlink from previous in list */
 285:Source\LwIP\src\core/timeouts.c ****       if (prev_t == NULL) {
 286:Source\LwIP\src\core/timeouts.c ****         next_timeout = t->next;
 287:Source\LwIP\src\core/timeouts.c ****       } else {
 288:Source\LwIP\src\core/timeouts.c ****         prev_t->next = t->next;
 289:Source\LwIP\src\core/timeouts.c ****       }
 290:Source\LwIP\src\core/timeouts.c ****       /* If not the last one, add time of this one back to next */
 291:Source\LwIP\src\core/timeouts.c ****       if (t->next != NULL) {
 292:Source\LwIP\src\core/timeouts.c ****         t->next->time += t->time;
 293:Source\LwIP\src\core/timeouts.c ****       }
 294:Source\LwIP\src\core/timeouts.c ****       memp_free(MEMP_SYS_TIMEOUT, t);
 295:Source\LwIP\src\core/timeouts.c ****       return;
 296:Source\LwIP\src\core/timeouts.c ****     }
 297:Source\LwIP\src\core/timeouts.c ****   }
 298:Source\LwIP\src\core/timeouts.c ****   return;
 299:Source\LwIP\src\core/timeouts.c **** }
 300:Source\LwIP\src\core/timeouts.c **** 
 301:Source\LwIP\src\core/timeouts.c **** /**
 302:Source\LwIP\src\core/timeouts.c ****  * @ingroup lwip_nosys
 303:Source\LwIP\src\core/timeouts.c ****  * Handle timeouts for NO_SYS==1 (i.e. without using
 304:Source\LwIP\src\core/timeouts.c ****  * tcpip_thread/sys_timeouts_mbox_fetch(). Uses sys_now() to call timeout
 305:Source\LwIP\src\core/timeouts.c ****  * handler functions when timeouts expire.
 306:Source\LwIP\src\core/timeouts.c ****  *
 307:Source\LwIP\src\core/timeouts.c ****  * Must be called periodically from your main loop.
 308:Source\LwIP\src\core/timeouts.c ****  */
 309:Source\LwIP\src\core/timeouts.c **** #if !NO_SYS && !defined __DOXYGEN__
 310:Source\LwIP\src\core/timeouts.c **** static
 311:Source\LwIP\src\core/timeouts.c **** #endif /* !NO_SYS */
 312:Source\LwIP\src\core/timeouts.c **** void
 313:Source\LwIP\src\core/timeouts.c **** sys_check_timeouts(void)
 314:Source\LwIP\src\core/timeouts.c **** {
 315:Source\LwIP\src\core/timeouts.c ****   if (next_timeout) {
 316:Source\LwIP\src\core/timeouts.c ****     struct sys_timeo *tmptimeout;
ARM GAS  C:\Users\Phuong\AppData\Local\Temp\ccaanp9k.s 			page 7


 317:Source\LwIP\src\core/timeouts.c ****     u32_t diff;
 318:Source\LwIP\src\core/timeouts.c ****     sys_timeout_handler handler;
 319:Source\LwIP\src\core/timeouts.c ****     void *arg;
 320:Source\LwIP\src\core/timeouts.c ****     u8_t had_one;
 321:Source\LwIP\src\core/timeouts.c ****     u32_t now;
 322:Source\LwIP\src\core/timeouts.c **** 
 323:Source\LwIP\src\core/timeouts.c ****     now = sys_now();
 324:Source\LwIP\src\core/timeouts.c ****     /* this cares for wraparounds */
 325:Source\LwIP\src\core/timeouts.c ****     diff = now - timeouts_last_time;
 326:Source\LwIP\src\core/timeouts.c ****     do {
 327:Source\LwIP\src\core/timeouts.c ****       PBUF_CHECK_FREE_OOSEQ();
 328:Source\LwIP\src\core/timeouts.c ****       had_one = 0;
 329:Source\LwIP\src\core/timeouts.c ****       tmptimeout = next_timeout;
 330:Source\LwIP\src\core/timeouts.c ****       if (tmptimeout && (tmptimeout->time <= diff)) {
 331:Source\LwIP\src\core/timeouts.c ****         /* timeout has expired */
 332:Source\LwIP\src\core/timeouts.c ****         had_one = 1;
 333:Source\LwIP\src\core/timeouts.c ****         timeouts_last_time += tmptimeout->time;
 334:Source\LwIP\src\core/timeouts.c ****         diff -= tmptimeout->time;
 335:Source\LwIP\src\core/timeouts.c ****         next_timeout = tmptimeout->next;
 336:Source\LwIP\src\core/timeouts.c ****         handler = tmptimeout->h;
 337:Source\LwIP\src\core/timeouts.c ****         arg = tmptimeout->arg;
 338:Source\LwIP\src\core/timeouts.c **** #if LWIP_DEBUG_TIMERNAMES
 339:Source\LwIP\src\core/timeouts.c ****         if (handler != NULL) {
 340:Source\LwIP\src\core/timeouts.c ****           LWIP_DEBUGF(TIMERS_DEBUG, ("sct calling h=%s arg=%p\n",
 341:Source\LwIP\src\core/timeouts.c ****             tmptimeout->handler_name, arg));
 342:Source\LwIP\src\core/timeouts.c ****         }
 343:Source\LwIP\src\core/timeouts.c **** #endif /* LWIP_DEBUG_TIMERNAMES */
 344:Source\LwIP\src\core/timeouts.c ****         memp_free(MEMP_SYS_TIMEOUT, tmptimeout);
 345:Source\LwIP\src\core/timeouts.c ****         if (handler != NULL) {
 346:Source\LwIP\src\core/timeouts.c **** #if !NO_SYS
 347:Source\LwIP\src\core/timeouts.c ****           /* For LWIP_TCPIP_CORE_LOCKING, lock the core before calling the
 348:Source\LwIP\src\core/timeouts.c ****              timeout handler function. */
 349:Source\LwIP\src\core/timeouts.c ****           LOCK_TCPIP_CORE();
 350:Source\LwIP\src\core/timeouts.c **** #endif /* !NO_SYS */
 351:Source\LwIP\src\core/timeouts.c ****           handler(arg);
 352:Source\LwIP\src\core/timeouts.c **** #if !NO_SYS
 353:Source\LwIP\src\core/timeouts.c ****           UNLOCK_TCPIP_CORE();
 354:Source\LwIP\src\core/timeouts.c **** #endif /* !NO_SYS */
 355:Source\LwIP\src\core/timeouts.c ****         }
 356:Source\LwIP\src\core/timeouts.c ****         LWIP_TCPIP_THREAD_ALIVE();
 357:Source\LwIP\src\core/timeouts.c ****       }
 358:Source\LwIP\src\core/timeouts.c ****     /* repeat until all expired timers have been called */
 359:Source\LwIP\src\core/timeouts.c ****     } while (had_one);
 360:Source\LwIP\src\core/timeouts.c ****   }
 361:Source\LwIP\src\core/timeouts.c **** }
 362:Source\LwIP\src\core/timeouts.c **** 
 363:Source\LwIP\src\core/timeouts.c **** /** Set back the timestamp of the last call to sys_check_timeouts()
 364:Source\LwIP\src\core/timeouts.c ****  * This is necessary if sys_check_timeouts() hasn't been called for a long
 365:Source\LwIP\src\core/timeouts.c ****  * time (e.g. while saving energy) to prevent all timer functions of that
 366:Source\LwIP\src\core/timeouts.c ****  * period being called.
 367:Source\LwIP\src\core/timeouts.c ****  */
 368:Source\LwIP\src\core/timeouts.c **** void
 369:Source\LwIP\src\core/timeouts.c **** sys_restart_timeouts(void)
 370:Source\LwIP\src\core/timeouts.c **** {
 371:Source\LwIP\src\core/timeouts.c ****   timeouts_last_time = sys_now();
 372:Source\LwIP\src\core/timeouts.c **** }
 373:Source\LwIP\src\core/timeouts.c **** 
ARM GAS  C:\Users\Phuong\AppData\Local\Temp\ccaanp9k.s 			page 8


 374:Source\LwIP\src\core/timeouts.c **** /** Return the time left before the next timeout is due. If no timeouts are
 375:Source\LwIP\src\core/timeouts.c ****  * enqueued, returns 0xffffffff
 376:Source\LwIP\src\core/timeouts.c ****  */
 377:Source\LwIP\src\core/timeouts.c **** #if !NO_SYS
 378:Source\LwIP\src\core/timeouts.c **** static
 379:Source\LwIP\src\core/timeouts.c **** #endif /* !NO_SYS */
 380:Source\LwIP\src\core/timeouts.c **** u32_t
 381:Source\LwIP\src\core/timeouts.c **** sys_timeouts_sleeptime(void)
 382:Source\LwIP\src\core/timeouts.c **** {
  27              		.loc 1 382 0
  28              		.cfi_startproc
  29              		@ args = 0, pretend = 0, frame = 0
  30              		@ frame_needed = 0, uses_anonymous_args = 0
  31 0000 10B5     		push	{r4, lr}
  32              		.cfi_def_cfa_offset 8
  33              		.cfi_offset 4, -8
  34              		.cfi_offset 14, -4
 383:Source\LwIP\src\core/timeouts.c ****   u32_t diff;
 384:Source\LwIP\src\core/timeouts.c ****   if (next_timeout == NULL) {
  35              		.loc 1 384 0
  36 0002 0A4B     		ldr	r3, .L5
  37 0004 1B68     		ldr	r3, [r3]
  38 0006 002B     		cmp	r3, #0
  39 0008 0AD0     		beq	.L3
 385:Source\LwIP\src\core/timeouts.c ****     return 0xffffffff;
 386:Source\LwIP\src\core/timeouts.c ****   }
 387:Source\LwIP\src\core/timeouts.c ****   diff = sys_now() - timeouts_last_time;
  40              		.loc 1 387 0
  41 000a FFF7FEFF 		bl	sys_now
  42              	.LVL0:
  43 000e 074B     		ldr	r3, .L5
  44 0010 5A68     		ldr	r2, [r3, #4]
  45 0012 801A     		subs	r0, r0, r2
  46              	.LVL1:
 388:Source\LwIP\src\core/timeouts.c ****   if (diff > next_timeout->time) {
  47              		.loc 1 388 0
  48 0014 1B68     		ldr	r3, [r3]
  49 0016 5B68     		ldr	r3, [r3, #4]
  50 0018 9842     		cmp	r0, r3
  51 001a 04D8     		bhi	.L4
 389:Source\LwIP\src\core/timeouts.c ****     return 0;
 390:Source\LwIP\src\core/timeouts.c ****   } else {
 391:Source\LwIP\src\core/timeouts.c ****     return next_timeout->time - diff;
  52              		.loc 1 391 0
  53 001c 181A     		subs	r0, r3, r0
  54              	.LVL2:
  55 001e 03E0     		b	.L2
  56              	.L3:
 385:Source\LwIP\src\core/timeouts.c ****   }
  57              		.loc 1 385 0
  58 0020 0120     		movs	r0, #1
  59 0022 4042     		rsbs	r0, r0, #0
  60 0024 00E0     		b	.L2
  61              	.LVL3:
  62              	.L4:
 389:Source\LwIP\src\core/timeouts.c ****     return 0;
  63              		.loc 1 389 0
ARM GAS  C:\Users\Phuong\AppData\Local\Temp\ccaanp9k.s 			page 9


  64 0026 0020     		movs	r0, #0
  65              	.LVL4:
  66              	.L2:
 392:Source\LwIP\src\core/timeouts.c ****   }
 393:Source\LwIP\src\core/timeouts.c **** }
  67              		.loc 1 393 0
  68              		@ sp needed
  69 0028 10BD     		pop	{r4, pc}
  70              	.L6:
  71 002a C046     		.align	2
  72              	.L5:
  73 002c 00000000 		.word	.LANCHOR0
  74              		.cfi_endproc
  75              	.LFE61:
  76              		.size	sys_timeouts_sleeptime, .-sys_timeouts_sleeptime
  77              		.section	.text.sys_check_timeouts,"ax",%progbits
  78              		.align	2
  79              		.code	16
  80              		.thumb_func
  81              		.type	sys_check_timeouts, %function
  82              	sys_check_timeouts:
  83              	.LFB59:
 314:Source\LwIP\src\core/timeouts.c ****   if (next_timeout) {
  84              		.loc 1 314 0
  85              		.cfi_startproc
  86              		@ args = 0, pretend = 0, frame = 0
  87              		@ frame_needed = 0, uses_anonymous_args = 0
  88 0000 70B5     		push	{r4, r5, r6, lr}
  89              		.cfi_def_cfa_offset 16
  90              		.cfi_offset 4, -16
  91              		.cfi_offset 5, -12
  92              		.cfi_offset 6, -8
  93              		.cfi_offset 14, -4
 315:Source\LwIP\src\core/timeouts.c ****     struct sys_timeo *tmptimeout;
  94              		.loc 1 315 0
  95 0002 154B     		ldr	r3, .L14
  96 0004 1B68     		ldr	r3, [r3]
  97 0006 002B     		cmp	r3, #0
  98 0008 24D0     		beq	.L7
  99              	.LBB2:
 323:Source\LwIP\src\core/timeouts.c ****     /* this cares for wraparounds */
 100              		.loc 1 323 0
 101 000a FFF7FEFF 		bl	sys_now
 102              	.LVL5:
 325:Source\LwIP\src\core/timeouts.c ****     do {
 103              		.loc 1 325 0
 104 000e 124B     		ldr	r3, .L14
 105 0010 5B68     		ldr	r3, [r3, #4]
 106 0012 C51A     		subs	r5, r0, r3
 107              	.LVL6:
 108              	.L10:
 329:Source\LwIP\src\core/timeouts.c ****       if (tmptimeout && (tmptimeout->time <= diff)) {
 109              		.loc 1 329 0
 110 0014 104B     		ldr	r3, .L14
 111 0016 1968     		ldr	r1, [r3]
 112              	.LVL7:
 330:Source\LwIP\src\core/timeouts.c ****         /* timeout has expired */
ARM GAS  C:\Users\Phuong\AppData\Local\Temp\ccaanp9k.s 			page 10


 113              		.loc 1 330 0
 114 0018 0029     		cmp	r1, #0
 115 001a 14D0     		beq	.L11
 330:Source\LwIP\src\core/timeouts.c ****         /* timeout has expired */
 116              		.loc 1 330 0 is_stmt 0 discriminator 1
 117 001c 4B68     		ldr	r3, [r1, #4]
 118 001e 9D42     		cmp	r5, r3
 119 0020 13D3     		bcc	.L12
 120              	.LVL8:
 333:Source\LwIP\src\core/timeouts.c ****         diff -= tmptimeout->time;
 121              		.loc 1 333 0 is_stmt 1
 122 0022 0D4A     		ldr	r2, .L14
 123 0024 5068     		ldr	r0, [r2, #4]
 124 0026 C418     		adds	r4, r0, r3
 125 0028 5460     		str	r4, [r2, #4]
 334:Source\LwIP\src\core/timeouts.c ****         next_timeout = tmptimeout->next;
 126              		.loc 1 334 0
 127 002a ED1A     		subs	r5, r5, r3
 128              	.LVL9:
 335:Source\LwIP\src\core/timeouts.c ****         handler = tmptimeout->h;
 129              		.loc 1 335 0
 130 002c 0B68     		ldr	r3, [r1]
 131 002e 1360     		str	r3, [r2]
 336:Source\LwIP\src\core/timeouts.c ****         arg = tmptimeout->arg;
 132              		.loc 1 336 0
 133 0030 8C68     		ldr	r4, [r1, #8]
 134              	.LVL10:
 337:Source\LwIP\src\core/timeouts.c **** #if LWIP_DEBUG_TIMERNAMES
 135              		.loc 1 337 0
 136 0032 CE68     		ldr	r6, [r1, #12]
 137              	.LVL11:
 344:Source\LwIP\src\core/timeouts.c ****         if (handler != NULL) {
 138              		.loc 1 344 0
 139 0034 0C20     		movs	r0, #12
 140 0036 FFF7FEFF 		bl	memp_free
 141              	.LVL12:
 345:Source\LwIP\src\core/timeouts.c **** #if !NO_SYS
 142              		.loc 1 345 0
 143 003a 002C     		cmp	r4, #0
 144 003c 07D0     		beq	.L13
 351:Source\LwIP\src\core/timeouts.c **** #if !NO_SYS
 145              		.loc 1 351 0
 146 003e 3000     		movs	r0, r6
 147 0040 A047     		blx	r4
 148              	.LVL13:
 332:Source\LwIP\src\core/timeouts.c ****         timeouts_last_time += tmptimeout->time;
 149              		.loc 1 332 0
 150 0042 0123     		movs	r3, #1
 151 0044 04E0     		b	.L9
 152              	.LVL14:
 153              	.L11:
 328:Source\LwIP\src\core/timeouts.c ****       tmptimeout = next_timeout;
 154              		.loc 1 328 0
 155 0046 0023     		movs	r3, #0
 156 0048 02E0     		b	.L9
 157              	.L12:
 158 004a 0023     		movs	r3, #0
ARM GAS  C:\Users\Phuong\AppData\Local\Temp\ccaanp9k.s 			page 11


 159 004c 00E0     		b	.L9
 160              	.LVL15:
 161              	.L13:
 332:Source\LwIP\src\core/timeouts.c ****         timeouts_last_time += tmptimeout->time;
 162              		.loc 1 332 0
 163 004e 0123     		movs	r3, #1
 164              	.LVL16:
 165              	.L9:
 359:Source\LwIP\src\core/timeouts.c ****   }
 166              		.loc 1 359 0
 167 0050 002B     		cmp	r3, #0
 168 0052 DFD1     		bne	.L10
 169              	.LVL17:
 170              	.L7:
 171              	.LBE2:
 361:Source\LwIP\src\core/timeouts.c **** 
 172              		.loc 1 361 0
 173              		@ sp needed
 174 0054 70BD     		pop	{r4, r5, r6, pc}
 175              	.L15:
 176 0056 C046     		.align	2
 177              	.L14:
 178 0058 00000000 		.word	.LANCHOR0
 179              		.cfi_endproc
 180              	.LFE59:
 181              		.size	sys_check_timeouts, .-sys_check_timeouts
 182              		.section	.text.sys_timeout,"ax",%progbits
 183              		.align	2
 184              		.global	sys_timeout
 185              		.code	16
 186              		.thumb_func
 187              		.type	sys_timeout, %function
 188              	sys_timeout:
 189              	.LFB57:
 206:Source\LwIP\src\core/timeouts.c ****   struct sys_timeo *timeout, *t;
 190              		.loc 1 206 0
 191              		.cfi_startproc
 192              		@ args = 0, pretend = 0, frame = 0
 193              		@ frame_needed = 0, uses_anonymous_args = 0
 194              	.LVL18:
 195 0000 F0B5     		push	{r4, r5, r6, r7, lr}
 196              		.cfi_def_cfa_offset 20
 197              		.cfi_offset 4, -20
 198              		.cfi_offset 5, -16
 199              		.cfi_offset 6, -12
 200              		.cfi_offset 7, -8
 201              		.cfi_offset 14, -4
 202 0002 4746     		mov	r7, r8
 203 0004 80B4     		push	{r7}
 204              		.cfi_def_cfa_offset 24
 205              		.cfi_offset 8, -24
 206 0006 0500     		movs	r5, r0
 207 0008 8846     		mov	r8, r1
 208 000a 1700     		movs	r7, r2
 210:Source\LwIP\src\core/timeouts.c ****   if (timeout == NULL) {
 209              		.loc 1 210 0
 210 000c D222     		movs	r2, #210
ARM GAS  C:\Users\Phuong\AppData\Local\Temp\ccaanp9k.s 			page 12


 211              	.LVL19:
 212 000e 2449     		ldr	r1, .L28
 213              	.LVL20:
 214 0010 0C20     		movs	r0, #12
 215              	.LVL21:
 216 0012 FFF7FEFF 		bl	memp_malloc_fn
 217              	.LVL22:
 218 0016 041E     		subs	r4, r0, #0
 219              	.LVL23:
 211:Source\LwIP\src\core/timeouts.c ****     LWIP_ASSERT("sys_timeout: timeout != NULL, pool MEMP_SYS_TIMEOUT is empty", timeout != NULL);
 220              		.loc 1 211 0
 221 0018 3ED0     		beq	.L16
 216:Source\LwIP\src\core/timeouts.c ****   if (next_timeout == NULL) {
 222              		.loc 1 216 0
 223 001a FFF7FEFF 		bl	sys_now
 224              	.LVL24:
 217:Source\LwIP\src\core/timeouts.c ****     diff = 0;
 225              		.loc 1 217 0
 226 001e 214B     		ldr	r3, .L28+4
 227 0020 1E68     		ldr	r6, [r3]
 228 0022 002E     		cmp	r6, #0
 229 0024 02D1     		bne	.L18
 230              	.LVL25:
 219:Source\LwIP\src\core/timeouts.c ****   } else {
 231              		.loc 1 219 0
 232 0026 5860     		str	r0, [r3, #4]
 218:Source\LwIP\src\core/timeouts.c ****     timeouts_last_time = now;
 233              		.loc 1 218 0
 234 0028 0020     		movs	r0, #0
 235              	.LVL26:
 236 002a 02E0     		b	.L19
 237              	.LVL27:
 238              	.L18:
 221:Source\LwIP\src\core/timeouts.c ****   }
 239              		.loc 1 221 0
 240 002c 1D4B     		ldr	r3, .L28+4
 241 002e 5B68     		ldr	r3, [r3, #4]
 242 0030 C01A     		subs	r0, r0, r3
 243              	.LVL28:
 244              	.L19:
 224:Source\LwIP\src\core/timeouts.c ****   timeout->h = handler;
 245              		.loc 1 224 0
 246 0032 0023     		movs	r3, #0
 247 0034 2360     		str	r3, [r4]
 225:Source\LwIP\src\core/timeouts.c ****   timeout->arg = arg;
 248              		.loc 1 225 0
 249 0036 4346     		mov	r3, r8
 250 0038 A360     		str	r3, [r4, #8]
 226:Source\LwIP\src\core/timeouts.c ****   timeout->time = msecs + diff;
 251              		.loc 1 226 0
 252 003a E760     		str	r7, [r4, #12]
 227:Source\LwIP\src\core/timeouts.c **** #if LWIP_DEBUG_TIMERNAMES
 253              		.loc 1 227 0
 254 003c 4019     		adds	r0, r0, r5
 255              	.LVL29:
 256 003e 6060     		str	r0, [r4, #4]
 234:Source\LwIP\src\core/timeouts.c ****     next_timeout = timeout;
ARM GAS  C:\Users\Phuong\AppData\Local\Temp\ccaanp9k.s 			page 13


 257              		.loc 1 234 0
 258 0040 002E     		cmp	r6, #0
 259 0042 02D1     		bne	.L20
 260              	.LVL30:
 235:Source\LwIP\src\core/timeouts.c ****     return;
 261              		.loc 1 235 0
 262 0044 174B     		ldr	r3, .L28+4
 263              	.LVL31:
 264 0046 1C60     		str	r4, [r3]
 236:Source\LwIP\src\core/timeouts.c ****   }
 265              		.loc 1 236 0
 266 0048 26E0     		b	.L16
 267              	.LVL32:
 268              	.L20:
 239:Source\LwIP\src\core/timeouts.c ****     next_timeout->time -= msecs;
 269              		.loc 1 239 0
 270 004a 7368     		ldr	r3, [r6, #4]
 271              	.LVL33:
 272 004c 9D42     		cmp	r5, r3
 273 004e 1ED2     		bcs	.L26
 240:Source\LwIP\src\core/timeouts.c ****     timeout->next = next_timeout;
 274              		.loc 1 240 0
 275 0050 5D1B     		subs	r5, r3, r5
 276              	.LVL34:
 277 0052 7560     		str	r5, [r6, #4]
 241:Source\LwIP\src\core/timeouts.c ****     next_timeout = timeout;
 278              		.loc 1 241 0
 279 0054 2660     		str	r6, [r4]
 242:Source\LwIP\src\core/timeouts.c ****   } else {
 280              		.loc 1 242 0
 281 0056 134B     		ldr	r3, .L28+4
 282 0058 1C60     		str	r4, [r3]
 283 005a 1DE0     		b	.L16
 284              	.LVL35:
 285              	.L25:
 245:Source\LwIP\src\core/timeouts.c ****       if (t->next == NULL || t->next->time > timeout->time) {
 286              		.loc 1 245 0
 287 005c 6368     		ldr	r3, [r4, #4]
 288 005e 5168     		ldr	r1, [r2, #4]
 289 0060 5B1A     		subs	r3, r3, r1
 290 0062 6360     		str	r3, [r4, #4]
 246:Source\LwIP\src\core/timeouts.c ****         if (t->next != NULL) {
 291              		.loc 1 246 0
 292 0064 1168     		ldr	r1, [r2]
 293 0066 0029     		cmp	r1, #0
 294 0068 02D0     		beq	.L22
 246:Source\LwIP\src\core/timeouts.c ****         if (t->next != NULL) {
 295              		.loc 1 246 0 is_stmt 0 discriminator 1
 296 006a 4868     		ldr	r0, [r1, #4]
 297 006c 8342     		cmp	r3, r0
 298 006e 10D2     		bcs	.L27
 299              	.L22:
 247:Source\LwIP\src\core/timeouts.c ****           t->next->time -= timeout->time;
 300              		.loc 1 247 0 is_stmt 1
 301 0070 0029     		cmp	r1, #0
 302 0072 03D0     		beq	.L23
 248:Source\LwIP\src\core/timeouts.c ****         } else if (timeout->time > msecs) {
ARM GAS  C:\Users\Phuong\AppData\Local\Temp\ccaanp9k.s 			page 14


 303              		.loc 1 248 0
 304 0074 4868     		ldr	r0, [r1, #4]
 305 0076 C31A     		subs	r3, r0, r3
 306 0078 4B60     		str	r3, [r1, #4]
 307 007a 04E0     		b	.L24
 308              	.L23:
 249:Source\LwIP\src\core/timeouts.c ****           /* If this is the case, 'timeouts_last_time' and 'now' differs too much.
 309              		.loc 1 249 0
 310 007c 9D42     		cmp	r5, r3
 311 007e 02D2     		bcs	.L24
 254:Source\LwIP\src\core/timeouts.c ****         }
 312              		.loc 1 254 0
 313 0080 7368     		ldr	r3, [r6, #4]
 314 0082 ED18     		adds	r5, r5, r3
 315              	.LVL36:
 316 0084 6560     		str	r5, [r4, #4]
 317              	.L24:
 256:Source\LwIP\src\core/timeouts.c ****         t->next = timeout;
 318              		.loc 1 256 0
 319 0086 1368     		ldr	r3, [r2]
 320 0088 2360     		str	r3, [r4]
 257:Source\LwIP\src\core/timeouts.c ****         break;
 321              		.loc 1 257 0
 322 008a 1460     		str	r4, [r2]
 258:Source\LwIP\src\core/timeouts.c ****       }
 323              		.loc 1 258 0
 324 008c 04E0     		b	.L16
 325              	.LVL37:
 326              	.L26:
 327 008e 3200     		movs	r2, r6
 328 0090 00E0     		b	.L21
 329              	.LVL38:
 330              	.L27:
 244:Source\LwIP\src\core/timeouts.c ****       timeout->time -= t->time;
 331              		.loc 1 244 0
 332 0092 0A00     		movs	r2, r1
 333              	.LVL39:
 334              	.L21:
 244:Source\LwIP\src\core/timeouts.c ****       timeout->time -= t->time;
 335              		.loc 1 244 0 is_stmt 0 discriminator 1
 336 0094 002A     		cmp	r2, #0
 337 0096 E1D1     		bne	.L25
 338              	.LVL40:
 339              	.L16:
 262:Source\LwIP\src\core/timeouts.c **** 
 340              		.loc 1 262 0 is_stmt 1
 341              		@ sp needed
 342              	.LVL41:
 343              	.LVL42:
 344              	.LVL43:
 345 0098 04BC     		pop	{r2}
 346 009a 9046     		mov	r8, r2
 347 009c F0BD     		pop	{r4, r5, r6, r7, pc}
 348              	.L29:
 349 009e C046     		.align	2
 350              	.L28:
 351 00a0 00000000 		.word	.LC2
ARM GAS  C:\Users\Phuong\AppData\Local\Temp\ccaanp9k.s 			page 15


 352 00a4 00000000 		.word	.LANCHOR0
 353              		.cfi_endproc
 354              	.LFE57:
 355              		.size	sys_timeout, .-sys_timeout
 356              		.section	.text.tcp_timer_needed,"ax",%progbits
 357              		.align	2
 358              		.global	tcp_timer_needed
 359              		.code	16
 360              		.thumb_func
 361              		.type	tcp_timer_needed, %function
 362              	tcp_timer_needed:
 363              	.LFB54:
 148:Source\LwIP\src\core/timeouts.c ****   /* timer is off but needed again? */
 364              		.loc 1 148 0
 365              		.cfi_startproc
 366              		@ args = 0, pretend = 0, frame = 0
 367              		@ frame_needed = 0, uses_anonymous_args = 0
 368 0000 10B5     		push	{r4, lr}
 369              		.cfi_def_cfa_offset 8
 370              		.cfi_offset 4, -8
 371              		.cfi_offset 14, -4
 150:Source\LwIP\src\core/timeouts.c ****     /* enable and start timer */
 372              		.loc 1 150 0
 373 0002 0A4B     		ldr	r3, .L33
 374 0004 9B68     		ldr	r3, [r3, #8]
 375 0006 002B     		cmp	r3, #0
 376 0008 0FD1     		bne	.L30
 150:Source\LwIP\src\core/timeouts.c ****     /* enable and start timer */
 377              		.loc 1 150 0 is_stmt 0 discriminator 1
 378 000a 094B     		ldr	r3, .L33+4
 379 000c 1B68     		ldr	r3, [r3]
 380 000e 002B     		cmp	r3, #0
 381 0010 03D1     		bne	.L32
 150:Source\LwIP\src\core/timeouts.c ****     /* enable and start timer */
 382              		.loc 1 150 0 discriminator 2
 383 0012 084B     		ldr	r3, .L33+8
 384 0014 1B68     		ldr	r3, [r3]
 385 0016 002B     		cmp	r3, #0
 386 0018 07D0     		beq	.L30
 387              	.L32:
 152:Source\LwIP\src\core/timeouts.c ****     sys_timeout(TCP_TMR_INTERVAL, tcpip_tcp_timer, NULL);
 388              		.loc 1 152 0 is_stmt 1
 389 001a 0122     		movs	r2, #1
 390 001c 034B     		ldr	r3, .L33
 391 001e 9A60     		str	r2, [r3, #8]
 153:Source\LwIP\src\core/timeouts.c ****   }
 392              		.loc 1 153 0
 393 0020 0022     		movs	r2, #0
 394 0022 0549     		ldr	r1, .L33+12
 395 0024 FA20     		movs	r0, #250
 396 0026 FFF7FEFF 		bl	sys_timeout
 397              	.LVL44:
 398              	.L30:
 155:Source\LwIP\src\core/timeouts.c **** #endif /* LWIP_TCP */
 399              		.loc 1 155 0
 400              		@ sp needed
 401 002a 10BD     		pop	{r4, pc}
ARM GAS  C:\Users\Phuong\AppData\Local\Temp\ccaanp9k.s 			page 16


 402              	.L34:
 403              		.align	2
 404              	.L33:
 405 002c 00000000 		.word	.LANCHOR0
 406 0030 00000000 		.word	tcp_active_pcbs
 407 0034 00000000 		.word	tcp_tw_pcbs
 408 0038 00000000 		.word	tcpip_tcp_timer
 409              		.cfi_endproc
 410              	.LFE54:
 411              		.size	tcp_timer_needed, .-tcp_timer_needed
 412              		.section	.text.tcpip_tcp_timer,"ax",%progbits
 413              		.align	2
 414              		.code	16
 415              		.thumb_func
 416              		.type	tcpip_tcp_timer, %function
 417              	tcpip_tcp_timer:
 418              	.LFB53:
 126:Source\LwIP\src\core/timeouts.c ****   LWIP_UNUSED_ARG(arg);
 419              		.loc 1 126 0
 420              		.cfi_startproc
 421              		@ args = 0, pretend = 0, frame = 0
 422              		@ frame_needed = 0, uses_anonymous_args = 0
 423              	.LVL45:
 424 0000 10B5     		push	{r4, lr}
 425              		.cfi_def_cfa_offset 8
 426              		.cfi_offset 4, -8
 427              		.cfi_offset 14, -4
 130:Source\LwIP\src\core/timeouts.c ****   /* timer still needed? */
 428              		.loc 1 130 0
 429 0002 FFF7FEFF 		bl	tcp_tmr
 430              	.LVL46:
 132:Source\LwIP\src\core/timeouts.c ****     /* restart timer */
 431              		.loc 1 132 0
 432 0006 094B     		ldr	r3, .L39
 433 0008 1B68     		ldr	r3, [r3]
 434 000a 002B     		cmp	r3, #0
 435 000c 03D1     		bne	.L36
 132:Source\LwIP\src\core/timeouts.c ****     /* restart timer */
 436              		.loc 1 132 0 is_stmt 0 discriminator 1
 437 000e 084B     		ldr	r3, .L39+4
 438 0010 1B68     		ldr	r3, [r3]
 439 0012 002B     		cmp	r3, #0
 440 0014 05D0     		beq	.L37
 441              	.L36:
 134:Source\LwIP\src\core/timeouts.c ****   } else {
 442              		.loc 1 134 0 is_stmt 1
 443 0016 0022     		movs	r2, #0
 444 0018 0649     		ldr	r1, .L39+8
 445 001a FA20     		movs	r0, #250
 446 001c FFF7FEFF 		bl	sys_timeout
 447              	.LVL47:
 448 0020 02E0     		b	.L35
 449              	.L37:
 137:Source\LwIP\src\core/timeouts.c ****   }
 450              		.loc 1 137 0
 451 0022 0022     		movs	r2, #0
 452 0024 044B     		ldr	r3, .L39+12
ARM GAS  C:\Users\Phuong\AppData\Local\Temp\ccaanp9k.s 			page 17


 453 0026 9A60     		str	r2, [r3, #8]
 454              	.L35:
 139:Source\LwIP\src\core/timeouts.c **** 
 455              		.loc 1 139 0
 456              		@ sp needed
 457 0028 10BD     		pop	{r4, pc}
 458              	.L40:
 459 002a C046     		.align	2
 460              	.L39:
 461 002c 00000000 		.word	tcp_active_pcbs
 462 0030 00000000 		.word	tcp_tw_pcbs
 463 0034 00000000 		.word	tcpip_tcp_timer
 464 0038 00000000 		.word	.LANCHOR0
 465              		.cfi_endproc
 466              	.LFE53:
 467              		.size	tcpip_tcp_timer, .-tcpip_tcp_timer
 468              		.section	.text.sys_timeouts_init,"ax",%progbits
 469              		.align	2
 470              		.global	sys_timeouts_init
 471              		.code	16
 472              		.thumb_func
 473              		.type	sys_timeouts_init, %function
 474              	sys_timeouts_init:
 475              	.LFB56:
 176:Source\LwIP\src\core/timeouts.c ****   size_t i;
 476              		.loc 1 176 0
 477              		.cfi_startproc
 478              		@ args = 0, pretend = 0, frame = 0
 479              		@ frame_needed = 0, uses_anonymous_args = 0
 480 0000 10B5     		push	{r4, lr}
 481              		.cfi_def_cfa_offset 8
 482              		.cfi_offset 4, -8
 483              		.cfi_offset 14, -4
 484              	.LVL48:
 179:Source\LwIP\src\core/timeouts.c ****     /* we have to cast via size_t to get rid of const warning
 485              		.loc 1 179 0
 486 0002 0124     		movs	r4, #1
 487 0004 07E0     		b	.L42
 488              	.LVL49:
 489              	.L43:
 182:Source\LwIP\src\core/timeouts.c ****   }
 490              		.loc 1 182 0 discriminator 3
 491 0006 074B     		ldr	r3, .L44
 492 0008 E100     		lsls	r1, r4, #3
 493 000a 5A18     		adds	r2, r3, r1
 494 000c C858     		ldr	r0, [r1, r3]
 495 000e 0649     		ldr	r1, .L44+4
 496 0010 FFF7FEFF 		bl	sys_timeout
 497              	.LVL50:
 179:Source\LwIP\src\core/timeouts.c ****     /* we have to cast via size_t to get rid of const warning
 498              		.loc 1 179 0 discriminator 3
 499 0014 0134     		adds	r4, r4, #1
 500              	.LVL51:
 501              	.L42:
 179:Source\LwIP\src\core/timeouts.c ****     /* we have to cast via size_t to get rid of const warning
 502              		.loc 1 179 0 is_stmt 0 discriminator 1
 503 0016 062C     		cmp	r4, #6
ARM GAS  C:\Users\Phuong\AppData\Local\Temp\ccaanp9k.s 			page 18


 504 0018 F5D9     		bls	.L43
 186:Source\LwIP\src\core/timeouts.c **** }
 505              		.loc 1 186 0 is_stmt 1
 506 001a FFF7FEFF 		bl	sys_now
 507              	.LVL52:
 508 001e 034B     		ldr	r3, .L44+8
 509 0020 5860     		str	r0, [r3, #4]
 187:Source\LwIP\src\core/timeouts.c **** 
 510              		.loc 1 187 0
 511              		@ sp needed
 512              	.LVL53:
 513 0022 10BD     		pop	{r4, pc}
 514              	.L45:
 515              		.align	2
 516              	.L44:
 517 0024 00000000 		.word	.LANCHOR1
 518 0028 00000000 		.word	cyclic_timer
 519 002c 00000000 		.word	.LANCHOR0
 520              		.cfi_endproc
 521              	.LFE56:
 522              		.size	sys_timeouts_init, .-sys_timeouts_init
 523              		.section	.text.cyclic_timer,"ax",%progbits
 524              		.align	2
 525              		.code	16
 526              		.thumb_func
 527              		.type	cyclic_timer, %function
 528              	cyclic_timer:
 529              	.LFB55:
 165:Source\LwIP\src\core/timeouts.c ****   const struct lwip_cyclic_timer* cyclic = (const struct lwip_cyclic_timer*)arg;
 530              		.loc 1 165 0
 531              		.cfi_startproc
 532              		@ args = 0, pretend = 0, frame = 0
 533              		@ frame_needed = 0, uses_anonymous_args = 0
 534              	.LVL54:
 535 0000 10B5     		push	{r4, lr}
 536              		.cfi_def_cfa_offset 8
 537              		.cfi_offset 4, -8
 538              		.cfi_offset 14, -4
 539 0002 0400     		movs	r4, r0
 540              	.LVL55:
 170:Source\LwIP\src\core/timeouts.c ****   sys_timeout(cyclic->interval_ms, cyclic_timer, arg);
 541              		.loc 1 170 0
 542 0004 4368     		ldr	r3, [r0, #4]
 543 0006 9847     		blx	r3
 544              	.LVL56:
 171:Source\LwIP\src\core/timeouts.c **** }
 545              		.loc 1 171 0
 546 0008 2068     		ldr	r0, [r4]
 547 000a 2200     		movs	r2, r4
 548 000c 0149     		ldr	r1, .L47
 549 000e FFF7FEFF 		bl	sys_timeout
 550              	.LVL57:
 172:Source\LwIP\src\core/timeouts.c **** 
 551              		.loc 1 172 0
 552              		@ sp needed
 553              	.LVL58:
 554 0012 10BD     		pop	{r4, pc}
ARM GAS  C:\Users\Phuong\AppData\Local\Temp\ccaanp9k.s 			page 19


 555              	.L48:
 556              		.align	2
 557              	.L47:
 558 0014 00000000 		.word	cyclic_timer
 559              		.cfi_endproc
 560              	.LFE55:
 561              		.size	cyclic_timer, .-cyclic_timer
 562              		.section	.text.sys_untimeout,"ax",%progbits
 563              		.align	2
 564              		.global	sys_untimeout
 565              		.code	16
 566              		.thumb_func
 567              		.type	sys_untimeout, %function
 568              	sys_untimeout:
 569              	.LFB58:
 274:Source\LwIP\src\core/timeouts.c ****   struct sys_timeo *prev_t, *t;
 570              		.loc 1 274 0
 571              		.cfi_startproc
 572              		@ args = 0, pretend = 0, frame = 0
 573              		@ frame_needed = 0, uses_anonymous_args = 0
 574              	.LVL59:
 575 0000 10B5     		push	{r4, lr}
 576              		.cfi_def_cfa_offset 8
 577              		.cfi_offset 4, -8
 578              		.cfi_offset 14, -4
 277:Source\LwIP\src\core/timeouts.c ****     return;
 579              		.loc 1 277 0
 580 0002 134B     		ldr	r3, .L57
 581 0004 1B68     		ldr	r3, [r3]
 582 0006 002B     		cmp	r3, #0
 583 0008 20D0     		beq	.L49
 584 000a 0022     		movs	r2, #0
 585 000c 1CE0     		b	.L51
 586              	.LVL60:
 587              	.L56:
 282:Source\LwIP\src\core/timeouts.c ****       /* We have a match */
 588              		.loc 1 282 0
 589 000e 9C68     		ldr	r4, [r3, #8]
 590 0010 8442     		cmp	r4, r0
 591 0012 17D1     		bne	.L52
 282:Source\LwIP\src\core/timeouts.c ****       /* We have a match */
 592              		.loc 1 282 0 is_stmt 0 discriminator 1
 593 0014 DC68     		ldr	r4, [r3, #12]
 594 0016 8C42     		cmp	r4, r1
 595 0018 14D1     		bne	.L52
 285:Source\LwIP\src\core/timeouts.c ****         next_timeout = t->next;
 596              		.loc 1 285 0 is_stmt 1
 597 001a 002A     		cmp	r2, #0
 598 001c 03D1     		bne	.L53
 286:Source\LwIP\src\core/timeouts.c ****       } else {
 599              		.loc 1 286 0
 600 001e 0C4A     		ldr	r2, .L57
 601              	.LVL61:
 602 0020 1968     		ldr	r1, [r3]
 603              	.LVL62:
 604 0022 1160     		str	r1, [r2]
 605 0024 01E0     		b	.L54
ARM GAS  C:\Users\Phuong\AppData\Local\Temp\ccaanp9k.s 			page 20


 606              	.LVL63:
 607              	.L53:
 288:Source\LwIP\src\core/timeouts.c ****       }
 608              		.loc 1 288 0
 609 0026 1968     		ldr	r1, [r3]
 610              	.LVL64:
 611 0028 1160     		str	r1, [r2]
 612              	.LVL65:
 613              	.L54:
 291:Source\LwIP\src\core/timeouts.c ****         t->next->time += t->time;
 614              		.loc 1 291 0
 615 002a 1A68     		ldr	r2, [r3]
 616 002c 002A     		cmp	r2, #0
 617 002e 04D0     		beq	.L55
 292:Source\LwIP\src\core/timeouts.c ****       }
 618              		.loc 1 292 0
 619 0030 5168     		ldr	r1, [r2, #4]
 620 0032 5868     		ldr	r0, [r3, #4]
 621              	.LVL66:
 622 0034 8446     		mov	ip, r0
 623 0036 6144     		add	r1, r1, ip
 624 0038 5160     		str	r1, [r2, #4]
 625              	.L55:
 294:Source\LwIP\src\core/timeouts.c ****       return;
 626              		.loc 1 294 0
 627 003a 1900     		movs	r1, r3
 628 003c 0C20     		movs	r0, #12
 629 003e FFF7FEFF 		bl	memp_free
 630              	.LVL67:
 295:Source\LwIP\src\core/timeouts.c ****     }
 631              		.loc 1 295 0
 632 0042 03E0     		b	.L49
 633              	.LVL68:
 634              	.L52:
 281:Source\LwIP\src\core/timeouts.c ****     if ((t->h == handler) && (t->arg == arg)) {
 635              		.loc 1 281 0 discriminator 2
 636 0044 1A00     		movs	r2, r3
 637 0046 1B68     		ldr	r3, [r3]
 638              	.LVL69:
 639              	.L51:
 281:Source\LwIP\src\core/timeouts.c ****     if ((t->h == handler) && (t->arg == arg)) {
 640              		.loc 1 281 0 is_stmt 0 discriminator 1
 641 0048 002B     		cmp	r3, #0
 642 004a E0D1     		bne	.L56
 643              	.LVL70:
 644              	.L49:
 299:Source\LwIP\src\core/timeouts.c **** 
 645              		.loc 1 299 0 is_stmt 1
 646              		@ sp needed
 647 004c 10BD     		pop	{r4, pc}
 648              	.L58:
 649 004e C046     		.align	2
 650              	.L57:
 651 0050 00000000 		.word	.LANCHOR0
 652              		.cfi_endproc
 653              	.LFE58:
 654              		.size	sys_untimeout, .-sys_untimeout
ARM GAS  C:\Users\Phuong\AppData\Local\Temp\ccaanp9k.s 			page 21


 655              		.section	.text.sys_restart_timeouts,"ax",%progbits
 656              		.align	2
 657              		.global	sys_restart_timeouts
 658              		.code	16
 659              		.thumb_func
 660              		.type	sys_restart_timeouts, %function
 661              	sys_restart_timeouts:
 662              	.LFB60:
 370:Source\LwIP\src\core/timeouts.c ****   timeouts_last_time = sys_now();
 663              		.loc 1 370 0
 664              		.cfi_startproc
 665              		@ args = 0, pretend = 0, frame = 0
 666              		@ frame_needed = 0, uses_anonymous_args = 0
 667 0000 10B5     		push	{r4, lr}
 668              		.cfi_def_cfa_offset 8
 669              		.cfi_offset 4, -8
 670              		.cfi_offset 14, -4
 371:Source\LwIP\src\core/timeouts.c **** }
 671              		.loc 1 371 0
 672 0002 FFF7FEFF 		bl	sys_now
 673              	.LVL71:
 674 0006 014B     		ldr	r3, .L60
 675 0008 5860     		str	r0, [r3, #4]
 372:Source\LwIP\src\core/timeouts.c **** 
 676              		.loc 1 372 0
 677              		@ sp needed
 678 000a 10BD     		pop	{r4, pc}
 679              	.L61:
 680              		.align	2
 681              	.L60:
 682 000c 00000000 		.word	.LANCHOR0
 683              		.cfi_endproc
 684              	.LFE60:
 685              		.size	sys_restart_timeouts, .-sys_restart_timeouts
 686              		.section	.text.sys_timeouts_mbox_fetch,"ax",%progbits
 687              		.align	2
 688              		.global	sys_timeouts_mbox_fetch
 689              		.code	16
 690              		.thumb_func
 691              		.type	sys_timeouts_mbox_fetch, %function
 692              	sys_timeouts_mbox_fetch:
 693              	.LFB62:
 394:Source\LwIP\src\core/timeouts.c **** 
 395:Source\LwIP\src\core/timeouts.c **** #if !NO_SYS
 396:Source\LwIP\src\core/timeouts.c **** 
 397:Source\LwIP\src\core/timeouts.c **** /**
 398:Source\LwIP\src\core/timeouts.c ****  * Wait (forever) for a message to arrive in an mbox.
 399:Source\LwIP\src\core/timeouts.c ****  * While waiting, timeouts are processed.
 400:Source\LwIP\src\core/timeouts.c ****  *
 401:Source\LwIP\src\core/timeouts.c ****  * @param mbox the mbox to fetch the message from
 402:Source\LwIP\src\core/timeouts.c ****  * @param msg the place to store the message
 403:Source\LwIP\src\core/timeouts.c ****  */
 404:Source\LwIP\src\core/timeouts.c **** void
 405:Source\LwIP\src\core/timeouts.c **** sys_timeouts_mbox_fetch(sys_mbox_t *mbox, void **msg)
 406:Source\LwIP\src\core/timeouts.c **** {
 694              		.loc 1 406 0
 695              		.cfi_startproc
ARM GAS  C:\Users\Phuong\AppData\Local\Temp\ccaanp9k.s 			page 22


 696              		@ args = 0, pretend = 0, frame = 0
 697              		@ frame_needed = 0, uses_anonymous_args = 0
 698              	.LVL72:
 699 0000 70B5     		push	{r4, r5, r6, lr}
 700              		.cfi_def_cfa_offset 16
 701              		.cfi_offset 4, -16
 702              		.cfi_offset 5, -12
 703              		.cfi_offset 6, -8
 704              		.cfi_offset 14, -4
 705 0002 0400     		movs	r4, r0
 706 0004 0D00     		movs	r5, r1
 707              	.L63:
 708              	.LVL73:
 709              	.L67:
 407:Source\LwIP\src\core/timeouts.c ****   u32_t sleeptime;
 408:Source\LwIP\src\core/timeouts.c **** 
 409:Source\LwIP\src\core/timeouts.c **** again:
 410:Source\LwIP\src\core/timeouts.c ****   if (!next_timeout) {
 710              		.loc 1 410 0
 711 0006 0C4B     		ldr	r3, .L68
 712 0008 1B68     		ldr	r3, [r3]
 713 000a 002B     		cmp	r3, #0
 714 000c 05D1     		bne	.L64
 411:Source\LwIP\src\core/timeouts.c ****     sys_arch_mbox_fetch(mbox, msg, 0);
 715              		.loc 1 411 0
 716 000e 0022     		movs	r2, #0
 717 0010 2900     		movs	r1, r5
 718 0012 2000     		movs	r0, r4
 719 0014 FFF7FEFF 		bl	sys_arch_mbox_fetch
 720              	.LVL74:
 412:Source\LwIP\src\core/timeouts.c ****     return;
 721              		.loc 1 412 0
 722 0018 0DE0     		b	.L62
 723              	.L64:
 413:Source\LwIP\src\core/timeouts.c ****   }
 414:Source\LwIP\src\core/timeouts.c **** 
 415:Source\LwIP\src\core/timeouts.c ****   sleeptime = sys_timeouts_sleeptime();
 724              		.loc 1 415 0
 725 001a FFF7FEFF 		bl	sys_timeouts_sleeptime
 726              	.LVL75:
 416:Source\LwIP\src\core/timeouts.c ****   if (sleeptime == 0 || sys_arch_mbox_fetch(mbox, msg, sleeptime) == SYS_ARCH_TIMEOUT) {
 727              		.loc 1 416 0
 728 001e 0028     		cmp	r0, #0
 729 0020 06D0     		beq	.L66
 730              		.loc 1 416 0 is_stmt 0 discriminator 1
 731 0022 0200     		movs	r2, r0
 732 0024 2900     		movs	r1, r5
 733 0026 2000     		movs	r0, r4
 734              	.LVL76:
 735 0028 FFF7FEFF 		bl	sys_arch_mbox_fetch
 736              	.LVL77:
 737 002c 431C     		adds	r3, r0, #1
 738 002e 02D1     		bne	.L62
 739              	.L66:
 417:Source\LwIP\src\core/timeouts.c ****     /* If a SYS_ARCH_TIMEOUT value is returned, a timeout occurred
 418:Source\LwIP\src\core/timeouts.c ****        before a message could be fetched. */
 419:Source\LwIP\src\core/timeouts.c ****     sys_check_timeouts();
ARM GAS  C:\Users\Phuong\AppData\Local\Temp\ccaanp9k.s 			page 23


 740              		.loc 1 419 0 is_stmt 1
 741 0030 FFF7FEFF 		bl	sys_check_timeouts
 742              	.LVL78:
 420:Source\LwIP\src\core/timeouts.c ****     /* We try again to fetch a message from the mbox. */
 421:Source\LwIP\src\core/timeouts.c ****     goto again;
 743              		.loc 1 421 0
 744 0034 E7E7     		b	.L67
 745              	.L62:
 422:Source\LwIP\src\core/timeouts.c ****   }
 423:Source\LwIP\src\core/timeouts.c **** }
 746              		.loc 1 423 0
 747              		@ sp needed
 748              	.LVL79:
 749              	.LVL80:
 750 0036 70BD     		pop	{r4, r5, r6, pc}
 751              	.L69:
 752              		.align	2
 753              	.L68:
 754 0038 00000000 		.word	.LANCHOR0
 755              		.cfi_endproc
 756              	.LFE62:
 757              		.size	sys_timeouts_mbox_fetch, .-sys_timeouts_mbox_fetch
 758              		.global	lwip_cyclic_timers
 759              		.section	.rodata
 760              		.align	2
 761              		.set	.LANCHOR1,. + 0
 762              		.type	lwip_cyclic_timers, %object
 763              		.size	lwip_cyclic_timers, 56
 764              	lwip_cyclic_timers:
 765 0000 FA000000 		.word	250
 766 0004 00000000 		.word	tcp_tmr
 767 0008 E8030000 		.word	1000
 768 000c 00000000 		.word	ip_reass_tmr
 769 0010 E8030000 		.word	1000
 770 0014 00000000 		.word	etharp_tmr
 771 0018 60EA0000 		.word	60000
 772 001c 00000000 		.word	dhcp_coarse_tmr
 773 0020 F4010000 		.word	500
 774 0024 00000000 		.word	dhcp_fine_tmr
 775 0028 64000000 		.word	100
 776 002c 00000000 		.word	igmp_tmr
 777 0030 E8030000 		.word	1000
 778 0034 00000000 		.word	dns_tmr
 779              		.section	.rodata.str1.4,"aMS",%progbits,1
 780              		.align	2
 781              	.LC2:
 782 0000 536F7572 		.ascii	"Source\\LwIP\\src\\core\\timeouts.c\000"
 782      63655C4C 
 782      7749505C 
 782      7372635C 
 782      636F7265 
 783              		.bss
 784              		.align	2
 785              		.set	.LANCHOR0,. + 0
 786              		.type	next_timeout, %object
 787              		.size	next_timeout, 4
 788              	next_timeout:
ARM GAS  C:\Users\Phuong\AppData\Local\Temp\ccaanp9k.s 			page 24


 789 0000 00000000 		.space	4
 790              		.type	timeouts_last_time, %object
 791              		.size	timeouts_last_time, 4
 792              	timeouts_last_time:
 793 0004 00000000 		.space	4
 794              		.type	tcpip_tcp_timer_active, %object
 795              		.size	tcpip_tcp_timer_active, 4
 796              	tcpip_tcp_timer_active:
 797 0008 00000000 		.space	4
 798              		.text
 799              	.Letext0:
 800              		.file 2 "c:\\program files (x86)\\cypress\\psoc creator\\4.2\\psoc creator\\import\\gnu\\arm\\5.4.
 801              		.file 3 "c:\\program files (x86)\\cypress\\psoc creator\\4.2\\psoc creator\\import\\gnu\\arm\\5.4.
 802              		.file 4 "c:\\program files (x86)\\cypress\\psoc creator\\4.2\\psoc creator\\import\\gnu\\arm\\5.4.
 803              		.file 5 ".\\Source\\FreeRTOS\\10.0.1\\Source\\include/queue.h"
 804              		.file 6 ".\\Source\\LwIP\\src\\include/arch/sys_arch.h"
 805              		.file 7 ".\\Source\\LwIP\\src\\include/arch/cc.h"
 806              		.file 8 ".\\Source\\LwIP\\src\\include/lwip/err.h"
 807              		.file 9 ".\\Source\\LwIP\\src\\include/lwip/timeouts.h"
 808              		.file 10 ".\\Source\\LwIP\\src\\include/lwip/pbuf.h"
 809              		.file 11 ".\\Source\\LwIP\\src\\include/lwip/ip4_addr.h"
 810              		.file 12 ".\\Source\\LwIP\\src\\include/lwip/ip_addr.h"
 811              		.file 13 ".\\Source\\LwIP\\src\\include/lwip/tcp.h"
 812              		.file 14 ".\\Source\\LwIP\\src\\include/lwip/netif.h"
 813              		.file 15 ".\\Source\\LwIP\\src\\include/lwip/priv/tcp_priv.h"
 814              		.file 16 ".\\Source\\LwIP\\src\\include/lwip/prot/tcp.h"
 815              		.file 17 ".\\Source\\LwIP\\src\\include/lwip/sys.h"
 816              		.file 18 ".\\Source\\LwIP\\src\\include/lwip/memp.h"