ARM GAS  C:\Users\Phuong\AppData\Local\Temp\ccP1LXIT.s 			page 1


   1              		.syntax unified
   2              		.cpu cortex-m0plus
   3              		.fpu softvfp
   4              		.eabi_attribute 20, 1
   5              		.eabi_attribute 21, 1
   6              		.eabi_attribute 23, 3
   7              		.eabi_attribute 24, 1
   8              		.eabi_attribute 25, 1
   9              		.eabi_attribute 26, 1
  10              		.eabi_attribute 30, 1
  11              		.eabi_attribute 34, 0
  12              		.eabi_attribute 18, 4
  13              		.thumb
  14              		.syntax unified
  15              		.file	"tlsio_mbedtls.c"
  16              		.text
  17              	.Ltext0:
  18              		.cfi_sections	.debug_frame
  19              		.section	.text.indicate_error,"ax",%progbits
  20              		.align	2
  21              		.code	16
  22              		.thumb_func
  23              		.type	indicate_error, %function
  24              	indicate_error:
  25              	.LFB18:
  26              		.file 1 "Source\\azure_iot_sdk\\c-utility\\adapters\\tlsio_mbedtls.c"
   1:Source\azure_iot_sdk\c-utility\adapters/tlsio_mbedtls.c **** // Copyright (c) Microsoft. All rights reserved.
   2:Source\azure_iot_sdk\c-utility\adapters/tlsio_mbedtls.c **** // Licensed under the MIT license. See LICENSE file in the project root for full license informatio
   3:Source\azure_iot_sdk\c-utility\adapters/tlsio_mbedtls.c **** 
   4:Source\azure_iot_sdk\c-utility\adapters/tlsio_mbedtls.c **** // DEPRECATED: the USE_MBED_TLS #define is deprecated.
   5:Source\azure_iot_sdk\c-utility\adapters/tlsio_mbedtls.c **** #define USE_MBED_TLS
   6:Source\azure_iot_sdk\c-utility\adapters/tlsio_mbedtls.c **** #ifdef USE_MBED_TLS
   7:Source\azure_iot_sdk\c-utility\adapters/tlsio_mbedtls.c **** 
   8:Source\azure_iot_sdk\c-utility\adapters/tlsio_mbedtls.c **** #include <stdlib.h>
   9:Source\azure_iot_sdk\c-utility\adapters/tlsio_mbedtls.c **** #include <stdint.h>
  10:Source\azure_iot_sdk\c-utility\adapters/tlsio_mbedtls.c **** #include <stdio.h>
  11:Source\azure_iot_sdk\c-utility\adapters/tlsio_mbedtls.c **** #include <stdbool.h>
  12:Source\azure_iot_sdk\c-utility\adapters/tlsio_mbedtls.c **** #include <string.h>
  13:Source\azure_iot_sdk\c-utility\adapters/tlsio_mbedtls.c **** 
  14:Source\azure_iot_sdk\c-utility\adapters/tlsio_mbedtls.c **** #ifdef TIZENRT
  15:Source\azure_iot_sdk\c-utility\adapters/tlsio_mbedtls.c **** #include "tls/config.h"
  16:Source\azure_iot_sdk\c-utility\adapters/tlsio_mbedtls.c **** #include "tls/debug.h"
  17:Source\azure_iot_sdk\c-utility\adapters/tlsio_mbedtls.c **** #include "tls/ssl.h"
  18:Source\azure_iot_sdk\c-utility\adapters/tlsio_mbedtls.c **** #include "tls/entropy.h"
  19:Source\azure_iot_sdk\c-utility\adapters/tlsio_mbedtls.c **** #include "tls/ctr_drbg.h"
  20:Source\azure_iot_sdk\c-utility\adapters/tlsio_mbedtls.c **** #include "tls/error.h"
  21:Source\azure_iot_sdk\c-utility\adapters/tlsio_mbedtls.c **** #include "tls/certs.h"
  22:Source\azure_iot_sdk\c-utility\adapters/tlsio_mbedtls.c **** #include "tls/entropy_poll.h"
  23:Source\azure_iot_sdk\c-utility\adapters/tlsio_mbedtls.c **** #else
  24:Source\azure_iot_sdk\c-utility\adapters/tlsio_mbedtls.c **** #include "mbedtls/config.h"
  25:Source\azure_iot_sdk\c-utility\adapters/tlsio_mbedtls.c **** #include "mbedtls/debug.h"
  26:Source\azure_iot_sdk\c-utility\adapters/tlsio_mbedtls.c **** #include "mbedtls/ssl.h"
  27:Source\azure_iot_sdk\c-utility\adapters/tlsio_mbedtls.c **** #include "mbedtls/entropy.h"
  28:Source\azure_iot_sdk\c-utility\adapters/tlsio_mbedtls.c **** #include "mbedtls/ctr_drbg.h"
  29:Source\azure_iot_sdk\c-utility\adapters/tlsio_mbedtls.c **** #include "mbedtls/error.h"
  30:Source\azure_iot_sdk\c-utility\adapters/tlsio_mbedtls.c **** #include "mbedtls/certs.h"
  31:Source\azure_iot_sdk\c-utility\adapters/tlsio_mbedtls.c **** #include "mbedtls/entropy_poll.h"
ARM GAS  C:\Users\Phuong\AppData\Local\Temp\ccP1LXIT.s 			page 2


  32:Source\azure_iot_sdk\c-utility\adapters/tlsio_mbedtls.c **** #endif
  33:Source\azure_iot_sdk\c-utility\adapters/tlsio_mbedtls.c **** 
  34:Source\azure_iot_sdk\c-utility\adapters/tlsio_mbedtls.c **** #include "azure_c_shared_utility/gballoc.h"
  35:Source\azure_iot_sdk\c-utility\adapters/tlsio_mbedtls.c **** #include "azure_c_shared_utility/optimize_size.h"
  36:Source\azure_iot_sdk\c-utility\adapters/tlsio_mbedtls.c **** #include "azure_c_shared_utility/tlsio.h"
  37:Source\azure_iot_sdk\c-utility\adapters/tlsio_mbedtls.c **** #include "azure_c_shared_utility/tlsio_mbedtls.h"
  38:Source\azure_iot_sdk\c-utility\adapters/tlsio_mbedtls.c **** #include "azure_c_shared_utility/socketio.h"
  39:Source\azure_iot_sdk\c-utility\adapters/tlsio_mbedtls.c **** #include "azure_c_shared_utility/crt_abstractions.h"
  40:Source\azure_iot_sdk\c-utility\adapters/tlsio_mbedtls.c **** #include "azure_c_shared_utility/shared_util_options.h"
  41:Source\azure_iot_sdk\c-utility\adapters/tlsio_mbedtls.c **** #include "azure_c_shared_utility/optionhandler.h"
  42:Source\azure_iot_sdk\c-utility\adapters/tlsio_mbedtls.c **** 
  43:Source\azure_iot_sdk\c-utility\adapters/tlsio_mbedtls.c **** static const char* const OPTION_UNDERLYING_IO_OPTIONS = "underlying_io_options";
  44:Source\azure_iot_sdk\c-utility\adapters/tlsio_mbedtls.c **** 
  45:Source\azure_iot_sdk\c-utility\adapters/tlsio_mbedtls.c **** // DEPRECATED: debug functions do not belong in the tree.
  46:Source\azure_iot_sdk\c-utility\adapters/tlsio_mbedtls.c **** //#define MBED_TLS_DEBUG_ENABLE
  47:Source\azure_iot_sdk\c-utility\adapters/tlsio_mbedtls.c **** 
  48:Source\azure_iot_sdk\c-utility\adapters/tlsio_mbedtls.c **** static const size_t SOCKET_READ_LIMIT = 5;
  49:Source\azure_iot_sdk\c-utility\adapters/tlsio_mbedtls.c **** 
  50:Source\azure_iot_sdk\c-utility\adapters/tlsio_mbedtls.c **** typedef enum TLSIO_STATE_ENUM_TAG
  51:Source\azure_iot_sdk\c-utility\adapters/tlsio_mbedtls.c **** {
  52:Source\azure_iot_sdk\c-utility\adapters/tlsio_mbedtls.c ****     TLSIO_STATE_NOT_OPEN,
  53:Source\azure_iot_sdk\c-utility\adapters/tlsio_mbedtls.c ****     TLSIO_STATE_OPENING_UNDERLYING_IO,
  54:Source\azure_iot_sdk\c-utility\adapters/tlsio_mbedtls.c ****     TLSIO_STATE_IN_HANDSHAKE,
  55:Source\azure_iot_sdk\c-utility\adapters/tlsio_mbedtls.c ****     TLSIO_STATE_OPEN,
  56:Source\azure_iot_sdk\c-utility\adapters/tlsio_mbedtls.c ****     TLSIO_STATE_CLOSING,
  57:Source\azure_iot_sdk\c-utility\adapters/tlsio_mbedtls.c ****     TLSIO_STATE_ERROR
  58:Source\azure_iot_sdk\c-utility\adapters/tlsio_mbedtls.c **** } TLSIO_STATE_ENUM;
  59:Source\azure_iot_sdk\c-utility\adapters/tlsio_mbedtls.c **** 
  60:Source\azure_iot_sdk\c-utility\adapters/tlsio_mbedtls.c **** typedef struct TLS_IO_INSTANCE_TAG
  61:Source\azure_iot_sdk\c-utility\adapters/tlsio_mbedtls.c **** {
  62:Source\azure_iot_sdk\c-utility\adapters/tlsio_mbedtls.c ****     XIO_HANDLE socket_io;
  63:Source\azure_iot_sdk\c-utility\adapters/tlsio_mbedtls.c ****     ON_BYTES_RECEIVED on_bytes_received;
  64:Source\azure_iot_sdk\c-utility\adapters/tlsio_mbedtls.c ****     ON_IO_OPEN_COMPLETE on_io_open_complete;
  65:Source\azure_iot_sdk\c-utility\adapters/tlsio_mbedtls.c ****     ON_IO_CLOSE_COMPLETE on_io_close_complete;
  66:Source\azure_iot_sdk\c-utility\adapters/tlsio_mbedtls.c ****     ON_IO_ERROR on_io_error;
  67:Source\azure_iot_sdk\c-utility\adapters/tlsio_mbedtls.c ****     void* on_bytes_received_context;
  68:Source\azure_iot_sdk\c-utility\adapters/tlsio_mbedtls.c ****     void* on_io_open_complete_context;
  69:Source\azure_iot_sdk\c-utility\adapters/tlsio_mbedtls.c ****     void* on_io_close_complete_context;
  70:Source\azure_iot_sdk\c-utility\adapters/tlsio_mbedtls.c ****     void* on_io_error_context;
  71:Source\azure_iot_sdk\c-utility\adapters/tlsio_mbedtls.c ****     TLSIO_STATE_ENUM tlsio_state;
  72:Source\azure_iot_sdk\c-utility\adapters/tlsio_mbedtls.c ****     unsigned char* socket_io_read_bytes;
  73:Source\azure_iot_sdk\c-utility\adapters/tlsio_mbedtls.c ****     size_t socket_io_read_byte_count;
  74:Source\azure_iot_sdk\c-utility\adapters/tlsio_mbedtls.c ****     ON_SEND_COMPLETE on_send_complete;
  75:Source\azure_iot_sdk\c-utility\adapters/tlsio_mbedtls.c ****     void* on_send_complete_callback_context;
  76:Source\azure_iot_sdk\c-utility\adapters/tlsio_mbedtls.c ****     mbedtls_entropy_context    entropy;
  77:Source\azure_iot_sdk\c-utility\adapters/tlsio_mbedtls.c ****     mbedtls_ctr_drbg_context   ctr_drbg;
  78:Source\azure_iot_sdk\c-utility\adapters/tlsio_mbedtls.c ****     mbedtls_ssl_context        ssl;
  79:Source\azure_iot_sdk\c-utility\adapters/tlsio_mbedtls.c ****     mbedtls_ssl_config         config;
  80:Source\azure_iot_sdk\c-utility\adapters/tlsio_mbedtls.c ****     mbedtls_x509_crt           trusted_certificates_parsed;
  81:Source\azure_iot_sdk\c-utility\adapters/tlsio_mbedtls.c ****     mbedtls_ssl_session        ssn;
  82:Source\azure_iot_sdk\c-utility\adapters/tlsio_mbedtls.c ****     char*                      trusted_certificates;
  83:Source\azure_iot_sdk\c-utility\adapters/tlsio_mbedtls.c **** } TLS_IO_INSTANCE;
  84:Source\azure_iot_sdk\c-utility\adapters/tlsio_mbedtls.c **** 
  85:Source\azure_iot_sdk\c-utility\adapters/tlsio_mbedtls.c **** static const IO_INTERFACE_DESCRIPTION tlsio_mbedtls_interface_description =
  86:Source\azure_iot_sdk\c-utility\adapters/tlsio_mbedtls.c **** {
  87:Source\azure_iot_sdk\c-utility\adapters/tlsio_mbedtls.c ****     tlsio_mbedtls_retrieveoptions,
  88:Source\azure_iot_sdk\c-utility\adapters/tlsio_mbedtls.c ****     tlsio_mbedtls_create,
ARM GAS  C:\Users\Phuong\AppData\Local\Temp\ccP1LXIT.s 			page 3


  89:Source\azure_iot_sdk\c-utility\adapters/tlsio_mbedtls.c ****     tlsio_mbedtls_destroy,
  90:Source\azure_iot_sdk\c-utility\adapters/tlsio_mbedtls.c ****     tlsio_mbedtls_open,
  91:Source\azure_iot_sdk\c-utility\adapters/tlsio_mbedtls.c ****     tlsio_mbedtls_close,
  92:Source\azure_iot_sdk\c-utility\adapters/tlsio_mbedtls.c ****     tlsio_mbedtls_send,
  93:Source\azure_iot_sdk\c-utility\adapters/tlsio_mbedtls.c ****     tlsio_mbedtls_dowork,
  94:Source\azure_iot_sdk\c-utility\adapters/tlsio_mbedtls.c ****     tlsio_mbedtls_setoption
  95:Source\azure_iot_sdk\c-utility\adapters/tlsio_mbedtls.c **** };
  96:Source\azure_iot_sdk\c-utility\adapters/tlsio_mbedtls.c **** 
  97:Source\azure_iot_sdk\c-utility\adapters/tlsio_mbedtls.c **** // DEPRECATED: debug functions do not belong in the tree.
  98:Source\azure_iot_sdk\c-utility\adapters/tlsio_mbedtls.c **** #if defined (MBED_TLS_DEBUG_ENABLE)
  99:Source\azure_iot_sdk\c-utility\adapters/tlsio_mbedtls.c **** void mbedtls_debug(void *ctx, int level, const char *file, int line, const char *str)
 100:Source\azure_iot_sdk\c-utility\adapters/tlsio_mbedtls.c **** {
 101:Source\azure_iot_sdk\c-utility\adapters/tlsio_mbedtls.c ****     (void)ctx;
 102:Source\azure_iot_sdk\c-utility\adapters/tlsio_mbedtls.c ****     ((void)level);
 103:Source\azure_iot_sdk\c-utility\adapters/tlsio_mbedtls.c ****     printf("%s (%d): %s\r\n", file, line, str);
 104:Source\azure_iot_sdk\c-utility\adapters/tlsio_mbedtls.c **** }
 105:Source\azure_iot_sdk\c-utility\adapters/tlsio_mbedtls.c **** #endif
 106:Source\azure_iot_sdk\c-utility\adapters/tlsio_mbedtls.c **** 
 107:Source\azure_iot_sdk\c-utility\adapters/tlsio_mbedtls.c **** static void indicate_error(TLS_IO_INSTANCE* tls_io_instance)
 108:Source\azure_iot_sdk\c-utility\adapters/tlsio_mbedtls.c **** {
  27              		.loc 1 108 0
  28              		.cfi_startproc
  29              		@ args = 0, pretend = 0, frame = 0
  30              		@ frame_needed = 0, uses_anonymous_args = 0
  31              	.LVL0:
  32 0000 10B5     		push	{r4, lr}
  33              		.cfi_def_cfa_offset 8
  34              		.cfi_offset 4, -8
  35              		.cfi_offset 14, -4
 109:Source\azure_iot_sdk\c-utility\adapters/tlsio_mbedtls.c ****     if (tls_io_instance->on_io_error != NULL)
  36              		.loc 1 109 0
  37 0002 0369     		ldr	r3, [r0, #16]
  38 0004 002B     		cmp	r3, #0
  39 0006 01D0     		beq	.L1
 110:Source\azure_iot_sdk\c-utility\adapters/tlsio_mbedtls.c ****     {
 111:Source\azure_iot_sdk\c-utility\adapters/tlsio_mbedtls.c ****         tls_io_instance->on_io_error(tls_io_instance->on_io_error_context);
  40              		.loc 1 111 0
  41 0008 006A     		ldr	r0, [r0, #32]
  42              	.LVL1:
  43 000a 9847     		blx	r3
  44              	.LVL2:
  45              	.L1:
 112:Source\azure_iot_sdk\c-utility\adapters/tlsio_mbedtls.c ****     }
 113:Source\azure_iot_sdk\c-utility\adapters/tlsio_mbedtls.c **** }
  46              		.loc 1 113 0
  47              		@ sp needed
  48 000c 10BD     		pop	{r4, pc}
  49              		.cfi_endproc
  50              	.LFE18:
  51              		.size	indicate_error, .-indicate_error
  52 000e C046     		.section	.text.indicate_open_complete,"ax",%progbits
  53              		.align	2
  54              		.code	16
  55              		.thumb_func
  56              		.type	indicate_open_complete, %function
  57              	indicate_open_complete:
  58              	.LFB19:
ARM GAS  C:\Users\Phuong\AppData\Local\Temp\ccP1LXIT.s 			page 4


 114:Source\azure_iot_sdk\c-utility\adapters/tlsio_mbedtls.c **** 
 115:Source\azure_iot_sdk\c-utility\adapters/tlsio_mbedtls.c **** static void indicate_open_complete(TLS_IO_INSTANCE* tls_io_instance, IO_OPEN_RESULT open_result)
 116:Source\azure_iot_sdk\c-utility\adapters/tlsio_mbedtls.c **** {
  59              		.loc 1 116 0
  60              		.cfi_startproc
  61              		@ args = 0, pretend = 0, frame = 0
  62              		@ frame_needed = 0, uses_anonymous_args = 0
  63              	.LVL3:
  64 0000 10B5     		push	{r4, lr}
  65              		.cfi_def_cfa_offset 8
  66              		.cfi_offset 4, -8
  67              		.cfi_offset 14, -4
 117:Source\azure_iot_sdk\c-utility\adapters/tlsio_mbedtls.c ****     if (tls_io_instance->on_io_open_complete != NULL)
  68              		.loc 1 117 0
  69 0002 8368     		ldr	r3, [r0, #8]
  70 0004 002B     		cmp	r3, #0
  71 0006 01D0     		beq	.L3
 118:Source\azure_iot_sdk\c-utility\adapters/tlsio_mbedtls.c ****     {
 119:Source\azure_iot_sdk\c-utility\adapters/tlsio_mbedtls.c ****         tls_io_instance->on_io_open_complete(tls_io_instance->on_io_open_complete_context, open_res
  72              		.loc 1 119 0
  73 0008 8069     		ldr	r0, [r0, #24]
  74              	.LVL4:
  75 000a 9847     		blx	r3
  76              	.LVL5:
  77              	.L3:
 120:Source\azure_iot_sdk\c-utility\adapters/tlsio_mbedtls.c ****     }
 121:Source\azure_iot_sdk\c-utility\adapters/tlsio_mbedtls.c **** }
  78              		.loc 1 121 0
  79              		@ sp needed
  80 000c 10BD     		pop	{r4, pc}
  81              		.cfi_endproc
  82              	.LFE19:
  83              		.size	indicate_open_complete, .-indicate_open_complete
  84 000e C046     		.section	.text.on_underlying_io_close_complete_during_close,"ax",%progbits
  85              		.align	2
  86              		.code	16
  87              		.thumb_func
  88              		.type	on_underlying_io_close_complete_during_close, %function
  89              	on_underlying_io_close_complete_during_close:
  90              	.LFB24:
 122:Source\azure_iot_sdk\c-utility\adapters/tlsio_mbedtls.c **** 
 123:Source\azure_iot_sdk\c-utility\adapters/tlsio_mbedtls.c **** static int decode_ssl_received_bytes(TLS_IO_INSTANCE* tls_io_instance)
 124:Source\azure_iot_sdk\c-utility\adapters/tlsio_mbedtls.c **** {
 125:Source\azure_iot_sdk\c-utility\adapters/tlsio_mbedtls.c ****     int result = 0;
 126:Source\azure_iot_sdk\c-utility\adapters/tlsio_mbedtls.c ****     unsigned char buffer[64];
 127:Source\azure_iot_sdk\c-utility\adapters/tlsio_mbedtls.c ****     int rcv_bytes = 1;
 128:Source\azure_iot_sdk\c-utility\adapters/tlsio_mbedtls.c **** 
 129:Source\azure_iot_sdk\c-utility\adapters/tlsio_mbedtls.c ****     while (rcv_bytes > 0)
 130:Source\azure_iot_sdk\c-utility\adapters/tlsio_mbedtls.c ****     {
 131:Source\azure_iot_sdk\c-utility\adapters/tlsio_mbedtls.c ****         rcv_bytes = mbedtls_ssl_read(&tls_io_instance->ssl, buffer, sizeof(buffer));
 132:Source\azure_iot_sdk\c-utility\adapters/tlsio_mbedtls.c ****         if (rcv_bytes > 0)
 133:Source\azure_iot_sdk\c-utility\adapters/tlsio_mbedtls.c ****         {
 134:Source\azure_iot_sdk\c-utility\adapters/tlsio_mbedtls.c ****             if (tls_io_instance->on_bytes_received != NULL)
 135:Source\azure_iot_sdk\c-utility\adapters/tlsio_mbedtls.c ****             {
 136:Source\azure_iot_sdk\c-utility\adapters/tlsio_mbedtls.c ****                 tls_io_instance->on_bytes_received(tls_io_instance->on_bytes_received_context, buff
 137:Source\azure_iot_sdk\c-utility\adapters/tlsio_mbedtls.c ****             }
 138:Source\azure_iot_sdk\c-utility\adapters/tlsio_mbedtls.c ****         }
ARM GAS  C:\Users\Phuong\AppData\Local\Temp\ccP1LXIT.s 			page 5


 139:Source\azure_iot_sdk\c-utility\adapters/tlsio_mbedtls.c ****     }
 140:Source\azure_iot_sdk\c-utility\adapters/tlsio_mbedtls.c **** 
 141:Source\azure_iot_sdk\c-utility\adapters/tlsio_mbedtls.c ****     return result;
 142:Source\azure_iot_sdk\c-utility\adapters/tlsio_mbedtls.c **** }
 143:Source\azure_iot_sdk\c-utility\adapters/tlsio_mbedtls.c **** 
 144:Source\azure_iot_sdk\c-utility\adapters/tlsio_mbedtls.c **** static void on_underlying_io_open_complete(void* context, IO_OPEN_RESULT open_result)
 145:Source\azure_iot_sdk\c-utility\adapters/tlsio_mbedtls.c **** {
 146:Source\azure_iot_sdk\c-utility\adapters/tlsio_mbedtls.c ****     if (context == NULL)
 147:Source\azure_iot_sdk\c-utility\adapters/tlsio_mbedtls.c ****     {
 148:Source\azure_iot_sdk\c-utility\adapters/tlsio_mbedtls.c ****         LogError("Invalid context NULL value passed");
 149:Source\azure_iot_sdk\c-utility\adapters/tlsio_mbedtls.c ****     }
 150:Source\azure_iot_sdk\c-utility\adapters/tlsio_mbedtls.c ****     else
 151:Source\azure_iot_sdk\c-utility\adapters/tlsio_mbedtls.c ****     {
 152:Source\azure_iot_sdk\c-utility\adapters/tlsio_mbedtls.c ****         TLS_IO_INSTANCE* tls_io_instance = (TLS_IO_INSTANCE*)context;
 153:Source\azure_iot_sdk\c-utility\adapters/tlsio_mbedtls.c ****         int result = 0;
 154:Source\azure_iot_sdk\c-utility\adapters/tlsio_mbedtls.c **** 
 155:Source\azure_iot_sdk\c-utility\adapters/tlsio_mbedtls.c ****         if (open_result != IO_OPEN_OK)
 156:Source\azure_iot_sdk\c-utility\adapters/tlsio_mbedtls.c ****         {
 157:Source\azure_iot_sdk\c-utility\adapters/tlsio_mbedtls.c ****             tls_io_instance->tlsio_state = TLSIO_STATE_NOT_OPEN;
 158:Source\azure_iot_sdk\c-utility\adapters/tlsio_mbedtls.c ****             indicate_open_complete(tls_io_instance, IO_OPEN_ERROR);
 159:Source\azure_iot_sdk\c-utility\adapters/tlsio_mbedtls.c ****         }
 160:Source\azure_iot_sdk\c-utility\adapters/tlsio_mbedtls.c ****         else
 161:Source\azure_iot_sdk\c-utility\adapters/tlsio_mbedtls.c ****         {
 162:Source\azure_iot_sdk\c-utility\adapters/tlsio_mbedtls.c ****             tls_io_instance->tlsio_state = TLSIO_STATE_IN_HANDSHAKE;
 163:Source\azure_iot_sdk\c-utility\adapters/tlsio_mbedtls.c **** 
 164:Source\azure_iot_sdk\c-utility\adapters/tlsio_mbedtls.c ****             do {
 165:Source\azure_iot_sdk\c-utility\adapters/tlsio_mbedtls.c ****                 result = mbedtls_ssl_handshake(&tls_io_instance->ssl);
 166:Source\azure_iot_sdk\c-utility\adapters/tlsio_mbedtls.c ****             } while (result == MBEDTLS_ERR_SSL_WANT_READ || result == MBEDTLS_ERR_SSL_WANT_WRITE);
 167:Source\azure_iot_sdk\c-utility\adapters/tlsio_mbedtls.c **** 
 168:Source\azure_iot_sdk\c-utility\adapters/tlsio_mbedtls.c ****             if (result == 0)
 169:Source\azure_iot_sdk\c-utility\adapters/tlsio_mbedtls.c ****             {
 170:Source\azure_iot_sdk\c-utility\adapters/tlsio_mbedtls.c ****                 tls_io_instance->tlsio_state = TLSIO_STATE_OPEN;
 171:Source\azure_iot_sdk\c-utility\adapters/tlsio_mbedtls.c ****                 indicate_open_complete(tls_io_instance, IO_OPEN_OK);
 172:Source\azure_iot_sdk\c-utility\adapters/tlsio_mbedtls.c ****             }
 173:Source\azure_iot_sdk\c-utility\adapters/tlsio_mbedtls.c ****             else
 174:Source\azure_iot_sdk\c-utility\adapters/tlsio_mbedtls.c ****             {
 175:Source\azure_iot_sdk\c-utility\adapters/tlsio_mbedtls.c ****                 tls_io_instance->tlsio_state = TLSIO_STATE_NOT_OPEN;
 176:Source\azure_iot_sdk\c-utility\adapters/tlsio_mbedtls.c ****                 indicate_open_complete(tls_io_instance, IO_OPEN_ERROR);
 177:Source\azure_iot_sdk\c-utility\adapters/tlsio_mbedtls.c ****             }
 178:Source\azure_iot_sdk\c-utility\adapters/tlsio_mbedtls.c ****         }
 179:Source\azure_iot_sdk\c-utility\adapters/tlsio_mbedtls.c ****     }
 180:Source\azure_iot_sdk\c-utility\adapters/tlsio_mbedtls.c **** }
 181:Source\azure_iot_sdk\c-utility\adapters/tlsio_mbedtls.c **** 
 182:Source\azure_iot_sdk\c-utility\adapters/tlsio_mbedtls.c **** static void on_underlying_io_bytes_received(void* context, const unsigned char* buffer, size_t size
 183:Source\azure_iot_sdk\c-utility\adapters/tlsio_mbedtls.c **** {
 184:Source\azure_iot_sdk\c-utility\adapters/tlsio_mbedtls.c ****     if (context != NULL)
 185:Source\azure_iot_sdk\c-utility\adapters/tlsio_mbedtls.c ****     {
 186:Source\azure_iot_sdk\c-utility\adapters/tlsio_mbedtls.c ****         TLS_IO_INSTANCE* tls_io_instance = (TLS_IO_INSTANCE*)context;
 187:Source\azure_iot_sdk\c-utility\adapters/tlsio_mbedtls.c **** 
 188:Source\azure_iot_sdk\c-utility\adapters/tlsio_mbedtls.c ****         unsigned char* new_socket_io_read_bytes = (unsigned char*)realloc(tls_io_instance->socket_i
 189:Source\azure_iot_sdk\c-utility\adapters/tlsio_mbedtls.c ****         if (new_socket_io_read_bytes == NULL)
 190:Source\azure_iot_sdk\c-utility\adapters/tlsio_mbedtls.c ****         {
 191:Source\azure_iot_sdk\c-utility\adapters/tlsio_mbedtls.c ****             tls_io_instance->tlsio_state = TLSIO_STATE_ERROR;
 192:Source\azure_iot_sdk\c-utility\adapters/tlsio_mbedtls.c ****             indicate_error(tls_io_instance);
 193:Source\azure_iot_sdk\c-utility\adapters/tlsio_mbedtls.c ****         }
 194:Source\azure_iot_sdk\c-utility\adapters/tlsio_mbedtls.c ****         else
 195:Source\azure_iot_sdk\c-utility\adapters/tlsio_mbedtls.c ****         {
ARM GAS  C:\Users\Phuong\AppData\Local\Temp\ccP1LXIT.s 			page 6


 196:Source\azure_iot_sdk\c-utility\adapters/tlsio_mbedtls.c ****             tls_io_instance->socket_io_read_bytes = new_socket_io_read_bytes;
 197:Source\azure_iot_sdk\c-utility\adapters/tlsio_mbedtls.c ****             (void)memcpy(tls_io_instance->socket_io_read_bytes + tls_io_instance->socket_io_read_by
 198:Source\azure_iot_sdk\c-utility\adapters/tlsio_mbedtls.c ****             tls_io_instance->socket_io_read_byte_count += size;
 199:Source\azure_iot_sdk\c-utility\adapters/tlsio_mbedtls.c ****         }
 200:Source\azure_iot_sdk\c-utility\adapters/tlsio_mbedtls.c ****     }
 201:Source\azure_iot_sdk\c-utility\adapters/tlsio_mbedtls.c ****     else
 202:Source\azure_iot_sdk\c-utility\adapters/tlsio_mbedtls.c ****     {
 203:Source\azure_iot_sdk\c-utility\adapters/tlsio_mbedtls.c ****         LogError("NULL value passed in context");
 204:Source\azure_iot_sdk\c-utility\adapters/tlsio_mbedtls.c ****     }
 205:Source\azure_iot_sdk\c-utility\adapters/tlsio_mbedtls.c **** }
 206:Source\azure_iot_sdk\c-utility\adapters/tlsio_mbedtls.c **** 
 207:Source\azure_iot_sdk\c-utility\adapters/tlsio_mbedtls.c **** static void on_underlying_io_error(void* context)
 208:Source\azure_iot_sdk\c-utility\adapters/tlsio_mbedtls.c **** {
 209:Source\azure_iot_sdk\c-utility\adapters/tlsio_mbedtls.c ****     if (context == NULL)
 210:Source\azure_iot_sdk\c-utility\adapters/tlsio_mbedtls.c ****     {
 211:Source\azure_iot_sdk\c-utility\adapters/tlsio_mbedtls.c ****         LogError("Invalid context NULL value passed");
 212:Source\azure_iot_sdk\c-utility\adapters/tlsio_mbedtls.c ****     }
 213:Source\azure_iot_sdk\c-utility\adapters/tlsio_mbedtls.c ****     else
 214:Source\azure_iot_sdk\c-utility\adapters/tlsio_mbedtls.c ****     {
 215:Source\azure_iot_sdk\c-utility\adapters/tlsio_mbedtls.c ****         TLS_IO_INSTANCE* tls_io_instance = (TLS_IO_INSTANCE*)context;
 216:Source\azure_iot_sdk\c-utility\adapters/tlsio_mbedtls.c ****         switch (tls_io_instance->tlsio_state)
 217:Source\azure_iot_sdk\c-utility\adapters/tlsio_mbedtls.c ****         {
 218:Source\azure_iot_sdk\c-utility\adapters/tlsio_mbedtls.c ****             default:
 219:Source\azure_iot_sdk\c-utility\adapters/tlsio_mbedtls.c ****             case TLSIO_STATE_NOT_OPEN:
 220:Source\azure_iot_sdk\c-utility\adapters/tlsio_mbedtls.c ****             case TLSIO_STATE_ERROR:
 221:Source\azure_iot_sdk\c-utility\adapters/tlsio_mbedtls.c ****                 break;
 222:Source\azure_iot_sdk\c-utility\adapters/tlsio_mbedtls.c **** 
 223:Source\azure_iot_sdk\c-utility\adapters/tlsio_mbedtls.c ****             case TLSIO_STATE_OPENING_UNDERLYING_IO:
 224:Source\azure_iot_sdk\c-utility\adapters/tlsio_mbedtls.c ****             case TLSIO_STATE_IN_HANDSHAKE:
 225:Source\azure_iot_sdk\c-utility\adapters/tlsio_mbedtls.c ****                 // Existing socket impls are all synchronous close, and this
 226:Source\azure_iot_sdk\c-utility\adapters/tlsio_mbedtls.c ****                 // adapter does not yet support async close.
 227:Source\azure_iot_sdk\c-utility\adapters/tlsio_mbedtls.c ****                 xio_close(tls_io_instance->socket_io, NULL, NULL);
 228:Source\azure_iot_sdk\c-utility\adapters/tlsio_mbedtls.c ****                 tls_io_instance->tlsio_state = TLSIO_STATE_NOT_OPEN;
 229:Source\azure_iot_sdk\c-utility\adapters/tlsio_mbedtls.c ****                 indicate_open_complete(tls_io_instance, IO_OPEN_ERROR);
 230:Source\azure_iot_sdk\c-utility\adapters/tlsio_mbedtls.c ****                 break;
 231:Source\azure_iot_sdk\c-utility\adapters/tlsio_mbedtls.c **** 
 232:Source\azure_iot_sdk\c-utility\adapters/tlsio_mbedtls.c ****             case TLSIO_STATE_OPEN:
 233:Source\azure_iot_sdk\c-utility\adapters/tlsio_mbedtls.c ****                 tls_io_instance->tlsio_state = TLSIO_STATE_ERROR;
 234:Source\azure_iot_sdk\c-utility\adapters/tlsio_mbedtls.c ****                 indicate_error(tls_io_instance);
 235:Source\azure_iot_sdk\c-utility\adapters/tlsio_mbedtls.c ****                 break;
 236:Source\azure_iot_sdk\c-utility\adapters/tlsio_mbedtls.c ****         }
 237:Source\azure_iot_sdk\c-utility\adapters/tlsio_mbedtls.c ****     }
 238:Source\azure_iot_sdk\c-utility\adapters/tlsio_mbedtls.c **** }
 239:Source\azure_iot_sdk\c-utility\adapters/tlsio_mbedtls.c **** 
 240:Source\azure_iot_sdk\c-utility\adapters/tlsio_mbedtls.c **** static void on_underlying_io_close_complete_during_close(void* context)
 241:Source\azure_iot_sdk\c-utility\adapters/tlsio_mbedtls.c **** {
  91              		.loc 1 241 0
  92              		.cfi_startproc
  93              		@ args = 0, pretend = 0, frame = 0
  94              		@ frame_needed = 0, uses_anonymous_args = 0
  95              	.LVL6:
  96 0000 10B5     		push	{r4, lr}
  97              		.cfi_def_cfa_offset 8
  98              		.cfi_offset 4, -8
  99              		.cfi_offset 14, -4
 100 0002 82B0     		sub	sp, sp, #8
 101              		.cfi_def_cfa_offset 16
ARM GAS  C:\Users\Phuong\AppData\Local\Temp\ccP1LXIT.s 			page 7


 242:Source\azure_iot_sdk\c-utility\adapters/tlsio_mbedtls.c ****     if (context == NULL)
 102              		.loc 1 242 0
 103 0004 0028     		cmp	r0, #0
 104 0006 0DD1     		bne	.L6
 105              	.LBB2:
 243:Source\azure_iot_sdk\c-utility\adapters/tlsio_mbedtls.c ****     {
 244:Source\azure_iot_sdk\c-utility\adapters/tlsio_mbedtls.c ****         LogError("Invalid context NULL value passed");
 106              		.loc 1 244 0 discriminator 3
 107 0008 FFF7FEFF 		bl	xlogging_get_log_function
 108              	.LVL7:
 109 000c 041E     		subs	r4, r0, #0
 110              	.LVL8:
 111 000e 11D0     		beq	.L5
 112              		.loc 1 244 0 is_stmt 0 discriminator 4
 113 0010 094B     		ldr	r3, .L8
 114 0012 0193     		str	r3, [sp, #4]
 115 0014 0123     		movs	r3, #1
 116 0016 0093     		str	r3, [sp]
 117 0018 F333     		adds	r3, r3, #243
 118 001a 084A     		ldr	r2, .L8+4
 119 001c 0849     		ldr	r1, .L8+8
 120 001e 0020     		movs	r0, #0
 121              	.LVL9:
 122 0020 A047     		blx	r4
 123              	.LVL10:
 124 0022 07E0     		b	.L5
 125              	.LVL11:
 126              	.L6:
 127              	.LBE2:
 128              	.LBB3:
 245:Source\azure_iot_sdk\c-utility\adapters/tlsio_mbedtls.c ****     }
 246:Source\azure_iot_sdk\c-utility\adapters/tlsio_mbedtls.c ****     else
 247:Source\azure_iot_sdk\c-utility\adapters/tlsio_mbedtls.c ****     {
 248:Source\azure_iot_sdk\c-utility\adapters/tlsio_mbedtls.c ****         TLS_IO_INSTANCE* tls_io_instance = (TLS_IO_INSTANCE*)context;
 249:Source\azure_iot_sdk\c-utility\adapters/tlsio_mbedtls.c ****         tls_io_instance->tlsio_state = TLSIO_STATE_NOT_OPEN;
 129              		.loc 1 249 0 is_stmt 1
 130 0024 0022     		movs	r2, #0
 131 0026 2423     		movs	r3, #36
 132 0028 C254     		strb	r2, [r0, r3]
 250:Source\azure_iot_sdk\c-utility\adapters/tlsio_mbedtls.c ****         if (tls_io_instance->on_io_close_complete != NULL)
 133              		.loc 1 250 0
 134 002a C368     		ldr	r3, [r0, #12]
 135 002c 002B     		cmp	r3, #0
 136 002e 01D0     		beq	.L5
 251:Source\azure_iot_sdk\c-utility\adapters/tlsio_mbedtls.c ****         {
 252:Source\azure_iot_sdk\c-utility\adapters/tlsio_mbedtls.c ****             tls_io_instance->on_io_close_complete(tls_io_instance->on_io_close_complete_context);
 137              		.loc 1 252 0
 138 0030 C069     		ldr	r0, [r0, #28]
 139              	.LVL12:
 140 0032 9847     		blx	r3
 141              	.LVL13:
 142              	.L5:
 143              	.LBE3:
 253:Source\azure_iot_sdk\c-utility\adapters/tlsio_mbedtls.c ****         }
 254:Source\azure_iot_sdk\c-utility\adapters/tlsio_mbedtls.c ****     }
 255:Source\azure_iot_sdk\c-utility\adapters/tlsio_mbedtls.c **** }
 144              		.loc 1 255 0
ARM GAS  C:\Users\Phuong\AppData\Local\Temp\ccP1LXIT.s 			page 8


 145 0034 02B0     		add	sp, sp, #8
 146              		@ sp needed
 147 0036 10BD     		pop	{r4, pc}
 148              	.L9:
 149              		.align	2
 150              	.L8:
 151 0038 38000000 		.word	.LC3
 152 003c 00000000 		.word	.LANCHOR0
 153 0040 00000000 		.word	.LC1
 154              		.cfi_endproc
 155              	.LFE24:
 156              		.size	on_underlying_io_close_complete_during_close, .-on_underlying_io_close_complete_during_close
 157              		.section	.text.mbedtls_init,"ax",%progbits
 158              		.align	2
 159              		.code	16
 160              		.thumb_func
 161              		.type	mbedtls_init, %function
 162              	mbedtls_init:
 163              	.LFB28:
 256:Source\azure_iot_sdk\c-utility\adapters/tlsio_mbedtls.c **** 
 257:Source\azure_iot_sdk\c-utility\adapters/tlsio_mbedtls.c **** static int on_io_recv(void *context, unsigned char *buf, size_t sz)
 258:Source\azure_iot_sdk\c-utility\adapters/tlsio_mbedtls.c **** {
 259:Source\azure_iot_sdk\c-utility\adapters/tlsio_mbedtls.c ****     int result;
 260:Source\azure_iot_sdk\c-utility\adapters/tlsio_mbedtls.c ****     if (context == NULL)
 261:Source\azure_iot_sdk\c-utility\adapters/tlsio_mbedtls.c ****     {
 262:Source\azure_iot_sdk\c-utility\adapters/tlsio_mbedtls.c ****         LogError("Invalid context NULL value passed");
 263:Source\azure_iot_sdk\c-utility\adapters/tlsio_mbedtls.c ****         result = MBEDTLS_ERR_SSL_BAD_INPUT_DATA;
 264:Source\azure_iot_sdk\c-utility\adapters/tlsio_mbedtls.c ****     }
 265:Source\azure_iot_sdk\c-utility\adapters/tlsio_mbedtls.c ****     else
 266:Source\azure_iot_sdk\c-utility\adapters/tlsio_mbedtls.c ****     {
 267:Source\azure_iot_sdk\c-utility\adapters/tlsio_mbedtls.c ****         TLS_IO_INSTANCE* tls_io_instance = (TLS_IO_INSTANCE*)context;
 268:Source\azure_iot_sdk\c-utility\adapters/tlsio_mbedtls.c ****         unsigned char* new_socket_io_read_bytes;
 269:Source\azure_iot_sdk\c-utility\adapters/tlsio_mbedtls.c ****         size_t socket_reads = 0;
 270:Source\azure_iot_sdk\c-utility\adapters/tlsio_mbedtls.c **** 
 271:Source\azure_iot_sdk\c-utility\adapters/tlsio_mbedtls.c ****         // Read until we have data or until we've hit the read limit
 272:Source\azure_iot_sdk\c-utility\adapters/tlsio_mbedtls.c ****         while (tls_io_instance->socket_io_read_byte_count == 0 && socket_reads < SOCKET_READ_LIMIT)
 273:Source\azure_iot_sdk\c-utility\adapters/tlsio_mbedtls.c ****         {
 274:Source\azure_iot_sdk\c-utility\adapters/tlsio_mbedtls.c ****             xio_dowork(tls_io_instance->socket_io);
 275:Source\azure_iot_sdk\c-utility\adapters/tlsio_mbedtls.c ****             if (tls_io_instance->tlsio_state == TLSIO_STATE_OPEN)
 276:Source\azure_iot_sdk\c-utility\adapters/tlsio_mbedtls.c ****             {
 277:Source\azure_iot_sdk\c-utility\adapters/tlsio_mbedtls.c ****                 break;
 278:Source\azure_iot_sdk\c-utility\adapters/tlsio_mbedtls.c ****             }
 279:Source\azure_iot_sdk\c-utility\adapters/tlsio_mbedtls.c ****             // Control the reads so we don't get blocked by
 280:Source\azure_iot_sdk\c-utility\adapters/tlsio_mbedtls.c ****             // a bug in the lower layer
 281:Source\azure_iot_sdk\c-utility\adapters/tlsio_mbedtls.c ****             socket_reads++;
 282:Source\azure_iot_sdk\c-utility\adapters/tlsio_mbedtls.c ****         }
 283:Source\azure_iot_sdk\c-utility\adapters/tlsio_mbedtls.c **** 
 284:Source\azure_iot_sdk\c-utility\adapters/tlsio_mbedtls.c ****         size_t bytes_cnt = tls_io_instance->socket_io_read_byte_count;
 285:Source\azure_iot_sdk\c-utility\adapters/tlsio_mbedtls.c ****         if (bytes_cnt > sz)
 286:Source\azure_iot_sdk\c-utility\adapters/tlsio_mbedtls.c ****         {
 287:Source\azure_iot_sdk\c-utility\adapters/tlsio_mbedtls.c ****             bytes_cnt = sz;
 288:Source\azure_iot_sdk\c-utility\adapters/tlsio_mbedtls.c ****         }
 289:Source\azure_iot_sdk\c-utility\adapters/tlsio_mbedtls.c **** 
 290:Source\azure_iot_sdk\c-utility\adapters/tlsio_mbedtls.c ****         if (bytes_cnt > 0)
 291:Source\azure_iot_sdk\c-utility\adapters/tlsio_mbedtls.c ****         {
 292:Source\azure_iot_sdk\c-utility\adapters/tlsio_mbedtls.c ****             (void)memcpy((void *)buf, tls_io_instance->socket_io_read_bytes, bytes_cnt);
 293:Source\azure_iot_sdk\c-utility\adapters/tlsio_mbedtls.c ****             (void)memmove(tls_io_instance->socket_io_read_bytes, tls_io_instance->socket_io_read_by
ARM GAS  C:\Users\Phuong\AppData\Local\Temp\ccP1LXIT.s 			page 9


 294:Source\azure_iot_sdk\c-utility\adapters/tlsio_mbedtls.c ****             tls_io_instance->socket_io_read_byte_count -= bytes_cnt;
 295:Source\azure_iot_sdk\c-utility\adapters/tlsio_mbedtls.c ****             if (tls_io_instance->socket_io_read_byte_count > 0)
 296:Source\azure_iot_sdk\c-utility\adapters/tlsio_mbedtls.c ****             {
 297:Source\azure_iot_sdk\c-utility\adapters/tlsio_mbedtls.c ****                 new_socket_io_read_bytes = (unsigned char*)realloc(tls_io_instance->socket_io_read_
 298:Source\azure_iot_sdk\c-utility\adapters/tlsio_mbedtls.c ****                 if (new_socket_io_read_bytes != NULL)
 299:Source\azure_iot_sdk\c-utility\adapters/tlsio_mbedtls.c ****                 {
 300:Source\azure_iot_sdk\c-utility\adapters/tlsio_mbedtls.c ****                     tls_io_instance->socket_io_read_bytes = new_socket_io_read_bytes;
 301:Source\azure_iot_sdk\c-utility\adapters/tlsio_mbedtls.c ****                 }
 302:Source\azure_iot_sdk\c-utility\adapters/tlsio_mbedtls.c ****             }
 303:Source\azure_iot_sdk\c-utility\adapters/tlsio_mbedtls.c ****             else
 304:Source\azure_iot_sdk\c-utility\adapters/tlsio_mbedtls.c ****             {
 305:Source\azure_iot_sdk\c-utility\adapters/tlsio_mbedtls.c ****                 free(tls_io_instance->socket_io_read_bytes);
 306:Source\azure_iot_sdk\c-utility\adapters/tlsio_mbedtls.c ****                 tls_io_instance->socket_io_read_bytes = NULL;
 307:Source\azure_iot_sdk\c-utility\adapters/tlsio_mbedtls.c ****             }
 308:Source\azure_iot_sdk\c-utility\adapters/tlsio_mbedtls.c ****         }
 309:Source\azure_iot_sdk\c-utility\adapters/tlsio_mbedtls.c **** 
 310:Source\azure_iot_sdk\c-utility\adapters/tlsio_mbedtls.c ****         if ((bytes_cnt == 0) && (tls_io_instance->tlsio_state == TLSIO_STATE_OPEN))
 311:Source\azure_iot_sdk\c-utility\adapters/tlsio_mbedtls.c ****         {
 312:Source\azure_iot_sdk\c-utility\adapters/tlsio_mbedtls.c ****             result = MBEDTLS_ERR_SSL_WANT_READ;
 313:Source\azure_iot_sdk\c-utility\adapters/tlsio_mbedtls.c ****         }
 314:Source\azure_iot_sdk\c-utility\adapters/tlsio_mbedtls.c ****         else
 315:Source\azure_iot_sdk\c-utility\adapters/tlsio_mbedtls.c ****         {
 316:Source\azure_iot_sdk\c-utility\adapters/tlsio_mbedtls.c ****             result = (int)bytes_cnt;
 317:Source\azure_iot_sdk\c-utility\adapters/tlsio_mbedtls.c ****         }
 318:Source\azure_iot_sdk\c-utility\adapters/tlsio_mbedtls.c ****     }
 319:Source\azure_iot_sdk\c-utility\adapters/tlsio_mbedtls.c ****     return result;
 320:Source\azure_iot_sdk\c-utility\adapters/tlsio_mbedtls.c **** }
 321:Source\azure_iot_sdk\c-utility\adapters/tlsio_mbedtls.c **** 
 322:Source\azure_iot_sdk\c-utility\adapters/tlsio_mbedtls.c **** static int on_io_send(void *context, const unsigned char *buf, size_t sz)
 323:Source\azure_iot_sdk\c-utility\adapters/tlsio_mbedtls.c **** {
 324:Source\azure_iot_sdk\c-utility\adapters/tlsio_mbedtls.c ****     int result;
 325:Source\azure_iot_sdk\c-utility\adapters/tlsio_mbedtls.c ****     if (context == NULL)
 326:Source\azure_iot_sdk\c-utility\adapters/tlsio_mbedtls.c ****     {
 327:Source\azure_iot_sdk\c-utility\adapters/tlsio_mbedtls.c ****         LogError("Invalid context NULL value passed");
 328:Source\azure_iot_sdk\c-utility\adapters/tlsio_mbedtls.c ****         result = 0;
 329:Source\azure_iot_sdk\c-utility\adapters/tlsio_mbedtls.c ****     }
 330:Source\azure_iot_sdk\c-utility\adapters/tlsio_mbedtls.c ****     else
 331:Source\azure_iot_sdk\c-utility\adapters/tlsio_mbedtls.c ****     {
 332:Source\azure_iot_sdk\c-utility\adapters/tlsio_mbedtls.c ****         TLS_IO_INSTANCE* tls_io_instance = (TLS_IO_INSTANCE*)context;
 333:Source\azure_iot_sdk\c-utility\adapters/tlsio_mbedtls.c ****         if (xio_send(tls_io_instance->socket_io, buf, sz, tls_io_instance->on_send_complete, tls_io
 334:Source\azure_iot_sdk\c-utility\adapters/tlsio_mbedtls.c ****         {
 335:Source\azure_iot_sdk\c-utility\adapters/tlsio_mbedtls.c ****             tls_io_instance->tlsio_state = TLSIO_STATE_ERROR;
 336:Source\azure_iot_sdk\c-utility\adapters/tlsio_mbedtls.c ****             indicate_error(tls_io_instance);
 337:Source\azure_iot_sdk\c-utility\adapters/tlsio_mbedtls.c ****             result = 0;
 338:Source\azure_iot_sdk\c-utility\adapters/tlsio_mbedtls.c ****         }
 339:Source\azure_iot_sdk\c-utility\adapters/tlsio_mbedtls.c ****         else
 340:Source\azure_iot_sdk\c-utility\adapters/tlsio_mbedtls.c ****         {
 341:Source\azure_iot_sdk\c-utility\adapters/tlsio_mbedtls.c ****             result = sz;
 342:Source\azure_iot_sdk\c-utility\adapters/tlsio_mbedtls.c ****         }
 343:Source\azure_iot_sdk\c-utility\adapters/tlsio_mbedtls.c ****     }
 344:Source\azure_iot_sdk\c-utility\adapters/tlsio_mbedtls.c ****     return result;
 345:Source\azure_iot_sdk\c-utility\adapters/tlsio_mbedtls.c **** }
 346:Source\azure_iot_sdk\c-utility\adapters/tlsio_mbedtls.c **** 
 347:Source\azure_iot_sdk\c-utility\adapters/tlsio_mbedtls.c **** static int tlsio_entropy_poll(void* v, unsigned char* output, size_t len, size_t* olen)
 348:Source\azure_iot_sdk\c-utility\adapters/tlsio_mbedtls.c **** {
 349:Source\azure_iot_sdk\c-utility\adapters/tlsio_mbedtls.c ****     (void)v;
 350:Source\azure_iot_sdk\c-utility\adapters/tlsio_mbedtls.c ****     int result = 0;
ARM GAS  C:\Users\Phuong\AppData\Local\Temp\ccP1LXIT.s 			page 10


 351:Source\azure_iot_sdk\c-utility\adapters/tlsio_mbedtls.c ****     srand((unsigned int)time(NULL));
 352:Source\azure_iot_sdk\c-utility\adapters/tlsio_mbedtls.c ****     for (uint16_t i = 0; i < len; i++) {
 353:Source\azure_iot_sdk\c-utility\adapters/tlsio_mbedtls.c ****         output[i] = rand() % 256;
 354:Source\azure_iot_sdk\c-utility\adapters/tlsio_mbedtls.c ****     }
 355:Source\azure_iot_sdk\c-utility\adapters/tlsio_mbedtls.c ****     *olen = len;
 356:Source\azure_iot_sdk\c-utility\adapters/tlsio_mbedtls.c ****     return result;
 357:Source\azure_iot_sdk\c-utility\adapters/tlsio_mbedtls.c **** }
 358:Source\azure_iot_sdk\c-utility\adapters/tlsio_mbedtls.c **** 
 359:Source\azure_iot_sdk\c-utility\adapters/tlsio_mbedtls.c **** static void mbedtls_init(TLS_IO_INSTANCE* instance, const char *host)
 360:Source\azure_iot_sdk\c-utility\adapters/tlsio_mbedtls.c **** {
 164              		.loc 1 360 0
 165              		.cfi_startproc
 166              		@ args = 0, pretend = 0, frame = 16
 167              		@ frame_needed = 0, uses_anonymous_args = 0
 168              	.LVL14:
 169 0000 F0B5     		push	{r4, r5, r6, r7, lr}
 170              		.cfi_def_cfa_offset 20
 171              		.cfi_offset 4, -20
 172              		.cfi_offset 5, -16
 173              		.cfi_offset 6, -12
 174              		.cfi_offset 7, -8
 175              		.cfi_offset 14, -4
 176 0002 87B0     		sub	sp, sp, #28
 177              		.cfi_def_cfa_offset 48
 178 0004 0600     		movs	r6, r0
 179 0006 0591     		str	r1, [sp, #20]
 180              	.LVL15:
 361:Source\azure_iot_sdk\c-utility\adapters/tlsio_mbedtls.c ****     const char *pers = "azure_iot_client";
 362:Source\azure_iot_sdk\c-utility\adapters/tlsio_mbedtls.c **** 
 363:Source\azure_iot_sdk\c-utility\adapters/tlsio_mbedtls.c ****     // mbedTLS initialize...
 364:Source\azure_iot_sdk\c-utility\adapters/tlsio_mbedtls.c ****     mbedtls_entropy_init(&instance->entropy);
 181              		.loc 1 364 0
 182 0008 3823     		movs	r3, #56
 183 000a 9C46     		mov	ip, r3
 184 000c 8444     		add	ip, ip, r0
 185 000e 6346     		mov	r3, ip
 186 0010 0293     		str	r3, [sp, #8]
 187 0012 6046     		mov	r0, ip
 188              	.LVL16:
 189 0014 FFF7FEFF 		bl	mbedtls_entropy_init
 190              	.LVL17:
 365:Source\azure_iot_sdk\c-utility\adapters/tlsio_mbedtls.c ****     mbedtls_ctr_drbg_init(&instance->ctr_drbg);
 191              		.loc 1 365 0
 192 0018 AC22     		movs	r2, #172
 193 001a 9200     		lsls	r2, r2, #2
 194 001c 9446     		mov	ip, r2
 195 001e B444     		add	ip, ip, r6
 196 0020 6246     		mov	r2, ip
 197 0022 0392     		str	r2, [sp, #12]
 198 0024 6046     		mov	r0, ip
 199 0026 FFF7FEFF 		bl	mbedtls_ctr_drbg_init
 200              	.LVL18:
 366:Source\azure_iot_sdk\c-utility\adapters/tlsio_mbedtls.c ****     mbedtls_ssl_init(&instance->ssl);
 201              		.loc 1 366 0
 202 002a FC20     		movs	r0, #252
 203 002c 8000     		lsls	r0, r0, #2
 204 002e 3518     		adds	r5, r6, r0
ARM GAS  C:\Users\Phuong\AppData\Local\Temp\ccP1LXIT.s 			page 11


 205 0030 2800     		movs	r0, r5
 206 0032 FFF7FEFF 		bl	mbedtls_ssl_init
 207              	.LVL19:
 367:Source\azure_iot_sdk\c-utility\adapters/tlsio_mbedtls.c ****     mbedtls_ssl_session_init(&instance->ssn);
 208              		.loc 1 367 0
 209 0036 2548     		ldr	r0, .L11
 210 0038 8446     		mov	ip, r0
 211 003a B444     		add	ip, ip, r6
 212 003c 6046     		mov	r0, ip
 213 003e 0490     		str	r0, [sp, #16]
 214 0040 FFF7FEFF 		bl	mbedtls_ssl_session_init
 215              	.LVL20:
 368:Source\azure_iot_sdk\c-utility\adapters/tlsio_mbedtls.c ****     mbedtls_ssl_config_init(&instance->config);
 216              		.loc 1 368 0
 217 0044 A124     		movs	r4, #161
 218 0046 E400     		lsls	r4, r4, #3
 219 0048 3419     		adds	r4, r6, r4
 220 004a 2000     		movs	r0, r4
 221 004c FFF7FEFF 		bl	mbedtls_ssl_config_init
 222              	.LVL21:
 369:Source\azure_iot_sdk\c-utility\adapters/tlsio_mbedtls.c ****     mbedtls_x509_crt_init(&instance->trusted_certificates_parsed);
 223              		.loc 1 369 0
 224 0050 BB27     		movs	r7, #187
 225 0052 FF00     		lsls	r7, r7, #3
 226 0054 F019     		adds	r0, r6, r7
 227 0056 FFF7FEFF 		bl	mbedtls_x509_crt_init
 228              	.LVL22:
 370:Source\azure_iot_sdk\c-utility\adapters/tlsio_mbedtls.c ****     mbedtls_entropy_add_source(&instance->entropy, tlsio_entropy_poll, NULL, 128, 0);
 229              		.loc 1 370 0
 230 005a 0027     		movs	r7, #0
 231 005c 0097     		str	r7, [sp]
 232 005e 8023     		movs	r3, #128
 233 0060 0022     		movs	r2, #0
 234 0062 1B49     		ldr	r1, .L11+4
 235 0064 0298     		ldr	r0, [sp, #8]
 236 0066 FFF7FEFF 		bl	mbedtls_entropy_add_source
 237              	.LVL23:
 371:Source\azure_iot_sdk\c-utility\adapters/tlsio_mbedtls.c ****     mbedtls_ctr_drbg_seed(&instance->ctr_drbg, mbedtls_entropy_func, &instance->entropy, (const uns
 238              		.loc 1 371 0
 239 006a 1023     		movs	r3, #16
 240 006c 0093     		str	r3, [sp]
 241 006e 194B     		ldr	r3, .L11+8
 242 0070 029A     		ldr	r2, [sp, #8]
 243 0072 1949     		ldr	r1, .L11+12
 244 0074 0398     		ldr	r0, [sp, #12]
 245 0076 FFF7FEFF 		bl	mbedtls_ctr_drbg_seed
 246              	.LVL24:
 372:Source\azure_iot_sdk\c-utility\adapters/tlsio_mbedtls.c ****     mbedtls_ssl_config_defaults(&instance->config, MBEDTLS_SSL_IS_CLIENT, MBEDTLS_SSL_TRANSPORT_STR
 247              		.loc 1 372 0
 248 007a 0023     		movs	r3, #0
 249 007c 0022     		movs	r2, #0
 250 007e 0021     		movs	r1, #0
 251 0080 2000     		movs	r0, r4
 252 0082 FFF7FEFF 		bl	mbedtls_ssl_config_defaults
 253              	.LVL25:
 373:Source\azure_iot_sdk\c-utility\adapters/tlsio_mbedtls.c ****     mbedtls_ssl_conf_rng(&instance->config, mbedtls_ctr_drbg_random, &instance->ctr_drbg);
 254              		.loc 1 373 0
ARM GAS  C:\Users\Phuong\AppData\Local\Temp\ccP1LXIT.s 			page 12


 255 0086 039A     		ldr	r2, [sp, #12]
 256 0088 1449     		ldr	r1, .L11+16
 257 008a 2000     		movs	r0, r4
 258 008c FFF7FEFF 		bl	mbedtls_ssl_conf_rng
 259              	.LVL26:
 374:Source\azure_iot_sdk\c-utility\adapters/tlsio_mbedtls.c ****     mbedtls_ssl_conf_authmode(&instance->config, MBEDTLS_SSL_VERIFY_REQUIRED);
 260              		.loc 1 374 0
 261 0090 0221     		movs	r1, #2
 262 0092 2000     		movs	r0, r4
 263 0094 FFF7FEFF 		bl	mbedtls_ssl_conf_authmode
 264              	.LVL27:
 375:Source\azure_iot_sdk\c-utility\adapters/tlsio_mbedtls.c ****     mbedtls_ssl_conf_min_version(&instance->config, MBEDTLS_SSL_MAJOR_VERSION_3, MBEDTLS_SSL_MINOR_
 265              		.loc 1 375 0
 266 0098 0322     		movs	r2, #3
 267 009a 0321     		movs	r1, #3
 268 009c 2000     		movs	r0, r4
 269 009e FFF7FEFF 		bl	mbedtls_ssl_conf_min_version
 270              	.LVL28:
 376:Source\azure_iot_sdk\c-utility\adapters/tlsio_mbedtls.c ****     mbedtls_ssl_set_bio(&instance->ssl, instance, on_io_send, on_io_recv, NULL);
 271              		.loc 1 376 0
 272 00a2 0097     		str	r7, [sp]
 273 00a4 0E4B     		ldr	r3, .L11+20
 274 00a6 0F4A     		ldr	r2, .L11+24
 275 00a8 3100     		movs	r1, r6
 276 00aa 2800     		movs	r0, r5
 277 00ac FFF7FEFF 		bl	mbedtls_ssl_set_bio
 278              	.LVL29:
 377:Source\azure_iot_sdk\c-utility\adapters/tlsio_mbedtls.c ****     mbedtls_ssl_set_hostname(&instance->ssl, host);
 279              		.loc 1 377 0
 280 00b0 0599     		ldr	r1, [sp, #20]
 281 00b2 2800     		movs	r0, r5
 282 00b4 FFF7FEFF 		bl	mbedtls_ssl_set_hostname
 283              	.LVL30:
 378:Source\azure_iot_sdk\c-utility\adapters/tlsio_mbedtls.c ****     mbedtls_ssl_set_session(&instance->ssl, &instance->ssn);
 284              		.loc 1 378 0
 285 00b8 0499     		ldr	r1, [sp, #16]
 286 00ba 2800     		movs	r0, r5
 287 00bc FFF7FEFF 		bl	mbedtls_ssl_set_session
 288              	.LVL31:
 379:Source\azure_iot_sdk\c-utility\adapters/tlsio_mbedtls.c **** 
 380:Source\azure_iot_sdk\c-utility\adapters/tlsio_mbedtls.c ****     // DEPRECATED: debug functions do not belong in the tree.
 381:Source\azure_iot_sdk\c-utility\adapters/tlsio_mbedtls.c **** #if defined (MBED_TLS_DEBUG_ENABLE)
 382:Source\azure_iot_sdk\c-utility\adapters/tlsio_mbedtls.c ****     mbedtls_ssl_conf_dbg(&instance->config, mbedtls_debug, stdout);
 383:Source\azure_iot_sdk\c-utility\adapters/tlsio_mbedtls.c ****     mbedtls_debug_set_threshold(1);
 384:Source\azure_iot_sdk\c-utility\adapters/tlsio_mbedtls.c **** #endif
 385:Source\azure_iot_sdk\c-utility\adapters/tlsio_mbedtls.c **** 
 386:Source\azure_iot_sdk\c-utility\adapters/tlsio_mbedtls.c ****     mbedtls_ssl_setup(&instance->ssl, &instance->config);
 289              		.loc 1 386 0
 290 00c0 2100     		movs	r1, r4
 291 00c2 2800     		movs	r0, r5
 292 00c4 FFF7FEFF 		bl	mbedtls_ssl_setup
 293              	.LVL32:
 387:Source\azure_iot_sdk\c-utility\adapters/tlsio_mbedtls.c **** }
 294              		.loc 1 387 0
 295 00c8 07B0     		add	sp, sp, #28
 296              		@ sp needed
 297              	.LVL33:
ARM GAS  C:\Users\Phuong\AppData\Local\Temp\ccP1LXIT.s 			page 13


 298 00ca F0BD     		pop	{r4, r5, r6, r7, pc}
 299              	.L12:
 300              		.align	2
 301              	.L11:
 302 00cc 0C070000 		.word	1804
 303 00d0 00000000 		.word	tlsio_entropy_poll
 304 00d4 5C000000 		.word	.LC6
 305 00d8 00000000 		.word	mbedtls_entropy_func
 306 00dc 00000000 		.word	mbedtls_ctr_drbg_random
 307 00e0 00000000 		.word	on_io_recv
 308 00e4 00000000 		.word	on_io_send
 309              		.cfi_endproc
 310              	.LFE28:
 311              		.size	mbedtls_init, .-mbedtls_init
 312              		.section	.text.tlsio_mbedtls_create,"ax",%progbits
 313              		.align	2
 314              		.global	tlsio_mbedtls_create
 315              		.code	16
 316              		.thumb_func
 317              		.type	tlsio_mbedtls_create, %function
 318              	tlsio_mbedtls_create:
 319              	.LFB29:
 388:Source\azure_iot_sdk\c-utility\adapters/tlsio_mbedtls.c **** 
 389:Source\azure_iot_sdk\c-utility\adapters/tlsio_mbedtls.c **** CONCRETE_IO_HANDLE tlsio_mbedtls_create(void* io_create_parameters)
 390:Source\azure_iot_sdk\c-utility\adapters/tlsio_mbedtls.c **** {
 320              		.loc 1 390 0
 321              		.cfi_startproc
 322              		@ args = 0, pretend = 0, frame = 16
 323              		@ frame_needed = 0, uses_anonymous_args = 0
 324              	.LVL34:
 325 0000 70B5     		push	{r4, r5, r6, lr}
 326              		.cfi_def_cfa_offset 16
 327              		.cfi_offset 4, -16
 328              		.cfi_offset 5, -12
 329              		.cfi_offset 6, -8
 330              		.cfi_offset 14, -4
 331 0002 86B0     		sub	sp, sp, #24
 332              		.cfi_def_cfa_offset 40
 333 0004 051E     		subs	r5, r0, #0
 334              	.LVL35:
 391:Source\azure_iot_sdk\c-utility\adapters/tlsio_mbedtls.c ****     TLSIO_CONFIG* tls_io_config = io_create_parameters;
 392:Source\azure_iot_sdk\c-utility\adapters/tlsio_mbedtls.c ****     TLS_IO_INSTANCE* result;
 393:Source\azure_iot_sdk\c-utility\adapters/tlsio_mbedtls.c **** 
 394:Source\azure_iot_sdk\c-utility\adapters/tlsio_mbedtls.c ****     if (tls_io_config == NULL)
 335              		.loc 1 394 0
 336 0006 10D1     		bne	.L14
 337              	.LBB4:
 395:Source\azure_iot_sdk\c-utility\adapters/tlsio_mbedtls.c ****     {
 396:Source\azure_iot_sdk\c-utility\adapters/tlsio_mbedtls.c ****         LogError("NULL tls_io_config");
 338              		.loc 1 396 0 discriminator 3
 339 0008 FFF7FEFF 		bl	xlogging_get_log_function
 340              	.LVL36:
 341 000c 041E     		subs	r4, r0, #0
 342              	.LVL37:
 343 000e 79D0     		beq	.L23
 344              		.loc 1 396 0 is_stmt 0 discriminator 4
 345 0010 3E4B     		ldr	r3, .L25
ARM GAS  C:\Users\Phuong\AppData\Local\Temp\ccP1LXIT.s 			page 14


 346 0012 0193     		str	r3, [sp, #4]
 347 0014 0123     		movs	r3, #1
 348 0016 0093     		str	r3, [sp]
 349 0018 8C33     		adds	r3, r3, #140
 350 001a FF33     		adds	r3, r3, #255
 351 001c 3C4A     		ldr	r2, .L25+4
 352 001e 3032     		adds	r2, r2, #48
 353 0020 3C49     		ldr	r1, .L25+8
 354 0022 0020     		movs	r0, #0
 355              	.LVL38:
 356 0024 A047     		blx	r4
 357              	.LVL39:
 358              	.LBE4:
 397:Source\azure_iot_sdk\c-utility\adapters/tlsio_mbedtls.c ****         result = NULL;
 359              		.loc 1 397 0 is_stmt 1 discriminator 4
 360 0026 0024     		movs	r4, #0
 361              	.LVL40:
 362 0028 6DE0     		b	.L15
 363              	.LVL41:
 364              	.L14:
 398:Source\azure_iot_sdk\c-utility\adapters/tlsio_mbedtls.c ****     }
 399:Source\azure_iot_sdk\c-utility\adapters/tlsio_mbedtls.c ****     else
 400:Source\azure_iot_sdk\c-utility\adapters/tlsio_mbedtls.c ****     {
 401:Source\azure_iot_sdk\c-utility\adapters/tlsio_mbedtls.c ****         result = malloc(sizeof(TLS_IO_INSTANCE));
 365              		.loc 1 401 0
 366 002a F220     		movs	r0, #242
 367              	.LVL42:
 368 002c C000     		lsls	r0, r0, #3
 369 002e FFF7FEFF 		bl	malloc
 370              	.LVL43:
 371 0032 041E     		subs	r4, r0, #0
 372              	.LVL44:
 402:Source\azure_iot_sdk\c-utility\adapters/tlsio_mbedtls.c ****         if (result != NULL)
 373              		.loc 1 402 0
 374 0034 56D0     		beq	.L16
 375              	.LBB5:
 403:Source\azure_iot_sdk\c-utility\adapters/tlsio_mbedtls.c ****         {
 404:Source\azure_iot_sdk\c-utility\adapters/tlsio_mbedtls.c ****             SOCKETIO_CONFIG socketio_config;
 405:Source\azure_iot_sdk\c-utility\adapters/tlsio_mbedtls.c ****             const IO_INTERFACE_DESCRIPTION* underlying_io_interface;
 406:Source\azure_iot_sdk\c-utility\adapters/tlsio_mbedtls.c ****             void* io_interface_parameters;
 407:Source\azure_iot_sdk\c-utility\adapters/tlsio_mbedtls.c **** 
 408:Source\azure_iot_sdk\c-utility\adapters/tlsio_mbedtls.c ****             if (tls_io_config->underlying_io_interface != NULL)
 376              		.loc 1 408 0
 377 0036 A868     		ldr	r0, [r5, #8]
 378              	.LVL45:
 379 0038 0028     		cmp	r0, #0
 380 003a 01D0     		beq	.L17
 381              	.LVL46:
 409:Source\azure_iot_sdk\c-utility\adapters/tlsio_mbedtls.c ****             {
 410:Source\azure_iot_sdk\c-utility\adapters/tlsio_mbedtls.c ****                 underlying_io_interface = tls_io_config->underlying_io_interface;
 411:Source\azure_iot_sdk\c-utility\adapters/tlsio_mbedtls.c ****                 io_interface_parameters = tls_io_config->underlying_io_parameters;
 382              		.loc 1 411 0
 383 003c E968     		ldr	r1, [r5, #12]
 384              	.LVL47:
 385 003e 08E0     		b	.L18
 386              	.LVL48:
 387              	.L17:
ARM GAS  C:\Users\Phuong\AppData\Local\Temp\ccP1LXIT.s 			page 15


 412:Source\azure_iot_sdk\c-utility\adapters/tlsio_mbedtls.c ****             }
 413:Source\azure_iot_sdk\c-utility\adapters/tlsio_mbedtls.c ****             else
 414:Source\azure_iot_sdk\c-utility\adapters/tlsio_mbedtls.c ****             {
 415:Source\azure_iot_sdk\c-utility\adapters/tlsio_mbedtls.c ****                 socketio_config.hostname = tls_io_config->hostname;
 388              		.loc 1 415 0
 389 0040 2B68     		ldr	r3, [r5]
 390 0042 0393     		str	r3, [sp, #12]
 416:Source\azure_iot_sdk\c-utility\adapters/tlsio_mbedtls.c ****                 socketio_config.port = tls_io_config->port;
 391              		.loc 1 416 0
 392 0044 6B68     		ldr	r3, [r5, #4]
 393 0046 0493     		str	r3, [sp, #16]
 417:Source\azure_iot_sdk\c-utility\adapters/tlsio_mbedtls.c ****                 socketio_config.accepted_socket = NULL;
 394              		.loc 1 417 0
 395 0048 0023     		movs	r3, #0
 396 004a 0593     		str	r3, [sp, #20]
 418:Source\azure_iot_sdk\c-utility\adapters/tlsio_mbedtls.c **** 
 419:Source\azure_iot_sdk\c-utility\adapters/tlsio_mbedtls.c ****                 underlying_io_interface = socketio_get_interface_description();
 397              		.loc 1 419 0
 398 004c FFF7FEFF 		bl	socketio_get_interface_description
 399              	.LVL49:
 420:Source\azure_iot_sdk\c-utility\adapters/tlsio_mbedtls.c ****                 io_interface_parameters = &socketio_config;
 400              		.loc 1 420 0
 401 0050 03A9     		add	r1, sp, #12
 402              	.LVL50:
 403              	.L18:
 421:Source\azure_iot_sdk\c-utility\adapters/tlsio_mbedtls.c ****             }
 422:Source\azure_iot_sdk\c-utility\adapters/tlsio_mbedtls.c **** 
 423:Source\azure_iot_sdk\c-utility\adapters/tlsio_mbedtls.c ****             if (underlying_io_interface == NULL)
 404              		.loc 1 423 0
 405 0052 0028     		cmp	r0, #0
 406 0054 13D1     		bne	.L19
 424:Source\azure_iot_sdk\c-utility\adapters/tlsio_mbedtls.c ****             {
 425:Source\azure_iot_sdk\c-utility\adapters/tlsio_mbedtls.c ****                 free(result);
 407              		.loc 1 425 0
 408 0056 2000     		movs	r0, r4
 409              	.LVL51:
 410 0058 FFF7FEFF 		bl	free
 411              	.LVL52:
 412              	.LBB6:
 426:Source\azure_iot_sdk\c-utility\adapters/tlsio_mbedtls.c ****                 result = NULL;
 427:Source\azure_iot_sdk\c-utility\adapters/tlsio_mbedtls.c ****                 LogError("Failed getting socket IO interface description.");
 413              		.loc 1 427 0
 414 005c FFF7FEFF 		bl	xlogging_get_log_function
 415              	.LVL53:
 416 0060 041E     		subs	r4, r0, #0
 417              	.LVL54:
 418 0062 3DD0     		beq	.L24
 419              		.loc 1 427 0 is_stmt 0 discriminator 4
 420 0064 2C4B     		ldr	r3, .L25+12
 421 0066 0193     		str	r3, [sp, #4]
 422 0068 0123     		movs	r3, #1
 423 006a 0093     		str	r3, [sp]
 424 006c AC23     		movs	r3, #172
 425 006e FF33     		adds	r3, r3, #255
 426 0070 274A     		ldr	r2, .L25+4
 427 0072 3032     		adds	r2, r2, #48
 428 0074 2749     		ldr	r1, .L25+8
ARM GAS  C:\Users\Phuong\AppData\Local\Temp\ccP1LXIT.s 			page 16


 429 0076 0020     		movs	r0, #0
 430              	.LVL55:
 431 0078 A047     		blx	r4
 432              	.LVL56:
 433              	.LBE6:
 426:Source\azure_iot_sdk\c-utility\adapters/tlsio_mbedtls.c ****                 result = NULL;
 434              		.loc 1 426 0 is_stmt 1 discriminator 4
 435 007a 0024     		movs	r4, #0
 436              	.LVL57:
 437 007c 43E0     		b	.L15
 438              	.LVL58:
 439              	.L19:
 428:Source\azure_iot_sdk\c-utility\adapters/tlsio_mbedtls.c ****             }
 429:Source\azure_iot_sdk\c-utility\adapters/tlsio_mbedtls.c ****             else
 430:Source\azure_iot_sdk\c-utility\adapters/tlsio_mbedtls.c ****             {
 431:Source\azure_iot_sdk\c-utility\adapters/tlsio_mbedtls.c ****                 result->on_bytes_received = NULL;
 440              		.loc 1 431 0
 441 007e 0023     		movs	r3, #0
 442 0080 6360     		str	r3, [r4, #4]
 432:Source\azure_iot_sdk\c-utility\adapters/tlsio_mbedtls.c ****                 result->on_bytes_received_context = NULL;
 443              		.loc 1 432 0
 444 0082 6361     		str	r3, [r4, #20]
 433:Source\azure_iot_sdk\c-utility\adapters/tlsio_mbedtls.c **** 
 434:Source\azure_iot_sdk\c-utility\adapters/tlsio_mbedtls.c ****                 result->on_io_open_complete = NULL;
 445              		.loc 1 434 0
 446 0084 A360     		str	r3, [r4, #8]
 435:Source\azure_iot_sdk\c-utility\adapters/tlsio_mbedtls.c ****                 result->on_io_open_complete_context = NULL;
 447              		.loc 1 435 0
 448 0086 A361     		str	r3, [r4, #24]
 436:Source\azure_iot_sdk\c-utility\adapters/tlsio_mbedtls.c **** 
 437:Source\azure_iot_sdk\c-utility\adapters/tlsio_mbedtls.c ****                 result->on_io_close_complete = NULL;
 449              		.loc 1 437 0
 450 0088 E360     		str	r3, [r4, #12]
 438:Source\azure_iot_sdk\c-utility\adapters/tlsio_mbedtls.c ****                 result->on_io_close_complete_context = NULL;
 451              		.loc 1 438 0
 452 008a E361     		str	r3, [r4, #28]
 439:Source\azure_iot_sdk\c-utility\adapters/tlsio_mbedtls.c **** 
 440:Source\azure_iot_sdk\c-utility\adapters/tlsio_mbedtls.c ****                 result->on_io_error = NULL;
 453              		.loc 1 440 0
 454 008c 2361     		str	r3, [r4, #16]
 441:Source\azure_iot_sdk\c-utility\adapters/tlsio_mbedtls.c ****                 result->on_io_error_context = NULL;
 455              		.loc 1 441 0
 456 008e 2362     		str	r3, [r4, #32]
 442:Source\azure_iot_sdk\c-utility\adapters/tlsio_mbedtls.c **** 
 443:Source\azure_iot_sdk\c-utility\adapters/tlsio_mbedtls.c ****                 result->trusted_certificates = NULL;
 457              		.loc 1 443 0
 458 0090 F122     		movs	r2, #241
 459 0092 D200     		lsls	r2, r2, #3
 460 0094 A350     		str	r3, [r4, r2]
 444:Source\azure_iot_sdk\c-utility\adapters/tlsio_mbedtls.c **** 
 445:Source\azure_iot_sdk\c-utility\adapters/tlsio_mbedtls.c ****                 result->socket_io = xio_create(underlying_io_interface, io_interface_parameters);
 461              		.loc 1 445 0
 462 0096 FFF7FEFF 		bl	xio_create
 463              	.LVL59:
 464 009a 2060     		str	r0, [r4]
 446:Source\azure_iot_sdk\c-utility\adapters/tlsio_mbedtls.c ****                 if (result->socket_io == NULL)
 465              		.loc 1 446 0
ARM GAS  C:\Users\Phuong\AppData\Local\Temp\ccP1LXIT.s 			page 17


 466 009c 0028     		cmp	r0, #0
 467 009e 13D1     		bne	.L21
 468              	.LBB7:
 447:Source\azure_iot_sdk\c-utility\adapters/tlsio_mbedtls.c ****                 {
 448:Source\azure_iot_sdk\c-utility\adapters/tlsio_mbedtls.c ****                     LogError("socket xio create failed");
 469              		.loc 1 448 0 discriminator 3
 470 00a0 FFF7FEFF 		bl	xlogging_get_log_function
 471              	.LVL60:
 472 00a4 051E     		subs	r5, r0, #0
 473              	.LVL61:
 474 00a6 0AD0     		beq	.L22
 475              		.loc 1 448 0 is_stmt 0 discriminator 4
 476 00a8 1C4B     		ldr	r3, .L25+16
 477 00aa 0193     		str	r3, [sp, #4]
 478 00ac 0123     		movs	r3, #1
 479 00ae 0093     		str	r3, [sp]
 480 00b0 C033     		adds	r3, r3, #192
 481 00b2 FF33     		adds	r3, r3, #255
 482 00b4 164A     		ldr	r2, .L25+4
 483 00b6 3032     		adds	r2, r2, #48
 484 00b8 1649     		ldr	r1, .L25+8
 485 00ba 0020     		movs	r0, #0
 486              	.LVL62:
 487 00bc A847     		blx	r5
 488              	.LVL63:
 489              	.L22:
 490              	.LBE7:
 449:Source\azure_iot_sdk\c-utility\adapters/tlsio_mbedtls.c ****                     free(result);
 491              		.loc 1 449 0 is_stmt 1
 492 00be 2000     		movs	r0, r4
 493 00c0 FFF7FEFF 		bl	free
 494              	.LVL64:
 450:Source\azure_iot_sdk\c-utility\adapters/tlsio_mbedtls.c ****                     result = NULL;
 495              		.loc 1 450 0
 496 00c4 0024     		movs	r4, #0
 497 00c6 1EE0     		b	.L15
 498              	.LVL65:
 499              	.L21:
 451:Source\azure_iot_sdk\c-utility\adapters/tlsio_mbedtls.c ****                 }
 452:Source\azure_iot_sdk\c-utility\adapters/tlsio_mbedtls.c ****                 else
 453:Source\azure_iot_sdk\c-utility\adapters/tlsio_mbedtls.c ****                 {
 454:Source\azure_iot_sdk\c-utility\adapters/tlsio_mbedtls.c ****                     result->socket_io_read_bytes = NULL;
 500              		.loc 1 454 0
 501 00c8 0026     		movs	r6, #0
 502 00ca A662     		str	r6, [r4, #40]
 455:Source\azure_iot_sdk\c-utility\adapters/tlsio_mbedtls.c ****                     result->socket_io_read_byte_count = 0;
 503              		.loc 1 455 0
 504 00cc E662     		str	r6, [r4, #44]
 456:Source\azure_iot_sdk\c-utility\adapters/tlsio_mbedtls.c ****                     result->on_send_complete = NULL;
 505              		.loc 1 456 0
 506 00ce 2663     		str	r6, [r4, #48]
 457:Source\azure_iot_sdk\c-utility\adapters/tlsio_mbedtls.c ****                     result->on_send_complete_callback_context = NULL;
 507              		.loc 1 457 0
 508 00d0 6663     		str	r6, [r4, #52]
 458:Source\azure_iot_sdk\c-utility\adapters/tlsio_mbedtls.c **** 
 459:Source\azure_iot_sdk\c-utility\adapters/tlsio_mbedtls.c ****                     // mbeTLS initialize
 460:Source\azure_iot_sdk\c-utility\adapters/tlsio_mbedtls.c ****                     mbedtls_init((void *)result, tls_io_config->hostname);
ARM GAS  C:\Users\Phuong\AppData\Local\Temp\ccP1LXIT.s 			page 18


 509              		.loc 1 460 0
 510 00d2 2968     		ldr	r1, [r5]
 511 00d4 2000     		movs	r0, r4
 512 00d6 FFF7FEFF 		bl	mbedtls_init
 513              	.LVL66:
 461:Source\azure_iot_sdk\c-utility\adapters/tlsio_mbedtls.c ****                     result->tlsio_state = TLSIO_STATE_NOT_OPEN;
 514              		.loc 1 461 0
 515 00da 2423     		movs	r3, #36
 516 00dc E654     		strb	r6, [r4, r3]
 517 00de 12E0     		b	.L15
 518              	.LVL67:
 519              	.L24:
 426:Source\azure_iot_sdk\c-utility\adapters/tlsio_mbedtls.c ****                 LogError("Failed getting socket IO interface description.");
 520              		.loc 1 426 0
 521 00e0 0024     		movs	r4, #0
 522 00e2 10E0     		b	.L15
 523              	.LVL68:
 524              	.L16:
 525              	.LBE5:
 526              	.LBB8:
 462:Source\azure_iot_sdk\c-utility\adapters/tlsio_mbedtls.c ****                 }
 463:Source\azure_iot_sdk\c-utility\adapters/tlsio_mbedtls.c ****             }
 464:Source\azure_iot_sdk\c-utility\adapters/tlsio_mbedtls.c ****         }
 465:Source\azure_iot_sdk\c-utility\adapters/tlsio_mbedtls.c ****         else
 466:Source\azure_iot_sdk\c-utility\adapters/tlsio_mbedtls.c ****         {
 467:Source\azure_iot_sdk\c-utility\adapters/tlsio_mbedtls.c ****             LogError("Failure allocating tlsio.");
 527              		.loc 1 467 0 discriminator 3
 528 00e4 FFF7FEFF 		bl	xlogging_get_log_function
 529              	.LVL69:
 530 00e8 051E     		subs	r5, r0, #0
 531              	.LVL70:
 532 00ea 0CD0     		beq	.L15
 533              		.loc 1 467 0 is_stmt 0 discriminator 4
 534 00ec 0C4B     		ldr	r3, .L25+20
 535 00ee 0193     		str	r3, [sp, #4]
 536 00f0 0123     		movs	r3, #1
 537 00f2 0093     		str	r3, [sp]
 538 00f4 D423     		movs	r3, #212
 539 00f6 FF33     		adds	r3, r3, #255
 540 00f8 054A     		ldr	r2, .L25+4
 541 00fa 3032     		adds	r2, r2, #48
 542 00fc 0549     		ldr	r1, .L25+8
 543 00fe 0020     		movs	r0, #0
 544              	.LVL71:
 545 0100 A847     		blx	r5
 546              	.LVL72:
 547 0102 00E0     		b	.L15
 548              	.LVL73:
 549              	.L23:
 550              	.LBE8:
 397:Source\azure_iot_sdk\c-utility\adapters/tlsio_mbedtls.c ****     }
 551              		.loc 1 397 0 is_stmt 1
 552 0104 0024     		movs	r4, #0
 553              	.LVL74:
 554              	.L15:
 468:Source\azure_iot_sdk\c-utility\adapters/tlsio_mbedtls.c ****         }
 469:Source\azure_iot_sdk\c-utility\adapters/tlsio_mbedtls.c ****     }
ARM GAS  C:\Users\Phuong\AppData\Local\Temp\ccP1LXIT.s 			page 19


 470:Source\azure_iot_sdk\c-utility\adapters/tlsio_mbedtls.c ****     return result;
 471:Source\azure_iot_sdk\c-utility\adapters/tlsio_mbedtls.c **** }
 555              		.loc 1 471 0
 556 0106 2000     		movs	r0, r4
 557 0108 06B0     		add	sp, sp, #24
 558              		@ sp needed
 559              	.LVL75:
 560 010a 70BD     		pop	{r4, r5, r6, pc}
 561              	.L26:
 562              		.align	2
 563              	.L25:
 564 010c 70000000 		.word	.LC14
 565 0110 00000000 		.word	.LANCHOR0
 566 0114 00000000 		.word	.LC1
 567 0118 84000000 		.word	.LC16
 568 011c B4000000 		.word	.LC18
 569 0120 D0000000 		.word	.LC20
 570              		.cfi_endproc
 571              	.LFE29:
 572              		.size	tlsio_mbedtls_create, .-tlsio_mbedtls_create
 573              		.section	.text.on_io_recv,"ax",%progbits
 574              		.align	2
 575              		.code	16
 576              		.thumb_func
 577              		.type	on_io_recv, %function
 578              	on_io_recv:
 579              	.LFB25:
 258:Source\azure_iot_sdk\c-utility\adapters/tlsio_mbedtls.c ****     int result;
 580              		.loc 1 258 0
 581              		.cfi_startproc
 582              		@ args = 0, pretend = 0, frame = 0
 583              		@ frame_needed = 0, uses_anonymous_args = 0
 584              	.LVL76:
 585 0000 F0B5     		push	{r4, r5, r6, r7, lr}
 586              		.cfi_def_cfa_offset 20
 587              		.cfi_offset 4, -20
 588              		.cfi_offset 5, -16
 589              		.cfi_offset 6, -12
 590              		.cfi_offset 7, -8
 591              		.cfi_offset 14, -4
 592 0002 83B0     		sub	sp, sp, #12
 593              		.cfi_def_cfa_offset 32
 594 0004 0400     		movs	r4, r0
 595 0006 0F00     		movs	r7, r1
 596 0008 1600     		movs	r6, r2
 260:Source\azure_iot_sdk\c-utility\adapters/tlsio_mbedtls.c ****     {
 597              		.loc 1 260 0
 598 000a 0028     		cmp	r0, #0
 599 000c 19D1     		bne	.L36
 600              	.LBB9:
 262:Source\azure_iot_sdk\c-utility\adapters/tlsio_mbedtls.c ****         result = MBEDTLS_ERR_SSL_BAD_INPUT_DATA;
 601              		.loc 1 262 0 discriminator 3
 602 000e FFF7FEFF 		bl	xlogging_get_log_function
 603              	.LVL77:
 604 0012 041E     		subs	r4, r0, #0
 605              	.LVL78:
 606 0014 45D0     		beq	.L37
ARM GAS  C:\Users\Phuong\AppData\Local\Temp\ccP1LXIT.s 			page 20


 262:Source\azure_iot_sdk\c-utility\adapters/tlsio_mbedtls.c ****         result = MBEDTLS_ERR_SSL_BAD_INPUT_DATA;
 607              		.loc 1 262 0 is_stmt 0 discriminator 4
 608 0016 254B     		ldr	r3, .L39
 609 0018 0193     		str	r3, [sp, #4]
 610 001a 0123     		movs	r3, #1
 611 001c 0093     		str	r3, [sp]
 612 001e 0633     		adds	r3, r3, #6
 613 0020 FF33     		adds	r3, r3, #255
 614 0022 234A     		ldr	r2, .L39+4
 615 0024 4832     		adds	r2, r2, #72
 616 0026 2349     		ldr	r1, .L39+8
 617 0028 0020     		movs	r0, #0
 618              	.LVL79:
 619 002a A047     		blx	r4
 620              	.LVL80:
 621              	.LBE9:
 263:Source\azure_iot_sdk\c-utility\adapters/tlsio_mbedtls.c ****     }
 622              		.loc 1 263 0 is_stmt 1 discriminator 4
 623 002c 2248     		ldr	r0, .L39+12
 624 002e 3BE0     		b	.L29
 625              	.LVL81:
 626              	.L31:
 627              	.LBB10:
 274:Source\azure_iot_sdk\c-utility\adapters/tlsio_mbedtls.c ****             if (tls_io_instance->tlsio_state == TLSIO_STATE_OPEN)
 628              		.loc 1 274 0
 629 0030 2068     		ldr	r0, [r4]
 630 0032 FFF7FEFF 		bl	xio_dowork
 631              	.LVL82:
 275:Source\azure_iot_sdk\c-utility\adapters/tlsio_mbedtls.c ****             {
 632              		.loc 1 275 0
 633 0036 2423     		movs	r3, #36
 634 0038 E35C     		ldrb	r3, [r4, r3]
 635 003a 032B     		cmp	r3, #3
 636 003c 07D0     		beq	.L30
 281:Source\azure_iot_sdk\c-utility\adapters/tlsio_mbedtls.c ****         }
 637              		.loc 1 281 0
 638 003e 0135     		adds	r5, r5, #1
 639              	.LVL83:
 640 0040 00E0     		b	.L28
 641              	.LVL84:
 642              	.L36:
 643              	.LBE10:
 644 0042 0025     		movs	r5, #0
 645              	.LVL85:
 646              	.L28:
 647              	.LBB11:
 272:Source\azure_iot_sdk\c-utility\adapters/tlsio_mbedtls.c ****         {
 648              		.loc 1 272 0
 649 0044 E36A     		ldr	r3, [r4, #44]
 650 0046 002B     		cmp	r3, #0
 651 0048 01D1     		bne	.L30
 272:Source\azure_iot_sdk\c-utility\adapters/tlsio_mbedtls.c ****         {
 652              		.loc 1 272 0 is_stmt 0 discriminator 1
 653 004a 042D     		cmp	r5, #4
 654 004c F0D9     		bls	.L31
 655              	.L30:
 284:Source\azure_iot_sdk\c-utility\adapters/tlsio_mbedtls.c ****         if (bytes_cnt > sz)
ARM GAS  C:\Users\Phuong\AppData\Local\Temp\ccP1LXIT.s 			page 21


 656              		.loc 1 284 0 is_stmt 1
 657 004e E36A     		ldr	r3, [r4, #44]
 658              	.LVL86:
 285:Source\azure_iot_sdk\c-utility\adapters/tlsio_mbedtls.c ****         {
 659              		.loc 1 285 0
 660 0050 B342     		cmp	r3, r6
 661 0052 00D8     		bhi	.L32
 284:Source\azure_iot_sdk\c-utility\adapters/tlsio_mbedtls.c ****         if (bytes_cnt > sz)
 662              		.loc 1 284 0
 663 0054 1E00     		movs	r6, r3
 664              	.LVL87:
 665              	.L32:
 290:Source\azure_iot_sdk\c-utility\adapters/tlsio_mbedtls.c ****         {
 666              		.loc 1 290 0
 667 0056 002E     		cmp	r6, #0
 668 0058 1BD0     		beq	.L33
 292:Source\azure_iot_sdk\c-utility\adapters/tlsio_mbedtls.c ****             (void)memmove(tls_io_instance->socket_io_read_bytes, tls_io_instance->socket_io_read_by
 669              		.loc 1 292 0
 670 005a 3200     		movs	r2, r6
 671 005c A16A     		ldr	r1, [r4, #40]
 672 005e 3800     		movs	r0, r7
 673 0060 FFF7FEFF 		bl	memcpy
 674              	.LVL88:
 293:Source\azure_iot_sdk\c-utility\adapters/tlsio_mbedtls.c ****             tls_io_instance->socket_io_read_byte_count -= bytes_cnt;
 675              		.loc 1 293 0
 676 0064 A36A     		ldr	r3, [r4, #40]
 677 0066 9919     		adds	r1, r3, r6
 678 0068 E36A     		ldr	r3, [r4, #44]
 679 006a 9A1B     		subs	r2, r3, r6
 680 006c A06A     		ldr	r0, [r4, #40]
 681 006e FFF7FEFF 		bl	memmove
 682              	.LVL89:
 294:Source\azure_iot_sdk\c-utility\adapters/tlsio_mbedtls.c ****             if (tls_io_instance->socket_io_read_byte_count > 0)
 683              		.loc 1 294 0
 684 0072 E36A     		ldr	r3, [r4, #44]
 685 0074 991B     		subs	r1, r3, r6
 686 0076 E162     		str	r1, [r4, #44]
 295:Source\azure_iot_sdk\c-utility\adapters/tlsio_mbedtls.c ****             {
 687              		.loc 1 295 0
 688 0078 06D0     		beq	.L34
 297:Source\azure_iot_sdk\c-utility\adapters/tlsio_mbedtls.c ****                 if (new_socket_io_read_bytes != NULL)
 689              		.loc 1 297 0
 690 007a A06A     		ldr	r0, [r4, #40]
 691 007c FFF7FEFF 		bl	realloc
 692              	.LVL90:
 298:Source\azure_iot_sdk\c-utility\adapters/tlsio_mbedtls.c ****                 {
 693              		.loc 1 298 0
 694 0080 0028     		cmp	r0, #0
 695 0082 06D0     		beq	.L33
 300:Source\azure_iot_sdk\c-utility\adapters/tlsio_mbedtls.c ****                 }
 696              		.loc 1 300 0
 697 0084 A062     		str	r0, [r4, #40]
 698 0086 04E0     		b	.L33
 699              	.LVL91:
 700              	.L34:
 305:Source\azure_iot_sdk\c-utility\adapters/tlsio_mbedtls.c ****                 tls_io_instance->socket_io_read_bytes = NULL;
 701              		.loc 1 305 0
ARM GAS  C:\Users\Phuong\AppData\Local\Temp\ccP1LXIT.s 			page 22


 702 0088 A06A     		ldr	r0, [r4, #40]
 703 008a FFF7FEFF 		bl	free
 704              	.LVL92:
 306:Source\azure_iot_sdk\c-utility\adapters/tlsio_mbedtls.c ****             }
 705              		.loc 1 306 0
 706 008e 0023     		movs	r3, #0
 707 0090 A362     		str	r3, [r4, #40]
 708              	.L33:
 310:Source\azure_iot_sdk\c-utility\adapters/tlsio_mbedtls.c ****         {
 709              		.loc 1 310 0
 710 0092 002E     		cmp	r6, #0
 711 0094 03D1     		bne	.L35
 310:Source\azure_iot_sdk\c-utility\adapters/tlsio_mbedtls.c ****         {
 712              		.loc 1 310 0 is_stmt 0 discriminator 1
 713 0096 2423     		movs	r3, #36
 714 0098 E35C     		ldrb	r3, [r4, r3]
 715 009a 032B     		cmp	r3, #3
 716 009c 03D0     		beq	.L38
 717              	.L35:
 316:Source\azure_iot_sdk\c-utility\adapters/tlsio_mbedtls.c ****         }
 718              		.loc 1 316 0 is_stmt 1
 719 009e 3000     		movs	r0, r6
 720              	.LVL93:
 721 00a0 02E0     		b	.L29
 722              	.LVL94:
 723              	.L37:
 724              	.LBE11:
 263:Source\azure_iot_sdk\c-utility\adapters/tlsio_mbedtls.c ****     }
 725              		.loc 1 263 0
 726 00a2 0548     		ldr	r0, .L39+12
 727              	.LVL95:
 728 00a4 00E0     		b	.L29
 729              	.LVL96:
 730              	.L38:
 731              	.LBB12:
 312:Source\azure_iot_sdk\c-utility\adapters/tlsio_mbedtls.c ****         }
 732              		.loc 1 312 0
 733 00a6 0548     		ldr	r0, .L39+16
 734              	.LVL97:
 735              	.L29:
 736              	.LBE12:
 320:Source\azure_iot_sdk\c-utility\adapters/tlsio_mbedtls.c **** 
 737              		.loc 1 320 0
 738 00a8 03B0     		add	sp, sp, #12
 739              		@ sp needed
 740              	.LVL98:
 741 00aa F0BD     		pop	{r4, r5, r6, r7, pc}
 742              	.L40:
 743              		.align	2
 744              	.L39:
 745 00ac 38000000 		.word	.LC3
 746 00b0 00000000 		.word	.LANCHOR0
 747 00b4 00000000 		.word	.LC1
 748 00b8 008FFFFF 		.word	-28928
 749 00bc 0097FFFF 		.word	-26880
 750              		.cfi_endproc
 751              	.LFE25:
ARM GAS  C:\Users\Phuong\AppData\Local\Temp\ccP1LXIT.s 			page 23


 752              		.size	on_io_recv, .-on_io_recv
 753              		.section	.text.on_underlying_io_bytes_received,"ax",%progbits
 754              		.align	2
 755              		.code	16
 756              		.thumb_func
 757              		.type	on_underlying_io_bytes_received, %function
 758              	on_underlying_io_bytes_received:
 759              	.LFB22:
 183:Source\azure_iot_sdk\c-utility\adapters/tlsio_mbedtls.c ****     if (context != NULL)
 760              		.loc 1 183 0
 761              		.cfi_startproc
 762              		@ args = 0, pretend = 0, frame = 0
 763              		@ frame_needed = 0, uses_anonymous_args = 0
 764              	.LVL99:
 765 0000 70B5     		push	{r4, r5, r6, lr}
 766              		.cfi_def_cfa_offset 16
 767              		.cfi_offset 4, -16
 768              		.cfi_offset 5, -12
 769              		.cfi_offset 6, -8
 770              		.cfi_offset 14, -4
 771 0002 82B0     		sub	sp, sp, #8
 772              		.cfi_def_cfa_offset 24
 773 0004 0400     		movs	r4, r0
 774 0006 0E00     		movs	r6, r1
 775 0008 1500     		movs	r5, r2
 184:Source\azure_iot_sdk\c-utility\adapters/tlsio_mbedtls.c ****     {
 776              		.loc 1 184 0
 777 000a 0028     		cmp	r0, #0
 778 000c 1AD0     		beq	.L42
 779              	.LVL100:
 780              	.LBB13:
 188:Source\azure_iot_sdk\c-utility\adapters/tlsio_mbedtls.c ****         if (new_socket_io_read_bytes == NULL)
 781              		.loc 1 188 0
 782 000e C36A     		ldr	r3, [r0, #44]
 783 0010 9918     		adds	r1, r3, r2
 784              	.LVL101:
 785 0012 806A     		ldr	r0, [r0, #40]
 786              	.LVL102:
 787 0014 FFF7FEFF 		bl	realloc
 788              	.LVL103:
 189:Source\azure_iot_sdk\c-utility\adapters/tlsio_mbedtls.c ****         {
 789              		.loc 1 189 0
 790 0018 0028     		cmp	r0, #0
 791 001a 06D1     		bne	.L43
 191:Source\azure_iot_sdk\c-utility\adapters/tlsio_mbedtls.c ****             indicate_error(tls_io_instance);
 792              		.loc 1 191 0
 793 001c 0522     		movs	r2, #5
 794 001e 2423     		movs	r3, #36
 795 0020 E254     		strb	r2, [r4, r3]
 192:Source\azure_iot_sdk\c-utility\adapters/tlsio_mbedtls.c ****         }
 796              		.loc 1 192 0
 797 0022 2000     		movs	r0, r4
 798              	.LVL104:
 799 0024 FFF7FEFF 		bl	indicate_error
 800              	.LVL105:
 801 0028 1AE0     		b	.L41
 802              	.LVL106:
ARM GAS  C:\Users\Phuong\AppData\Local\Temp\ccP1LXIT.s 			page 24


 803              	.L43:
 196:Source\azure_iot_sdk\c-utility\adapters/tlsio_mbedtls.c ****             (void)memcpy(tls_io_instance->socket_io_read_bytes + tls_io_instance->socket_io_read_by
 804              		.loc 1 196 0
 805 002a A062     		str	r0, [r4, #40]
 197:Source\azure_iot_sdk\c-utility\adapters/tlsio_mbedtls.c ****             tls_io_instance->socket_io_read_byte_count += size;
 806              		.loc 1 197 0
 807 002c E36A     		ldr	r3, [r4, #44]
 808 002e 9C46     		mov	ip, r3
 809 0030 6044     		add	r0, r0, ip
 810              	.LVL107:
 811 0032 2A00     		movs	r2, r5
 812 0034 3100     		movs	r1, r6
 813 0036 FFF7FEFF 		bl	memcpy
 814              	.LVL108:
 198:Source\azure_iot_sdk\c-utility\adapters/tlsio_mbedtls.c ****         }
 815              		.loc 1 198 0
 816 003a E36A     		ldr	r3, [r4, #44]
 817 003c 9C46     		mov	ip, r3
 818 003e 6544     		add	r5, r5, ip
 819              	.LVL109:
 820 0040 E562     		str	r5, [r4, #44]
 821 0042 0DE0     		b	.L41
 822              	.LVL110:
 823              	.L42:
 824              	.LBE13:
 825              	.LBB14:
 203:Source\azure_iot_sdk\c-utility\adapters/tlsio_mbedtls.c ****     }
 826              		.loc 1 203 0 discriminator 3
 827 0044 FFF7FEFF 		bl	xlogging_get_log_function
 828              	.LVL111:
 829 0048 041E     		subs	r4, r0, #0
 830              	.LVL112:
 831 004a 09D0     		beq	.L41
 203:Source\azure_iot_sdk\c-utility\adapters/tlsio_mbedtls.c ****     }
 832              		.loc 1 203 0 is_stmt 0 discriminator 4
 833 004c 054B     		ldr	r3, .L45
 834 004e 0193     		str	r3, [sp, #4]
 835 0050 0123     		movs	r3, #1
 836 0052 0093     		str	r3, [sp]
 837 0054 CA33     		adds	r3, r3, #202
 838 0056 044A     		ldr	r2, .L45+4
 839 0058 5432     		adds	r2, r2, #84
 840 005a 0449     		ldr	r1, .L45+8
 841 005c 0020     		movs	r0, #0
 842              	.LVL113:
 843 005e A047     		blx	r4
 844              	.LVL114:
 845              	.L41:
 846              	.LBE14:
 205:Source\azure_iot_sdk\c-utility\adapters/tlsio_mbedtls.c **** 
 847              		.loc 1 205 0 is_stmt 1
 848 0060 02B0     		add	sp, sp, #8
 849              		@ sp needed
 850              	.LVL115:
 851 0062 70BD     		pop	{r4, r5, r6, pc}
 852              	.L46:
 853              		.align	2
ARM GAS  C:\Users\Phuong\AppData\Local\Temp\ccP1LXIT.s 			page 25


 854              	.L45:
 855 0064 EC000000 		.word	.LC27
 856 0068 00000000 		.word	.LANCHOR0
 857 006c 00000000 		.word	.LC1
 858              		.cfi_endproc
 859              	.LFE22:
 860              		.size	on_underlying_io_bytes_received, .-on_underlying_io_bytes_received
 861              		.section	.text.on_io_send,"ax",%progbits
 862              		.align	2
 863              		.code	16
 864              		.thumb_func
 865              		.type	on_io_send, %function
 866              	on_io_send:
 867              	.LFB26:
 323:Source\azure_iot_sdk\c-utility\adapters/tlsio_mbedtls.c ****     int result;
 868              		.loc 1 323 0
 869              		.cfi_startproc
 870              		@ args = 0, pretend = 0, frame = 0
 871              		@ frame_needed = 0, uses_anonymous_args = 0
 872              	.LVL116:
 873 0000 30B5     		push	{r4, r5, lr}
 874              		.cfi_def_cfa_offset 12
 875              		.cfi_offset 4, -12
 876              		.cfi_offset 5, -8
 877              		.cfi_offset 14, -4
 878 0002 83B0     		sub	sp, sp, #12
 879              		.cfi_def_cfa_offset 24
 880 0004 0400     		movs	r4, r0
 881 0006 1500     		movs	r5, r2
 325:Source\azure_iot_sdk\c-utility\adapters/tlsio_mbedtls.c ****     {
 882              		.loc 1 325 0
 883 0008 0028     		cmp	r0, #0
 884 000a 10D1     		bne	.L48
 885              	.LBB15:
 327:Source\azure_iot_sdk\c-utility\adapters/tlsio_mbedtls.c ****         result = 0;
 886              		.loc 1 327 0 discriminator 3
 887 000c FFF7FEFF 		bl	xlogging_get_log_function
 888              	.LVL117:
 889 0010 041E     		subs	r4, r0, #0
 890              	.LVL118:
 891 0012 1ED0     		beq	.L51
 327:Source\azure_iot_sdk\c-utility\adapters/tlsio_mbedtls.c ****         result = 0;
 892              		.loc 1 327 0 is_stmt 0 discriminator 4
 893 0014 104B     		ldr	r3, .L52
 894 0016 0193     		str	r3, [sp, #4]
 895 0018 0123     		movs	r3, #1
 896 001a 0093     		str	r3, [sp]
 897 001c 4823     		movs	r3, #72
 898 001e FF33     		adds	r3, r3, #255
 899 0020 0E4A     		ldr	r2, .L52+4
 900 0022 7432     		adds	r2, r2, #116
 901 0024 0E49     		ldr	r1, .L52+8
 902 0026 0020     		movs	r0, #0
 903              	.LVL119:
 904 0028 A047     		blx	r4
 905              	.LVL120:
 906              	.LBE15:
ARM GAS  C:\Users\Phuong\AppData\Local\Temp\ccP1LXIT.s 			page 26


 328:Source\azure_iot_sdk\c-utility\adapters/tlsio_mbedtls.c ****     }
 907              		.loc 1 328 0 is_stmt 1 discriminator 4
 908 002a 0020     		movs	r0, #0
 909 002c 12E0     		b	.L49
 910              	.LVL121:
 911              	.L48:
 912              	.LBB16:
 333:Source\azure_iot_sdk\c-utility\adapters/tlsio_mbedtls.c ****         {
 913              		.loc 1 333 0
 914 002e 436B     		ldr	r3, [r0, #52]
 915 0030 0093     		str	r3, [sp]
 916 0032 036B     		ldr	r3, [r0, #48]
 917 0034 0068     		ldr	r0, [r0]
 918              	.LVL122:
 919 0036 FFF7FEFF 		bl	xio_send
 920              	.LVL123:
 921 003a 0028     		cmp	r0, #0
 922 003c 07D0     		beq	.L50
 335:Source\azure_iot_sdk\c-utility\adapters/tlsio_mbedtls.c ****             indicate_error(tls_io_instance);
 923              		.loc 1 335 0
 924 003e 0522     		movs	r2, #5
 925 0040 2423     		movs	r3, #36
 926 0042 E254     		strb	r2, [r4, r3]
 336:Source\azure_iot_sdk\c-utility\adapters/tlsio_mbedtls.c ****             result = 0;
 927              		.loc 1 336 0
 928 0044 2000     		movs	r0, r4
 929 0046 FFF7FEFF 		bl	indicate_error
 930              	.LVL124:
 337:Source\azure_iot_sdk\c-utility\adapters/tlsio_mbedtls.c ****         }
 931              		.loc 1 337 0
 932 004a 0020     		movs	r0, #0
 933 004c 02E0     		b	.L49
 934              	.LVL125:
 935              	.L50:
 341:Source\azure_iot_sdk\c-utility\adapters/tlsio_mbedtls.c ****         }
 936              		.loc 1 341 0
 937 004e 2800     		movs	r0, r5
 938              	.LVL126:
 939 0050 00E0     		b	.L49
 940              	.LVL127:
 941              	.L51:
 942              	.LBE16:
 328:Source\azure_iot_sdk\c-utility\adapters/tlsio_mbedtls.c ****     }
 943              		.loc 1 328 0
 944 0052 0020     		movs	r0, #0
 945              	.LVL128:
 946              	.L49:
 345:Source\azure_iot_sdk\c-utility\adapters/tlsio_mbedtls.c **** 
 947              		.loc 1 345 0
 948 0054 03B0     		add	sp, sp, #12
 949              		@ sp needed
 950              	.LVL129:
 951 0056 30BD     		pop	{r4, r5, pc}
 952              	.L53:
 953              		.align	2
 954              	.L52:
 955 0058 38000000 		.word	.LC3
ARM GAS  C:\Users\Phuong\AppData\Local\Temp\ccP1LXIT.s 			page 27


 956 005c 00000000 		.word	.LANCHOR0
 957 0060 00000000 		.word	.LC1
 958              		.cfi_endproc
 959              	.LFE26:
 960              		.size	on_io_send, .-on_io_send
 961              		.section	.text.tlsio_entropy_poll,"ax",%progbits
 962              		.align	2
 963              		.code	16
 964              		.thumb_func
 965              		.type	tlsio_entropy_poll, %function
 966              	tlsio_entropy_poll:
 967              	.LFB27:
 348:Source\azure_iot_sdk\c-utility\adapters/tlsio_mbedtls.c ****     (void)v;
 968              		.loc 1 348 0
 969              		.cfi_startproc
 970              		@ args = 0, pretend = 0, frame = 0
 971              		@ frame_needed = 0, uses_anonymous_args = 0
 972              	.LVL130:
 973 0000 F0B5     		push	{r4, r5, r6, r7, lr}
 974              		.cfi_def_cfa_offset 20
 975              		.cfi_offset 4, -20
 976              		.cfi_offset 5, -16
 977              		.cfi_offset 6, -12
 978              		.cfi_offset 7, -8
 979              		.cfi_offset 14, -4
 980 0002 4746     		mov	r7, r8
 981 0004 80B4     		push	{r7}
 982              		.cfi_def_cfa_offset 24
 983              		.cfi_offset 8, -24
 984 0006 0F00     		movs	r7, r1
 985 0008 1600     		movs	r6, r2
 986 000a 9846     		mov	r8, r3
 987              	.LVL131:
 351:Source\azure_iot_sdk\c-utility\adapters/tlsio_mbedtls.c ****     for (uint16_t i = 0; i < len; i++) {
 988              		.loc 1 351 0
 989 000c 0020     		movs	r0, #0
 990              	.LVL132:
 991 000e FFF7FEFF 		bl	time
 992              	.LVL133:
 993 0012 FFF7FEFF 		bl	srand
 994              	.LVL134:
 995              	.LBB17:
 352:Source\azure_iot_sdk\c-utility\adapters/tlsio_mbedtls.c ****         output[i] = rand() % 256;
 996              		.loc 1 352 0
 997 0016 0024     		movs	r4, #0
 998 0018 0BE0     		b	.L55
 999              	.LVL135:
 1000              	.L56:
 353:Source\azure_iot_sdk\c-utility\adapters/tlsio_mbedtls.c ****     }
 1001              		.loc 1 353 0 discriminator 3
 1002 001a 3D19     		adds	r5, r7, r4
 1003 001c FFF7FEFF 		bl	rand
 1004              	.LVL136:
 1005 0020 C317     		asrs	r3, r0, #31
 1006 0022 1B0E     		lsrs	r3, r3, #24
 1007 0024 C018     		adds	r0, r0, r3
 1008 0026 FF22     		movs	r2, #255
ARM GAS  C:\Users\Phuong\AppData\Local\Temp\ccP1LXIT.s 			page 28


 1009 0028 1040     		ands	r0, r2
 1010 002a C01A     		subs	r0, r0, r3
 1011 002c 2870     		strb	r0, [r5]
 352:Source\azure_iot_sdk\c-utility\adapters/tlsio_mbedtls.c ****         output[i] = rand() % 256;
 1012              		.loc 1 352 0 discriminator 3
 1013 002e 0134     		adds	r4, r4, #1
 1014              	.LVL137:
 1015 0030 A4B2     		uxth	r4, r4
 1016              	.LVL138:
 1017              	.L55:
 352:Source\azure_iot_sdk\c-utility\adapters/tlsio_mbedtls.c ****         output[i] = rand() % 256;
 1018              		.loc 1 352 0 is_stmt 0 discriminator 1
 1019 0032 B442     		cmp	r4, r6
 1020 0034 F1D3     		bcc	.L56
 1021              	.LBE17:
 355:Source\azure_iot_sdk\c-utility\adapters/tlsio_mbedtls.c ****     return result;
 1022              		.loc 1 355 0 is_stmt 1
 1023 0036 4346     		mov	r3, r8
 1024 0038 1E60     		str	r6, [r3]
 357:Source\azure_iot_sdk\c-utility\adapters/tlsio_mbedtls.c **** 
 1025              		.loc 1 357 0
 1026 003a 0020     		movs	r0, #0
 1027              		@ sp needed
 1028              	.LVL139:
 1029              	.LVL140:
 1030              	.LVL141:
 1031              	.LVL142:
 1032 003c 04BC     		pop	{r2}
 1033 003e 9046     		mov	r8, r2
 1034 0040 F0BD     		pop	{r4, r5, r6, r7, pc}
 1035              		.cfi_endproc
 1036              	.LFE27:
 1037              		.size	tlsio_entropy_poll, .-tlsio_entropy_poll
 1038 0042 C046     		.section	.text.tlsio_mbedtls_destroy,"ax",%progbits
 1039              		.align	2
 1040              		.global	tlsio_mbedtls_destroy
 1041              		.code	16
 1042              		.thumb_func
 1043              		.type	tlsio_mbedtls_destroy, %function
 1044              	tlsio_mbedtls_destroy:
 1045              	.LFB30:
 472:Source\azure_iot_sdk\c-utility\adapters/tlsio_mbedtls.c **** 
 473:Source\azure_iot_sdk\c-utility\adapters/tlsio_mbedtls.c **** void tlsio_mbedtls_destroy(CONCRETE_IO_HANDLE tls_io)
 474:Source\azure_iot_sdk\c-utility\adapters/tlsio_mbedtls.c **** {
 1046              		.loc 1 474 0
 1047              		.cfi_startproc
 1048              		@ args = 0, pretend = 0, frame = 0
 1049              		@ frame_needed = 0, uses_anonymous_args = 0
 1050              	.LVL143:
 1051 0000 10B5     		push	{r4, lr}
 1052              		.cfi_def_cfa_offset 8
 1053              		.cfi_offset 4, -8
 1054              		.cfi_offset 14, -4
 1055 0002 041E     		subs	r4, r0, #0
 475:Source\azure_iot_sdk\c-utility\adapters/tlsio_mbedtls.c ****     if (tls_io != NULL)
 1056              		.loc 1 475 0
 1057 0004 29D0     		beq	.L57
ARM GAS  C:\Users\Phuong\AppData\Local\Temp\ccP1LXIT.s 			page 29


 1058              	.LVL144:
 1059              	.LBB18:
 476:Source\azure_iot_sdk\c-utility\adapters/tlsio_mbedtls.c ****     {
 477:Source\azure_iot_sdk\c-utility\adapters/tlsio_mbedtls.c ****         TLS_IO_INSTANCE* tls_io_instance = (TLS_IO_INSTANCE*)tls_io;
 478:Source\azure_iot_sdk\c-utility\adapters/tlsio_mbedtls.c **** 
 479:Source\azure_iot_sdk\c-utility\adapters/tlsio_mbedtls.c ****         // mbedTLS cleanup...
 480:Source\azure_iot_sdk\c-utility\adapters/tlsio_mbedtls.c ****         mbedtls_ssl_free(&tls_io_instance->ssl);
 1060              		.loc 1 480 0
 1061 0006 FC23     		movs	r3, #252
 1062 0008 9B00     		lsls	r3, r3, #2
 1063 000a C018     		adds	r0, r0, r3
 1064              	.LVL145:
 1065 000c FFF7FEFF 		bl	mbedtls_ssl_free
 1066              	.LVL146:
 481:Source\azure_iot_sdk\c-utility\adapters/tlsio_mbedtls.c ****         mbedtls_ssl_config_free(&tls_io_instance->config);
 1067              		.loc 1 481 0
 1068 0010 A123     		movs	r3, #161
 1069 0012 DB00     		lsls	r3, r3, #3
 1070 0014 E018     		adds	r0, r4, r3
 1071 0016 FFF7FEFF 		bl	mbedtls_ssl_config_free
 1072              	.LVL147:
 482:Source\azure_iot_sdk\c-utility\adapters/tlsio_mbedtls.c ****         mbedtls_x509_crt_free(&tls_io_instance->trusted_certificates_parsed);
 1073              		.loc 1 482 0
 1074 001a BB23     		movs	r3, #187
 1075 001c DB00     		lsls	r3, r3, #3
 1076 001e E018     		adds	r0, r4, r3
 1077 0020 FFF7FEFF 		bl	mbedtls_x509_crt_free
 1078              	.LVL148:
 483:Source\azure_iot_sdk\c-utility\adapters/tlsio_mbedtls.c ****         mbedtls_ctr_drbg_free(&tls_io_instance->ctr_drbg);
 1079              		.loc 1 483 0
 1080 0024 AC23     		movs	r3, #172
 1081 0026 9B00     		lsls	r3, r3, #2
 1082 0028 E018     		adds	r0, r4, r3
 1083 002a FFF7FEFF 		bl	mbedtls_ctr_drbg_free
 1084              	.LVL149:
 484:Source\azure_iot_sdk\c-utility\adapters/tlsio_mbedtls.c ****         mbedtls_entropy_free(&tls_io_instance->entropy);
 1085              		.loc 1 484 0
 1086 002e 2000     		movs	r0, r4
 1087 0030 3830     		adds	r0, r0, #56
 1088 0032 FFF7FEFF 		bl	mbedtls_entropy_free
 1089              	.LVL150:
 485:Source\azure_iot_sdk\c-utility\adapters/tlsio_mbedtls.c **** 
 486:Source\azure_iot_sdk\c-utility\adapters/tlsio_mbedtls.c ****         if (tls_io_instance->socket_io_read_bytes != NULL)
 1090              		.loc 1 486 0
 1091 0036 A06A     		ldr	r0, [r4, #40]
 1092 0038 0028     		cmp	r0, #0
 1093 003a 01D0     		beq	.L59
 487:Source\azure_iot_sdk\c-utility\adapters/tlsio_mbedtls.c ****         {
 488:Source\azure_iot_sdk\c-utility\adapters/tlsio_mbedtls.c ****             free(tls_io_instance->socket_io_read_bytes);
 1094              		.loc 1 488 0
 1095 003c FFF7FEFF 		bl	free
 1096              	.LVL151:
 1097              	.L59:
 489:Source\azure_iot_sdk\c-utility\adapters/tlsio_mbedtls.c ****         }
 490:Source\azure_iot_sdk\c-utility\adapters/tlsio_mbedtls.c **** 
 491:Source\azure_iot_sdk\c-utility\adapters/tlsio_mbedtls.c ****         xio_destroy(tls_io_instance->socket_io);
 1098              		.loc 1 491 0
ARM GAS  C:\Users\Phuong\AppData\Local\Temp\ccP1LXIT.s 			page 30


 1099 0040 2068     		ldr	r0, [r4]
 1100 0042 FFF7FEFF 		bl	xio_destroy
 1101              	.LVL152:
 492:Source\azure_iot_sdk\c-utility\adapters/tlsio_mbedtls.c ****         if (tls_io_instance->trusted_certificates != NULL)
 1102              		.loc 1 492 0
 1103 0046 F123     		movs	r3, #241
 1104 0048 DB00     		lsls	r3, r3, #3
 1105 004a E058     		ldr	r0, [r4, r3]
 1106 004c 0028     		cmp	r0, #0
 1107 004e 01D0     		beq	.L60
 493:Source\azure_iot_sdk\c-utility\adapters/tlsio_mbedtls.c ****         {
 494:Source\azure_iot_sdk\c-utility\adapters/tlsio_mbedtls.c ****             free(tls_io_instance->trusted_certificates);
 1108              		.loc 1 494 0
 1109 0050 FFF7FEFF 		bl	free
 1110              	.LVL153:
 1111              	.L60:
 495:Source\azure_iot_sdk\c-utility\adapters/tlsio_mbedtls.c ****         }
 496:Source\azure_iot_sdk\c-utility\adapters/tlsio_mbedtls.c ****         free(tls_io);
 1112              		.loc 1 496 0
 1113 0054 2000     		movs	r0, r4
 1114 0056 FFF7FEFF 		bl	free
 1115              	.LVL154:
 1116              	.L57:
 1117              	.LBE18:
 497:Source\azure_iot_sdk\c-utility\adapters/tlsio_mbedtls.c ****     }
 498:Source\azure_iot_sdk\c-utility\adapters/tlsio_mbedtls.c **** }
 1118              		.loc 1 498 0
 1119              		@ sp needed
 1120              	.LVL155:
 1121 005a 10BD     		pop	{r4, pc}
 1122              		.cfi_endproc
 1123              	.LFE30:
 1124              		.size	tlsio_mbedtls_destroy, .-tlsio_mbedtls_destroy
 1125              		.section	.text.tlsio_mbedtls_open,"ax",%progbits
 1126              		.align	2
 1127              		.global	tlsio_mbedtls_open
 1128              		.code	16
 1129              		.thumb_func
 1130              		.type	tlsio_mbedtls_open, %function
 1131              	tlsio_mbedtls_open:
 1132              	.LFB31:
 499:Source\azure_iot_sdk\c-utility\adapters/tlsio_mbedtls.c **** 
 500:Source\azure_iot_sdk\c-utility\adapters/tlsio_mbedtls.c **** int tlsio_mbedtls_open(CONCRETE_IO_HANDLE tls_io, ON_IO_OPEN_COMPLETE on_io_open_complete, void* on
 501:Source\azure_iot_sdk\c-utility\adapters/tlsio_mbedtls.c **** {
 1133              		.loc 1 501 0
 1134              		.cfi_startproc
 1135              		@ args = 12, pretend = 0, frame = 0
 1136              		@ frame_needed = 0, uses_anonymous_args = 0
 1137              	.LVL156:
 1138 0000 30B5     		push	{r4, r5, lr}
 1139              		.cfi_def_cfa_offset 12
 1140              		.cfi_offset 4, -12
 1141              		.cfi_offset 5, -8
 1142              		.cfi_offset 14, -4
 1143 0002 85B0     		sub	sp, sp, #20
 1144              		.cfi_def_cfa_offset 32
 1145 0004 041E     		subs	r4, r0, #0
ARM GAS  C:\Users\Phuong\AppData\Local\Temp\ccP1LXIT.s 			page 31


 1146              	.LVL157:
 502:Source\azure_iot_sdk\c-utility\adapters/tlsio_mbedtls.c ****     int result = 0;
 503:Source\azure_iot_sdk\c-utility\adapters/tlsio_mbedtls.c **** 
 504:Source\azure_iot_sdk\c-utility\adapters/tlsio_mbedtls.c ****     if (tls_io == NULL)
 1147              		.loc 1 504 0
 1148 0006 10D1     		bne	.L62
 1149              	.LBB19:
 505:Source\azure_iot_sdk\c-utility\adapters/tlsio_mbedtls.c ****     {
 506:Source\azure_iot_sdk\c-utility\adapters/tlsio_mbedtls.c ****         LogError("NULL tls_io");
 1150              		.loc 1 506 0 discriminator 3
 1151 0008 FFF7FEFF 		bl	xlogging_get_log_function
 1152              	.LVL158:
 1153 000c 041E     		subs	r4, r0, #0
 1154              	.LVL159:
 1155 000e 4DD0     		beq	.L66
 1156              		.loc 1 506 0 is_stmt 0 discriminator 4
 1157 0010 2B4B     		ldr	r3, .L69
 1158 0012 0193     		str	r3, [sp, #4]
 1159 0014 0123     		movs	r3, #1
 1160 0016 0093     		str	r3, [sp]
 1161 0018 FA33     		adds	r3, r3, #250
 1162 001a FF33     		adds	r3, r3, #255
 1163 001c 294A     		ldr	r2, .L69+4
 1164 001e 2A49     		ldr	r1, .L69+8
 1165 0020 0020     		movs	r0, #0
 1166              	.LVL160:
 1167 0022 A047     		blx	r4
 1168              	.LVL161:
 1169              	.LBE19:
 507:Source\azure_iot_sdk\c-utility\adapters/tlsio_mbedtls.c ****         result = __FAILURE__;
 1170              		.loc 1 507 0 is_stmt 1 discriminator 4
 1171 0024 FC20     		movs	r0, #252
 1172 0026 FF30     		adds	r0, r0, #255
 1173 0028 47E0     		b	.L63
 1174              	.LVL162:
 1175              	.L62:
 1176              	.LBB20:
 508:Source\azure_iot_sdk\c-utility\adapters/tlsio_mbedtls.c ****     }
 509:Source\azure_iot_sdk\c-utility\adapters/tlsio_mbedtls.c ****     else
 510:Source\azure_iot_sdk\c-utility\adapters/tlsio_mbedtls.c ****     {
 511:Source\azure_iot_sdk\c-utility\adapters/tlsio_mbedtls.c ****         TLS_IO_INSTANCE* tls_io_instance = (TLS_IO_INSTANCE*)tls_io;
 512:Source\azure_iot_sdk\c-utility\adapters/tlsio_mbedtls.c **** 
 513:Source\azure_iot_sdk\c-utility\adapters/tlsio_mbedtls.c ****         if (tls_io_instance->tlsio_state != TLSIO_STATE_NOT_OPEN)
 1177              		.loc 1 513 0
 1178 002a 2420     		movs	r0, #36
 1179              	.LVL163:
 1180 002c 205C     		ldrb	r0, [r4, r0]
 1181 002e 0028     		cmp	r0, #0
 1182 0030 12D0     		beq	.L64
 1183              	.LBB21:
 514:Source\azure_iot_sdk\c-utility\adapters/tlsio_mbedtls.c ****         {
 515:Source\azure_iot_sdk\c-utility\adapters/tlsio_mbedtls.c ****             LogError("IO should not be open: %d\n", tls_io_instance->tlsio_state);
 1184              		.loc 1 515 0 discriminator 3
 1185 0032 FFF7FEFF 		bl	xlogging_get_log_function
 1186              	.LVL164:
 1187 0036 051E     		subs	r5, r0, #0
 1188              	.LVL165:
ARM GAS  C:\Users\Phuong\AppData\Local\Temp\ccP1LXIT.s 			page 32


 1189 0038 3BD0     		beq	.L67
 1190              		.loc 1 515 0 is_stmt 0 discriminator 4
 1191 003a 2423     		movs	r3, #36
 1192 003c E35C     		ldrb	r3, [r4, r3]
 1193 003e 0293     		str	r3, [sp, #8]
 1194 0040 224B     		ldr	r3, .L69+12
 1195 0042 0193     		str	r3, [sp, #4]
 1196 0044 0123     		movs	r3, #1
 1197 0046 0093     		str	r3, [sp]
 1198 0048 214B     		ldr	r3, .L69+16
 1199 004a 1E4A     		ldr	r2, .L69+4
 1200 004c 1E49     		ldr	r1, .L69+8
 1201 004e 0020     		movs	r0, #0
 1202              	.LVL166:
 1203 0050 A847     		blx	r5
 1204              	.LVL167:
 1205              	.LBE21:
 516:Source\azure_iot_sdk\c-utility\adapters/tlsio_mbedtls.c ****             result = __FAILURE__;
 1206              		.loc 1 516 0 is_stmt 1 discriminator 4
 1207 0052 8120     		movs	r0, #129
 1208 0054 8000     		lsls	r0, r0, #2
 1209 0056 30E0     		b	.L63
 1210              	.LVL168:
 1211              	.L64:
 517:Source\azure_iot_sdk\c-utility\adapters/tlsio_mbedtls.c ****         }
 518:Source\azure_iot_sdk\c-utility\adapters/tlsio_mbedtls.c ****         else
 519:Source\azure_iot_sdk\c-utility\adapters/tlsio_mbedtls.c ****         {
 520:Source\azure_iot_sdk\c-utility\adapters/tlsio_mbedtls.c ****             tls_io_instance->on_bytes_received = on_bytes_received;
 1212              		.loc 1 520 0
 1213 0058 6360     		str	r3, [r4, #4]
 521:Source\azure_iot_sdk\c-utility\adapters/tlsio_mbedtls.c ****             tls_io_instance->on_bytes_received_context = on_bytes_received_context;
 1214              		.loc 1 521 0
 1215 005a 089B     		ldr	r3, [sp, #32]
 1216              	.LVL169:
 1217 005c 6361     		str	r3, [r4, #20]
 522:Source\azure_iot_sdk\c-utility\adapters/tlsio_mbedtls.c **** 
 523:Source\azure_iot_sdk\c-utility\adapters/tlsio_mbedtls.c ****             tls_io_instance->on_io_open_complete = on_io_open_complete;
 1218              		.loc 1 523 0
 1219 005e A160     		str	r1, [r4, #8]
 524:Source\azure_iot_sdk\c-utility\adapters/tlsio_mbedtls.c ****             tls_io_instance->on_io_open_complete_context = on_io_open_complete_context;
 1220              		.loc 1 524 0
 1221 0060 A261     		str	r2, [r4, #24]
 525:Source\azure_iot_sdk\c-utility\adapters/tlsio_mbedtls.c **** 
 526:Source\azure_iot_sdk\c-utility\adapters/tlsio_mbedtls.c ****             tls_io_instance->on_io_error = on_io_error;
 1222              		.loc 1 526 0
 1223 0062 099B     		ldr	r3, [sp, #36]
 1224 0064 2361     		str	r3, [r4, #16]
 527:Source\azure_iot_sdk\c-utility\adapters/tlsio_mbedtls.c ****             tls_io_instance->on_io_error_context = on_io_error_context;
 1225              		.loc 1 527 0
 1226 0066 0A9B     		ldr	r3, [sp, #40]
 1227 0068 2362     		str	r3, [r4, #32]
 528:Source\azure_iot_sdk\c-utility\adapters/tlsio_mbedtls.c **** 
 529:Source\azure_iot_sdk\c-utility\adapters/tlsio_mbedtls.c ****             tls_io_instance->tlsio_state = TLSIO_STATE_OPENING_UNDERLYING_IO;
 1228              		.loc 1 529 0
 1229 006a 0122     		movs	r2, #1
 1230              	.LVL170:
 1231 006c 2423     		movs	r3, #36
ARM GAS  C:\Users\Phuong\AppData\Local\Temp\ccP1LXIT.s 			page 33


 1232 006e E254     		strb	r2, [r4, r3]
 1233              	.LVL171:
 530:Source\azure_iot_sdk\c-utility\adapters/tlsio_mbedtls.c **** 
 531:Source\azure_iot_sdk\c-utility\adapters/tlsio_mbedtls.c ****             if (xio_open(tls_io_instance->socket_io, on_underlying_io_open_complete, tls_io_instanc
 1234              		.loc 1 531 0
 1235 0070 0294     		str	r4, [sp, #8]
 1236 0072 184B     		ldr	r3, .L69+20
 1237 0074 0193     		str	r3, [sp, #4]
 1238 0076 0094     		str	r4, [sp]
 1239 0078 174B     		ldr	r3, .L69+24
 1240 007a 2200     		movs	r2, r4
 1241 007c 1749     		ldr	r1, .L69+28
 1242              	.LVL172:
 1243 007e 2068     		ldr	r0, [r4]
 1244 0080 FFF7FEFF 		bl	xio_open
 1245              	.LVL173:
 1246 0084 0028     		cmp	r0, #0
 1247 0086 17D0     		beq	.L68
 1248              	.LBB22:
 532:Source\azure_iot_sdk\c-utility\adapters/tlsio_mbedtls.c ****             {
 533:Source\azure_iot_sdk\c-utility\adapters/tlsio_mbedtls.c ****                 LogError("Underlying IO open failed");
 1249              		.loc 1 533 0 discriminator 3
 1250 0088 FFF7FEFF 		bl	xlogging_get_log_function
 1251              	.LVL174:
 1252 008c 051E     		subs	r5, r0, #0
 1253              	.LVL175:
 1254 008e 08D0     		beq	.L65
 1255              		.loc 1 533 0 is_stmt 0 discriminator 4
 1256 0090 134B     		ldr	r3, .L69+32
 1257 0092 0193     		str	r3, [sp, #4]
 1258 0094 0123     		movs	r3, #1
 1259 0096 0093     		str	r3, [sp]
 1260 0098 124B     		ldr	r3, .L69+36
 1261 009a 0A4A     		ldr	r2, .L69+4
 1262 009c 0A49     		ldr	r1, .L69+8
 1263 009e 0020     		movs	r0, #0
 1264              	.LVL176:
 1265 00a0 A847     		blx	r5
 1266              	.LVL177:
 1267              	.L65:
 1268              	.LBE22:
 534:Source\azure_iot_sdk\c-utility\adapters/tlsio_mbedtls.c ****                 tls_io_instance->tlsio_state = TLSIO_STATE_NOT_OPEN;
 1269              		.loc 1 534 0 is_stmt 1
 1270 00a2 0022     		movs	r2, #0
 1271 00a4 2423     		movs	r3, #36
 1272 00a6 E254     		strb	r2, [r4, r3]
 1273              	.LVL178:
 535:Source\azure_iot_sdk\c-utility\adapters/tlsio_mbedtls.c ****                 result = __FAILURE__;
 1274              		.loc 1 535 0
 1275 00a8 0F48     		ldr	r0, .L69+40
 1276 00aa 06E0     		b	.L63
 1277              	.LVL179:
 1278              	.L66:
 1279              	.LBE20:
 507:Source\azure_iot_sdk\c-utility\adapters/tlsio_mbedtls.c ****     }
 1280              		.loc 1 507 0
 1281 00ac FC20     		movs	r0, #252
ARM GAS  C:\Users\Phuong\AppData\Local\Temp\ccP1LXIT.s 			page 34


 1282              	.LVL180:
 1283 00ae FF30     		adds	r0, r0, #255
 1284 00b0 03E0     		b	.L63
 1285              	.LVL181:
 1286              	.L67:
 1287              	.LBB23:
 516:Source\azure_iot_sdk\c-utility\adapters/tlsio_mbedtls.c ****         }
 1288              		.loc 1 516 0
 1289 00b2 8120     		movs	r0, #129
 1290              	.LVL182:
 1291 00b4 8000     		lsls	r0, r0, #2
 1292 00b6 00E0     		b	.L63
 1293              	.LVL183:
 1294              	.L68:
 536:Source\azure_iot_sdk\c-utility\adapters/tlsio_mbedtls.c ****             }
 537:Source\azure_iot_sdk\c-utility\adapters/tlsio_mbedtls.c ****             else
 538:Source\azure_iot_sdk\c-utility\adapters/tlsio_mbedtls.c ****             {
 539:Source\azure_iot_sdk\c-utility\adapters/tlsio_mbedtls.c ****                 result = 0;
 1295              		.loc 1 539 0
 1296 00b8 0020     		movs	r0, #0
 1297              	.LVL184:
 1298              	.L63:
 1299              	.LBE23:
 540:Source\azure_iot_sdk\c-utility\adapters/tlsio_mbedtls.c ****             }
 541:Source\azure_iot_sdk\c-utility\adapters/tlsio_mbedtls.c ****         }
 542:Source\azure_iot_sdk\c-utility\adapters/tlsio_mbedtls.c ****     }
 543:Source\azure_iot_sdk\c-utility\adapters/tlsio_mbedtls.c **** 
 544:Source\azure_iot_sdk\c-utility\adapters/tlsio_mbedtls.c ****     return result;
 545:Source\azure_iot_sdk\c-utility\adapters/tlsio_mbedtls.c **** }
 1300              		.loc 1 545 0
 1301 00ba 05B0     		add	sp, sp, #20
 1302              		@ sp needed
 1303 00bc 30BD     		pop	{r4, r5, pc}
 1304              	.L70:
 1305 00be C046     		.align	2
 1306              	.L69:
 1307 00c0 0C010000 		.word	.LC34
 1308 00c4 80000000 		.word	.LANCHOR1
 1309 00c8 00000000 		.word	.LC1
 1310 00cc 18010000 		.word	.LC36
 1311 00d0 03020000 		.word	515
 1312 00d4 00000000 		.word	on_underlying_io_error
 1313 00d8 00000000 		.word	on_underlying_io_bytes_received
 1314 00dc 00000000 		.word	on_underlying_io_open_complete
 1315 00e0 34010000 		.word	.LC41
 1316 00e4 15020000 		.word	533
 1317 00e8 17020000 		.word	535
 1318              		.cfi_endproc
 1319              	.LFE31:
 1320              		.size	tlsio_mbedtls_open, .-tlsio_mbedtls_open
 1321              		.section	.text.on_underlying_io_error,"ax",%progbits
 1322              		.align	2
 1323              		.code	16
 1324              		.thumb_func
 1325              		.type	on_underlying_io_error, %function
 1326              	on_underlying_io_error:
 1327              	.LFB23:
ARM GAS  C:\Users\Phuong\AppData\Local\Temp\ccP1LXIT.s 			page 35


 208:Source\azure_iot_sdk\c-utility\adapters/tlsio_mbedtls.c ****     if (context == NULL)
 1328              		.loc 1 208 0
 1329              		.cfi_startproc
 1330              		@ args = 0, pretend = 0, frame = 0
 1331              		@ frame_needed = 0, uses_anonymous_args = 0
 1332              	.LVL185:
 1333 0000 10B5     		push	{r4, lr}
 1334              		.cfi_def_cfa_offset 8
 1335              		.cfi_offset 4, -8
 1336              		.cfi_offset 14, -4
 1337 0002 82B0     		sub	sp, sp, #8
 1338              		.cfi_def_cfa_offset 16
 1339 0004 041E     		subs	r4, r0, #0
 209:Source\azure_iot_sdk\c-utility\adapters/tlsio_mbedtls.c ****     {
 1340              		.loc 1 209 0
 1341 0006 0ED1     		bne	.L72
 1342              	.LBB24:
 211:Source\azure_iot_sdk\c-utility\adapters/tlsio_mbedtls.c ****     }
 1343              		.loc 1 211 0 discriminator 3
 1344 0008 FFF7FEFF 		bl	xlogging_get_log_function
 1345              	.LVL186:
 1346 000c 041E     		subs	r4, r0, #0
 1347              	.LVL187:
 1348 000e 25D0     		beq	.L71
 211:Source\azure_iot_sdk\c-utility\adapters/tlsio_mbedtls.c ****     }
 1349              		.loc 1 211 0 is_stmt 0 discriminator 4
 1350 0010 134B     		ldr	r3, .L76
 1351 0012 0193     		str	r3, [sp, #4]
 1352 0014 0123     		movs	r3, #1
 1353 0016 0093     		str	r3, [sp]
 1354 0018 D233     		adds	r3, r3, #210
 1355 001a 124A     		ldr	r2, .L76+4
 1356 001c 1432     		adds	r2, r2, #20
 1357 001e 1249     		ldr	r1, .L76+8
 1358 0020 0020     		movs	r0, #0
 1359              	.LVL188:
 1360 0022 A047     		blx	r4
 1361              	.LVL189:
 1362 0024 1AE0     		b	.L71
 1363              	.LVL190:
 1364              	.L72:
 1365              	.LBE24:
 1366              	.LBB25:
 216:Source\azure_iot_sdk\c-utility\adapters/tlsio_mbedtls.c ****         {
 1367              		.loc 1 216 0 is_stmt 1
 1368 0026 2423     		movs	r3, #36
 1369 0028 C35C     		ldrb	r3, [r0, r3]
 1370 002a 002B     		cmp	r3, #0
 1371 002c 16D0     		beq	.L71
 1372 002e 022B     		cmp	r3, #2
 1373 0030 02D9     		bls	.L74
 1374 0032 032B     		cmp	r3, #3
 1375 0034 0DD0     		beq	.L75
 1376 0036 11E0     		b	.L71
 1377              	.L74:
 227:Source\azure_iot_sdk\c-utility\adapters/tlsio_mbedtls.c ****                 tls_io_instance->tlsio_state = TLSIO_STATE_NOT_OPEN;
 1378              		.loc 1 227 0
ARM GAS  C:\Users\Phuong\AppData\Local\Temp\ccP1LXIT.s 			page 36


 1379 0038 0022     		movs	r2, #0
 1380 003a 0021     		movs	r1, #0
 1381 003c 0068     		ldr	r0, [r0]
 1382              	.LVL191:
 1383 003e FFF7FEFF 		bl	xio_close
 1384              	.LVL192:
 228:Source\azure_iot_sdk\c-utility\adapters/tlsio_mbedtls.c ****                 indicate_open_complete(tls_io_instance, IO_OPEN_ERROR);
 1385              		.loc 1 228 0
 1386 0042 0022     		movs	r2, #0
 1387 0044 2423     		movs	r3, #36
 1388 0046 E254     		strb	r2, [r4, r3]
 229:Source\azure_iot_sdk\c-utility\adapters/tlsio_mbedtls.c ****                 break;
 1389              		.loc 1 229 0
 1390 0048 0121     		movs	r1, #1
 1391 004a 2000     		movs	r0, r4
 1392 004c FFF7FEFF 		bl	indicate_open_complete
 1393              	.LVL193:
 230:Source\azure_iot_sdk\c-utility\adapters/tlsio_mbedtls.c **** 
 1394              		.loc 1 230 0
 1395 0050 04E0     		b	.L71
 1396              	.LVL194:
 1397              	.L75:
 233:Source\azure_iot_sdk\c-utility\adapters/tlsio_mbedtls.c ****                 indicate_error(tls_io_instance);
 1398              		.loc 1 233 0
 1399 0052 0522     		movs	r2, #5
 1400 0054 2423     		movs	r3, #36
 1401 0056 C254     		strb	r2, [r0, r3]
 234:Source\azure_iot_sdk\c-utility\adapters/tlsio_mbedtls.c ****                 break;
 1402              		.loc 1 234 0
 1403 0058 FFF7FEFF 		bl	indicate_error
 1404              	.LVL195:
 1405              	.L71:
 1406              	.LBE25:
 238:Source\azure_iot_sdk\c-utility\adapters/tlsio_mbedtls.c **** 
 1407              		.loc 1 238 0
 1408 005c 02B0     		add	sp, sp, #8
 1409              		@ sp needed
 1410 005e 10BD     		pop	{r4, pc}
 1411              	.L77:
 1412              		.align	2
 1413              	.L76:
 1414 0060 38000000 		.word	.LC3
 1415 0064 80000000 		.word	.LANCHOR1
 1416 0068 00000000 		.word	.LC1
 1417              		.cfi_endproc
 1418              	.LFE23:
 1419              		.size	on_underlying_io_error, .-on_underlying_io_error
 1420              		.section	.text.on_underlying_io_open_complete,"ax",%progbits
 1421              		.align	2
 1422              		.code	16
 1423              		.thumb_func
 1424              		.type	on_underlying_io_open_complete, %function
 1425              	on_underlying_io_open_complete:
 1426              	.LFB21:
 145:Source\azure_iot_sdk\c-utility\adapters/tlsio_mbedtls.c ****     if (context == NULL)
 1427              		.loc 1 145 0
 1428              		.cfi_startproc
ARM GAS  C:\Users\Phuong\AppData\Local\Temp\ccP1LXIT.s 			page 37


 1429              		@ args = 0, pretend = 0, frame = 0
 1430              		@ frame_needed = 0, uses_anonymous_args = 0
 1431              	.LVL196:
 1432 0000 10B5     		push	{r4, lr}
 1433              		.cfi_def_cfa_offset 8
 1434              		.cfi_offset 4, -8
 1435              		.cfi_offset 14, -4
 1436 0002 82B0     		sub	sp, sp, #8
 1437              		.cfi_def_cfa_offset 16
 1438 0004 041E     		subs	r4, r0, #0
 146:Source\azure_iot_sdk\c-utility\adapters/tlsio_mbedtls.c ****     {
 1439              		.loc 1 146 0
 1440 0006 0ED1     		bne	.L79
 1441              	.LBB26:
 148:Source\azure_iot_sdk\c-utility\adapters/tlsio_mbedtls.c ****     }
 1442              		.loc 1 148 0 discriminator 3
 1443 0008 FFF7FEFF 		bl	xlogging_get_log_function
 1444              	.LVL197:
 1445 000c 041E     		subs	r4, r0, #0
 1446              	.LVL198:
 1447 000e 32D0     		beq	.L78
 148:Source\azure_iot_sdk\c-utility\adapters/tlsio_mbedtls.c ****     }
 1448              		.loc 1 148 0 is_stmt 0 discriminator 4
 1449 0010 1A4B     		ldr	r3, .L84
 1450 0012 0193     		str	r3, [sp, #4]
 1451 0014 0123     		movs	r3, #1
 1452 0016 0093     		str	r3, [sp]
 1453 0018 9333     		adds	r3, r3, #147
 1454 001a 194A     		ldr	r2, .L84+4
 1455 001c 2C32     		adds	r2, r2, #44
 1456 001e 1949     		ldr	r1, .L84+8
 1457 0020 0020     		movs	r0, #0
 1458              	.LVL199:
 1459 0022 A047     		blx	r4
 1460              	.LVL200:
 1461 0024 27E0     		b	.L78
 1462              	.LVL201:
 1463              	.L79:
 1464              	.LBE26:
 1465              	.LBB27:
 155:Source\azure_iot_sdk\c-utility\adapters/tlsio_mbedtls.c ****         {
 1466              		.loc 1 155 0 is_stmt 1
 1467 0026 0029     		cmp	r1, #0
 1468 0028 06D0     		beq	.L81
 157:Source\azure_iot_sdk\c-utility\adapters/tlsio_mbedtls.c ****             indicate_open_complete(tls_io_instance, IO_OPEN_ERROR);
 1469              		.loc 1 157 0
 1470 002a 0022     		movs	r2, #0
 1471 002c 2423     		movs	r3, #36
 1472 002e C254     		strb	r2, [r0, r3]
 158:Source\azure_iot_sdk\c-utility\adapters/tlsio_mbedtls.c ****         }
 1473              		.loc 1 158 0
 1474 0030 0121     		movs	r1, #1
 1475              	.LVL202:
 1476 0032 FFF7FEFF 		bl	indicate_open_complete
 1477              	.LVL203:
 1478 0036 1EE0     		b	.L78
 1479              	.LVL204:
ARM GAS  C:\Users\Phuong\AppData\Local\Temp\ccP1LXIT.s 			page 38


 1480              	.L81:
 162:Source\azure_iot_sdk\c-utility\adapters/tlsio_mbedtls.c **** 
 1481              		.loc 1 162 0
 1482 0038 0222     		movs	r2, #2
 1483 003a 2423     		movs	r3, #36
 1484 003c C254     		strb	r2, [r0, r3]
 1485              	.LVL205:
 1486              	.L82:
 165:Source\azure_iot_sdk\c-utility\adapters/tlsio_mbedtls.c ****             } while (result == MBEDTLS_ERR_SSL_WANT_READ || result == MBEDTLS_ERR_SSL_WANT_WRITE);
 1487              		.loc 1 165 0 discriminator 3
 1488 003e FC23     		movs	r3, #252
 1489 0040 9B00     		lsls	r3, r3, #2
 1490 0042 E018     		adds	r0, r4, r3
 1491 0044 FFF7FEFF 		bl	mbedtls_ssl_handshake
 1492              	.LVL206:
 166:Source\azure_iot_sdk\c-utility\adapters/tlsio_mbedtls.c **** 
 1493              		.loc 1 166 0 discriminator 3
 1494 0048 0F4B     		ldr	r3, .L84+12
 1495 004a 9842     		cmp	r0, r3
 1496 004c F7D0     		beq	.L82
 166:Source\azure_iot_sdk\c-utility\adapters/tlsio_mbedtls.c **** 
 1497              		.loc 1 166 0 is_stmt 0 discriminator 2
 1498 004e 0F4B     		ldr	r3, .L84+16
 1499 0050 9842     		cmp	r0, r3
 1500 0052 F4D0     		beq	.L82
 168:Source\azure_iot_sdk\c-utility\adapters/tlsio_mbedtls.c ****             {
 1501              		.loc 1 168 0 is_stmt 1
 1502 0054 0028     		cmp	r0, #0
 1503 0056 07D1     		bne	.L83
 170:Source\azure_iot_sdk\c-utility\adapters/tlsio_mbedtls.c ****                 indicate_open_complete(tls_io_instance, IO_OPEN_OK);
 1504              		.loc 1 170 0
 1505 0058 0322     		movs	r2, #3
 1506 005a 2423     		movs	r3, #36
 1507 005c E254     		strb	r2, [r4, r3]
 171:Source\azure_iot_sdk\c-utility\adapters/tlsio_mbedtls.c ****             }
 1508              		.loc 1 171 0
 1509 005e 0021     		movs	r1, #0
 1510 0060 2000     		movs	r0, r4
 1511              	.LVL207:
 1512 0062 FFF7FEFF 		bl	indicate_open_complete
 1513              	.LVL208:
 1514 0066 06E0     		b	.L78
 1515              	.LVL209:
 1516              	.L83:
 175:Source\azure_iot_sdk\c-utility\adapters/tlsio_mbedtls.c ****                 indicate_open_complete(tls_io_instance, IO_OPEN_ERROR);
 1517              		.loc 1 175 0
 1518 0068 0022     		movs	r2, #0
 1519 006a 2423     		movs	r3, #36
 1520 006c E254     		strb	r2, [r4, r3]
 176:Source\azure_iot_sdk\c-utility\adapters/tlsio_mbedtls.c ****             }
 1521              		.loc 1 176 0
 1522 006e 0121     		movs	r1, #1
 1523 0070 2000     		movs	r0, r4
 1524              	.LVL210:
 1525 0072 FFF7FEFF 		bl	indicate_open_complete
 1526              	.LVL211:
 1527              	.L78:
ARM GAS  C:\Users\Phuong\AppData\Local\Temp\ccP1LXIT.s 			page 39


 1528              	.LBE27:
 180:Source\azure_iot_sdk\c-utility\adapters/tlsio_mbedtls.c **** 
 1529              		.loc 1 180 0
 1530 0076 02B0     		add	sp, sp, #8
 1531              		@ sp needed
 1532 0078 10BD     		pop	{r4, pc}
 1533              	.L85:
 1534 007a C046     		.align	2
 1535              	.L84:
 1536 007c 38000000 		.word	.LC3
 1537 0080 80000000 		.word	.LANCHOR1
 1538 0084 00000000 		.word	.LC1
 1539 0088 0097FFFF 		.word	-26880
 1540 008c 8097FFFF 		.word	-26752
 1541              		.cfi_endproc
 1542              	.LFE21:
 1543              		.size	on_underlying_io_open_complete, .-on_underlying_io_open_complete
 1544              		.section	.text.tlsio_mbedtls_close,"ax",%progbits
 1545              		.align	2
 1546              		.global	tlsio_mbedtls_close
 1547              		.code	16
 1548              		.thumb_func
 1549              		.type	tlsio_mbedtls_close, %function
 1550              	tlsio_mbedtls_close:
 1551              	.LFB32:
 546:Source\azure_iot_sdk\c-utility\adapters/tlsio_mbedtls.c **** 
 547:Source\azure_iot_sdk\c-utility\adapters/tlsio_mbedtls.c **** int tlsio_mbedtls_close(CONCRETE_IO_HANDLE tls_io, ON_IO_CLOSE_COMPLETE on_io_close_complete, void*
 548:Source\azure_iot_sdk\c-utility\adapters/tlsio_mbedtls.c **** {
 1552              		.loc 1 548 0
 1553              		.cfi_startproc
 1554              		@ args = 0, pretend = 0, frame = 0
 1555              		@ frame_needed = 0, uses_anonymous_args = 0
 1556              	.LVL212:
 1557 0000 10B5     		push	{r4, lr}
 1558              		.cfi_def_cfa_offset 8
 1559              		.cfi_offset 4, -8
 1560              		.cfi_offset 14, -4
 1561 0002 041E     		subs	r4, r0, #0
 1562              	.LVL213:
 549:Source\azure_iot_sdk\c-utility\adapters/tlsio_mbedtls.c ****     int result = 0;
 550:Source\azure_iot_sdk\c-utility\adapters/tlsio_mbedtls.c **** 
 551:Source\azure_iot_sdk\c-utility\adapters/tlsio_mbedtls.c ****     if (tls_io == NULL)
 1563              		.loc 1 551 0
 1564 0004 18D0     		beq	.L88
 1565              	.LVL214:
 1566              	.LBB28:
 552:Source\azure_iot_sdk\c-utility\adapters/tlsio_mbedtls.c ****     {
 553:Source\azure_iot_sdk\c-utility\adapters/tlsio_mbedtls.c ****         result = __FAILURE__;
 554:Source\azure_iot_sdk\c-utility\adapters/tlsio_mbedtls.c ****     }
 555:Source\azure_iot_sdk\c-utility\adapters/tlsio_mbedtls.c ****     else
 556:Source\azure_iot_sdk\c-utility\adapters/tlsio_mbedtls.c ****     {
 557:Source\azure_iot_sdk\c-utility\adapters/tlsio_mbedtls.c ****         TLS_IO_INSTANCE* tls_io_instance = (TLS_IO_INSTANCE*)tls_io;
 558:Source\azure_iot_sdk\c-utility\adapters/tlsio_mbedtls.c **** 
 559:Source\azure_iot_sdk\c-utility\adapters/tlsio_mbedtls.c ****         if ((tls_io_instance->tlsio_state == TLSIO_STATE_NOT_OPEN) ||
 1567              		.loc 1 559 0
 1568 0006 2423     		movs	r3, #36
 1569 0008 C35C     		ldrb	r3, [r0, r3]
ARM GAS  C:\Users\Phuong\AppData\Local\Temp\ccP1LXIT.s 			page 40


 1570 000a 002B     		cmp	r3, #0
 1571 000c 16D0     		beq	.L89
 1572              		.loc 1 559 0 is_stmt 0 discriminator 1
 1573 000e 042B     		cmp	r3, #4
 1574 0010 16D0     		beq	.L90
 560:Source\azure_iot_sdk\c-utility\adapters/tlsio_mbedtls.c ****             (tls_io_instance->tlsio_state == TLSIO_STATE_CLOSING))
 561:Source\azure_iot_sdk\c-utility\adapters/tlsio_mbedtls.c ****         {
 562:Source\azure_iot_sdk\c-utility\adapters/tlsio_mbedtls.c ****             result = __FAILURE__;
 563:Source\azure_iot_sdk\c-utility\adapters/tlsio_mbedtls.c ****         }
 564:Source\azure_iot_sdk\c-utility\adapters/tlsio_mbedtls.c ****         else
 565:Source\azure_iot_sdk\c-utility\adapters/tlsio_mbedtls.c ****         {
 566:Source\azure_iot_sdk\c-utility\adapters/tlsio_mbedtls.c ****             tls_io_instance->tlsio_state = TLSIO_STATE_CLOSING;
 1575              		.loc 1 566 0 is_stmt 1
 1576 0012 0420     		movs	r0, #4
 1577              	.LVL215:
 1578 0014 2423     		movs	r3, #36
 1579 0016 E054     		strb	r0, [r4, r3]
 567:Source\azure_iot_sdk\c-utility\adapters/tlsio_mbedtls.c ****             tls_io_instance->on_io_close_complete = on_io_close_complete;
 1580              		.loc 1 567 0
 1581 0018 E160     		str	r1, [r4, #12]
 568:Source\azure_iot_sdk\c-utility\adapters/tlsio_mbedtls.c ****             tls_io_instance->on_io_close_complete_context = callback_context;
 1582              		.loc 1 568 0
 1583 001a E261     		str	r2, [r4, #28]
 569:Source\azure_iot_sdk\c-utility\adapters/tlsio_mbedtls.c ****             mbedtls_ssl_close_notify(&tls_io_instance->ssl);
 1584              		.loc 1 569 0
 1585 001c FC23     		movs	r3, #252
 1586 001e 9B00     		lsls	r3, r3, #2
 1587 0020 E018     		adds	r0, r4, r3
 1588 0022 FFF7FEFF 		bl	mbedtls_ssl_close_notify
 1589              	.LVL216:
 570:Source\azure_iot_sdk\c-utility\adapters/tlsio_mbedtls.c **** 
 571:Source\azure_iot_sdk\c-utility\adapters/tlsio_mbedtls.c ****             if (xio_close(tls_io_instance->socket_io,
 1590              		.loc 1 571 0
 1591 0026 2068     		ldr	r0, [r4]
 1592 0028 2200     		movs	r2, r4
 1593 002a 0749     		ldr	r1, .L92
 1594 002c FFF7FEFF 		bl	xio_close
 1595              	.LVL217:
 1596 0030 0028     		cmp	r0, #0
 1597 0032 07D0     		beq	.L91
 572:Source\azure_iot_sdk\c-utility\adapters/tlsio_mbedtls.c ****                 on_underlying_io_close_complete_during_close, tls_io_instance) != 0)
 573:Source\azure_iot_sdk\c-utility\adapters/tlsio_mbedtls.c ****             {
 574:Source\azure_iot_sdk\c-utility\adapters/tlsio_mbedtls.c ****                 result = __FAILURE__;
 1598              		.loc 1 574 0
 1599 0034 0548     		ldr	r0, .L92+4
 1600 0036 06E0     		b	.L87
 1601              	.LVL218:
 1602              	.L88:
 1603              	.LBE28:
 553:Source\azure_iot_sdk\c-utility\adapters/tlsio_mbedtls.c ****     }
 1604              		.loc 1 553 0
 1605 0038 0548     		ldr	r0, .L92+8
 1606              	.LVL219:
 1607 003a 04E0     		b	.L87
 1608              	.LVL220:
 1609              	.L89:
 1610              	.LBB29:
ARM GAS  C:\Users\Phuong\AppData\Local\Temp\ccP1LXIT.s 			page 41


 562:Source\azure_iot_sdk\c-utility\adapters/tlsio_mbedtls.c ****         }
 1611              		.loc 1 562 0
 1612 003c 0548     		ldr	r0, .L92+12
 1613              	.LVL221:
 1614 003e 02E0     		b	.L87
 1615              	.LVL222:
 1616              	.L90:
 1617 0040 0448     		ldr	r0, .L92+12
 1618              	.LVL223:
 1619 0042 00E0     		b	.L87
 1620              	.LVL224:
 1621              	.L91:
 575:Source\azure_iot_sdk\c-utility\adapters/tlsio_mbedtls.c ****             }
 576:Source\azure_iot_sdk\c-utility\adapters/tlsio_mbedtls.c ****             else
 577:Source\azure_iot_sdk\c-utility\adapters/tlsio_mbedtls.c ****             {
 578:Source\azure_iot_sdk\c-utility\adapters/tlsio_mbedtls.c ****                 result = 0;
 1622              		.loc 1 578 0
 1623 0044 0020     		movs	r0, #0
 1624              	.LVL225:
 1625              	.L87:
 1626              	.LBE29:
 579:Source\azure_iot_sdk\c-utility\adapters/tlsio_mbedtls.c ****             }
 580:Source\azure_iot_sdk\c-utility\adapters/tlsio_mbedtls.c ****         }
 581:Source\azure_iot_sdk\c-utility\adapters/tlsio_mbedtls.c ****     }
 582:Source\azure_iot_sdk\c-utility\adapters/tlsio_mbedtls.c **** 
 583:Source\azure_iot_sdk\c-utility\adapters/tlsio_mbedtls.c ****     return result;
 584:Source\azure_iot_sdk\c-utility\adapters/tlsio_mbedtls.c **** }
 1627              		.loc 1 584 0
 1628              		@ sp needed
 1629              	.LVL226:
 1630 0046 10BD     		pop	{r4, pc}
 1631              	.L93:
 1632              		.align	2
 1633              	.L92:
 1634 0048 00000000 		.word	on_underlying_io_close_complete_during_close
 1635 004c 3E020000 		.word	574
 1636 0050 29020000 		.word	553
 1637 0054 32020000 		.word	562
 1638              		.cfi_endproc
 1639              	.LFE32:
 1640              		.size	tlsio_mbedtls_close, .-tlsio_mbedtls_close
 1641              		.section	.text.tlsio_mbedtls_send,"ax",%progbits
 1642              		.align	2
 1643              		.global	tlsio_mbedtls_send
 1644              		.code	16
 1645              		.thumb_func
 1646              		.type	tlsio_mbedtls_send, %function
 1647              	tlsio_mbedtls_send:
 1648              	.LFB33:
 585:Source\azure_iot_sdk\c-utility\adapters/tlsio_mbedtls.c **** 
 586:Source\azure_iot_sdk\c-utility\adapters/tlsio_mbedtls.c **** int tlsio_mbedtls_send(CONCRETE_IO_HANDLE tls_io, const void* buffer, size_t size, ON_SEND_COMPLETE
 587:Source\azure_iot_sdk\c-utility\adapters/tlsio_mbedtls.c **** {
 1649              		.loc 1 587 0
 1650              		.cfi_startproc
 1651              		@ args = 4, pretend = 0, frame = 0
 1652              		@ frame_needed = 0, uses_anonymous_args = 0
 1653              	.LVL227:
ARM GAS  C:\Users\Phuong\AppData\Local\Temp\ccP1LXIT.s 			page 42


 1654 0000 10B5     		push	{r4, lr}
 1655              		.cfi_def_cfa_offset 8
 1656              		.cfi_offset 4, -8
 1657              		.cfi_offset 14, -4
 1658 0002 1400     		movs	r4, r2
 588:Source\azure_iot_sdk\c-utility\adapters/tlsio_mbedtls.c ****     int result;
 589:Source\azure_iot_sdk\c-utility\adapters/tlsio_mbedtls.c **** 
 590:Source\azure_iot_sdk\c-utility\adapters/tlsio_mbedtls.c ****     if (tls_io == NULL)
 1659              		.loc 1 590 0
 1660 0004 0028     		cmp	r0, #0
 1661 0006 11D0     		beq	.L96
 1662              	.LVL228:
 1663              	.LBB30:
 591:Source\azure_iot_sdk\c-utility\adapters/tlsio_mbedtls.c ****     {
 592:Source\azure_iot_sdk\c-utility\adapters/tlsio_mbedtls.c ****         result = __FAILURE__;
 593:Source\azure_iot_sdk\c-utility\adapters/tlsio_mbedtls.c ****     }
 594:Source\azure_iot_sdk\c-utility\adapters/tlsio_mbedtls.c ****     else
 595:Source\azure_iot_sdk\c-utility\adapters/tlsio_mbedtls.c ****     {
 596:Source\azure_iot_sdk\c-utility\adapters/tlsio_mbedtls.c ****         TLS_IO_INSTANCE* tls_io_instance = (TLS_IO_INSTANCE*)tls_io;
 597:Source\azure_iot_sdk\c-utility\adapters/tlsio_mbedtls.c **** 
 598:Source\azure_iot_sdk\c-utility\adapters/tlsio_mbedtls.c ****         if (tls_io_instance->tlsio_state != TLSIO_STATE_OPEN)
 1664              		.loc 1 598 0
 1665 0008 2422     		movs	r2, #36
 1666              	.LVL229:
 1667 000a 825C     		ldrb	r2, [r0, r2]
 1668 000c 032A     		cmp	r2, #3
 1669 000e 10D1     		bne	.L97
 1670              	.LBB31:
 599:Source\azure_iot_sdk\c-utility\adapters/tlsio_mbedtls.c ****         {
 600:Source\azure_iot_sdk\c-utility\adapters/tlsio_mbedtls.c ****             result = __FAILURE__;
 601:Source\azure_iot_sdk\c-utility\adapters/tlsio_mbedtls.c ****         }
 602:Source\azure_iot_sdk\c-utility\adapters/tlsio_mbedtls.c ****         else
 603:Source\azure_iot_sdk\c-utility\adapters/tlsio_mbedtls.c ****         {
 604:Source\azure_iot_sdk\c-utility\adapters/tlsio_mbedtls.c ****             tls_io_instance->on_send_complete = on_send_complete;
 1671              		.loc 1 604 0
 1672 0010 0363     		str	r3, [r0, #48]
 605:Source\azure_iot_sdk\c-utility\adapters/tlsio_mbedtls.c ****             tls_io_instance->on_send_complete_callback_context = callback_context;
 1673              		.loc 1 605 0
 1674 0012 029B     		ldr	r3, [sp, #8]
 1675              	.LVL230:
 1676 0014 4363     		str	r3, [r0, #52]
 606:Source\azure_iot_sdk\c-utility\adapters/tlsio_mbedtls.c **** 
 607:Source\azure_iot_sdk\c-utility\adapters/tlsio_mbedtls.c ****             int res = mbedtls_ssl_write(&tls_io_instance->ssl, buffer, size);
 1677              		.loc 1 607 0
 1678 0016 FC23     		movs	r3, #252
 1679 0018 9B00     		lsls	r3, r3, #2
 1680 001a 9C46     		mov	ip, r3
 1681 001c 6044     		add	r0, r0, ip
 1682              	.LVL231:
 1683 001e 2200     		movs	r2, r4
 1684 0020 FFF7FEFF 		bl	mbedtls_ssl_write
 1685              	.LVL232:
 608:Source\azure_iot_sdk\c-utility\adapters/tlsio_mbedtls.c ****             if (res != (int)size)
 1686              		.loc 1 608 0
 1687 0024 A042     		cmp	r0, r4
 1688 0026 07D0     		beq	.L98
 609:Source\azure_iot_sdk\c-utility\adapters/tlsio_mbedtls.c ****             {
ARM GAS  C:\Users\Phuong\AppData\Local\Temp\ccP1LXIT.s 			page 43


 610:Source\azure_iot_sdk\c-utility\adapters/tlsio_mbedtls.c ****                 result = __FAILURE__;
 1689              		.loc 1 610 0
 1690 0028 0448     		ldr	r0, .L99
 1691              	.LVL233:
 1692 002a 06E0     		b	.L95
 1693              	.LVL234:
 1694              	.L96:
 1695              	.LBE31:
 1696              	.LBE30:
 592:Source\azure_iot_sdk\c-utility\adapters/tlsio_mbedtls.c ****     }
 1697              		.loc 1 592 0
 1698 002c 9420     		movs	r0, #148
 1699              	.LVL235:
 1700 002e 8000     		lsls	r0, r0, #2
 1701 0030 03E0     		b	.L95
 1702              	.LVL236:
 1703              	.L97:
 1704              	.LBB33:
 600:Source\azure_iot_sdk\c-utility\adapters/tlsio_mbedtls.c ****         }
 1705              		.loc 1 600 0
 1706 0032 9620     		movs	r0, #150
 1707              	.LVL237:
 1708 0034 8000     		lsls	r0, r0, #2
 1709 0036 00E0     		b	.L95
 1710              	.LVL238:
 1711              	.L98:
 1712              	.LBB32:
 611:Source\azure_iot_sdk\c-utility\adapters/tlsio_mbedtls.c ****             }
 612:Source\azure_iot_sdk\c-utility\adapters/tlsio_mbedtls.c ****             else
 613:Source\azure_iot_sdk\c-utility\adapters/tlsio_mbedtls.c ****             {
 614:Source\azure_iot_sdk\c-utility\adapters/tlsio_mbedtls.c ****                 result = 0;
 1713              		.loc 1 614 0
 1714 0038 0020     		movs	r0, #0
 1715              	.LVL239:
 1716              	.L95:
 1717              	.LBE32:
 1718              	.LBE33:
 615:Source\azure_iot_sdk\c-utility\adapters/tlsio_mbedtls.c ****             }
 616:Source\azure_iot_sdk\c-utility\adapters/tlsio_mbedtls.c ****         }
 617:Source\azure_iot_sdk\c-utility\adapters/tlsio_mbedtls.c ****     }
 618:Source\azure_iot_sdk\c-utility\adapters/tlsio_mbedtls.c ****     return result;
 619:Source\azure_iot_sdk\c-utility\adapters/tlsio_mbedtls.c **** }
 1719              		.loc 1 619 0
 1720              		@ sp needed
 1721              	.LVL240:
 1722 003a 10BD     		pop	{r4, pc}
 1723              	.L100:
 1724              		.align	2
 1725              	.L99:
 1726 003c 62020000 		.word	610
 1727              		.cfi_endproc
 1728              	.LFE33:
 1729              		.size	tlsio_mbedtls_send, .-tlsio_mbedtls_send
 1730              		.section	.text.decode_ssl_received_bytes,"ax",%progbits
 1731              		.align	2
 1732              		.code	16
 1733              		.thumb_func
ARM GAS  C:\Users\Phuong\AppData\Local\Temp\ccP1LXIT.s 			page 44


 1734              		.type	decode_ssl_received_bytes, %function
 1735              	decode_ssl_received_bytes:
 1736              	.LFB20:
 124:Source\azure_iot_sdk\c-utility\adapters/tlsio_mbedtls.c ****     int result = 0;
 1737              		.loc 1 124 0
 1738              		.cfi_startproc
 1739              		@ args = 0, pretend = 0, frame = 64
 1740              		@ frame_needed = 0, uses_anonymous_args = 0
 1741              	.LVL241:
 1742 0000 30B5     		push	{r4, r5, lr}
 1743              		.cfi_def_cfa_offset 12
 1744              		.cfi_offset 4, -12
 1745              		.cfi_offset 5, -8
 1746              		.cfi_offset 14, -4
 1747 0002 91B0     		sub	sp, sp, #68
 1748              		.cfi_def_cfa_offset 80
 1749 0004 0500     		movs	r5, r0
 1750              	.LVL242:
 127:Source\azure_iot_sdk\c-utility\adapters/tlsio_mbedtls.c **** 
 1751              		.loc 1 127 0
 1752 0006 0124     		movs	r4, #1
 129:Source\azure_iot_sdk\c-utility\adapters/tlsio_mbedtls.c ****     {
 1753              		.loc 1 129 0
 1754 0008 0FE0     		b	.L102
 1755              	.LVL243:
 1756              	.L104:
 131:Source\azure_iot_sdk\c-utility\adapters/tlsio_mbedtls.c ****         if (rcv_bytes > 0)
 1757              		.loc 1 131 0
 1758 000a FC23     		movs	r3, #252
 1759 000c 9B00     		lsls	r3, r3, #2
 1760 000e E818     		adds	r0, r5, r3
 1761 0010 4022     		movs	r2, #64
 1762 0012 6946     		mov	r1, sp
 1763 0014 FFF7FEFF 		bl	mbedtls_ssl_read
 1764              	.LVL244:
 1765 0018 041E     		subs	r4, r0, #0
 1766              	.LVL245:
 132:Source\azure_iot_sdk\c-utility\adapters/tlsio_mbedtls.c ****         {
 1767              		.loc 1 132 0
 1768 001a 06DD     		ble	.L102
 134:Source\azure_iot_sdk\c-utility\adapters/tlsio_mbedtls.c ****             {
 1769              		.loc 1 134 0
 1770 001c 6B68     		ldr	r3, [r5, #4]
 1771 001e 002B     		cmp	r3, #0
 1772 0020 03D0     		beq	.L102
 136:Source\azure_iot_sdk\c-utility\adapters/tlsio_mbedtls.c ****             }
 1773              		.loc 1 136 0
 1774 0022 0200     		movs	r2, r0
 1775 0024 6946     		mov	r1, sp
 1776 0026 6869     		ldr	r0, [r5, #20]
 1777              	.LVL246:
 1778 0028 9847     		blx	r3
 1779              	.LVL247:
 1780              	.L102:
 129:Source\azure_iot_sdk\c-utility\adapters/tlsio_mbedtls.c ****     {
 1781              		.loc 1 129 0
 1782 002a 002C     		cmp	r4, #0
ARM GAS  C:\Users\Phuong\AppData\Local\Temp\ccP1LXIT.s 			page 45


 1783 002c EDDC     		bgt	.L104
 142:Source\azure_iot_sdk\c-utility\adapters/tlsio_mbedtls.c **** 
 1784              		.loc 1 142 0
 1785 002e 0020     		movs	r0, #0
 1786 0030 11B0     		add	sp, sp, #68
 1787              		@ sp needed
 1788              	.LVL248:
 1789              	.LVL249:
 1790 0032 30BD     		pop	{r4, r5, pc}
 1791              		.cfi_endproc
 1792              	.LFE20:
 1793              		.size	decode_ssl_received_bytes, .-decode_ssl_received_bytes
 1794              		.section	.text.tlsio_mbedtls_dowork,"ax",%progbits
 1795              		.align	2
 1796              		.global	tlsio_mbedtls_dowork
 1797              		.code	16
 1798              		.thumb_func
 1799              		.type	tlsio_mbedtls_dowork, %function
 1800              	tlsio_mbedtls_dowork:
 1801              	.LFB34:
 620:Source\azure_iot_sdk\c-utility\adapters/tlsio_mbedtls.c **** 
 621:Source\azure_iot_sdk\c-utility\adapters/tlsio_mbedtls.c **** void tlsio_mbedtls_dowork(CONCRETE_IO_HANDLE tls_io)
 622:Source\azure_iot_sdk\c-utility\adapters/tlsio_mbedtls.c **** {
 1802              		.loc 1 622 0
 1803              		.cfi_startproc
 1804              		@ args = 0, pretend = 0, frame = 0
 1805              		@ frame_needed = 0, uses_anonymous_args = 0
 1806              	.LVL250:
 1807 0000 10B5     		push	{r4, lr}
 1808              		.cfi_def_cfa_offset 8
 1809              		.cfi_offset 4, -8
 1810              		.cfi_offset 14, -4
 1811 0002 041E     		subs	r4, r0, #0
 623:Source\azure_iot_sdk\c-utility\adapters/tlsio_mbedtls.c ****     if (tls_io != NULL)
 1812              		.loc 1 623 0
 1813 0004 0AD0     		beq	.L105
 1814              	.LVL251:
 1815              	.LBB34:
 624:Source\azure_iot_sdk\c-utility\adapters/tlsio_mbedtls.c ****     {
 625:Source\azure_iot_sdk\c-utility\adapters/tlsio_mbedtls.c ****         TLS_IO_INSTANCE* tls_io_instance = (TLS_IO_INSTANCE*)tls_io;
 626:Source\azure_iot_sdk\c-utility\adapters/tlsio_mbedtls.c **** 
 627:Source\azure_iot_sdk\c-utility\adapters/tlsio_mbedtls.c ****         if ((tls_io_instance->tlsio_state != TLSIO_STATE_NOT_OPEN) &&
 1816              		.loc 1 627 0
 1817 0006 2423     		movs	r3, #36
 1818 0008 C35C     		ldrb	r3, [r0, r3]
 1819 000a 002B     		cmp	r3, #0
 1820 000c 06D0     		beq	.L105
 1821              		.loc 1 627 0 is_stmt 0 discriminator 1
 1822 000e 052B     		cmp	r3, #5
 1823 0010 04D0     		beq	.L105
 628:Source\azure_iot_sdk\c-utility\adapters/tlsio_mbedtls.c ****             (tls_io_instance->tlsio_state != TLSIO_STATE_ERROR))
 629:Source\azure_iot_sdk\c-utility\adapters/tlsio_mbedtls.c ****         {
 630:Source\azure_iot_sdk\c-utility\adapters/tlsio_mbedtls.c ****             decode_ssl_received_bytes(tls_io_instance);
 1824              		.loc 1 630 0 is_stmt 1
 1825 0012 FFF7FEFF 		bl	decode_ssl_received_bytes
 1826              	.LVL252:
 631:Source\azure_iot_sdk\c-utility\adapters/tlsio_mbedtls.c ****             xio_dowork(tls_io_instance->socket_io);
ARM GAS  C:\Users\Phuong\AppData\Local\Temp\ccP1LXIT.s 			page 46


 1827              		.loc 1 631 0
 1828 0016 2068     		ldr	r0, [r4]
 1829 0018 FFF7FEFF 		bl	xio_dowork
 1830              	.LVL253:
 1831              	.L105:
 1832              	.LBE34:
 632:Source\azure_iot_sdk\c-utility\adapters/tlsio_mbedtls.c ****         }
 633:Source\azure_iot_sdk\c-utility\adapters/tlsio_mbedtls.c ****     }
 634:Source\azure_iot_sdk\c-utility\adapters/tlsio_mbedtls.c **** }
 1833              		.loc 1 634 0
 1834              		@ sp needed
 1835              	.LVL254:
 1836 001c 10BD     		pop	{r4, pc}
 1837              		.cfi_endproc
 1838              	.LFE34:
 1839              		.size	tlsio_mbedtls_dowork, .-tlsio_mbedtls_dowork
 1840 001e C046     		.section	.text.tlsio_mbedtls_retrieveoptions,"ax",%progbits
 1841              		.align	2
 1842              		.global	tlsio_mbedtls_retrieveoptions
 1843              		.code	16
 1844              		.thumb_func
 1845              		.type	tlsio_mbedtls_retrieveoptions, %function
 1846              	tlsio_mbedtls_retrieveoptions:
 1847              	.LFB38:
 635:Source\azure_iot_sdk\c-utility\adapters/tlsio_mbedtls.c **** 
 636:Source\azure_iot_sdk\c-utility\adapters/tlsio_mbedtls.c **** const IO_INTERFACE_DESCRIPTION* tlsio_mbedtls_get_interface_description(void)
 637:Source\azure_iot_sdk\c-utility\adapters/tlsio_mbedtls.c **** {
 638:Source\azure_iot_sdk\c-utility\adapters/tlsio_mbedtls.c ****     return &tlsio_mbedtls_interface_description;
 639:Source\azure_iot_sdk\c-utility\adapters/tlsio_mbedtls.c **** }
 640:Source\azure_iot_sdk\c-utility\adapters/tlsio_mbedtls.c **** 
 641:Source\azure_iot_sdk\c-utility\adapters/tlsio_mbedtls.c **** /*this function will clone an option given by name and value*/
 642:Source\azure_iot_sdk\c-utility\adapters/tlsio_mbedtls.c **** static void* tlsio_mbedtls_CloneOption(const char* name, const void* value)
 643:Source\azure_iot_sdk\c-utility\adapters/tlsio_mbedtls.c **** {
 644:Source\azure_iot_sdk\c-utility\adapters/tlsio_mbedtls.c ****     void* result;
 645:Source\azure_iot_sdk\c-utility\adapters/tlsio_mbedtls.c ****     if ((name == NULL) || (value == NULL))
 646:Source\azure_iot_sdk\c-utility\adapters/tlsio_mbedtls.c ****     {
 647:Source\azure_iot_sdk\c-utility\adapters/tlsio_mbedtls.c ****         LogError("invalid parameter detected: const char* name=%p, const void* value=%p", name, val
 648:Source\azure_iot_sdk\c-utility\adapters/tlsio_mbedtls.c ****         result = NULL;
 649:Source\azure_iot_sdk\c-utility\adapters/tlsio_mbedtls.c ****     }
 650:Source\azure_iot_sdk\c-utility\adapters/tlsio_mbedtls.c ****     else
 651:Source\azure_iot_sdk\c-utility\adapters/tlsio_mbedtls.c ****     {
 652:Source\azure_iot_sdk\c-utility\adapters/tlsio_mbedtls.c ****         if (strcmp(name, OPTION_UNDERLYING_IO_OPTIONS) == 0)
 653:Source\azure_iot_sdk\c-utility\adapters/tlsio_mbedtls.c ****         {
 654:Source\azure_iot_sdk\c-utility\adapters/tlsio_mbedtls.c ****             result = (void*)value;
 655:Source\azure_iot_sdk\c-utility\adapters/tlsio_mbedtls.c ****         }
 656:Source\azure_iot_sdk\c-utility\adapters/tlsio_mbedtls.c ****         else if (strcmp(name, OPTION_TRUSTED_CERT) == 0)
 657:Source\azure_iot_sdk\c-utility\adapters/tlsio_mbedtls.c ****         {
 658:Source\azure_iot_sdk\c-utility\adapters/tlsio_mbedtls.c ****             if (mallocAndStrcpy_s((char**)&result, value) != 0)
 659:Source\azure_iot_sdk\c-utility\adapters/tlsio_mbedtls.c ****             {
 660:Source\azure_iot_sdk\c-utility\adapters/tlsio_mbedtls.c ****                 LogError("unable to mallocAndStrcpy_s TrustedCerts value");
 661:Source\azure_iot_sdk\c-utility\adapters/tlsio_mbedtls.c ****                 result = NULL;
 662:Source\azure_iot_sdk\c-utility\adapters/tlsio_mbedtls.c ****             }
 663:Source\azure_iot_sdk\c-utility\adapters/tlsio_mbedtls.c ****             else
 664:Source\azure_iot_sdk\c-utility\adapters/tlsio_mbedtls.c ****             {
 665:Source\azure_iot_sdk\c-utility\adapters/tlsio_mbedtls.c ****                 /*return as is*/
 666:Source\azure_iot_sdk\c-utility\adapters/tlsio_mbedtls.c ****             }
 667:Source\azure_iot_sdk\c-utility\adapters/tlsio_mbedtls.c ****         }
ARM GAS  C:\Users\Phuong\AppData\Local\Temp\ccP1LXIT.s 			page 47


 668:Source\azure_iot_sdk\c-utility\adapters/tlsio_mbedtls.c ****         else
 669:Source\azure_iot_sdk\c-utility\adapters/tlsio_mbedtls.c ****         {
 670:Source\azure_iot_sdk\c-utility\adapters/tlsio_mbedtls.c ****             LogError("not handled option : %s", name);
 671:Source\azure_iot_sdk\c-utility\adapters/tlsio_mbedtls.c ****             result = NULL;
 672:Source\azure_iot_sdk\c-utility\adapters/tlsio_mbedtls.c ****         }
 673:Source\azure_iot_sdk\c-utility\adapters/tlsio_mbedtls.c ****     }
 674:Source\azure_iot_sdk\c-utility\adapters/tlsio_mbedtls.c ****     return result;
 675:Source\azure_iot_sdk\c-utility\adapters/tlsio_mbedtls.c **** }
 676:Source\azure_iot_sdk\c-utility\adapters/tlsio_mbedtls.c **** 
 677:Source\azure_iot_sdk\c-utility\adapters/tlsio_mbedtls.c **** /*this function destroys an option previously created*/
 678:Source\azure_iot_sdk\c-utility\adapters/tlsio_mbedtls.c **** static void tlsio_mbedtls_DestroyOption(const char* name, const void* value)
 679:Source\azure_iot_sdk\c-utility\adapters/tlsio_mbedtls.c **** {
 680:Source\azure_iot_sdk\c-utility\adapters/tlsio_mbedtls.c ****     /*since all options for this layer are actually string copies., disposing of one is just callin
 681:Source\azure_iot_sdk\c-utility\adapters/tlsio_mbedtls.c ****     if (name == NULL || value == NULL)
 682:Source\azure_iot_sdk\c-utility\adapters/tlsio_mbedtls.c ****     {
 683:Source\azure_iot_sdk\c-utility\adapters/tlsio_mbedtls.c ****         LogError("invalid parameter detected: const char* name=%p, const void* value=%p", name, val
 684:Source\azure_iot_sdk\c-utility\adapters/tlsio_mbedtls.c ****     }
 685:Source\azure_iot_sdk\c-utility\adapters/tlsio_mbedtls.c ****     else
 686:Source\azure_iot_sdk\c-utility\adapters/tlsio_mbedtls.c ****     {
 687:Source\azure_iot_sdk\c-utility\adapters/tlsio_mbedtls.c ****         if (strcmp(name, OPTION_TRUSTED_CERT) == 0)
 688:Source\azure_iot_sdk\c-utility\adapters/tlsio_mbedtls.c ****         {
 689:Source\azure_iot_sdk\c-utility\adapters/tlsio_mbedtls.c ****             free((void*)value);
 690:Source\azure_iot_sdk\c-utility\adapters/tlsio_mbedtls.c ****         }
 691:Source\azure_iot_sdk\c-utility\adapters/tlsio_mbedtls.c ****         else if (strcmp(name, OPTION_UNDERLYING_IO_OPTIONS) == 0)
 692:Source\azure_iot_sdk\c-utility\adapters/tlsio_mbedtls.c ****         {
 693:Source\azure_iot_sdk\c-utility\adapters/tlsio_mbedtls.c ****             OptionHandler_Destroy((OPTIONHANDLER_HANDLE)value);
 694:Source\azure_iot_sdk\c-utility\adapters/tlsio_mbedtls.c ****         }
 695:Source\azure_iot_sdk\c-utility\adapters/tlsio_mbedtls.c ****         else
 696:Source\azure_iot_sdk\c-utility\adapters/tlsio_mbedtls.c ****         {
 697:Source\azure_iot_sdk\c-utility\adapters/tlsio_mbedtls.c ****             LogError("not handled option : %s", name);
 698:Source\azure_iot_sdk\c-utility\adapters/tlsio_mbedtls.c ****         }
 699:Source\azure_iot_sdk\c-utility\adapters/tlsio_mbedtls.c ****     }
 700:Source\azure_iot_sdk\c-utility\adapters/tlsio_mbedtls.c **** }
 701:Source\azure_iot_sdk\c-utility\adapters/tlsio_mbedtls.c **** 
 702:Source\azure_iot_sdk\c-utility\adapters/tlsio_mbedtls.c **** OPTIONHANDLER_HANDLE tlsio_mbedtls_retrieveoptions(CONCRETE_IO_HANDLE handle)
 703:Source\azure_iot_sdk\c-utility\adapters/tlsio_mbedtls.c **** {
 1848              		.loc 1 703 0
 1849              		.cfi_startproc
 1850              		@ args = 0, pretend = 0, frame = 0
 1851              		@ frame_needed = 0, uses_anonymous_args = 0
 1852              	.LVL255:
 1853 0000 70B5     		push	{r4, r5, r6, lr}
 1854              		.cfi_def_cfa_offset 16
 1855              		.cfi_offset 4, -16
 1856              		.cfi_offset 5, -12
 1857              		.cfi_offset 6, -8
 1858              		.cfi_offset 14, -4
 1859 0002 84B0     		sub	sp, sp, #16
 1860              		.cfi_def_cfa_offset 32
 1861 0004 051E     		subs	r5, r0, #0
 704:Source\azure_iot_sdk\c-utility\adapters/tlsio_mbedtls.c ****     OPTIONHANDLER_HANDLE result;
 705:Source\azure_iot_sdk\c-utility\adapters/tlsio_mbedtls.c ****     if (handle == NULL)
 1862              		.loc 1 705 0
 1863 0006 10D1     		bne	.L108
 1864              	.LBB35:
 706:Source\azure_iot_sdk\c-utility\adapters/tlsio_mbedtls.c ****     {
 707:Source\azure_iot_sdk\c-utility\adapters/tlsio_mbedtls.c ****         LogError("invalid parameter detected: CONCRETE_IO_HANDLE handle=%p", handle);
ARM GAS  C:\Users\Phuong\AppData\Local\Temp\ccP1LXIT.s 			page 48


 1865              		.loc 1 707 0 discriminator 3
 1866 0008 FFF7FEFF 		bl	xlogging_get_log_function
 1867              	.LVL256:
 1868 000c 041E     		subs	r4, r0, #0
 1869              	.LVL257:
 1870 000e 62D0     		beq	.L115
 1871              		.loc 1 707 0 is_stmt 0 discriminator 4
 1872 0010 0295     		str	r5, [sp, #8]
 1873 0012 334B     		ldr	r3, .L116
 1874 0014 0193     		str	r3, [sp, #4]
 1875 0016 0123     		movs	r3, #1
 1876 0018 0093     		str	r3, [sp]
 1877 001a 324B     		ldr	r3, .L116+4
 1878 001c 324A     		ldr	r2, .L116+8
 1879 001e 4C32     		adds	r2, r2, #76
 1880 0020 3249     		ldr	r1, .L116+12
 1881 0022 0020     		movs	r0, #0
 1882              	.LVL258:
 1883 0024 A047     		blx	r4
 1884              	.LVL259:
 1885              	.LBE35:
 708:Source\azure_iot_sdk\c-utility\adapters/tlsio_mbedtls.c ****         result = NULL;
 1886              		.loc 1 708 0 is_stmt 1 discriminator 4
 1887 0026 0024     		movs	r4, #0
 1888              	.LVL260:
 1889 0028 56E0     		b	.L109
 1890              	.LVL261:
 1891              	.L108:
 709:Source\azure_iot_sdk\c-utility\adapters/tlsio_mbedtls.c ****     }
 710:Source\azure_iot_sdk\c-utility\adapters/tlsio_mbedtls.c ****     else
 711:Source\azure_iot_sdk\c-utility\adapters/tlsio_mbedtls.c ****     {
 712:Source\azure_iot_sdk\c-utility\adapters/tlsio_mbedtls.c ****         result = OptionHandler_Create(tlsio_mbedtls_CloneOption, tlsio_mbedtls_DestroyOption, tlsio
 1892              		.loc 1 712 0
 1893 002a 314A     		ldr	r2, .L116+16
 1894 002c 3149     		ldr	r1, .L116+20
 1895 002e 3248     		ldr	r0, .L116+24
 1896              	.LVL262:
 1897 0030 FFF7FEFF 		bl	OptionHandler_Create
 1898              	.LVL263:
 1899 0034 041E     		subs	r4, r0, #0
 1900              	.LVL264:
 713:Source\azure_iot_sdk\c-utility\adapters/tlsio_mbedtls.c ****         if (result == NULL)
 1901              		.loc 1 713 0
 1902 0036 0ED1     		bne	.L110
 1903              	.LBB36:
 714:Source\azure_iot_sdk\c-utility\adapters/tlsio_mbedtls.c ****         {
 715:Source\azure_iot_sdk\c-utility\adapters/tlsio_mbedtls.c ****             LogError("unable to OptionHandler_Create");
 1904              		.loc 1 715 0 discriminator 3
 1905 0038 FFF7FEFF 		bl	xlogging_get_log_function
 1906              	.LVL265:
 1907 003c 051E     		subs	r5, r0, #0
 1908              	.LVL266:
 1909 003e 4BD0     		beq	.L109
 1910              		.loc 1 715 0 is_stmt 0 discriminator 4
 1911 0040 2E4B     		ldr	r3, .L116+28
 1912 0042 0193     		str	r3, [sp, #4]
 1913 0044 0123     		movs	r3, #1
ARM GAS  C:\Users\Phuong\AppData\Local\Temp\ccP1LXIT.s 			page 49


 1914 0046 0093     		str	r3, [sp]
 1915 0048 2D4B     		ldr	r3, .L116+32
 1916 004a 274A     		ldr	r2, .L116+8
 1917 004c 4C32     		adds	r2, r2, #76
 1918 004e 2749     		ldr	r1, .L116+12
 1919 0050 0020     		movs	r0, #0
 1920              	.LVL267:
 1921 0052 A847     		blx	r5
 1922              	.LVL268:
 1923 0054 40E0     		b	.L109
 1924              	.LVL269:
 1925              	.L110:
 1926              	.LBE36:
 1927              	.LBB37:
 716:Source\azure_iot_sdk\c-utility\adapters/tlsio_mbedtls.c ****             /*return as is*/
 717:Source\azure_iot_sdk\c-utility\adapters/tlsio_mbedtls.c ****         }
 718:Source\azure_iot_sdk\c-utility\adapters/tlsio_mbedtls.c ****         else
 719:Source\azure_iot_sdk\c-utility\adapters/tlsio_mbedtls.c ****         {
 720:Source\azure_iot_sdk\c-utility\adapters/tlsio_mbedtls.c ****             /*this layer cares about the certificates*/
 721:Source\azure_iot_sdk\c-utility\adapters/tlsio_mbedtls.c ****             TLS_IO_INSTANCE* tls_io_instance = (TLS_IO_INSTANCE*)handle;
 722:Source\azure_iot_sdk\c-utility\adapters/tlsio_mbedtls.c ****             OPTIONHANDLER_HANDLE underlying_io_options;
 723:Source\azure_iot_sdk\c-utility\adapters/tlsio_mbedtls.c **** 
 724:Source\azure_iot_sdk\c-utility\adapters/tlsio_mbedtls.c ****             if ((underlying_io_options = xio_retrieveoptions(tls_io_instance->socket_io)) == NULL |
 1928              		.loc 1 724 0 is_stmt 1
 1929 0056 2868     		ldr	r0, [r5]
 1930              	.LVL270:
 1931 0058 FFF7FEFF 		bl	xio_retrieveoptions
 1932              	.LVL271:
 1933 005c 061E     		subs	r6, r0, #0
 1934              	.LVL272:
 1935 005e 06D0     		beq	.L111
 725:Source\azure_iot_sdk\c-utility\adapters/tlsio_mbedtls.c ****                 OptionHandler_AddOption(result, OPTION_UNDERLYING_IO_OPTIONS, underlying_io_options
 1936              		.loc 1 725 0 discriminator 1
 1937 0060 0200     		movs	r2, r0
 1938 0062 2849     		ldr	r1, .L116+36
 1939 0064 2000     		movs	r0, r4
 1940              	.LVL273:
 1941 0066 FFF7FEFF 		bl	OptionHandler_AddOption
 1942              	.LVL274:
 724:Source\azure_iot_sdk\c-utility\adapters/tlsio_mbedtls.c ****                 OptionHandler_AddOption(result, OPTION_UNDERLYING_IO_OPTIONS, underlying_io_options
 1943              		.loc 1 724 0 discriminator 1
 1944 006a 0028     		cmp	r0, #0
 1945 006c 15D0     		beq	.L112
 1946              	.L111:
 1947              	.LBB38:
 726:Source\azure_iot_sdk\c-utility\adapters/tlsio_mbedtls.c ****             {
 727:Source\azure_iot_sdk\c-utility\adapters/tlsio_mbedtls.c ****                 LogError("unable to save underlying_io options");
 1948              		.loc 1 727 0 discriminator 3
 1949 006e FFF7FEFF 		bl	xlogging_get_log_function
 1950              	.LVL275:
 1951 0072 051E     		subs	r5, r0, #0
 1952              	.LVL276:
 1953 0074 09D0     		beq	.L113
 1954              		.loc 1 727 0 is_stmt 0 discriminator 4
 1955 0076 244B     		ldr	r3, .L116+40
 1956 0078 0193     		str	r3, [sp, #4]
 1957 007a 0123     		movs	r3, #1
ARM GAS  C:\Users\Phuong\AppData\Local\Temp\ccP1LXIT.s 			page 50


 1958 007c 0093     		str	r3, [sp]
 1959 007e 234B     		ldr	r3, .L116+44
 1960 0080 194A     		ldr	r2, .L116+8
 1961 0082 4C32     		adds	r2, r2, #76
 1962 0084 1949     		ldr	r1, .L116+12
 1963 0086 0020     		movs	r0, #0
 1964              	.LVL277:
 1965 0088 A847     		blx	r5
 1966              	.LVL278:
 1967              	.L113:
 1968              	.LBE38:
 728:Source\azure_iot_sdk\c-utility\adapters/tlsio_mbedtls.c ****                 OptionHandler_Destroy(underlying_io_options);
 1969              		.loc 1 728 0 is_stmt 1
 1970 008a 3000     		movs	r0, r6
 1971 008c FFF7FEFF 		bl	OptionHandler_Destroy
 1972              	.LVL279:
 729:Source\azure_iot_sdk\c-utility\adapters/tlsio_mbedtls.c ****                 OptionHandler_Destroy(result);
 1973              		.loc 1 729 0
 1974 0090 2000     		movs	r0, r4
 1975 0092 FFF7FEFF 		bl	OptionHandler_Destroy
 1976              	.LVL280:
 730:Source\azure_iot_sdk\c-utility\adapters/tlsio_mbedtls.c ****                 result = NULL;
 1977              		.loc 1 730 0
 1978 0096 0024     		movs	r4, #0
 1979 0098 1EE0     		b	.L109
 1980              	.LVL281:
 1981              	.L112:
 731:Source\azure_iot_sdk\c-utility\adapters/tlsio_mbedtls.c ****             }
 732:Source\azure_iot_sdk\c-utility\adapters/tlsio_mbedtls.c ****             else if (tls_io_instance->trusted_certificates != NULL &&
 1982              		.loc 1 732 0
 1983 009a F123     		movs	r3, #241
 1984 009c DB00     		lsls	r3, r3, #3
 1985 009e EA58     		ldr	r2, [r5, r3]
 1986 00a0 002A     		cmp	r2, #0
 1987 00a2 19D0     		beq	.L109
 733:Source\azure_iot_sdk\c-utility\adapters/tlsio_mbedtls.c ****                 OptionHandler_AddOption(result, OPTION_TRUSTED_CERT, tls_io_instance->trusted_certi
 1988              		.loc 1 733 0 discriminator 1
 1989 00a4 1A49     		ldr	r1, .L116+48
 1990 00a6 2000     		movs	r0, r4
 1991 00a8 FFF7FEFF 		bl	OptionHandler_AddOption
 1992              	.LVL282:
 732:Source\azure_iot_sdk\c-utility\adapters/tlsio_mbedtls.c ****                 OptionHandler_AddOption(result, OPTION_TRUSTED_CERT, tls_io_instance->trusted_certi
 1993              		.loc 1 732 0 discriminator 1
 1994 00ac 0028     		cmp	r0, #0
 1995 00ae 13D0     		beq	.L109
 1996              	.LBB39:
 734:Source\azure_iot_sdk\c-utility\adapters/tlsio_mbedtls.c ****             {
 735:Source\azure_iot_sdk\c-utility\adapters/tlsio_mbedtls.c ****                 LogError("unable to save TrustedCerts option");
 1997              		.loc 1 735 0 discriminator 3
 1998 00b0 FFF7FEFF 		bl	xlogging_get_log_function
 1999              	.LVL283:
 2000 00b4 051E     		subs	r5, r0, #0
 2001              	.LVL284:
 2002 00b6 09D0     		beq	.L114
 2003              		.loc 1 735 0 is_stmt 0 discriminator 4
 2004 00b8 164B     		ldr	r3, .L116+52
 2005 00ba 0193     		str	r3, [sp, #4]
ARM GAS  C:\Users\Phuong\AppData\Local\Temp\ccP1LXIT.s 			page 51


 2006 00bc 0123     		movs	r3, #1
 2007 00be 0093     		str	r3, [sp]
 2008 00c0 154B     		ldr	r3, .L116+56
 2009 00c2 094A     		ldr	r2, .L116+8
 2010 00c4 4C32     		adds	r2, r2, #76
 2011 00c6 0949     		ldr	r1, .L116+12
 2012 00c8 0020     		movs	r0, #0
 2013              	.LVL285:
 2014 00ca A847     		blx	r5
 2015              	.LVL286:
 2016              	.L114:
 2017              	.LBE39:
 736:Source\azure_iot_sdk\c-utility\adapters/tlsio_mbedtls.c ****                 OptionHandler_Destroy(result);
 2018              		.loc 1 736 0 is_stmt 1
 2019 00cc 2000     		movs	r0, r4
 2020 00ce FFF7FEFF 		bl	OptionHandler_Destroy
 2021              	.LVL287:
 737:Source\azure_iot_sdk\c-utility\adapters/tlsio_mbedtls.c ****                 result = NULL;
 2022              		.loc 1 737 0
 2023 00d2 0024     		movs	r4, #0
 2024 00d4 00E0     		b	.L109
 2025              	.LVL288:
 2026              	.L115:
 2027              	.LBE37:
 708:Source\azure_iot_sdk\c-utility\adapters/tlsio_mbedtls.c ****     }
 2028              		.loc 1 708 0
 2029 00d6 0024     		movs	r4, #0
 2030              	.LVL289:
 2031              	.L109:
 738:Source\azure_iot_sdk\c-utility\adapters/tlsio_mbedtls.c ****             }
 739:Source\azure_iot_sdk\c-utility\adapters/tlsio_mbedtls.c ****             else
 740:Source\azure_iot_sdk\c-utility\adapters/tlsio_mbedtls.c ****             {
 741:Source\azure_iot_sdk\c-utility\adapters/tlsio_mbedtls.c ****                 /*all is fine, all interesting options have been saved*/
 742:Source\azure_iot_sdk\c-utility\adapters/tlsio_mbedtls.c ****                 /*return as is*/
 743:Source\azure_iot_sdk\c-utility\adapters/tlsio_mbedtls.c ****             }
 744:Source\azure_iot_sdk\c-utility\adapters/tlsio_mbedtls.c ****         }
 745:Source\azure_iot_sdk\c-utility\adapters/tlsio_mbedtls.c ****     }
 746:Source\azure_iot_sdk\c-utility\adapters/tlsio_mbedtls.c ****     return result;
 747:Source\azure_iot_sdk\c-utility\adapters/tlsio_mbedtls.c **** }
 2032              		.loc 1 747 0
 2033 00d8 2000     		movs	r0, r4
 2034 00da 04B0     		add	sp, sp, #16
 2035              		@ sp needed
 2036              	.LVL290:
 2037 00dc 70BD     		pop	{r4, r5, r6, pc}
 2038              	.L117:
 2039 00de C046     		.align	2
 2040              	.L116:
 2041 00e0 50010000 		.word	.LC52
 2042 00e4 C3020000 		.word	707
 2043 00e8 80000000 		.word	.LANCHOR1
 2044 00ec 00000000 		.word	.LC1
 2045 00f0 00000000 		.word	tlsio_mbedtls_setoption
 2046 00f4 00000000 		.word	tlsio_mbedtls_DestroyOption
 2047 00f8 00000000 		.word	tlsio_mbedtls_CloneOption
 2048 00fc 8C010000 		.word	.LC57
 2049 0100 CB020000 		.word	715
ARM GAS  C:\Users\Phuong\AppData\Local\Temp\ccP1LXIT.s 			page 52


 2050 0104 AC010000 		.word	.LC59
 2051 0108 C4010000 		.word	.LC61
 2052 010c D7020000 		.word	727
 2053 0110 EC010000 		.word	.LC63
 2054 0114 FC010000 		.word	.LC65
 2055 0118 DF020000 		.word	735
 2056              		.cfi_endproc
 2057              	.LFE38:
 2058              		.size	tlsio_mbedtls_retrieveoptions, .-tlsio_mbedtls_retrieveoptions
 2059              		.section	.text.tlsio_mbedtls_DestroyOption,"ax",%progbits
 2060              		.align	2
 2061              		.code	16
 2062              		.thumb_func
 2063              		.type	tlsio_mbedtls_DestroyOption, %function
 2064              	tlsio_mbedtls_DestroyOption:
 2065              	.LFB37:
 679:Source\azure_iot_sdk\c-utility\adapters/tlsio_mbedtls.c ****     /*since all options for this layer are actually string copies., disposing of one is just callin
 2066              		.loc 1 679 0
 2067              		.cfi_startproc
 2068              		@ args = 0, pretend = 0, frame = 0
 2069              		@ frame_needed = 0, uses_anonymous_args = 0
 2070              	.LVL291:
 2071 0000 70B5     		push	{r4, r5, r6, lr}
 2072              		.cfi_def_cfa_offset 16
 2073              		.cfi_offset 4, -16
 2074              		.cfi_offset 5, -12
 2075              		.cfi_offset 6, -8
 2076              		.cfi_offset 14, -4
 2077 0002 84B0     		sub	sp, sp, #16
 2078              		.cfi_def_cfa_offset 32
 2079 0004 0400     		movs	r4, r0
 2080 0006 0D00     		movs	r5, r1
 681:Source\azure_iot_sdk\c-utility\adapters/tlsio_mbedtls.c ****     {
 2081              		.loc 1 681 0
 2082 0008 0028     		cmp	r0, #0
 2083 000a 01D0     		beq	.L119
 681:Source\azure_iot_sdk\c-utility\adapters/tlsio_mbedtls.c ****     {
 2084              		.loc 1 681 0 is_stmt 0 discriminator 1
 2085 000c 0029     		cmp	r1, #0
 2086 000e 10D1     		bne	.L120
 2087              	.L119:
 2088              	.LBB40:
 683:Source\azure_iot_sdk\c-utility\adapters/tlsio_mbedtls.c ****     }
 2089              		.loc 1 683 0 is_stmt 1 discriminator 3
 2090 0010 FFF7FEFF 		bl	xlogging_get_log_function
 2091              	.LVL292:
 2092 0014 061E     		subs	r6, r0, #0
 2093              	.LVL293:
 2094 0016 2ED0     		beq	.L118
 683:Source\azure_iot_sdk\c-utility\adapters/tlsio_mbedtls.c ****     }
 2095              		.loc 1 683 0 is_stmt 0 discriminator 4
 2096 0018 0395     		str	r5, [sp, #12]
 2097 001a 0294     		str	r4, [sp, #8]
 2098 001c 174B     		ldr	r3, .L124
 2099 001e 0193     		str	r3, [sp, #4]
 2100 0020 0123     		movs	r3, #1
 2101 0022 0093     		str	r3, [sp]
ARM GAS  C:\Users\Phuong\AppData\Local\Temp\ccP1LXIT.s 			page 53


 2102 0024 164B     		ldr	r3, .L124+4
 2103 0026 174A     		ldr	r2, .L124+8
 2104 0028 6C32     		adds	r2, r2, #108
 2105 002a 1749     		ldr	r1, .L124+12
 2106 002c 0020     		movs	r0, #0
 2107              	.LVL294:
 2108 002e B047     		blx	r6
 2109              	.LVL295:
 2110 0030 21E0     		b	.L118
 2111              	.LVL296:
 2112              	.L120:
 2113              	.LBE40:
 687:Source\azure_iot_sdk\c-utility\adapters/tlsio_mbedtls.c ****         {
 2114              		.loc 1 687 0 is_stmt 1
 2115 0032 1649     		ldr	r1, .L124+16
 2116              	.LVL297:
 2117 0034 FFF7FEFF 		bl	strcmp
 2118              	.LVL298:
 2119 0038 0028     		cmp	r0, #0
 2120 003a 03D1     		bne	.L122
 689:Source\azure_iot_sdk\c-utility\adapters/tlsio_mbedtls.c ****         }
 2121              		.loc 1 689 0
 2122 003c 2800     		movs	r0, r5
 2123 003e FFF7FEFF 		bl	free
 2124              	.LVL299:
 2125 0042 18E0     		b	.L118
 2126              	.L122:
 691:Source\azure_iot_sdk\c-utility\adapters/tlsio_mbedtls.c ****         {
 2127              		.loc 1 691 0
 2128 0044 1249     		ldr	r1, .L124+20
 2129 0046 2000     		movs	r0, r4
 2130 0048 FFF7FEFF 		bl	strcmp
 2131              	.LVL300:
 2132 004c 0028     		cmp	r0, #0
 2133 004e 03D1     		bne	.L123
 693:Source\azure_iot_sdk\c-utility\adapters/tlsio_mbedtls.c ****         }
 2134              		.loc 1 693 0
 2135 0050 2800     		movs	r0, r5
 2136 0052 FFF7FEFF 		bl	OptionHandler_Destroy
 2137              	.LVL301:
 2138 0056 0EE0     		b	.L118
 2139              	.L123:
 2140              	.LBB41:
 697:Source\azure_iot_sdk\c-utility\adapters/tlsio_mbedtls.c ****         }
 2141              		.loc 1 697 0 discriminator 3
 2142 0058 FFF7FEFF 		bl	xlogging_get_log_function
 2143              	.LVL302:
 2144 005c 051E     		subs	r5, r0, #0
 2145              	.LVL303:
 2146 005e 0AD0     		beq	.L118
 697:Source\azure_iot_sdk\c-utility\adapters/tlsio_mbedtls.c ****         }
 2147              		.loc 1 697 0 is_stmt 0 discriminator 4
 2148 0060 0294     		str	r4, [sp, #8]
 2149 0062 0C4B     		ldr	r3, .L124+24
 2150 0064 0193     		str	r3, [sp, #4]
 2151 0066 0123     		movs	r3, #1
 2152 0068 0093     		str	r3, [sp]
ARM GAS  C:\Users\Phuong\AppData\Local\Temp\ccP1LXIT.s 			page 54


 2153 006a 0B4B     		ldr	r3, .L124+28
 2154 006c 054A     		ldr	r2, .L124+8
 2155 006e 6C32     		adds	r2, r2, #108
 2156 0070 0549     		ldr	r1, .L124+12
 2157 0072 0020     		movs	r0, #0
 2158              	.LVL304:
 2159 0074 A847     		blx	r5
 2160              	.LVL305:
 2161              	.L118:
 2162              	.LBE41:
 700:Source\azure_iot_sdk\c-utility\adapters/tlsio_mbedtls.c **** 
 2163              		.loc 1 700 0 is_stmt 1
 2164 0076 04B0     		add	sp, sp, #16
 2165              		@ sp needed
 2166              	.LVL306:
 2167 0078 70BD     		pop	{r4, r5, r6, pc}
 2168              	.L125:
 2169 007a C046     		.align	2
 2170              	.L124:
 2171 007c 20020000 		.word	.LC69
 2172 0080 AB020000 		.word	683
 2173 0084 80000000 		.word	.LANCHOR1
 2174 0088 00000000 		.word	.LC1
 2175 008c EC010000 		.word	.LC63
 2176 0090 AC010000 		.word	.LC59
 2177 0094 68020000 		.word	.LC73
 2178 0098 B9020000 		.word	697
 2179              		.cfi_endproc
 2180              	.LFE37:
 2181              		.size	tlsio_mbedtls_DestroyOption, .-tlsio_mbedtls_DestroyOption
 2182              		.section	.text.tlsio_mbedtls_CloneOption,"ax",%progbits
 2183              		.align	2
 2184              		.code	16
 2185              		.thumb_func
 2186              		.type	tlsio_mbedtls_CloneOption, %function
 2187              	tlsio_mbedtls_CloneOption:
 2188              	.LFB36:
 643:Source\azure_iot_sdk\c-utility\adapters/tlsio_mbedtls.c ****     void* result;
 2189              		.loc 1 643 0
 2190              		.cfi_startproc
 2191              		@ args = 0, pretend = 0, frame = 8
 2192              		@ frame_needed = 0, uses_anonymous_args = 0
 2193              	.LVL307:
 2194 0000 70B5     		push	{r4, r5, r6, lr}
 2195              		.cfi_def_cfa_offset 16
 2196              		.cfi_offset 4, -16
 2197              		.cfi_offset 5, -12
 2198              		.cfi_offset 6, -8
 2199              		.cfi_offset 14, -4
 2200 0002 86B0     		sub	sp, sp, #24
 2201              		.cfi_def_cfa_offset 40
 2202 0004 0400     		movs	r4, r0
 2203 0006 0D00     		movs	r5, r1
 645:Source\azure_iot_sdk\c-utility\adapters/tlsio_mbedtls.c ****     {
 2204              		.loc 1 645 0
 2205 0008 0028     		cmp	r0, #0
 2206 000a 01D0     		beq	.L127
ARM GAS  C:\Users\Phuong\AppData\Local\Temp\ccP1LXIT.s 			page 55


 645:Source\azure_iot_sdk\c-utility\adapters/tlsio_mbedtls.c ****     {
 2207              		.loc 1 645 0 is_stmt 0 discriminator 1
 2208 000c 0029     		cmp	r1, #0
 2209 000e 12D1     		bne	.L128
 2210              	.L127:
 2211              	.LBB42:
 647:Source\azure_iot_sdk\c-utility\adapters/tlsio_mbedtls.c ****         result = NULL;
 2212              		.loc 1 647 0 is_stmt 1 discriminator 3
 2213 0010 FFF7FEFF 		bl	xlogging_get_log_function
 2214              	.LVL308:
 2215 0014 061E     		subs	r6, r0, #0
 2216              	.LVL309:
 2217 0016 0BD0     		beq	.L129
 647:Source\azure_iot_sdk\c-utility\adapters/tlsio_mbedtls.c ****         result = NULL;
 2218              		.loc 1 647 0 is_stmt 0 discriminator 4
 2219 0018 0395     		str	r5, [sp, #12]
 2220 001a 0294     		str	r4, [sp, #8]
 2221 001c 224B     		ldr	r3, .L135
 2222 001e 0193     		str	r3, [sp, #4]
 2223 0020 0123     		movs	r3, #1
 2224 0022 0093     		str	r3, [sp]
 2225 0024 214B     		ldr	r3, .L135+4
 2226 0026 224A     		ldr	r2, .L135+8
 2227 0028 0832     		adds	r2, r2, #8
 2228 002a 2249     		ldr	r1, .L135+12
 2229 002c 0020     		movs	r0, #0
 2230              	.LVL310:
 2231 002e B047     		blx	r6
 2232              	.LVL311:
 2233              	.L129:
 2234              	.LBE42:
 648:Source\azure_iot_sdk\c-utility\adapters/tlsio_mbedtls.c ****     }
 2235              		.loc 1 648 0 is_stmt 1
 2236 0030 0023     		movs	r3, #0
 2237 0032 0593     		str	r3, [sp, #20]
 2238 0034 35E0     		b	.L130
 2239              	.LVL312:
 2240              	.L128:
 652:Source\azure_iot_sdk\c-utility\adapters/tlsio_mbedtls.c ****         {
 2241              		.loc 1 652 0
 2242 0036 2049     		ldr	r1, .L135+16
 2243              	.LVL313:
 2244 0038 FFF7FEFF 		bl	strcmp
 2245              	.LVL314:
 2246 003c 0028     		cmp	r0, #0
 2247 003e 01D1     		bne	.L131
 654:Source\azure_iot_sdk\c-utility\adapters/tlsio_mbedtls.c ****         }
 2248              		.loc 1 654 0
 2249 0040 0595     		str	r5, [sp, #20]
 2250 0042 2EE0     		b	.L130
 2251              	.L131:
 656:Source\azure_iot_sdk\c-utility\adapters/tlsio_mbedtls.c ****         {
 2252              		.loc 1 656 0
 2253 0044 1D49     		ldr	r1, .L135+20
 2254 0046 2000     		movs	r0, r4
 2255 0048 FFF7FEFF 		bl	strcmp
 2256              	.LVL315:
ARM GAS  C:\Users\Phuong\AppData\Local\Temp\ccP1LXIT.s 			page 56


 2257 004c 0028     		cmp	r0, #0
 2258 004e 17D1     		bne	.L132
 658:Source\azure_iot_sdk\c-utility\adapters/tlsio_mbedtls.c ****             {
 2259              		.loc 1 658 0
 2260 0050 2900     		movs	r1, r5
 2261 0052 05A8     		add	r0, sp, #20
 2262 0054 FFF7FEFF 		bl	mallocAndStrcpy_s
 2263              	.LVL316:
 2264 0058 0028     		cmp	r0, #0
 2265 005a 22D0     		beq	.L130
 2266              	.LBB43:
 660:Source\azure_iot_sdk\c-utility\adapters/tlsio_mbedtls.c ****                 result = NULL;
 2267              		.loc 1 660 0 discriminator 3
 2268 005c FFF7FEFF 		bl	xlogging_get_log_function
 2269              	.LVL317:
 2270 0060 041E     		subs	r4, r0, #0
 2271              	.LVL318:
 2272 0062 0AD0     		beq	.L133
 660:Source\azure_iot_sdk\c-utility\adapters/tlsio_mbedtls.c ****                 result = NULL;
 2273              		.loc 1 660 0 is_stmt 0 discriminator 4
 2274 0064 164B     		ldr	r3, .L135+24
 2275 0066 0193     		str	r3, [sp, #4]
 2276 0068 0123     		movs	r3, #1
 2277 006a 0093     		str	r3, [sp]
 2278 006c A523     		movs	r3, #165
 2279 006e 9B00     		lsls	r3, r3, #2
 2280 0070 0F4A     		ldr	r2, .L135+8
 2281 0072 0832     		adds	r2, r2, #8
 2282 0074 0F49     		ldr	r1, .L135+12
 2283 0076 0020     		movs	r0, #0
 2284              	.LVL319:
 2285 0078 A047     		blx	r4
 2286              	.LVL320:
 2287              	.L133:
 2288              	.LBE43:
 661:Source\azure_iot_sdk\c-utility\adapters/tlsio_mbedtls.c ****             }
 2289              		.loc 1 661 0 is_stmt 1
 2290 007a 0023     		movs	r3, #0
 2291 007c 0593     		str	r3, [sp, #20]
 2292 007e 10E0     		b	.L130
 2293              	.LVL321:
 2294              	.L132:
 2295              	.LBB44:
 670:Source\azure_iot_sdk\c-utility\adapters/tlsio_mbedtls.c ****             result = NULL;
 2296              		.loc 1 670 0 discriminator 3
 2297 0080 FFF7FEFF 		bl	xlogging_get_log_function
 2298              	.LVL322:
 2299 0084 051E     		subs	r5, r0, #0
 2300              	.LVL323:
 2301 0086 0AD0     		beq	.L134
 670:Source\azure_iot_sdk\c-utility\adapters/tlsio_mbedtls.c ****             result = NULL;
 2302              		.loc 1 670 0 is_stmt 0 discriminator 4
 2303 0088 0294     		str	r4, [sp, #8]
 2304 008a 0E4B     		ldr	r3, .L135+28
 2305 008c 0193     		str	r3, [sp, #4]
 2306 008e 0123     		movs	r3, #1
 2307 0090 0093     		str	r3, [sp]
ARM GAS  C:\Users\Phuong\AppData\Local\Temp\ccP1LXIT.s 			page 57


 2308 0092 0D4B     		ldr	r3, .L135+32
 2309 0094 064A     		ldr	r2, .L135+8
 2310 0096 0832     		adds	r2, r2, #8
 2311 0098 0649     		ldr	r1, .L135+12
 2312 009a 0020     		movs	r0, #0
 2313              	.LVL324:
 2314 009c A847     		blx	r5
 2315              	.LVL325:
 2316              	.L134:
 2317              	.LBE44:
 671:Source\azure_iot_sdk\c-utility\adapters/tlsio_mbedtls.c ****         }
 2318              		.loc 1 671 0 is_stmt 1
 2319 009e 0023     		movs	r3, #0
 2320 00a0 0593     		str	r3, [sp, #20]
 2321              	.LVL326:
 2322              	.L130:
 675:Source\azure_iot_sdk\c-utility\adapters/tlsio_mbedtls.c **** 
 2323              		.loc 1 675 0
 2324 00a2 0598     		ldr	r0, [sp, #20]
 2325 00a4 06B0     		add	sp, sp, #24
 2326              		@ sp needed
 2327 00a6 70BD     		pop	{r4, r5, r6, pc}
 2328              	.L136:
 2329              		.align	2
 2330              	.L135:
 2331 00a8 20020000 		.word	.LC69
 2332 00ac 87020000 		.word	647
 2333 00b0 00010000 		.word	.LANCHOR2
 2334 00b4 00000000 		.word	.LC1
 2335 00b8 AC010000 		.word	.LC59
 2336 00bc EC010000 		.word	.LC63
 2337 00c0 80020000 		.word	.LC80
 2338 00c4 68020000 		.word	.LC73
 2339 00c8 9E020000 		.word	670
 2340              		.cfi_endproc
 2341              	.LFE36:
 2342              		.size	tlsio_mbedtls_CloneOption, .-tlsio_mbedtls_CloneOption
 2343              		.section	.text.tlsio_mbedtls_setoption,"ax",%progbits
 2344              		.align	2
 2345              		.global	tlsio_mbedtls_setoption
 2346              		.code	16
 2347              		.thumb_func
 2348              		.type	tlsio_mbedtls_setoption, %function
 2349              	tlsio_mbedtls_setoption:
 2350              	.LFB39:
 748:Source\azure_iot_sdk\c-utility\adapters/tlsio_mbedtls.c **** 
 749:Source\azure_iot_sdk\c-utility\adapters/tlsio_mbedtls.c **** int tlsio_mbedtls_setoption(CONCRETE_IO_HANDLE tls_io, const char* optionName, const void* value)
 750:Source\azure_iot_sdk\c-utility\adapters/tlsio_mbedtls.c **** {
 2351              		.loc 1 750 0
 2352              		.cfi_startproc
 2353              		@ args = 0, pretend = 0, frame = 0
 2354              		@ frame_needed = 0, uses_anonymous_args = 0
 2355              	.LVL327:
 2356 0000 70B5     		push	{r4, r5, r6, lr}
 2357              		.cfi_def_cfa_offset 16
 2358              		.cfi_offset 4, -16
 2359              		.cfi_offset 5, -12
ARM GAS  C:\Users\Phuong\AppData\Local\Temp\ccP1LXIT.s 			page 58


 2360              		.cfi_offset 6, -8
 2361              		.cfi_offset 14, -4
 2362 0002 82B0     		sub	sp, sp, #8
 2363              		.cfi_def_cfa_offset 24
 2364 0004 0400     		movs	r4, r0
 2365 0006 0D00     		movs	r5, r1
 2366 0008 1600     		movs	r6, r2
 751:Source\azure_iot_sdk\c-utility\adapters/tlsio_mbedtls.c ****     int result;
 752:Source\azure_iot_sdk\c-utility\adapters/tlsio_mbedtls.c **** 
 753:Source\azure_iot_sdk\c-utility\adapters/tlsio_mbedtls.c ****     if (tls_io == NULL || optionName == NULL)
 2367              		.loc 1 753 0
 2368 000a 0028     		cmp	r0, #0
 2369 000c 57D0     		beq	.L143
 2370              		.loc 1 753 0 is_stmt 0 discriminator 1
 2371 000e 0029     		cmp	r1, #0
 2372 0010 57D0     		beq	.L144
 2373              	.LVL328:
 2374              	.LBB45:
 754:Source\azure_iot_sdk\c-utility\adapters/tlsio_mbedtls.c ****     {
 755:Source\azure_iot_sdk\c-utility\adapters/tlsio_mbedtls.c ****         result = __FAILURE__;
 756:Source\azure_iot_sdk\c-utility\adapters/tlsio_mbedtls.c ****     }
 757:Source\azure_iot_sdk\c-utility\adapters/tlsio_mbedtls.c ****     else
 758:Source\azure_iot_sdk\c-utility\adapters/tlsio_mbedtls.c ****     {
 759:Source\azure_iot_sdk\c-utility\adapters/tlsio_mbedtls.c ****         TLS_IO_INSTANCE* tls_io_instance = (TLS_IO_INSTANCE*)tls_io;
 760:Source\azure_iot_sdk\c-utility\adapters/tlsio_mbedtls.c **** 
 761:Source\azure_iot_sdk\c-utility\adapters/tlsio_mbedtls.c ****         if (strcmp(OPTION_TRUSTED_CERT, optionName) == 0)
 2375              		.loc 1 761 0 is_stmt 1
 2376 0012 3048     		ldr	r0, .L147
 2377              	.LVL329:
 2378 0014 FFF7FEFF 		bl	strcmp
 2379              	.LVL330:
 2380 0018 0028     		cmp	r0, #0
 2381 001a 4AD1     		bne	.L139
 762:Source\azure_iot_sdk\c-utility\adapters/tlsio_mbedtls.c ****         {
 763:Source\azure_iot_sdk\c-utility\adapters/tlsio_mbedtls.c ****             if (tls_io_instance->trusted_certificates != NULL)
 2382              		.loc 1 763 0
 2383 001c F123     		movs	r3, #241
 2384 001e DB00     		lsls	r3, r3, #3
 2385 0020 E058     		ldr	r0, [r4, r3]
 2386 0022 0028     		cmp	r0, #0
 2387 0024 05D0     		beq	.L140
 764:Source\azure_iot_sdk\c-utility\adapters/tlsio_mbedtls.c ****             {
 765:Source\azure_iot_sdk\c-utility\adapters/tlsio_mbedtls.c ****                 // Free the memory if it has been previously allocated
 766:Source\azure_iot_sdk\c-utility\adapters/tlsio_mbedtls.c ****                 free(tls_io_instance->trusted_certificates);
 2388              		.loc 1 766 0
 2389 0026 FFF7FEFF 		bl	free
 2390              	.LVL331:
 767:Source\azure_iot_sdk\c-utility\adapters/tlsio_mbedtls.c ****                 tls_io_instance->trusted_certificates = NULL;
 2391              		.loc 1 767 0
 2392 002a 0022     		movs	r2, #0
 2393 002c F123     		movs	r3, #241
 2394 002e DB00     		lsls	r3, r3, #3
 2395 0030 E250     		str	r2, [r4, r3]
 2396              	.L140:
 768:Source\azure_iot_sdk\c-utility\adapters/tlsio_mbedtls.c ****             }
 769:Source\azure_iot_sdk\c-utility\adapters/tlsio_mbedtls.c ****             if (mallocAndStrcpy_s(&tls_io_instance->trusted_certificates, (const char*)value) != 0)
 2397              		.loc 1 769 0
ARM GAS  C:\Users\Phuong\AppData\Local\Temp\ccP1LXIT.s 			page 59


 2398 0032 3100     		movs	r1, r6
 2399 0034 F123     		movs	r3, #241
 2400 0036 DB00     		lsls	r3, r3, #3
 2401 0038 E018     		adds	r0, r4, r3
 2402 003a FFF7FEFF 		bl	mallocAndStrcpy_s
 2403              	.LVL332:
 2404 003e 0028     		cmp	r0, #0
 2405 0040 10D0     		beq	.L141
 2406              	.LBB46:
 770:Source\azure_iot_sdk\c-utility\adapters/tlsio_mbedtls.c ****             {
 771:Source\azure_iot_sdk\c-utility\adapters/tlsio_mbedtls.c ****                 LogError("unable to mallocAndStrcpy_s");
 2407              		.loc 1 771 0 discriminator 3
 2408 0042 FFF7FEFF 		bl	xlogging_get_log_function
 2409              	.LVL333:
 2410 0046 041E     		subs	r4, r0, #0
 2411              	.LVL334:
 2412 0048 3DD0     		beq	.L145
 2413              		.loc 1 771 0 is_stmt 0 discriminator 4
 2414 004a 234B     		ldr	r3, .L147+4
 2415 004c 0193     		str	r3, [sp, #4]
 2416 004e 0123     		movs	r3, #1
 2417 0050 0093     		str	r3, [sp]
 2418 0052 224B     		ldr	r3, .L147+8
 2419 0054 224A     		ldr	r2, .L147+12
 2420 0056 2432     		adds	r2, r2, #36
 2421 0058 2249     		ldr	r1, .L147+16
 2422 005a 0020     		movs	r0, #0
 2423              	.LVL335:
 2424 005c A047     		blx	r4
 2425              	.LVL336:
 2426              	.LBE46:
 772:Source\azure_iot_sdk\c-utility\adapters/tlsio_mbedtls.c ****                 result = __FAILURE__;
 2427              		.loc 1 772 0 is_stmt 1 discriminator 4
 2428 005e C120     		movs	r0, #193
 2429 0060 8000     		lsls	r0, r0, #2
 2430 0062 35E0     		b	.L138
 2431              	.LVL337:
 2432              	.L141:
 2433              	.LBB47:
 773:Source\azure_iot_sdk\c-utility\adapters/tlsio_mbedtls.c ****             }
 774:Source\azure_iot_sdk\c-utility\adapters/tlsio_mbedtls.c ****             else
 775:Source\azure_iot_sdk\c-utility\adapters/tlsio_mbedtls.c ****             {
 776:Source\azure_iot_sdk\c-utility\adapters/tlsio_mbedtls.c ****                 int parse_result = mbedtls_x509_crt_parse(&tls_io_instance->trusted_certificates_pa
 2434              		.loc 1 776 0
 2435 0064 BB23     		movs	r3, #187
 2436 0066 DB00     		lsls	r3, r3, #3
 2437 0068 E518     		adds	r5, r4, r3
 2438              	.LVL338:
 2439 006a 3000     		movs	r0, r6
 2440 006c FFF7FEFF 		bl	strlen
 2441              	.LVL339:
 2442 0070 421C     		adds	r2, r0, #1
 2443 0072 3100     		movs	r1, r6
 2444 0074 2800     		movs	r0, r5
 2445 0076 FFF7FEFF 		bl	mbedtls_x509_crt_parse
 2446              	.LVL340:
 777:Source\azure_iot_sdk\c-utility\adapters/tlsio_mbedtls.c ****                 if (parse_result != 0)
ARM GAS  C:\Users\Phuong\AppData\Local\Temp\ccP1LXIT.s 			page 60


 2447              		.loc 1 777 0
 2448 007a 0028     		cmp	r0, #0
 2449 007c 10D0     		beq	.L142
 2450              	.LBB48:
 778:Source\azure_iot_sdk\c-utility\adapters/tlsio_mbedtls.c ****                 {
 779:Source\azure_iot_sdk\c-utility\adapters/tlsio_mbedtls.c ****                     LogInfo("Malformed pem certificate");
 2451              		.loc 1 779 0 discriminator 3
 2452 007e FFF7FEFF 		bl	xlogging_get_log_function
 2453              	.LVL341:
 2454 0082 041E     		subs	r4, r0, #0
 2455              	.LVL342:
 2456 0084 22D0     		beq	.L146
 2457              		.loc 1 779 0 is_stmt 0 discriminator 4
 2458 0086 184B     		ldr	r3, .L147+20
 2459 0088 0193     		str	r3, [sp, #4]
 2460 008a 0123     		movs	r3, #1
 2461 008c 0093     		str	r3, [sp]
 2462 008e 174B     		ldr	r3, .L147+24
 2463 0090 134A     		ldr	r2, .L147+12
 2464 0092 2432     		adds	r2, r2, #36
 2465 0094 1349     		ldr	r1, .L147+16
 2466 0096 0120     		movs	r0, #1
 2467              	.LVL343:
 2468 0098 A047     		blx	r4
 2469              	.LVL344:
 2470              	.LBE48:
 780:Source\azure_iot_sdk\c-utility\adapters/tlsio_mbedtls.c ****                     result = __FAILURE__;
 2471              		.loc 1 780 0 is_stmt 1 discriminator 4
 2472 009a C320     		movs	r0, #195
 2473 009c 8000     		lsls	r0, r0, #2
 2474 009e 17E0     		b	.L138
 2475              	.LVL345:
 2476              	.L142:
 781:Source\azure_iot_sdk\c-utility\adapters/tlsio_mbedtls.c ****                 }
 782:Source\azure_iot_sdk\c-utility\adapters/tlsio_mbedtls.c ****                 else
 783:Source\azure_iot_sdk\c-utility\adapters/tlsio_mbedtls.c ****                 {
 784:Source\azure_iot_sdk\c-utility\adapters/tlsio_mbedtls.c ****                     mbedtls_ssl_conf_ca_chain(&tls_io_instance->config, &tls_io_instance->trusted_c
 2477              		.loc 1 784 0
 2478 00a0 A123     		movs	r3, #161
 2479 00a2 DB00     		lsls	r3, r3, #3
 2480 00a4 E018     		adds	r0, r4, r3
 2481              	.LVL346:
 2482 00a6 0022     		movs	r2, #0
 2483 00a8 2900     		movs	r1, r5
 2484 00aa FFF7FEFF 		bl	mbedtls_ssl_conf_ca_chain
 2485              	.LVL347:
 785:Source\azure_iot_sdk\c-utility\adapters/tlsio_mbedtls.c ****                     result = 0;
 2486              		.loc 1 785 0
 2487 00ae 0020     		movs	r0, #0
 2488 00b0 0EE0     		b	.L138
 2489              	.LVL348:
 2490              	.L139:
 2491              	.LBE47:
 786:Source\azure_iot_sdk\c-utility\adapters/tlsio_mbedtls.c ****                 }
 787:Source\azure_iot_sdk\c-utility\adapters/tlsio_mbedtls.c ****             }
 788:Source\azure_iot_sdk\c-utility\adapters/tlsio_mbedtls.c ****         }
 789:Source\azure_iot_sdk\c-utility\adapters/tlsio_mbedtls.c ****         else
ARM GAS  C:\Users\Phuong\AppData\Local\Temp\ccP1LXIT.s 			page 61


 790:Source\azure_iot_sdk\c-utility\adapters/tlsio_mbedtls.c ****         {
 791:Source\azure_iot_sdk\c-utility\adapters/tlsio_mbedtls.c ****             // tls_io_instance->socket_io is never NULL
 792:Source\azure_iot_sdk\c-utility\adapters/tlsio_mbedtls.c ****             result = xio_setoption(tls_io_instance->socket_io, optionName, value);
 2492              		.loc 1 792 0
 2493 00b2 2068     		ldr	r0, [r4]
 2494 00b4 3200     		movs	r2, r6
 2495 00b6 2900     		movs	r1, r5
 2496 00b8 FFF7FEFF 		bl	xio_setoption
 2497              	.LVL349:
 2498 00bc 08E0     		b	.L138
 2499              	.LVL350:
 2500              	.L143:
 2501              	.LBE45:
 755:Source\azure_iot_sdk\c-utility\adapters/tlsio_mbedtls.c ****     }
 2502              		.loc 1 755 0
 2503 00be 0C48     		ldr	r0, .L147+28
 2504              	.LVL351:
 2505 00c0 06E0     		b	.L138
 2506              	.LVL352:
 2507              	.L144:
 2508 00c2 0B48     		ldr	r0, .L147+28
 2509              	.LVL353:
 2510 00c4 04E0     		b	.L138
 2511              	.LVL354:
 2512              	.L145:
 2513              	.LBB50:
 772:Source\azure_iot_sdk\c-utility\adapters/tlsio_mbedtls.c ****             }
 2514              		.loc 1 772 0
 2515 00c6 C120     		movs	r0, #193
 2516              	.LVL355:
 2517 00c8 8000     		lsls	r0, r0, #2
 2518 00ca 01E0     		b	.L138
 2519              	.LVL356:
 2520              	.L146:
 2521              	.LBB49:
 780:Source\azure_iot_sdk\c-utility\adapters/tlsio_mbedtls.c ****                 }
 2522              		.loc 1 780 0
 2523 00cc C320     		movs	r0, #195
 2524              	.LVL357:
 2525 00ce 8000     		lsls	r0, r0, #2
 2526              	.LVL358:
 2527              	.L138:
 2528              	.LBE49:
 2529              	.LBE50:
 793:Source\azure_iot_sdk\c-utility\adapters/tlsio_mbedtls.c ****         }
 794:Source\azure_iot_sdk\c-utility\adapters/tlsio_mbedtls.c ****     }
 795:Source\azure_iot_sdk\c-utility\adapters/tlsio_mbedtls.c ****     return result;
 796:Source\azure_iot_sdk\c-utility\adapters/tlsio_mbedtls.c **** }
 2530              		.loc 1 796 0
 2531 00d0 02B0     		add	sp, sp, #8
 2532              		@ sp needed
 2533              	.LVL359:
 2534 00d2 70BD     		pop	{r4, r5, r6, pc}
 2535              	.L148:
 2536              		.align	2
 2537              	.L147:
 2538 00d4 EC010000 		.word	.LC63
ARM GAS  C:\Users\Phuong\AppData\Local\Temp\ccP1LXIT.s 			page 62


 2539 00d8 B0020000 		.word	.LC86
 2540 00dc 03030000 		.word	771
 2541 00e0 00010000 		.word	.LANCHOR2
 2542 00e4 00000000 		.word	.LC1
 2543 00e8 CC020000 		.word	.LC88
 2544 00ec 0B030000 		.word	779
 2545 00f0 F3020000 		.word	755
 2546              		.cfi_endproc
 2547              	.LFE39:
 2548              		.size	tlsio_mbedtls_setoption, .-tlsio_mbedtls_setoption
 2549              		.section	.text.tlsio_mbedtls_get_interface_description,"ax",%progbits
 2550              		.align	2
 2551              		.global	tlsio_mbedtls_get_interface_description
 2552              		.code	16
 2553              		.thumb_func
 2554              		.type	tlsio_mbedtls_get_interface_description, %function
 2555              	tlsio_mbedtls_get_interface_description:
 2556              	.LFB35:
 637:Source\azure_iot_sdk\c-utility\adapters/tlsio_mbedtls.c ****     return &tlsio_mbedtls_interface_description;
 2557              		.loc 1 637 0
 2558              		.cfi_startproc
 2559              		@ args = 0, pretend = 0, frame = 0
 2560              		@ frame_needed = 0, uses_anonymous_args = 0
 2561              		@ link register save eliminated.
 638:Source\azure_iot_sdk\c-utility\adapters/tlsio_mbedtls.c **** }
 2562              		.loc 1 638 0
 2563 0000 0148     		ldr	r0, .L150
 639:Source\azure_iot_sdk\c-utility\adapters/tlsio_mbedtls.c **** 
 2564              		.loc 1 639 0
 2565 0002 3C30     		adds	r0, r0, #60
 2566              		@ sp needed
 2567 0004 7047     		bx	lr
 2568              	.L151:
 2569 0006 C046     		.align	2
 2570              	.L150:
 2571 0008 00010000 		.word	.LANCHOR2
 2572              		.cfi_endproc
 2573              	.LFE35:
 2574              		.size	tlsio_mbedtls_get_interface_description, .-tlsio_mbedtls_get_interface_description
 2575              		.section	.rodata
 2576              		.align	2
 2577              		.set	.LANCHOR0,. + 0
 2578              		.set	.LANCHOR1,. + 128
 2579              		.set	.LANCHOR2,. + 256
 2580              		.type	__func__.9063, %object
 2581              		.size	__func__.9063, 45
 2582              	__func__.9063:
 2583 0000 6F6E5F75 		.ascii	"on_underlying_io_close_complete_during_close\000"
 2583      6E646572 
 2583      6C79696E 
 2583      675F696F 
 2583      5F636C6F 
 2584 002d 000000   		.space	3
 2585              		.type	__func__.9117, %object
 2586              		.size	__func__.9117, 21
 2587              	__func__.9117:
 2588 0030 746C7369 		.ascii	"tlsio_mbedtls_create\000"
ARM GAS  C:\Users\Phuong\AppData\Local\Temp\ccP1LXIT.s 			page 63


 2588      6F5F6D62 
 2588      6564746C 
 2588      735F6372 
 2588      65617465 
 2589 0045 000000   		.space	3
 2590              		.type	__func__.9074, %object
 2591              		.size	__func__.9074, 11
 2592              	__func__.9074:
 2593 0048 6F6E5F69 		.ascii	"on_io_recv\000"
 2593      6F5F7265 
 2593      637600
 2594 0053 00       		.space	1
 2595              		.type	__func__.9041, %object
 2596              		.size	__func__.9041, 32
 2597              	__func__.9041:
 2598 0054 6F6E5F75 		.ascii	"on_underlying_io_bytes_received\000"
 2598      6E646572 
 2598      6C79696E 
 2598      675F696F 
 2598      5F627974 
 2599              		.type	__func__.9091, %object
 2600              		.size	__func__.9091, 11
 2601              	__func__.9091:
 2602 0074 6F6E5F69 		.ascii	"on_io_send\000"
 2602      6F5F7365 
 2602      6E6400
 2603 007f 00       		.space	1
 2604              		.type	__func__.9147, %object
 2605              		.size	__func__.9147, 19
 2606              	__func__.9147:
 2607 0080 746C7369 		.ascii	"tlsio_mbedtls_open\000"
 2607      6F5F6D62 
 2607      6564746C 
 2607      735F6F70 
 2607      656E00
 2608 0093 00       		.space	1
 2609              		.type	__func__.9048, %object
 2610              		.size	__func__.9048, 23
 2611              	__func__.9048:
 2612 0094 6F6E5F75 		.ascii	"on_underlying_io_error\000"
 2612      6E646572 
 2612      6C79696E 
 2612      675F696F 
 2612      5F657272 
 2613 00ab 00       		.space	1
 2614              		.type	__func__.9026, %object
 2615              		.size	__func__.9026, 31
 2616              	__func__.9026:
 2617 00ac 6F6E5F75 		.ascii	"on_underlying_io_open_complete\000"
 2617      6E646572 
 2617      6C79696E 
 2617      675F696F 
 2617      5F6F7065 
 2618 00cb 00       		.space	1
 2619              		.type	__func__.9212, %object
 2620              		.size	__func__.9212, 30
 2621              	__func__.9212:
ARM GAS  C:\Users\Phuong\AppData\Local\Temp\ccP1LXIT.s 			page 64


 2622 00cc 746C7369 		.ascii	"tlsio_mbedtls_retrieveoptions\000"
 2622      6F5F6D62 
 2622      6564746C 
 2622      735F7265 
 2622      74726965 
 2623 00ea 0000     		.space	2
 2624              		.type	__func__.9201, %object
 2625              		.size	__func__.9201, 28
 2626              	__func__.9201:
 2627 00ec 746C7369 		.ascii	"tlsio_mbedtls_DestroyOption\000"
 2627      6F5F6D62 
 2627      6564746C 
 2627      735F4465 
 2627      7374726F 
 2628              		.type	__func__.9187, %object
 2629              		.size	__func__.9187, 26
 2630              	__func__.9187:
 2631 0108 746C7369 		.ascii	"tlsio_mbedtls_CloneOption\000"
 2631      6F5F6D62 
 2631      6564746C 
 2631      735F436C 
 2631      6F6E654F 
 2632 0122 0000     		.space	2
 2633              		.type	__func__.9234, %object
 2634              		.size	__func__.9234, 24
 2635              	__func__.9234:
 2636 0124 746C7369 		.ascii	"tlsio_mbedtls_setoption\000"
 2636      6F5F6D62 
 2636      6564746C 
 2636      735F7365 
 2636      746F7074 
 2637              		.type	tlsio_mbedtls_interface_description, %object
 2638              		.size	tlsio_mbedtls_interface_description, 32
 2639              	tlsio_mbedtls_interface_description:
 2640 013c 00000000 		.word	tlsio_mbedtls_retrieveoptions
 2641 0140 00000000 		.word	tlsio_mbedtls_create
 2642 0144 00000000 		.word	tlsio_mbedtls_destroy
 2643 0148 00000000 		.word	tlsio_mbedtls_open
 2644 014c 00000000 		.word	tlsio_mbedtls_close
 2645 0150 00000000 		.word	tlsio_mbedtls_send
 2646 0154 00000000 		.word	tlsio_mbedtls_dowork
 2647 0158 00000000 		.word	tlsio_mbedtls_setoption
 2648              		.section	.rodata.str1.4,"aMS",%progbits,1
 2649              		.align	2
 2650              	.LC1:
 2651 0000 536F7572 		.ascii	"Source\\azure_iot_sdk\\c-utility\\adapters\\tlsio_m"
 2651      63655C61 
 2651      7A757265 
 2651      5F696F74 
 2651      5F73646B 
 2652 002f 62656474 		.ascii	"bedtls.c\000"
 2652      6C732E63 
 2652      00
 2653              	.LC3:
 2654 0038 496E7661 		.ascii	"Invalid context NULL value passed\000"
 2654      6C696420 
 2654      636F6E74 
ARM GAS  C:\Users\Phuong\AppData\Local\Temp\ccP1LXIT.s 			page 65


 2654      65787420 
 2654      4E554C4C 
 2655 005a 0000     		.space	2
 2656              	.LC6:
 2657 005c 617A7572 		.ascii	"azure_iot_client\000"
 2657      655F696F 
 2657      745F636C 
 2657      69656E74 
 2657      00
 2658 006d 000000   		.space	3
 2659              	.LC14:
 2660 0070 4E554C4C 		.ascii	"NULL tls_io_config\000"
 2660      20746C73 
 2660      5F696F5F 
 2660      636F6E66 
 2660      696700
 2661 0083 00       		.space	1
 2662              	.LC16:
 2663 0084 4661696C 		.ascii	"Failed getting socket IO interface description.\000"
 2663      65642067 
 2663      65747469 
 2663      6E672073 
 2663      6F636B65 
 2664              	.LC18:
 2665 00b4 736F636B 		.ascii	"socket xio create failed\000"
 2665      65742078 
 2665      696F2063 
 2665      72656174 
 2665      65206661 
 2666 00cd 000000   		.space	3
 2667              	.LC20:
 2668 00d0 4661696C 		.ascii	"Failure allocating tlsio.\000"
 2668      75726520 
 2668      616C6C6F 
 2668      63617469 
 2668      6E672074 
 2669 00ea 0000     		.space	2
 2670              	.LC27:
 2671 00ec 4E554C4C 		.ascii	"NULL value passed in context\000"
 2671      2076616C 
 2671      75652070 
 2671      61737365 
 2671      6420696E 
 2672 0109 000000   		.space	3
 2673              	.LC34:
 2674 010c 4E554C4C 		.ascii	"NULL tls_io\000"
 2674      20746C73 
 2674      5F696F00 
 2675              	.LC36:
 2676 0118 494F2073 		.ascii	"IO should not be open: %d\012\000"
 2676      686F756C 
 2676      64206E6F 
 2676      74206265 
 2676      206F7065 
 2677 0133 00       		.space	1
 2678              	.LC41:
 2679 0134 556E6465 		.ascii	"Underlying IO open failed\000"
ARM GAS  C:\Users\Phuong\AppData\Local\Temp\ccP1LXIT.s 			page 66


 2679      726C7969 
 2679      6E672049 
 2679      4F206F70 
 2679      656E2066 
 2680 014e 0000     		.space	2
 2681              	.LC52:
 2682 0150 696E7661 		.ascii	"invalid parameter detected: CONCRETE_IO_HANDLE hand"
 2682      6C696420 
 2682      70617261 
 2682      6D657465 
 2682      72206465 
 2683 0183 6C653D25 		.ascii	"le=%p\000"
 2683      7000
 2684 0189 000000   		.space	3
 2685              	.LC57:
 2686 018c 756E6162 		.ascii	"unable to OptionHandler_Create\000"
 2686      6C652074 
 2686      6F204F70 
 2686      74696F6E 
 2686      48616E64 
 2687 01ab 00       		.space	1
 2688              	.LC59:
 2689 01ac 756E6465 		.ascii	"underlying_io_options\000"
 2689      726C7969 
 2689      6E675F69 
 2689      6F5F6F70 
 2689      74696F6E 
 2690 01c2 0000     		.space	2
 2691              	.LC61:
 2692 01c4 756E6162 		.ascii	"unable to save underlying_io options\000"
 2692      6C652074 
 2692      6F207361 
 2692      76652075 
 2692      6E646572 
 2693 01e9 000000   		.space	3
 2694              	.LC63:
 2695 01ec 54727573 		.ascii	"TrustedCerts\000"
 2695      74656443 
 2695      65727473 
 2695      00
 2696 01f9 000000   		.space	3
 2697              	.LC65:
 2698 01fc 756E6162 		.ascii	"unable to save TrustedCerts option\000"
 2698      6C652074 
 2698      6F207361 
 2698      76652054 
 2698      72757374 
 2699 021f 00       		.space	1
 2700              	.LC69:
 2701 0220 696E7661 		.ascii	"invalid parameter detected: const char* name=%p, co"
 2701      6C696420 
 2701      70617261 
 2701      6D657465 
 2701      72206465 
 2702 0253 6E737420 		.ascii	"nst void* value=%p\000"
 2702      766F6964 
 2702      2A207661 
ARM GAS  C:\Users\Phuong\AppData\Local\Temp\ccP1LXIT.s 			page 67


 2702      6C75653D 
 2702      257000
 2703 0266 0000     		.space	2
 2704              	.LC73:
 2705 0268 6E6F7420 		.ascii	"not handled option : %s\000"
 2705      68616E64 
 2705      6C656420 
 2705      6F707469 
 2705      6F6E203A 
 2706              	.LC80:
 2707 0280 756E6162 		.ascii	"unable to mallocAndStrcpy_s TrustedCerts value\000"
 2707      6C652074 
 2707      6F206D61 
 2707      6C6C6F63 
 2707      416E6453 
 2708 02af 00       		.space	1
 2709              	.LC86:
 2710 02b0 756E6162 		.ascii	"unable to mallocAndStrcpy_s\000"
 2710      6C652074 
 2710      6F206D61 
 2710      6C6C6F63 
 2710      416E6453 
 2711              	.LC88:
 2712 02cc 4D616C66 		.ascii	"Malformed pem certificate\000"
 2712      6F726D65 
 2712      64207065 
 2712      6D206365 
 2712      72746966 
 2713              		.text
 2714              	.Letext0:
 2715              		.file 2 "c:\\program files (x86)\\cypress\\psoc creator\\4.2\\psoc creator\\import\\gnu\\arm\\5.4.
 2716              		.file 3 "c:\\program files (x86)\\cypress\\psoc creator\\4.2\\psoc creator\\import\\gnu\\arm\\5.4.
 2717              		.file 4 "c:\\program files (x86)\\cypress\\psoc creator\\4.2\\psoc creator\\import\\gnu\\arm\\5.4.
 2718              		.file 5 ".\\Source\\mbedtls_open\\include/mbedtls/bignum.h"
 2719              		.file 6 ".\\Source\\mbedtls_open\\include/mbedtls/ecp.h"
 2720              		.file 7 ".\\Source\\mbedtls_open\\include/mbedtls/md.h"
 2721              		.file 8 ".\\Source\\mbedtls_open\\include/mbedtls/pk.h"
 2722              		.file 9 ".\\Source\\mbedtls_open\\include/mbedtls/asn1.h"
 2723              		.file 10 ".\\Source\\mbedtls_open\\include/mbedtls/x509.h"
 2724              		.file 11 ".\\Source\\mbedtls_open\\include/mbedtls/x509_crl.h"
 2725              		.file 12 ".\\Source\\mbedtls_open\\include/mbedtls/x509_crt.h"
 2726              		.file 13 ".\\Source\\mbedtls_open\\include/mbedtls/ssl.h"
 2727              		.file 14 ".\\Source\\mbedtls_open\\include/mbedtls/sha512.h"
 2728              		.file 15 ".\\Source\\mbedtls_open\\include/mbedtls/entropy.h"
 2729              		.file 16 ".\\Source\\mbedtls_open\\include/mbedtls/aes.h"
 2730              		.file 17 ".\\Source\\mbedtls_open\\include/mbedtls/ctr_drbg.h"
 2731              		.file 18 ".\\Source\\azure_iot_sdk\\c-utility\\inc/azure_c_shared_utility/optionhandler.h"
 2732              		.file 19 ".\\Source\\azure_iot_sdk\\c-utility\\inc/azure_c_shared_utility/xio.h"
 2733              		.file 20 ".\\Source\\azure_iot_sdk\\c-utility\\inc/azure_c_shared_utility/tlsio.h"
 2734              		.file 21 ".\\Source\\azure_iot_sdk\\c-utility\\inc/azure_c_shared_utility/xlogging.h"
 2735              		.file 22 ".\\Source\\azure_iot_sdk\\c-utility\\inc/azure_c_shared_utility/socketio.h"
 2736              		.file 23 ".\\Source\\azure_iot_sdk\\c-utility\\inc/azure_c_shared_utility/shared_util_options.h"
 2737              		.file 24 "c:\\program files (x86)\\cypress\\psoc creator\\4.2\\psoc creator\\import\\gnu\\arm\\5.4
 2738              		.file 25 "c:\\program files (x86)\\cypress\\psoc creator\\4.2\\psoc creator\\import\\gnu\\arm\\5.4
 2739              		.file 26 "c:\\program files (x86)\\cypress\\psoc creator\\4.2\\psoc creator\\import\\gnu\\arm\\5.4
 2740              		.file 27 ".\\Source\\azure_iot_sdk\\c-utility\\inc/azure_c_shared_utility/crt_abstractions.h"
 2741              		.section	.debug_info,"",%progbits
ARM GAS  C:\Users\Phuong\AppData\Local\Temp\ccP1LXIT.s 			page 68


 2742              	.Ldebug_info0:
 2743 0000 61370000 		.4byte	0x3761
 2744 0004 0400     		.2byte	0x4
 2745 0006 00000000 		.4byte	.Ldebug_abbrev0
 2746 000a 04       		.byte	0x4
 2747 000b 01       		.uleb128 0x1
 2748 000c BF070000 		.4byte	.LASF479
 2749 0010 0C       		.byte	0xc
 2750 0011 751D0000 		.4byte	.LASF480
 2751 0015 B51A0000 		.4byte	.LASF481
 2752 0019 B0000000 		.4byte	.Ldebug_ranges0+0xb0
 2753 001d 00000000 		.4byte	0
 2754 0021 00000000 		.4byte	.Ldebug_line0
 2755 0025 02       		.uleb128 0x2
 2756 0026 4B000000 		.4byte	.LASF4
 2757 002a 02       		.byte	0x2
 2758 002b D8       		.byte	0xd8
 2759 002c 30000000 		.4byte	0x30
 2760 0030 03       		.uleb128 0x3
 2761 0031 04       		.byte	0x4
 2762 0032 07       		.byte	0x7
 2763 0033 2A100000 		.4byte	.LASF0
 2764 0037 04       		.uleb128 0x4
 2765 0038 04       		.byte	0x4
 2766 0039 05       		.byte	0x5
 2767 003a 696E7400 		.ascii	"int\000"
 2768 003e 03       		.uleb128 0x3
 2769 003f 08       		.byte	0x8
 2770 0040 05       		.byte	0x5
 2771 0041 7A0E0000 		.4byte	.LASF1
 2772 0045 03       		.uleb128 0x3
 2773 0046 08       		.byte	0x8
 2774 0047 04       		.byte	0x4
 2775 0048 85120000 		.4byte	.LASF2
 2776 004c 03       		.uleb128 0x3
 2777 004d 01       		.byte	0x1
 2778 004e 06       		.byte	0x6
 2779 004f ED050000 		.4byte	.LASF3
 2780 0053 02       		.uleb128 0x2
 2781 0054 B8030000 		.4byte	.LASF5
 2782 0058 03       		.byte	0x3
 2783 0059 1D       		.byte	0x1d
 2784 005a 5E000000 		.4byte	0x5e
 2785 005e 03       		.uleb128 0x3
 2786 005f 01       		.byte	0x1
 2787 0060 08       		.byte	0x8
 2788 0061 D1060000 		.4byte	.LASF6
 2789 0065 03       		.uleb128 0x3
 2790 0066 02       		.byte	0x2
 2791 0067 05       		.byte	0x5
 2792 0068 8D180000 		.4byte	.LASF7
 2793 006c 02       		.uleb128 0x2
 2794 006d 95080000 		.4byte	.LASF8
 2795 0071 03       		.byte	0x3
 2796 0072 2B       		.byte	0x2b
 2797 0073 77000000 		.4byte	0x77
 2798 0077 03       		.uleb128 0x3
ARM GAS  C:\Users\Phuong\AppData\Local\Temp\ccP1LXIT.s 			page 69


 2799 0078 02       		.byte	0x2
 2800 0079 07       		.byte	0x7
 2801 007a DE1C0000 		.4byte	.LASF9
 2802 007e 03       		.uleb128 0x3
 2803 007f 04       		.byte	0x4
 2804 0080 05       		.byte	0x5
 2805 0081 87040000 		.4byte	.LASF10
 2806 0085 02       		.uleb128 0x2
 2807 0086 630E0000 		.4byte	.LASF11
 2808 008a 03       		.byte	0x3
 2809 008b 41       		.byte	0x41
 2810 008c 90000000 		.4byte	0x90
 2811 0090 03       		.uleb128 0x3
 2812 0091 04       		.byte	0x4
 2813 0092 07       		.byte	0x7
 2814 0093 C00B0000 		.4byte	.LASF12
 2815 0097 02       		.uleb128 0x2
 2816 0098 830B0000 		.4byte	.LASF13
 2817 009c 03       		.byte	0x3
 2818 009d 5B       		.byte	0x5b
 2819 009e A2000000 		.4byte	0xa2
 2820 00a2 03       		.uleb128 0x3
 2821 00a3 08       		.byte	0x8
 2822 00a4 07       		.byte	0x7
 2823 00a5 0C140000 		.4byte	.LASF14
 2824 00a9 03       		.uleb128 0x3
 2825 00aa 04       		.byte	0x4
 2826 00ab 07       		.byte	0x7
 2827 00ac 65000000 		.4byte	.LASF15
 2828 00b0 05       		.uleb128 0x5
 2829 00b1 04       		.byte	0x4
 2830 00b2 06       		.uleb128 0x6
 2831 00b3 04       		.byte	0x4
 2832 00b4 B8000000 		.4byte	0xb8
 2833 00b8 03       		.uleb128 0x3
 2834 00b9 01       		.byte	0x1
 2835 00ba 08       		.byte	0x8
 2836 00bb 65080000 		.4byte	.LASF16
 2837 00bf 06       		.uleb128 0x6
 2838 00c0 04       		.byte	0x4
 2839 00c1 5E000000 		.4byte	0x5e
 2840 00c5 06       		.uleb128 0x6
 2841 00c6 04       		.byte	0x4
 2842 00c7 CB000000 		.4byte	0xcb
 2843 00cb 07       		.uleb128 0x7
 2844 00cc B8000000 		.4byte	0xb8
 2845 00d0 06       		.uleb128 0x6
 2846 00d1 04       		.byte	0x4
 2847 00d2 D6000000 		.4byte	0xd6
 2848 00d6 08       		.uleb128 0x8
 2849 00d7 02       		.uleb128 0x2
 2850 00d8 10060000 		.4byte	.LASF17
 2851 00dc 04       		.byte	0x4
 2852 00dd 18       		.byte	0x18
 2853 00de 53000000 		.4byte	0x53
 2854 00e2 02       		.uleb128 0x2
 2855 00e3 75140000 		.4byte	.LASF18
ARM GAS  C:\Users\Phuong\AppData\Local\Temp\ccP1LXIT.s 			page 70


 2856 00e7 04       		.byte	0x4
 2857 00e8 24       		.byte	0x24
 2858 00e9 6C000000 		.4byte	0x6c
 2859 00ed 02       		.uleb128 0x2
 2860 00ee DE1B0000 		.4byte	.LASF19
 2861 00f2 04       		.byte	0x4
 2862 00f3 30       		.byte	0x30
 2863 00f4 85000000 		.4byte	0x85
 2864 00f8 02       		.uleb128 0x2
 2865 00f9 B9180000 		.4byte	.LASF20
 2866 00fd 04       		.byte	0x4
 2867 00fe 3C       		.byte	0x3c
 2868 00ff 97000000 		.4byte	0x97
 2869 0103 02       		.uleb128 0x2
 2870 0104 08070000 		.4byte	.LASF21
 2871 0108 05       		.byte	0x5
 2872 0109 A6       		.byte	0xa6
 2873 010a ED000000 		.4byte	0xed
 2874 010e 09       		.uleb128 0x9
 2875 010f 09150000 		.4byte	.LASF22
 2876 0113 0C       		.byte	0xc
 2877 0114 05       		.byte	0x5
 2878 0115 B4       		.byte	0xb4
 2879 0116 39010000 		.4byte	0x139
 2880 011a 0A       		.uleb128 0xa
 2881 011b 7300     		.ascii	"s\000"
 2882 011d 05       		.byte	0x5
 2883 011e B6       		.byte	0xb6
 2884 011f 37000000 		.4byte	0x37
 2885 0123 00       		.byte	0
 2886 0124 0A       		.uleb128 0xa
 2887 0125 6E00     		.ascii	"n\000"
 2888 0127 05       		.byte	0x5
 2889 0128 B7       		.byte	0xb7
 2890 0129 25000000 		.4byte	0x25
 2891 012d 04       		.byte	0x4
 2892 012e 0A       		.uleb128 0xa
 2893 012f 7000     		.ascii	"p\000"
 2894 0131 05       		.byte	0x5
 2895 0132 B8       		.byte	0xb8
 2896 0133 39010000 		.4byte	0x139
 2897 0137 08       		.byte	0x8
 2898 0138 00       		.byte	0
 2899 0139 06       		.uleb128 0x6
 2900 013a 04       		.byte	0x4
 2901 013b 03010000 		.4byte	0x103
 2902 013f 02       		.uleb128 0x2
 2903 0140 09150000 		.4byte	.LASF22
 2904 0144 05       		.byte	0x5
 2905 0145 BA       		.byte	0xba
 2906 0146 0E010000 		.4byte	0x10e
 2907 014a 0B       		.uleb128 0xb
 2908 014b 01       		.byte	0x1
 2909 014c 5E000000 		.4byte	0x5e
 2910 0150 06       		.byte	0x6
 2911 0151 45       		.byte	0x45
 2912 0152 AB010000 		.4byte	0x1ab
ARM GAS  C:\Users\Phuong\AppData\Local\Temp\ccP1LXIT.s 			page 71


 2913 0156 0C       		.uleb128 0xc
 2914 0157 97180000 		.4byte	.LASF23
 2915 015b 00       		.byte	0
 2916 015c 0C       		.uleb128 0xc
 2917 015d C2030000 		.4byte	.LASF24
 2918 0161 01       		.byte	0x1
 2919 0162 0C       		.uleb128 0xc
 2920 0163 59190000 		.4byte	.LASF25
 2921 0167 02       		.byte	0x2
 2922 0168 0C       		.uleb128 0xc
 2923 0169 B0160000 		.4byte	.LASF26
 2924 016d 03       		.byte	0x3
 2925 016e 0C       		.uleb128 0xc
 2926 016f F0140000 		.4byte	.LASF27
 2927 0173 04       		.byte	0x4
 2928 0174 0C       		.uleb128 0xc
 2929 0175 3F170000 		.4byte	.LASF28
 2930 0179 05       		.byte	0x5
 2931 017a 0C       		.uleb128 0xc
 2932 017b F9050000 		.4byte	.LASF29
 2933 017f 06       		.byte	0x6
 2934 0180 0C       		.uleb128 0xc
 2935 0181 D9040000 		.4byte	.LASF30
 2936 0185 07       		.byte	0x7
 2937 0186 0C       		.uleb128 0xc
 2938 0187 F1060000 		.4byte	.LASF31
 2939 018b 08       		.byte	0x8
 2940 018c 0C       		.uleb128 0xc
 2941 018d BF0C0000 		.4byte	.LASF32
 2942 0191 09       		.byte	0x9
 2943 0192 0C       		.uleb128 0xc
 2944 0193 7F1B0000 		.4byte	.LASF33
 2945 0197 0A       		.byte	0xa
 2946 0198 0C       		.uleb128 0xc
 2947 0199 99110000 		.4byte	.LASF34
 2948 019d 0B       		.byte	0xb
 2949 019e 0C       		.uleb128 0xc
 2950 019f 4A0F0000 		.4byte	.LASF35
 2951 01a3 0C       		.byte	0xc
 2952 01a4 0C       		.uleb128 0xc
 2953 01a5 88100000 		.4byte	.LASF36
 2954 01a9 0D       		.byte	0xd
 2955 01aa 00       		.byte	0
 2956 01ab 02       		.uleb128 0x2
 2957 01ac 11040000 		.4byte	.LASF37
 2958 01b0 06       		.byte	0x6
 2959 01b1 54       		.byte	0x54
 2960 01b2 4A010000 		.4byte	0x14a
 2961 01b6 0B       		.uleb128 0xb
 2962 01b7 01       		.byte	0x1
 2963 01b8 5E000000 		.4byte	0x5e
 2964 01bc 07       		.byte	0x7
 2965 01bd 38       		.byte	0x38
 2966 01be FF010000 		.4byte	0x1ff
 2967 01c2 0C       		.uleb128 0xc
 2968 01c3 E3190000 		.4byte	.LASF38
 2969 01c7 00       		.byte	0
ARM GAS  C:\Users\Phuong\AppData\Local\Temp\ccP1LXIT.s 			page 72


 2970 01c8 0C       		.uleb128 0xc
 2971 01c9 A8020000 		.4byte	.LASF39
 2972 01cd 01       		.byte	0x1
 2973 01ce 0C       		.uleb128 0xc
 2974 01cf CD020000 		.4byte	.LASF40
 2975 01d3 02       		.byte	0x2
 2976 01d4 0C       		.uleb128 0xc
 2977 01d5 DC020000 		.4byte	.LASF41
 2978 01d9 03       		.byte	0x3
 2979 01da 0C       		.uleb128 0xc
 2980 01db 630F0000 		.4byte	.LASF42
 2981 01df 04       		.byte	0x4
 2982 01e0 0C       		.uleb128 0xc
 2983 01e1 71160000 		.4byte	.LASF43
 2984 01e5 05       		.byte	0x5
 2985 01e6 0C       		.uleb128 0xc
 2986 01e7 AF190000 		.4byte	.LASF44
 2987 01eb 06       		.byte	0x6
 2988 01ec 0C       		.uleb128 0xc
 2989 01ed 75040000 		.4byte	.LASF45
 2990 01f1 07       		.byte	0x7
 2991 01f2 0C       		.uleb128 0xc
 2992 01f3 49090000 		.4byte	.LASF46
 2993 01f7 08       		.byte	0x8
 2994 01f8 0C       		.uleb128 0xc
 2995 01f9 160C0000 		.4byte	.LASF47
 2996 01fd 09       		.byte	0x9
 2997 01fe 00       		.byte	0
 2998 01ff 02       		.uleb128 0x2
 2999 0200 19120000 		.4byte	.LASF48
 3000 0204 07       		.byte	0x7
 3001 0205 43       		.byte	0x43
 3002 0206 B6010000 		.4byte	0x1b6
 3003 020a 0B       		.uleb128 0xb
 3004 020b 01       		.byte	0x1
 3005 020c 5E000000 		.4byte	0x5e
 3006 0210 08       		.byte	0x8
 3007 0211 4C       		.byte	0x4c
 3008 0212 41020000 		.4byte	0x241
 3009 0216 0C       		.uleb128 0xc
 3010 0217 85080000 		.4byte	.LASF49
 3011 021b 00       		.byte	0
 3012 021c 0C       		.uleb128 0xc
 3013 021d E7130000 		.4byte	.LASF50
 3014 0221 01       		.byte	0x1
 3015 0222 0C       		.uleb128 0xc
 3016 0223 010F0000 		.4byte	.LASF51
 3017 0227 02       		.byte	0x2
 3018 0228 0C       		.uleb128 0xc
 3019 0229 3C120000 		.4byte	.LASF52
 3020 022d 03       		.byte	0x3
 3021 022e 0C       		.uleb128 0xc
 3022 022f F40F0000 		.4byte	.LASF53
 3023 0233 04       		.byte	0x4
 3024 0234 0C       		.uleb128 0xc
 3025 0235 70010000 		.4byte	.LASF54
 3026 0239 05       		.byte	0x5
ARM GAS  C:\Users\Phuong\AppData\Local\Temp\ccP1LXIT.s 			page 73


 3027 023a 0C       		.uleb128 0xc
 3028 023b 980A0000 		.4byte	.LASF55
 3029 023f 06       		.byte	0x6
 3030 0240 00       		.byte	0
 3031 0241 02       		.uleb128 0x2
 3032 0242 0A020000 		.4byte	.LASF56
 3033 0246 08       		.byte	0x8
 3034 0247 54       		.byte	0x54
 3035 0248 0A020000 		.4byte	0x20a
 3036 024c 02       		.uleb128 0x2
 3037 024d 761E0000 		.4byte	.LASF57
 3038 0251 08       		.byte	0x8
 3039 0252 7B       		.byte	0x7b
 3040 0253 57020000 		.4byte	0x257
 3041 0257 0D       		.uleb128 0xd
 3042 0258 761E0000 		.4byte	.LASF57
 3043 025c 09       		.uleb128 0x9
 3044 025d 2C010000 		.4byte	.LASF58
 3045 0261 08       		.byte	0x8
 3046 0262 08       		.byte	0x8
 3047 0263 80       		.byte	0x80
 3048 0264 81020000 		.4byte	0x281
 3049 0268 0E       		.uleb128 0xe
 3050 0269 F6010000 		.4byte	.LASF59
 3051 026d 08       		.byte	0x8
 3052 026e 82       		.byte	0x82
 3053 026f 81020000 		.4byte	0x281
 3054 0273 00       		.byte	0
 3055 0274 0E       		.uleb128 0xe
 3056 0275 4A050000 		.4byte	.LASF60
 3057 0279 08       		.byte	0x8
 3058 027a 83       		.byte	0x83
 3059 027b B0000000 		.4byte	0xb0
 3060 027f 04       		.byte	0x4
 3061 0280 00       		.byte	0
 3062 0281 06       		.uleb128 0x6
 3063 0282 04       		.byte	0x4
 3064 0283 87020000 		.4byte	0x287
 3065 0287 07       		.uleb128 0x7
 3066 0288 4C020000 		.4byte	0x24c
 3067 028c 02       		.uleb128 0x2
 3068 028d 2C010000 		.4byte	.LASF58
 3069 0291 08       		.byte	0x8
 3070 0292 84       		.byte	0x84
 3071 0293 5C020000 		.4byte	0x25c
 3072 0297 06       		.uleb128 0x6
 3073 0298 04       		.byte	0x4
 3074 0299 25000000 		.4byte	0x25
 3075 029d 06       		.uleb128 0x6
 3076 029e 04       		.byte	0x4
 3077 029f A3020000 		.4byte	0x2a3
 3078 02a3 07       		.uleb128 0x7
 3079 02a4 5E000000 		.4byte	0x5e
 3080 02a8 06       		.uleb128 0x6
 3081 02a9 04       		.byte	0x4
 3082 02aa AE020000 		.4byte	0x2ae
 3083 02ae 0F       		.uleb128 0xf
ARM GAS  C:\Users\Phuong\AppData\Local\Temp\ccP1LXIT.s 			page 74


 3084 02af 37000000 		.4byte	0x37
 3085 02b3 C7020000 		.4byte	0x2c7
 3086 02b7 10       		.uleb128 0x10
 3087 02b8 B0000000 		.4byte	0xb0
 3088 02bc 10       		.uleb128 0x10
 3089 02bd BF000000 		.4byte	0xbf
 3090 02c1 10       		.uleb128 0x10
 3091 02c2 25000000 		.4byte	0x25
 3092 02c6 00       		.byte	0
 3093 02c7 11       		.uleb128 0x11
 3094 02c8 5E000000 		.4byte	0x5e
 3095 02cc D7020000 		.4byte	0x2d7
 3096 02d0 12       		.uleb128 0x12
 3097 02d1 A9000000 		.4byte	0xa9
 3098 02d5 0F       		.byte	0xf
 3099 02d6 00       		.byte	0
 3100 02d7 09       		.uleb128 0x9
 3101 02d8 D5120000 		.4byte	.LASF61
 3102 02dc 0C       		.byte	0xc
 3103 02dd 09       		.byte	0x9
 3104 02de 86       		.byte	0x86
 3105 02df 06030000 		.4byte	0x306
 3106 02e3 0A       		.uleb128 0xa
 3107 02e4 74616700 		.ascii	"tag\000"
 3108 02e8 09       		.byte	0x9
 3109 02e9 88       		.byte	0x88
 3110 02ea 37000000 		.4byte	0x37
 3111 02ee 00       		.byte	0
 3112 02ef 0A       		.uleb128 0xa
 3113 02f0 6C656E00 		.ascii	"len\000"
 3114 02f4 09       		.byte	0x9
 3115 02f5 89       		.byte	0x89
 3116 02f6 25000000 		.4byte	0x25
 3117 02fa 04       		.byte	0x4
 3118 02fb 0A       		.uleb128 0xa
 3119 02fc 7000     		.ascii	"p\000"
 3120 02fe 09       		.byte	0x9
 3121 02ff 8A       		.byte	0x8a
 3122 0300 BF000000 		.4byte	0xbf
 3123 0304 08       		.byte	0x8
 3124 0305 00       		.byte	0
 3125 0306 02       		.uleb128 0x2
 3126 0307 D5120000 		.4byte	.LASF61
 3127 030b 09       		.byte	0x9
 3128 030c 8C       		.byte	0x8c
 3129 030d D7020000 		.4byte	0x2d7
 3130 0311 09       		.uleb128 0x9
 3131 0312 3A1D0000 		.4byte	.LASF62
 3132 0316 10       		.byte	0x10
 3133 0317 09       		.byte	0x9
 3134 0318 9C       		.byte	0x9c
 3135 0319 36030000 		.4byte	0x336
 3136 031d 0A       		.uleb128 0xa
 3137 031e 62756600 		.ascii	"buf\000"
 3138 0322 09       		.byte	0x9
 3139 0323 9E       		.byte	0x9e
 3140 0324 06030000 		.4byte	0x306
ARM GAS  C:\Users\Phuong\AppData\Local\Temp\ccP1LXIT.s 			page 75


 3141 0328 00       		.byte	0
 3142 0329 0E       		.uleb128 0xe
 3143 032a 2B1E0000 		.4byte	.LASF63
 3144 032e 09       		.byte	0x9
 3145 032f 9F       		.byte	0x9f
 3146 0330 36030000 		.4byte	0x336
 3147 0334 0C       		.byte	0xc
 3148 0335 00       		.byte	0
 3149 0336 06       		.uleb128 0x6
 3150 0337 04       		.byte	0x4
 3151 0338 11030000 		.4byte	0x311
 3152 033c 02       		.uleb128 0x2
 3153 033d 3A1D0000 		.4byte	.LASF62
 3154 0341 09       		.byte	0x9
 3155 0342 A1       		.byte	0xa1
 3156 0343 11030000 		.4byte	0x311
 3157 0347 09       		.uleb128 0x9
 3158 0348 01110000 		.4byte	.LASF64
 3159 034c 20       		.byte	0x20
 3160 034d 09       		.byte	0x9
 3161 034e A6       		.byte	0xa6
 3162 034f 84030000 		.4byte	0x384
 3163 0353 0A       		.uleb128 0xa
 3164 0354 6F696400 		.ascii	"oid\000"
 3165 0358 09       		.byte	0x9
 3166 0359 A8       		.byte	0xa8
 3167 035a 06030000 		.4byte	0x306
 3168 035e 00       		.byte	0
 3169 035f 0A       		.uleb128 0xa
 3170 0360 76616C00 		.ascii	"val\000"
 3171 0364 09       		.byte	0x9
 3172 0365 A9       		.byte	0xa9
 3173 0366 06030000 		.4byte	0x306
 3174 036a 0C       		.byte	0xc
 3175 036b 0E       		.uleb128 0xe
 3176 036c 2B1E0000 		.4byte	.LASF63
 3177 0370 09       		.byte	0x9
 3178 0371 AA       		.byte	0xaa
 3179 0372 84030000 		.4byte	0x384
 3180 0376 18       		.byte	0x18
 3181 0377 0E       		.uleb128 0xe
 3182 0378 CF110000 		.4byte	.LASF65
 3183 037c 09       		.byte	0x9
 3184 037d AB       		.byte	0xab
 3185 037e 5E000000 		.4byte	0x5e
 3186 0382 1C       		.byte	0x1c
 3187 0383 00       		.byte	0
 3188 0384 06       		.uleb128 0x6
 3189 0385 04       		.byte	0x4
 3190 0386 47030000 		.4byte	0x347
 3191 038a 02       		.uleb128 0x2
 3192 038b 01110000 		.4byte	.LASF64
 3193 038f 09       		.byte	0x9
 3194 0390 AD       		.byte	0xad
 3195 0391 47030000 		.4byte	0x347
 3196 0395 02       		.uleb128 0x2
 3197 0396 531E0000 		.4byte	.LASF66
ARM GAS  C:\Users\Phuong\AppData\Local\Temp\ccP1LXIT.s 			page 76


 3198 039a 0A       		.byte	0xa
 3199 039b BD       		.byte	0xbd
 3200 039c 06030000 		.4byte	0x306
 3201 03a0 02       		.uleb128 0x2
 3202 03a1 990B0000 		.4byte	.LASF67
 3203 03a5 0A       		.byte	0xa
 3204 03a6 C8       		.byte	0xc8
 3205 03a7 8A030000 		.4byte	0x38a
 3206 03ab 02       		.uleb128 0x2
 3207 03ac 19110000 		.4byte	.LASF68
 3208 03b0 0A       		.byte	0xa
 3209 03b1 CD       		.byte	0xcd
 3210 03b2 3C030000 		.4byte	0x33c
 3211 03b6 09       		.uleb128 0x9
 3212 03b7 92010000 		.4byte	.LASF69
 3213 03bb 18       		.byte	0x18
 3214 03bc 0A       		.byte	0xa
 3215 03bd D0       		.byte	0xd0
 3216 03be 0B040000 		.4byte	0x40b
 3217 03c2 0E       		.uleb128 0xe
 3218 03c3 EB020000 		.4byte	.LASF70
 3219 03c7 0A       		.byte	0xa
 3220 03c8 D2       		.byte	0xd2
 3221 03c9 37000000 		.4byte	0x37
 3222 03cd 00       		.byte	0
 3223 03ce 0A       		.uleb128 0xa
 3224 03cf 6D6F6E00 		.ascii	"mon\000"
 3225 03d3 0A       		.byte	0xa
 3226 03d4 D2       		.byte	0xd2
 3227 03d5 37000000 		.4byte	0x37
 3228 03d9 04       		.byte	0x4
 3229 03da 0A       		.uleb128 0xa
 3230 03db 64617900 		.ascii	"day\000"
 3231 03df 0A       		.byte	0xa
 3232 03e0 D2       		.byte	0xd2
 3233 03e1 37000000 		.4byte	0x37
 3234 03e5 08       		.byte	0x8
 3235 03e6 0E       		.uleb128 0xe
 3236 03e7 201A0000 		.4byte	.LASF71
 3237 03eb 0A       		.byte	0xa
 3238 03ec D3       		.byte	0xd3
 3239 03ed 37000000 		.4byte	0x37
 3240 03f1 0C       		.byte	0xc
 3241 03f2 0A       		.uleb128 0xa
 3242 03f3 6D696E00 		.ascii	"min\000"
 3243 03f7 0A       		.byte	0xa
 3244 03f8 D3       		.byte	0xd3
 3245 03f9 37000000 		.4byte	0x37
 3246 03fd 10       		.byte	0x10
 3247 03fe 0A       		.uleb128 0xa
 3248 03ff 73656300 		.ascii	"sec\000"
 3249 0403 0A       		.byte	0xa
 3250 0404 D3       		.byte	0xd3
 3251 0405 37000000 		.4byte	0x37
 3252 0409 14       		.byte	0x14
 3253 040a 00       		.byte	0
 3254 040b 02       		.uleb128 0x2
ARM GAS  C:\Users\Phuong\AppData\Local\Temp\ccP1LXIT.s 			page 77


 3255 040c 92010000 		.4byte	.LASF69
 3256 0410 0A       		.byte	0xa
 3257 0411 D5       		.byte	0xd5
 3258 0412 B6030000 		.4byte	0x3b6
 3259 0416 09       		.uleb128 0x9
 3260 0417 71100000 		.4byte	.LASF72
 3261 041b 40       		.byte	0x40
 3262 041c 0B       		.byte	0xb
 3263 041d 34       		.byte	0x34
 3264 041e 5F040000 		.4byte	0x45f
 3265 0422 0A       		.uleb128 0xa
 3266 0423 72617700 		.ascii	"raw\000"
 3267 0427 0B       		.byte	0xb
 3268 0428 36       		.byte	0x36
 3269 0429 95030000 		.4byte	0x395
 3270 042d 00       		.byte	0
 3271 042e 0E       		.uleb128 0xe
 3272 042f 440D0000 		.4byte	.LASF73
 3273 0433 0B       		.byte	0xb
 3274 0434 38       		.byte	0x38
 3275 0435 95030000 		.4byte	0x395
 3276 0439 0C       		.byte	0xc
 3277 043a 0E       		.uleb128 0xe
 3278 043b 24150000 		.4byte	.LASF74
 3279 043f 0B       		.byte	0xb
 3280 0440 3A       		.byte	0x3a
 3281 0441 0B040000 		.4byte	0x40b
 3282 0445 18       		.byte	0x18
 3283 0446 0E       		.uleb128 0xe
 3284 0447 C1130000 		.4byte	.LASF75
 3285 044b 0B       		.byte	0xb
 3286 044c 3C       		.byte	0x3c
 3287 044d 95030000 		.4byte	0x395
 3288 0451 30       		.byte	0x30
 3289 0452 0E       		.uleb128 0xe
 3290 0453 2B1E0000 		.4byte	.LASF63
 3291 0457 0B       		.byte	0xb
 3292 0458 3E       		.byte	0x3e
 3293 0459 5F040000 		.4byte	0x45f
 3294 045d 3C       		.byte	0x3c
 3295 045e 00       		.byte	0
 3296 045f 06       		.uleb128 0x6
 3297 0460 04       		.byte	0x4
 3298 0461 16040000 		.4byte	0x416
 3299 0465 02       		.uleb128 0x2
 3300 0466 71100000 		.4byte	.LASF72
 3301 046a 0B       		.byte	0xb
 3302 046b 40       		.byte	0x40
 3303 046c 16040000 		.4byte	0x416
 3304 0470 09       		.uleb128 0x9
 3305 0471 90020000 		.4byte	.LASF76
 3306 0475 F4       		.byte	0xf4
 3307 0476 0B       		.byte	0xb
 3308 0477 46       		.byte	0x46
 3309 0478 3D050000 		.4byte	0x53d
 3310 047c 0A       		.uleb128 0xa
 3311 047d 72617700 		.ascii	"raw\000"
ARM GAS  C:\Users\Phuong\AppData\Local\Temp\ccP1LXIT.s 			page 78


 3312 0481 0B       		.byte	0xb
 3313 0482 48       		.byte	0x48
 3314 0483 95030000 		.4byte	0x395
 3315 0487 00       		.byte	0
 3316 0488 0A       		.uleb128 0xa
 3317 0489 74627300 		.ascii	"tbs\000"
 3318 048d 0B       		.byte	0xb
 3319 048e 49       		.byte	0x49
 3320 048f 95030000 		.4byte	0x395
 3321 0493 0C       		.byte	0xc
 3322 0494 0E       		.uleb128 0xe
 3323 0495 4F160000 		.4byte	.LASF77
 3324 0499 0B       		.byte	0xb
 3325 049a 4B       		.byte	0x4b
 3326 049b 37000000 		.4byte	0x37
 3327 049f 18       		.byte	0x18
 3328 04a0 0E       		.uleb128 0xe
 3329 04a1 1B030000 		.4byte	.LASF78
 3330 04a5 0B       		.byte	0xb
 3331 04a6 4C       		.byte	0x4c
 3332 04a7 95030000 		.4byte	0x395
 3333 04ab 1C       		.byte	0x1c
 3334 04ac 0E       		.uleb128 0xe
 3335 04ad 2B0C0000 		.4byte	.LASF79
 3336 04b1 0B       		.byte	0xb
 3337 04b2 4E       		.byte	0x4e
 3338 04b3 95030000 		.4byte	0x395
 3339 04b7 28       		.byte	0x28
 3340 04b8 0E       		.uleb128 0xe
 3341 04b9 5C060000 		.4byte	.LASF80
 3342 04bd 0B       		.byte	0xb
 3343 04be 50       		.byte	0x50
 3344 04bf A0030000 		.4byte	0x3a0
 3345 04c3 34       		.byte	0x34
 3346 04c4 0E       		.uleb128 0xe
 3347 04c5 C3150000 		.4byte	.LASF81
 3348 04c9 0B       		.byte	0xb
 3349 04ca 52       		.byte	0x52
 3350 04cb 0B040000 		.4byte	0x40b
 3351 04cf 54       		.byte	0x54
 3352 04d0 0E       		.uleb128 0xe
 3353 04d1 7E140000 		.4byte	.LASF82
 3354 04d5 0B       		.byte	0xb
 3355 04d6 53       		.byte	0x53
 3356 04d7 0B040000 		.4byte	0x40b
 3357 04db 6C       		.byte	0x6c
 3358 04dc 0E       		.uleb128 0xe
 3359 04dd 43130000 		.4byte	.LASF83
 3360 04e1 0B       		.byte	0xb
 3361 04e2 55       		.byte	0x55
 3362 04e3 65040000 		.4byte	0x465
 3363 04e7 84       		.byte	0x84
 3364 04e8 0E       		.uleb128 0xe
 3365 04e9 88020000 		.4byte	.LASF84
 3366 04ed 0B       		.byte	0xb
 3367 04ee 57       		.byte	0x57
 3368 04ef 95030000 		.4byte	0x395
ARM GAS  C:\Users\Phuong\AppData\Local\Temp\ccP1LXIT.s 			page 79


 3369 04f3 C4       		.byte	0xc4
 3370 04f4 0E       		.uleb128 0xe
 3371 04f5 EC030000 		.4byte	.LASF85
 3372 04f9 0B       		.byte	0xb
 3373 04fa 59       		.byte	0x59
 3374 04fb 95030000 		.4byte	0x395
 3375 04ff D0       		.byte	0xd0
 3376 0500 0A       		.uleb128 0xa
 3377 0501 73696700 		.ascii	"sig\000"
 3378 0505 0B       		.byte	0xb
 3379 0506 5A       		.byte	0x5a
 3380 0507 95030000 		.4byte	0x395
 3381 050b DC       		.byte	0xdc
 3382 050c 0E       		.uleb128 0xe
 3383 050d CE120000 		.4byte	.LASF86
 3384 0511 0B       		.byte	0xb
 3385 0512 5B       		.byte	0x5b
 3386 0513 FF010000 		.4byte	0x1ff
 3387 0517 E8       		.byte	0xe8
 3388 0518 0E       		.uleb128 0xe
 3389 0519 C9160000 		.4byte	.LASF87
 3390 051d 0B       		.byte	0xb
 3391 051e 5C       		.byte	0x5c
 3392 051f 41020000 		.4byte	0x241
 3393 0523 E9       		.byte	0xe9
 3394 0524 0E       		.uleb128 0xe
 3395 0525 06030000 		.4byte	.LASF88
 3396 0529 0B       		.byte	0xb
 3397 052a 5D       		.byte	0x5d
 3398 052b B0000000 		.4byte	0xb0
 3399 052f EC       		.byte	0xec
 3400 0530 0E       		.uleb128 0xe
 3401 0531 2B1E0000 		.4byte	.LASF63
 3402 0535 0B       		.byte	0xb
 3403 0536 5F       		.byte	0x5f
 3404 0537 3D050000 		.4byte	0x53d
 3405 053b F0       		.byte	0xf0
 3406 053c 00       		.byte	0
 3407 053d 06       		.uleb128 0x6
 3408 053e 04       		.byte	0x4
 3409 053f 70040000 		.4byte	0x470
 3410 0543 02       		.uleb128 0x2
 3411 0544 90020000 		.4byte	.LASF76
 3412 0548 0B       		.byte	0xb
 3413 0549 61       		.byte	0x61
 3414 054a 70040000 		.4byte	0x470
 3415 054e 13       		.uleb128 0x13
 3416 054f F0020000 		.4byte	.LASF89
 3417 0553 3401     		.2byte	0x134
 3418 0555 0C       		.byte	0xc
 3419 0556 35       		.byte	0x35
 3420 0557 A8060000 		.4byte	0x6a8
 3421 055b 0A       		.uleb128 0xa
 3422 055c 72617700 		.ascii	"raw\000"
 3423 0560 0C       		.byte	0xc
 3424 0561 37       		.byte	0x37
 3425 0562 95030000 		.4byte	0x395
ARM GAS  C:\Users\Phuong\AppData\Local\Temp\ccP1LXIT.s 			page 80


 3426 0566 00       		.byte	0
 3427 0567 0A       		.uleb128 0xa
 3428 0568 74627300 		.ascii	"tbs\000"
 3429 056c 0C       		.byte	0xc
 3430 056d 38       		.byte	0x38
 3431 056e 95030000 		.4byte	0x395
 3432 0572 0C       		.byte	0xc
 3433 0573 0E       		.uleb128 0xe
 3434 0574 4F160000 		.4byte	.LASF77
 3435 0578 0C       		.byte	0xc
 3436 0579 3A       		.byte	0x3a
 3437 057a 37000000 		.4byte	0x37
 3438 057e 18       		.byte	0x18
 3439 057f 0E       		.uleb128 0xe
 3440 0580 440D0000 		.4byte	.LASF73
 3441 0584 0C       		.byte	0xc
 3442 0585 3B       		.byte	0x3b
 3443 0586 95030000 		.4byte	0x395
 3444 058a 1C       		.byte	0x1c
 3445 058b 0E       		.uleb128 0xe
 3446 058c 1B030000 		.4byte	.LASF78
 3447 0590 0C       		.byte	0xc
 3448 0591 3C       		.byte	0x3c
 3449 0592 95030000 		.4byte	0x395
 3450 0596 28       		.byte	0x28
 3451 0597 0E       		.uleb128 0xe
 3452 0598 2B0C0000 		.4byte	.LASF79
 3453 059c 0C       		.byte	0xc
 3454 059d 3E       		.byte	0x3e
 3455 059e 95030000 		.4byte	0x395
 3456 05a2 34       		.byte	0x34
 3457 05a3 0E       		.uleb128 0xe
 3458 05a4 0A0C0000 		.4byte	.LASF90
 3459 05a8 0C       		.byte	0xc
 3460 05a9 3F       		.byte	0x3f
 3461 05aa 95030000 		.4byte	0x395
 3462 05ae 40       		.byte	0x40
 3463 05af 0E       		.uleb128 0xe
 3464 05b0 5C060000 		.4byte	.LASF80
 3465 05b4 0C       		.byte	0xc
 3466 05b5 41       		.byte	0x41
 3467 05b6 A0030000 		.4byte	0x3a0
 3468 05ba 4C       		.byte	0x4c
 3469 05bb 0E       		.uleb128 0xe
 3470 05bc 1F180000 		.4byte	.LASF91
 3471 05c0 0C       		.byte	0xc
 3472 05c1 42       		.byte	0x42
 3473 05c2 A0030000 		.4byte	0x3a0
 3474 05c6 6C       		.byte	0x6c
 3475 05c7 0E       		.uleb128 0xe
 3476 05c8 420B0000 		.4byte	.LASF92
 3477 05cc 0C       		.byte	0xc
 3478 05cd 44       		.byte	0x44
 3479 05ce 0B040000 		.4byte	0x40b
 3480 05d2 8C       		.byte	0x8c
 3481 05d3 0E       		.uleb128 0xe
 3482 05d4 27180000 		.4byte	.LASF93
ARM GAS  C:\Users\Phuong\AppData\Local\Temp\ccP1LXIT.s 			page 81


 3483 05d8 0C       		.byte	0xc
 3484 05d9 45       		.byte	0x45
 3485 05da 0B040000 		.4byte	0x40b
 3486 05de A4       		.byte	0xa4
 3487 05df 0A       		.uleb128 0xa
 3488 05e0 706B00   		.ascii	"pk\000"
 3489 05e3 0C       		.byte	0xc
 3490 05e4 47       		.byte	0x47
 3491 05e5 8C020000 		.4byte	0x28c
 3492 05e9 BC       		.byte	0xbc
 3493 05ea 0E       		.uleb128 0xe
 3494 05eb 161A0000 		.4byte	.LASF94
 3495 05ef 0C       		.byte	0xc
 3496 05f0 49       		.byte	0x49
 3497 05f1 95030000 		.4byte	0x395
 3498 05f5 C4       		.byte	0xc4
 3499 05f6 0E       		.uleb128 0xe
 3500 05f7 2D170000 		.4byte	.LASF95
 3501 05fb 0C       		.byte	0xc
 3502 05fc 4A       		.byte	0x4a
 3503 05fd 95030000 		.4byte	0x395
 3504 0601 D0       		.byte	0xd0
 3505 0602 0E       		.uleb128 0xe
 3506 0603 BC150000 		.4byte	.LASF96
 3507 0607 0C       		.byte	0xc
 3508 0608 4B       		.byte	0x4b
 3509 0609 95030000 		.4byte	0x395
 3510 060d DC       		.byte	0xdc
 3511 060e 0E       		.uleb128 0xe
 3512 060f 83160000 		.4byte	.LASF97
 3513 0613 0C       		.byte	0xc
 3514 0614 4C       		.byte	0x4c
 3515 0615 AB030000 		.4byte	0x3ab
 3516 0619 E8       		.byte	0xe8
 3517 061a 0E       		.uleb128 0xe
 3518 061b DF060000 		.4byte	.LASF98
 3519 061f 0C       		.byte	0xc
 3520 0620 4E       		.byte	0x4e
 3521 0621 37000000 		.4byte	0x37
 3522 0625 F8       		.byte	0xf8
 3523 0626 0E       		.uleb128 0xe
 3524 0627 51040000 		.4byte	.LASF99
 3525 062b 0C       		.byte	0xc
 3526 062c 4F       		.byte	0x4f
 3527 062d 37000000 		.4byte	0x37
 3528 0631 FC       		.byte	0xfc
 3529 0632 14       		.uleb128 0x14
 3530 0633 B1040000 		.4byte	.LASF100
 3531 0637 0C       		.byte	0xc
 3532 0638 50       		.byte	0x50
 3533 0639 37000000 		.4byte	0x37
 3534 063d 0001     		.2byte	0x100
 3535 063f 14       		.uleb128 0x14
 3536 0640 5B1C0000 		.4byte	.LASF101
 3537 0644 0C       		.byte	0xc
 3538 0645 52       		.byte	0x52
 3539 0646 30000000 		.4byte	0x30
ARM GAS  C:\Users\Phuong\AppData\Local\Temp\ccP1LXIT.s 			page 82


 3540 064a 0401     		.2byte	0x104
 3541 064c 14       		.uleb128 0x14
 3542 064d 2F040000 		.4byte	.LASF102
 3543 0651 0C       		.byte	0xc
 3544 0652 54       		.byte	0x54
 3545 0653 AB030000 		.4byte	0x3ab
 3546 0657 0801     		.2byte	0x108
 3547 0659 14       		.uleb128 0x14
 3548 065a 70110000 		.4byte	.LASF103
 3549 065e 0C       		.byte	0xc
 3550 065f 56       		.byte	0x56
 3551 0660 5E000000 		.4byte	0x5e
 3552 0664 1801     		.2byte	0x118
 3553 0666 15       		.uleb128 0x15
 3554 0667 73696700 		.ascii	"sig\000"
 3555 066b 0C       		.byte	0xc
 3556 066c 58       		.byte	0x58
 3557 066d 95030000 		.4byte	0x395
 3558 0671 1C01     		.2byte	0x11c
 3559 0673 14       		.uleb128 0x14
 3560 0674 CE120000 		.4byte	.LASF86
 3561 0678 0C       		.byte	0xc
 3562 0679 59       		.byte	0x59
 3563 067a FF010000 		.4byte	0x1ff
 3564 067e 2801     		.2byte	0x128
 3565 0680 14       		.uleb128 0x14
 3566 0681 C9160000 		.4byte	.LASF87
 3567 0685 0C       		.byte	0xc
 3568 0686 5A       		.byte	0x5a
 3569 0687 41020000 		.4byte	0x241
 3570 068b 2901     		.2byte	0x129
 3571 068d 14       		.uleb128 0x14
 3572 068e 06030000 		.4byte	.LASF88
 3573 0692 0C       		.byte	0xc
 3574 0693 5B       		.byte	0x5b
 3575 0694 B0000000 		.4byte	0xb0
 3576 0698 2C01     		.2byte	0x12c
 3577 069a 14       		.uleb128 0x14
 3578 069b 2B1E0000 		.4byte	.LASF63
 3579 069f 0C       		.byte	0xc
 3580 06a0 5D       		.byte	0x5d
 3581 06a1 A8060000 		.4byte	0x6a8
 3582 06a5 3001     		.2byte	0x130
 3583 06a7 00       		.byte	0
 3584 06a8 06       		.uleb128 0x6
 3585 06a9 04       		.byte	0x4
 3586 06aa 4E050000 		.4byte	0x54e
 3587 06ae 02       		.uleb128 0x2
 3588 06af F0020000 		.4byte	.LASF89
 3589 06b3 0C       		.byte	0xc
 3590 06b4 5F       		.byte	0x5f
 3591 06b5 4E050000 		.4byte	0x54e
 3592 06b9 09       		.uleb128 0x9
 3593 06ba E00C0000 		.4byte	.LASF104
 3594 06be 10       		.byte	0x10
 3595 06bf 0C       		.byte	0xc
 3596 06c0 6C       		.byte	0x6c
ARM GAS  C:\Users\Phuong\AppData\Local\Temp\ccP1LXIT.s 			page 83


 3597 06c1 F6060000 		.4byte	0x6f6
 3598 06c5 0E       		.uleb128 0xe
 3599 06c6 970F0000 		.4byte	.LASF105
 3600 06ca 0C       		.byte	0xc
 3601 06cb 6E       		.byte	0x6e
 3602 06cc ED000000 		.4byte	0xed
 3603 06d0 00       		.byte	0
 3604 06d1 0E       		.uleb128 0xe
 3605 06d2 8C0A0000 		.4byte	.LASF106
 3606 06d6 0C       		.byte	0xc
 3607 06d7 6F       		.byte	0x6f
 3608 06d8 ED000000 		.4byte	0xed
 3609 06dc 04       		.byte	0x4
 3610 06dd 0E       		.uleb128 0xe
 3611 06de D30D0000 		.4byte	.LASF107
 3612 06e2 0C       		.byte	0xc
 3613 06e3 70       		.byte	0x70
 3614 06e4 ED000000 		.4byte	0xed
 3615 06e8 08       		.byte	0x8
 3616 06e9 0E       		.uleb128 0xe
 3617 06ea D5150000 		.4byte	.LASF108
 3618 06ee 0C       		.byte	0xc
 3619 06ef 71       		.byte	0x71
 3620 06f0 ED000000 		.4byte	0xed
 3621 06f4 0C       		.byte	0xc
 3622 06f5 00       		.byte	0
 3623 06f6 02       		.uleb128 0x2
 3624 06f7 E00C0000 		.4byte	.LASF104
 3625 06fb 0C       		.byte	0xc
 3626 06fc 73       		.byte	0x73
 3627 06fd B9060000 		.4byte	0x6b9
 3628 0701 06       		.uleb128 0x6
 3629 0702 04       		.byte	0x4
 3630 0703 AE060000 		.4byte	0x6ae
 3631 0707 11       		.uleb128 0x11
 3632 0708 5E000000 		.4byte	0x5e
 3633 070c 17070000 		.4byte	0x717
 3634 0710 12       		.uleb128 0x12
 3635 0711 A9000000 		.4byte	0xa9
 3636 0715 2F       		.byte	0x2f
 3637 0716 00       		.byte	0
 3638 0717 16       		.uleb128 0x16
 3639 0718 A5030000 		.4byte	.LASF109
 3640 071c 0D       		.byte	0xd
 3641 071d D201     		.2byte	0x1d2
 3642 071f 23070000 		.4byte	0x723
 3643 0723 0F       		.uleb128 0xf
 3644 0724 37000000 		.4byte	0x37
 3645 0728 3C070000 		.4byte	0x73c
 3646 072c 10       		.uleb128 0x10
 3647 072d B0000000 		.4byte	0xb0
 3648 0731 10       		.uleb128 0x10
 3649 0732 9D020000 		.4byte	0x29d
 3650 0736 10       		.uleb128 0x10
 3651 0737 25000000 		.4byte	0x25
 3652 073b 00       		.byte	0
 3653 073c 16       		.uleb128 0x16
ARM GAS  C:\Users\Phuong\AppData\Local\Temp\ccP1LXIT.s 			page 84


 3654 073d 92070000 		.4byte	.LASF110
 3655 0741 0D       		.byte	0xd
 3656 0742 E901     		.2byte	0x1e9
 3657 0744 AE020000 		.4byte	0x2ae
 3658 0748 16       		.uleb128 0x16
 3659 0749 61150000 		.4byte	.LASF111
 3660 074d 0D       		.byte	0xd
 3661 074e 0302     		.2byte	0x203
 3662 0750 54070000 		.4byte	0x754
 3663 0754 0F       		.uleb128 0xf
 3664 0755 37000000 		.4byte	0x37
 3665 0759 72070000 		.4byte	0x772
 3666 075d 10       		.uleb128 0x10
 3667 075e B0000000 		.4byte	0xb0
 3668 0762 10       		.uleb128 0x10
 3669 0763 BF000000 		.4byte	0xbf
 3670 0767 10       		.uleb128 0x10
 3671 0768 25000000 		.4byte	0x25
 3672 076c 10       		.uleb128 0x10
 3673 076d ED000000 		.4byte	0xed
 3674 0771 00       		.byte	0
 3675 0772 16       		.uleb128 0x16
 3676 0773 E10A0000 		.4byte	.LASF112
 3677 0777 0D       		.byte	0xd
 3678 0778 1D02     		.2byte	0x21d
 3679 077a 7E070000 		.4byte	0x77e
 3680 077e 17       		.uleb128 0x17
 3681 077f 93070000 		.4byte	0x793
 3682 0783 10       		.uleb128 0x10
 3683 0784 B0000000 		.4byte	0xb0
 3684 0788 10       		.uleb128 0x10
 3685 0789 ED000000 		.4byte	0xed
 3686 078d 10       		.uleb128 0x10
 3687 078e ED000000 		.4byte	0xed
 3688 0792 00       		.byte	0
 3689 0793 16       		.uleb128 0x16
 3690 0794 BE090000 		.4byte	.LASF113
 3691 0798 0D       		.byte	0xd
 3692 0799 2C02     		.2byte	0x22c
 3693 079b 9F070000 		.4byte	0x79f
 3694 079f 0F       		.uleb128 0xf
 3695 07a0 37000000 		.4byte	0x37
 3696 07a4 AE070000 		.4byte	0x7ae
 3697 07a8 10       		.uleb128 0x10
 3698 07a9 B0000000 		.4byte	0xb0
 3699 07ad 00       		.byte	0
 3700 07ae 16       		.uleb128 0x16
 3701 07af 3D040000 		.4byte	.LASF114
 3702 07b3 0D       		.byte	0xd
 3703 07b4 2F02     		.2byte	0x22f
 3704 07b6 BA070000 		.4byte	0x7ba
 3705 07ba 18       		.uleb128 0x18
 3706 07bb 3D040000 		.4byte	.LASF114
 3707 07bf 7C       		.byte	0x7c
 3708 07c0 0D       		.byte	0xd
 3709 07c1 1503     		.2byte	0x315
 3710 07c3 70080000 		.4byte	0x870
ARM GAS  C:\Users\Phuong\AppData\Local\Temp\ccP1LXIT.s 			page 85


 3711 07c7 19       		.uleb128 0x19
 3712 07c8 4D010000 		.4byte	.LASF115
 3713 07cc 0D       		.byte	0xd
 3714 07cd 1A03     		.2byte	0x31a
 3715 07cf 37000000 		.4byte	0x37
 3716 07d3 00       		.byte	0
 3717 07d4 19       		.uleb128 0x19
 3718 07d5 FD120000 		.4byte	.LASF116
 3719 07d9 0D       		.byte	0xd
 3720 07da 1B03     		.2byte	0x31b
 3721 07dc 37000000 		.4byte	0x37
 3722 07e0 04       		.byte	0x4
 3723 07e1 19       		.uleb128 0x19
 3724 07e2 DB110000 		.4byte	.LASF117
 3725 07e6 0D       		.byte	0xd
 3726 07e7 1C03     		.2byte	0x31c
 3727 07e9 25000000 		.4byte	0x25
 3728 07ed 08       		.byte	0x8
 3729 07ee 1A       		.uleb128 0x1a
 3730 07ef 696400   		.ascii	"id\000"
 3731 07f2 0D       		.byte	0xd
 3732 07f3 1D03     		.2byte	0x31d
 3733 07f5 450F0000 		.4byte	0xf45
 3734 07f9 0C       		.byte	0xc
 3735 07fa 19       		.uleb128 0x19
 3736 07fb 3D110000 		.4byte	.LASF118
 3737 07ff 0D       		.byte	0xd
 3738 0800 1E03     		.2byte	0x31e
 3739 0802 07070000 		.4byte	0x707
 3740 0806 2C       		.byte	0x2c
 3741 0807 19       		.uleb128 0x19
 3742 0808 CF080000 		.4byte	.LASF119
 3743 080c 0D       		.byte	0xd
 3744 080d 2103     		.2byte	0x321
 3745 080f 01070000 		.4byte	0x701
 3746 0813 5C       		.byte	0x5c
 3747 0814 19       		.uleb128 0x19
 3748 0815 3D190000 		.4byte	.LASF120
 3749 0819 0D       		.byte	0xd
 3750 081a 2303     		.2byte	0x323
 3751 081c ED000000 		.4byte	0xed
 3752 0820 60       		.byte	0x60
 3753 0821 19       		.uleb128 0x19
 3754 0822 D20B0000 		.4byte	.LASF121
 3755 0826 0D       		.byte	0xd
 3756 0827 2603     		.2byte	0x326
 3757 0829 BF000000 		.4byte	0xbf
 3758 082d 64       		.byte	0x64
 3759 082e 19       		.uleb128 0x19
 3760 082f 851A0000 		.4byte	.LASF122
 3761 0833 0D       		.byte	0xd
 3762 0834 2703     		.2byte	0x327
 3763 0836 25000000 		.4byte	0x25
 3764 083a 68       		.byte	0x68
 3765 083b 19       		.uleb128 0x19
 3766 083c 93140000 		.4byte	.LASF123
 3767 0840 0D       		.byte	0xd
ARM GAS  C:\Users\Phuong\AppData\Local\Temp\ccP1LXIT.s 			page 86


 3768 0841 2803     		.2byte	0x328
 3769 0843 ED000000 		.4byte	0xed
 3770 0847 6C       		.byte	0x6c
 3771 0848 19       		.uleb128 0x19
 3772 0849 2B160000 		.4byte	.LASF124
 3773 084d 0D       		.byte	0xd
 3774 084e 2C03     		.2byte	0x32c
 3775 0850 5E000000 		.4byte	0x5e
 3776 0854 70       		.byte	0x70
 3777 0855 19       		.uleb128 0x19
 3778 0856 57160000 		.4byte	.LASF125
 3779 085a 0D       		.byte	0xd
 3780 085b 3003     		.2byte	0x330
 3781 085d 37000000 		.4byte	0x37
 3782 0861 74       		.byte	0x74
 3783 0862 19       		.uleb128 0x19
 3784 0863 3A180000 		.4byte	.LASF126
 3785 0867 0D       		.byte	0xd
 3786 0868 3403     		.2byte	0x334
 3787 086a 37000000 		.4byte	0x37
 3788 086e 78       		.byte	0x78
 3789 086f 00       		.byte	0
 3790 0870 16       		.uleb128 0x16
 3791 0871 741C0000 		.4byte	.LASF127
 3792 0875 0D       		.byte	0xd
 3793 0876 3002     		.2byte	0x230
 3794 0878 7C080000 		.4byte	0x87c
 3795 087c 1B       		.uleb128 0x1b
 3796 087d 741C0000 		.4byte	.LASF127
 3797 0881 1801     		.2byte	0x118
 3798 0883 0D       		.byte	0xd
 3799 0884 FE03     		.2byte	0x3fe
 3800 0886 B20B0000 		.4byte	0xbb2
 3801 088a 19       		.uleb128 0x19
 3802 088b 01030000 		.4byte	.LASF128
 3803 088f 0D       		.byte	0xd
 3804 0890 0004     		.2byte	0x400
 3805 0892 3E110000 		.4byte	0x113e
 3806 0896 00       		.byte	0
 3807 0897 19       		.uleb128 0x19
 3808 0898 29020000 		.4byte	.LASF129
 3809 089c 0D       		.byte	0xd
 3810 089d 0504     		.2byte	0x405
 3811 089f 37000000 		.4byte	0x37
 3812 08a3 04       		.byte	0x4
 3813 08a4 19       		.uleb128 0x19
 3814 08a5 67040000 		.4byte	.LASF130
 3815 08a9 0D       		.byte	0xd
 3816 08aa 0704     		.2byte	0x407
 3817 08ac 37000000 		.4byte	0x37
 3818 08b0 08       		.byte	0x8
 3819 08b1 19       		.uleb128 0x19
 3820 08b2 00000000 		.4byte	.LASF131
 3821 08b6 0D       		.byte	0xd
 3822 08b7 0804     		.2byte	0x408
 3823 08b9 37000000 		.4byte	0x37
 3824 08bd 0C       		.byte	0xc
ARM GAS  C:\Users\Phuong\AppData\Local\Temp\ccP1LXIT.s 			page 87


 3825 08be 19       		.uleb128 0x19
 3826 08bf 95160000 		.4byte	.LASF132
 3827 08c3 0D       		.byte	0xd
 3828 08c4 0D04     		.2byte	0x40d
 3829 08c6 37000000 		.4byte	0x37
 3830 08ca 10       		.byte	0x10
 3831 08cb 19       		.uleb128 0x19
 3832 08cc 150A0000 		.4byte	.LASF133
 3833 08d0 0D       		.byte	0xd
 3834 08d1 0E04     		.2byte	0x40e
 3835 08d3 37000000 		.4byte	0x37
 3836 08d7 14       		.byte	0x14
 3837 08d8 19       		.uleb128 0x19
 3838 08d9 0F030000 		.4byte	.LASF134
 3839 08dd 0D       		.byte	0xd
 3840 08de 1104     		.2byte	0x411
 3841 08e0 30000000 		.4byte	0x30
 3842 08e4 18       		.byte	0x18
 3843 08e5 19       		.uleb128 0x19
 3844 08e6 33060000 		.4byte	.LASF135
 3845 08ea 0D       		.byte	0xd
 3846 08eb 1404     		.2byte	0x414
 3847 08ed 49110000 		.4byte	0x1149
 3848 08f1 1C       		.byte	0x1c
 3849 08f2 19       		.uleb128 0x19
 3850 08f3 F3090000 		.4byte	.LASF136
 3851 08f7 0D       		.byte	0xd
 3852 08f8 1504     		.2byte	0x415
 3853 08fa 4F110000 		.4byte	0x114f
 3854 08fe 20       		.byte	0x20
 3855 08ff 19       		.uleb128 0x19
 3856 0900 9C0D0000 		.4byte	.LASF137
 3857 0904 0D       		.byte	0xd
 3858 0905 1604     		.2byte	0x416
 3859 0907 55110000 		.4byte	0x1155
 3860 090b 24       		.byte	0x24
 3861 090c 19       		.uleb128 0x19
 3862 090d EA140000 		.4byte	.LASF138
 3863 0911 0D       		.byte	0xd
 3864 0912 1904     		.2byte	0x419
 3865 0914 B0000000 		.4byte	0xb0
 3866 0918 28       		.byte	0x28
 3867 0919 19       		.uleb128 0x19
 3868 091a 1F0A0000 		.4byte	.LASF139
 3869 091e 0D       		.byte	0xd
 3870 091f 1E04     		.2byte	0x41e
 3871 0921 A90F0000 		.4byte	0xfa9
 3872 0925 2C       		.byte	0x2c
 3873 0926 19       		.uleb128 0x19
 3874 0927 3D090000 		.4byte	.LASF140
 3875 092b 0D       		.byte	0xd
 3876 092c 1F04     		.2byte	0x41f
 3877 092e A90F0000 		.4byte	0xfa9
 3878 0932 30       		.byte	0x30
 3879 0933 19       		.uleb128 0x19
 3880 0934 790C0000 		.4byte	.LASF141
 3881 0938 0D       		.byte	0xd
ARM GAS  C:\Users\Phuong\AppData\Local\Temp\ccP1LXIT.s 			page 88


 3882 0939 2004     		.2byte	0x420
 3883 093b A90F0000 		.4byte	0xfa9
 3884 093f 34       		.byte	0x34
 3885 0940 19       		.uleb128 0x19
 3886 0941 F5080000 		.4byte	.LASF142
 3887 0945 0D       		.byte	0xd
 3888 0946 2104     		.2byte	0x421
 3889 0948 A90F0000 		.4byte	0xfa9
 3890 094c 38       		.byte	0x38
 3891 094d 19       		.uleb128 0x19
 3892 094e DB030000 		.4byte	.LASF143
 3893 0952 0D       		.byte	0xd
 3894 0953 2304     		.2byte	0x423
 3895 0955 5B110000 		.4byte	0x115b
 3896 0959 3C       		.byte	0x3c
 3897 095a 19       		.uleb128 0x19
 3898 095b 881C0000 		.4byte	.LASF144
 3899 095f 0D       		.byte	0xd
 3900 0960 2904     		.2byte	0x429
 3901 0962 61110000 		.4byte	0x1161
 3902 0966 40       		.byte	0x40
 3903 0967 19       		.uleb128 0x19
 3904 0968 90040000 		.4byte	.LASF145
 3905 096c 0D       		.byte	0xd
 3906 096d 2A04     		.2byte	0x42a
 3907 096f 61110000 		.4byte	0x1161
 3908 0973 44       		.byte	0x44
 3909 0974 19       		.uleb128 0x19
 3910 0975 6C170000 		.4byte	.LASF146
 3911 0979 0D       		.byte	0xd
 3912 097a 2B04     		.2byte	0x42b
 3913 097c 61110000 		.4byte	0x1161
 3914 0980 48       		.byte	0x48
 3915 0981 19       		.uleb128 0x19
 3916 0982 23030000 		.4byte	.LASF147
 3917 0986 0D       		.byte	0xd
 3918 0987 2C04     		.2byte	0x42c
 3919 0989 61110000 		.4byte	0x1161
 3920 098d 4C       		.byte	0x4c
 3921 098e 19       		.uleb128 0x19
 3922 098f 63060000 		.4byte	.LASF148
 3923 0993 0D       		.byte	0xd
 3924 0994 3104     		.2byte	0x431
 3925 0996 B0000000 		.4byte	0xb0
 3926 099a 50       		.byte	0x50
 3927 099b 19       		.uleb128 0x19
 3928 099c 7C150000 		.4byte	.LASF149
 3929 09a0 0D       		.byte	0xd
 3930 09a1 3304     		.2byte	0x433
 3931 09a3 67110000 		.4byte	0x1167
 3932 09a7 54       		.byte	0x54
 3933 09a8 19       		.uleb128 0x19
 3934 09a9 FE010000 		.4byte	.LASF150
 3935 09ad 0D       		.byte	0xd
 3936 09ae 3404     		.2byte	0x434
 3937 09b0 6D110000 		.4byte	0x116d
 3938 09b4 58       		.byte	0x58
ARM GAS  C:\Users\Phuong\AppData\Local\Temp\ccP1LXIT.s 			page 89


 3939 09b5 19       		.uleb128 0x19
 3940 09b6 FA100000 		.4byte	.LASF151
 3941 09ba 0D       		.byte	0xd
 3942 09bb 3904     		.2byte	0x439
 3943 09bd BF000000 		.4byte	0xbf
 3944 09c1 5C       		.byte	0x5c
 3945 09c2 19       		.uleb128 0x19
 3946 09c3 A9160000 		.4byte	.LASF152
 3947 09c7 0D       		.byte	0xd
 3948 09c8 3A04     		.2byte	0x43a
 3949 09ca BF000000 		.4byte	0xbf
 3950 09ce 60       		.byte	0x60
 3951 09cf 19       		.uleb128 0x19
 3952 09d0 19070000 		.4byte	.LASF153
 3953 09d4 0D       		.byte	0xd
 3954 09d5 3D04     		.2byte	0x43d
 3955 09d7 BF000000 		.4byte	0xbf
 3956 09db 64       		.byte	0x64
 3957 09dc 19       		.uleb128 0x19
 3958 09dd A71A0000 		.4byte	.LASF154
 3959 09e1 0D       		.byte	0xd
 3960 09e2 3E04     		.2byte	0x43e
 3961 09e4 BF000000 		.4byte	0xbf
 3962 09e8 68       		.byte	0x68
 3963 09e9 19       		.uleb128 0x19
 3964 09ea F30E0000 		.4byte	.LASF155
 3965 09ee 0D       		.byte	0xd
 3966 09ef 3F04     		.2byte	0x43f
 3967 09f1 BF000000 		.4byte	0xbf
 3968 09f5 6C       		.byte	0x6c
 3969 09f6 19       		.uleb128 0x19
 3970 09f7 B5150000 		.4byte	.LASF156
 3971 09fb 0D       		.byte	0xd
 3972 09fc 4004     		.2byte	0x440
 3973 09fe BF000000 		.4byte	0xbf
 3974 0a02 70       		.byte	0x70
 3975 0a03 19       		.uleb128 0x19
 3976 0a04 35090000 		.4byte	.LASF157
 3977 0a08 0D       		.byte	0xd
 3978 0a09 4104     		.2byte	0x441
 3979 0a0b BF000000 		.4byte	0xbf
 3980 0a0f 74       		.byte	0x74
 3981 0a10 19       		.uleb128 0x19
 3982 0a11 E8090000 		.4byte	.LASF158
 3983 0a15 0D       		.byte	0xd
 3984 0a16 4304     		.2byte	0x443
 3985 0a18 37000000 		.4byte	0x37
 3986 0a1c 78       		.byte	0x78
 3987 0a1d 19       		.uleb128 0x19
 3988 0a1e C7060000 		.4byte	.LASF159
 3989 0a22 0D       		.byte	0xd
 3990 0a23 4404     		.2byte	0x444
 3991 0a25 25000000 		.4byte	0x25
 3992 0a29 7C       		.byte	0x7c
 3993 0a2a 19       		.uleb128 0x19
 3994 0a2b 44110000 		.4byte	.LASF160
 3995 0a2f 0D       		.byte	0xd
ARM GAS  C:\Users\Phuong\AppData\Local\Temp\ccP1LXIT.s 			page 90


 3996 0a30 4504     		.2byte	0x445
 3997 0a32 25000000 		.4byte	0x25
 3998 0a36 80       		.byte	0x80
 3999 0a37 19       		.uleb128 0x19
 4000 0a38 D51B0000 		.4byte	.LASF161
 4001 0a3c 0D       		.byte	0xd
 4002 0a3d 4704     		.2byte	0x447
 4003 0a3f E2000000 		.4byte	0xe2
 4004 0a43 84       		.byte	0x84
 4005 0a44 19       		.uleb128 0x19
 4006 0a45 DA050000 		.4byte	.LASF162
 4007 0a49 0D       		.byte	0xd
 4008 0a4a 4804     		.2byte	0x448
 4009 0a4c 25000000 		.4byte	0x25
 4010 0a50 88       		.byte	0x88
 4011 0a51 19       		.uleb128 0x19
 4012 0a52 3F010000 		.4byte	.LASF163
 4013 0a56 0D       		.byte	0xd
 4014 0a57 4C04     		.2byte	0x44c
 4015 0a59 F8000000 		.4byte	0xf8
 4016 0a5d 90       		.byte	0x90
 4017 0a5e 19       		.uleb128 0x19
 4018 0a5f BD040000 		.4byte	.LASF164
 4019 0a63 0D       		.byte	0xd
 4020 0a64 4D04     		.2byte	0x44d
 4021 0a66 F8000000 		.4byte	0xf8
 4022 0a6a 98       		.byte	0x98
 4023 0a6b 19       		.uleb128 0x19
 4024 0a6c B70B0000 		.4byte	.LASF165
 4025 0a70 0D       		.byte	0xd
 4026 0a71 5004     		.2byte	0x450
 4027 0a73 25000000 		.4byte	0x25
 4028 0a77 A0       		.byte	0xa0
 4029 0a78 19       		.uleb128 0x19
 4030 0a79 6D1D0000 		.4byte	.LASF166
 4031 0a7d 0D       		.byte	0xd
 4032 0a7e 5204     		.2byte	0x452
 4033 0a80 37000000 		.4byte	0x37
 4034 0a84 A4       		.byte	0xa4
 4035 0a85 19       		.uleb128 0x19
 4036 0a86 5A1B0000 		.4byte	.LASF167
 4037 0a8a 0D       		.byte	0xd
 4038 0a8b 5404     		.2byte	0x454
 4039 0a8d 37000000 		.4byte	0x37
 4040 0a91 A8       		.byte	0xa8
 4041 0a92 19       		.uleb128 0x19
 4042 0a93 830D0000 		.4byte	.LASF168
 4043 0a97 0D       		.byte	0xd
 4044 0a98 5804     		.2byte	0x458
 4045 0a9a D7000000 		.4byte	0xd7
 4046 0a9e AC       		.byte	0xac
 4047 0a9f 19       		.uleb128 0x19
 4048 0aa0 E9060000 		.4byte	.LASF169
 4049 0aa4 0D       		.byte	0xd
 4050 0aa5 5F04     		.2byte	0x45f
 4051 0aa7 BF000000 		.4byte	0xbf
 4052 0aab B0       		.byte	0xb0
ARM GAS  C:\Users\Phuong\AppData\Local\Temp\ccP1LXIT.s 			page 91


 4053 0aac 19       		.uleb128 0x19
 4054 0aad 6C0B0000 		.4byte	.LASF170
 4055 0ab1 0D       		.byte	0xd
 4056 0ab2 6004     		.2byte	0x460
 4057 0ab4 BF000000 		.4byte	0xbf
 4058 0ab8 B4       		.byte	0xb4
 4059 0ab9 19       		.uleb128 0x19
 4060 0aba 6F1B0000 		.4byte	.LASF171
 4061 0abe 0D       		.byte	0xd
 4062 0abf 6104     		.2byte	0x461
 4063 0ac1 BF000000 		.4byte	0xbf
 4064 0ac5 B8       		.byte	0xb8
 4065 0ac6 19       		.uleb128 0x19
 4066 0ac7 93150000 		.4byte	.LASF172
 4067 0acb 0D       		.byte	0xd
 4068 0acc 6204     		.2byte	0x462
 4069 0ace BF000000 		.4byte	0xbf
 4070 0ad2 BC       		.byte	0xbc
 4071 0ad3 19       		.uleb128 0x19
 4072 0ad4 D90C0000 		.4byte	.LASF173
 4073 0ad8 0D       		.byte	0xd
 4074 0ad9 6304     		.2byte	0x463
 4075 0adb BF000000 		.4byte	0xbf
 4076 0adf C0       		.byte	0xc0
 4077 0ae0 19       		.uleb128 0x19
 4078 0ae1 B90A0000 		.4byte	.LASF174
 4079 0ae5 0D       		.byte	0xd
 4080 0ae6 6404     		.2byte	0x464
 4081 0ae8 BF000000 		.4byte	0xbf
 4082 0aec C4       		.byte	0xc4
 4083 0aed 19       		.uleb128 0x19
 4084 0aee F60B0000 		.4byte	.LASF175
 4085 0af2 0D       		.byte	0xd
 4086 0af3 6604     		.2byte	0x466
 4087 0af5 37000000 		.4byte	0x37
 4088 0af9 C8       		.byte	0xc8
 4089 0afa 19       		.uleb128 0x19
 4090 0afb AE0A0000 		.4byte	.LASF176
 4091 0aff 0D       		.byte	0xd
 4092 0b00 6704     		.2byte	0x467
 4093 0b02 25000000 		.4byte	0x25
 4094 0b06 CC       		.byte	0xcc
 4095 0b07 19       		.uleb128 0x19
 4096 0b08 57080000 		.4byte	.LASF177
 4097 0b0c 0D       		.byte	0xd
 4098 0b0d 6804     		.2byte	0x468
 4099 0b0f 25000000 		.4byte	0x25
 4100 0b13 D0       		.byte	0xd0
 4101 0b14 19       		.uleb128 0x19
 4102 0b15 E20D0000 		.4byte	.LASF178
 4103 0b19 0D       		.byte	0xd
 4104 0b1a 6A04     		.2byte	0x46a
 4105 0b1c 2E110000 		.4byte	0x112e
 4106 0b20 D4       		.byte	0xd4
 4107 0b21 1A       		.uleb128 0x1a
 4108 0b22 6D747500 		.ascii	"mtu\000"
 4109 0b26 0D       		.byte	0xd
ARM GAS  C:\Users\Phuong\AppData\Local\Temp\ccP1LXIT.s 			page 92


 4110 0b27 6D04     		.2byte	0x46d
 4111 0b29 E2000000 		.4byte	0xe2
 4112 0b2d DC       		.byte	0xdc
 4113 0b2e 19       		.uleb128 0x19
 4114 0b2f 2F020000 		.4byte	.LASF179
 4115 0b33 0D       		.byte	0xd
 4116 0b34 7404     		.2byte	0x474
 4117 0b36 4C000000 		.4byte	0x4c
 4118 0b3a DE       		.byte	0xde
 4119 0b3b 19       		.uleb128 0x19
 4120 0b3c AB0D0000 		.4byte	.LASF180
 4121 0b40 0D       		.byte	0xd
 4122 0b41 7A04     		.2byte	0x47a
 4123 0b43 37000000 		.4byte	0x37
 4124 0b47 E0       		.byte	0xe0
 4125 0b48 19       		.uleb128 0x19
 4126 0b49 3F160000 		.4byte	.LASF181
 4127 0b4d 0D       		.byte	0xd
 4128 0b4e 8004     		.2byte	0x480
 4129 0b50 B2000000 		.4byte	0xb2
 4130 0b54 E4       		.byte	0xe4
 4131 0b55 19       		.uleb128 0x19
 4132 0b56 AB0B0000 		.4byte	.LASF182
 4133 0b5a 0D       		.byte	0xd
 4134 0b5b 8504     		.2byte	0x485
 4135 0b5d C5000000 		.4byte	0xc5
 4136 0b61 E8       		.byte	0xe8
 4137 0b62 19       		.uleb128 0x19
 4138 0b63 69110000 		.4byte	.LASF183
 4139 0b67 0D       		.byte	0xd
 4140 0b68 8C04     		.2byte	0x48c
 4141 0b6a BF000000 		.4byte	0xbf
 4142 0b6e EC       		.byte	0xec
 4143 0b6f 19       		.uleb128 0x19
 4144 0b70 AA150000 		.4byte	.LASF184
 4145 0b74 0D       		.byte	0xd
 4146 0b75 8D04     		.2byte	0x48d
 4147 0b77 25000000 		.4byte	0x25
 4148 0b7b F0       		.byte	0xf0
 4149 0b7c 19       		.uleb128 0x19
 4150 0b7d D50F0000 		.4byte	.LASF185
 4151 0b81 0D       		.byte	0xd
 4152 0b82 9404     		.2byte	0x494
 4153 0b84 37000000 		.4byte	0x37
 4154 0b88 F4       		.byte	0xf4
 4155 0b89 19       		.uleb128 0x19
 4156 0b8a 23060000 		.4byte	.LASF186
 4157 0b8e 0D       		.byte	0xd
 4158 0b8f 9704     		.2byte	0x497
 4159 0b91 25000000 		.4byte	0x25
 4160 0b95 F8       		.byte	0xf8
 4161 0b96 19       		.uleb128 0x19
 4162 0b97 F3190000 		.4byte	.LASF187
 4163 0b9b 0D       		.byte	0xd
 4164 0b9c 9804     		.2byte	0x498
 4165 0b9e 73110000 		.4byte	0x1173
 4166 0ba2 FC       		.byte	0xfc
ARM GAS  C:\Users\Phuong\AppData\Local\Temp\ccP1LXIT.s 			page 93


 4167 0ba3 1C       		.uleb128 0x1c
 4168 0ba4 64120000 		.4byte	.LASF188
 4169 0ba8 0D       		.byte	0xd
 4170 0ba9 9904     		.2byte	0x499
 4171 0bab 73110000 		.4byte	0x1173
 4172 0baf 0801     		.2byte	0x108
 4173 0bb1 00       		.byte	0
 4174 0bb2 16       		.uleb128 0x16
 4175 0bb3 C2180000 		.4byte	.LASF189
 4176 0bb7 0D       		.byte	0xd
 4177 0bb8 3102     		.2byte	0x231
 4178 0bba BE0B0000 		.4byte	0xbbe
 4179 0bbe 18       		.uleb128 0x18
 4180 0bbf C2180000 		.4byte	.LASF189
 4181 0bc3 D0       		.byte	0xd0
 4182 0bc4 0D       		.byte	0xd
 4183 0bc5 3B03     		.2byte	0x33b
 4184 0bc7 120F0000 		.4byte	0xf12
 4185 0bcb 19       		.uleb128 0x19
 4186 0bcc E71B0000 		.4byte	.LASF190
 4187 0bd0 0D       		.byte	0xd
 4188 0bd1 4303     		.2byte	0x343
 4189 0bd3 550F0000 		.4byte	0xf55
 4190 0bd7 00       		.byte	0
 4191 0bd8 19       		.uleb128 0x19
 4192 0bd9 1C050000 		.4byte	.LASF191
 4193 0bdd 0D       		.byte	0xd
 4194 0bde 4603     		.2byte	0x346
 4195 0be0 8F0F0000 		.4byte	0xf8f
 4196 0be4 10       		.byte	0x10
 4197 0be5 19       		.uleb128 0x19
 4198 0be6 8C010000 		.4byte	.LASF192
 4199 0bea 0D       		.byte	0xd
 4200 0beb 4703     		.2byte	0x347
 4201 0bed B0000000 		.4byte	0xb0
 4202 0bf1 14       		.byte	0x14
 4203 0bf2 19       		.uleb128 0x19
 4204 0bf3 D20A0000 		.4byte	.LASF193
 4205 0bf7 0D       		.byte	0xd
 4206 0bf8 4A03     		.2byte	0x34a
 4207 0bfa A8020000 		.4byte	0x2a8
 4208 0bfe 18       		.byte	0x18
 4209 0bff 19       		.uleb128 0x19
 4210 0c00 72190000 		.4byte	.LASF194
 4211 0c04 0D       		.byte	0xd
 4212 0c05 4B03     		.2byte	0x34b
 4213 0c07 B0000000 		.4byte	0xb0
 4214 0c0b 1C       		.byte	0x1c
 4215 0c0c 19       		.uleb128 0x19
 4216 0c0d 10050000 		.4byte	.LASF195
 4217 0c11 0D       		.byte	0xd
 4218 0c12 4E03     		.2byte	0x34e
 4219 0c14 AF0F0000 		.4byte	0xfaf
 4220 0c18 20       		.byte	0x20
 4221 0c19 19       		.uleb128 0x19
 4222 0c1a 0F0B0000 		.4byte	.LASF196
 4223 0c1e 0D       		.byte	0xd
ARM GAS  C:\Users\Phuong\AppData\Local\Temp\ccP1LXIT.s 			page 94


 4224 0c1f 5003     		.2byte	0x350
 4225 0c21 D40F0000 		.4byte	0xfd4
 4226 0c25 24       		.byte	0x24
 4227 0c26 19       		.uleb128 0x19
 4228 0c27 771B0000 		.4byte	.LASF197
 4229 0c2b 0D       		.byte	0xd
 4230 0c2c 5103     		.2byte	0x351
 4231 0c2e B0000000 		.4byte	0xb0
 4232 0c32 28       		.byte	0x28
 4233 0c33 19       		.uleb128 0x19
 4234 0c34 37110000 		.4byte	.LASF198
 4235 0c38 0D       		.byte	0xd
 4236 0c39 5503     		.2byte	0x355
 4237 0c3b FE0F0000 		.4byte	0xffe
 4238 0c3f 2C       		.byte	0x2c
 4239 0c40 19       		.uleb128 0x19
 4240 0c41 14010000 		.4byte	.LASF199
 4241 0c45 0D       		.byte	0xd
 4242 0c46 5603     		.2byte	0x356
 4243 0c48 B0000000 		.4byte	0xb0
 4244 0c4c 30       		.byte	0x30
 4245 0c4d 19       		.uleb128 0x19
 4246 0c4e A1020000 		.4byte	.LASF200
 4247 0c52 0D       		.byte	0xd
 4248 0c53 5B03     		.2byte	0x35b
 4249 0c55 28100000 		.4byte	0x1028
 4250 0c59 34       		.byte	0x34
 4251 0c5a 19       		.uleb128 0x19
 4252 0c5b 8F060000 		.4byte	.LASF201
 4253 0c5f 0D       		.byte	0xd
 4254 0c60 5C03     		.2byte	0x35c
 4255 0c62 B0000000 		.4byte	0xb0
 4256 0c66 38       		.byte	0x38
 4257 0c67 19       		.uleb128 0x19
 4258 0c68 9E040000 		.4byte	.LASF202
 4259 0c6c 0D       		.byte	0xd
 4260 0c6d 6103     		.2byte	0x361
 4261 0c6f FE0F0000 		.4byte	0xffe
 4262 0c73 3C       		.byte	0x3c
 4263 0c74 19       		.uleb128 0x19
 4264 0c75 83110000 		.4byte	.LASF203
 4265 0c79 0D       		.byte	0xd
 4266 0c7a 6203     		.2byte	0x362
 4267 0c7c B0000000 		.4byte	0xb0
 4268 0c80 40       		.byte	0x40
 4269 0c81 19       		.uleb128 0x19
 4270 0c82 A4010000 		.4byte	.LASF204
 4271 0c86 0D       		.byte	0xd
 4272 0c87 6703     		.2byte	0x367
 4273 0c89 57100000 		.4byte	0x1057
 4274 0c8d 44       		.byte	0x44
 4275 0c8e 19       		.uleb128 0x19
 4276 0c8f 62160000 		.4byte	.LASF205
 4277 0c93 0D       		.byte	0xd
 4278 0c94 6A03     		.2byte	0x36a
 4279 0c96 80100000 		.4byte	0x1080
 4280 0c9a 48       		.byte	0x48
ARM GAS  C:\Users\Phuong\AppData\Local\Temp\ccP1LXIT.s 			page 95


 4281 0c9b 19       		.uleb128 0x19
 4282 0c9c 9B150000 		.4byte	.LASF206
 4283 0ca0 0D       		.byte	0xd
 4284 0ca1 6C03     		.2byte	0x36c
 4285 0ca3 B0000000 		.4byte	0xb0
 4286 0ca7 4C       		.byte	0x4c
 4287 0ca8 19       		.uleb128 0x19
 4288 0ca9 651C0000 		.4byte	.LASF207
 4289 0cad 0D       		.byte	0xd
 4290 0cae 7103     		.2byte	0x371
 4291 0cb0 AE100000 		.4byte	0x10ae
 4292 0cb4 50       		.byte	0x50
 4293 0cb5 19       		.uleb128 0x19
 4294 0cb6 740B0000 		.4byte	.LASF208
 4295 0cba 0D       		.byte	0xd
 4296 0cbb 7403     		.2byte	0x374
 4297 0cbd D2100000 		.4byte	0x10d2
 4298 0cc1 54       		.byte	0x54
 4299 0cc2 19       		.uleb128 0x19
 4300 0cc3 21100000 		.4byte	.LASF209
 4301 0cc7 0D       		.byte	0xd
 4302 0cc8 7503     		.2byte	0x375
 4303 0cca B0000000 		.4byte	0xb0
 4304 0cce 58       		.byte	0x58
 4305 0ccf 19       		.uleb128 0x19
 4306 0cd0 62090000 		.4byte	.LASF210
 4307 0cd4 0D       		.byte	0xd
 4308 0cd5 7A03     		.2byte	0x37a
 4309 0cd7 00110000 		.4byte	0x1100
 4310 0cdb 5C       		.byte	0x5c
 4311 0cdc 19       		.uleb128 0x19
 4312 0cdd 90000000 		.4byte	.LASF211
 4313 0ce1 0D       		.byte	0xd
 4314 0ce2 7C03     		.2byte	0x37c
 4315 0ce4 B0000000 		.4byte	0xb0
 4316 0ce8 60       		.byte	0x60
 4317 0ce9 19       		.uleb128 0x19
 4318 0cea 0D180000 		.4byte	.LASF212
 4319 0cee 0D       		.byte	0xd
 4320 0cef 8003     		.2byte	0x380
 4321 0cf1 06110000 		.4byte	0x1106
 4322 0cf5 64       		.byte	0x64
 4323 0cf6 19       		.uleb128 0x19
 4324 0cf7 99190000 		.4byte	.LASF213
 4325 0cfb 0D       		.byte	0xd
 4326 0cfc 8103     		.2byte	0x381
 4327 0cfe 11110000 		.4byte	0x1111
 4328 0d02 68       		.byte	0x68
 4329 0d03 19       		.uleb128 0x19
 4330 0d04 470C0000 		.4byte	.LASF214
 4331 0d08 0D       		.byte	0xd
 4332 0d09 8203     		.2byte	0x382
 4333 0d0b 01070000 		.4byte	0x701
 4334 0d0f 6C       		.byte	0x6c
 4335 0d10 19       		.uleb128 0x19
 4336 0d11 070A0000 		.4byte	.LASF215
 4337 0d15 0D       		.byte	0xd
ARM GAS  C:\Users\Phuong\AppData\Local\Temp\ccP1LXIT.s 			page 96


 4338 0d16 8303     		.2byte	0x383
 4339 0d18 17110000 		.4byte	0x1117
 4340 0d1c 70       		.byte	0x70
 4341 0d1d 19       		.uleb128 0x19
 4342 0d1e 8E0B0000 		.4byte	.LASF216
 4343 0d22 0D       		.byte	0xd
 4344 0d23 9103     		.2byte	0x391
 4345 0d25 650F0000 		.4byte	0xf65
 4346 0d29 74       		.byte	0x74
 4347 0d2a 19       		.uleb128 0x19
 4348 0d2b 78190000 		.4byte	.LASF217
 4349 0d2f 0D       		.byte	0xd
 4350 0d30 9503     		.2byte	0x395
 4351 0d32 1D110000 		.4byte	0x111d
 4352 0d36 78       		.byte	0x78
 4353 0d37 19       		.uleb128 0x19
 4354 0d38 CF150000 		.4byte	.LASF218
 4355 0d3c 0D       		.byte	0xd
 4356 0d3d 9903     		.2byte	0x399
 4357 0d3f 3F010000 		.4byte	0x13f
 4358 0d43 7C       		.byte	0x7c
 4359 0d44 19       		.uleb128 0x19
 4360 0d45 A4150000 		.4byte	.LASF219
 4361 0d49 0D       		.byte	0xd
 4362 0d4a 9A03     		.2byte	0x39a
 4363 0d4c 3F010000 		.4byte	0x13f
 4364 0d50 88       		.byte	0x88
 4365 0d51 1A       		.uleb128 0x1a
 4366 0d52 70736B00 		.ascii	"psk\000"
 4367 0d56 0D       		.byte	0xd
 4368 0d57 9E03     		.2byte	0x39e
 4369 0d59 BF000000 		.4byte	0xbf
 4370 0d5d 94       		.byte	0x94
 4371 0d5e 19       		.uleb128 0x19
 4372 0d5f C7110000 		.4byte	.LASF220
 4373 0d63 0D       		.byte	0xd
 4374 0d64 A103     		.2byte	0x3a1
 4375 0d66 25000000 		.4byte	0x25
 4376 0d6a 98       		.byte	0x98
 4377 0d6b 19       		.uleb128 0x19
 4378 0d6c FA090000 		.4byte	.LASF221
 4379 0d70 0D       		.byte	0xd
 4380 0d71 A403     		.2byte	0x3a4
 4381 0d73 BF000000 		.4byte	0xbf
 4382 0d77 9C       		.byte	0x9c
 4383 0d78 19       		.uleb128 0x19
 4384 0d79 FC170000 		.4byte	.LASF222
 4385 0d7d 0D       		.byte	0xd
 4386 0d7e A703     		.2byte	0x3a7
 4387 0d80 25000000 		.4byte	0x25
 4388 0d84 A0       		.byte	0xa0
 4389 0d85 19       		.uleb128 0x19
 4390 0d86 260D0000 		.4byte	.LASF223
 4391 0d8a 0D       		.byte	0xd
 4392 0d8b AD03     		.2byte	0x3ad
 4393 0d8d 28110000 		.4byte	0x1128
 4394 0d91 A4       		.byte	0xa4
ARM GAS  C:\Users\Phuong\AppData\Local\Temp\ccP1LXIT.s 			page 97


 4395 0d92 19       		.uleb128 0x19
 4396 0d93 A4040000 		.4byte	.LASF224
 4397 0d97 0D       		.byte	0xd
 4398 0d98 B403     		.2byte	0x3b4
 4399 0d9a ED000000 		.4byte	0xed
 4400 0d9e A8       		.byte	0xa8
 4401 0d9f 19       		.uleb128 0x19
 4402 0da0 0E1E0000 		.4byte	.LASF225
 4403 0da4 0D       		.byte	0xd
 4404 0da5 B703     		.2byte	0x3b7
 4405 0da7 ED000000 		.4byte	0xed
 4406 0dab AC       		.byte	0xac
 4407 0dac 19       		.uleb128 0x19
 4408 0dad 15150000 		.4byte	.LASF226
 4409 0db1 0D       		.byte	0xd
 4410 0db2 B903     		.2byte	0x3b9
 4411 0db4 ED000000 		.4byte	0xed
 4412 0db8 B0       		.byte	0xb0
 4413 0db9 19       		.uleb128 0x19
 4414 0dba 9E000000 		.4byte	.LASF227
 4415 0dbe 0D       		.byte	0xd
 4416 0dbf BE03     		.2byte	0x3be
 4417 0dc1 37000000 		.4byte	0x37
 4418 0dc5 B4       		.byte	0xb4
 4419 0dc6 19       		.uleb128 0x19
 4420 0dc7 750D0000 		.4byte	.LASF228
 4421 0dcb 0D       		.byte	0xd
 4422 0dcc BF03     		.2byte	0x3bf
 4423 0dce 2E110000 		.4byte	0x112e
 4424 0dd2 B8       		.byte	0xb8
 4425 0dd3 19       		.uleb128 0x19
 4426 0dd4 76170000 		.4byte	.LASF229
 4427 0dd8 0D       		.byte	0xd
 4428 0dd9 C403     		.2byte	0x3c4
 4429 0ddb 30000000 		.4byte	0x30
 4430 0ddf C0       		.byte	0xc0
 4431 0de0 19       		.uleb128 0x19
 4432 0de1 6B060000 		.4byte	.LASF230
 4433 0de5 0D       		.byte	0xd
 4434 0de6 C803     		.2byte	0x3c8
 4435 0de8 30000000 		.4byte	0x30
 4436 0dec C4       		.byte	0xc4
 4437 0ded 19       		.uleb128 0x19
 4438 0dee AB180000 		.4byte	.LASF231
 4439 0df2 0D       		.byte	0xd
 4440 0df3 CB03     		.2byte	0x3cb
 4441 0df5 5E000000 		.4byte	0x5e
 4442 0df9 C8       		.byte	0xc8
 4443 0dfa 19       		.uleb128 0x19
 4444 0dfb B00E0000 		.4byte	.LASF232
 4445 0dff 0D       		.byte	0xd
 4446 0e00 CC03     		.2byte	0x3cc
 4447 0e02 5E000000 		.4byte	0x5e
 4448 0e06 C9       		.byte	0xc9
 4449 0e07 19       		.uleb128 0x19
 4450 0e08 D01C0000 		.4byte	.LASF233
 4451 0e0c 0D       		.byte	0xd
ARM GAS  C:\Users\Phuong\AppData\Local\Temp\ccP1LXIT.s 			page 98


 4452 0e0d CD03     		.2byte	0x3cd
 4453 0e0f 5E000000 		.4byte	0x5e
 4454 0e13 CA       		.byte	0xca
 4455 0e14 19       		.uleb128 0x19
 4456 0e15 561A0000 		.4byte	.LASF234
 4457 0e19 0D       		.byte	0xd
 4458 0e1a CE03     		.2byte	0x3ce
 4459 0e1c 5E000000 		.4byte	0x5e
 4460 0e20 CB       		.byte	0xcb
 4461 0e21 1D       		.uleb128 0x1d
 4462 0e22 8A140000 		.4byte	.LASF235
 4463 0e26 0D       		.byte	0xd
 4464 0e27 D403     		.2byte	0x3d4
 4465 0e29 30000000 		.4byte	0x30
 4466 0e2d 04       		.byte	0x4
 4467 0e2e 01       		.byte	0x1
 4468 0e2f 1F       		.byte	0x1f
 4469 0e30 CC       		.byte	0xcc
 4470 0e31 1D       		.uleb128 0x1d
 4471 0e32 2A0A0000 		.4byte	.LASF236
 4472 0e36 0D       		.byte	0xd
 4473 0e37 D503     		.2byte	0x3d5
 4474 0e39 30000000 		.4byte	0x30
 4475 0e3d 04       		.byte	0x4
 4476 0e3e 01       		.byte	0x1
 4477 0e3f 1E       		.byte	0x1e
 4478 0e40 CC       		.byte	0xcc
 4479 0e41 1D       		.uleb128 0x1d
 4480 0e42 3A020000 		.4byte	.LASF237
 4481 0e46 0D       		.byte	0xd
 4482 0e47 D603     		.2byte	0x3d6
 4483 0e49 30000000 		.4byte	0x30
 4484 0e4d 04       		.byte	0x4
 4485 0e4e 02       		.byte	0x2
 4486 0e4f 1C       		.byte	0x1c
 4487 0e50 CC       		.byte	0xcc
 4488 0e51 1D       		.uleb128 0x1d
 4489 0e52 6A1A0000 		.4byte	.LASF238
 4490 0e56 0D       		.byte	0xd
 4491 0e57 D803     		.2byte	0x3d8
 4492 0e59 30000000 		.4byte	0x30
 4493 0e5d 04       		.byte	0x4
 4494 0e5e 02       		.byte	0x2
 4495 0e5f 1A       		.byte	0x1a
 4496 0e60 CC       		.byte	0xcc
 4497 0e61 1D       		.uleb128 0x1d
 4498 0e62 4B190000 		.4byte	.LASF239
 4499 0e66 0D       		.byte	0xd
 4500 0e67 DA03     		.2byte	0x3da
 4501 0e69 30000000 		.4byte	0x30
 4502 0e6d 04       		.byte	0x4
 4503 0e6e 01       		.byte	0x1
 4504 0e6f 19       		.byte	0x19
 4505 0e70 CC       		.byte	0xcc
 4506 0e71 1D       		.uleb128 0x1d
 4507 0e72 2B160000 		.4byte	.LASF124
 4508 0e76 0D       		.byte	0xd
ARM GAS  C:\Users\Phuong\AppData\Local\Temp\ccP1LXIT.s 			page 99


 4509 0e77 DD03     		.2byte	0x3dd
 4510 0e79 30000000 		.4byte	0x30
 4511 0e7d 04       		.byte	0x4
 4512 0e7e 03       		.byte	0x3
 4513 0e7f 16       		.byte	0x16
 4514 0e80 CC       		.byte	0xcc
 4515 0e81 1D       		.uleb128 0x1d
 4516 0e82 3A180000 		.4byte	.LASF126
 4517 0e86 0D       		.byte	0xd
 4518 0e87 E003     		.2byte	0x3e0
 4519 0e89 30000000 		.4byte	0x30
 4520 0e8d 04       		.byte	0x4
 4521 0e8e 01       		.byte	0x1
 4522 0e8f 15       		.byte	0x15
 4523 0e90 CC       		.byte	0xcc
 4524 0e91 1D       		.uleb128 0x1d
 4525 0e92 26190000 		.4byte	.LASF240
 4526 0e96 0D       		.byte	0xd
 4527 0e97 E303     		.2byte	0x3e3
 4528 0e99 30000000 		.4byte	0x30
 4529 0e9d 04       		.byte	0x4
 4530 0e9e 01       		.byte	0x1
 4531 0e9f 14       		.byte	0x14
 4532 0ea0 CC       		.byte	0xcc
 4533 0ea1 1D       		.uleb128 0x1d
 4534 0ea2 1D1D0000 		.4byte	.LASF241
 4535 0ea6 0D       		.byte	0xd
 4536 0ea7 E603     		.2byte	0x3e6
 4537 0ea9 30000000 		.4byte	0x30
 4538 0ead 04       		.byte	0x4
 4539 0eae 01       		.byte	0x1
 4540 0eaf 13       		.byte	0x13
 4541 0eb0 CC       		.byte	0xcc
 4542 0eb1 1D       		.uleb128 0x1d
 4543 0eb2 8F170000 		.4byte	.LASF242
 4544 0eb6 0D       		.byte	0xd
 4545 0eb7 E903     		.2byte	0x3e9
 4546 0eb9 30000000 		.4byte	0x30
 4547 0ebd 04       		.byte	0x4
 4548 0ebe 01       		.byte	0x1
 4549 0ebf 12       		.byte	0x12
 4550 0ec0 CC       		.byte	0xcc
 4551 0ec1 1D       		.uleb128 0x1d
 4552 0ec2 340A0000 		.4byte	.LASF243
 4553 0ec6 0D       		.byte	0xd
 4554 0ec7 EC03     		.2byte	0x3ec
 4555 0ec9 30000000 		.4byte	0x30
 4556 0ecd 04       		.byte	0x4
 4557 0ece 01       		.byte	0x1
 4558 0ecf 11       		.byte	0x11
 4559 0ed0 CC       		.byte	0xcc
 4560 0ed1 1D       		.uleb128 0x1d
 4561 0ed2 57160000 		.4byte	.LASF125
 4562 0ed6 0D       		.byte	0xd
 4563 0ed7 EF03     		.2byte	0x3ef
 4564 0ed9 30000000 		.4byte	0x30
 4565 0edd 04       		.byte	0x4
ARM GAS  C:\Users\Phuong\AppData\Local\Temp\ccP1LXIT.s 			page 100


 4566 0ede 01       		.byte	0x1
 4567 0edf 10       		.byte	0x10
 4568 0ee0 CC       		.byte	0xcc
 4569 0ee1 1D       		.uleb128 0x1d
 4570 0ee2 FE1D0000 		.4byte	.LASF244
 4571 0ee6 0D       		.byte	0xd
 4572 0ee7 F203     		.2byte	0x3f2
 4573 0ee9 30000000 		.4byte	0x30
 4574 0eed 04       		.byte	0x4
 4575 0eee 01       		.byte	0x1
 4576 0eef 0F       		.byte	0xf
 4577 0ef0 CC       		.byte	0xcc
 4578 0ef1 1D       		.uleb128 0x1d
 4579 0ef2 B5090000 		.4byte	.LASF245
 4580 0ef6 0D       		.byte	0xd
 4581 0ef7 F503     		.2byte	0x3f5
 4582 0ef9 30000000 		.4byte	0x30
 4583 0efd 04       		.byte	0x4
 4584 0efe 01       		.byte	0x1
 4585 0eff 0E       		.byte	0xe
 4586 0f00 CC       		.byte	0xcc
 4587 0f01 1D       		.uleb128 0x1d
 4588 0f02 5B0B0000 		.4byte	.LASF246
 4589 0f06 0D       		.byte	0xd
 4590 0f07 F803     		.2byte	0x3f8
 4591 0f09 30000000 		.4byte	0x30
 4592 0f0d 04       		.byte	0x4
 4593 0f0e 01       		.byte	0x1
 4594 0f0f 0D       		.byte	0xd
 4595 0f10 CC       		.byte	0xcc
 4596 0f11 00       		.byte	0
 4597 0f12 16       		.uleb128 0x16
 4598 0f13 F6130000 		.4byte	.LASF247
 4599 0f17 0D       		.byte	0xd
 4600 0f18 3402     		.2byte	0x234
 4601 0f1a 1E0F0000 		.4byte	0xf1e
 4602 0f1e 0D       		.uleb128 0xd
 4603 0f1f F6130000 		.4byte	.LASF247
 4604 0f23 16       		.uleb128 0x16
 4605 0f24 37100000 		.4byte	.LASF248
 4606 0f28 0D       		.byte	0xd
 4607 0f29 3502     		.2byte	0x235
 4608 0f2b 2F0F0000 		.4byte	0xf2f
 4609 0f2f 0D       		.uleb128 0xd
 4610 0f30 37100000 		.4byte	.LASF248
 4611 0f34 16       		.uleb128 0x16
 4612 0f35 B2110000 		.4byte	.LASF249
 4613 0f39 0D       		.byte	0xd
 4614 0f3a 3802     		.2byte	0x238
 4615 0f3c 400F0000 		.4byte	0xf40
 4616 0f40 0D       		.uleb128 0xd
 4617 0f41 B2110000 		.4byte	.LASF249
 4618 0f45 11       		.uleb128 0x11
 4619 0f46 5E000000 		.4byte	0x5e
 4620 0f4a 550F0000 		.4byte	0xf55
 4621 0f4e 12       		.uleb128 0x12
 4622 0f4f A9000000 		.4byte	0xa9
ARM GAS  C:\Users\Phuong\AppData\Local\Temp\ccP1LXIT.s 			page 101


 4623 0f53 1F       		.byte	0x1f
 4624 0f54 00       		.byte	0
 4625 0f55 11       		.uleb128 0x11
 4626 0f56 650F0000 		.4byte	0xf65
 4627 0f5a 650F0000 		.4byte	0xf65
 4628 0f5e 12       		.uleb128 0x12
 4629 0f5f A9000000 		.4byte	0xa9
 4630 0f63 03       		.byte	0x3
 4631 0f64 00       		.byte	0
 4632 0f65 06       		.uleb128 0x6
 4633 0f66 04       		.byte	0x4
 4634 0f67 6B0F0000 		.4byte	0xf6b
 4635 0f6b 07       		.uleb128 0x7
 4636 0f6c 37000000 		.4byte	0x37
 4637 0f70 17       		.uleb128 0x17
 4638 0f71 8F0F0000 		.4byte	0xf8f
 4639 0f75 10       		.uleb128 0x10
 4640 0f76 B0000000 		.4byte	0xb0
 4641 0f7a 10       		.uleb128 0x10
 4642 0f7b 37000000 		.4byte	0x37
 4643 0f7f 10       		.uleb128 0x10
 4644 0f80 C5000000 		.4byte	0xc5
 4645 0f84 10       		.uleb128 0x10
 4646 0f85 37000000 		.4byte	0x37
 4647 0f89 10       		.uleb128 0x10
 4648 0f8a C5000000 		.4byte	0xc5
 4649 0f8e 00       		.byte	0
 4650 0f8f 06       		.uleb128 0x6
 4651 0f90 04       		.byte	0x4
 4652 0f91 700F0000 		.4byte	0xf70
 4653 0f95 0F       		.uleb128 0xf
 4654 0f96 37000000 		.4byte	0x37
 4655 0f9a A90F0000 		.4byte	0xfa9
 4656 0f9e 10       		.uleb128 0x10
 4657 0f9f B0000000 		.4byte	0xb0
 4658 0fa3 10       		.uleb128 0x10
 4659 0fa4 A90F0000 		.4byte	0xfa9
 4660 0fa8 00       		.byte	0
 4661 0fa9 06       		.uleb128 0x6
 4662 0faa 04       		.byte	0x4
 4663 0fab AE070000 		.4byte	0x7ae
 4664 0faf 06       		.uleb128 0x6
 4665 0fb0 04       		.byte	0x4
 4666 0fb1 950F0000 		.4byte	0xf95
 4667 0fb5 0F       		.uleb128 0xf
 4668 0fb6 37000000 		.4byte	0x37
 4669 0fba C90F0000 		.4byte	0xfc9
 4670 0fbe 10       		.uleb128 0x10
 4671 0fbf B0000000 		.4byte	0xb0
 4672 0fc3 10       		.uleb128 0x10
 4673 0fc4 C90F0000 		.4byte	0xfc9
 4674 0fc8 00       		.byte	0
 4675 0fc9 06       		.uleb128 0x6
 4676 0fca 04       		.byte	0x4
 4677 0fcb CF0F0000 		.4byte	0xfcf
 4678 0fcf 07       		.uleb128 0x7
 4679 0fd0 AE070000 		.4byte	0x7ae
ARM GAS  C:\Users\Phuong\AppData\Local\Temp\ccP1LXIT.s 			page 102


 4680 0fd4 06       		.uleb128 0x6
 4681 0fd5 04       		.byte	0x4
 4682 0fd6 B50F0000 		.4byte	0xfb5
 4683 0fda 0F       		.uleb128 0xf
 4684 0fdb 37000000 		.4byte	0x37
 4685 0fdf F80F0000 		.4byte	0xff8
 4686 0fe3 10       		.uleb128 0x10
 4687 0fe4 B0000000 		.4byte	0xb0
 4688 0fe8 10       		.uleb128 0x10
 4689 0fe9 F80F0000 		.4byte	0xff8
 4690 0fed 10       		.uleb128 0x10
 4691 0fee 9D020000 		.4byte	0x29d
 4692 0ff2 10       		.uleb128 0x10
 4693 0ff3 25000000 		.4byte	0x25
 4694 0ff7 00       		.byte	0
 4695 0ff8 06       		.uleb128 0x6
 4696 0ff9 04       		.byte	0x4
 4697 0ffa 70080000 		.4byte	0x870
 4698 0ffe 06       		.uleb128 0x6
 4699 0fff 04       		.byte	0x4
 4700 1000 DA0F0000 		.4byte	0xfda
 4701 1004 0F       		.uleb128 0xf
 4702 1005 37000000 		.4byte	0x37
 4703 1009 22100000 		.4byte	0x1022
 4704 100d 10       		.uleb128 0x10
 4705 100e B0000000 		.4byte	0xb0
 4706 1012 10       		.uleb128 0x10
 4707 1013 01070000 		.4byte	0x701
 4708 1017 10       		.uleb128 0x10
 4709 1018 37000000 		.4byte	0x37
 4710 101c 10       		.uleb128 0x10
 4711 101d 22100000 		.4byte	0x1022
 4712 1021 00       		.byte	0
 4713 1022 06       		.uleb128 0x6
 4714 1023 04       		.byte	0x4
 4715 1024 ED000000 		.4byte	0xed
 4716 1028 06       		.uleb128 0x6
 4717 1029 04       		.byte	0x4
 4718 102a 04100000 		.4byte	0x1004
 4719 102e 0F       		.uleb128 0xf
 4720 102f 37000000 		.4byte	0x37
 4721 1033 51100000 		.4byte	0x1051
 4722 1037 10       		.uleb128 0x10
 4723 1038 B0000000 		.4byte	0xb0
 4724 103c 10       		.uleb128 0x10
 4725 103d 51100000 		.4byte	0x1051
 4726 1041 10       		.uleb128 0x10
 4727 1042 BF000000 		.4byte	0xbf
 4728 1046 10       		.uleb128 0x10
 4729 1047 9D020000 		.4byte	0x29d
 4730 104b 10       		.uleb128 0x10
 4731 104c 25000000 		.4byte	0x25
 4732 1050 00       		.byte	0
 4733 1051 06       		.uleb128 0x6
 4734 1052 04       		.byte	0x4
 4735 1053 BF000000 		.4byte	0xbf
 4736 1057 06       		.uleb128 0x6
ARM GAS  C:\Users\Phuong\AppData\Local\Temp\ccP1LXIT.s 			page 103


 4737 1058 04       		.byte	0x4
 4738 1059 2E100000 		.4byte	0x102e
 4739 105d 0F       		.uleb128 0xf
 4740 105e 37000000 		.4byte	0x37
 4741 1062 80100000 		.4byte	0x1080
 4742 1066 10       		.uleb128 0x10
 4743 1067 B0000000 		.4byte	0xb0
 4744 106b 10       		.uleb128 0x10
 4745 106c 9D020000 		.4byte	0x29d
 4746 1070 10       		.uleb128 0x10
 4747 1071 25000000 		.4byte	0x25
 4748 1075 10       		.uleb128 0x10
 4749 1076 9D020000 		.4byte	0x29d
 4750 107a 10       		.uleb128 0x10
 4751 107b 25000000 		.4byte	0x25
 4752 107f 00       		.byte	0
 4753 1080 06       		.uleb128 0x6
 4754 1081 04       		.byte	0x4
 4755 1082 5D100000 		.4byte	0x105d
 4756 1086 0F       		.uleb128 0xf
 4757 1087 37000000 		.4byte	0x37
 4758 108b AE100000 		.4byte	0x10ae
 4759 108f 10       		.uleb128 0x10
 4760 1090 B0000000 		.4byte	0xb0
 4761 1094 10       		.uleb128 0x10
 4762 1095 C90F0000 		.4byte	0xfc9
 4763 1099 10       		.uleb128 0x10
 4764 109a BF000000 		.4byte	0xbf
 4765 109e 10       		.uleb128 0x10
 4766 109f 9D020000 		.4byte	0x29d
 4767 10a3 10       		.uleb128 0x10
 4768 10a4 97020000 		.4byte	0x297
 4769 10a8 10       		.uleb128 0x10
 4770 10a9 22100000 		.4byte	0x1022
 4771 10ad 00       		.byte	0
 4772 10ae 06       		.uleb128 0x6
 4773 10af 04       		.byte	0x4
 4774 10b0 86100000 		.4byte	0x1086
 4775 10b4 0F       		.uleb128 0xf
 4776 10b5 37000000 		.4byte	0x37
 4777 10b9 D2100000 		.4byte	0x10d2
 4778 10bd 10       		.uleb128 0x10
 4779 10be B0000000 		.4byte	0xb0
 4780 10c2 10       		.uleb128 0x10
 4781 10c3 A90F0000 		.4byte	0xfa9
 4782 10c7 10       		.uleb128 0x10
 4783 10c8 BF000000 		.4byte	0xbf
 4784 10cc 10       		.uleb128 0x10
 4785 10cd 25000000 		.4byte	0x25
 4786 10d1 00       		.byte	0
 4787 10d2 06       		.uleb128 0x6
 4788 10d3 04       		.byte	0x4
 4789 10d4 B4100000 		.4byte	0x10b4
 4790 10d8 0F       		.uleb128 0xf
 4791 10d9 37000000 		.4byte	0x37
 4792 10dd 00110000 		.4byte	0x1100
 4793 10e1 10       		.uleb128 0x10
ARM GAS  C:\Users\Phuong\AppData\Local\Temp\ccP1LXIT.s 			page 104


 4794 10e2 B0000000 		.4byte	0xb0
 4795 10e6 10       		.uleb128 0x10
 4796 10e7 9D020000 		.4byte	0x29d
 4797 10eb 10       		.uleb128 0x10
 4798 10ec 9D020000 		.4byte	0x29d
 4799 10f0 10       		.uleb128 0x10
 4800 10f1 25000000 		.4byte	0x25
 4801 10f5 10       		.uleb128 0x10
 4802 10f6 25000000 		.4byte	0x25
 4803 10fa 10       		.uleb128 0x10
 4804 10fb 25000000 		.4byte	0x25
 4805 10ff 00       		.byte	0
 4806 1100 06       		.uleb128 0x6
 4807 1101 04       		.byte	0x4
 4808 1102 D8100000 		.4byte	0x10d8
 4809 1106 06       		.uleb128 0x6
 4810 1107 04       		.byte	0x4
 4811 1108 0C110000 		.4byte	0x110c
 4812 110c 07       		.uleb128 0x7
 4813 110d F6060000 		.4byte	0x6f6
 4814 1111 06       		.uleb128 0x6
 4815 1112 04       		.byte	0x4
 4816 1113 340F0000 		.4byte	0xf34
 4817 1117 06       		.uleb128 0x6
 4818 1118 04       		.byte	0x4
 4819 1119 43050000 		.4byte	0x543
 4820 111d 06       		.uleb128 0x6
 4821 111e 04       		.byte	0x4
 4822 111f 23110000 		.4byte	0x1123
 4823 1123 07       		.uleb128 0x7
 4824 1124 AB010000 		.4byte	0x1ab
 4825 1128 06       		.uleb128 0x6
 4826 1129 04       		.byte	0x4
 4827 112a C5000000 		.4byte	0xc5
 4828 112e 11       		.uleb128 0x11
 4829 112f 5E000000 		.4byte	0x5e
 4830 1133 3E110000 		.4byte	0x113e
 4831 1137 12       		.uleb128 0x12
 4832 1138 A9000000 		.4byte	0xa9
 4833 113c 07       		.byte	0x7
 4834 113d 00       		.byte	0
 4835 113e 06       		.uleb128 0x6
 4836 113f 04       		.byte	0x4
 4837 1140 44110000 		.4byte	0x1144
 4838 1144 07       		.uleb128 0x7
 4839 1145 B20B0000 		.4byte	0xbb2
 4840 1149 06       		.uleb128 0x6
 4841 114a 04       		.byte	0x4
 4842 114b 17070000 		.4byte	0x717
 4843 114f 06       		.uleb128 0x6
 4844 1150 04       		.byte	0x4
 4845 1151 3C070000 		.4byte	0x73c
 4846 1155 06       		.uleb128 0x6
 4847 1156 04       		.byte	0x4
 4848 1157 48070000 		.4byte	0x748
 4849 115b 06       		.uleb128 0x6
 4850 115c 04       		.byte	0x4
ARM GAS  C:\Users\Phuong\AppData\Local\Temp\ccP1LXIT.s 			page 105


 4851 115d 230F0000 		.4byte	0xf23
 4852 1161 06       		.uleb128 0x6
 4853 1162 04       		.byte	0x4
 4854 1163 120F0000 		.4byte	0xf12
 4855 1167 06       		.uleb128 0x6
 4856 1168 04       		.byte	0x4
 4857 1169 72070000 		.4byte	0x772
 4858 116d 06       		.uleb128 0x6
 4859 116e 04       		.byte	0x4
 4860 116f 93070000 		.4byte	0x793
 4861 1173 11       		.uleb128 0x11
 4862 1174 B8000000 		.4byte	0xb8
 4863 1178 83110000 		.4byte	0x1183
 4864 117c 12       		.uleb128 0x12
 4865 117d A9000000 		.4byte	0xa9
 4866 1181 0B       		.byte	0xb
 4867 1182 00       		.byte	0
 4868 1183 09       		.uleb128 0x9
 4869 1184 B1000000 		.4byte	.LASF250
 4870 1188 D8       		.byte	0xd8
 4871 1189 0E       		.byte	0xe
 4872 118a 37       		.byte	0x37
 4873 118b C0110000 		.4byte	0x11c0
 4874 118f 0E       		.uleb128 0xe
 4875 1190 7D110000 		.4byte	.LASF251
 4876 1194 0E       		.byte	0xe
 4877 1195 39       		.byte	0x39
 4878 1196 C0110000 		.4byte	0x11c0
 4879 119a 00       		.byte	0
 4880 119b 0E       		.uleb128 0xe
 4881 119c 29020000 		.4byte	.LASF129
 4882 11a0 0E       		.byte	0xe
 4883 11a1 3A       		.byte	0x3a
 4884 11a2 D0110000 		.4byte	0x11d0
 4885 11a6 10       		.byte	0x10
 4886 11a7 0E       		.uleb128 0xe
 4887 11a8 0E0A0000 		.4byte	.LASF252
 4888 11ac 0E       		.byte	0xe
 4889 11ad 3B       		.byte	0x3b
 4890 11ae E0110000 		.4byte	0x11e0
 4891 11b2 50       		.byte	0x50
 4892 11b3 0E       		.uleb128 0xe
 4893 11b4 730F0000 		.4byte	.LASF253
 4894 11b8 0E       		.byte	0xe
 4895 11b9 3C       		.byte	0x3c
 4896 11ba 37000000 		.4byte	0x37
 4897 11be D0       		.byte	0xd0
 4898 11bf 00       		.byte	0
 4899 11c0 11       		.uleb128 0x11
 4900 11c1 F8000000 		.4byte	0xf8
 4901 11c5 D0110000 		.4byte	0x11d0
 4902 11c9 12       		.uleb128 0x12
 4903 11ca A9000000 		.4byte	0xa9
 4904 11ce 01       		.byte	0x1
 4905 11cf 00       		.byte	0
 4906 11d0 11       		.uleb128 0x11
 4907 11d1 F8000000 		.4byte	0xf8
ARM GAS  C:\Users\Phuong\AppData\Local\Temp\ccP1LXIT.s 			page 106


 4908 11d5 E0110000 		.4byte	0x11e0
 4909 11d9 12       		.uleb128 0x12
 4910 11da A9000000 		.4byte	0xa9
 4911 11de 07       		.byte	0x7
 4912 11df 00       		.byte	0
 4913 11e0 11       		.uleb128 0x11
 4914 11e1 5E000000 		.4byte	0x5e
 4915 11e5 F0110000 		.4byte	0x11f0
 4916 11e9 12       		.uleb128 0x12
 4917 11ea A9000000 		.4byte	0xa9
 4918 11ee 7F       		.byte	0x7f
 4919 11ef 00       		.byte	0
 4920 11f0 02       		.uleb128 0x2
 4921 11f1 B1000000 		.4byte	.LASF250
 4922 11f5 0E       		.byte	0xe
 4923 11f6 3F       		.byte	0x3f
 4924 11f7 83110000 		.4byte	0x1183
 4925 11fb 02       		.uleb128 0x2
 4926 11fc 090E0000 		.4byte	.LASF254
 4927 1200 0F       		.byte	0xf
 4928 1201 68       		.byte	0x68
 4929 1202 06120000 		.4byte	0x1206
 4930 1206 06       		.uleb128 0x6
 4931 1207 04       		.byte	0x4
 4932 1208 0C120000 		.4byte	0x120c
 4933 120c 0F       		.uleb128 0xf
 4934 120d 37000000 		.4byte	0x37
 4935 1211 2A120000 		.4byte	0x122a
 4936 1215 10       		.uleb128 0x10
 4937 1216 B0000000 		.4byte	0xb0
 4938 121a 10       		.uleb128 0x10
 4939 121b BF000000 		.4byte	0xbf
 4940 121f 10       		.uleb128 0x10
 4941 1220 25000000 		.4byte	0x25
 4942 1224 10       		.uleb128 0x10
 4943 1225 97020000 		.4byte	0x297
 4944 1229 00       		.byte	0
 4945 122a 09       		.uleb128 0x9
 4946 122b DD100000 		.4byte	.LASF255
 4947 122f 14       		.byte	0x14
 4948 1230 0F       		.byte	0xf
 4949 1231 6E       		.byte	0x6e
 4950 1232 73120000 		.4byte	0x1273
 4951 1236 0E       		.uleb128 0xe
 4952 1237 600D0000 		.4byte	.LASF256
 4953 123b 0F       		.byte	0xf
 4954 123c 70       		.byte	0x70
 4955 123d FB110000 		.4byte	0x11fb
 4956 1241 00       		.byte	0
 4957 1242 0E       		.uleb128 0xe
 4958 1243 810C0000 		.4byte	.LASF257
 4959 1247 0F       		.byte	0xf
 4960 1248 71       		.byte	0x71
 4961 1249 B0000000 		.4byte	0xb0
 4962 124d 04       		.byte	0x4
 4963 124e 0E       		.uleb128 0xe
 4964 124f 91120000 		.4byte	.LASF258
ARM GAS  C:\Users\Phuong\AppData\Local\Temp\ccP1LXIT.s 			page 107


 4965 1253 0F       		.byte	0xf
 4966 1254 72       		.byte	0x72
 4967 1255 25000000 		.4byte	0x25
 4968 1259 08       		.byte	0x8
 4969 125a 0E       		.uleb128 0xe
 4970 125b EA0F0000 		.4byte	.LASF259
 4971 125f 0F       		.byte	0xf
 4972 1260 73       		.byte	0x73
 4973 1261 25000000 		.4byte	0x25
 4974 1265 0C       		.byte	0xc
 4975 1266 0E       		.uleb128 0xe
 4976 1267 38170000 		.4byte	.LASF260
 4977 126b 0F       		.byte	0xf
 4978 126c 74       		.byte	0x74
 4979 126d 37000000 		.4byte	0x37
 4980 1271 10       		.byte	0x10
 4981 1272 00       		.byte	0
 4982 1273 02       		.uleb128 0x2
 4983 1274 DD100000 		.4byte	.LASF255
 4984 1278 0F       		.byte	0xf
 4985 1279 76       		.byte	0x76
 4986 127a 2A120000 		.4byte	0x122a
 4987 127e 13       		.uleb128 0x13
 4988 127f 1D0F0000 		.4byte	.LASF261
 4989 1283 7802     		.2byte	0x278
 4990 1285 0F       		.byte	0xf
 4991 1286 7B       		.byte	0x7b
 4992 1287 BC120000 		.4byte	0x12bc
 4993 128b 0E       		.uleb128 0xe
 4994 128c 300D0000 		.4byte	.LASF262
 4995 1290 0F       		.byte	0xf
 4996 1291 7D       		.byte	0x7d
 4997 1292 37000000 		.4byte	0x37
 4998 1296 00       		.byte	0
 4999 1297 0E       		.uleb128 0xe
 5000 1298 D5180000 		.4byte	.LASF263
 5001 129c 0F       		.byte	0xf
 5002 129d 7F       		.byte	0x7f
 5003 129e F0110000 		.4byte	0x11f0
 5004 12a2 08       		.byte	0x8
 5005 12a3 0E       		.uleb128 0xe
 5006 12a4 B20C0000 		.4byte	.LASF264
 5007 12a8 0F       		.byte	0xf
 5008 12a9 83       		.byte	0x83
 5009 12aa 37000000 		.4byte	0x37
 5010 12ae E0       		.byte	0xe0
 5011 12af 0E       		.uleb128 0xe
 5012 12b0 EE080000 		.4byte	.LASF265
 5013 12b4 0F       		.byte	0xf
 5014 12b5 84       		.byte	0x84
 5015 12b6 BC120000 		.4byte	0x12bc
 5016 12ba E4       		.byte	0xe4
 5017 12bb 00       		.byte	0
 5018 12bc 11       		.uleb128 0x11
 5019 12bd 73120000 		.4byte	0x1273
 5020 12c1 CC120000 		.4byte	0x12cc
 5021 12c5 12       		.uleb128 0x12
ARM GAS  C:\Users\Phuong\AppData\Local\Temp\ccP1LXIT.s 			page 108


 5022 12c6 A9000000 		.4byte	0xa9
 5023 12ca 13       		.byte	0x13
 5024 12cb 00       		.byte	0
 5025 12cc 02       		.uleb128 0x2
 5026 12cd 1D0F0000 		.4byte	.LASF261
 5027 12d1 0F       		.byte	0xf
 5028 12d2 8F       		.byte	0x8f
 5029 12d3 7E120000 		.4byte	0x127e
 5030 12d7 13       		.uleb128 0x13
 5031 12d8 CE010000 		.4byte	.LASF266
 5032 12dc 1801     		.2byte	0x118
 5033 12de 10       		.byte	0x10
 5034 12df 52       		.byte	0x52
 5035 12e0 07130000 		.4byte	0x1307
 5036 12e4 0A       		.uleb128 0xa
 5037 12e5 6E7200   		.ascii	"nr\000"
 5038 12e8 10       		.byte	0x10
 5039 12e9 54       		.byte	0x54
 5040 12ea 37000000 		.4byte	0x37
 5041 12ee 00       		.byte	0
 5042 12ef 0A       		.uleb128 0xa
 5043 12f0 726B00   		.ascii	"rk\000"
 5044 12f3 10       		.byte	0x10
 5045 12f4 55       		.byte	0x55
 5046 12f5 22100000 		.4byte	0x1022
 5047 12f9 04       		.byte	0x4
 5048 12fa 0A       		.uleb128 0xa
 5049 12fb 62756600 		.ascii	"buf\000"
 5050 12ff 10       		.byte	0x10
 5051 1300 56       		.byte	0x56
 5052 1301 07130000 		.4byte	0x1307
 5053 1305 08       		.byte	0x8
 5054 1306 00       		.byte	0
 5055 1307 11       		.uleb128 0x11
 5056 1308 ED000000 		.4byte	0xed
 5057 130c 17130000 		.4byte	0x1317
 5058 1310 12       		.uleb128 0x12
 5059 1311 A9000000 		.4byte	0xa9
 5060 1315 43       		.byte	0x43
 5061 1316 00       		.byte	0
 5062 1317 02       		.uleb128 0x2
 5063 1318 CE010000 		.4byte	.LASF266
 5064 131c 10       		.byte	0x10
 5065 131d 5F       		.byte	0x5f
 5066 131e D7120000 		.4byte	0x12d7
 5067 1322 13       		.uleb128 0x13
 5068 1323 5C140000 		.4byte	.LASF267
 5069 1327 4001     		.2byte	0x140
 5070 1329 11       		.byte	0x11
 5071 132a 78       		.byte	0x78
 5072 132b 92130000 		.4byte	0x1392
 5073 132f 0E       		.uleb128 0xe
 5074 1330 A80E0000 		.4byte	.LASF268
 5075 1334 11       		.byte	0x11
 5076 1335 7A       		.byte	0x7a
 5077 1336 C7020000 		.4byte	0x2c7
 5078 133a 00       		.byte	0
ARM GAS  C:\Users\Phuong\AppData\Local\Temp\ccP1LXIT.s 			page 109


 5079 133b 0E       		.uleb128 0xe
 5080 133c C61D0000 		.4byte	.LASF269
 5081 1340 11       		.byte	0x11
 5082 1341 7B       		.byte	0x7b
 5083 1342 37000000 		.4byte	0x37
 5084 1346 10       		.byte	0x10
 5085 1347 0E       		.uleb128 0xe
 5086 1348 B7020000 		.4byte	.LASF270
 5087 134c 11       		.byte	0x11
 5088 134d 7C       		.byte	0x7c
 5089 134e 37000000 		.4byte	0x37
 5090 1352 14       		.byte	0x14
 5091 1353 0E       		.uleb128 0xe
 5092 1354 6E0E0000 		.4byte	.LASF271
 5093 1358 11       		.byte	0x11
 5094 1359 80       		.byte	0x80
 5095 135a 25000000 		.4byte	0x25
 5096 135e 18       		.byte	0x18
 5097 135f 0E       		.uleb128 0xe
 5098 1360 89110000 		.4byte	.LASF272
 5099 1364 11       		.byte	0x11
 5100 1365 82       		.byte	0x82
 5101 1366 37000000 		.4byte	0x37
 5102 136a 1C       		.byte	0x1c
 5103 136b 0E       		.uleb128 0xe
 5104 136c 58130000 		.4byte	.LASF273
 5105 1370 11       		.byte	0x11
 5106 1371 84       		.byte	0x84
 5107 1372 17130000 		.4byte	0x1317
 5108 1376 20       		.byte	0x20
 5109 1377 14       		.uleb128 0x14
 5110 1378 491E0000 		.4byte	.LASF274
 5111 137c 11       		.byte	0x11
 5112 137d 89       		.byte	0x89
 5113 137e A8020000 		.4byte	0x2a8
 5114 1382 3801     		.2byte	0x138
 5115 1384 14       		.uleb128 0x14
 5116 1385 B3050000 		.4byte	.LASF275
 5117 1389 11       		.byte	0x11
 5118 138a 8C       		.byte	0x8c
 5119 138b B0000000 		.4byte	0xb0
 5120 138f 3C01     		.2byte	0x13c
 5121 1391 00       		.byte	0
 5122 1392 02       		.uleb128 0x2
 5123 1393 5C140000 		.4byte	.LASF267
 5124 1397 11       		.byte	0x11
 5125 1398 92       		.byte	0x92
 5126 1399 22130000 		.4byte	0x1322
 5127 139d 1E       		.uleb128 0x1e
 5128 139e 3D1A0000 		.4byte	.LASF284
 5129 13a2 01       		.byte	0x1
 5130 13a3 5E000000 		.4byte	0x5e
 5131 13a7 12       		.byte	0x12
 5132 13a8 0E       		.byte	0xe
 5133 13a9 C0130000 		.4byte	0x13c0
 5134 13ad 0C       		.uleb128 0xc
 5135 13ae E4160000 		.4byte	.LASF276
ARM GAS  C:\Users\Phuong\AppData\Local\Temp\ccP1LXIT.s 			page 110


 5136 13b2 00       		.byte	0
 5137 13b3 0C       		.uleb128 0xc
 5138 13b4 780A0000 		.4byte	.LASF277
 5139 13b8 01       		.byte	0x1
 5140 13b9 0C       		.uleb128 0xc
 5141 13ba 66050000 		.4byte	.LASF278
 5142 13be 02       		.byte	0x2
 5143 13bf 00       		.byte	0
 5144 13c0 02       		.uleb128 0x2
 5145 13c1 981B0000 		.4byte	.LASF279
 5146 13c5 12       		.byte	0x12
 5147 13c6 16       		.byte	0x16
 5148 13c7 CB130000 		.4byte	0x13cb
 5149 13cb 06       		.uleb128 0x6
 5150 13cc 04       		.byte	0x4
 5151 13cd D1130000 		.4byte	0x13d1
 5152 13d1 0D       		.uleb128 0xd
 5153 13d2 7F050000 		.4byte	.LASF280
 5154 13d6 02       		.uleb128 0x2
 5155 13d7 32190000 		.4byte	.LASF281
 5156 13db 13       		.byte	0x13
 5157 13dc 13       		.byte	0x13
 5158 13dd E1130000 		.4byte	0x13e1
 5159 13e1 06       		.uleb128 0x6
 5160 13e2 04       		.byte	0x4
 5161 13e3 E7130000 		.4byte	0x13e7
 5162 13e7 0D       		.uleb128 0xd
 5163 13e8 E2000000 		.4byte	.LASF282
 5164 13ec 02       		.uleb128 0x2
 5165 13ed 3A060000 		.4byte	.LASF283
 5166 13f1 13       		.byte	0x13
 5167 13f2 14       		.byte	0x14
 5168 13f3 B0000000 		.4byte	0xb0
 5169 13f7 1E       		.uleb128 0x1e
 5170 13f8 B1170000 		.4byte	.LASF285
 5171 13fc 01       		.byte	0x1
 5172 13fd 5E000000 		.4byte	0x5e
 5173 1401 13       		.byte	0x13
 5174 1402 1B       		.byte	0x1b
 5175 1403 1A140000 		.4byte	0x141a
 5176 1407 0C       		.uleb128 0xc
 5177 1408 88150000 		.4byte	.LASF286
 5178 140c 00       		.byte	0
 5179 140d 0C       		.uleb128 0xc
 5180 140e 59010000 		.4byte	.LASF287
 5181 1412 01       		.byte	0x1
 5182 1413 0C       		.uleb128 0xc
 5183 1414 951C0000 		.4byte	.LASF288
 5184 1418 02       		.byte	0x2
 5185 1419 00       		.byte	0
 5186 141a 02       		.uleb128 0x2
 5187 141b 49130000 		.4byte	.LASF289
 5188 141f 13       		.byte	0x13
 5189 1420 1B       		.byte	0x1b
 5190 1421 F7130000 		.4byte	0x13f7
 5191 1425 1E       		.uleb128 0x1e
 5192 1426 F0040000 		.4byte	.LASF290
ARM GAS  C:\Users\Phuong\AppData\Local\Temp\ccP1LXIT.s 			page 111


 5193 142a 01       		.byte	0x1
 5194 142b 5E000000 		.4byte	0x5e
 5195 142f 13       		.byte	0x13
 5196 1430 22       		.byte	0x22
 5197 1431 48140000 		.4byte	0x1448
 5198 1435 0C       		.uleb128 0xc
 5199 1436 C3120000 		.4byte	.LASF291
 5200 143a 00       		.byte	0
 5201 143b 0C       		.uleb128 0xc
 5202 143c 1D1E0000 		.4byte	.LASF292
 5203 1440 01       		.byte	0x1
 5204 1441 0C       		.uleb128 0xc
 5205 1442 CB100000 		.4byte	.LASF293
 5206 1446 02       		.byte	0x2
 5207 1447 00       		.byte	0
 5208 1448 02       		.uleb128 0x2
 5209 1449 64180000 		.4byte	.LASF294
 5210 144d 13       		.byte	0x13
 5211 144e 22       		.byte	0x22
 5212 144f 25140000 		.4byte	0x1425
 5213 1453 02       		.uleb128 0x2
 5214 1454 C10D0000 		.4byte	.LASF295
 5215 1458 13       		.byte	0x13
 5216 1459 24       		.byte	0x24
 5217 145a 5E140000 		.4byte	0x145e
 5218 145e 06       		.uleb128 0x6
 5219 145f 04       		.byte	0x4
 5220 1460 64140000 		.4byte	0x1464
 5221 1464 17       		.uleb128 0x17
 5222 1465 79140000 		.4byte	0x1479
 5223 1469 10       		.uleb128 0x10
 5224 146a B0000000 		.4byte	0xb0
 5225 146e 10       		.uleb128 0x10
 5226 146f 9D020000 		.4byte	0x29d
 5227 1473 10       		.uleb128 0x10
 5228 1474 25000000 		.4byte	0x25
 5229 1478 00       		.byte	0
 5230 1479 02       		.uleb128 0x2
 5231 147a 77020000 		.4byte	.LASF296
 5232 147e 13       		.byte	0x13
 5233 147f 25       		.byte	0x25
 5234 1480 84140000 		.4byte	0x1484
 5235 1484 06       		.uleb128 0x6
 5236 1485 04       		.byte	0x4
 5237 1486 8A140000 		.4byte	0x148a
 5238 148a 17       		.uleb128 0x17
 5239 148b 9A140000 		.4byte	0x149a
 5240 148f 10       		.uleb128 0x10
 5241 1490 B0000000 		.4byte	0xb0
 5242 1494 10       		.uleb128 0x10
 5243 1495 1A140000 		.4byte	0x141a
 5244 1499 00       		.byte	0
 5245 149a 02       		.uleb128 0x2
 5246 149b C10F0000 		.4byte	.LASF297
 5247 149f 13       		.byte	0x13
 5248 14a0 26       		.byte	0x26
 5249 14a1 A5140000 		.4byte	0x14a5
ARM GAS  C:\Users\Phuong\AppData\Local\Temp\ccP1LXIT.s 			page 112


 5250 14a5 06       		.uleb128 0x6
 5251 14a6 04       		.byte	0x4
 5252 14a7 AB140000 		.4byte	0x14ab
 5253 14ab 17       		.uleb128 0x17
 5254 14ac BB140000 		.4byte	0x14bb
 5255 14b0 10       		.uleb128 0x10
 5256 14b1 B0000000 		.4byte	0xb0
 5257 14b5 10       		.uleb128 0x10
 5258 14b6 48140000 		.4byte	0x1448
 5259 14ba 00       		.byte	0
 5260 14bb 02       		.uleb128 0x2
 5261 14bc F6150000 		.4byte	.LASF298
 5262 14c0 13       		.byte	0x13
 5263 14c1 27       		.byte	0x27
 5264 14c2 C6140000 		.4byte	0x14c6
 5265 14c6 06       		.uleb128 0x6
 5266 14c7 04       		.byte	0x4
 5267 14c8 CC140000 		.4byte	0x14cc
 5268 14cc 17       		.uleb128 0x17
 5269 14cd D7140000 		.4byte	0x14d7
 5270 14d1 10       		.uleb128 0x10
 5271 14d2 B0000000 		.4byte	0xb0
 5272 14d6 00       		.byte	0
 5273 14d7 02       		.uleb128 0x2
 5274 14d8 83170000 		.4byte	.LASF299
 5275 14dc 13       		.byte	0x13
 5276 14dd 28       		.byte	0x28
 5277 14de C6140000 		.4byte	0x14c6
 5278 14e2 02       		.uleb128 0x2
 5279 14e3 A1130000 		.4byte	.LASF300
 5280 14e7 13       		.byte	0x13
 5281 14e8 2A       		.byte	0x2a
 5282 14e9 ED140000 		.4byte	0x14ed
 5283 14ed 06       		.uleb128 0x6
 5284 14ee 04       		.byte	0x4
 5285 14ef F3140000 		.4byte	0x14f3
 5286 14f3 0F       		.uleb128 0xf
 5287 14f4 C0130000 		.4byte	0x13c0
 5288 14f8 02150000 		.4byte	0x1502
 5289 14fc 10       		.uleb128 0x10
 5290 14fd EC130000 		.4byte	0x13ec
 5291 1501 00       		.byte	0
 5292 1502 02       		.uleb128 0x2
 5293 1503 9F160000 		.4byte	.LASF301
 5294 1507 13       		.byte	0x13
 5295 1508 2B       		.byte	0x2b
 5296 1509 0D150000 		.4byte	0x150d
 5297 150d 06       		.uleb128 0x6
 5298 150e 04       		.byte	0x4
 5299 150f 13150000 		.4byte	0x1513
 5300 1513 0F       		.uleb128 0xf
 5301 1514 EC130000 		.4byte	0x13ec
 5302 1518 22150000 		.4byte	0x1522
 5303 151c 10       		.uleb128 0x10
 5304 151d B0000000 		.4byte	0xb0
 5305 1521 00       		.byte	0
 5306 1522 02       		.uleb128 0x2
ARM GAS  C:\Users\Phuong\AppData\Local\Temp\ccP1LXIT.s 			page 113


 5307 1523 DD090000 		.4byte	.LASF302
 5308 1527 13       		.byte	0x13
 5309 1528 2C       		.byte	0x2c
 5310 1529 2D150000 		.4byte	0x152d
 5311 152d 06       		.uleb128 0x6
 5312 152e 04       		.byte	0x4
 5313 152f 33150000 		.4byte	0x1533
 5314 1533 17       		.uleb128 0x17
 5315 1534 3E150000 		.4byte	0x153e
 5316 1538 10       		.uleb128 0x10
 5317 1539 EC130000 		.4byte	0x13ec
 5318 153d 00       		.byte	0
 5319 153e 02       		.uleb128 0x2
 5320 153f 0C010000 		.4byte	.LASF303
 5321 1543 13       		.byte	0x13
 5322 1544 2D       		.byte	0x2d
 5323 1545 49150000 		.4byte	0x1549
 5324 1549 06       		.uleb128 0x6
 5325 154a 04       		.byte	0x4
 5326 154b 4F150000 		.4byte	0x154f
 5327 154f 0F       		.uleb128 0xf
 5328 1550 37000000 		.4byte	0x37
 5329 1554 7C150000 		.4byte	0x157c
 5330 1558 10       		.uleb128 0x10
 5331 1559 EC130000 		.4byte	0x13ec
 5332 155d 10       		.uleb128 0x10
 5333 155e 9A140000 		.4byte	0x149a
 5334 1562 10       		.uleb128 0x10
 5335 1563 B0000000 		.4byte	0xb0
 5336 1567 10       		.uleb128 0x10
 5337 1568 53140000 		.4byte	0x1453
 5338 156c 10       		.uleb128 0x10
 5339 156d B0000000 		.4byte	0xb0
 5340 1571 10       		.uleb128 0x10
 5341 1572 D7140000 		.4byte	0x14d7
 5342 1576 10       		.uleb128 0x10
 5343 1577 B0000000 		.4byte	0xb0
 5344 157b 00       		.byte	0
 5345 157c 02       		.uleb128 0x2
 5346 157d B0080000 		.4byte	.LASF304
 5347 1581 13       		.byte	0x13
 5348 1582 2E       		.byte	0x2e
 5349 1583 87150000 		.4byte	0x1587
 5350 1587 06       		.uleb128 0x6
 5351 1588 04       		.byte	0x4
 5352 1589 8D150000 		.4byte	0x158d
 5353 158d 0F       		.uleb128 0xf
 5354 158e 37000000 		.4byte	0x37
 5355 1592 A6150000 		.4byte	0x15a6
 5356 1596 10       		.uleb128 0x10
 5357 1597 EC130000 		.4byte	0x13ec
 5358 159b 10       		.uleb128 0x10
 5359 159c BB140000 		.4byte	0x14bb
 5360 15a0 10       		.uleb128 0x10
 5361 15a1 B0000000 		.4byte	0xb0
 5362 15a5 00       		.byte	0
 5363 15a6 02       		.uleb128 0x2
ARM GAS  C:\Users\Phuong\AppData\Local\Temp\ccP1LXIT.s 			page 114


 5364 15a7 020C0000 		.4byte	.LASF305
 5365 15ab 13       		.byte	0x13
 5366 15ac 2F       		.byte	0x2f
 5367 15ad B1150000 		.4byte	0x15b1
 5368 15b1 06       		.uleb128 0x6
 5369 15b2 04       		.byte	0x4
 5370 15b3 B7150000 		.4byte	0x15b7
 5371 15b7 0F       		.uleb128 0xf
 5372 15b8 37000000 		.4byte	0x37
 5373 15bc DA150000 		.4byte	0x15da
 5374 15c0 10       		.uleb128 0x10
 5375 15c1 EC130000 		.4byte	0x13ec
 5376 15c5 10       		.uleb128 0x10
 5377 15c6 D0000000 		.4byte	0xd0
 5378 15ca 10       		.uleb128 0x10
 5379 15cb 25000000 		.4byte	0x25
 5380 15cf 10       		.uleb128 0x10
 5381 15d0 79140000 		.4byte	0x1479
 5382 15d4 10       		.uleb128 0x10
 5383 15d5 B0000000 		.4byte	0xb0
 5384 15d9 00       		.byte	0
 5385 15da 02       		.uleb128 0x2
 5386 15db DD130000 		.4byte	.LASF306
 5387 15df 13       		.byte	0x13
 5388 15e0 30       		.byte	0x30
 5389 15e1 2D150000 		.4byte	0x152d
 5390 15e5 02       		.uleb128 0x2
 5391 15e6 A4170000 		.4byte	.LASF307
 5392 15ea 13       		.byte	0x13
 5393 15eb 31       		.byte	0x31
 5394 15ec F0150000 		.4byte	0x15f0
 5395 15f0 06       		.uleb128 0x6
 5396 15f1 04       		.byte	0x4
 5397 15f2 F6150000 		.4byte	0x15f6
 5398 15f6 0F       		.uleb128 0xf
 5399 15f7 37000000 		.4byte	0x37
 5400 15fb 0F160000 		.4byte	0x160f
 5401 15ff 10       		.uleb128 0x10
 5402 1600 EC130000 		.4byte	0x13ec
 5403 1604 10       		.uleb128 0x10
 5404 1605 C5000000 		.4byte	0xc5
 5405 1609 10       		.uleb128 0x10
 5406 160a D0000000 		.4byte	0xd0
 5407 160e 00       		.byte	0
 5408 160f 09       		.uleb128 0x9
 5409 1610 98090000 		.4byte	.LASF308
 5410 1614 20       		.byte	0x20
 5411 1615 13       		.byte	0x13
 5412 1616 34       		.byte	0x34
 5413 1617 7C160000 		.4byte	0x167c
 5414 161b 0E       		.uleb128 0xe
 5415 161c 6D130000 		.4byte	.LASF309
 5416 1620 13       		.byte	0x13
 5417 1621 36       		.byte	0x36
 5418 1622 E2140000 		.4byte	0x14e2
 5419 1626 00       		.byte	0
 5420 1627 0E       		.uleb128 0xe
ARM GAS  C:\Users\Phuong\AppData\Local\Temp\ccP1LXIT.s 			page 115


 5421 1628 A71C0000 		.4byte	.LASF310
 5422 162c 13       		.byte	0x13
 5423 162d 37       		.byte	0x37
 5424 162e 02150000 		.4byte	0x1502
 5425 1632 04       		.byte	0x4
 5426 1633 0E       		.uleb128 0xe
 5427 1634 21090000 		.4byte	.LASF311
 5428 1638 13       		.byte	0x13
 5429 1639 38       		.byte	0x38
 5430 163a 22150000 		.4byte	0x1522
 5431 163e 08       		.byte	0x8
 5432 163f 0E       		.uleb128 0xe
 5433 1640 E1180000 		.4byte	.LASF312
 5434 1644 13       		.byte	0x13
 5435 1645 39       		.byte	0x39
 5436 1646 3E150000 		.4byte	0x153e
 5437 164a 0C       		.byte	0xc
 5438 164b 0E       		.uleb128 0xe
 5439 164c C7040000 		.4byte	.LASF313
 5440 1650 13       		.byte	0x13
 5441 1651 3A       		.byte	0x3a
 5442 1652 7C150000 		.4byte	0x157c
 5443 1656 10       		.byte	0x10
 5444 1657 0E       		.uleb128 0xe
 5445 1658 C10A0000 		.4byte	.LASF314
 5446 165c 13       		.byte	0x13
 5447 165d 3B       		.byte	0x3b
 5448 165e A6150000 		.4byte	0x15a6
 5449 1662 14       		.byte	0x14
 5450 1663 0E       		.uleb128 0xe
 5451 1664 031A0000 		.4byte	.LASF315
 5452 1668 13       		.byte	0x13
 5453 1669 3C       		.byte	0x3c
 5454 166a DA150000 		.4byte	0x15da
 5455 166e 18       		.byte	0x18
 5456 166f 0E       		.uleb128 0xe
 5457 1670 BE0E0000 		.4byte	.LASF316
 5458 1674 13       		.byte	0x13
 5459 1675 3D       		.byte	0x3d
 5460 1676 E5150000 		.4byte	0x15e5
 5461 167a 1C       		.byte	0x1c
 5462 167b 00       		.byte	0
 5463 167c 02       		.uleb128 0x2
 5464 167d AD1D0000 		.4byte	.LASF317
 5465 1681 13       		.byte	0x13
 5466 1682 3E       		.byte	0x3e
 5467 1683 0F160000 		.4byte	0x160f
 5468 1687 09       		.uleb128 0x9
 5469 1688 F5160000 		.4byte	.LASF318
 5470 168c 10       		.byte	0x10
 5471 168d 14       		.byte	0x14
 5472 168e 0D       		.byte	0xd
 5473 168f C4160000 		.4byte	0x16c4
 5474 1693 0E       		.uleb128 0xe
 5475 1694 3F160000 		.4byte	.LASF181
 5476 1698 14       		.byte	0x14
 5477 1699 0F       		.byte	0xf
ARM GAS  C:\Users\Phuong\AppData\Local\Temp\ccP1LXIT.s 			page 116


 5478 169a C5000000 		.4byte	0xc5
 5479 169e 00       		.byte	0
 5480 169f 0E       		.uleb128 0xe
 5481 16a0 35180000 		.4byte	.LASF319
 5482 16a4 14       		.byte	0x14
 5483 16a5 10       		.byte	0x10
 5484 16a6 37000000 		.4byte	0x37
 5485 16aa 04       		.byte	0x4
 5486 16ab 0E       		.uleb128 0xe
 5487 16ac 4B0E0000 		.4byte	.LASF320
 5488 16b0 14       		.byte	0x14
 5489 16b1 11       		.byte	0x11
 5490 16b2 C4160000 		.4byte	0x16c4
 5491 16b6 08       		.byte	0x8
 5492 16b7 0E       		.uleb128 0xe
 5493 16b8 C1190000 		.4byte	.LASF321
 5494 16bc 14       		.byte	0x14
 5495 16bd 12       		.byte	0x12
 5496 16be B0000000 		.4byte	0xb0
 5497 16c2 0C       		.byte	0xc
 5498 16c3 00       		.byte	0
 5499 16c4 06       		.uleb128 0x6
 5500 16c5 04       		.byte	0x4
 5501 16c6 CA160000 		.4byte	0x16ca
 5502 16ca 07       		.uleb128 0x7
 5503 16cb 7C160000 		.4byte	0x167c
 5504 16cf 02       		.uleb128 0x2
 5505 16d0 1C020000 		.4byte	.LASF322
 5506 16d4 14       		.byte	0x14
 5507 16d5 13       		.byte	0x13
 5508 16d6 87160000 		.4byte	0x1687
 5509 16da 1E       		.uleb128 0x1e
 5510 16db 360C0000 		.4byte	.LASF323
 5511 16df 01       		.byte	0x1
 5512 16e0 5E000000 		.4byte	0x5e
 5513 16e4 15       		.byte	0x15
 5514 16e5 22       		.byte	0x22
 5515 16e6 FD160000 		.4byte	0x16fd
 5516 16ea 0C       		.uleb128 0xc
 5517 16eb A2190000 		.4byte	.LASF324
 5518 16ef 00       		.byte	0
 5519 16f0 0C       		.uleb128 0xc
 5520 16f1 690D0000 		.4byte	.LASF325
 5521 16f5 01       		.byte	0x1
 5522 16f6 0C       		.uleb128 0xc
 5523 16f7 4F140000 		.4byte	.LASF326
 5524 16fb 02       		.byte	0x2
 5525 16fc 00       		.byte	0
 5526 16fd 02       		.uleb128 0x2
 5527 16fe B4130000 		.4byte	.LASF327
 5528 1702 15       		.byte	0x15
 5529 1703 27       		.byte	0x27
 5530 1704 DA160000 		.4byte	0x16da
 5531 1708 02       		.uleb128 0x2
 5532 1709 18060000 		.4byte	.LASF328
 5533 170d 15       		.byte	0x15
 5534 170e 2F       		.byte	0x2f
ARM GAS  C:\Users\Phuong\AppData\Local\Temp\ccP1LXIT.s 			page 117


 5535 170f 13170000 		.4byte	0x1713
 5536 1713 06       		.uleb128 0x6
 5537 1714 04       		.byte	0x4
 5538 1715 19170000 		.4byte	0x1719
 5539 1719 17       		.uleb128 0x17
 5540 171a 3E170000 		.4byte	0x173e
 5541 171e 10       		.uleb128 0x10
 5542 171f FD160000 		.4byte	0x16fd
 5543 1723 10       		.uleb128 0x10
 5544 1724 C5000000 		.4byte	0xc5
 5545 1728 10       		.uleb128 0x10
 5546 1729 C5000000 		.4byte	0xc5
 5547 172d 10       		.uleb128 0x10
 5548 172e 37000000 		.4byte	0x37
 5549 1732 10       		.uleb128 0x10
 5550 1733 30000000 		.4byte	0x30
 5551 1737 10       		.uleb128 0x10
 5552 1738 C5000000 		.4byte	0xc5
 5553 173c 1F       		.uleb128 0x1f
 5554 173d 00       		.byte	0
 5555 173e 09       		.uleb128 0x9
 5556 173f 91030000 		.4byte	.LASF329
 5557 1743 0C       		.byte	0xc
 5558 1744 16       		.byte	0x16
 5559 1745 12       		.byte	0x12
 5560 1746 6F170000 		.4byte	0x176f
 5561 174a 0E       		.uleb128 0xe
 5562 174b 3F160000 		.4byte	.LASF181
 5563 174f 16       		.byte	0x16
 5564 1750 14       		.byte	0x14
 5565 1751 C5000000 		.4byte	0xc5
 5566 1755 00       		.byte	0
 5567 1756 0E       		.uleb128 0xe
 5568 1757 35180000 		.4byte	.LASF319
 5569 175b 16       		.byte	0x16
 5570 175c 15       		.byte	0x15
 5571 175d 37000000 		.4byte	0x37
 5572 1761 04       		.byte	0x4
 5573 1762 0E       		.uleb128 0xe
 5574 1763 1B160000 		.4byte	.LASF330
 5575 1767 16       		.byte	0x16
 5576 1768 16       		.byte	0x16
 5577 1769 B0000000 		.4byte	0xb0
 5578 176d 08       		.byte	0x8
 5579 176e 00       		.byte	0
 5580 176f 02       		.uleb128 0x2
 5581 1770 971A0000 		.4byte	.LASF331
 5582 1774 16       		.byte	0x16
 5583 1775 17       		.byte	0x17
 5584 1776 3E170000 		.4byte	0x173e
 5585 177a 1E       		.uleb128 0x1e
 5586 177b D51D0000 		.4byte	.LASF332
 5587 177f 01       		.byte	0x1
 5588 1780 5E000000 		.4byte	0x5e
 5589 1784 01       		.byte	0x1
 5590 1785 32       		.byte	0x32
 5591 1786 AF170000 		.4byte	0x17af
ARM GAS  C:\Users\Phuong\AppData\Local\Temp\ccP1LXIT.s 			page 118


 5592 178a 0C       		.uleb128 0xc
 5593 178b F81B0000 		.4byte	.LASF333
 5594 178f 00       		.byte	0
 5595 1790 0C       		.uleb128 0xc
 5596 1791 6E000000 		.4byte	.LASF334
 5597 1795 01       		.byte	0x1
 5598 1796 0C       		.uleb128 0xc
 5599 1797 F3000000 		.4byte	.LASF335
 5600 179b 02       		.byte	0x2
 5601 179c 0C       		.uleb128 0xc
 5602 179d 4A070000 		.4byte	.LASF336
 5603 17a1 03       		.byte	0x3
 5604 17a2 0C       		.uleb128 0xc
 5605 17a3 70090000 		.4byte	.LASF337
 5606 17a7 04       		.byte	0x4
 5607 17a8 0C       		.uleb128 0xc
 5608 17a9 4C110000 		.4byte	.LASF338
 5609 17ad 05       		.byte	0x5
 5610 17ae 00       		.byte	0
 5611 17af 02       		.uleb128 0x2
 5612 17b0 0C1D0000 		.4byte	.LASF339
 5613 17b4 01       		.byte	0x1
 5614 17b5 3A       		.byte	0x3a
 5615 17b6 7A170000 		.4byte	0x177a
 5616 17ba 13       		.uleb128 0x13
 5617 17bb 84090000 		.4byte	.LASF340
 5618 17bf 9007     		.2byte	0x790
 5619 17c1 01       		.byte	0x1
 5620 17c2 3C       		.byte	0x3c
 5621 17c3 CA180000 		.4byte	0x18ca
 5622 17c7 0E       		.uleb128 0xe
 5623 17c8 EA1D0000 		.4byte	.LASF341
 5624 17cc 01       		.byte	0x1
 5625 17cd 3E       		.byte	0x3e
 5626 17ce D6130000 		.4byte	0x13d6
 5627 17d2 00       		.byte	0
 5628 17d3 0E       		.uleb128 0xe
 5629 17d4 CB130000 		.4byte	.LASF342
 5630 17d8 01       		.byte	0x1
 5631 17d9 3F       		.byte	0x3f
 5632 17da 53140000 		.4byte	0x1453
 5633 17de 04       		.byte	0x4
 5634 17df 0E       		.uleb128 0xe
 5635 17e0 0D1C0000 		.4byte	.LASF343
 5636 17e4 01       		.byte	0x1
 5637 17e5 40       		.byte	0x40
 5638 17e6 9A140000 		.4byte	0x149a
 5639 17ea 08       		.byte	0x8
 5640 17eb 0E       		.uleb128 0xe
 5641 17ec 51050000 		.4byte	.LASF344
 5642 17f0 01       		.byte	0x1
 5643 17f1 41       		.byte	0x41
 5644 17f2 BB140000 		.4byte	0x14bb
 5645 17f6 0C       		.byte	0xc
 5646 17f7 0E       		.uleb128 0xe
 5647 17f8 28070000 		.4byte	.LASF345
 5648 17fc 01       		.byte	0x1
ARM GAS  C:\Users\Phuong\AppData\Local\Temp\ccP1LXIT.s 			page 119


 5649 17fd 42       		.byte	0x42
 5650 17fe D7140000 		.4byte	0x14d7
 5651 1802 10       		.byte	0x10
 5652 1803 0E       		.uleb128 0xe
 5653 1804 07090000 		.4byte	.LASF346
 5654 1808 01       		.byte	0x1
 5655 1809 43       		.byte	0x43
 5656 180a B0000000 		.4byte	0xb0
 5657 180e 14       		.byte	0x14
 5658 180f 0E       		.uleb128 0xe
 5659 1810 96060000 		.4byte	.LASF347
 5660 1814 01       		.byte	0x1
 5661 1815 44       		.byte	0x44
 5662 1816 B0000000 		.4byte	0xb0
 5663 181a 18       		.byte	0x18
 5664 181b 0E       		.uleb128 0xe
 5665 181c 501D0000 		.4byte	.LASF348
 5666 1820 01       		.byte	0x1
 5667 1821 45       		.byte	0x45
 5668 1822 B0000000 		.4byte	0xb0
 5669 1826 1C       		.byte	0x1c
 5670 1827 0E       		.uleb128 0xe
 5671 1828 7D030000 		.4byte	.LASF349
 5672 182c 01       		.byte	0x1
 5673 182d 46       		.byte	0x46
 5674 182e B0000000 		.4byte	0xb0
 5675 1832 20       		.byte	0x20
 5676 1833 0E       		.uleb128 0xe
 5677 1834 5B040000 		.4byte	.LASF350
 5678 1838 01       		.byte	0x1
 5679 1839 47       		.byte	0x47
 5680 183a AF170000 		.4byte	0x17af
 5681 183e 24       		.byte	0x24
 5682 183f 0E       		.uleb128 0xe
 5683 1840 7D070000 		.4byte	.LASF351
 5684 1844 01       		.byte	0x1
 5685 1845 48       		.byte	0x48
 5686 1846 BF000000 		.4byte	0xbf
 5687 184a 28       		.byte	0x28
 5688 184b 0E       		.uleb128 0xe
 5689 184c A5070000 		.4byte	.LASF352
 5690 1850 01       		.byte	0x1
 5691 1851 49       		.byte	0x49
 5692 1852 25000000 		.4byte	0x25
 5693 1856 2C       		.byte	0x2c
 5694 1857 0E       		.uleb128 0xe
 5695 1858 BF1C0000 		.4byte	.LASF353
 5696 185c 01       		.byte	0x1
 5697 185d 4A       		.byte	0x4a
 5698 185e 79140000 		.4byte	0x1479
 5699 1862 30       		.byte	0x30
 5700 1863 0E       		.uleb128 0xe
 5701 1864 06170000 		.4byte	.LASF354
 5702 1868 01       		.byte	0x1
 5703 1869 4B       		.byte	0x4b
 5704 186a B0000000 		.4byte	0xb0
 5705 186e 34       		.byte	0x34
ARM GAS  C:\Users\Phuong\AppData\Local\Temp\ccP1LXIT.s 			page 120


 5706 186f 0E       		.uleb128 0xe
 5707 1870 F90E0000 		.4byte	.LASF355
 5708 1874 01       		.byte	0x1
 5709 1875 4C       		.byte	0x4c
 5710 1876 CC120000 		.4byte	0x12cc
 5711 187a 38       		.byte	0x38
 5712 187b 14       		.uleb128 0x14
 5713 187c 26040000 		.4byte	.LASF356
 5714 1880 01       		.byte	0x1
 5715 1881 4D       		.byte	0x4d
 5716 1882 92130000 		.4byte	0x1392
 5717 1886 B002     		.2byte	0x2b0
 5718 1888 15       		.uleb128 0x15
 5719 1889 73736C00 		.ascii	"ssl\000"
 5720 188d 01       		.byte	0x1
 5721 188e 4E       		.byte	0x4e
 5722 188f 70080000 		.4byte	0x870
 5723 1893 F003     		.2byte	0x3f0
 5724 1895 14       		.uleb128 0x14
 5725 1896 EC0E0000 		.4byte	.LASF357
 5726 189a 01       		.byte	0x1
 5727 189b 4F       		.byte	0x4f
 5728 189c B20B0000 		.4byte	0xbb2
 5729 18a0 0805     		.2byte	0x508
 5730 18a2 14       		.uleb128 0x14
 5731 18a3 5B020000 		.4byte	.LASF358
 5732 18a7 01       		.byte	0x1
 5733 18a8 50       		.byte	0x50
 5734 18a9 AE060000 		.4byte	0x6ae
 5735 18ad D805     		.2byte	0x5d8
 5736 18af 15       		.uleb128 0x15
 5737 18b0 73736E00 		.ascii	"ssn\000"
 5738 18b4 01       		.byte	0x1
 5739 18b5 51       		.byte	0x51
 5740 18b6 AE070000 		.4byte	0x7ae
 5741 18ba 0C07     		.2byte	0x70c
 5742 18bc 14       		.uleb128 0x14
 5743 18bd B2060000 		.4byte	.LASF359
 5744 18c1 01       		.byte	0x1
 5745 18c2 52       		.byte	0x52
 5746 18c3 B2000000 		.4byte	0xb2
 5747 18c7 8807     		.2byte	0x788
 5748 18c9 00       		.byte	0
 5749 18ca 02       		.uleb128 0x2
 5750 18cb A0080000 		.4byte	.LASF360
 5751 18cf 01       		.byte	0x1
 5752 18d0 53       		.byte	0x53
 5753 18d1 BA170000 		.4byte	0x17ba
 5754 18d5 20       		.uleb128 0x20
 5755 18d6 4D060000 		.4byte	.LASF361
 5756 18da 01       		.byte	0x1
 5757 18db 6B       		.byte	0x6b
 5758 18dc 00000000 		.4byte	.LFB18
 5759 18e0 0E000000 		.4byte	.LFE18-.LFB18
 5760 18e4 01       		.uleb128 0x1
 5761 18e5 9C       		.byte	0x9c
 5762 18e6 FA180000 		.4byte	0x18fa
ARM GAS  C:\Users\Phuong\AppData\Local\Temp\ccP1LXIT.s 			page 121


 5763 18ea 21       		.uleb128 0x21
 5764 18eb 0B160000 		.4byte	.LASF363
 5765 18ef 01       		.byte	0x1
 5766 18f0 6B       		.byte	0x6b
 5767 18f1 FA180000 		.4byte	0x18fa
 5768 18f5 00000000 		.4byte	.LLST0
 5769 18f9 00       		.byte	0
 5770 18fa 06       		.uleb128 0x6
 5771 18fb 04       		.byte	0x4
 5772 18fc CA180000 		.4byte	0x18ca
 5773 1900 20       		.uleb128 0x20
 5774 1901 02120000 		.4byte	.LASF362
 5775 1905 01       		.byte	0x1
 5776 1906 73       		.byte	0x73
 5777 1907 00000000 		.4byte	.LFB19
 5778 190b 0E000000 		.4byte	.LFE19-.LFB19
 5779 190f 01       		.uleb128 0x1
 5780 1910 9C       		.byte	0x9c
 5781 1911 34190000 		.4byte	0x1934
 5782 1915 21       		.uleb128 0x21
 5783 1916 0B160000 		.4byte	.LASF363
 5784 191a 01       		.byte	0x1
 5785 191b 73       		.byte	0x73
 5786 191c FA180000 		.4byte	0x18fa
 5787 1920 21000000 		.4byte	.LLST1
 5788 1924 21       		.uleb128 0x21
 5789 1925 3E070000 		.4byte	.LASF364
 5790 1929 01       		.byte	0x1
 5791 192a 73       		.byte	0x73
 5792 192b 48140000 		.4byte	0x1448
 5793 192f 42000000 		.4byte	.LLST2
 5794 1933 00       		.byte	0
 5795 1934 20       		.uleb128 0x20
 5796 1935 F90C0000 		.4byte	.LASF365
 5797 1939 01       		.byte	0x1
 5798 193a F0       		.byte	0xf0
 5799 193b 00000000 		.4byte	.LFB24
 5800 193f 44000000 		.4byte	.LFE24-.LFB24
 5801 1943 01       		.uleb128 0x1
 5802 1944 9C       		.byte	0x9c
 5803 1945 DB190000 		.4byte	0x19db
 5804 1949 21       		.uleb128 0x21
 5805 194a 2F110000 		.4byte	.LASF366
 5806 194e 01       		.byte	0x1
 5807 194f F0       		.byte	0xf0
 5808 1950 B0000000 		.4byte	0xb0
 5809 1954 63000000 		.4byte	.LLST3
 5810 1958 22       		.uleb128 0x22
 5811 1959 83010000 		.4byte	.LASF374
 5812 195d EB190000 		.4byte	0x19eb
 5813 1961 05       		.uleb128 0x5
 5814 1962 03       		.byte	0x3
 5815 1963 00000000 		.4byte	__func__.9063
 5816 1967 23       		.uleb128 0x23
 5817 1968 08000000 		.4byte	.LBB2
 5818 196c 1C000000 		.4byte	.LBE2-.LBB2
 5819 1970 C1190000 		.4byte	0x19c1
ARM GAS  C:\Users\Phuong\AppData\Local\Temp\ccP1LXIT.s 			page 122


 5820 1974 24       		.uleb128 0x24
 5821 1975 6C00     		.ascii	"l\000"
 5822 1977 01       		.byte	0x1
 5823 1978 F4       		.byte	0xf4
 5824 1979 08170000 		.4byte	0x1708
 5825 197d 9D000000 		.4byte	.LLST4
 5826 1981 25       		.uleb128 0x25
 5827 1982 0C000000 		.4byte	.LVL7
 5828 1986 C7330000 		.4byte	0x33c7
 5829 198a 26       		.uleb128 0x26
 5830 198b 22000000 		.4byte	.LVL10
 5831 198f 02       		.uleb128 0x2
 5832 1990 74       		.byte	0x74
 5833 1991 00       		.sleb128 0
 5834 1992 27       		.uleb128 0x27
 5835 1993 01       		.uleb128 0x1
 5836 1994 50       		.byte	0x50
 5837 1995 01       		.uleb128 0x1
 5838 1996 30       		.byte	0x30
 5839 1997 27       		.uleb128 0x27
 5840 1998 01       		.uleb128 0x1
 5841 1999 51       		.byte	0x51
 5842 199a 05       		.uleb128 0x5
 5843 199b 03       		.byte	0x3
 5844 199c 00000000 		.4byte	.LC1
 5845 19a0 27       		.uleb128 0x27
 5846 19a1 01       		.uleb128 0x1
 5847 19a2 52       		.byte	0x52
 5848 19a3 05       		.uleb128 0x5
 5849 19a4 03       		.byte	0x3
 5850 19a5 00000000 		.4byte	.LANCHOR0
 5851 19a9 27       		.uleb128 0x27
 5852 19aa 01       		.uleb128 0x1
 5853 19ab 53       		.byte	0x53
 5854 19ac 02       		.uleb128 0x2
 5855 19ad 08       		.byte	0x8
 5856 19ae F4       		.byte	0xf4
 5857 19af 27       		.uleb128 0x27
 5858 19b0 02       		.uleb128 0x2
 5859 19b1 7D       		.byte	0x7d
 5860 19b2 00       		.sleb128 0
 5861 19b3 01       		.uleb128 0x1
 5862 19b4 31       		.byte	0x31
 5863 19b5 27       		.uleb128 0x27
 5864 19b6 02       		.uleb128 0x2
 5865 19b7 7D       		.byte	0x7d
 5866 19b8 04       		.sleb128 4
 5867 19b9 05       		.uleb128 0x5
 5868 19ba 03       		.byte	0x3
 5869 19bb 38000000 		.4byte	.LC3
 5870 19bf 00       		.byte	0
 5871 19c0 00       		.byte	0
 5872 19c1 28       		.uleb128 0x28
 5873 19c2 24000000 		.4byte	.LBB3
 5874 19c6 10000000 		.4byte	.LBE3-.LBB3
 5875 19ca 29       		.uleb128 0x29
 5876 19cb 0B160000 		.4byte	.LASF363
ARM GAS  C:\Users\Phuong\AppData\Local\Temp\ccP1LXIT.s 			page 123


 5877 19cf 01       		.byte	0x1
 5878 19d0 F8       		.byte	0xf8
 5879 19d1 FA180000 		.4byte	0x18fa
 5880 19d5 BB000000 		.4byte	.LLST5
 5881 19d9 00       		.byte	0
 5882 19da 00       		.byte	0
 5883 19db 11       		.uleb128 0x11
 5884 19dc CB000000 		.4byte	0xcb
 5885 19e0 EB190000 		.4byte	0x19eb
 5886 19e4 12       		.uleb128 0x12
 5887 19e5 A9000000 		.4byte	0xa9
 5888 19e9 2C       		.byte	0x2c
 5889 19ea 00       		.byte	0
 5890 19eb 07       		.uleb128 0x7
 5891 19ec DB190000 		.4byte	0x19db
 5892 19f0 2A       		.uleb128 0x2a
 5893 19f1 60130000 		.4byte	.LASF367
 5894 19f5 01       		.byte	0x1
 5895 19f6 6701     		.2byte	0x167
 5896 19f8 00000000 		.4byte	.LFB28
 5897 19fc E8000000 		.4byte	.LFE28-.LFB28
 5898 1a00 01       		.uleb128 0x1
 5899 1a01 9C       		.byte	0x9c
 5900 1a02 0B1C0000 		.4byte	0x1c0b
 5901 1a06 2B       		.uleb128 0x2b
 5902 1a07 67010000 		.4byte	.LASF368
 5903 1a0b 01       		.byte	0x1
 5904 1a0c 6701     		.2byte	0x167
 5905 1a0e FA180000 		.4byte	0x18fa
 5906 1a12 DC000000 		.4byte	.LLST6
 5907 1a16 2B       		.uleb128 0x2b
 5908 1a17 1A180000 		.4byte	.LASF369
 5909 1a1b 01       		.byte	0x1
 5910 1a1c 6701     		.2byte	0x167
 5911 1a1e C5000000 		.4byte	0xc5
 5912 1a22 08010000 		.4byte	.LLST7
 5913 1a26 2C       		.uleb128 0x2c
 5914 1a27 E1170000 		.4byte	.LASF370
 5915 1a2b 01       		.byte	0x1
 5916 1a2c 6901     		.2byte	0x169
 5917 1a2e C5000000 		.4byte	0xc5
 5918 1a32 06       		.uleb128 0x6
 5919 1a33 03       		.byte	0x3
 5920 1a34 5C000000 		.4byte	.LC6
 5921 1a38 9F       		.byte	0x9f
 5922 1a39 2D       		.uleb128 0x2d
 5923 1a3a 18000000 		.4byte	.LVL17
 5924 1a3e D2330000 		.4byte	0x33d2
 5925 1a42 4E1A0000 		.4byte	0x1a4e
 5926 1a46 27       		.uleb128 0x27
 5927 1a47 01       		.uleb128 0x1
 5928 1a48 50       		.byte	0x50
 5929 1a49 03       		.uleb128 0x3
 5930 1a4a 91       		.byte	0x91
 5931 1a4b 58       		.sleb128 -40
 5932 1a4c 06       		.byte	0x6
 5933 1a4d 00       		.byte	0
ARM GAS  C:\Users\Phuong\AppData\Local\Temp\ccP1LXIT.s 			page 124


 5934 1a4e 2D       		.uleb128 0x2d
 5935 1a4f 2A000000 		.4byte	.LVL18
 5936 1a53 DD330000 		.4byte	0x33dd
 5937 1a57 631A0000 		.4byte	0x1a63
 5938 1a5b 27       		.uleb128 0x27
 5939 1a5c 01       		.uleb128 0x1
 5940 1a5d 50       		.byte	0x50
 5941 1a5e 03       		.uleb128 0x3
 5942 1a5f 91       		.byte	0x91
 5943 1a60 5C       		.sleb128 -36
 5944 1a61 06       		.byte	0x6
 5945 1a62 00       		.byte	0
 5946 1a63 2D       		.uleb128 0x2d
 5947 1a64 36000000 		.4byte	.LVL19
 5948 1a68 E8330000 		.4byte	0x33e8
 5949 1a6c 771A0000 		.4byte	0x1a77
 5950 1a70 27       		.uleb128 0x27
 5951 1a71 01       		.uleb128 0x1
 5952 1a72 50       		.byte	0x50
 5953 1a73 02       		.uleb128 0x2
 5954 1a74 75       		.byte	0x75
 5955 1a75 00       		.sleb128 0
 5956 1a76 00       		.byte	0
 5957 1a77 2D       		.uleb128 0x2d
 5958 1a78 44000000 		.4byte	.LVL20
 5959 1a7c F4330000 		.4byte	0x33f4
 5960 1a80 8C1A0000 		.4byte	0x1a8c
 5961 1a84 27       		.uleb128 0x27
 5962 1a85 01       		.uleb128 0x1
 5963 1a86 50       		.byte	0x50
 5964 1a87 03       		.uleb128 0x3
 5965 1a88 91       		.byte	0x91
 5966 1a89 60       		.sleb128 -32
 5967 1a8a 06       		.byte	0x6
 5968 1a8b 00       		.byte	0
 5969 1a8c 2D       		.uleb128 0x2d
 5970 1a8d 50000000 		.4byte	.LVL21
 5971 1a91 00340000 		.4byte	0x3400
 5972 1a95 A01A0000 		.4byte	0x1aa0
 5973 1a99 27       		.uleb128 0x27
 5974 1a9a 01       		.uleb128 0x1
 5975 1a9b 50       		.byte	0x50
 5976 1a9c 02       		.uleb128 0x2
 5977 1a9d 74       		.byte	0x74
 5978 1a9e 00       		.sleb128 0
 5979 1a9f 00       		.byte	0
 5980 1aa0 2D       		.uleb128 0x2d
 5981 1aa1 5A000000 		.4byte	.LVL22
 5982 1aa5 0C340000 		.4byte	0x340c
 5983 1aa9 B71A0000 		.4byte	0x1ab7
 5984 1aad 27       		.uleb128 0x27
 5985 1aae 01       		.uleb128 0x1
 5986 1aaf 50       		.byte	0x50
 5987 1ab0 05       		.uleb128 0x5
 5988 1ab1 76       		.byte	0x76
 5989 1ab2 00       		.sleb128 0
 5990 1ab3 77       		.byte	0x77
ARM GAS  C:\Users\Phuong\AppData\Local\Temp\ccP1LXIT.s 			page 125


 5991 1ab4 00       		.sleb128 0
 5992 1ab5 22       		.byte	0x22
 5993 1ab6 00       		.byte	0
 5994 1ab7 2D       		.uleb128 0x2d
 5995 1ab8 6A000000 		.4byte	.LVL23
 5996 1abc 18340000 		.4byte	0x3418
 5997 1ac0 E81A0000 		.4byte	0x1ae8
 5998 1ac4 27       		.uleb128 0x27
 5999 1ac5 01       		.uleb128 0x1
 6000 1ac6 50       		.byte	0x50
 6001 1ac7 03       		.uleb128 0x3
 6002 1ac8 91       		.byte	0x91
 6003 1ac9 58       		.sleb128 -40
 6004 1aca 06       		.byte	0x6
 6005 1acb 27       		.uleb128 0x27
 6006 1acc 01       		.uleb128 0x1
 6007 1acd 51       		.byte	0x51
 6008 1ace 05       		.uleb128 0x5
 6009 1acf 03       		.byte	0x3
 6010 1ad0 00000000 		.4byte	tlsio_entropy_poll
 6011 1ad4 27       		.uleb128 0x27
 6012 1ad5 01       		.uleb128 0x1
 6013 1ad6 52       		.byte	0x52
 6014 1ad7 02       		.uleb128 0x2
 6015 1ad8 77       		.byte	0x77
 6016 1ad9 00       		.sleb128 0
 6017 1ada 27       		.uleb128 0x27
 6018 1adb 01       		.uleb128 0x1
 6019 1adc 53       		.byte	0x53
 6020 1add 02       		.uleb128 0x2
 6021 1ade 08       		.byte	0x8
 6022 1adf 80       		.byte	0x80
 6023 1ae0 27       		.uleb128 0x27
 6024 1ae1 02       		.uleb128 0x2
 6025 1ae2 7D       		.byte	0x7d
 6026 1ae3 00       		.sleb128 0
 6027 1ae4 02       		.uleb128 0x2
 6028 1ae5 77       		.byte	0x77
 6029 1ae6 00       		.sleb128 0
 6030 1ae7 00       		.byte	0
 6031 1ae8 2D       		.uleb128 0x2d
 6032 1ae9 7A000000 		.4byte	.LVL24
 6033 1aed 23340000 		.4byte	0x3423
 6034 1af1 131B0000 		.4byte	0x1b13
 6035 1af5 27       		.uleb128 0x27
 6036 1af6 01       		.uleb128 0x1
 6037 1af7 50       		.byte	0x50
 6038 1af8 03       		.uleb128 0x3
 6039 1af9 91       		.byte	0x91
 6040 1afa 5C       		.sleb128 -36
 6041 1afb 06       		.byte	0x6
 6042 1afc 27       		.uleb128 0x27
 6043 1afd 01       		.uleb128 0x1
 6044 1afe 52       		.byte	0x52
 6045 1aff 03       		.uleb128 0x3
 6046 1b00 91       		.byte	0x91
 6047 1b01 58       		.sleb128 -40
ARM GAS  C:\Users\Phuong\AppData\Local\Temp\ccP1LXIT.s 			page 126


 6048 1b02 06       		.byte	0x6
 6049 1b03 27       		.uleb128 0x27
 6050 1b04 01       		.uleb128 0x1
 6051 1b05 53       		.byte	0x53
 6052 1b06 05       		.uleb128 0x5
 6053 1b07 03       		.byte	0x3
 6054 1b08 5C000000 		.4byte	.LC6
 6055 1b0c 27       		.uleb128 0x27
 6056 1b0d 02       		.uleb128 0x2
 6057 1b0e 7D       		.byte	0x7d
 6058 1b0f 00       		.sleb128 0
 6059 1b10 01       		.uleb128 0x1
 6060 1b11 40       		.byte	0x40
 6061 1b12 00       		.byte	0
 6062 1b13 2D       		.uleb128 0x2d
 6063 1b14 86000000 		.4byte	.LVL25
 6064 1b18 2E340000 		.4byte	0x342e
 6065 1b1c 391B0000 		.4byte	0x1b39
 6066 1b20 27       		.uleb128 0x27
 6067 1b21 01       		.uleb128 0x1
 6068 1b22 50       		.byte	0x50
 6069 1b23 02       		.uleb128 0x2
 6070 1b24 74       		.byte	0x74
 6071 1b25 00       		.sleb128 0
 6072 1b26 27       		.uleb128 0x27
 6073 1b27 01       		.uleb128 0x1
 6074 1b28 51       		.byte	0x51
 6075 1b29 02       		.uleb128 0x2
 6076 1b2a 77       		.byte	0x77
 6077 1b2b 00       		.sleb128 0
 6078 1b2c 27       		.uleb128 0x27
 6079 1b2d 01       		.uleb128 0x1
 6080 1b2e 52       		.byte	0x52
 6081 1b2f 02       		.uleb128 0x2
 6082 1b30 77       		.byte	0x77
 6083 1b31 00       		.sleb128 0
 6084 1b32 27       		.uleb128 0x27
 6085 1b33 01       		.uleb128 0x1
 6086 1b34 53       		.byte	0x53
 6087 1b35 02       		.uleb128 0x2
 6088 1b36 77       		.byte	0x77
 6089 1b37 00       		.sleb128 0
 6090 1b38 00       		.byte	0
 6091 1b39 2D       		.uleb128 0x2d
 6092 1b3a 90000000 		.4byte	.LVL26
 6093 1b3e 3A340000 		.4byte	0x343a
 6094 1b42 541B0000 		.4byte	0x1b54
 6095 1b46 27       		.uleb128 0x27
 6096 1b47 01       		.uleb128 0x1
 6097 1b48 50       		.byte	0x50
 6098 1b49 02       		.uleb128 0x2
 6099 1b4a 74       		.byte	0x74
 6100 1b4b 00       		.sleb128 0
 6101 1b4c 27       		.uleb128 0x27
 6102 1b4d 01       		.uleb128 0x1
 6103 1b4e 52       		.byte	0x52
 6104 1b4f 03       		.uleb128 0x3
ARM GAS  C:\Users\Phuong\AppData\Local\Temp\ccP1LXIT.s 			page 127


 6105 1b50 91       		.byte	0x91
 6106 1b51 5C       		.sleb128 -36
 6107 1b52 06       		.byte	0x6
 6108 1b53 00       		.byte	0
 6109 1b54 2D       		.uleb128 0x2d
 6110 1b55 98000000 		.4byte	.LVL27
 6111 1b59 46340000 		.4byte	0x3446
 6112 1b5d 6D1B0000 		.4byte	0x1b6d
 6113 1b61 27       		.uleb128 0x27
 6114 1b62 01       		.uleb128 0x1
 6115 1b63 50       		.byte	0x50
 6116 1b64 02       		.uleb128 0x2
 6117 1b65 74       		.byte	0x74
 6118 1b66 00       		.sleb128 0
 6119 1b67 27       		.uleb128 0x27
 6120 1b68 01       		.uleb128 0x1
 6121 1b69 51       		.byte	0x51
 6122 1b6a 01       		.uleb128 0x1
 6123 1b6b 32       		.byte	0x32
 6124 1b6c 00       		.byte	0
 6125 1b6d 2D       		.uleb128 0x2d
 6126 1b6e A2000000 		.4byte	.LVL28
 6127 1b72 52340000 		.4byte	0x3452
 6128 1b76 8B1B0000 		.4byte	0x1b8b
 6129 1b7a 27       		.uleb128 0x27
 6130 1b7b 01       		.uleb128 0x1
 6131 1b7c 50       		.byte	0x50
 6132 1b7d 02       		.uleb128 0x2
 6133 1b7e 74       		.byte	0x74
 6134 1b7f 00       		.sleb128 0
 6135 1b80 27       		.uleb128 0x27
 6136 1b81 01       		.uleb128 0x1
 6137 1b82 51       		.byte	0x51
 6138 1b83 01       		.uleb128 0x1
 6139 1b84 33       		.byte	0x33
 6140 1b85 27       		.uleb128 0x27
 6141 1b86 01       		.uleb128 0x1
 6142 1b87 52       		.byte	0x52
 6143 1b88 01       		.uleb128 0x1
 6144 1b89 33       		.byte	0x33
 6145 1b8a 00       		.byte	0
 6146 1b8b 2D       		.uleb128 0x2d
 6147 1b8c B0000000 		.4byte	.LVL29
 6148 1b90 5E340000 		.4byte	0x345e
 6149 1b94 BE1B0000 		.4byte	0x1bbe
 6150 1b98 27       		.uleb128 0x27
 6151 1b99 01       		.uleb128 0x1
 6152 1b9a 50       		.byte	0x50
 6153 1b9b 02       		.uleb128 0x2
 6154 1b9c 75       		.byte	0x75
 6155 1b9d 00       		.sleb128 0
 6156 1b9e 27       		.uleb128 0x27
 6157 1b9f 01       		.uleb128 0x1
 6158 1ba0 51       		.byte	0x51
 6159 1ba1 02       		.uleb128 0x2
 6160 1ba2 76       		.byte	0x76
 6161 1ba3 00       		.sleb128 0
ARM GAS  C:\Users\Phuong\AppData\Local\Temp\ccP1LXIT.s 			page 128


 6162 1ba4 27       		.uleb128 0x27
 6163 1ba5 01       		.uleb128 0x1
 6164 1ba6 52       		.byte	0x52
 6165 1ba7 05       		.uleb128 0x5
 6166 1ba8 03       		.byte	0x3
 6167 1ba9 00000000 		.4byte	on_io_send
 6168 1bad 27       		.uleb128 0x27
 6169 1bae 01       		.uleb128 0x1
 6170 1baf 53       		.byte	0x53
 6171 1bb0 05       		.uleb128 0x5
 6172 1bb1 03       		.byte	0x3
 6173 1bb2 00000000 		.4byte	on_io_recv
 6174 1bb6 27       		.uleb128 0x27
 6175 1bb7 02       		.uleb128 0x2
 6176 1bb8 7D       		.byte	0x7d
 6177 1bb9 00       		.sleb128 0
 6178 1bba 02       		.uleb128 0x2
 6179 1bbb 77       		.byte	0x77
 6180 1bbc 00       		.sleb128 0
 6181 1bbd 00       		.byte	0
 6182 1bbe 2D       		.uleb128 0x2d
 6183 1bbf B8000000 		.4byte	.LVL30
 6184 1bc3 6A340000 		.4byte	0x346a
 6185 1bc7 D91B0000 		.4byte	0x1bd9
 6186 1bcb 27       		.uleb128 0x27
 6187 1bcc 01       		.uleb128 0x1
 6188 1bcd 50       		.byte	0x50
 6189 1bce 02       		.uleb128 0x2
 6190 1bcf 75       		.byte	0x75
 6191 1bd0 00       		.sleb128 0
 6192 1bd1 27       		.uleb128 0x27
 6193 1bd2 01       		.uleb128 0x1
 6194 1bd3 51       		.byte	0x51
 6195 1bd4 03       		.uleb128 0x3
 6196 1bd5 91       		.byte	0x91
 6197 1bd6 64       		.sleb128 -28
 6198 1bd7 06       		.byte	0x6
 6199 1bd8 00       		.byte	0
 6200 1bd9 2D       		.uleb128 0x2d
 6201 1bda C0000000 		.4byte	.LVL31
 6202 1bde 76340000 		.4byte	0x3476
 6203 1be2 F41B0000 		.4byte	0x1bf4
 6204 1be6 27       		.uleb128 0x27
 6205 1be7 01       		.uleb128 0x1
 6206 1be8 50       		.byte	0x50
 6207 1be9 02       		.uleb128 0x2
 6208 1bea 75       		.byte	0x75
 6209 1beb 00       		.sleb128 0
 6210 1bec 27       		.uleb128 0x27
 6211 1bed 01       		.uleb128 0x1
 6212 1bee 51       		.byte	0x51
 6213 1bef 03       		.uleb128 0x3
 6214 1bf0 91       		.byte	0x91
 6215 1bf1 60       		.sleb128 -32
 6216 1bf2 06       		.byte	0x6
 6217 1bf3 00       		.byte	0
 6218 1bf4 2E       		.uleb128 0x2e
ARM GAS  C:\Users\Phuong\AppData\Local\Temp\ccP1LXIT.s 			page 129


 6219 1bf5 C8000000 		.4byte	.LVL32
 6220 1bf9 82340000 		.4byte	0x3482
 6221 1bfd 27       		.uleb128 0x27
 6222 1bfe 01       		.uleb128 0x1
 6223 1bff 50       		.byte	0x50
 6224 1c00 02       		.uleb128 0x2
 6225 1c01 75       		.byte	0x75
 6226 1c02 00       		.sleb128 0
 6227 1c03 27       		.uleb128 0x27
 6228 1c04 01       		.uleb128 0x1
 6229 1c05 51       		.byte	0x51
 6230 1c06 02       		.uleb128 0x2
 6231 1c07 74       		.byte	0x74
 6232 1c08 00       		.sleb128 0
 6233 1c09 00       		.byte	0
 6234 1c0a 00       		.byte	0
 6235 1c0b 2F       		.uleb128 0x2f
 6236 1c0c 350F0000 		.4byte	.LASF387
 6237 1c10 01       		.byte	0x1
 6238 1c11 8501     		.2byte	0x185
 6239 1c13 EC130000 		.4byte	0x13ec
 6240 1c17 00000000 		.4byte	.LFB29
 6241 1c1b 24010000 		.4byte	.LFE29-.LFB29
 6242 1c1f 01       		.uleb128 0x1
 6243 1c20 9C       		.byte	0x9c
 6244 1c21 6D1E0000 		.4byte	0x1e6d
 6245 1c25 2B       		.uleb128 0x2b
 6246 1c26 881E0000 		.4byte	.LASF371
 6247 1c2a 01       		.byte	0x1
 6248 1c2b 8501     		.2byte	0x185
 6249 1c2d B0000000 		.4byte	0xb0
 6250 1c31 27010000 		.4byte	.LLST8
 6251 1c35 30       		.uleb128 0x30
 6252 1c36 4D0B0000 		.4byte	.LASF372
 6253 1c3a 01       		.byte	0x1
 6254 1c3b 8701     		.2byte	0x187
 6255 1c3d 6D1E0000 		.4byte	0x1e6d
 6256 1c41 9B010000 		.4byte	.LLST9
 6257 1c45 30       		.uleb128 0x30
 6258 1c46 E5030000 		.4byte	.LASF373
 6259 1c4a 01       		.byte	0x1
 6260 1c4b 8801     		.2byte	0x188
 6261 1c4d FA180000 		.4byte	0x18fa
 6262 1c51 0F020000 		.4byte	.LLST10
 6263 1c55 22       		.uleb128 0x22
 6264 1c56 83010000 		.4byte	.LASF374
 6265 1c5a 831E0000 		.4byte	0x1e83
 6266 1c5e 05       		.uleb128 0x5
 6267 1c5f 03       		.byte	0x3
 6268 1c60 30000000 		.4byte	__func__.9117
 6269 1c64 23       		.uleb128 0x23
 6270 1c65 08000000 		.4byte	.LBB4
 6271 1c69 1E000000 		.4byte	.LBE4-.LBB4
 6272 1c6d C01C0000 		.4byte	0x1cc0
 6273 1c71 31       		.uleb128 0x31
 6274 1c72 6C00     		.ascii	"l\000"
 6275 1c74 01       		.byte	0x1
ARM GAS  C:\Users\Phuong\AppData\Local\Temp\ccP1LXIT.s 			page 130


 6276 1c75 8C01     		.2byte	0x18c
 6277 1c77 08170000 		.4byte	0x1708
 6278 1c7b 93020000 		.4byte	.LLST11
 6279 1c7f 25       		.uleb128 0x25
 6280 1c80 0C000000 		.4byte	.LVL36
 6281 1c84 C7330000 		.4byte	0x33c7
 6282 1c88 26       		.uleb128 0x26
 6283 1c89 26000000 		.4byte	.LVL39
 6284 1c8d 02       		.uleb128 0x2
 6285 1c8e 74       		.byte	0x74
 6286 1c8f 00       		.sleb128 0
 6287 1c90 27       		.uleb128 0x27
 6288 1c91 01       		.uleb128 0x1
 6289 1c92 50       		.byte	0x50
 6290 1c93 01       		.uleb128 0x1
 6291 1c94 30       		.byte	0x30
 6292 1c95 27       		.uleb128 0x27
 6293 1c96 01       		.uleb128 0x1
 6294 1c97 51       		.byte	0x51
 6295 1c98 05       		.uleb128 0x5
 6296 1c99 03       		.byte	0x3
 6297 1c9a 00000000 		.4byte	.LC1
 6298 1c9e 27       		.uleb128 0x27
 6299 1c9f 01       		.uleb128 0x1
 6300 1ca0 52       		.byte	0x52
 6301 1ca1 05       		.uleb128 0x5
 6302 1ca2 03       		.byte	0x3
 6303 1ca3 30000000 		.4byte	.LANCHOR0+48
 6304 1ca7 27       		.uleb128 0x27
 6305 1ca8 01       		.uleb128 0x1
 6306 1ca9 53       		.byte	0x53
 6307 1caa 03       		.uleb128 0x3
 6308 1cab 0A       		.byte	0xa
 6309 1cac 8C01     		.2byte	0x18c
 6310 1cae 27       		.uleb128 0x27
 6311 1caf 02       		.uleb128 0x2
 6312 1cb0 7D       		.byte	0x7d
 6313 1cb1 00       		.sleb128 0
 6314 1cb2 01       		.uleb128 0x1
 6315 1cb3 31       		.byte	0x31
 6316 1cb4 27       		.uleb128 0x27
 6317 1cb5 02       		.uleb128 0x2
 6318 1cb6 7D       		.byte	0x7d
 6319 1cb7 04       		.sleb128 4
 6320 1cb8 05       		.uleb128 0x5
 6321 1cb9 03       		.byte	0x3
 6322 1cba 70000000 		.4byte	.LC14
 6323 1cbe 00       		.byte	0
 6324 1cbf 00       		.byte	0
 6325 1cc0 23       		.uleb128 0x23
 6326 1cc1 36000000 		.4byte	.LBB5
 6327 1cc5 AE000000 		.4byte	.LBE5-.LBB5
 6328 1cc9 FF1D0000 		.4byte	0x1dff
 6329 1ccd 2C       		.uleb128 0x2c
 6330 1cce 75120000 		.4byte	.LASF375
 6331 1cd2 01       		.byte	0x1
 6332 1cd3 9401     		.2byte	0x194
ARM GAS  C:\Users\Phuong\AppData\Local\Temp\ccP1LXIT.s 			page 131


 6333 1cd5 6F170000 		.4byte	0x176f
 6334 1cd9 02       		.uleb128 0x2
 6335 1cda 91       		.byte	0x91
 6336 1cdb 64       		.sleb128 -28
 6337 1cdc 30       		.uleb128 0x30
 6338 1cdd 4B0E0000 		.4byte	.LASF320
 6339 1ce1 01       		.byte	0x1
 6340 1ce2 9501     		.2byte	0x195
 6341 1ce4 C4160000 		.4byte	0x16c4
 6342 1ce8 BC020000 		.4byte	.LLST12
 6343 1cec 30       		.uleb128 0x30
 6344 1ced D40E0000 		.4byte	.LASF376
 6345 1cf1 01       		.byte	0x1
 6346 1cf2 9601     		.2byte	0x196
 6347 1cf4 B0000000 		.4byte	0xb0
 6348 1cf8 E5020000 		.4byte	.LLST13
 6349 1cfc 23       		.uleb128 0x23
 6350 1cfd 5C000000 		.4byte	.LBB6
 6351 1d01 1E000000 		.4byte	.LBE6-.LBB6
 6352 1d05 581D0000 		.4byte	0x1d58
 6353 1d09 31       		.uleb128 0x31
 6354 1d0a 6C00     		.ascii	"l\000"
 6355 1d0c 01       		.byte	0x1
 6356 1d0d AB01     		.2byte	0x1ab
 6357 1d0f 08170000 		.4byte	0x1708
 6358 1d13 1B030000 		.4byte	.LLST14
 6359 1d17 25       		.uleb128 0x25
 6360 1d18 60000000 		.4byte	.LVL53
 6361 1d1c C7330000 		.4byte	0x33c7
 6362 1d20 26       		.uleb128 0x26
 6363 1d21 7A000000 		.4byte	.LVL56
 6364 1d25 02       		.uleb128 0x2
 6365 1d26 74       		.byte	0x74
 6366 1d27 00       		.sleb128 0
 6367 1d28 27       		.uleb128 0x27
 6368 1d29 01       		.uleb128 0x1
 6369 1d2a 50       		.byte	0x50
 6370 1d2b 01       		.uleb128 0x1
 6371 1d2c 30       		.byte	0x30
 6372 1d2d 27       		.uleb128 0x27
 6373 1d2e 01       		.uleb128 0x1
 6374 1d2f 51       		.byte	0x51
 6375 1d30 05       		.uleb128 0x5
 6376 1d31 03       		.byte	0x3
 6377 1d32 00000000 		.4byte	.LC1
 6378 1d36 27       		.uleb128 0x27
 6379 1d37 01       		.uleb128 0x1
 6380 1d38 52       		.byte	0x52
 6381 1d39 05       		.uleb128 0x5
 6382 1d3a 03       		.byte	0x3
 6383 1d3b 30000000 		.4byte	.LANCHOR0+48
 6384 1d3f 27       		.uleb128 0x27
 6385 1d40 01       		.uleb128 0x1
 6386 1d41 53       		.byte	0x53
 6387 1d42 03       		.uleb128 0x3
 6388 1d43 0A       		.byte	0xa
 6389 1d44 AB01     		.2byte	0x1ab
ARM GAS  C:\Users\Phuong\AppData\Local\Temp\ccP1LXIT.s 			page 132


 6390 1d46 27       		.uleb128 0x27
 6391 1d47 02       		.uleb128 0x2
 6392 1d48 7D       		.byte	0x7d
 6393 1d49 00       		.sleb128 0
 6394 1d4a 01       		.uleb128 0x1
 6395 1d4b 31       		.byte	0x31
 6396 1d4c 27       		.uleb128 0x27
 6397 1d4d 02       		.uleb128 0x2
 6398 1d4e 7D       		.byte	0x7d
 6399 1d4f 04       		.sleb128 4
 6400 1d50 05       		.uleb128 0x5
 6401 1d51 03       		.byte	0x3
 6402 1d52 84000000 		.4byte	.LC16
 6403 1d56 00       		.byte	0
 6404 1d57 00       		.byte	0
 6405 1d58 23       		.uleb128 0x23
 6406 1d59 A0000000 		.4byte	.LBB7
 6407 1d5d 1E000000 		.4byte	.LBE7-.LBB7
 6408 1d61 B41D0000 		.4byte	0x1db4
 6409 1d65 31       		.uleb128 0x31
 6410 1d66 6C00     		.ascii	"l\000"
 6411 1d68 01       		.byte	0x1
 6412 1d69 C001     		.2byte	0x1c0
 6413 1d6b 08170000 		.4byte	0x1708
 6414 1d6f 44030000 		.4byte	.LLST15
 6415 1d73 25       		.uleb128 0x25
 6416 1d74 A4000000 		.4byte	.LVL60
 6417 1d78 C7330000 		.4byte	0x33c7
 6418 1d7c 26       		.uleb128 0x26
 6419 1d7d BE000000 		.4byte	.LVL63
 6420 1d81 02       		.uleb128 0x2
 6421 1d82 75       		.byte	0x75
 6422 1d83 00       		.sleb128 0
 6423 1d84 27       		.uleb128 0x27
 6424 1d85 01       		.uleb128 0x1
 6425 1d86 50       		.byte	0x50
 6426 1d87 01       		.uleb128 0x1
 6427 1d88 30       		.byte	0x30
 6428 1d89 27       		.uleb128 0x27
 6429 1d8a 01       		.uleb128 0x1
 6430 1d8b 51       		.byte	0x51
 6431 1d8c 05       		.uleb128 0x5
 6432 1d8d 03       		.byte	0x3
 6433 1d8e 00000000 		.4byte	.LC1
 6434 1d92 27       		.uleb128 0x27
 6435 1d93 01       		.uleb128 0x1
 6436 1d94 52       		.byte	0x52
 6437 1d95 05       		.uleb128 0x5
 6438 1d96 03       		.byte	0x3
 6439 1d97 30000000 		.4byte	.LANCHOR0+48
 6440 1d9b 27       		.uleb128 0x27
 6441 1d9c 01       		.uleb128 0x1
 6442 1d9d 53       		.byte	0x53
 6443 1d9e 03       		.uleb128 0x3
 6444 1d9f 0A       		.byte	0xa
 6445 1da0 C001     		.2byte	0x1c0
 6446 1da2 27       		.uleb128 0x27
ARM GAS  C:\Users\Phuong\AppData\Local\Temp\ccP1LXIT.s 			page 133


 6447 1da3 02       		.uleb128 0x2
 6448 1da4 7D       		.byte	0x7d
 6449 1da5 00       		.sleb128 0
 6450 1da6 01       		.uleb128 0x1
 6451 1da7 31       		.byte	0x31
 6452 1da8 27       		.uleb128 0x27
 6453 1da9 02       		.uleb128 0x2
 6454 1daa 7D       		.byte	0x7d
 6455 1dab 04       		.sleb128 4
 6456 1dac 05       		.uleb128 0x5
 6457 1dad 03       		.byte	0x3
 6458 1dae B4000000 		.4byte	.LC18
 6459 1db2 00       		.byte	0
 6460 1db3 00       		.byte	0
 6461 1db4 25       		.uleb128 0x25
 6462 1db5 50000000 		.4byte	.LVL49
 6463 1db9 8E340000 		.4byte	0x348e
 6464 1dbd 2D       		.uleb128 0x2d
 6465 1dbe 5C000000 		.4byte	.LVL52
 6466 1dc2 99340000 		.4byte	0x3499
 6467 1dc6 D11D0000 		.4byte	0x1dd1
 6468 1dca 27       		.uleb128 0x27
 6469 1dcb 01       		.uleb128 0x1
 6470 1dcc 50       		.byte	0x50
 6471 1dcd 02       		.uleb128 0x2
 6472 1dce 74       		.byte	0x74
 6473 1dcf 00       		.sleb128 0
 6474 1dd0 00       		.byte	0
 6475 1dd1 25       		.uleb128 0x25
 6476 1dd2 9A000000 		.4byte	.LVL59
 6477 1dd6 A4340000 		.4byte	0x34a4
 6478 1dda 2D       		.uleb128 0x2d
 6479 1ddb C4000000 		.4byte	.LVL64
 6480 1ddf 99340000 		.4byte	0x3499
 6481 1de3 EE1D0000 		.4byte	0x1dee
 6482 1de7 27       		.uleb128 0x27
 6483 1de8 01       		.uleb128 0x1
 6484 1de9 50       		.byte	0x50
 6485 1dea 02       		.uleb128 0x2
 6486 1deb 74       		.byte	0x74
 6487 1dec 00       		.sleb128 0
 6488 1ded 00       		.byte	0
 6489 1dee 2E       		.uleb128 0x2e
 6490 1def DA000000 		.4byte	.LVL66
 6491 1df3 F0190000 		.4byte	0x19f0
 6492 1df7 27       		.uleb128 0x27
 6493 1df8 01       		.uleb128 0x1
 6494 1df9 50       		.byte	0x50
 6495 1dfa 02       		.uleb128 0x2
 6496 1dfb 74       		.byte	0x74
 6497 1dfc 00       		.sleb128 0
 6498 1dfd 00       		.byte	0
 6499 1dfe 00       		.byte	0
 6500 1dff 23       		.uleb128 0x23
 6501 1e00 E4000000 		.4byte	.LBB8
 6502 1e04 20000000 		.4byte	.LBE8-.LBB8
 6503 1e08 5B1E0000 		.4byte	0x1e5b
ARM GAS  C:\Users\Phuong\AppData\Local\Temp\ccP1LXIT.s 			page 134


 6504 1e0c 31       		.uleb128 0x31
 6505 1e0d 6C00     		.ascii	"l\000"
 6506 1e0f 01       		.byte	0x1
 6507 1e10 D301     		.2byte	0x1d3
 6508 1e12 08170000 		.4byte	0x1708
 6509 1e16 62030000 		.4byte	.LLST16
 6510 1e1a 25       		.uleb128 0x25
 6511 1e1b E8000000 		.4byte	.LVL69
 6512 1e1f C7330000 		.4byte	0x33c7
 6513 1e23 26       		.uleb128 0x26
 6514 1e24 02010000 		.4byte	.LVL72
 6515 1e28 02       		.uleb128 0x2
 6516 1e29 75       		.byte	0x75
 6517 1e2a 00       		.sleb128 0
 6518 1e2b 27       		.uleb128 0x27
 6519 1e2c 01       		.uleb128 0x1
 6520 1e2d 50       		.byte	0x50
 6521 1e2e 01       		.uleb128 0x1
 6522 1e2f 30       		.byte	0x30
 6523 1e30 27       		.uleb128 0x27
 6524 1e31 01       		.uleb128 0x1
 6525 1e32 51       		.byte	0x51
 6526 1e33 05       		.uleb128 0x5
 6527 1e34 03       		.byte	0x3
 6528 1e35 00000000 		.4byte	.LC1
 6529 1e39 27       		.uleb128 0x27
 6530 1e3a 01       		.uleb128 0x1
 6531 1e3b 52       		.byte	0x52
 6532 1e3c 05       		.uleb128 0x5
 6533 1e3d 03       		.byte	0x3
 6534 1e3e 30000000 		.4byte	.LANCHOR0+48
 6535 1e42 27       		.uleb128 0x27
 6536 1e43 01       		.uleb128 0x1
 6537 1e44 53       		.byte	0x53
 6538 1e45 03       		.uleb128 0x3
 6539 1e46 0A       		.byte	0xa
 6540 1e47 D301     		.2byte	0x1d3
 6541 1e49 27       		.uleb128 0x27
 6542 1e4a 02       		.uleb128 0x2
 6543 1e4b 7D       		.byte	0x7d
 6544 1e4c 00       		.sleb128 0
 6545 1e4d 01       		.uleb128 0x1
 6546 1e4e 31       		.byte	0x31
 6547 1e4f 27       		.uleb128 0x27
 6548 1e50 02       		.uleb128 0x2
 6549 1e51 7D       		.byte	0x7d
 6550 1e52 04       		.sleb128 4
 6551 1e53 05       		.uleb128 0x5
 6552 1e54 03       		.byte	0x3
 6553 1e55 D0000000 		.4byte	.LC20
 6554 1e59 00       		.byte	0
 6555 1e5a 00       		.byte	0
 6556 1e5b 2E       		.uleb128 0x2e
 6557 1e5c 32000000 		.4byte	.LVL43
 6558 1e60 AF340000 		.4byte	0x34af
 6559 1e64 27       		.uleb128 0x27
 6560 1e65 01       		.uleb128 0x1
ARM GAS  C:\Users\Phuong\AppData\Local\Temp\ccP1LXIT.s 			page 135


 6561 1e66 50       		.byte	0x50
 6562 1e67 03       		.uleb128 0x3
 6563 1e68 0A       		.byte	0xa
 6564 1e69 9007     		.2byte	0x790
 6565 1e6b 00       		.byte	0
 6566 1e6c 00       		.byte	0
 6567 1e6d 06       		.uleb128 0x6
 6568 1e6e 04       		.byte	0x4
 6569 1e6f CF160000 		.4byte	0x16cf
 6570 1e73 11       		.uleb128 0x11
 6571 1e74 CB000000 		.4byte	0xcb
 6572 1e78 831E0000 		.4byte	0x1e83
 6573 1e7c 12       		.uleb128 0x12
 6574 1e7d A9000000 		.4byte	0xa9
 6575 1e81 14       		.byte	0x14
 6576 1e82 00       		.byte	0
 6577 1e83 07       		.uleb128 0x7
 6578 1e84 731E0000 		.4byte	0x1e73
 6579 1e88 32       		.uleb128 0x32
 6580 1e89 34160000 		.4byte	.LASF381
 6581 1e8d 01       		.byte	0x1
 6582 1e8e 0101     		.2byte	0x101
 6583 1e90 37000000 		.4byte	0x37
 6584 1e94 00000000 		.4byte	.LFB25
 6585 1e98 C0000000 		.4byte	.LFE25-.LFB25
 6586 1e9c 01       		.uleb128 0x1
 6587 1e9d 9C       		.byte	0x9c
 6588 1e9e CD1F0000 		.4byte	0x1fcd
 6589 1ea2 2B       		.uleb128 0x2b
 6590 1ea3 2F110000 		.4byte	.LASF366
 6591 1ea7 01       		.byte	0x1
 6592 1ea8 0101     		.2byte	0x101
 6593 1eaa B0000000 		.4byte	0xb0
 6594 1eae 80030000 		.4byte	.LLST17
 6595 1eb2 33       		.uleb128 0x33
 6596 1eb3 62756600 		.ascii	"buf\000"
 6597 1eb7 01       		.byte	0x1
 6598 1eb8 0101     		.2byte	0x101
 6599 1eba BF000000 		.4byte	0xbf
 6600 1ebe F4030000 		.4byte	.LLST18
 6601 1ec2 33       		.uleb128 0x33
 6602 1ec3 737A00   		.ascii	"sz\000"
 6603 1ec6 01       		.byte	0x1
 6604 1ec7 0101     		.2byte	0x101
 6605 1ec9 25000000 		.4byte	0x25
 6606 1ecd 36040000 		.4byte	.LLST19
 6607 1ed1 30       		.uleb128 0x30
 6608 1ed2 E5030000 		.4byte	.LASF373
 6609 1ed6 01       		.byte	0x1
 6610 1ed7 0301     		.2byte	0x103
 6611 1ed9 37000000 		.4byte	0x37
 6612 1edd 91040000 		.4byte	.LLST20
 6613 1ee1 22       		.uleb128 0x22
 6614 1ee2 83010000 		.4byte	.LASF374
 6615 1ee6 DD1F0000 		.4byte	0x1fdd
 6616 1eea 05       		.uleb128 0x5
 6617 1eeb 03       		.byte	0x3
ARM GAS  C:\Users\Phuong\AppData\Local\Temp\ccP1LXIT.s 			page 136


 6618 1eec 48000000 		.4byte	__func__.9074
 6619 1ef0 23       		.uleb128 0x23
 6620 1ef1 0E000000 		.4byte	.LBB9
 6621 1ef5 1E000000 		.4byte	.LBE9-.LBB9
 6622 1ef9 4C1F0000 		.4byte	0x1f4c
 6623 1efd 31       		.uleb128 0x31
 6624 1efe 6C00     		.ascii	"l\000"
 6625 1f00 01       		.byte	0x1
 6626 1f01 0601     		.2byte	0x106
 6627 1f03 08170000 		.4byte	0x1708
 6628 1f07 AF040000 		.4byte	.LLST21
 6629 1f0b 25       		.uleb128 0x25
 6630 1f0c 12000000 		.4byte	.LVL77
 6631 1f10 C7330000 		.4byte	0x33c7
 6632 1f14 26       		.uleb128 0x26
 6633 1f15 2C000000 		.4byte	.LVL80
 6634 1f19 02       		.uleb128 0x2
 6635 1f1a 74       		.byte	0x74
 6636 1f1b 00       		.sleb128 0
 6637 1f1c 27       		.uleb128 0x27
 6638 1f1d 01       		.uleb128 0x1
 6639 1f1e 50       		.byte	0x50
 6640 1f1f 01       		.uleb128 0x1
 6641 1f20 30       		.byte	0x30
 6642 1f21 27       		.uleb128 0x27
 6643 1f22 01       		.uleb128 0x1
 6644 1f23 51       		.byte	0x51
 6645 1f24 05       		.uleb128 0x5
 6646 1f25 03       		.byte	0x3
 6647 1f26 00000000 		.4byte	.LC1
 6648 1f2a 27       		.uleb128 0x27
 6649 1f2b 01       		.uleb128 0x1
 6650 1f2c 52       		.byte	0x52
 6651 1f2d 05       		.uleb128 0x5
 6652 1f2e 03       		.byte	0x3
 6653 1f2f 48000000 		.4byte	.LANCHOR0+72
 6654 1f33 27       		.uleb128 0x27
 6655 1f34 01       		.uleb128 0x1
 6656 1f35 53       		.byte	0x53
 6657 1f36 03       		.uleb128 0x3
 6658 1f37 0A       		.byte	0xa
 6659 1f38 0601     		.2byte	0x106
 6660 1f3a 27       		.uleb128 0x27
 6661 1f3b 02       		.uleb128 0x2
 6662 1f3c 7D       		.byte	0x7d
 6663 1f3d 00       		.sleb128 0
 6664 1f3e 01       		.uleb128 0x1
 6665 1f3f 31       		.byte	0x31
 6666 1f40 27       		.uleb128 0x27
 6667 1f41 02       		.uleb128 0x2
 6668 1f42 7D       		.byte	0x7d
 6669 1f43 04       		.sleb128 4
 6670 1f44 05       		.uleb128 0x5
 6671 1f45 03       		.byte	0x3
 6672 1f46 38000000 		.4byte	.LC3
 6673 1f4a 00       		.byte	0
 6674 1f4b 00       		.byte	0
ARM GAS  C:\Users\Phuong\AppData\Local\Temp\ccP1LXIT.s 			page 137


 6675 1f4c 34       		.uleb128 0x34
 6676 1f4d 00000000 		.4byte	.Ldebug_ranges0+0
 6677 1f51 35       		.uleb128 0x35
 6678 1f52 0B160000 		.4byte	.LASF363
 6679 1f56 01       		.byte	0x1
 6680 1f57 0B01     		.2byte	0x10b
 6681 1f59 FA180000 		.4byte	0x18fa
 6682 1f5d 30       		.uleb128 0x30
 6683 1f5e A0100000 		.4byte	.LASF377
 6684 1f62 01       		.byte	0x1
 6685 1f63 0C01     		.2byte	0x10c
 6686 1f65 BF000000 		.4byte	0xbf
 6687 1f69 E3040000 		.4byte	.LLST22
 6688 1f6d 30       		.uleb128 0x30
 6689 1f6e 350B0000 		.4byte	.LASF378
 6690 1f72 01       		.byte	0x1
 6691 1f73 0D01     		.2byte	0x10d
 6692 1f75 25000000 		.4byte	0x25
 6693 1f79 F6040000 		.4byte	.LLST23
 6694 1f7d 30       		.uleb128 0x30
 6695 1f7e 34070000 		.4byte	.LASF379
 6696 1f82 01       		.byte	0x1
 6697 1f83 1C01     		.2byte	0x11c
 6698 1f85 25000000 		.4byte	0x25
 6699 1f89 1F050000 		.4byte	.LLST24
 6700 1f8d 25       		.uleb128 0x25
 6701 1f8e 36000000 		.4byte	.LVL82
 6702 1f92 BA340000 		.4byte	0x34ba
 6703 1f96 2D       		.uleb128 0x2d
 6704 1f97 64000000 		.4byte	.LVL88
 6705 1f9b C5340000 		.4byte	0x34c5
 6706 1f9f B01F0000 		.4byte	0x1fb0
 6707 1fa3 27       		.uleb128 0x27
 6708 1fa4 01       		.uleb128 0x1
 6709 1fa5 50       		.byte	0x50
 6710 1fa6 02       		.uleb128 0x2
 6711 1fa7 77       		.byte	0x77
 6712 1fa8 00       		.sleb128 0
 6713 1fa9 27       		.uleb128 0x27
 6714 1faa 01       		.uleb128 0x1
 6715 1fab 52       		.byte	0x52
 6716 1fac 02       		.uleb128 0x2
 6717 1fad 76       		.byte	0x76
 6718 1fae 00       		.sleb128 0
 6719 1faf 00       		.byte	0
 6720 1fb0 25       		.uleb128 0x25
 6721 1fb1 72000000 		.4byte	.LVL89
 6722 1fb5 CE340000 		.4byte	0x34ce
 6723 1fb9 25       		.uleb128 0x25
 6724 1fba 80000000 		.4byte	.LVL90
 6725 1fbe D9340000 		.4byte	0x34d9
 6726 1fc2 25       		.uleb128 0x25
 6727 1fc3 8E000000 		.4byte	.LVL92
 6728 1fc7 99340000 		.4byte	0x3499
 6729 1fcb 00       		.byte	0
 6730 1fcc 00       		.byte	0
 6731 1fcd 11       		.uleb128 0x11
ARM GAS  C:\Users\Phuong\AppData\Local\Temp\ccP1LXIT.s 			page 138


 6732 1fce CB000000 		.4byte	0xcb
 6733 1fd2 DD1F0000 		.4byte	0x1fdd
 6734 1fd6 12       		.uleb128 0x12
 6735 1fd7 A9000000 		.4byte	0xa9
 6736 1fdb 0A       		.byte	0xa
 6737 1fdc 00       		.byte	0
 6738 1fdd 07       		.uleb128 0x7
 6739 1fde CD1F0000 		.4byte	0x1fcd
 6740 1fe2 36       		.uleb128 0x36
 6741 1fe3 E2110000 		.4byte	.LASF380
 6742 1fe7 01       		.byte	0x1
 6743 1fe8 B6       		.byte	0xb6
 6744 1fe9 00000000 		.4byte	.LFB22
 6745 1fed 70000000 		.4byte	.LFE22-.LFB22
 6746 1ff1 01       		.uleb128 0x1
 6747 1ff2 9C       		.byte	0x9c
 6748 1ff3 E9200000 		.4byte	0x20e9
 6749 1ff7 21       		.uleb128 0x21
 6750 1ff8 2F110000 		.4byte	.LASF366
 6751 1ffc 01       		.byte	0x1
 6752 1ffd B6       		.byte	0xb6
 6753 1ffe B0000000 		.4byte	0xb0
 6754 2002 48050000 		.4byte	.LLST25
 6755 2006 21       		.uleb128 0x21
 6756 2007 0E0A0000 		.4byte	.LASF252
 6757 200b 01       		.byte	0x1
 6758 200c B6       		.byte	0xb6
 6759 200d 9D020000 		.4byte	0x29d
 6760 2011 8A050000 		.4byte	.LLST26
 6761 2015 21       		.uleb128 0x21
 6762 2016 91120000 		.4byte	.LASF258
 6763 201a 01       		.byte	0x1
 6764 201b B6       		.byte	0xb6
 6765 201c 25000000 		.4byte	0x25
 6766 2020 CC050000 		.4byte	.LLST27
 6767 2024 22       		.uleb128 0x22
 6768 2025 83010000 		.4byte	.LASF374
 6769 2029 F9200000 		.4byte	0x20f9
 6770 202d 05       		.uleb128 0x5
 6771 202e 03       		.byte	0x3
 6772 202f 54000000 		.4byte	__func__.9041
 6773 2033 23       		.uleb128 0x23
 6774 2034 0E000000 		.4byte	.LBB13
 6775 2038 36000000 		.4byte	.LBE13-.LBB13
 6776 203c 92200000 		.4byte	0x2092
 6777 2040 29       		.uleb128 0x29
 6778 2041 0B160000 		.4byte	.LASF363
 6779 2045 01       		.byte	0x1
 6780 2046 BA       		.byte	0xba
 6781 2047 FA180000 		.4byte	0x18fa
 6782 204b 1C060000 		.4byte	.LLST28
 6783 204f 29       		.uleb128 0x29
 6784 2050 A0100000 		.4byte	.LASF377
 6785 2054 01       		.byte	0x1
 6786 2055 BC       		.byte	0xbc
 6787 2056 BF000000 		.4byte	0xbf
 6788 205a 3A060000 		.4byte	.LLST29
ARM GAS  C:\Users\Phuong\AppData\Local\Temp\ccP1LXIT.s 			page 139


 6789 205e 25       		.uleb128 0x25
 6790 205f 18000000 		.4byte	.LVL103
 6791 2063 D9340000 		.4byte	0x34d9
 6792 2067 2D       		.uleb128 0x2d
 6793 2068 28000000 		.4byte	.LVL105
 6794 206c D5180000 		.4byte	0x18d5
 6795 2070 7B200000 		.4byte	0x207b
 6796 2074 27       		.uleb128 0x27
 6797 2075 01       		.uleb128 0x1
 6798 2076 50       		.byte	0x50
 6799 2077 02       		.uleb128 0x2
 6800 2078 74       		.byte	0x74
 6801 2079 00       		.sleb128 0
 6802 207a 00       		.byte	0
 6803 207b 2E       		.uleb128 0x2e
 6804 207c 3A000000 		.4byte	.LVL108
 6805 2080 C5340000 		.4byte	0x34c5
 6806 2084 27       		.uleb128 0x27
 6807 2085 01       		.uleb128 0x1
 6808 2086 51       		.byte	0x51
 6809 2087 02       		.uleb128 0x2
 6810 2088 76       		.byte	0x76
 6811 2089 00       		.sleb128 0
 6812 208a 27       		.uleb128 0x27
 6813 208b 01       		.uleb128 0x1
 6814 208c 52       		.byte	0x52
 6815 208d 02       		.uleb128 0x2
 6816 208e 75       		.byte	0x75
 6817 208f 00       		.sleb128 0
 6818 2090 00       		.byte	0
 6819 2091 00       		.byte	0
 6820 2092 28       		.uleb128 0x28
 6821 2093 44000000 		.4byte	.LBB14
 6822 2097 1C000000 		.4byte	.LBE14-.LBB14
 6823 209b 24       		.uleb128 0x24
 6824 209c 6C00     		.ascii	"l\000"
 6825 209e 01       		.byte	0x1
 6826 209f CB       		.byte	0xcb
 6827 20a0 08170000 		.4byte	0x1708
 6828 20a4 64060000 		.4byte	.LLST30
 6829 20a8 25       		.uleb128 0x25
 6830 20a9 48000000 		.4byte	.LVL111
 6831 20ad C7330000 		.4byte	0x33c7
 6832 20b1 26       		.uleb128 0x26
 6833 20b2 60000000 		.4byte	.LVL114
 6834 20b6 02       		.uleb128 0x2
 6835 20b7 74       		.byte	0x74
 6836 20b8 00       		.sleb128 0
 6837 20b9 27       		.uleb128 0x27
 6838 20ba 01       		.uleb128 0x1
 6839 20bb 50       		.byte	0x50
 6840 20bc 01       		.uleb128 0x1
 6841 20bd 30       		.byte	0x30
 6842 20be 27       		.uleb128 0x27
 6843 20bf 01       		.uleb128 0x1
 6844 20c0 51       		.byte	0x51
 6845 20c1 05       		.uleb128 0x5
ARM GAS  C:\Users\Phuong\AppData\Local\Temp\ccP1LXIT.s 			page 140


 6846 20c2 03       		.byte	0x3
 6847 20c3 00000000 		.4byte	.LC1
 6848 20c7 27       		.uleb128 0x27
 6849 20c8 01       		.uleb128 0x1
 6850 20c9 52       		.byte	0x52
 6851 20ca 05       		.uleb128 0x5
 6852 20cb 03       		.byte	0x3
 6853 20cc 54000000 		.4byte	.LANCHOR0+84
 6854 20d0 27       		.uleb128 0x27
 6855 20d1 01       		.uleb128 0x1
 6856 20d2 53       		.byte	0x53
 6857 20d3 02       		.uleb128 0x2
 6858 20d4 08       		.byte	0x8
 6859 20d5 CB       		.byte	0xcb
 6860 20d6 27       		.uleb128 0x27
 6861 20d7 02       		.uleb128 0x2
 6862 20d8 7D       		.byte	0x7d
 6863 20d9 00       		.sleb128 0
 6864 20da 01       		.uleb128 0x1
 6865 20db 31       		.byte	0x31
 6866 20dc 27       		.uleb128 0x27
 6867 20dd 02       		.uleb128 0x2
 6868 20de 7D       		.byte	0x7d
 6869 20df 04       		.sleb128 4
 6870 20e0 05       		.uleb128 0x5
 6871 20e1 03       		.byte	0x3
 6872 20e2 EC000000 		.4byte	.LC27
 6873 20e6 00       		.byte	0
 6874 20e7 00       		.byte	0
 6875 20e8 00       		.byte	0
 6876 20e9 11       		.uleb128 0x11
 6877 20ea CB000000 		.4byte	0xcb
 6878 20ee F9200000 		.4byte	0x20f9
 6879 20f2 12       		.uleb128 0x12
 6880 20f3 A9000000 		.4byte	0xa9
 6881 20f7 1F       		.byte	0x1f
 6882 20f8 00       		.byte	0
 6883 20f9 07       		.uleb128 0x7
 6884 20fa E9200000 		.4byte	0x20e9
 6885 20fe 32       		.uleb128 0x32
 6886 20ff 5E110000 		.4byte	.LASF382
 6887 2103 01       		.byte	0x1
 6888 2104 4201     		.2byte	0x142
 6889 2106 37000000 		.4byte	0x37
 6890 210a 00000000 		.4byte	.LFB26
 6891 210e 64000000 		.4byte	.LFE26-.LFB26
 6892 2112 01       		.uleb128 0x1
 6893 2113 9C       		.byte	0x9c
 6894 2114 F6210000 		.4byte	0x21f6
 6895 2118 2B       		.uleb128 0x2b
 6896 2119 2F110000 		.4byte	.LASF366
 6897 211d 01       		.byte	0x1
 6898 211e 4201     		.2byte	0x142
 6899 2120 B0000000 		.4byte	0xb0
 6900 2124 82060000 		.4byte	.LLST31
 6901 2128 33       		.uleb128 0x33
 6902 2129 62756600 		.ascii	"buf\000"
ARM GAS  C:\Users\Phuong\AppData\Local\Temp\ccP1LXIT.s 			page 141


 6903 212d 01       		.byte	0x1
 6904 212e 4201     		.2byte	0x142
 6905 2130 9D020000 		.4byte	0x29d
 6906 2134 D2060000 		.4byte	.LLST32
 6907 2138 33       		.uleb128 0x33
 6908 2139 737A00   		.ascii	"sz\000"
 6909 213c 01       		.byte	0x1
 6910 213d 4201     		.2byte	0x142
 6911 213f 25000000 		.4byte	0x25
 6912 2143 0C070000 		.4byte	.LLST33
 6913 2147 30       		.uleb128 0x30
 6914 2148 E5030000 		.4byte	.LASF373
 6915 214c 01       		.byte	0x1
 6916 214d 4401     		.2byte	0x144
 6917 214f 37000000 		.4byte	0x37
 6918 2153 4E070000 		.4byte	.LLST34
 6919 2157 22       		.uleb128 0x22
 6920 2158 83010000 		.4byte	.LASF374
 6921 215c F6210000 		.4byte	0x21f6
 6922 2160 05       		.uleb128 0x5
 6923 2161 03       		.byte	0x3
 6924 2162 74000000 		.4byte	__func__.9091
 6925 2166 23       		.uleb128 0x23
 6926 2167 0C000000 		.4byte	.LBB15
 6927 216b 1E000000 		.4byte	.LBE15-.LBB15
 6928 216f C2210000 		.4byte	0x21c2
 6929 2173 31       		.uleb128 0x31
 6930 2174 6C00     		.ascii	"l\000"
 6931 2176 01       		.byte	0x1
 6932 2177 4701     		.2byte	0x147
 6933 2179 08170000 		.4byte	0x1708
 6934 217d 78070000 		.4byte	.LLST35
 6935 2181 25       		.uleb128 0x25
 6936 2182 10000000 		.4byte	.LVL117
 6937 2186 C7330000 		.4byte	0x33c7
 6938 218a 26       		.uleb128 0x26
 6939 218b 2A000000 		.4byte	.LVL120
 6940 218f 02       		.uleb128 0x2
 6941 2190 74       		.byte	0x74
 6942 2191 00       		.sleb128 0
 6943 2192 27       		.uleb128 0x27
 6944 2193 01       		.uleb128 0x1
 6945 2194 50       		.byte	0x50
 6946 2195 01       		.uleb128 0x1
 6947 2196 30       		.byte	0x30
 6948 2197 27       		.uleb128 0x27
 6949 2198 01       		.uleb128 0x1
 6950 2199 51       		.byte	0x51
 6951 219a 05       		.uleb128 0x5
 6952 219b 03       		.byte	0x3
 6953 219c 00000000 		.4byte	.LC1
 6954 21a0 27       		.uleb128 0x27
 6955 21a1 01       		.uleb128 0x1
 6956 21a2 52       		.byte	0x52
 6957 21a3 05       		.uleb128 0x5
 6958 21a4 03       		.byte	0x3
 6959 21a5 74000000 		.4byte	.LANCHOR0+116
ARM GAS  C:\Users\Phuong\AppData\Local\Temp\ccP1LXIT.s 			page 142


 6960 21a9 27       		.uleb128 0x27
 6961 21aa 01       		.uleb128 0x1
 6962 21ab 53       		.byte	0x53
 6963 21ac 03       		.uleb128 0x3
 6964 21ad 0A       		.byte	0xa
 6965 21ae 4701     		.2byte	0x147
 6966 21b0 27       		.uleb128 0x27
 6967 21b1 02       		.uleb128 0x2
 6968 21b2 7D       		.byte	0x7d
 6969 21b3 00       		.sleb128 0
 6970 21b4 01       		.uleb128 0x1
 6971 21b5 31       		.byte	0x31
 6972 21b6 27       		.uleb128 0x27
 6973 21b7 02       		.uleb128 0x2
 6974 21b8 7D       		.byte	0x7d
 6975 21b9 04       		.sleb128 4
 6976 21ba 05       		.uleb128 0x5
 6977 21bb 03       		.byte	0x3
 6978 21bc 38000000 		.4byte	.LC3
 6979 21c0 00       		.byte	0
 6980 21c1 00       		.byte	0
 6981 21c2 28       		.uleb128 0x28
 6982 21c3 2E000000 		.4byte	.LBB16
 6983 21c7 24000000 		.4byte	.LBE16-.LBB16
 6984 21cb 30       		.uleb128 0x30
 6985 21cc 0B160000 		.4byte	.LASF363
 6986 21d0 01       		.byte	0x1
 6987 21d1 4C01     		.2byte	0x14c
 6988 21d3 FA180000 		.4byte	0x18fa
 6989 21d7 A1070000 		.4byte	.LLST36
 6990 21db 25       		.uleb128 0x25
 6991 21dc 3A000000 		.4byte	.LVL123
 6992 21e0 E4340000 		.4byte	0x34e4
 6993 21e4 2E       		.uleb128 0x2e
 6994 21e5 4A000000 		.4byte	.LVL124
 6995 21e9 D5180000 		.4byte	0x18d5
 6996 21ed 27       		.uleb128 0x27
 6997 21ee 01       		.uleb128 0x1
 6998 21ef 50       		.byte	0x50
 6999 21f0 02       		.uleb128 0x2
 7000 21f1 74       		.byte	0x74
 7001 21f2 00       		.sleb128 0
 7002 21f3 00       		.byte	0
 7003 21f4 00       		.byte	0
 7004 21f5 00       		.byte	0
 7005 21f6 07       		.uleb128 0x7
 7006 21f7 CD1F0000 		.4byte	0x1fcd
 7007 21fb 32       		.uleb128 0x32
 7008 21fc 96120000 		.4byte	.LASF383
 7009 2200 01       		.byte	0x1
 7010 2201 5B01     		.2byte	0x15b
 7011 2203 37000000 		.4byte	0x37
 7012 2207 00000000 		.4byte	.LFB27
 7013 220b 42000000 		.4byte	.LFE27-.LFB27
 7014 220f 01       		.uleb128 0x1
 7015 2210 9C       		.byte	0x9c
 7016 2211 A2220000 		.4byte	0x22a2
ARM GAS  C:\Users\Phuong\AppData\Local\Temp\ccP1LXIT.s 			page 143


 7017 2215 33       		.uleb128 0x33
 7018 2216 7600     		.ascii	"v\000"
 7019 2218 01       		.byte	0x1
 7020 2219 5B01     		.2byte	0x15b
 7021 221b B0000000 		.4byte	0xb0
 7022 221f BF070000 		.4byte	.LLST37
 7023 2223 2B       		.uleb128 0x2b
 7024 2224 6A080000 		.4byte	.LASF384
 7025 2228 01       		.byte	0x1
 7026 2229 5B01     		.2byte	0x15b
 7027 222b BF000000 		.4byte	0xbf
 7028 222f E0070000 		.4byte	.LLST38
 7029 2233 33       		.uleb128 0x33
 7030 2234 6C656E00 		.ascii	"len\000"
 7031 2238 01       		.byte	0x1
 7032 2239 5B01     		.2byte	0x15b
 7033 223b 25000000 		.4byte	0x25
 7034 223f 0C080000 		.4byte	.LLST39
 7035 2243 2B       		.uleb128 0x2b
 7036 2244 60080000 		.4byte	.LASF385
 7037 2248 01       		.byte	0x1
 7038 2249 5B01     		.2byte	0x15b
 7039 224b 97020000 		.4byte	0x297
 7040 224f 36080000 		.4byte	.LLST40
 7041 2253 37       		.uleb128 0x37
 7042 2254 E5030000 		.4byte	.LASF373
 7043 2258 01       		.byte	0x1
 7044 2259 5E01     		.2byte	0x15e
 7045 225b 37000000 		.4byte	0x37
 7046 225f 00       		.byte	0
 7047 2260 23       		.uleb128 0x23
 7048 2261 16000000 		.4byte	.LBB17
 7049 2265 20000000 		.4byte	.LBE17-.LBB17
 7050 2269 85220000 		.4byte	0x2285
 7051 226d 31       		.uleb128 0x31
 7052 226e 6900     		.ascii	"i\000"
 7053 2270 01       		.byte	0x1
 7054 2271 6001     		.2byte	0x160
 7055 2273 E2000000 		.4byte	0xe2
 7056 2277 5F080000 		.4byte	.LLST41
 7057 227b 25       		.uleb128 0x25
 7058 227c 20000000 		.4byte	.LVL136
 7059 2280 EF340000 		.4byte	0x34ef
 7060 2284 00       		.byte	0
 7061 2285 2D       		.uleb128 0x2d
 7062 2286 12000000 		.4byte	.LVL133
 7063 228a FA340000 		.4byte	0x34fa
 7064 228e 98220000 		.4byte	0x2298
 7065 2292 27       		.uleb128 0x27
 7066 2293 01       		.uleb128 0x1
 7067 2294 50       		.byte	0x50
 7068 2295 01       		.uleb128 0x1
 7069 2296 30       		.byte	0x30
 7070 2297 00       		.byte	0
 7071 2298 25       		.uleb128 0x25
 7072 2299 16000000 		.4byte	.LVL134
 7073 229d 05350000 		.4byte	0x3505
ARM GAS  C:\Users\Phuong\AppData\Local\Temp\ccP1LXIT.s 			page 144


 7074 22a1 00       		.byte	0
 7075 22a2 38       		.uleb128 0x38
 7076 22a3 23140000 		.4byte	.LASF396
 7077 22a7 01       		.byte	0x1
 7078 22a8 D901     		.2byte	0x1d9
 7079 22aa 00000000 		.4byte	.LFB30
 7080 22ae 5C000000 		.4byte	.LFE30-.LFB30
 7081 22b2 01       		.uleb128 0x1
 7082 22b3 9C       		.byte	0x9c
 7083 22b4 76230000 		.4byte	0x2376
 7084 22b8 2B       		.uleb128 0x2b
 7085 22b9 48160000 		.4byte	.LASF386
 7086 22bd 01       		.byte	0x1
 7087 22be D901     		.2byte	0x1d9
 7088 22c0 EC130000 		.4byte	0x13ec
 7089 22c4 89080000 		.4byte	.LLST42
 7090 22c8 28       		.uleb128 0x28
 7091 22c9 06000000 		.4byte	.LBB18
 7092 22cd 54000000 		.4byte	.LBE18-.LBB18
 7093 22d1 30       		.uleb128 0x30
 7094 22d2 0B160000 		.4byte	.LASF363
 7095 22d6 01       		.byte	0x1
 7096 22d7 DD01     		.2byte	0x1dd
 7097 22d9 FA180000 		.4byte	0x18fa
 7098 22dd B5080000 		.4byte	.LLST43
 7099 22e1 2D       		.uleb128 0x2d
 7100 22e2 10000000 		.4byte	.LVL146
 7101 22e6 10350000 		.4byte	0x3510
 7102 22ea F6220000 		.4byte	0x22f6
 7103 22ee 27       		.uleb128 0x27
 7104 22ef 01       		.uleb128 0x1
 7105 22f0 50       		.byte	0x50
 7106 22f1 03       		.uleb128 0x3
 7107 22f2 74       		.byte	0x74
 7108 22f3 F007     		.sleb128 1008
 7109 22f5 00       		.byte	0
 7110 22f6 2D       		.uleb128 0x2d
 7111 22f7 1A000000 		.4byte	.LVL147
 7112 22fb 1C350000 		.4byte	0x351c
 7113 22ff 0B230000 		.4byte	0x230b
 7114 2303 27       		.uleb128 0x27
 7115 2304 01       		.uleb128 0x1
 7116 2305 50       		.byte	0x50
 7117 2306 03       		.uleb128 0x3
 7118 2307 74       		.byte	0x74
 7119 2308 880A     		.sleb128 1288
 7120 230a 00       		.byte	0
 7121 230b 2D       		.uleb128 0x2d
 7122 230c 24000000 		.4byte	.LVL148
 7123 2310 28350000 		.4byte	0x3528
 7124 2314 20230000 		.4byte	0x2320
 7125 2318 27       		.uleb128 0x27
 7126 2319 01       		.uleb128 0x1
 7127 231a 50       		.byte	0x50
 7128 231b 03       		.uleb128 0x3
 7129 231c 74       		.byte	0x74
 7130 231d D80B     		.sleb128 1496
ARM GAS  C:\Users\Phuong\AppData\Local\Temp\ccP1LXIT.s 			page 145


 7131 231f 00       		.byte	0
 7132 2320 2D       		.uleb128 0x2d
 7133 2321 2E000000 		.4byte	.LVL149
 7134 2325 34350000 		.4byte	0x3534
 7135 2329 35230000 		.4byte	0x2335
 7136 232d 27       		.uleb128 0x27
 7137 232e 01       		.uleb128 0x1
 7138 232f 50       		.byte	0x50
 7139 2330 03       		.uleb128 0x3
 7140 2331 74       		.byte	0x74
 7141 2332 B005     		.sleb128 688
 7142 2334 00       		.byte	0
 7143 2335 2D       		.uleb128 0x2d
 7144 2336 36000000 		.4byte	.LVL150
 7145 233a 3F350000 		.4byte	0x353f
 7146 233e 49230000 		.4byte	0x2349
 7147 2342 27       		.uleb128 0x27
 7148 2343 01       		.uleb128 0x1
 7149 2344 50       		.byte	0x50
 7150 2345 02       		.uleb128 0x2
 7151 2346 74       		.byte	0x74
 7152 2347 38       		.sleb128 56
 7153 2348 00       		.byte	0
 7154 2349 25       		.uleb128 0x25
 7155 234a 40000000 		.4byte	.LVL151
 7156 234e 99340000 		.4byte	0x3499
 7157 2352 25       		.uleb128 0x25
 7158 2353 46000000 		.4byte	.LVL152
 7159 2357 4A350000 		.4byte	0x354a
 7160 235b 25       		.uleb128 0x25
 7161 235c 54000000 		.4byte	.LVL153
 7162 2360 99340000 		.4byte	0x3499
 7163 2364 2E       		.uleb128 0x2e
 7164 2365 5A000000 		.4byte	.LVL154
 7165 2369 99340000 		.4byte	0x3499
 7166 236d 27       		.uleb128 0x27
 7167 236e 01       		.uleb128 0x1
 7168 236f 50       		.byte	0x50
 7169 2370 02       		.uleb128 0x2
 7170 2371 74       		.byte	0x74
 7171 2372 00       		.sleb128 0
 7172 2373 00       		.byte	0
 7173 2374 00       		.byte	0
 7174 2375 00       		.byte	0
 7175 2376 2F       		.uleb128 0x2f
 7176 2377 52000000 		.4byte	.LASF388
 7177 237b 01       		.byte	0x1
 7178 237c F401     		.2byte	0x1f4
 7179 237e 37000000 		.4byte	0x37
 7180 2382 00000000 		.4byte	.LFB31
 7181 2386 EC000000 		.4byte	.LFE31-.LFB31
 7182 238a 01       		.uleb128 0x1
 7183 238b 9C       		.byte	0x9c
 7184 238c 81250000 		.4byte	0x2581
 7185 2390 2B       		.uleb128 0x2b
 7186 2391 48160000 		.4byte	.LASF386
 7187 2395 01       		.byte	0x1
ARM GAS  C:\Users\Phuong\AppData\Local\Temp\ccP1LXIT.s 			page 146


 7188 2396 F401     		.2byte	0x1f4
 7189 2398 EC130000 		.4byte	0x13ec
 7190 239c D3080000 		.4byte	.LLST44
 7191 23a0 2B       		.uleb128 0x2b
 7192 23a1 0D1C0000 		.4byte	.LASF343
 7193 23a5 01       		.byte	0x1
 7194 23a6 F401     		.2byte	0x1f4
 7195 23a8 9A140000 		.4byte	0x149a
 7196 23ac 3C090000 		.4byte	.LLST45
 7197 23b0 2B       		.uleb128 0x2b
 7198 23b1 96060000 		.4byte	.LASF347
 7199 23b5 01       		.byte	0x1
 7200 23b6 F401     		.2byte	0x1f4
 7201 23b8 B0000000 		.4byte	0xb0
 7202 23bc 8F090000 		.4byte	.LLST46
 7203 23c0 2B       		.uleb128 0x2b
 7204 23c1 CB130000 		.4byte	.LASF342
 7205 23c5 01       		.byte	0x1
 7206 23c6 F401     		.2byte	0x1f4
 7207 23c8 53140000 		.4byte	0x1453
 7208 23cc EE090000 		.4byte	.LLST47
 7209 23d0 39       		.uleb128 0x39
 7210 23d1 07090000 		.4byte	.LASF346
 7211 23d5 01       		.byte	0x1
 7212 23d6 F401     		.2byte	0x1f4
 7213 23d8 B0000000 		.4byte	0xb0
 7214 23dc 02       		.uleb128 0x2
 7215 23dd 91       		.byte	0x91
 7216 23de 00       		.sleb128 0
 7217 23df 39       		.uleb128 0x39
 7218 23e0 28070000 		.4byte	.LASF345
 7219 23e4 01       		.byte	0x1
 7220 23e5 F401     		.2byte	0x1f4
 7221 23e7 D7140000 		.4byte	0x14d7
 7222 23eb 02       		.uleb128 0x2
 7223 23ec 91       		.byte	0x91
 7224 23ed 04       		.sleb128 4
 7225 23ee 39       		.uleb128 0x39
 7226 23ef 7D030000 		.4byte	.LASF349
 7227 23f3 01       		.byte	0x1
 7228 23f4 F401     		.2byte	0x1f4
 7229 23f6 B0000000 		.4byte	0xb0
 7230 23fa 02       		.uleb128 0x2
 7231 23fb 91       		.byte	0x91
 7232 23fc 08       		.sleb128 8
 7233 23fd 30       		.uleb128 0x30
 7234 23fe E5030000 		.4byte	.LASF373
 7235 2402 01       		.byte	0x1
 7236 2403 F601     		.2byte	0x1f6
 7237 2405 37000000 		.4byte	0x37
 7238 2409 4D0A0000 		.4byte	.LLST48
 7239 240d 22       		.uleb128 0x22
 7240 240e 83010000 		.4byte	.LASF374
 7241 2412 91250000 		.4byte	0x2591
 7242 2416 05       		.uleb128 0x5
 7243 2417 03       		.byte	0x3
 7244 2418 80000000 		.4byte	__func__.9147
ARM GAS  C:\Users\Phuong\AppData\Local\Temp\ccP1LXIT.s 			page 147


 7245 241c 23       		.uleb128 0x23
 7246 241d 08000000 		.4byte	.LBB19
 7247 2421 1C000000 		.4byte	.LBE19-.LBB19
 7248 2425 78240000 		.4byte	0x2478
 7249 2429 31       		.uleb128 0x31
 7250 242a 6C00     		.ascii	"l\000"
 7251 242c 01       		.byte	0x1
 7252 242d FA01     		.2byte	0x1fa
 7253 242f 08170000 		.4byte	0x1708
 7254 2433 860A0000 		.4byte	.LLST49
 7255 2437 25       		.uleb128 0x25
 7256 2438 0C000000 		.4byte	.LVL158
 7257 243c C7330000 		.4byte	0x33c7
 7258 2440 26       		.uleb128 0x26
 7259 2441 24000000 		.4byte	.LVL161
 7260 2445 02       		.uleb128 0x2
 7261 2446 74       		.byte	0x74
 7262 2447 00       		.sleb128 0
 7263 2448 27       		.uleb128 0x27
 7264 2449 01       		.uleb128 0x1
 7265 244a 50       		.byte	0x50
 7266 244b 01       		.uleb128 0x1
 7267 244c 30       		.byte	0x30
 7268 244d 27       		.uleb128 0x27
 7269 244e 01       		.uleb128 0x1
 7270 244f 51       		.byte	0x51
 7271 2450 05       		.uleb128 0x5
 7272 2451 03       		.byte	0x3
 7273 2452 00000000 		.4byte	.LC1
 7274 2456 27       		.uleb128 0x27
 7275 2457 01       		.uleb128 0x1
 7276 2458 52       		.byte	0x52
 7277 2459 05       		.uleb128 0x5
 7278 245a 03       		.byte	0x3
 7279 245b 80000000 		.4byte	.LANCHOR1
 7280 245f 27       		.uleb128 0x27
 7281 2460 01       		.uleb128 0x1
 7282 2461 53       		.byte	0x53
 7283 2462 03       		.uleb128 0x3
 7284 2463 0A       		.byte	0xa
 7285 2464 FA01     		.2byte	0x1fa
 7286 2466 27       		.uleb128 0x27
 7287 2467 02       		.uleb128 0x2
 7288 2468 7D       		.byte	0x7d
 7289 2469 00       		.sleb128 0
 7290 246a 01       		.uleb128 0x1
 7291 246b 31       		.byte	0x31
 7292 246c 27       		.uleb128 0x27
 7293 246d 02       		.uleb128 0x2
 7294 246e 7D       		.byte	0x7d
 7295 246f 04       		.sleb128 4
 7296 2470 05       		.uleb128 0x5
 7297 2471 03       		.byte	0x3
 7298 2472 0C010000 		.4byte	.LC34
 7299 2476 00       		.byte	0
 7300 2477 00       		.byte	0
 7301 2478 34       		.uleb128 0x34
ARM GAS  C:\Users\Phuong\AppData\Local\Temp\ccP1LXIT.s 			page 148


 7302 2479 20000000 		.4byte	.Ldebug_ranges0+0x20
 7303 247d 30       		.uleb128 0x30
 7304 247e 0B160000 		.4byte	.LASF363
 7305 2482 01       		.byte	0x1
 7306 2483 FF01     		.2byte	0x1ff
 7307 2485 FA180000 		.4byte	0x18fa
 7308 2489 BA0A0000 		.4byte	.LLST50
 7309 248d 23       		.uleb128 0x23
 7310 248e 32000000 		.4byte	.LBB21
 7311 2492 20000000 		.4byte	.LBE21-.LBB21
 7312 2496 E9240000 		.4byte	0x24e9
 7313 249a 31       		.uleb128 0x31
 7314 249b 6C00     		.ascii	"l\000"
 7315 249d 01       		.byte	0x1
 7316 249e 0302     		.2byte	0x203
 7317 24a0 08170000 		.4byte	0x1708
 7318 24a4 E30A0000 		.4byte	.LLST51
 7319 24a8 25       		.uleb128 0x25
 7320 24a9 36000000 		.4byte	.LVL164
 7321 24ad C7330000 		.4byte	0x33c7
 7322 24b1 26       		.uleb128 0x26
 7323 24b2 52000000 		.4byte	.LVL167
 7324 24b6 02       		.uleb128 0x2
 7325 24b7 75       		.byte	0x75
 7326 24b8 00       		.sleb128 0
 7327 24b9 27       		.uleb128 0x27
 7328 24ba 01       		.uleb128 0x1
 7329 24bb 50       		.byte	0x50
 7330 24bc 01       		.uleb128 0x1
 7331 24bd 30       		.byte	0x30
 7332 24be 27       		.uleb128 0x27
 7333 24bf 01       		.uleb128 0x1
 7334 24c0 51       		.byte	0x51
 7335 24c1 05       		.uleb128 0x5
 7336 24c2 03       		.byte	0x3
 7337 24c3 00000000 		.4byte	.LC1
 7338 24c7 27       		.uleb128 0x27
 7339 24c8 01       		.uleb128 0x1
 7340 24c9 52       		.byte	0x52
 7341 24ca 05       		.uleb128 0x5
 7342 24cb 03       		.byte	0x3
 7343 24cc 80000000 		.4byte	.LANCHOR1
 7344 24d0 27       		.uleb128 0x27
 7345 24d1 01       		.uleb128 0x1
 7346 24d2 53       		.byte	0x53
 7347 24d3 03       		.uleb128 0x3
 7348 24d4 0A       		.byte	0xa
 7349 24d5 0302     		.2byte	0x203
 7350 24d7 27       		.uleb128 0x27
 7351 24d8 02       		.uleb128 0x2
 7352 24d9 7D       		.byte	0x7d
 7353 24da 00       		.sleb128 0
 7354 24db 01       		.uleb128 0x1
 7355 24dc 31       		.byte	0x31
 7356 24dd 27       		.uleb128 0x27
 7357 24de 02       		.uleb128 0x2
 7358 24df 7D       		.byte	0x7d
ARM GAS  C:\Users\Phuong\AppData\Local\Temp\ccP1LXIT.s 			page 149


 7359 24e0 04       		.sleb128 4
 7360 24e1 05       		.uleb128 0x5
 7361 24e2 03       		.byte	0x3
 7362 24e3 18010000 		.4byte	.LC36
 7363 24e7 00       		.byte	0
 7364 24e8 00       		.byte	0
 7365 24e9 23       		.uleb128 0x23
 7366 24ea 88000000 		.4byte	.LBB22
 7367 24ee 1A000000 		.4byte	.LBE22-.LBB22
 7368 24f2 45250000 		.4byte	0x2545
 7369 24f6 31       		.uleb128 0x31
 7370 24f7 6C00     		.ascii	"l\000"
 7371 24f9 01       		.byte	0x1
 7372 24fa 1502     		.2byte	0x215
 7373 24fc 08170000 		.4byte	0x1708
 7374 2500 170B0000 		.4byte	.LLST52
 7375 2504 25       		.uleb128 0x25
 7376 2505 8C000000 		.4byte	.LVL174
 7377 2509 C7330000 		.4byte	0x33c7
 7378 250d 26       		.uleb128 0x26
 7379 250e A2000000 		.4byte	.LVL177
 7380 2512 02       		.uleb128 0x2
 7381 2513 75       		.byte	0x75
 7382 2514 00       		.sleb128 0
 7383 2515 27       		.uleb128 0x27
 7384 2516 01       		.uleb128 0x1
 7385 2517 50       		.byte	0x50
 7386 2518 01       		.uleb128 0x1
 7387 2519 30       		.byte	0x30
 7388 251a 27       		.uleb128 0x27
 7389 251b 01       		.uleb128 0x1
 7390 251c 51       		.byte	0x51
 7391 251d 05       		.uleb128 0x5
 7392 251e 03       		.byte	0x3
 7393 251f 00000000 		.4byte	.LC1
 7394 2523 27       		.uleb128 0x27
 7395 2524 01       		.uleb128 0x1
 7396 2525 52       		.byte	0x52
 7397 2526 05       		.uleb128 0x5
 7398 2527 03       		.byte	0x3
 7399 2528 80000000 		.4byte	.LANCHOR1
 7400 252c 27       		.uleb128 0x27
 7401 252d 01       		.uleb128 0x1
 7402 252e 53       		.byte	0x53
 7403 252f 03       		.uleb128 0x3
 7404 2530 0A       		.byte	0xa
 7405 2531 1502     		.2byte	0x215
 7406 2533 27       		.uleb128 0x27
 7407 2534 02       		.uleb128 0x2
 7408 2535 7D       		.byte	0x7d
 7409 2536 00       		.sleb128 0
 7410 2537 01       		.uleb128 0x1
 7411 2538 31       		.byte	0x31
 7412 2539 27       		.uleb128 0x27
 7413 253a 02       		.uleb128 0x2
 7414 253b 7D       		.byte	0x7d
 7415 253c 04       		.sleb128 4
ARM GAS  C:\Users\Phuong\AppData\Local\Temp\ccP1LXIT.s 			page 150


 7416 253d 05       		.uleb128 0x5
 7417 253e 03       		.byte	0x3
 7418 253f 34010000 		.4byte	.LC41
 7419 2543 00       		.byte	0
 7420 2544 00       		.byte	0
 7421 2545 2E       		.uleb128 0x2e
 7422 2546 84000000 		.4byte	.LVL173
 7423 254a 55350000 		.4byte	0x3555
 7424 254e 27       		.uleb128 0x27
 7425 254f 01       		.uleb128 0x1
 7426 2550 51       		.byte	0x51
 7427 2551 05       		.uleb128 0x5
 7428 2552 03       		.byte	0x3
 7429 2553 00000000 		.4byte	on_underlying_io_open_complete
 7430 2557 27       		.uleb128 0x27
 7431 2558 01       		.uleb128 0x1
 7432 2559 52       		.byte	0x52
 7433 255a 02       		.uleb128 0x2
 7434 255b 74       		.byte	0x74
 7435 255c 00       		.sleb128 0
 7436 255d 27       		.uleb128 0x27
 7437 255e 01       		.uleb128 0x1
 7438 255f 53       		.byte	0x53
 7439 2560 05       		.uleb128 0x5
 7440 2561 03       		.byte	0x3
 7441 2562 00000000 		.4byte	on_underlying_io_bytes_received
 7442 2566 27       		.uleb128 0x27
 7443 2567 02       		.uleb128 0x2
 7444 2568 7D       		.byte	0x7d
 7445 2569 00       		.sleb128 0
 7446 256a 02       		.uleb128 0x2
 7447 256b 74       		.byte	0x74
 7448 256c 00       		.sleb128 0
 7449 256d 27       		.uleb128 0x27
 7450 256e 02       		.uleb128 0x2
 7451 256f 7D       		.byte	0x7d
 7452 2570 04       		.sleb128 4
 7453 2571 05       		.uleb128 0x5
 7454 2572 03       		.byte	0x3
 7455 2573 00000000 		.4byte	on_underlying_io_error
 7456 2577 27       		.uleb128 0x27
 7457 2578 02       		.uleb128 0x2
 7458 2579 7D       		.byte	0x7d
 7459 257a 08       		.sleb128 8
 7460 257b 02       		.uleb128 0x2
 7461 257c 74       		.byte	0x74
 7462 257d 00       		.sleb128 0
 7463 257e 00       		.byte	0
 7464 257f 00       		.byte	0
 7465 2580 00       		.byte	0
 7466 2581 11       		.uleb128 0x11
 7467 2582 CB000000 		.4byte	0xcb
 7468 2586 91250000 		.4byte	0x2591
 7469 258a 12       		.uleb128 0x12
 7470 258b A9000000 		.4byte	0xa9
 7471 258f 12       		.byte	0x12
 7472 2590 00       		.byte	0
ARM GAS  C:\Users\Phuong\AppData\Local\Temp\ccP1LXIT.s 			page 151


 7473 2591 07       		.uleb128 0x7
 7474 2592 81250000 		.4byte	0x2581
 7475 2596 36       		.uleb128 0x36
 7476 2597 E6120000 		.4byte	.LASF389
 7477 259b 01       		.byte	0x1
 7478 259c CF       		.byte	0xcf
 7479 259d 00000000 		.4byte	.LFB23
 7480 25a1 6C000000 		.4byte	.LFE23-.LFB23
 7481 25a5 01       		.uleb128 0x1
 7482 25a6 9C       		.byte	0x9c
 7483 25a7 7E260000 		.4byte	0x267e
 7484 25ab 21       		.uleb128 0x21
 7485 25ac 2F110000 		.4byte	.LASF366
 7486 25b0 01       		.byte	0x1
 7487 25b1 CF       		.byte	0xcf
 7488 25b2 B0000000 		.4byte	0xb0
 7489 25b6 350B0000 		.4byte	.LLST53
 7490 25ba 22       		.uleb128 0x22
 7491 25bb 83010000 		.4byte	.LASF374
 7492 25bf 8E260000 		.4byte	0x268e
 7493 25c3 05       		.uleb128 0x5
 7494 25c4 03       		.byte	0x3
 7495 25c5 94000000 		.4byte	__func__.9048
 7496 25c9 23       		.uleb128 0x23
 7497 25ca 08000000 		.4byte	.LBB24
 7498 25ce 1E000000 		.4byte	.LBE24-.LBB24
 7499 25d2 23260000 		.4byte	0x2623
 7500 25d6 24       		.uleb128 0x24
 7501 25d7 6C00     		.ascii	"l\000"
 7502 25d9 01       		.byte	0x1
 7503 25da D3       		.byte	0xd3
 7504 25db 08170000 		.4byte	0x1708
 7505 25df 9B0B0000 		.4byte	.LLST54
 7506 25e3 25       		.uleb128 0x25
 7507 25e4 0C000000 		.4byte	.LVL186
 7508 25e8 C7330000 		.4byte	0x33c7
 7509 25ec 26       		.uleb128 0x26
 7510 25ed 24000000 		.4byte	.LVL189
 7511 25f1 02       		.uleb128 0x2
 7512 25f2 74       		.byte	0x74
 7513 25f3 00       		.sleb128 0
 7514 25f4 27       		.uleb128 0x27
 7515 25f5 01       		.uleb128 0x1
 7516 25f6 50       		.byte	0x50
 7517 25f7 01       		.uleb128 0x1
 7518 25f8 30       		.byte	0x30
 7519 25f9 27       		.uleb128 0x27
 7520 25fa 01       		.uleb128 0x1
 7521 25fb 51       		.byte	0x51
 7522 25fc 05       		.uleb128 0x5
 7523 25fd 03       		.byte	0x3
 7524 25fe 00000000 		.4byte	.LC1
 7525 2602 27       		.uleb128 0x27
 7526 2603 01       		.uleb128 0x1
 7527 2604 52       		.byte	0x52
 7528 2605 05       		.uleb128 0x5
 7529 2606 03       		.byte	0x3
ARM GAS  C:\Users\Phuong\AppData\Local\Temp\ccP1LXIT.s 			page 152


 7530 2607 94000000 		.4byte	.LANCHOR1+20
 7531 260b 27       		.uleb128 0x27
 7532 260c 01       		.uleb128 0x1
 7533 260d 53       		.byte	0x53
 7534 260e 02       		.uleb128 0x2
 7535 260f 08       		.byte	0x8
 7536 2610 D3       		.byte	0xd3
 7537 2611 27       		.uleb128 0x27
 7538 2612 02       		.uleb128 0x2
 7539 2613 7D       		.byte	0x7d
 7540 2614 00       		.sleb128 0
 7541 2615 01       		.uleb128 0x1
 7542 2616 31       		.byte	0x31
 7543 2617 27       		.uleb128 0x27
 7544 2618 02       		.uleb128 0x2
 7545 2619 7D       		.byte	0x7d
 7546 261a 04       		.sleb128 4
 7547 261b 05       		.uleb128 0x5
 7548 261c 03       		.byte	0x3
 7549 261d 38000000 		.4byte	.LC3
 7550 2621 00       		.byte	0
 7551 2622 00       		.byte	0
 7552 2623 28       		.uleb128 0x28
 7553 2624 26000000 		.4byte	.LBB25
 7554 2628 36000000 		.4byte	.LBE25-.LBB25
 7555 262c 29       		.uleb128 0x29
 7556 262d 0B160000 		.4byte	.LASF363
 7557 2631 01       		.byte	0x1
 7558 2632 D7       		.byte	0xd7
 7559 2633 FA180000 		.4byte	0x18fa
 7560 2637 B90B0000 		.4byte	.LLST55
 7561 263b 2D       		.uleb128 0x2d
 7562 263c 42000000 		.4byte	.LVL192
 7563 2640 60350000 		.4byte	0x3560
 7564 2644 53260000 		.4byte	0x2653
 7565 2648 27       		.uleb128 0x27
 7566 2649 01       		.uleb128 0x1
 7567 264a 51       		.byte	0x51
 7568 264b 01       		.uleb128 0x1
 7569 264c 30       		.byte	0x30
 7570 264d 27       		.uleb128 0x27
 7571 264e 01       		.uleb128 0x1
 7572 264f 52       		.byte	0x52
 7573 2650 01       		.uleb128 0x1
 7574 2651 30       		.byte	0x30
 7575 2652 00       		.byte	0
 7576 2653 2D       		.uleb128 0x2d
 7577 2654 50000000 		.4byte	.LVL193
 7578 2658 00190000 		.4byte	0x1900
 7579 265c 6C260000 		.4byte	0x266c
 7580 2660 27       		.uleb128 0x27
 7581 2661 01       		.uleb128 0x1
 7582 2662 50       		.byte	0x50
 7583 2663 02       		.uleb128 0x2
 7584 2664 74       		.byte	0x74
 7585 2665 00       		.sleb128 0
 7586 2666 27       		.uleb128 0x27
ARM GAS  C:\Users\Phuong\AppData\Local\Temp\ccP1LXIT.s 			page 153


 7587 2667 01       		.uleb128 0x1
 7588 2668 51       		.byte	0x51
 7589 2669 01       		.uleb128 0x1
 7590 266a 31       		.byte	0x31
 7591 266b 00       		.byte	0
 7592 266c 2E       		.uleb128 0x2e
 7593 266d 5C000000 		.4byte	.LVL195
 7594 2671 D5180000 		.4byte	0x18d5
 7595 2675 27       		.uleb128 0x27
 7596 2676 01       		.uleb128 0x1
 7597 2677 50       		.byte	0x50
 7598 2678 02       		.uleb128 0x2
 7599 2679 74       		.byte	0x74
 7600 267a 00       		.sleb128 0
 7601 267b 00       		.byte	0
 7602 267c 00       		.byte	0
 7603 267d 00       		.byte	0
 7604 267e 11       		.uleb128 0x11
 7605 267f CB000000 		.4byte	0xcb
 7606 2683 8E260000 		.4byte	0x268e
 7607 2687 12       		.uleb128 0x12
 7608 2688 A9000000 		.4byte	0xa9
 7609 268c 16       		.byte	0x16
 7610 268d 00       		.byte	0
 7611 268e 07       		.uleb128 0x7
 7612 268f 7E260000 		.4byte	0x267e
 7613 2693 36       		.uleb128 0x36
 7614 2694 4A030000 		.4byte	.LASF390
 7615 2698 01       		.byte	0x1
 7616 2699 90       		.byte	0x90
 7617 269a 00000000 		.4byte	.LFB21
 7618 269e 90000000 		.4byte	.LFE21-.LFB21
 7619 26a2 01       		.uleb128 0x1
 7620 26a3 9C       		.byte	0x9c
 7621 26a4 B4270000 		.4byte	0x27b4
 7622 26a8 21       		.uleb128 0x21
 7623 26a9 2F110000 		.4byte	.LASF366
 7624 26ad 01       		.byte	0x1
 7625 26ae 90       		.byte	0x90
 7626 26af B0000000 		.4byte	0xb0
 7627 26b3 ED0B0000 		.4byte	.LLST56
 7628 26b7 21       		.uleb128 0x21
 7629 26b8 3E070000 		.4byte	.LASF364
 7630 26bc 01       		.byte	0x1
 7631 26bd 90       		.byte	0x90
 7632 26be 48140000 		.4byte	0x1448
 7633 26c2 530C0000 		.4byte	.LLST57
 7634 26c6 22       		.uleb128 0x22
 7635 26c7 83010000 		.4byte	.LASF374
 7636 26cb C4270000 		.4byte	0x27c4
 7637 26cf 05       		.uleb128 0x5
 7638 26d0 03       		.byte	0x3
 7639 26d1 AC000000 		.4byte	__func__.9026
 7640 26d5 23       		.uleb128 0x23
 7641 26d6 08000000 		.4byte	.LBB26
 7642 26da 1E000000 		.4byte	.LBE26-.LBB26
 7643 26de 2F270000 		.4byte	0x272f
ARM GAS  C:\Users\Phuong\AppData\Local\Temp\ccP1LXIT.s 			page 154


 7644 26e2 24       		.uleb128 0x24
 7645 26e3 6C00     		.ascii	"l\000"
 7646 26e5 01       		.byte	0x1
 7647 26e6 94       		.byte	0x94
 7648 26e7 08170000 		.4byte	0x1708
 7649 26eb A60C0000 		.4byte	.LLST58
 7650 26ef 25       		.uleb128 0x25
 7651 26f0 0C000000 		.4byte	.LVL197
 7652 26f4 C7330000 		.4byte	0x33c7
 7653 26f8 26       		.uleb128 0x26
 7654 26f9 24000000 		.4byte	.LVL200
 7655 26fd 02       		.uleb128 0x2
 7656 26fe 74       		.byte	0x74
 7657 26ff 00       		.sleb128 0
 7658 2700 27       		.uleb128 0x27
 7659 2701 01       		.uleb128 0x1
 7660 2702 50       		.byte	0x50
 7661 2703 01       		.uleb128 0x1
 7662 2704 30       		.byte	0x30
 7663 2705 27       		.uleb128 0x27
 7664 2706 01       		.uleb128 0x1
 7665 2707 51       		.byte	0x51
 7666 2708 05       		.uleb128 0x5
 7667 2709 03       		.byte	0x3
 7668 270a 00000000 		.4byte	.LC1
 7669 270e 27       		.uleb128 0x27
 7670 270f 01       		.uleb128 0x1
 7671 2710 52       		.byte	0x52
 7672 2711 05       		.uleb128 0x5
 7673 2712 03       		.byte	0x3
 7674 2713 AC000000 		.4byte	.LANCHOR1+44
 7675 2717 27       		.uleb128 0x27
 7676 2718 01       		.uleb128 0x1
 7677 2719 53       		.byte	0x53
 7678 271a 02       		.uleb128 0x2
 7679 271b 08       		.byte	0x8
 7680 271c 94       		.byte	0x94
 7681 271d 27       		.uleb128 0x27
 7682 271e 02       		.uleb128 0x2
 7683 271f 7D       		.byte	0x7d
 7684 2720 00       		.sleb128 0
 7685 2721 01       		.uleb128 0x1
 7686 2722 31       		.byte	0x31
 7687 2723 27       		.uleb128 0x27
 7688 2724 02       		.uleb128 0x2
 7689 2725 7D       		.byte	0x7d
 7690 2726 04       		.sleb128 4
 7691 2727 05       		.uleb128 0x5
 7692 2728 03       		.byte	0x3
 7693 2729 38000000 		.4byte	.LC3
 7694 272d 00       		.byte	0
 7695 272e 00       		.byte	0
 7696 272f 28       		.uleb128 0x28
 7697 2730 26000000 		.4byte	.LBB27
 7698 2734 50000000 		.4byte	.LBE27-.LBB27
 7699 2738 29       		.uleb128 0x29
 7700 2739 0B160000 		.4byte	.LASF363
ARM GAS  C:\Users\Phuong\AppData\Local\Temp\ccP1LXIT.s 			page 155


 7701 273d 01       		.byte	0x1
 7702 273e 98       		.byte	0x98
 7703 273f FA180000 		.4byte	0x18fa
 7704 2743 C40C0000 		.4byte	.LLST59
 7705 2747 29       		.uleb128 0x29
 7706 2748 E5030000 		.4byte	.LASF373
 7707 274c 01       		.byte	0x1
 7708 274d 99       		.byte	0x99
 7709 274e 37000000 		.4byte	0x37
 7710 2752 F80C0000 		.4byte	.LLST60
 7711 2756 2D       		.uleb128 0x2d
 7712 2757 36000000 		.4byte	.LVL203
 7713 275b 00190000 		.4byte	0x1900
 7714 275f 6F270000 		.4byte	0x276f
 7715 2763 27       		.uleb128 0x27
 7716 2764 01       		.uleb128 0x1
 7717 2765 50       		.byte	0x50
 7718 2766 02       		.uleb128 0x2
 7719 2767 74       		.byte	0x74
 7720 2768 00       		.sleb128 0
 7721 2769 27       		.uleb128 0x27
 7722 276a 01       		.uleb128 0x1
 7723 276b 51       		.byte	0x51
 7724 276c 01       		.uleb128 0x1
 7725 276d 31       		.byte	0x31
 7726 276e 00       		.byte	0
 7727 276f 2D       		.uleb128 0x2d
 7728 2770 48000000 		.4byte	.LVL206
 7729 2774 6B350000 		.4byte	0x356b
 7730 2778 84270000 		.4byte	0x2784
 7731 277c 27       		.uleb128 0x27
 7732 277d 01       		.uleb128 0x1
 7733 277e 50       		.byte	0x50
 7734 277f 03       		.uleb128 0x3
 7735 2780 74       		.byte	0x74
 7736 2781 F007     		.sleb128 1008
 7737 2783 00       		.byte	0
 7738 2784 2D       		.uleb128 0x2d
 7739 2785 66000000 		.4byte	.LVL208
 7740 2789 00190000 		.4byte	0x1900
 7741 278d 9D270000 		.4byte	0x279d
 7742 2791 27       		.uleb128 0x27
 7743 2792 01       		.uleb128 0x1
 7744 2793 50       		.byte	0x50
 7745 2794 02       		.uleb128 0x2
 7746 2795 74       		.byte	0x74
 7747 2796 00       		.sleb128 0
 7748 2797 27       		.uleb128 0x27
 7749 2798 01       		.uleb128 0x1
 7750 2799 51       		.byte	0x51
 7751 279a 01       		.uleb128 0x1
 7752 279b 30       		.byte	0x30
 7753 279c 00       		.byte	0
 7754 279d 2E       		.uleb128 0x2e
 7755 279e 76000000 		.4byte	.LVL211
 7756 27a2 00190000 		.4byte	0x1900
 7757 27a6 27       		.uleb128 0x27
ARM GAS  C:\Users\Phuong\AppData\Local\Temp\ccP1LXIT.s 			page 156


 7758 27a7 01       		.uleb128 0x1
 7759 27a8 50       		.byte	0x50
 7760 27a9 02       		.uleb128 0x2
 7761 27aa 74       		.byte	0x74
 7762 27ab 00       		.sleb128 0
 7763 27ac 27       		.uleb128 0x27
 7764 27ad 01       		.uleb128 0x1
 7765 27ae 51       		.byte	0x51
 7766 27af 01       		.uleb128 0x1
 7767 27b0 31       		.byte	0x31
 7768 27b1 00       		.byte	0
 7769 27b2 00       		.byte	0
 7770 27b3 00       		.byte	0
 7771 27b4 11       		.uleb128 0x11
 7772 27b5 CB000000 		.4byte	0xcb
 7773 27b9 C4270000 		.4byte	0x27c4
 7774 27bd 12       		.uleb128 0x12
 7775 27be A9000000 		.4byte	0xa9
 7776 27c2 1E       		.byte	0x1e
 7777 27c3 00       		.byte	0
 7778 27c4 07       		.uleb128 0x7
 7779 27c5 B4270000 		.4byte	0x27b4
 7780 27c9 2F       		.uleb128 0x2f
 7781 27ca 69030000 		.4byte	.LASF391
 7782 27ce 01       		.byte	0x1
 7783 27cf 2302     		.2byte	0x223
 7784 27d1 37000000 		.4byte	0x37
 7785 27d5 00000000 		.4byte	.LFB32
 7786 27d9 58000000 		.4byte	.LFE32-.LFB32
 7787 27dd 01       		.uleb128 0x1
 7788 27de 9C       		.byte	0x9c
 7789 27df 68280000 		.4byte	0x2868
 7790 27e3 2B       		.uleb128 0x2b
 7791 27e4 48160000 		.4byte	.LASF386
 7792 27e8 01       		.byte	0x1
 7793 27e9 2302     		.2byte	0x223
 7794 27eb EC130000 		.4byte	0x13ec
 7795 27ef 220D0000 		.4byte	.LLST61
 7796 27f3 2B       		.uleb128 0x2b
 7797 27f4 51050000 		.4byte	.LASF344
 7798 27f8 01       		.byte	0x1
 7799 27f9 2302     		.2byte	0x223
 7800 27fb BB140000 		.4byte	0x14bb
 7801 27ff 900D0000 		.4byte	.LLST62
 7802 2803 2B       		.uleb128 0x2b
 7803 2804 E50B0000 		.4byte	.LASF392
 7804 2808 01       		.byte	0x1
 7805 2809 2302     		.2byte	0x223
 7806 280b B0000000 		.4byte	0xb0
 7807 280f CA0D0000 		.4byte	.LLST63
 7808 2813 30       		.uleb128 0x30
 7809 2814 E5030000 		.4byte	.LASF373
 7810 2818 01       		.byte	0x1
 7811 2819 2502     		.2byte	0x225
 7812 281b 37000000 		.4byte	0x37
 7813 281f 040E0000 		.4byte	.LLST64
 7814 2823 34       		.uleb128 0x34
ARM GAS  C:\Users\Phuong\AppData\Local\Temp\ccP1LXIT.s 			page 157


 7815 2824 38000000 		.4byte	.Ldebug_ranges0+0x38
 7816 2828 30       		.uleb128 0x30
 7817 2829 0B160000 		.4byte	.LASF363
 7818 282d 01       		.byte	0x1
 7819 282e 2D02     		.2byte	0x22d
 7820 2830 FA180000 		.4byte	0x18fa
 7821 2834 230E0000 		.4byte	.LLST65
 7822 2838 2D       		.uleb128 0x2d
 7823 2839 26000000 		.4byte	.LVL216
 7824 283d 77350000 		.4byte	0x3577
 7825 2841 4D280000 		.4byte	0x284d
 7826 2845 27       		.uleb128 0x27
 7827 2846 01       		.uleb128 0x1
 7828 2847 50       		.byte	0x50
 7829 2848 03       		.uleb128 0x3
 7830 2849 74       		.byte	0x74
 7831 284a F007     		.sleb128 1008
 7832 284c 00       		.byte	0
 7833 284d 2E       		.uleb128 0x2e
 7834 284e 30000000 		.4byte	.LVL217
 7835 2852 60350000 		.4byte	0x3560
 7836 2856 27       		.uleb128 0x27
 7837 2857 01       		.uleb128 0x1
 7838 2858 51       		.byte	0x51
 7839 2859 05       		.uleb128 0x5
 7840 285a 03       		.byte	0x3
 7841 285b 00000000 		.4byte	on_underlying_io_close_complete_during_close
 7842 285f 27       		.uleb128 0x27
 7843 2860 01       		.uleb128 0x1
 7844 2861 52       		.byte	0x52
 7845 2862 02       		.uleb128 0x2
 7846 2863 74       		.byte	0x74
 7847 2864 00       		.sleb128 0
 7848 2865 00       		.byte	0
 7849 2866 00       		.byte	0
 7850 2867 00       		.byte	0
 7851 2868 2F       		.uleb128 0x2f
 7852 2869 37030000 		.4byte	.LASF393
 7853 286d 01       		.byte	0x1
 7854 286e 4A02     		.2byte	0x24a
 7855 2870 37000000 		.4byte	0x37
 7856 2874 00000000 		.4byte	.LFB33
 7857 2878 40000000 		.4byte	.LFE33-.LFB33
 7858 287c 01       		.uleb128 0x1
 7859 287d 9C       		.byte	0x9c
 7860 287e 2D290000 		.4byte	0x292d
 7861 2882 2B       		.uleb128 0x2b
 7862 2883 48160000 		.4byte	.LASF386
 7863 2887 01       		.byte	0x1
 7864 2888 4A02     		.2byte	0x24a
 7865 288a EC130000 		.4byte	0x13ec
 7866 288e 6D0E0000 		.4byte	.LLST66
 7867 2892 2B       		.uleb128 0x2b
 7868 2893 0E0A0000 		.4byte	.LASF252
 7869 2897 01       		.byte	0x1
 7870 2898 4A02     		.2byte	0x24a
 7871 289a D0000000 		.4byte	0xd0
ARM GAS  C:\Users\Phuong\AppData\Local\Temp\ccP1LXIT.s 			page 158


 7872 289e CE0E0000 		.4byte	.LLST67
 7873 28a2 2B       		.uleb128 0x2b
 7874 28a3 91120000 		.4byte	.LASF258
 7875 28a7 01       		.byte	0x1
 7876 28a8 4A02     		.2byte	0x24a
 7877 28aa 25000000 		.4byte	0x25
 7878 28ae 080F0000 		.4byte	.LLST68
 7879 28b2 2B       		.uleb128 0x2b
 7880 28b3 BF1C0000 		.4byte	.LASF353
 7881 28b7 01       		.byte	0x1
 7882 28b8 4A02     		.2byte	0x24a
 7883 28ba 79140000 		.4byte	0x1479
 7884 28be 4A0F0000 		.4byte	.LLST69
 7885 28c2 39       		.uleb128 0x39
 7886 28c3 E50B0000 		.4byte	.LASF392
 7887 28c7 01       		.byte	0x1
 7888 28c8 4A02     		.2byte	0x24a
 7889 28ca B0000000 		.4byte	0xb0
 7890 28ce 02       		.uleb128 0x2
 7891 28cf 91       		.byte	0x91
 7892 28d0 00       		.sleb128 0
 7893 28d1 2C       		.uleb128 0x2c
 7894 28d2 E5030000 		.4byte	.LASF373
 7895 28d6 01       		.byte	0x1
 7896 28d7 4C02     		.2byte	0x24c
 7897 28d9 37000000 		.4byte	0x37
 7898 28dd 01       		.uleb128 0x1
 7899 28de 50       		.byte	0x50
 7900 28df 34       		.uleb128 0x34
 7901 28e0 50000000 		.4byte	.Ldebug_ranges0+0x50
 7902 28e4 30       		.uleb128 0x30
 7903 28e5 0B160000 		.4byte	.LASF363
 7904 28e9 01       		.byte	0x1
 7905 28ea 5402     		.2byte	0x254
 7906 28ec FA180000 		.4byte	0x18fa
 7907 28f0 9D0F0000 		.4byte	.LLST70
 7908 28f4 34       		.uleb128 0x34
 7909 28f5 68000000 		.4byte	.Ldebug_ranges0+0x68
 7910 28f9 31       		.uleb128 0x31
 7911 28fa 72657300 		.ascii	"res\000"
 7912 28fe 01       		.byte	0x1
 7913 28ff 5F02     		.2byte	0x25f
 7914 2901 37000000 		.4byte	0x37
 7915 2905 E50F0000 		.4byte	.LLST71
 7916 2909 2E       		.uleb128 0x2e
 7917 290a 24000000 		.4byte	.LVL232
 7918 290e 83350000 		.4byte	0x3583
 7919 2912 27       		.uleb128 0x27
 7920 2913 01       		.uleb128 0x1
 7921 2914 50       		.byte	0x50
 7922 2915 06       		.uleb128 0x6
 7923 2916 F3       		.byte	0xf3
 7924 2917 01       		.uleb128 0x1
 7925 2918 50       		.byte	0x50
 7926 2919 23       		.byte	0x23
 7927 291a F007     		.uleb128 0x3f0
 7928 291c 27       		.uleb128 0x27
ARM GAS  C:\Users\Phuong\AppData\Local\Temp\ccP1LXIT.s 			page 159


 7929 291d 01       		.uleb128 0x1
 7930 291e 51       		.byte	0x51
 7931 291f 03       		.uleb128 0x3
 7932 2920 F3       		.byte	0xf3
 7933 2921 01       		.uleb128 0x1
 7934 2922 51       		.byte	0x51
 7935 2923 27       		.uleb128 0x27
 7936 2924 01       		.uleb128 0x1
 7937 2925 52       		.byte	0x52
 7938 2926 02       		.uleb128 0x2
 7939 2927 74       		.byte	0x74
 7940 2928 00       		.sleb128 0
 7941 2929 00       		.byte	0
 7942 292a 00       		.byte	0
 7943 292b 00       		.byte	0
 7944 292c 00       		.byte	0
 7945 292d 3A       		.uleb128 0x3a
 7946 292e 1B0B0000 		.4byte	.LASF394
 7947 2932 01       		.byte	0x1
 7948 2933 7B       		.byte	0x7b
 7949 2934 37000000 		.4byte	0x37
 7950 2938 00000000 		.4byte	.LFB20
 7951 293c 34000000 		.4byte	.LFE20-.LFB20
 7952 2940 01       		.uleb128 0x1
 7953 2941 9C       		.byte	0x9c
 7954 2942 B3290000 		.4byte	0x29b3
 7955 2946 21       		.uleb128 0x21
 7956 2947 0B160000 		.4byte	.LASF363
 7957 294b 01       		.byte	0x1
 7958 294c 7B       		.byte	0x7b
 7959 294d FA180000 		.4byte	0x18fa
 7960 2951 03100000 		.4byte	.LLST72
 7961 2955 3B       		.uleb128 0x3b
 7962 2956 E5030000 		.4byte	.LASF373
 7963 295a 01       		.byte	0x1
 7964 295b 7D       		.byte	0x7d
 7965 295c 37000000 		.4byte	0x37
 7966 2960 00       		.byte	0
 7967 2961 3C       		.uleb128 0x3c
 7968 2962 0E0A0000 		.4byte	.LASF252
 7969 2966 01       		.byte	0x1
 7970 2967 7E       		.byte	0x7e
 7971 2968 B3290000 		.4byte	0x29b3
 7972 296c 03       		.uleb128 0x3
 7973 296d 91       		.byte	0x91
 7974 296e B07F     		.sleb128 -80
 7975 2970 29       		.uleb128 0x29
 7976 2971 B70D0000 		.4byte	.LASF395
 7977 2975 01       		.byte	0x1
 7978 2976 7F       		.byte	0x7f
 7979 2977 37000000 		.4byte	0x37
 7980 297b 2F100000 		.4byte	.LLST73
 7981 297f 2D       		.uleb128 0x2d
 7982 2980 18000000 		.4byte	.LVL244
 7983 2984 8F350000 		.4byte	0x358f
 7984 2988 A0290000 		.4byte	0x29a0
 7985 298c 27       		.uleb128 0x27
ARM GAS  C:\Users\Phuong\AppData\Local\Temp\ccP1LXIT.s 			page 160


 7986 298d 01       		.uleb128 0x1
 7987 298e 50       		.byte	0x50
 7988 298f 03       		.uleb128 0x3
 7989 2990 75       		.byte	0x75
 7990 2991 F007     		.sleb128 1008
 7991 2993 27       		.uleb128 0x27
 7992 2994 01       		.uleb128 0x1
 7993 2995 51       		.byte	0x51
 7994 2996 02       		.uleb128 0x2
 7995 2997 7D       		.byte	0x7d
 7996 2998 00       		.sleb128 0
 7997 2999 27       		.uleb128 0x27
 7998 299a 01       		.uleb128 0x1
 7999 299b 52       		.byte	0x52
 8000 299c 02       		.uleb128 0x2
 8001 299d 08       		.byte	0x8
 8002 299e 40       		.byte	0x40
 8003 299f 00       		.byte	0
 8004 29a0 3D       		.uleb128 0x3d
 8005 29a1 2A000000 		.4byte	.LVL247
 8006 29a5 27       		.uleb128 0x27
 8007 29a6 01       		.uleb128 0x1
 8008 29a7 51       		.byte	0x51
 8009 29a8 02       		.uleb128 0x2
 8010 29a9 7D       		.byte	0x7d
 8011 29aa 00       		.sleb128 0
 8012 29ab 27       		.uleb128 0x27
 8013 29ac 01       		.uleb128 0x1
 8014 29ad 52       		.byte	0x52
 8015 29ae 02       		.uleb128 0x2
 8016 29af 74       		.byte	0x74
 8017 29b0 00       		.sleb128 0
 8018 29b1 00       		.byte	0
 8019 29b2 00       		.byte	0
 8020 29b3 11       		.uleb128 0x11
 8021 29b4 5E000000 		.4byte	0x5e
 8022 29b8 C3290000 		.4byte	0x29c3
 8023 29bc 12       		.uleb128 0x12
 8024 29bd A9000000 		.4byte	0xa9
 8025 29c1 3F       		.byte	0x3f
 8026 29c2 00       		.byte	0
 8027 29c3 38       		.uleb128 0x38
 8028 29c4 4B0D0000 		.4byte	.LASF397
 8029 29c8 01       		.byte	0x1
 8030 29c9 6D02     		.2byte	0x26d
 8031 29cb 00000000 		.4byte	.LFB34
 8032 29cf 1E000000 		.4byte	.LFE34-.LFB34
 8033 29d3 01       		.uleb128 0x1
 8034 29d4 9C       		.byte	0x9c
 8035 29d5 212A0000 		.4byte	0x2a21
 8036 29d9 2B       		.uleb128 0x2b
 8037 29da 48160000 		.4byte	.LASF386
 8038 29de 01       		.byte	0x1
 8039 29df 6D02     		.2byte	0x26d
 8040 29e1 EC130000 		.4byte	0x13ec
 8041 29e5 6F100000 		.4byte	.LLST74
 8042 29e9 28       		.uleb128 0x28
ARM GAS  C:\Users\Phuong\AppData\Local\Temp\ccP1LXIT.s 			page 161


 8043 29ea 06000000 		.4byte	.LBB34
 8044 29ee 16000000 		.4byte	.LBE34-.LBB34
 8045 29f2 30       		.uleb128 0x30
 8046 29f3 0B160000 		.4byte	.LASF363
 8047 29f7 01       		.byte	0x1
 8048 29f8 7102     		.2byte	0x271
 8049 29fa FA180000 		.4byte	0x18fa
 8050 29fe 9B100000 		.4byte	.LLST75
 8051 2a02 2D       		.uleb128 0x2d
 8052 2a03 16000000 		.4byte	.LVL252
 8053 2a07 2D290000 		.4byte	0x292d
 8054 2a0b 162A0000 		.4byte	0x2a16
 8055 2a0f 27       		.uleb128 0x27
 8056 2a10 01       		.uleb128 0x1
 8057 2a11 50       		.byte	0x50
 8058 2a12 02       		.uleb128 0x2
 8059 2a13 74       		.byte	0x74
 8060 2a14 00       		.sleb128 0
 8061 2a15 00       		.byte	0
 8062 2a16 25       		.uleb128 0x25
 8063 2a17 1C000000 		.4byte	.LVL253
 8064 2a1b BA340000 		.4byte	0x34ba
 8065 2a1f 00       		.byte	0
 8066 2a20 00       		.byte	0
 8067 2a21 2F       		.uleb128 0x2f
 8068 2a22 211C0000 		.4byte	.LASF398
 8069 2a26 01       		.byte	0x1
 8070 2a27 BE02     		.2byte	0x2be
 8071 2a29 C0130000 		.4byte	0x13c0
 8072 2a2d 00000000 		.4byte	.LFB38
 8073 2a31 1C010000 		.4byte	.LFE38-.LFB38
 8074 2a35 01       		.uleb128 0x1
 8075 2a36 9C       		.byte	0x9c
 8076 2a37 B62C0000 		.4byte	0x2cb6
 8077 2a3b 2B       		.uleb128 0x2b
 8078 2a3c 25130000 		.4byte	.LASF399
 8079 2a40 01       		.byte	0x1
 8080 2a41 BE02     		.2byte	0x2be
 8081 2a43 EC130000 		.4byte	0x13ec
 8082 2a47 B9100000 		.4byte	.LLST76
 8083 2a4b 30       		.uleb128 0x30
 8084 2a4c E5030000 		.4byte	.LASF373
 8085 2a50 01       		.byte	0x1
 8086 2a51 C002     		.2byte	0x2c0
 8087 2a53 C0130000 		.4byte	0x13c0
 8088 2a57 46110000 		.4byte	.LLST77
 8089 2a5b 22       		.uleb128 0x22
 8090 2a5c 83010000 		.4byte	.LASF374
 8091 2a60 C62C0000 		.4byte	0x2cc6
 8092 2a64 05       		.uleb128 0x5
 8093 2a65 03       		.byte	0x3
 8094 2a66 CC000000 		.4byte	__func__.9212
 8095 2a6a 23       		.uleb128 0x23
 8096 2a6b 08000000 		.4byte	.LBB35
 8097 2a6f 1E000000 		.4byte	.LBE35-.LBB35
 8098 2a73 CD2A0000 		.4byte	0x2acd
 8099 2a77 31       		.uleb128 0x31
ARM GAS  C:\Users\Phuong\AppData\Local\Temp\ccP1LXIT.s 			page 162


 8100 2a78 6C00     		.ascii	"l\000"
 8101 2a7a 01       		.byte	0x1
 8102 2a7b C302     		.2byte	0x2c3
 8103 2a7d 08170000 		.4byte	0x1708
 8104 2a81 B3110000 		.4byte	.LLST78
 8105 2a85 25       		.uleb128 0x25
 8106 2a86 0C000000 		.4byte	.LVL256
 8107 2a8a C7330000 		.4byte	0x33c7
 8108 2a8e 26       		.uleb128 0x26
 8109 2a8f 26000000 		.4byte	.LVL259
 8110 2a93 02       		.uleb128 0x2
 8111 2a94 74       		.byte	0x74
 8112 2a95 00       		.sleb128 0
 8113 2a96 27       		.uleb128 0x27
 8114 2a97 01       		.uleb128 0x1
 8115 2a98 50       		.byte	0x50
 8116 2a99 01       		.uleb128 0x1
 8117 2a9a 30       		.byte	0x30
 8118 2a9b 27       		.uleb128 0x27
 8119 2a9c 01       		.uleb128 0x1
 8120 2a9d 51       		.byte	0x51
 8121 2a9e 05       		.uleb128 0x5
 8122 2a9f 03       		.byte	0x3
 8123 2aa0 00000000 		.4byte	.LC1
 8124 2aa4 27       		.uleb128 0x27
 8125 2aa5 01       		.uleb128 0x1
 8126 2aa6 52       		.byte	0x52
 8127 2aa7 05       		.uleb128 0x5
 8128 2aa8 03       		.byte	0x3
 8129 2aa9 CC000000 		.4byte	.LANCHOR1+76
 8130 2aad 27       		.uleb128 0x27
 8131 2aae 01       		.uleb128 0x1
 8132 2aaf 53       		.byte	0x53
 8133 2ab0 03       		.uleb128 0x3
 8134 2ab1 0A       		.byte	0xa
 8135 2ab2 C302     		.2byte	0x2c3
 8136 2ab4 27       		.uleb128 0x27
 8137 2ab5 02       		.uleb128 0x2
 8138 2ab6 7D       		.byte	0x7d
 8139 2ab7 00       		.sleb128 0
 8140 2ab8 01       		.uleb128 0x1
 8141 2ab9 31       		.byte	0x31
 8142 2aba 27       		.uleb128 0x27
 8143 2abb 02       		.uleb128 0x2
 8144 2abc 7D       		.byte	0x7d
 8145 2abd 04       		.sleb128 4
 8146 2abe 05       		.uleb128 0x5
 8147 2abf 03       		.byte	0x3
 8148 2ac0 50010000 		.4byte	.LC52
 8149 2ac4 27       		.uleb128 0x27
 8150 2ac5 02       		.uleb128 0x2
 8151 2ac6 7D       		.byte	0x7d
 8152 2ac7 08       		.sleb128 8
 8153 2ac8 02       		.uleb128 0x2
 8154 2ac9 75       		.byte	0x75
 8155 2aca 00       		.sleb128 0
 8156 2acb 00       		.byte	0
ARM GAS  C:\Users\Phuong\AppData\Local\Temp\ccP1LXIT.s 			page 163


 8157 2acc 00       		.byte	0
 8158 2acd 23       		.uleb128 0x23
 8159 2ace 38000000 		.4byte	.LBB36
 8160 2ad2 1E000000 		.4byte	.LBE36-.LBB36
 8161 2ad6 292B0000 		.4byte	0x2b29
 8162 2ada 31       		.uleb128 0x31
 8163 2adb 6C00     		.ascii	"l\000"
 8164 2add 01       		.byte	0x1
 8165 2ade CB02     		.2byte	0x2cb
 8166 2ae0 08170000 		.4byte	0x1708
 8167 2ae4 DC110000 		.4byte	.LLST79
 8168 2ae8 25       		.uleb128 0x25
 8169 2ae9 3C000000 		.4byte	.LVL265
 8170 2aed C7330000 		.4byte	0x33c7
 8171 2af1 26       		.uleb128 0x26
 8172 2af2 54000000 		.4byte	.LVL268
 8173 2af6 02       		.uleb128 0x2
 8174 2af7 75       		.byte	0x75
 8175 2af8 00       		.sleb128 0
 8176 2af9 27       		.uleb128 0x27
 8177 2afa 01       		.uleb128 0x1
 8178 2afb 50       		.byte	0x50
 8179 2afc 01       		.uleb128 0x1
 8180 2afd 30       		.byte	0x30
 8181 2afe 27       		.uleb128 0x27
 8182 2aff 01       		.uleb128 0x1
 8183 2b00 51       		.byte	0x51
 8184 2b01 05       		.uleb128 0x5
 8185 2b02 03       		.byte	0x3
 8186 2b03 00000000 		.4byte	.LC1
 8187 2b07 27       		.uleb128 0x27
 8188 2b08 01       		.uleb128 0x1
 8189 2b09 52       		.byte	0x52
 8190 2b0a 05       		.uleb128 0x5
 8191 2b0b 03       		.byte	0x3
 8192 2b0c CC000000 		.4byte	.LANCHOR1+76
 8193 2b10 27       		.uleb128 0x27
 8194 2b11 01       		.uleb128 0x1
 8195 2b12 53       		.byte	0x53
 8196 2b13 03       		.uleb128 0x3
 8197 2b14 0A       		.byte	0xa
 8198 2b15 CB02     		.2byte	0x2cb
 8199 2b17 27       		.uleb128 0x27
 8200 2b18 02       		.uleb128 0x2
 8201 2b19 7D       		.byte	0x7d
 8202 2b1a 00       		.sleb128 0
 8203 2b1b 01       		.uleb128 0x1
 8204 2b1c 31       		.byte	0x31
 8205 2b1d 27       		.uleb128 0x27
 8206 2b1e 02       		.uleb128 0x2
 8207 2b1f 7D       		.byte	0x7d
 8208 2b20 04       		.sleb128 4
 8209 2b21 05       		.uleb128 0x5
 8210 2b22 03       		.byte	0x3
 8211 2b23 8C010000 		.4byte	.LC57
 8212 2b27 00       		.byte	0
 8213 2b28 00       		.byte	0
ARM GAS  C:\Users\Phuong\AppData\Local\Temp\ccP1LXIT.s 			page 164


 8214 2b29 23       		.uleb128 0x23
 8215 2b2a 56000000 		.4byte	.LBB37
 8216 2b2e 80000000 		.4byte	.LBE37-.LBB37
 8217 2b32 902C0000 		.4byte	0x2c90
 8218 2b36 30       		.uleb128 0x30
 8219 2b37 0B160000 		.4byte	.LASF363
 8220 2b3b 01       		.byte	0x1
 8221 2b3c D102     		.2byte	0x2d1
 8222 2b3e FA180000 		.4byte	0x18fa
 8223 2b42 FA110000 		.4byte	.LLST80
 8224 2b46 30       		.uleb128 0x30
 8225 2b47 F90A0000 		.4byte	.LASF400
 8226 2b4b 01       		.byte	0x1
 8227 2b4c D202     		.2byte	0x2d2
 8228 2b4e C0130000 		.4byte	0x13c0
 8229 2b52 34120000 		.4byte	.LLST81
 8230 2b56 23       		.uleb128 0x23
 8231 2b57 6E000000 		.4byte	.LBB38
 8232 2b5b 1C000000 		.4byte	.LBE38-.LBB38
 8233 2b5f B22B0000 		.4byte	0x2bb2
 8234 2b63 31       		.uleb128 0x31
 8235 2b64 6C00     		.ascii	"l\000"
 8236 2b66 01       		.byte	0x1
 8237 2b67 D702     		.2byte	0x2d7
 8238 2b69 08170000 		.4byte	0x1708
 8239 2b6d 5D120000 		.4byte	.LLST82
 8240 2b71 25       		.uleb128 0x25
 8241 2b72 72000000 		.4byte	.LVL275
 8242 2b76 C7330000 		.4byte	0x33c7
 8243 2b7a 26       		.uleb128 0x26
 8244 2b7b 8A000000 		.4byte	.LVL278
 8245 2b7f 02       		.uleb128 0x2
 8246 2b80 75       		.byte	0x75
 8247 2b81 00       		.sleb128 0
 8248 2b82 27       		.uleb128 0x27
 8249 2b83 01       		.uleb128 0x1
 8250 2b84 50       		.byte	0x50
 8251 2b85 01       		.uleb128 0x1
 8252 2b86 30       		.byte	0x30
 8253 2b87 27       		.uleb128 0x27
 8254 2b88 01       		.uleb128 0x1
 8255 2b89 51       		.byte	0x51
 8256 2b8a 05       		.uleb128 0x5
 8257 2b8b 03       		.byte	0x3
 8258 2b8c 00000000 		.4byte	.LC1
 8259 2b90 27       		.uleb128 0x27
 8260 2b91 01       		.uleb128 0x1
 8261 2b92 52       		.byte	0x52
 8262 2b93 05       		.uleb128 0x5
 8263 2b94 03       		.byte	0x3
 8264 2b95 CC000000 		.4byte	.LANCHOR1+76
 8265 2b99 27       		.uleb128 0x27
 8266 2b9a 01       		.uleb128 0x1
 8267 2b9b 53       		.byte	0x53
 8268 2b9c 03       		.uleb128 0x3
 8269 2b9d 0A       		.byte	0xa
 8270 2b9e D702     		.2byte	0x2d7
ARM GAS  C:\Users\Phuong\AppData\Local\Temp\ccP1LXIT.s 			page 165


 8271 2ba0 27       		.uleb128 0x27
 8272 2ba1 02       		.uleb128 0x2
 8273 2ba2 7D       		.byte	0x7d
 8274 2ba3 00       		.sleb128 0
 8275 2ba4 01       		.uleb128 0x1
 8276 2ba5 31       		.byte	0x31
 8277 2ba6 27       		.uleb128 0x27
 8278 2ba7 02       		.uleb128 0x2
 8279 2ba8 7D       		.byte	0x7d
 8280 2ba9 04       		.sleb128 4
 8281 2baa 05       		.uleb128 0x5
 8282 2bab 03       		.byte	0x3
 8283 2bac C4010000 		.4byte	.LC61
 8284 2bb0 00       		.byte	0
 8285 2bb1 00       		.byte	0
 8286 2bb2 23       		.uleb128 0x23
 8287 2bb3 B0000000 		.4byte	.LBB39
 8288 2bb7 1C000000 		.4byte	.LBE39-.LBB39
 8289 2bbb 0E2C0000 		.4byte	0x2c0e
 8290 2bbf 31       		.uleb128 0x31
 8291 2bc0 6C00     		.ascii	"l\000"
 8292 2bc2 01       		.byte	0x1
 8293 2bc3 DF02     		.2byte	0x2df
 8294 2bc5 08170000 		.4byte	0x1708
 8295 2bc9 7B120000 		.4byte	.LLST83
 8296 2bcd 25       		.uleb128 0x25
 8297 2bce B4000000 		.4byte	.LVL283
 8298 2bd2 C7330000 		.4byte	0x33c7
 8299 2bd6 26       		.uleb128 0x26
 8300 2bd7 CC000000 		.4byte	.LVL286
 8301 2bdb 02       		.uleb128 0x2
 8302 2bdc 75       		.byte	0x75
 8303 2bdd 00       		.sleb128 0
 8304 2bde 27       		.uleb128 0x27
 8305 2bdf 01       		.uleb128 0x1
 8306 2be0 50       		.byte	0x50
 8307 2be1 01       		.uleb128 0x1
 8308 2be2 30       		.byte	0x30
 8309 2be3 27       		.uleb128 0x27
 8310 2be4 01       		.uleb128 0x1
 8311 2be5 51       		.byte	0x51
 8312 2be6 05       		.uleb128 0x5
 8313 2be7 03       		.byte	0x3
 8314 2be8 00000000 		.4byte	.LC1
 8315 2bec 27       		.uleb128 0x27
 8316 2bed 01       		.uleb128 0x1
 8317 2bee 52       		.byte	0x52
 8318 2bef 05       		.uleb128 0x5
 8319 2bf0 03       		.byte	0x3
 8320 2bf1 CC000000 		.4byte	.LANCHOR1+76
 8321 2bf5 27       		.uleb128 0x27
 8322 2bf6 01       		.uleb128 0x1
 8323 2bf7 53       		.byte	0x53
 8324 2bf8 03       		.uleb128 0x3
 8325 2bf9 0A       		.byte	0xa
 8326 2bfa DF02     		.2byte	0x2df
 8327 2bfc 27       		.uleb128 0x27
ARM GAS  C:\Users\Phuong\AppData\Local\Temp\ccP1LXIT.s 			page 166


 8328 2bfd 02       		.uleb128 0x2
 8329 2bfe 7D       		.byte	0x7d
 8330 2bff 00       		.sleb128 0
 8331 2c00 01       		.uleb128 0x1
 8332 2c01 31       		.byte	0x31
 8333 2c02 27       		.uleb128 0x27
 8334 2c03 02       		.uleb128 0x2
 8335 2c04 7D       		.byte	0x7d
 8336 2c05 04       		.sleb128 4
 8337 2c06 05       		.uleb128 0x5
 8338 2c07 03       		.byte	0x3
 8339 2c08 FC010000 		.4byte	.LC65
 8340 2c0c 00       		.byte	0
 8341 2c0d 00       		.byte	0
 8342 2c0e 25       		.uleb128 0x25
 8343 2c0f 5C000000 		.4byte	.LVL271
 8344 2c13 9B350000 		.4byte	0x359b
 8345 2c17 2D       		.uleb128 0x2d
 8346 2c18 6A000000 		.4byte	.LVL274
 8347 2c1c A6350000 		.4byte	0x35a6
 8348 2c20 3A2C0000 		.4byte	0x2c3a
 8349 2c24 27       		.uleb128 0x27
 8350 2c25 01       		.uleb128 0x1
 8351 2c26 50       		.byte	0x50
 8352 2c27 02       		.uleb128 0x2
 8353 2c28 74       		.byte	0x74
 8354 2c29 00       		.sleb128 0
 8355 2c2a 27       		.uleb128 0x27
 8356 2c2b 01       		.uleb128 0x1
 8357 2c2c 51       		.byte	0x51
 8358 2c2d 05       		.uleb128 0x5
 8359 2c2e 03       		.byte	0x3
 8360 2c2f AC010000 		.4byte	.LC59
 8361 2c33 27       		.uleb128 0x27
 8362 2c34 01       		.uleb128 0x1
 8363 2c35 52       		.byte	0x52
 8364 2c36 02       		.uleb128 0x2
 8365 2c37 76       		.byte	0x76
 8366 2c38 00       		.sleb128 0
 8367 2c39 00       		.byte	0
 8368 2c3a 2D       		.uleb128 0x2d
 8369 2c3b 90000000 		.4byte	.LVL279
 8370 2c3f B1350000 		.4byte	0x35b1
 8371 2c43 4E2C0000 		.4byte	0x2c4e
 8372 2c47 27       		.uleb128 0x27
 8373 2c48 01       		.uleb128 0x1
 8374 2c49 50       		.byte	0x50
 8375 2c4a 02       		.uleb128 0x2
 8376 2c4b 76       		.byte	0x76
 8377 2c4c 00       		.sleb128 0
 8378 2c4d 00       		.byte	0
 8379 2c4e 2D       		.uleb128 0x2d
 8380 2c4f 96000000 		.4byte	.LVL280
 8381 2c53 B1350000 		.4byte	0x35b1
 8382 2c57 622C0000 		.4byte	0x2c62
 8383 2c5b 27       		.uleb128 0x27
 8384 2c5c 01       		.uleb128 0x1
ARM GAS  C:\Users\Phuong\AppData\Local\Temp\ccP1LXIT.s 			page 167


 8385 2c5d 50       		.byte	0x50
 8386 2c5e 02       		.uleb128 0x2
 8387 2c5f 74       		.byte	0x74
 8388 2c60 00       		.sleb128 0
 8389 2c61 00       		.byte	0
 8390 2c62 2D       		.uleb128 0x2d
 8391 2c63 AC000000 		.4byte	.LVL282
 8392 2c67 A6350000 		.4byte	0x35a6
 8393 2c6b 7F2C0000 		.4byte	0x2c7f
 8394 2c6f 27       		.uleb128 0x27
 8395 2c70 01       		.uleb128 0x1
 8396 2c71 50       		.byte	0x50
 8397 2c72 02       		.uleb128 0x2
 8398 2c73 74       		.byte	0x74
 8399 2c74 00       		.sleb128 0
 8400 2c75 27       		.uleb128 0x27
 8401 2c76 01       		.uleb128 0x1
 8402 2c77 51       		.byte	0x51
 8403 2c78 05       		.uleb128 0x5
 8404 2c79 03       		.byte	0x3
 8405 2c7a EC010000 		.4byte	.LC63
 8406 2c7e 00       		.byte	0
 8407 2c7f 2E       		.uleb128 0x2e
 8408 2c80 D2000000 		.4byte	.LVL287
 8409 2c84 B1350000 		.4byte	0x35b1
 8410 2c88 27       		.uleb128 0x27
 8411 2c89 01       		.uleb128 0x1
 8412 2c8a 50       		.byte	0x50
 8413 2c8b 02       		.uleb128 0x2
 8414 2c8c 74       		.byte	0x74
 8415 2c8d 00       		.sleb128 0
 8416 2c8e 00       		.byte	0
 8417 2c8f 00       		.byte	0
 8418 2c90 2E       		.uleb128 0x2e
 8419 2c91 34000000 		.4byte	.LVL263
 8420 2c95 BC350000 		.4byte	0x35bc
 8421 2c99 27       		.uleb128 0x27
 8422 2c9a 01       		.uleb128 0x1
 8423 2c9b 50       		.byte	0x50
 8424 2c9c 05       		.uleb128 0x5
 8425 2c9d 03       		.byte	0x3
 8426 2c9e 00000000 		.4byte	tlsio_mbedtls_CloneOption
 8427 2ca2 27       		.uleb128 0x27
 8428 2ca3 01       		.uleb128 0x1
 8429 2ca4 51       		.byte	0x51
 8430 2ca5 05       		.uleb128 0x5
 8431 2ca6 03       		.byte	0x3
 8432 2ca7 00000000 		.4byte	tlsio_mbedtls_DestroyOption
 8433 2cab 27       		.uleb128 0x27
 8434 2cac 01       		.uleb128 0x1
 8435 2cad 52       		.byte	0x52
 8436 2cae 05       		.uleb128 0x5
 8437 2caf 03       		.byte	0x3
 8438 2cb0 00000000 		.4byte	tlsio_mbedtls_setoption
 8439 2cb4 00       		.byte	0
 8440 2cb5 00       		.byte	0
 8441 2cb6 11       		.uleb128 0x11
ARM GAS  C:\Users\Phuong\AppData\Local\Temp\ccP1LXIT.s 			page 168


 8442 2cb7 CB000000 		.4byte	0xcb
 8443 2cbb C62C0000 		.4byte	0x2cc6
 8444 2cbf 12       		.uleb128 0x12
 8445 2cc0 A9000000 		.4byte	0xa9
 8446 2cc4 1D       		.byte	0x1d
 8447 2cc5 00       		.byte	0
 8448 2cc6 07       		.uleb128 0x7
 8449 2cc7 B62C0000 		.4byte	0x2cb6
 8450 2ccb 2A       		.uleb128 0x2a
 8451 2ccc 05100000 		.4byte	.LASF401
 8452 2cd0 01       		.byte	0x1
 8453 2cd1 A602     		.2byte	0x2a6
 8454 2cd3 00000000 		.4byte	.LFB37
 8455 2cd7 9C000000 		.4byte	.LFE37-.LFB37
 8456 2cdb 01       		.uleb128 0x1
 8457 2cdc 9C       		.byte	0x9c
 8458 2cdd 362E0000 		.4byte	0x2e36
 8459 2ce1 2B       		.uleb128 0x2b
 8460 2ce2 30180000 		.4byte	.LASF402
 8461 2ce6 01       		.byte	0x1
 8462 2ce7 A602     		.2byte	0x2a6
 8463 2ce9 C5000000 		.4byte	0xc5
 8464 2ced 99120000 		.4byte	.LLST84
 8465 2cf1 2B       		.uleb128 0x2b
 8466 2cf2 51080000 		.4byte	.LASF403
 8467 2cf6 01       		.byte	0x1
 8468 2cf7 A602     		.2byte	0x2a6
 8469 2cf9 D0000000 		.4byte	0xd0
 8470 2cfd DB120000 		.4byte	.LLST85
 8471 2d01 22       		.uleb128 0x22
 8472 2d02 83010000 		.4byte	.LASF374
 8473 2d06 462E0000 		.4byte	0x2e46
 8474 2d0a 05       		.uleb128 0x5
 8475 2d0b 03       		.byte	0x3
 8476 2d0c EC000000 		.4byte	__func__.9201
 8477 2d10 23       		.uleb128 0x23
 8478 2d11 10000000 		.4byte	.LBB40
 8479 2d15 22000000 		.4byte	.LBE40-.LBB40
 8480 2d19 7A2D0000 		.4byte	0x2d7a
 8481 2d1d 31       		.uleb128 0x31
 8482 2d1e 6C00     		.ascii	"l\000"
 8483 2d20 01       		.byte	0x1
 8484 2d21 AB02     		.2byte	0x2ab
 8485 2d23 08170000 		.4byte	0x1708
 8486 2d27 1D130000 		.4byte	.LLST86
 8487 2d2b 25       		.uleb128 0x25
 8488 2d2c 14000000 		.4byte	.LVL292
 8489 2d30 C7330000 		.4byte	0x33c7
 8490 2d34 26       		.uleb128 0x26
 8491 2d35 30000000 		.4byte	.LVL295
 8492 2d39 02       		.uleb128 0x2
 8493 2d3a 76       		.byte	0x76
 8494 2d3b 00       		.sleb128 0
 8495 2d3c 27       		.uleb128 0x27
 8496 2d3d 01       		.uleb128 0x1
 8497 2d3e 50       		.byte	0x50
 8498 2d3f 01       		.uleb128 0x1
ARM GAS  C:\Users\Phuong\AppData\Local\Temp\ccP1LXIT.s 			page 169


 8499 2d40 30       		.byte	0x30
 8500 2d41 27       		.uleb128 0x27
 8501 2d42 01       		.uleb128 0x1
 8502 2d43 51       		.byte	0x51
 8503 2d44 05       		.uleb128 0x5
 8504 2d45 03       		.byte	0x3
 8505 2d46 00000000 		.4byte	.LC1
 8506 2d4a 27       		.uleb128 0x27
 8507 2d4b 01       		.uleb128 0x1
 8508 2d4c 52       		.byte	0x52
 8509 2d4d 05       		.uleb128 0x5
 8510 2d4e 03       		.byte	0x3
 8511 2d4f EC000000 		.4byte	.LANCHOR1+108
 8512 2d53 27       		.uleb128 0x27
 8513 2d54 01       		.uleb128 0x1
 8514 2d55 53       		.byte	0x53
 8515 2d56 03       		.uleb128 0x3
 8516 2d57 0A       		.byte	0xa
 8517 2d58 AB02     		.2byte	0x2ab
 8518 2d5a 27       		.uleb128 0x27
 8519 2d5b 02       		.uleb128 0x2
 8520 2d5c 7D       		.byte	0x7d
 8521 2d5d 00       		.sleb128 0
 8522 2d5e 01       		.uleb128 0x1
 8523 2d5f 31       		.byte	0x31
 8524 2d60 27       		.uleb128 0x27
 8525 2d61 02       		.uleb128 0x2
 8526 2d62 7D       		.byte	0x7d
 8527 2d63 04       		.sleb128 4
 8528 2d64 05       		.uleb128 0x5
 8529 2d65 03       		.byte	0x3
 8530 2d66 20020000 		.4byte	.LC69
 8531 2d6a 27       		.uleb128 0x27
 8532 2d6b 02       		.uleb128 0x2
 8533 2d6c 7D       		.byte	0x7d
 8534 2d6d 08       		.sleb128 8
 8535 2d6e 02       		.uleb128 0x2
 8536 2d6f 74       		.byte	0x74
 8537 2d70 00       		.sleb128 0
 8538 2d71 27       		.uleb128 0x27
 8539 2d72 02       		.uleb128 0x2
 8540 2d73 7D       		.byte	0x7d
 8541 2d74 0C       		.sleb128 12
 8542 2d75 02       		.uleb128 0x2
 8543 2d76 75       		.byte	0x75
 8544 2d77 00       		.sleb128 0
 8545 2d78 00       		.byte	0
 8546 2d79 00       		.byte	0
 8547 2d7a 23       		.uleb128 0x23
 8548 2d7b 58000000 		.4byte	.LBB41
 8549 2d7f 1E000000 		.4byte	.LBE41-.LBB41
 8550 2d83 DD2D0000 		.4byte	0x2ddd
 8551 2d87 31       		.uleb128 0x31
 8552 2d88 6C00     		.ascii	"l\000"
 8553 2d8a 01       		.byte	0x1
 8554 2d8b B902     		.2byte	0x2b9
 8555 2d8d 08170000 		.4byte	0x1708
ARM GAS  C:\Users\Phuong\AppData\Local\Temp\ccP1LXIT.s 			page 170


 8556 2d91 3B130000 		.4byte	.LLST87
 8557 2d95 25       		.uleb128 0x25
 8558 2d96 5C000000 		.4byte	.LVL302
 8559 2d9a C7330000 		.4byte	0x33c7
 8560 2d9e 26       		.uleb128 0x26
 8561 2d9f 76000000 		.4byte	.LVL305
 8562 2da3 02       		.uleb128 0x2
 8563 2da4 75       		.byte	0x75
 8564 2da5 00       		.sleb128 0
 8565 2da6 27       		.uleb128 0x27
 8566 2da7 01       		.uleb128 0x1
 8567 2da8 50       		.byte	0x50
 8568 2da9 01       		.uleb128 0x1
 8569 2daa 30       		.byte	0x30
 8570 2dab 27       		.uleb128 0x27
 8571 2dac 01       		.uleb128 0x1
 8572 2dad 51       		.byte	0x51
 8573 2dae 05       		.uleb128 0x5
 8574 2daf 03       		.byte	0x3
 8575 2db0 00000000 		.4byte	.LC1
 8576 2db4 27       		.uleb128 0x27
 8577 2db5 01       		.uleb128 0x1
 8578 2db6 52       		.byte	0x52
 8579 2db7 05       		.uleb128 0x5
 8580 2db8 03       		.byte	0x3
 8581 2db9 EC000000 		.4byte	.LANCHOR1+108
 8582 2dbd 27       		.uleb128 0x27
 8583 2dbe 01       		.uleb128 0x1
 8584 2dbf 53       		.byte	0x53
 8585 2dc0 03       		.uleb128 0x3
 8586 2dc1 0A       		.byte	0xa
 8587 2dc2 B902     		.2byte	0x2b9
 8588 2dc4 27       		.uleb128 0x27
 8589 2dc5 02       		.uleb128 0x2
 8590 2dc6 7D       		.byte	0x7d
 8591 2dc7 00       		.sleb128 0
 8592 2dc8 01       		.uleb128 0x1
 8593 2dc9 31       		.byte	0x31
 8594 2dca 27       		.uleb128 0x27
 8595 2dcb 02       		.uleb128 0x2
 8596 2dcc 7D       		.byte	0x7d
 8597 2dcd 04       		.sleb128 4
 8598 2dce 05       		.uleb128 0x5
 8599 2dcf 03       		.byte	0x3
 8600 2dd0 68020000 		.4byte	.LC73
 8601 2dd4 27       		.uleb128 0x27
 8602 2dd5 02       		.uleb128 0x2
 8603 2dd6 7D       		.byte	0x7d
 8604 2dd7 08       		.sleb128 8
 8605 2dd8 02       		.uleb128 0x2
 8606 2dd9 74       		.byte	0x74
 8607 2dda 00       		.sleb128 0
 8608 2ddb 00       		.byte	0
 8609 2ddc 00       		.byte	0
 8610 2ddd 2D       		.uleb128 0x2d
 8611 2dde 38000000 		.4byte	.LVL298
 8612 2de2 C7350000 		.4byte	0x35c7
ARM GAS  C:\Users\Phuong\AppData\Local\Temp\ccP1LXIT.s 			page 171


 8613 2de6 F42D0000 		.4byte	0x2df4
 8614 2dea 27       		.uleb128 0x27
 8615 2deb 01       		.uleb128 0x1
 8616 2dec 51       		.byte	0x51
 8617 2ded 05       		.uleb128 0x5
 8618 2dee 03       		.byte	0x3
 8619 2def EC010000 		.4byte	.LC63
 8620 2df3 00       		.byte	0
 8621 2df4 2D       		.uleb128 0x2d
 8622 2df5 42000000 		.4byte	.LVL299
 8623 2df9 99340000 		.4byte	0x3499
 8624 2dfd 082E0000 		.4byte	0x2e08
 8625 2e01 27       		.uleb128 0x27
 8626 2e02 01       		.uleb128 0x1
 8627 2e03 50       		.byte	0x50
 8628 2e04 02       		.uleb128 0x2
 8629 2e05 75       		.byte	0x75
 8630 2e06 00       		.sleb128 0
 8631 2e07 00       		.byte	0
 8632 2e08 2D       		.uleb128 0x2d
 8633 2e09 4C000000 		.4byte	.LVL300
 8634 2e0d C7350000 		.4byte	0x35c7
 8635 2e11 252E0000 		.4byte	0x2e25
 8636 2e15 27       		.uleb128 0x27
 8637 2e16 01       		.uleb128 0x1
 8638 2e17 50       		.byte	0x50
 8639 2e18 02       		.uleb128 0x2
 8640 2e19 74       		.byte	0x74
 8641 2e1a 00       		.sleb128 0
 8642 2e1b 27       		.uleb128 0x27
 8643 2e1c 01       		.uleb128 0x1
 8644 2e1d 51       		.byte	0x51
 8645 2e1e 05       		.uleb128 0x5
 8646 2e1f 03       		.byte	0x3
 8647 2e20 AC010000 		.4byte	.LC59
 8648 2e24 00       		.byte	0
 8649 2e25 2E       		.uleb128 0x2e
 8650 2e26 56000000 		.4byte	.LVL301
 8651 2e2a B1350000 		.4byte	0x35b1
 8652 2e2e 27       		.uleb128 0x27
 8653 2e2f 01       		.uleb128 0x1
 8654 2e30 50       		.byte	0x50
 8655 2e31 02       		.uleb128 0x2
 8656 2e32 75       		.byte	0x75
 8657 2e33 00       		.sleb128 0
 8658 2e34 00       		.byte	0
 8659 2e35 00       		.byte	0
 8660 2e36 11       		.uleb128 0x11
 8661 2e37 CB000000 		.4byte	0xcb
 8662 2e3b 462E0000 		.4byte	0x2e46
 8663 2e3f 12       		.uleb128 0x12
 8664 2e40 A9000000 		.4byte	0xa9
 8665 2e44 1B       		.byte	0x1b
 8666 2e45 00       		.byte	0
 8667 2e46 07       		.uleb128 0x7
 8668 2e47 362E0000 		.4byte	0x2e36
 8669 2e4b 32       		.uleb128 0x32
ARM GAS  C:\Users\Phuong\AppData\Local\Temp\ccP1LXIT.s 			page 172


 8670 2e4c 73180000 		.4byte	.LASF404
 8671 2e50 01       		.byte	0x1
 8672 2e51 8202     		.2byte	0x282
 8673 2e53 B0000000 		.4byte	0xb0
 8674 2e57 00000000 		.4byte	.LFB36
 8675 2e5b CC000000 		.4byte	.LFE36-.LFB36
 8676 2e5f 01       		.uleb128 0x1
 8677 2e60 9C       		.byte	0x9c
 8678 2e61 17300000 		.4byte	0x3017
 8679 2e65 2B       		.uleb128 0x2b
 8680 2e66 30180000 		.4byte	.LASF402
 8681 2e6a 01       		.byte	0x1
 8682 2e6b 8202     		.2byte	0x282
 8683 2e6d C5000000 		.4byte	0xc5
 8684 2e71 59130000 		.4byte	.LLST88
 8685 2e75 2B       		.uleb128 0x2b
 8686 2e76 51080000 		.4byte	.LASF403
 8687 2e7a 01       		.byte	0x1
 8688 2e7b 8202     		.2byte	0x282
 8689 2e7d D0000000 		.4byte	0xd0
 8690 2e81 B4130000 		.4byte	.LLST89
 8691 2e85 2C       		.uleb128 0x2c
 8692 2e86 E5030000 		.4byte	.LASF373
 8693 2e8a 01       		.byte	0x1
 8694 2e8b 8402     		.2byte	0x284
 8695 2e8d B0000000 		.4byte	0xb0
 8696 2e91 02       		.uleb128 0x2
 8697 2e92 91       		.byte	0x91
 8698 2e93 6C       		.sleb128 -20
 8699 2e94 22       		.uleb128 0x22
 8700 2e95 83010000 		.4byte	.LASF374
 8701 2e99 27300000 		.4byte	0x3027
 8702 2e9d 05       		.uleb128 0x5
 8703 2e9e 03       		.byte	0x3
 8704 2e9f 08010000 		.4byte	__func__.9187
 8705 2ea3 23       		.uleb128 0x23
 8706 2ea4 10000000 		.4byte	.LBB42
 8707 2ea8 20000000 		.4byte	.LBE42-.LBB42
 8708 2eac 0D2F0000 		.4byte	0x2f0d
 8709 2eb0 31       		.uleb128 0x31
 8710 2eb1 6C00     		.ascii	"l\000"
 8711 2eb3 01       		.byte	0x1
 8712 2eb4 8702     		.2byte	0x287
 8713 2eb6 08170000 		.4byte	0x1708
 8714 2eba F6130000 		.4byte	.LLST90
 8715 2ebe 25       		.uleb128 0x25
 8716 2ebf 14000000 		.4byte	.LVL308
 8717 2ec3 C7330000 		.4byte	0x33c7
 8718 2ec7 26       		.uleb128 0x26
 8719 2ec8 30000000 		.4byte	.LVL311
 8720 2ecc 02       		.uleb128 0x2
 8721 2ecd 76       		.byte	0x76
 8722 2ece 00       		.sleb128 0
 8723 2ecf 27       		.uleb128 0x27
 8724 2ed0 01       		.uleb128 0x1
 8725 2ed1 50       		.byte	0x50
 8726 2ed2 01       		.uleb128 0x1
ARM GAS  C:\Users\Phuong\AppData\Local\Temp\ccP1LXIT.s 			page 173


 8727 2ed3 30       		.byte	0x30
 8728 2ed4 27       		.uleb128 0x27
 8729 2ed5 01       		.uleb128 0x1
 8730 2ed6 51       		.byte	0x51
 8731 2ed7 05       		.uleb128 0x5
 8732 2ed8 03       		.byte	0x3
 8733 2ed9 00000000 		.4byte	.LC1
 8734 2edd 27       		.uleb128 0x27
 8735 2ede 01       		.uleb128 0x1
 8736 2edf 52       		.byte	0x52
 8737 2ee0 05       		.uleb128 0x5
 8738 2ee1 03       		.byte	0x3
 8739 2ee2 08010000 		.4byte	.LANCHOR2+8
 8740 2ee6 27       		.uleb128 0x27
 8741 2ee7 01       		.uleb128 0x1
 8742 2ee8 53       		.byte	0x53
 8743 2ee9 03       		.uleb128 0x3
 8744 2eea 0A       		.byte	0xa
 8745 2eeb 8702     		.2byte	0x287
 8746 2eed 27       		.uleb128 0x27
 8747 2eee 02       		.uleb128 0x2
 8748 2eef 7D       		.byte	0x7d
 8749 2ef0 00       		.sleb128 0
 8750 2ef1 01       		.uleb128 0x1
 8751 2ef2 31       		.byte	0x31
 8752 2ef3 27       		.uleb128 0x27
 8753 2ef4 02       		.uleb128 0x2
 8754 2ef5 7D       		.byte	0x7d
 8755 2ef6 04       		.sleb128 4
 8756 2ef7 05       		.uleb128 0x5
 8757 2ef8 03       		.byte	0x3
 8758 2ef9 20020000 		.4byte	.LC69
 8759 2efd 27       		.uleb128 0x27
 8760 2efe 02       		.uleb128 0x2
 8761 2eff 7D       		.byte	0x7d
 8762 2f00 08       		.sleb128 8
 8763 2f01 02       		.uleb128 0x2
 8764 2f02 74       		.byte	0x74
 8765 2f03 00       		.sleb128 0
 8766 2f04 27       		.uleb128 0x27
 8767 2f05 02       		.uleb128 0x2
 8768 2f06 7D       		.byte	0x7d
 8769 2f07 0C       		.sleb128 12
 8770 2f08 02       		.uleb128 0x2
 8771 2f09 75       		.byte	0x75
 8772 2f0a 00       		.sleb128 0
 8773 2f0b 00       		.byte	0
 8774 2f0c 00       		.byte	0
 8775 2f0d 23       		.uleb128 0x23
 8776 2f0e 5C000000 		.4byte	.LBB43
 8777 2f12 1E000000 		.4byte	.LBE43-.LBB43
 8778 2f16 692F0000 		.4byte	0x2f69
 8779 2f1a 31       		.uleb128 0x31
 8780 2f1b 6C00     		.ascii	"l\000"
 8781 2f1d 01       		.byte	0x1
 8782 2f1e 9402     		.2byte	0x294
 8783 2f20 08170000 		.4byte	0x1708
ARM GAS  C:\Users\Phuong\AppData\Local\Temp\ccP1LXIT.s 			page 174


 8784 2f24 14140000 		.4byte	.LLST91
 8785 2f28 25       		.uleb128 0x25
 8786 2f29 60000000 		.4byte	.LVL317
 8787 2f2d C7330000 		.4byte	0x33c7
 8788 2f31 26       		.uleb128 0x26
 8789 2f32 7A000000 		.4byte	.LVL320
 8790 2f36 02       		.uleb128 0x2
 8791 2f37 74       		.byte	0x74
 8792 2f38 00       		.sleb128 0
 8793 2f39 27       		.uleb128 0x27
 8794 2f3a 01       		.uleb128 0x1
 8795 2f3b 50       		.byte	0x50
 8796 2f3c 01       		.uleb128 0x1
 8797 2f3d 30       		.byte	0x30
 8798 2f3e 27       		.uleb128 0x27
 8799 2f3f 01       		.uleb128 0x1
 8800 2f40 51       		.byte	0x51
 8801 2f41 05       		.uleb128 0x5
 8802 2f42 03       		.byte	0x3
 8803 2f43 00000000 		.4byte	.LC1
 8804 2f47 27       		.uleb128 0x27
 8805 2f48 01       		.uleb128 0x1
 8806 2f49 52       		.byte	0x52
 8807 2f4a 05       		.uleb128 0x5
 8808 2f4b 03       		.byte	0x3
 8809 2f4c 08010000 		.4byte	.LANCHOR2+8
 8810 2f50 27       		.uleb128 0x27
 8811 2f51 01       		.uleb128 0x1
 8812 2f52 53       		.byte	0x53
 8813 2f53 03       		.uleb128 0x3
 8814 2f54 0A       		.byte	0xa
 8815 2f55 9402     		.2byte	0x294
 8816 2f57 27       		.uleb128 0x27
 8817 2f58 02       		.uleb128 0x2
 8818 2f59 7D       		.byte	0x7d
 8819 2f5a 00       		.sleb128 0
 8820 2f5b 01       		.uleb128 0x1
 8821 2f5c 31       		.byte	0x31
 8822 2f5d 27       		.uleb128 0x27
 8823 2f5e 02       		.uleb128 0x2
 8824 2f5f 7D       		.byte	0x7d
 8825 2f60 04       		.sleb128 4
 8826 2f61 05       		.uleb128 0x5
 8827 2f62 03       		.byte	0x3
 8828 2f63 80020000 		.4byte	.LC80
 8829 2f67 00       		.byte	0
 8830 2f68 00       		.byte	0
 8831 2f69 23       		.uleb128 0x23
 8832 2f6a 80000000 		.4byte	.LBB44
 8833 2f6e 1E000000 		.4byte	.LBE44-.LBB44
 8834 2f72 CC2F0000 		.4byte	0x2fcc
 8835 2f76 31       		.uleb128 0x31
 8836 2f77 6C00     		.ascii	"l\000"
 8837 2f79 01       		.byte	0x1
 8838 2f7a 9E02     		.2byte	0x29e
 8839 2f7c 08170000 		.4byte	0x1708
 8840 2f80 32140000 		.4byte	.LLST92
ARM GAS  C:\Users\Phuong\AppData\Local\Temp\ccP1LXIT.s 			page 175


 8841 2f84 25       		.uleb128 0x25
 8842 2f85 84000000 		.4byte	.LVL322
 8843 2f89 C7330000 		.4byte	0x33c7
 8844 2f8d 26       		.uleb128 0x26
 8845 2f8e 9E000000 		.4byte	.LVL325
 8846 2f92 02       		.uleb128 0x2
 8847 2f93 75       		.byte	0x75
 8848 2f94 00       		.sleb128 0
 8849 2f95 27       		.uleb128 0x27
 8850 2f96 01       		.uleb128 0x1
 8851 2f97 50       		.byte	0x50
 8852 2f98 01       		.uleb128 0x1
 8853 2f99 30       		.byte	0x30
 8854 2f9a 27       		.uleb128 0x27
 8855 2f9b 01       		.uleb128 0x1
 8856 2f9c 51       		.byte	0x51
 8857 2f9d 05       		.uleb128 0x5
 8858 2f9e 03       		.byte	0x3
 8859 2f9f 00000000 		.4byte	.LC1
 8860 2fa3 27       		.uleb128 0x27
 8861 2fa4 01       		.uleb128 0x1
 8862 2fa5 52       		.byte	0x52
 8863 2fa6 05       		.uleb128 0x5
 8864 2fa7 03       		.byte	0x3
 8865 2fa8 08010000 		.4byte	.LANCHOR2+8
 8866 2fac 27       		.uleb128 0x27
 8867 2fad 01       		.uleb128 0x1
 8868 2fae 53       		.byte	0x53
 8869 2faf 03       		.uleb128 0x3
 8870 2fb0 0A       		.byte	0xa
 8871 2fb1 9E02     		.2byte	0x29e
 8872 2fb3 27       		.uleb128 0x27
 8873 2fb4 02       		.uleb128 0x2
 8874 2fb5 7D       		.byte	0x7d
 8875 2fb6 00       		.sleb128 0
 8876 2fb7 01       		.uleb128 0x1
 8877 2fb8 31       		.byte	0x31
 8878 2fb9 27       		.uleb128 0x27
 8879 2fba 02       		.uleb128 0x2
 8880 2fbb 7D       		.byte	0x7d
 8881 2fbc 04       		.sleb128 4
 8882 2fbd 05       		.uleb128 0x5
 8883 2fbe 03       		.byte	0x3
 8884 2fbf 68020000 		.4byte	.LC73
 8885 2fc3 27       		.uleb128 0x27
 8886 2fc4 02       		.uleb128 0x2
 8887 2fc5 7D       		.byte	0x7d
 8888 2fc6 08       		.sleb128 8
 8889 2fc7 02       		.uleb128 0x2
 8890 2fc8 74       		.byte	0x74
 8891 2fc9 00       		.sleb128 0
 8892 2fca 00       		.byte	0
 8893 2fcb 00       		.byte	0
 8894 2fcc 2D       		.uleb128 0x2d
 8895 2fcd 3C000000 		.4byte	.LVL314
 8896 2fd1 C7350000 		.4byte	0x35c7
 8897 2fd5 E32F0000 		.4byte	0x2fe3
ARM GAS  C:\Users\Phuong\AppData\Local\Temp\ccP1LXIT.s 			page 176


 8898 2fd9 27       		.uleb128 0x27
 8899 2fda 01       		.uleb128 0x1
 8900 2fdb 51       		.byte	0x51
 8901 2fdc 05       		.uleb128 0x5
 8902 2fdd 03       		.byte	0x3
 8903 2fde AC010000 		.4byte	.LC59
 8904 2fe2 00       		.byte	0
 8905 2fe3 2D       		.uleb128 0x2d
 8906 2fe4 4C000000 		.4byte	.LVL315
 8907 2fe8 C7350000 		.4byte	0x35c7
 8908 2fec 00300000 		.4byte	0x3000
 8909 2ff0 27       		.uleb128 0x27
 8910 2ff1 01       		.uleb128 0x1
 8911 2ff2 50       		.byte	0x50
 8912 2ff3 02       		.uleb128 0x2
 8913 2ff4 74       		.byte	0x74
 8914 2ff5 00       		.sleb128 0
 8915 2ff6 27       		.uleb128 0x27
 8916 2ff7 01       		.uleb128 0x1
 8917 2ff8 51       		.byte	0x51
 8918 2ff9 05       		.uleb128 0x5
 8919 2ffa 03       		.byte	0x3
 8920 2ffb EC010000 		.4byte	.LC63
 8921 2fff 00       		.byte	0
 8922 3000 2E       		.uleb128 0x2e
 8923 3001 58000000 		.4byte	.LVL316
 8924 3005 D2350000 		.4byte	0x35d2
 8925 3009 27       		.uleb128 0x27
 8926 300a 01       		.uleb128 0x1
 8927 300b 50       		.byte	0x50
 8928 300c 02       		.uleb128 0x2
 8929 300d 91       		.byte	0x91
 8930 300e 6C       		.sleb128 -20
 8931 300f 27       		.uleb128 0x27
 8932 3010 01       		.uleb128 0x1
 8933 3011 51       		.byte	0x51
 8934 3012 02       		.uleb128 0x2
 8935 3013 75       		.byte	0x75
 8936 3014 00       		.sleb128 0
 8937 3015 00       		.byte	0
 8938 3016 00       		.byte	0
 8939 3017 11       		.uleb128 0x11
 8940 3018 CB000000 		.4byte	0xcb
 8941 301c 27300000 		.4byte	0x3027
 8942 3020 12       		.uleb128 0x12
 8943 3021 A9000000 		.4byte	0xa9
 8944 3025 19       		.byte	0x19
 8945 3026 00       		.byte	0
 8946 3027 07       		.uleb128 0x7
 8947 3028 17300000 		.4byte	0x3017
 8948 302c 2F       		.uleb128 0x2f
 8949 302d 600A0000 		.4byte	.LASF405
 8950 3031 01       		.byte	0x1
 8951 3032 ED02     		.2byte	0x2ed
 8952 3034 37000000 		.4byte	0x37
 8953 3038 00000000 		.4byte	.LFB39
 8954 303c F4000000 		.4byte	.LFE39-.LFB39
ARM GAS  C:\Users\Phuong\AppData\Local\Temp\ccP1LXIT.s 			page 177


 8955 3040 01       		.uleb128 0x1
 8956 3041 9C       		.byte	0x9c
 8957 3042 1F320000 		.4byte	0x321f
 8958 3046 2B       		.uleb128 0x2b
 8959 3047 48160000 		.4byte	.LASF386
 8960 304b 01       		.byte	0x1
 8961 304c ED02     		.2byte	0x2ed
 8962 304e EC130000 		.4byte	0x13ec
 8963 3052 50140000 		.4byte	.LLST93
 8964 3056 2B       		.uleb128 0x2b
 8965 3057 120F0000 		.4byte	.LASF406
 8966 305b 01       		.byte	0x1
 8967 305c ED02     		.2byte	0x2ed
 8968 305e C5000000 		.4byte	0xc5
 8969 3062 F6140000 		.4byte	.LLST94
 8970 3066 2B       		.uleb128 0x2b
 8971 3067 51080000 		.4byte	.LASF403
 8972 306b 01       		.byte	0x1
 8973 306c ED02     		.2byte	0x2ed
 8974 306e D0000000 		.4byte	0xd0
 8975 3072 51150000 		.4byte	.LLST95
 8976 3076 30       		.uleb128 0x30
 8977 3077 E5030000 		.4byte	.LASF373
 8978 307b 01       		.byte	0x1
 8979 307c EF02     		.2byte	0x2ef
 8980 307e 37000000 		.4byte	0x37
 8981 3082 93150000 		.4byte	.LLST96
 8982 3086 22       		.uleb128 0x22
 8983 3087 83010000 		.4byte	.LASF374
 8984 308b 2F320000 		.4byte	0x322f
 8985 308f 05       		.uleb128 0x5
 8986 3090 03       		.byte	0x3
 8987 3091 24010000 		.4byte	__func__.9234
 8988 3095 34       		.uleb128 0x34
 8989 3096 80000000 		.4byte	.Ldebug_ranges0+0x80
 8990 309a 30       		.uleb128 0x30
 8991 309b 0B160000 		.4byte	.LASF363
 8992 309f 01       		.byte	0x1
 8993 30a0 F702     		.2byte	0x2f7
 8994 30a2 FA180000 		.4byte	0x18fa
 8995 30a6 BD150000 		.4byte	.LLST97
 8996 30aa 23       		.uleb128 0x23
 8997 30ab 42000000 		.4byte	.LBB46
 8998 30af 1C000000 		.4byte	.LBE46-.LBB46
 8999 30b3 06310000 		.4byte	0x3106
 9000 30b7 31       		.uleb128 0x31
 9001 30b8 6C00     		.ascii	"l\000"
 9002 30ba 01       		.byte	0x1
 9003 30bb 0303     		.2byte	0x303
 9004 30bd 08170000 		.4byte	0x1708
 9005 30c1 29160000 		.4byte	.LLST98
 9006 30c5 25       		.uleb128 0x25
 9007 30c6 46000000 		.4byte	.LVL333
 9008 30ca C7330000 		.4byte	0x33c7
 9009 30ce 26       		.uleb128 0x26
 9010 30cf 5E000000 		.4byte	.LVL336
 9011 30d3 02       		.uleb128 0x2
ARM GAS  C:\Users\Phuong\AppData\Local\Temp\ccP1LXIT.s 			page 178


 9012 30d4 74       		.byte	0x74
 9013 30d5 00       		.sleb128 0
 9014 30d6 27       		.uleb128 0x27
 9015 30d7 01       		.uleb128 0x1
 9016 30d8 50       		.byte	0x50
 9017 30d9 01       		.uleb128 0x1
 9018 30da 30       		.byte	0x30
 9019 30db 27       		.uleb128 0x27
 9020 30dc 01       		.uleb128 0x1
 9021 30dd 51       		.byte	0x51
 9022 30de 05       		.uleb128 0x5
 9023 30df 03       		.byte	0x3
 9024 30e0 00000000 		.4byte	.LC1
 9025 30e4 27       		.uleb128 0x27
 9026 30e5 01       		.uleb128 0x1
 9027 30e6 52       		.byte	0x52
 9028 30e7 05       		.uleb128 0x5
 9029 30e8 03       		.byte	0x3
 9030 30e9 24010000 		.4byte	.LANCHOR2+36
 9031 30ed 27       		.uleb128 0x27
 9032 30ee 01       		.uleb128 0x1
 9033 30ef 53       		.byte	0x53
 9034 30f0 03       		.uleb128 0x3
 9035 30f1 0A       		.byte	0xa
 9036 30f2 0303     		.2byte	0x303
 9037 30f4 27       		.uleb128 0x27
 9038 30f5 02       		.uleb128 0x2
 9039 30f6 7D       		.byte	0x7d
 9040 30f7 00       		.sleb128 0
 9041 30f8 01       		.uleb128 0x1
 9042 30f9 31       		.byte	0x31
 9043 30fa 27       		.uleb128 0x27
 9044 30fb 02       		.uleb128 0x2
 9045 30fc 7D       		.byte	0x7d
 9046 30fd 04       		.sleb128 4
 9047 30fe 05       		.uleb128 0x5
 9048 30ff 03       		.byte	0x3
 9049 3100 B0020000 		.4byte	.LC86
 9050 3104 00       		.byte	0
 9051 3105 00       		.byte	0
 9052 3106 3E       		.uleb128 0x3e
 9053 3107 98000000 		.4byte	.Ldebug_ranges0+0x98
 9054 310b C6310000 		.4byte	0x31c6
 9055 310f 30       		.uleb128 0x30
 9056 3110 03050000 		.4byte	.LASF407
 9057 3114 01       		.byte	0x1
 9058 3115 0803     		.2byte	0x308
 9059 3117 37000000 		.4byte	0x37
 9060 311b 5D160000 		.4byte	.LLST99
 9061 311f 23       		.uleb128 0x23
 9062 3120 7E000000 		.4byte	.LBB48
 9063 3124 1C000000 		.4byte	.LBE48-.LBB48
 9064 3128 7B310000 		.4byte	0x317b
 9065 312c 31       		.uleb128 0x31
 9066 312d 6C00     		.ascii	"l\000"
 9067 312f 01       		.byte	0x1
 9068 3130 0B03     		.2byte	0x30b
ARM GAS  C:\Users\Phuong\AppData\Local\Temp\ccP1LXIT.s 			page 179


 9069 3132 08170000 		.4byte	0x1708
 9070 3136 7B160000 		.4byte	.LLST100
 9071 313a 25       		.uleb128 0x25
 9072 313b 82000000 		.4byte	.LVL341
 9073 313f C7330000 		.4byte	0x33c7
 9074 3143 26       		.uleb128 0x26
 9075 3144 9A000000 		.4byte	.LVL344
 9076 3148 02       		.uleb128 0x2
 9077 3149 74       		.byte	0x74
 9078 314a 00       		.sleb128 0
 9079 314b 27       		.uleb128 0x27
 9080 314c 01       		.uleb128 0x1
 9081 314d 50       		.byte	0x50
 9082 314e 01       		.uleb128 0x1
 9083 314f 31       		.byte	0x31
 9084 3150 27       		.uleb128 0x27
 9085 3151 01       		.uleb128 0x1
 9086 3152 51       		.byte	0x51
 9087 3153 05       		.uleb128 0x5
 9088 3154 03       		.byte	0x3
 9089 3155 00000000 		.4byte	.LC1
 9090 3159 27       		.uleb128 0x27
 9091 315a 01       		.uleb128 0x1
 9092 315b 52       		.byte	0x52
 9093 315c 05       		.uleb128 0x5
 9094 315d 03       		.byte	0x3
 9095 315e 24010000 		.4byte	.LANCHOR2+36
 9096 3162 27       		.uleb128 0x27
 9097 3163 01       		.uleb128 0x1
 9098 3164 53       		.byte	0x53
 9099 3165 03       		.uleb128 0x3
 9100 3166 0A       		.byte	0xa
 9101 3167 0B03     		.2byte	0x30b
 9102 3169 27       		.uleb128 0x27
 9103 316a 02       		.uleb128 0x2
 9104 316b 7D       		.byte	0x7d
 9105 316c 00       		.sleb128 0
 9106 316d 01       		.uleb128 0x1
 9107 316e 31       		.byte	0x31
 9108 316f 27       		.uleb128 0x27
 9109 3170 02       		.uleb128 0x2
 9110 3171 7D       		.byte	0x7d
 9111 3172 04       		.sleb128 4
 9112 3173 05       		.uleb128 0x5
 9113 3174 03       		.byte	0x3
 9114 3175 CC020000 		.4byte	.LC88
 9115 3179 00       		.byte	0
 9116 317a 00       		.byte	0
 9117 317b 2D       		.uleb128 0x2d
 9118 317c 70000000 		.4byte	.LVL339
 9119 3180 DD350000 		.4byte	0x35dd
 9120 3184 8F310000 		.4byte	0x318f
 9121 3188 27       		.uleb128 0x27
 9122 3189 01       		.uleb128 0x1
 9123 318a 50       		.byte	0x50
 9124 318b 02       		.uleb128 0x2
 9125 318c 76       		.byte	0x76
ARM GAS  C:\Users\Phuong\AppData\Local\Temp\ccP1LXIT.s 			page 180


 9126 318d 00       		.sleb128 0
 9127 318e 00       		.byte	0
 9128 318f 2D       		.uleb128 0x2d
 9129 3190 7A000000 		.4byte	.LVL340
 9130 3194 E8350000 		.4byte	0x35e8
 9131 3198 A9310000 		.4byte	0x31a9
 9132 319c 27       		.uleb128 0x27
 9133 319d 01       		.uleb128 0x1
 9134 319e 50       		.byte	0x50
 9135 319f 02       		.uleb128 0x2
 9136 31a0 75       		.byte	0x75
 9137 31a1 00       		.sleb128 0
 9138 31a2 27       		.uleb128 0x27
 9139 31a3 01       		.uleb128 0x1
 9140 31a4 51       		.byte	0x51
 9141 31a5 02       		.uleb128 0x2
 9142 31a6 76       		.byte	0x76
 9143 31a7 00       		.sleb128 0
 9144 31a8 00       		.byte	0
 9145 31a9 2E       		.uleb128 0x2e
 9146 31aa AE000000 		.4byte	.LVL347
 9147 31ae F3350000 		.4byte	0x35f3
 9148 31b2 27       		.uleb128 0x27
 9149 31b3 01       		.uleb128 0x1
 9150 31b4 50       		.byte	0x50
 9151 31b5 03       		.uleb128 0x3
 9152 31b6 74       		.byte	0x74
 9153 31b7 880A     		.sleb128 1288
 9154 31b9 27       		.uleb128 0x27
 9155 31ba 01       		.uleb128 0x1
 9156 31bb 51       		.byte	0x51
 9157 31bc 02       		.uleb128 0x2
 9158 31bd 75       		.byte	0x75
 9159 31be 00       		.sleb128 0
 9160 31bf 27       		.uleb128 0x27
 9161 31c0 01       		.uleb128 0x1
 9162 31c1 52       		.byte	0x52
 9163 31c2 01       		.uleb128 0x1
 9164 31c3 30       		.byte	0x30
 9165 31c4 00       		.byte	0
 9166 31c5 00       		.byte	0
 9167 31c6 2D       		.uleb128 0x2d
 9168 31c7 18000000 		.4byte	.LVL330
 9169 31cb C7350000 		.4byte	0x35c7
 9170 31cf E3310000 		.4byte	0x31e3
 9171 31d3 27       		.uleb128 0x27
 9172 31d4 01       		.uleb128 0x1
 9173 31d5 50       		.byte	0x50
 9174 31d6 05       		.uleb128 0x5
 9175 31d7 03       		.byte	0x3
 9176 31d8 EC010000 		.4byte	.LC63
 9177 31dc 27       		.uleb128 0x27
 9178 31dd 01       		.uleb128 0x1
 9179 31de 51       		.byte	0x51
 9180 31df 02       		.uleb128 0x2
 9181 31e0 75       		.byte	0x75
 9182 31e1 00       		.sleb128 0
ARM GAS  C:\Users\Phuong\AppData\Local\Temp\ccP1LXIT.s 			page 181


 9183 31e2 00       		.byte	0
 9184 31e3 25       		.uleb128 0x25
 9185 31e4 2A000000 		.4byte	.LVL331
 9186 31e8 99340000 		.4byte	0x3499
 9187 31ec 2D       		.uleb128 0x2d
 9188 31ed 3E000000 		.4byte	.LVL332
 9189 31f1 D2350000 		.4byte	0x35d2
 9190 31f5 07320000 		.4byte	0x3207
 9191 31f9 27       		.uleb128 0x27
 9192 31fa 01       		.uleb128 0x1
 9193 31fb 50       		.byte	0x50
 9194 31fc 03       		.uleb128 0x3
 9195 31fd 74       		.byte	0x74
 9196 31fe 880F     		.sleb128 1928
 9197 3200 27       		.uleb128 0x27
 9198 3201 01       		.uleb128 0x1
 9199 3202 51       		.byte	0x51
 9200 3203 02       		.uleb128 0x2
 9201 3204 76       		.byte	0x76
 9202 3205 00       		.sleb128 0
 9203 3206 00       		.byte	0
 9204 3207 2E       		.uleb128 0x2e
 9205 3208 BC000000 		.4byte	.LVL349
 9206 320c FF350000 		.4byte	0x35ff
 9207 3210 27       		.uleb128 0x27
 9208 3211 01       		.uleb128 0x1
 9209 3212 51       		.byte	0x51
 9210 3213 02       		.uleb128 0x2
 9211 3214 75       		.byte	0x75
 9212 3215 00       		.sleb128 0
 9213 3216 27       		.uleb128 0x27
 9214 3217 01       		.uleb128 0x1
 9215 3218 52       		.byte	0x52
 9216 3219 02       		.uleb128 0x2
 9217 321a 76       		.byte	0x76
 9218 321b 00       		.sleb128 0
 9219 321c 00       		.byte	0
 9220 321d 00       		.byte	0
 9221 321e 00       		.byte	0
 9222 321f 11       		.uleb128 0x11
 9223 3220 CB000000 		.4byte	0xcb
 9224 3224 2F320000 		.4byte	0x322f
 9225 3228 12       		.uleb128 0x12
 9226 3229 A9000000 		.4byte	0xa9
 9227 322d 17       		.byte	0x17
 9228 322e 00       		.byte	0
 9229 322f 07       		.uleb128 0x7
 9230 3230 1F320000 		.4byte	0x321f
 9231 3234 3F       		.uleb128 0x3f
 9232 3235 AD1B0000 		.4byte	.LASF482
 9233 3239 01       		.byte	0x1
 9234 323a 7C02     		.2byte	0x27c
 9235 323c C4160000 		.4byte	0x16c4
 9236 3240 00000000 		.4byte	.LFB35
 9237 3244 0C000000 		.4byte	.LFE35-.LFB35
 9238 3248 01       		.uleb128 0x1
 9239 3249 9C       		.byte	0x9c
ARM GAS  C:\Users\Phuong\AppData\Local\Temp\ccP1LXIT.s 			page 182


 9240 324a 3C       		.uleb128 0x3c
 9241 324b B9100000 		.4byte	.LASF408
 9242 324f 17       		.byte	0x17
 9243 3250 16       		.byte	0x16
 9244 3251 5C320000 		.4byte	0x325c
 9245 3255 06       		.uleb128 0x6
 9246 3256 F2       		.byte	0xf2
 9247 3257 0A360000 		.4byte	.Ldebug_info0+13834
 9248 325b 00       		.sleb128 0
 9249 325c 07       		.uleb128 0x7
 9250 325d C5000000 		.4byte	0xc5
 9251 3261 3C       		.uleb128 0x3c
 9252 3262 E2010000 		.4byte	.LASF409
 9253 3266 17       		.byte	0x17
 9254 3267 17       		.byte	0x17
 9255 3268 5C320000 		.4byte	0x325c
 9256 326c 06       		.uleb128 0x6
 9257 326d F2       		.byte	0xf2
 9258 326e 19360000 		.4byte	.Ldebug_info0+13849
 9259 3272 00       		.sleb128 0
 9260 3273 3C       		.uleb128 0x3c
 9261 3274 58170000 		.4byte	.LASF410
 9262 3278 17       		.byte	0x17
 9263 3279 19       		.byte	0x19
 9264 327a 5C320000 		.4byte	0x325c
 9265 327e 06       		.uleb128 0x6
 9266 327f 03       		.byte	0x3
 9267 3280 EC010000 		.4byte	.LC63
 9268 3284 9F       		.byte	0x9f
 9269 3285 3C       		.uleb128 0x3c
 9270 3286 09130000 		.4byte	.LASF411
 9271 328a 17       		.byte	0x17
 9272 328b 1D       		.byte	0x1d
 9273 328c 5C320000 		.4byte	0x325c
 9274 3290 06       		.uleb128 0x6
 9275 3291 F2       		.byte	0xf2
 9276 3292 25360000 		.4byte	.Ldebug_info0+13861
 9277 3296 00       		.sleb128 0
 9278 3297 3C       		.uleb128 0x3c
 9279 3298 D0160000 		.4byte	.LASF412
 9280 329c 17       		.byte	0x17
 9281 329d 1F       		.byte	0x1f
 9282 329e 5C320000 		.4byte	0x325c
 9283 32a2 06       		.uleb128 0x6
 9284 32a3 F2       		.byte	0xf2
 9285 32a4 35360000 		.4byte	.Ldebug_info0+13877
 9286 32a8 00       		.sleb128 0
 9287 32a9 3C       		.uleb128 0x3c
 9288 32aa 0B190000 		.4byte	.LASF413
 9289 32ae 17       		.byte	0x17
 9290 32af 20       		.byte	0x20
 9291 32b0 5C320000 		.4byte	0x325c
 9292 32b4 06       		.uleb128 0x6
 9293 32b5 F2       		.byte	0xf2
 9294 32b6 49360000 		.4byte	.Ldebug_info0+13897
 9295 32ba 00       		.sleb128 0
 9296 32bb 3C       		.uleb128 0x3c
ARM GAS  C:\Users\Phuong\AppData\Local\Temp\ccP1LXIT.s 			page 183


 9297 32bc 880E0000 		.4byte	.LASF414
 9298 32c0 17       		.byte	0x17
 9299 32c1 22       		.byte	0x22
 9300 32c2 5C320000 		.4byte	0x325c
 9301 32c6 06       		.uleb128 0x6
 9302 32c7 F2       		.byte	0xf2
 9303 32c8 5C360000 		.4byte	.Ldebug_info0+13916
 9304 32cc 00       		.sleb128 0
 9305 32cd 3C       		.uleb128 0x3c
 9306 32ce 34150000 		.4byte	.LASF415
 9307 32d2 17       		.byte	0x17
 9308 32d3 23       		.byte	0x23
 9309 32d4 5C320000 		.4byte	0x325c
 9310 32d8 06       		.uleb128 0x6
 9311 32d9 F2       		.byte	0xf2
 9312 32da 73360000 		.4byte	.Ldebug_info0+13939
 9313 32de 00       		.sleb128 0
 9314 32df 3C       		.uleb128 0x3c
 9315 32e0 3F1C0000 		.4byte	.LASF416
 9316 32e4 17       		.byte	0x17
 9317 32e5 25       		.byte	0x25
 9318 32e6 5C320000 		.4byte	0x325c
 9319 32ea 06       		.uleb128 0x6
 9320 32eb F2       		.byte	0xf2
 9321 32ec 87360000 		.4byte	.Ldebug_info0+13959
 9322 32f0 00       		.sleb128 0
 9323 32f1 3C       		.uleb128 0x3c
 9324 32f2 EE0D0000 		.4byte	.LASF417
 9325 32f6 17       		.byte	0x17
 9326 32f7 26       		.byte	0x26
 9327 32f8 5C320000 		.4byte	0x325c
 9328 32fc 06       		.uleb128 0x6
 9329 32fd F2       		.byte	0xf2
 9330 32fe A3360000 		.4byte	.Ldebug_info0+13987
 9331 3302 00       		.sleb128 0
 9332 3303 3C       		.uleb128 0x3c
 9333 3304 C8000000 		.4byte	.LASF418
 9334 3308 17       		.byte	0x17
 9335 3309 27       		.byte	0x27
 9336 330a 5C320000 		.4byte	0x325c
 9337 330e 06       		.uleb128 0x6
 9338 330f F2       		.byte	0xf2
 9339 3310 BE360000 		.4byte	.Ldebug_info0+14014
 9340 3314 00       		.sleb128 0
 9341 3315 3C       		.uleb128 0x3c
 9342 3316 4B180000 		.4byte	.LASF419
 9343 331a 17       		.byte	0x17
 9344 331b 28       		.byte	0x28
 9345 331c 5C320000 		.4byte	0x325c
 9346 3320 06       		.uleb128 0x6
 9347 3321 F2       		.byte	0xf2
 9348 3322 D8360000 		.4byte	.Ldebug_info0+14040
 9349 3326 00       		.sleb128 0
 9350 3327 3C       		.uleb128 0x3c
 9351 3328 50120000 		.4byte	.LASF420
 9352 332c 17       		.byte	0x17
 9353 332d 29       		.byte	0x29
ARM GAS  C:\Users\Phuong\AppData\Local\Temp\ccP1LXIT.s 			page 184


 9354 332e 5C320000 		.4byte	0x325c
 9355 3332 06       		.uleb128 0x6
 9356 3333 F2       		.byte	0xf2
 9357 3334 F1360000 		.4byte	.Ldebug_info0+14065
 9358 3338 00       		.sleb128 0
 9359 3339 3C       		.uleb128 0x3c
 9360 333a F11C0000 		.4byte	.LASF421
 9361 333e 17       		.byte	0x17
 9362 333f 2B       		.byte	0x2b
 9363 3340 5C320000 		.4byte	0x325c
 9364 3344 06       		.uleb128 0x6
 9365 3345 F2       		.byte	0xf2
 9366 3346 05370000 		.4byte	.Ldebug_info0+14085
 9367 334a 00       		.sleb128 0
 9368 334b 3C       		.uleb128 0x3c
 9369 334c 38000000 		.4byte	.LASF422
 9370 3350 17       		.byte	0x17
 9371 3351 2D       		.byte	0x2d
 9372 3352 5C320000 		.4byte	0x325c
 9373 3356 06       		.uleb128 0x6
 9374 3357 F2       		.byte	0xf2
 9375 3358 23370000 		.4byte	.Ldebug_info0+14115
 9376 335c 00       		.sleb128 0
 9377 335d 3C       		.uleb128 0x3c
 9378 335e 650C0000 		.4byte	.LASF423
 9379 3362 17       		.byte	0x17
 9380 3363 2F       		.byte	0x2f
 9381 3364 5C320000 		.4byte	0x325c
 9382 3368 06       		.uleb128 0x6
 9383 3369 F2       		.byte	0xf2
 9384 336a 33370000 		.4byte	.Ldebug_info0+14131
 9385 336e 00       		.sleb128 0
 9386 336f 3C       		.uleb128 0x3c
 9387 3370 5B070000 		.4byte	.LASF424
 9388 3374 17       		.byte	0x17
 9389 3375 30       		.byte	0x30
 9390 3376 5C320000 		.4byte	0x325c
 9391 337a 06       		.uleb128 0x6
 9392 337b F2       		.byte	0xf2
 9393 337c 44370000 		.4byte	.Ldebug_info0+14148
 9394 3380 00       		.sleb128 0
 9395 3381 3C       		.uleb128 0x3c
 9396 3382 A30F0000 		.4byte	.LASF425
 9397 3386 17       		.byte	0x17
 9398 3387 31       		.byte	0x31
 9399 3388 5C320000 		.4byte	0x325c
 9400 338c 06       		.uleb128 0x6
 9401 338d F2       		.byte	0xf2
 9402 338e 56370000 		.4byte	.Ldebug_info0+14166
 9403 3392 00       		.sleb128 0
 9404 3393 3C       		.uleb128 0x3c
 9405 3394 BD050000 		.4byte	.LASF426
 9406 3398 01       		.byte	0x1
 9407 3399 2B       		.byte	0x2b
 9408 339a 5C320000 		.4byte	0x325c
 9409 339e 06       		.uleb128 0x6
 9410 339f 03       		.byte	0x3
ARM GAS  C:\Users\Phuong\AppData\Local\Temp\ccP1LXIT.s 			page 185


 9411 33a0 AC010000 		.4byte	.LC59
 9412 33a4 9F       		.byte	0x9f
 9413 33a5 3B       		.uleb128 0x3b
 9414 33a6 5F100000 		.4byte	.LASF427
 9415 33aa 01       		.byte	0x1
 9416 33ab 30       		.byte	0x30
 9417 33ac B1330000 		.4byte	0x33b1
 9418 33b0 05       		.byte	0x5
 9419 33b1 07       		.uleb128 0x7
 9420 33b2 25000000 		.4byte	0x25
 9421 33b6 3C       		.uleb128 0x3c
 9422 33b7 14000000 		.4byte	.LASF428
 9423 33bb 01       		.byte	0x1
 9424 33bc 55       		.byte	0x55
 9425 33bd CA160000 		.4byte	0x16ca
 9426 33c1 05       		.uleb128 0x5
 9427 33c2 03       		.byte	0x3
 9428 33c3 3C010000 		.4byte	tlsio_mbedtls_interface_description
 9429 33c7 40       		.uleb128 0x40
 9430 33c8 A9120000 		.4byte	.LASF429
 9431 33cc A9120000 		.4byte	.LASF429
 9432 33d0 15       		.byte	0x15
 9433 33d1 9D       		.byte	0x9d
 9434 33d2 40       		.uleb128 0x40
 9435 33d3 BB140000 		.4byte	.LASF430
 9436 33d7 BB140000 		.4byte	.LASF430
 9437 33db 0F       		.byte	0xf
 9438 33dc 96       		.byte	0x96
 9439 33dd 40       		.uleb128 0x40
 9440 33de 39140000 		.4byte	.LASF431
 9441 33e2 39140000 		.4byte	.LASF431
 9442 33e6 11       		.byte	0x11
 9443 33e7 9B       		.byte	0x9b
 9444 33e8 41       		.uleb128 0x41
 9445 33e9 260E0000 		.4byte	.LASF432
 9446 33ed 260E0000 		.4byte	.LASF432
 9447 33f1 0D       		.byte	0xd
 9448 33f2 CB04     		.2byte	0x4cb
 9449 33f4 41       		.uleb128 0x41
 9450 33f5 48150000 		.4byte	.LASF433
 9451 33f9 48150000 		.4byte	.LASF433
 9452 33fd 0D       		.byte	0xd
 9453 33fe 9E0C     		.2byte	0xc9e
 9454 3400 41       		.uleb128 0x41
 9455 3401 A3140000 		.4byte	.LASF434
 9456 3405 A3140000 		.4byte	.LASF434
 9457 3409 0D       		.byte	0xd
 9458 340a 7E0C     		.2byte	0xc7e
 9459 340c 41       		.uleb128 0x41
 9460 340d 790F0000 		.4byte	.LASF435
 9461 3411 790F0000 		.4byte	.LASF435
 9462 3415 0C       		.byte	0xc
 9463 3416 FB01     		.2byte	0x1fb
 9464 3418 40       		.uleb128 0x40
 9465 3419 B3010000 		.4byte	.LASF436
 9466 341d B3010000 		.4byte	.LASF436
 9467 3421 0F       		.byte	0xf
ARM GAS  C:\Users\Phuong\AppData\Local\Temp\ccP1LXIT.s 			page 186


 9468 3422 B0       		.byte	0xb0
 9469 3423 40       		.uleb128 0x40
 9470 3424 E6170000 		.4byte	.LASF437
 9471 3428 E6170000 		.4byte	.LASF437
 9472 342c 11       		.byte	0x11
 9473 342d B0       		.byte	0xb0
 9474 342e 41       		.uleb128 0x41
 9475 342f F5030000 		.4byte	.LASF438
 9476 3433 F5030000 		.4byte	.LASF438
 9477 3437 0D       		.byte	0xd
 9478 3438 8F0C     		.2byte	0xc8f
 9479 343a 41       		.uleb128 0x41
 9480 343b D9080000 		.4byte	.LASF439
 9481 343f D9080000 		.4byte	.LASF439
 9482 3443 0D       		.byte	0xd
 9483 3444 3C05     		.2byte	0x53c
 9484 3446 41       		.uleb128 0x41
 9485 3447 8A0C0000 		.4byte	.LASF440
 9486 344b 8A0C0000 		.4byte	.LASF440
 9487 344f 0D       		.byte	0xd
 9488 3450 2205     		.2byte	0x522
 9489 3452 41       		.uleb128 0x41
 9490 3453 C4170000 		.4byte	.LASF441
 9491 3457 C4170000 		.4byte	.LASF441
 9492 345b 0D       		.byte	0xd
 9493 345c 8509     		.2byte	0x985
 9494 345e 41       		.uleb128 0x41
 9495 345f 71080000 		.4byte	.LASF442
 9496 3463 71080000 		.4byte	.LASF442
 9497 3467 0D       		.byte	0xd
 9498 3468 7005     		.2byte	0x570
 9499 346a 41       		.uleb128 0x41
 9500 346b 301E0000 		.4byte	.LASF443
 9501 346f 301E0000 		.4byte	.LASF443
 9502 3473 0D       		.byte	0xd
 9503 3474 E208     		.2byte	0x8e2
 9504 3476 41       		.uleb128 0x41
 9505 3477 43020000 		.4byte	.LASF444
 9506 347b 43020000 		.4byte	.LASF444
 9507 347f 0D       		.byte	0xd
 9508 3480 A007     		.2byte	0x7a0
 9509 3482 41       		.uleb128 0x41
 9510 3483 1A010000 		.4byte	.LASF445
 9511 3487 1A010000 		.4byte	.LASF445
 9512 348b 0D       		.byte	0xd
 9513 348c E104     		.2byte	0x4e1
 9514 348e 40       		.uleb128 0x40
 9515 348f 22050000 		.4byte	.LASF446
 9516 3493 22050000 		.4byte	.LASF446
 9517 3497 16       		.byte	0x16
 9518 3498 23       		.byte	0x23
 9519 3499 40       		.uleb128 0x40
 9520 349a BA1C0000 		.4byte	.LASF447
 9521 349e BA1C0000 		.4byte	.LASF447
 9522 34a2 18       		.byte	0x18
 9523 34a3 59       		.byte	0x59
 9524 34a4 40       		.uleb128 0x40
ARM GAS  C:\Users\Phuong\AppData\Local\Temp\ccP1LXIT.s 			page 187


 9525 34a5 54100000 		.4byte	.LASF448
 9526 34a9 54100000 		.4byte	.LASF448
 9527 34ad 13       		.byte	0x13
 9528 34ae 40       		.byte	0x40
 9529 34af 40       		.uleb128 0x40
 9530 34b0 D6090000 		.4byte	.LASF449
 9531 34b4 D6090000 		.4byte	.LASF449
 9532 34b8 18       		.byte	0x18
 9533 34b9 64       		.byte	0x64
 9534 34ba 40       		.uleb128 0x40
 9535 34bb 9D0E0000 		.4byte	.LASF450
 9536 34bf 9D0E0000 		.4byte	.LASF450
 9537 34c3 13       		.byte	0x13
 9538 34c4 45       		.byte	0x45
 9539 34c5 42       		.uleb128 0x42
 9540 34c6 AE1A0000 		.4byte	.LASF483
 9541 34ca AE1A0000 		.4byte	.LASF483
 9542 34ce 40       		.uleb128 0x40
 9543 34cf 8F0F0000 		.4byte	.LASF451
 9544 34d3 8F0F0000 		.4byte	.LASF451
 9545 34d7 19       		.byte	0x19
 9546 34d8 18       		.byte	0x18
 9547 34d9 40       		.uleb128 0x40
 9548 34da 20070000 		.4byte	.LASF452
 9549 34de 20070000 		.4byte	.LASF452
 9550 34e2 18       		.byte	0x18
 9551 34e3 89       		.byte	0x89
 9552 34e4 40       		.uleb128 0x40
 9553 34e5 DA190000 		.4byte	.LASF453
 9554 34e9 DA190000 		.4byte	.LASF453
 9555 34ed 13       		.byte	0x13
 9556 34ee 44       		.byte	0x44
 9557 34ef 40       		.uleb128 0x40
 9558 34f0 45050000 		.4byte	.LASF454
 9559 34f4 45050000 		.4byte	.LASF454
 9560 34f8 18       		.byte	0x18
 9561 34f9 88       		.byte	0x88
 9562 34fa 40       		.uleb128 0x40
 9563 34fb 28170000 		.4byte	.LASF455
 9564 34ff 28170000 		.4byte	.LASF455
 9565 3503 1A       		.byte	0x1a
 9566 3504 37       		.byte	0x37
 9567 3505 40       		.uleb128 0x40
 9568 3506 641A0000 		.4byte	.LASF456
 9569 350a 641A0000 		.4byte	.LASF456
 9570 350e 18       		.byte	0x18
 9571 350f 96       		.byte	0x96
 9572 3510 41       		.uleb128 0x41
 9573 3511 2B120000 		.4byte	.LASF457
 9574 3515 2B120000 		.4byte	.LASF457
 9575 3519 0D       		.byte	0xd
 9576 351a 720C     		.2byte	0xc72
 9577 351c 41       		.uleb128 0x41
 9578 351d 251A0000 		.4byte	.LASF458
 9579 3521 251A0000 		.4byte	.LASF458
 9580 3525 0D       		.byte	0xd
 9581 3526 970C     		.2byte	0xc97
ARM GAS  C:\Users\Phuong\AppData\Local\Temp\ccP1LXIT.s 			page 188


 9582 3528 41       		.uleb128 0x41
 9583 3529 9D050000 		.4byte	.LASF459
 9584 352d 9D050000 		.4byte	.LASF459
 9585 3531 0C       		.byte	0xc
 9586 3532 0202     		.2byte	0x202
 9587 3534 40       		.uleb128 0x40
 9588 3535 83190000 		.4byte	.LASF460
 9589 3539 83190000 		.4byte	.LASF460
 9590 353d 11       		.byte	0x11
 9591 353e BB       		.byte	0xbb
 9592 353f 40       		.uleb128 0x40
 9593 3540 7A060000 		.4byte	.LASF461
 9594 3544 7A060000 		.4byte	.LASF461
 9595 3548 0F       		.byte	0xf
 9596 3549 9D       		.byte	0x9d
 9597 354a 40       		.uleb128 0x40
 9598 354b D90B0000 		.4byte	.LASF462
 9599 354f D90B0000 		.4byte	.LASF462
 9600 3553 13       		.byte	0x13
 9601 3554 41       		.byte	0x41
 9602 3555 40       		.uleb128 0x40
 9603 3556 D80A0000 		.4byte	.LASF463
 9604 355a D80A0000 		.4byte	.LASF463
 9605 355e 13       		.byte	0x13
 9606 355f 42       		.byte	0x42
 9607 3560 40       		.uleb128 0x40
 9608 3561 F41D0000 		.4byte	.LASF464
 9609 3565 F41D0000 		.4byte	.LASF464
 9610 3569 13       		.byte	0x13
 9611 356a 43       		.byte	0x43
 9612 356b 41       		.uleb128 0x41
 9613 356c 4A0A0000 		.4byte	.LASF465
 9614 3570 4A0A0000 		.4byte	.LASF465
 9615 3574 0D       		.byte	0xd
 9616 3575 920B     		.2byte	0xb92
 9617 3577 41       		.uleb128 0x41
 9618 3578 F2180000 		.4byte	.LASF466
 9619 357c F2180000 		.4byte	.LASF466
 9620 3580 0D       		.byte	0xd
 9621 3581 6B0C     		.2byte	0xc6b
 9622 3583 41       		.uleb128 0x41
 9623 3584 E4150000 		.4byte	.LASF467
 9624 3588 E4150000 		.4byte	.LASF467
 9625 358c 0D       		.byte	0xd
 9626 358d 490C     		.2byte	0xc49
 9627 358f 41       		.uleb128 0x41
 9628 3590 291D0000 		.4byte	.LASF468
 9629 3594 291D0000 		.4byte	.LASF468
 9630 3598 0D       		.byte	0xd
 9631 3599 0B0C     		.2byte	0xc0b
 9632 359b 40       		.uleb128 0x40
 9633 359c 370E0000 		.4byte	.LASF469
 9634 35a0 370E0000 		.4byte	.LASF469
 9635 35a4 13       		.byte	0x13
 9636 35a5 47       		.byte	0x47
 9637 35a6 40       		.uleb128 0x40
 9638 35a7 89130000 		.4byte	.LASF470
ARM GAS  C:\Users\Phuong\AppData\Local\Temp\ccP1LXIT.s 			page 189


 9639 35ab 89130000 		.4byte	.LASF470
 9640 35af 12       		.byte	0x12
 9641 35b0 28       		.byte	0x28
 9642 35b1 40       		.uleb128 0x40
 9643 35b2 B9080000 		.4byte	.LASF471
 9644 35b6 B9080000 		.4byte	.LASF471
 9645 35ba 12       		.byte	0x12
 9646 35bb 2A       		.byte	0x2a
 9647 35bc 40       		.uleb128 0x40
 9648 35bd 500C0000 		.4byte	.LASF472
 9649 35c1 500C0000 		.4byte	.LASF472
 9650 35c5 12       		.byte	0x12
 9651 35c6 26       		.byte	0x26
 9652 35c7 40       		.uleb128 0x40
 9653 35c8 5B090000 		.4byte	.LASF473
 9654 35cc 5B090000 		.4byte	.LASF473
 9655 35d0 19       		.byte	0x19
 9656 35d1 1C       		.byte	0x1c
 9657 35d2 40       		.uleb128 0x40
 9658 35d3 641E0000 		.4byte	.LASF474
 9659 35d7 641E0000 		.4byte	.LASF474
 9660 35db 1B       		.byte	0x1b
 9661 35dc 6E       		.byte	0x6e
 9662 35dd 40       		.uleb128 0x40
 9663 35de 901A0000 		.4byte	.LASF475
 9664 35e2 901A0000 		.4byte	.LASF475
 9665 35e6 19       		.byte	0x19
 9666 35e7 21       		.byte	0x21
 9667 35e8 40       		.uleb128 0x40
 9668 35e9 2C130000 		.4byte	.LASF476
 9669 35ed 2C130000 		.4byte	.LASF476
 9670 35f1 0C       		.byte	0xc
 9671 35f2 F9       		.byte	0xf9
 9672 35f3 41       		.uleb128 0x41
 9673 35f4 D0140000 		.4byte	.LASF477
 9674 35f8 D0140000 		.4byte	.LASF477
 9675 35fc 0D       		.byte	0xd
 9676 35fd E507     		.2byte	0x7e5
 9677 35ff 40       		.uleb128 0x40
 9678 3600 A40C0000 		.4byte	.LASF478
 9679 3604 A40C0000 		.4byte	.LASF478
 9680 3608 13       		.byte	0x13
 9681 3609 46       		.byte	0x46
 9682 360a 43       		.uleb128 0x43
 9683 360b 0D       		.uleb128 0xd
 9684 360c 9E       		.byte	0x9e
 9685 360d 0B       		.uleb128 0xb
 9686 360e 70       		.byte	0x70
 9687 360f 72       		.byte	0x72
 9688 3610 6F       		.byte	0x6f
 9689 3611 78       		.byte	0x78
 9690 3612 79       		.byte	0x79
 9691 3613 5F       		.byte	0x5f
 9692 3614 64       		.byte	0x64
 9693 3615 61       		.byte	0x61
 9694 3616 74       		.byte	0x74
 9695 3617 61       		.byte	0x61
ARM GAS  C:\Users\Phuong\AppData\Local\Temp\ccP1LXIT.s 			page 190


 9696 3618 00       		.byte	0
 9697 3619 43       		.uleb128 0x43
 9698 361a 0A       		.uleb128 0xa
 9699 361b 9E       		.byte	0x9e
 9700 361c 08       		.uleb128 0x8
 9701 361d 74       		.byte	0x74
 9702 361e 69       		.byte	0x69
 9703 361f 6D       		.byte	0x6d
 9704 3620 65       		.byte	0x65
 9705 3621 6F       		.byte	0x6f
 9706 3622 75       		.byte	0x75
 9707 3623 74       		.byte	0x74
 9708 3624 00       		.byte	0
 9709 3625 43       		.uleb128 0x43
 9710 3626 0E       		.uleb128 0xe
 9711 3627 9E       		.byte	0x9e
 9712 3628 0C       		.uleb128 0xc
 9713 3629 43       		.byte	0x43
 9714 362a 69       		.byte	0x69
 9715 362b 70       		.byte	0x70
 9716 362c 68       		.byte	0x68
 9717 362d 65       		.byte	0x65
 9718 362e 72       		.byte	0x72
 9719 362f 53       		.byte	0x53
 9720 3630 75       		.byte	0x75
 9721 3631 69       		.byte	0x69
 9722 3632 74       		.byte	0x74
 9723 3633 65       		.byte	0x65
 9724 3634 00       		.byte	0
 9725 3635 43       		.uleb128 0x43
 9726 3636 12       		.uleb128 0x12
 9727 3637 9E       		.byte	0x9e
 9728 3638 10       		.uleb128 0x10
 9729 3639 78       		.byte	0x78
 9730 363a 35       		.byte	0x35
 9731 363b 30       		.byte	0x30
 9732 363c 39       		.byte	0x39
 9733 363d 63       		.byte	0x63
 9734 363e 65       		.byte	0x65
 9735 363f 72       		.byte	0x72
 9736 3640 74       		.byte	0x74
 9737 3641 69       		.byte	0x69
 9738 3642 66       		.byte	0x66
 9739 3643 69       		.byte	0x69
 9740 3644 63       		.byte	0x63
 9741 3645 61       		.byte	0x61
 9742 3646 74       		.byte	0x74
 9743 3647 65       		.byte	0x65
 9744 3648 00       		.byte	0
 9745 3649 43       		.uleb128 0x43
 9746 364a 11       		.uleb128 0x11
 9747 364b 9E       		.byte	0x9e
 9748 364c 0F       		.uleb128 0xf
 9749 364d 78       		.byte	0x78
 9750 364e 35       		.byte	0x35
 9751 364f 30       		.byte	0x30
 9752 3650 39       		.byte	0x39
ARM GAS  C:\Users\Phuong\AppData\Local\Temp\ccP1LXIT.s 			page 191


 9753 3651 70       		.byte	0x70
 9754 3652 72       		.byte	0x72
 9755 3653 69       		.byte	0x69
 9756 3654 76       		.byte	0x76
 9757 3655 61       		.byte	0x61
 9758 3656 74       		.byte	0x74
 9759 3657 65       		.byte	0x65
 9760 3658 6B       		.byte	0x6b
 9761 3659 65       		.byte	0x65
 9762 365a 79       		.byte	0x79
 9763 365b 00       		.byte	0
 9764 365c 43       		.uleb128 0x43
 9765 365d 15       		.uleb128 0x15
 9766 365e 9E       		.byte	0x9e
 9767 365f 13       		.uleb128 0x13
 9768 3660 78       		.byte	0x78
 9769 3661 35       		.byte	0x35
 9770 3662 30       		.byte	0x30
 9771 3663 39       		.byte	0x39
 9772 3664 45       		.byte	0x45
 9773 3665 63       		.byte	0x63
 9774 3666 63       		.byte	0x63
 9775 3667 43       		.byte	0x43
 9776 3668 65       		.byte	0x65
 9777 3669 72       		.byte	0x72
 9778 366a 74       		.byte	0x74
 9779 366b 69       		.byte	0x69
 9780 366c 66       		.byte	0x66
 9781 366d 69       		.byte	0x69
 9782 366e 63       		.byte	0x63
 9783 366f 61       		.byte	0x61
 9784 3670 74       		.byte	0x74
 9785 3671 65       		.byte	0x65
 9786 3672 00       		.byte	0
 9787 3673 43       		.uleb128 0x43
 9788 3674 12       		.uleb128 0x12
 9789 3675 9E       		.byte	0x9e
 9790 3676 10       		.uleb128 0x10
 9791 3677 78       		.byte	0x78
 9792 3678 35       		.byte	0x35
 9793 3679 30       		.byte	0x30
 9794 367a 39       		.byte	0x39
 9795 367b 45       		.byte	0x45
 9796 367c 63       		.byte	0x63
 9797 367d 63       		.byte	0x63
 9798 367e 41       		.byte	0x41
 9799 367f 6C       		.byte	0x6c
 9800 3680 69       		.byte	0x69
 9801 3681 61       		.byte	0x61
 9802 3682 73       		.byte	0x73
 9803 3683 4B       		.byte	0x4b
 9804 3684 65       		.byte	0x65
 9805 3685 79       		.byte	0x79
 9806 3686 00       		.byte	0
 9807 3687 43       		.uleb128 0x43
 9808 3688 1A       		.uleb128 0x1a
 9809 3689 9E       		.byte	0x9e
ARM GAS  C:\Users\Phuong\AppData\Local\Temp\ccP1LXIT.s 			page 192


 9810 368a 18       		.uleb128 0x18
 9811 368b 43       		.byte	0x43
 9812 368c 55       		.byte	0x55
 9813 368d 52       		.byte	0x52
 9814 368e 4C       		.byte	0x4c
 9815 368f 4F       		.byte	0x4f
 9816 3690 50       		.byte	0x50
 9817 3691 54       		.byte	0x54
 9818 3692 5F       		.byte	0x5f
 9819 3693 4C       		.byte	0x4c
 9820 3694 4F       		.byte	0x4f
 9821 3695 57       		.byte	0x57
 9822 3696 5F       		.byte	0x5f
 9823 3697 53       		.byte	0x53
 9824 3698 50       		.byte	0x50
 9825 3699 45       		.byte	0x45
 9826 369a 45       		.byte	0x45
 9827 369b 44       		.byte	0x44
 9828 369c 5F       		.byte	0x5f
 9829 369d 4C       		.byte	0x4c
 9830 369e 49       		.byte	0x49
 9831 369f 4D       		.byte	0x4d
 9832 36a0 49       		.byte	0x49
 9833 36a1 54       		.byte	0x54
 9834 36a2 00       		.byte	0
 9835 36a3 43       		.uleb128 0x43
 9836 36a4 19       		.uleb128 0x19
 9837 36a5 9E       		.byte	0x9e
 9838 36a6 17       		.uleb128 0x17
 9839 36a7 43       		.byte	0x43
 9840 36a8 55       		.byte	0x55
 9841 36a9 52       		.byte	0x52
 9842 36aa 4C       		.byte	0x4c
 9843 36ab 4F       		.byte	0x4f
 9844 36ac 50       		.byte	0x50
 9845 36ad 54       		.byte	0x54
 9846 36ae 5F       		.byte	0x5f
 9847 36af 4C       		.byte	0x4c
 9848 36b0 4F       		.byte	0x4f
 9849 36b1 57       		.byte	0x57
 9850 36b2 5F       		.byte	0x5f
 9851 36b3 53       		.byte	0x53
 9852 36b4 50       		.byte	0x50
 9853 36b5 45       		.byte	0x45
 9854 36b6 45       		.byte	0x45
 9855 36b7 44       		.byte	0x44
 9856 36b8 5F       		.byte	0x5f
 9857 36b9 54       		.byte	0x54
 9858 36ba 49       		.byte	0x49
 9859 36bb 4D       		.byte	0x4d
 9860 36bc 45       		.byte	0x45
 9861 36bd 00       		.byte	0
 9862 36be 43       		.uleb128 0x43
 9863 36bf 18       		.uleb128 0x18
 9864 36c0 9E       		.byte	0x9e
 9865 36c1 16       		.uleb128 0x16
 9866 36c2 43       		.byte	0x43
ARM GAS  C:\Users\Phuong\AppData\Local\Temp\ccP1LXIT.s 			page 193


 9867 36c3 55       		.byte	0x55
 9868 36c4 52       		.byte	0x52
 9869 36c5 4C       		.byte	0x4c
 9870 36c6 4F       		.byte	0x4f
 9871 36c7 50       		.byte	0x50
 9872 36c8 54       		.byte	0x54
 9873 36c9 5F       		.byte	0x5f
 9874 36ca 46       		.byte	0x46
 9875 36cb 52       		.byte	0x52
 9876 36cc 45       		.byte	0x45
 9877 36cd 53       		.byte	0x53
 9878 36ce 48       		.byte	0x48
 9879 36cf 5F       		.byte	0x5f
 9880 36d0 43       		.byte	0x43
 9881 36d1 4F       		.byte	0x4f
 9882 36d2 4E       		.byte	0x4e
 9883 36d3 4E       		.byte	0x4e
 9884 36d4 45       		.byte	0x45
 9885 36d5 43       		.byte	0x43
 9886 36d6 54       		.byte	0x54
 9887 36d7 00       		.byte	0
 9888 36d8 43       		.uleb128 0x43
 9889 36d9 17       		.uleb128 0x17
 9890 36da 9E       		.byte	0x9e
 9891 36db 15       		.uleb128 0x15
 9892 36dc 43       		.byte	0x43
 9893 36dd 55       		.byte	0x55
 9894 36de 52       		.byte	0x52
 9895 36df 4C       		.byte	0x4c
 9896 36e0 4F       		.byte	0x4f
 9897 36e1 50       		.byte	0x50
 9898 36e2 54       		.byte	0x54
 9899 36e3 5F       		.byte	0x5f
 9900 36e4 46       		.byte	0x46
 9901 36e5 4F       		.byte	0x4f
 9902 36e6 52       		.byte	0x52
 9903 36e7 42       		.byte	0x42
 9904 36e8 49       		.byte	0x49
 9905 36e9 44       		.byte	0x44
 9906 36ea 5F       		.byte	0x5f
 9907 36eb 52       		.byte	0x52
 9908 36ec 45       		.byte	0x45
 9909 36ed 55       		.byte	0x55
 9910 36ee 53       		.byte	0x53
 9911 36ef 45       		.byte	0x45
 9912 36f0 00       		.byte	0
 9913 36f1 43       		.uleb128 0x43
 9914 36f2 12       		.uleb128 0x12
 9915 36f3 9E       		.byte	0x9e
 9916 36f4 10       		.uleb128 0x10
 9917 36f5 43       		.byte	0x43
 9918 36f6 55       		.byte	0x55
 9919 36f7 52       		.byte	0x52
 9920 36f8 4C       		.byte	0x4c
 9921 36f9 4F       		.byte	0x4f
 9922 36fa 50       		.byte	0x50
 9923 36fb 54       		.byte	0x54
ARM GAS  C:\Users\Phuong\AppData\Local\Temp\ccP1LXIT.s 			page 194


 9924 36fc 5F       		.byte	0x5f
 9925 36fd 56       		.byte	0x56
 9926 36fe 45       		.byte	0x45
 9927 36ff 52       		.byte	0x52
 9928 3700 42       		.byte	0x42
 9929 3701 4F       		.byte	0x4f
 9930 3702 53       		.byte	0x53
 9931 3703 45       		.byte	0x45
 9932 3704 00       		.byte	0
 9933 3705 43       		.uleb128 0x43
 9934 3706 1C       		.uleb128 0x1c
 9935 3707 9E       		.byte	0x9e
 9936 3708 1A       		.uleb128 0x1a
 9937 3709 6E       		.byte	0x6e
 9938 370a 65       		.byte	0x65
 9939 370b 74       		.byte	0x74
 9940 370c 5F       		.byte	0x5f
 9941 370d 69       		.byte	0x69
 9942 370e 6E       		.byte	0x6e
 9943 370f 74       		.byte	0x74
 9944 3710 65       		.byte	0x65
 9945 3711 72       		.byte	0x72
 9946 3712 66       		.byte	0x66
 9947 3713 61       		.byte	0x61
 9948 3714 63       		.byte	0x63
 9949 3715 65       		.byte	0x65
 9950 3716 5F       		.byte	0x5f
 9951 3717 6D       		.byte	0x6d
 9952 3718 61       		.byte	0x61
 9953 3719 63       		.byte	0x63
 9954 371a 5F       		.byte	0x5f
 9955 371b 61       		.byte	0x61
 9956 371c 64       		.byte	0x64
 9957 371d 64       		.byte	0x64
 9958 371e 72       		.byte	0x72
 9959 371f 65       		.byte	0x65
 9960 3720 73       		.byte	0x73
 9961 3721 73       		.byte	0x73
 9962 3722 00       		.byte	0
 9963 3723 43       		.uleb128 0x43
 9964 3724 0E       		.uleb128 0xe
 9965 3725 9E       		.byte	0x9e
 9966 3726 0C       		.uleb128 0xc
 9967 3727 74       		.byte	0x74
 9968 3728 6C       		.byte	0x6c
 9969 3729 73       		.byte	0x73
 9970 372a 5F       		.byte	0x5f
 9971 372b 76       		.byte	0x76
 9972 372c 65       		.byte	0x65
 9973 372d 72       		.byte	0x72
 9974 372e 73       		.byte	0x73
 9975 372f 69       		.byte	0x69
 9976 3730 6F       		.byte	0x6f
 9977 3731 6E       		.byte	0x6e
 9978 3732 00       		.byte	0
 9979 3733 43       		.uleb128 0x43
 9980 3734 0F       		.uleb128 0xf
ARM GAS  C:\Users\Phuong\AppData\Local\Temp\ccP1LXIT.s 			page 195


 9981 3735 9E       		.byte	0x9e
 9982 3736 0D       		.uleb128 0xd
 9983 3737 41       		.byte	0x41
 9984 3738 44       		.byte	0x44
 9985 3739 44       		.byte	0x44
 9986 373a 52       		.byte	0x52
 9987 373b 45       		.byte	0x45
 9988 373c 53       		.byte	0x53
 9989 373d 53       		.byte	0x53
 9990 373e 5F       		.byte	0x5f
 9991 373f 54       		.byte	0x54
 9992 3740 59       		.byte	0x59
 9993 3741 50       		.byte	0x50
 9994 3742 45       		.byte	0x45
 9995 3743 00       		.byte	0
 9996 3744 43       		.uleb128 0x43
 9997 3745 10       		.uleb128 0x10
 9998 3746 9E       		.byte	0x9e
 9999 3747 0E       		.uleb128 0xe
 10000 3748 44       		.byte	0x44
 10001 3749 4F       		.byte	0x4f
 10002 374a 4D       		.byte	0x4d
 10003 374b 41       		.byte	0x41
 10004 374c 49       		.byte	0x49
 10005 374d 4E       		.byte	0x4e
 10006 374e 5F       		.byte	0x5f
 10007 374f 53       		.byte	0x53
 10008 3750 4F       		.byte	0x4f
 10009 3751 43       		.byte	0x43
 10010 3752 4B       		.byte	0x4b
 10011 3753 45       		.byte	0x45
 10012 3754 54       		.byte	0x54
 10013 3755 00       		.byte	0
 10014 3756 43       		.uleb128 0x43
 10015 3757 0C       		.uleb128 0xc
 10016 3758 9E       		.byte	0x9e
 10017 3759 0A       		.uleb128 0xa
 10018 375a 49       		.byte	0x49
 10019 375b 50       		.byte	0x50
 10020 375c 5F       		.byte	0x5f
 10021 375d 53       		.byte	0x53
 10022 375e 4F       		.byte	0x4f
 10023 375f 43       		.byte	0x43
 10024 3760 4B       		.byte	0x4b
 10025 3761 45       		.byte	0x45
 10026 3762 54       		.byte	0x54
 10027 3763 00       		.byte	0
 10028 3764 00       		.byte	0
 10029              		.section	.debug_abbrev,"",%progbits
 10030              	.Ldebug_abbrev0:
 10031 0000 01       		.uleb128 0x1
 10032 0001 11       		.uleb128 0x11
 10033 0002 01       		.byte	0x1
 10034 0003 25       		.uleb128 0x25
 10035 0004 0E       		.uleb128 0xe
 10036 0005 13       		.uleb128 0x13
 10037 0006 0B       		.uleb128 0xb
ARM GAS  C:\Users\Phuong\AppData\Local\Temp\ccP1LXIT.s 			page 196


 10038 0007 03       		.uleb128 0x3
 10039 0008 0E       		.uleb128 0xe
 10040 0009 1B       		.uleb128 0x1b
 10041 000a 0E       		.uleb128 0xe
 10042 000b 55       		.uleb128 0x55
 10043 000c 17       		.uleb128 0x17
 10044 000d 11       		.uleb128 0x11
 10045 000e 01       		.uleb128 0x1
 10046 000f 10       		.uleb128 0x10
 10047 0010 17       		.uleb128 0x17
 10048 0011 00       		.byte	0
 10049 0012 00       		.byte	0
 10050 0013 02       		.uleb128 0x2
 10051 0014 16       		.uleb128 0x16
 10052 0015 00       		.byte	0
 10053 0016 03       		.uleb128 0x3
 10054 0017 0E       		.uleb128 0xe
 10055 0018 3A       		.uleb128 0x3a
 10056 0019 0B       		.uleb128 0xb
 10057 001a 3B       		.uleb128 0x3b
 10058 001b 0B       		.uleb128 0xb
 10059 001c 49       		.uleb128 0x49
 10060 001d 13       		.uleb128 0x13
 10061 001e 00       		.byte	0
 10062 001f 00       		.byte	0
 10063 0020 03       		.uleb128 0x3
 10064 0021 24       		.uleb128 0x24
 10065 0022 00       		.byte	0
 10066 0023 0B       		.uleb128 0xb
 10067 0024 0B       		.uleb128 0xb
 10068 0025 3E       		.uleb128 0x3e
 10069 0026 0B       		.uleb128 0xb
 10070 0027 03       		.uleb128 0x3
 10071 0028 0E       		.uleb128 0xe
 10072 0029 00       		.byte	0
 10073 002a 00       		.byte	0
 10074 002b 04       		.uleb128 0x4
 10075 002c 24       		.uleb128 0x24
 10076 002d 00       		.byte	0
 10077 002e 0B       		.uleb128 0xb
 10078 002f 0B       		.uleb128 0xb
 10079 0030 3E       		.uleb128 0x3e
 10080 0031 0B       		.uleb128 0xb
 10081 0032 03       		.uleb128 0x3
 10082 0033 08       		.uleb128 0x8
 10083 0034 00       		.byte	0
 10084 0035 00       		.byte	0
 10085 0036 05       		.uleb128 0x5
 10086 0037 0F       		.uleb128 0xf
 10087 0038 00       		.byte	0
 10088 0039 0B       		.uleb128 0xb
 10089 003a 0B       		.uleb128 0xb
 10090 003b 00       		.byte	0
 10091 003c 00       		.byte	0
 10092 003d 06       		.uleb128 0x6
 10093 003e 0F       		.uleb128 0xf
 10094 003f 00       		.byte	0
ARM GAS  C:\Users\Phuong\AppData\Local\Temp\ccP1LXIT.s 			page 197


 10095 0040 0B       		.uleb128 0xb
 10096 0041 0B       		.uleb128 0xb
 10097 0042 49       		.uleb128 0x49
 10098 0043 13       		.uleb128 0x13
 10099 0044 00       		.byte	0
 10100 0045 00       		.byte	0
 10101 0046 07       		.uleb128 0x7
 10102 0047 26       		.uleb128 0x26
 10103 0048 00       		.byte	0
 10104 0049 49       		.uleb128 0x49
 10105 004a 13       		.uleb128 0x13
 10106 004b 00       		.byte	0
 10107 004c 00       		.byte	0
 10108 004d 08       		.uleb128 0x8
 10109 004e 26       		.uleb128 0x26
 10110 004f 00       		.byte	0
 10111 0050 00       		.byte	0
 10112 0051 00       		.byte	0
 10113 0052 09       		.uleb128 0x9
 10114 0053 13       		.uleb128 0x13
 10115 0054 01       		.byte	0x1
 10116 0055 03       		.uleb128 0x3
 10117 0056 0E       		.uleb128 0xe
 10118 0057 0B       		.uleb128 0xb
 10119 0058 0B       		.uleb128 0xb
 10120 0059 3A       		.uleb128 0x3a
 10121 005a 0B       		.uleb128 0xb
 10122 005b 3B       		.uleb128 0x3b
 10123 005c 0B       		.uleb128 0xb
 10124 005d 01       		.uleb128 0x1
 10125 005e 13       		.uleb128 0x13
 10126 005f 00       		.byte	0
 10127 0060 00       		.byte	0
 10128 0061 0A       		.uleb128 0xa
 10129 0062 0D       		.uleb128 0xd
 10130 0063 00       		.byte	0
 10131 0064 03       		.uleb128 0x3
 10132 0065 08       		.uleb128 0x8
 10133 0066 3A       		.uleb128 0x3a
 10134 0067 0B       		.uleb128 0xb
 10135 0068 3B       		.uleb128 0x3b
 10136 0069 0B       		.uleb128 0xb
 10137 006a 49       		.uleb128 0x49
 10138 006b 13       		.uleb128 0x13
 10139 006c 38       		.uleb128 0x38
 10140 006d 0B       		.uleb128 0xb
 10141 006e 00       		.byte	0
 10142 006f 00       		.byte	0
 10143 0070 0B       		.uleb128 0xb
 10144 0071 04       		.uleb128 0x4
 10145 0072 01       		.byte	0x1
 10146 0073 0B       		.uleb128 0xb
 10147 0074 0B       		.uleb128 0xb
 10148 0075 49       		.uleb128 0x49
 10149 0076 13       		.uleb128 0x13
 10150 0077 3A       		.uleb128 0x3a
 10151 0078 0B       		.uleb128 0xb
ARM GAS  C:\Users\Phuong\AppData\Local\Temp\ccP1LXIT.s 			page 198


 10152 0079 3B       		.uleb128 0x3b
 10153 007a 0B       		.uleb128 0xb
 10154 007b 01       		.uleb128 0x1
 10155 007c 13       		.uleb128 0x13
 10156 007d 00       		.byte	0
 10157 007e 00       		.byte	0
 10158 007f 0C       		.uleb128 0xc
 10159 0080 28       		.uleb128 0x28
 10160 0081 00       		.byte	0
 10161 0082 03       		.uleb128 0x3
 10162 0083 0E       		.uleb128 0xe
 10163 0084 1C       		.uleb128 0x1c
 10164 0085 0B       		.uleb128 0xb
 10165 0086 00       		.byte	0
 10166 0087 00       		.byte	0
 10167 0088 0D       		.uleb128 0xd
 10168 0089 13       		.uleb128 0x13
 10169 008a 00       		.byte	0
 10170 008b 03       		.uleb128 0x3
 10171 008c 0E       		.uleb128 0xe
 10172 008d 3C       		.uleb128 0x3c
 10173 008e 19       		.uleb128 0x19
 10174 008f 00       		.byte	0
 10175 0090 00       		.byte	0
 10176 0091 0E       		.uleb128 0xe
 10177 0092 0D       		.uleb128 0xd
 10178 0093 00       		.byte	0
 10179 0094 03       		.uleb128 0x3
 10180 0095 0E       		.uleb128 0xe
 10181 0096 3A       		.uleb128 0x3a
 10182 0097 0B       		.uleb128 0xb
 10183 0098 3B       		.uleb128 0x3b
 10184 0099 0B       		.uleb128 0xb
 10185 009a 49       		.uleb128 0x49
 10186 009b 13       		.uleb128 0x13
 10187 009c 38       		.uleb128 0x38
 10188 009d 0B       		.uleb128 0xb
 10189 009e 00       		.byte	0
 10190 009f 00       		.byte	0
 10191 00a0 0F       		.uleb128 0xf
 10192 00a1 15       		.uleb128 0x15
 10193 00a2 01       		.byte	0x1
 10194 00a3 27       		.uleb128 0x27
 10195 00a4 19       		.uleb128 0x19
 10196 00a5 49       		.uleb128 0x49
 10197 00a6 13       		.uleb128 0x13
 10198 00a7 01       		.uleb128 0x1
 10199 00a8 13       		.uleb128 0x13
 10200 00a9 00       		.byte	0
 10201 00aa 00       		.byte	0
 10202 00ab 10       		.uleb128 0x10
 10203 00ac 05       		.uleb128 0x5
 10204 00ad 00       		.byte	0
 10205 00ae 49       		.uleb128 0x49
 10206 00af 13       		.uleb128 0x13
 10207 00b0 00       		.byte	0
 10208 00b1 00       		.byte	0
ARM GAS  C:\Users\Phuong\AppData\Local\Temp\ccP1LXIT.s 			page 199


 10209 00b2 11       		.uleb128 0x11
 10210 00b3 01       		.uleb128 0x1
 10211 00b4 01       		.byte	0x1
 10212 00b5 49       		.uleb128 0x49
 10213 00b6 13       		.uleb128 0x13
 10214 00b7 01       		.uleb128 0x1
 10215 00b8 13       		.uleb128 0x13
 10216 00b9 00       		.byte	0
 10217 00ba 00       		.byte	0
 10218 00bb 12       		.uleb128 0x12
 10219 00bc 21       		.uleb128 0x21
 10220 00bd 00       		.byte	0
 10221 00be 49       		.uleb128 0x49
 10222 00bf 13       		.uleb128 0x13
 10223 00c0 2F       		.uleb128 0x2f
 10224 00c1 0B       		.uleb128 0xb
 10225 00c2 00       		.byte	0
 10226 00c3 00       		.byte	0
 10227 00c4 13       		.uleb128 0x13
 10228 00c5 13       		.uleb128 0x13
 10229 00c6 01       		.byte	0x1
 10230 00c7 03       		.uleb128 0x3
 10231 00c8 0E       		.uleb128 0xe
 10232 00c9 0B       		.uleb128 0xb
 10233 00ca 05       		.uleb128 0x5
 10234 00cb 3A       		.uleb128 0x3a
 10235 00cc 0B       		.uleb128 0xb
 10236 00cd 3B       		.uleb128 0x3b
 10237 00ce 0B       		.uleb128 0xb
 10238 00cf 01       		.uleb128 0x1
 10239 00d0 13       		.uleb128 0x13
 10240 00d1 00       		.byte	0
 10241 00d2 00       		.byte	0
 10242 00d3 14       		.uleb128 0x14
 10243 00d4 0D       		.uleb128 0xd
 10244 00d5 00       		.byte	0
 10245 00d6 03       		.uleb128 0x3
 10246 00d7 0E       		.uleb128 0xe
 10247 00d8 3A       		.uleb128 0x3a
 10248 00d9 0B       		.uleb128 0xb
 10249 00da 3B       		.uleb128 0x3b
 10250 00db 0B       		.uleb128 0xb
 10251 00dc 49       		.uleb128 0x49
 10252 00dd 13       		.uleb128 0x13
 10253 00de 38       		.uleb128 0x38
 10254 00df 05       		.uleb128 0x5
 10255 00e0 00       		.byte	0
 10256 00e1 00       		.byte	0
 10257 00e2 15       		.uleb128 0x15
 10258 00e3 0D       		.uleb128 0xd
 10259 00e4 00       		.byte	0
 10260 00e5 03       		.uleb128 0x3
 10261 00e6 08       		.uleb128 0x8
 10262 00e7 3A       		.uleb128 0x3a
 10263 00e8 0B       		.uleb128 0xb
 10264 00e9 3B       		.uleb128 0x3b
 10265 00ea 0B       		.uleb128 0xb
ARM GAS  C:\Users\Phuong\AppData\Local\Temp\ccP1LXIT.s 			page 200


 10266 00eb 49       		.uleb128 0x49
 10267 00ec 13       		.uleb128 0x13
 10268 00ed 38       		.uleb128 0x38
 10269 00ee 05       		.uleb128 0x5
 10270 00ef 00       		.byte	0
 10271 00f0 00       		.byte	0
 10272 00f1 16       		.uleb128 0x16
 10273 00f2 16       		.uleb128 0x16
 10274 00f3 00       		.byte	0
 10275 00f4 03       		.uleb128 0x3
 10276 00f5 0E       		.uleb128 0xe
 10277 00f6 3A       		.uleb128 0x3a
 10278 00f7 0B       		.uleb128 0xb
 10279 00f8 3B       		.uleb128 0x3b
 10280 00f9 05       		.uleb128 0x5
 10281 00fa 49       		.uleb128 0x49
 10282 00fb 13       		.uleb128 0x13
 10283 00fc 00       		.byte	0
 10284 00fd 00       		.byte	0
 10285 00fe 17       		.uleb128 0x17
 10286 00ff 15       		.uleb128 0x15
 10287 0100 01       		.byte	0x1
 10288 0101 27       		.uleb128 0x27
 10289 0102 19       		.uleb128 0x19
 10290 0103 01       		.uleb128 0x1
 10291 0104 13       		.uleb128 0x13
 10292 0105 00       		.byte	0
 10293 0106 00       		.byte	0
 10294 0107 18       		.uleb128 0x18
 10295 0108 13       		.uleb128 0x13
 10296 0109 01       		.byte	0x1
 10297 010a 03       		.uleb128 0x3
 10298 010b 0E       		.uleb128 0xe
 10299 010c 0B       		.uleb128 0xb
 10300 010d 0B       		.uleb128 0xb
 10301 010e 3A       		.uleb128 0x3a
 10302 010f 0B       		.uleb128 0xb
 10303 0110 3B       		.uleb128 0x3b
 10304 0111 05       		.uleb128 0x5
 10305 0112 01       		.uleb128 0x1
 10306 0113 13       		.uleb128 0x13
 10307 0114 00       		.byte	0
 10308 0115 00       		.byte	0
 10309 0116 19       		.uleb128 0x19
 10310 0117 0D       		.uleb128 0xd
 10311 0118 00       		.byte	0
 10312 0119 03       		.uleb128 0x3
 10313 011a 0E       		.uleb128 0xe
 10314 011b 3A       		.uleb128 0x3a
 10315 011c 0B       		.uleb128 0xb
 10316 011d 3B       		.uleb128 0x3b
 10317 011e 05       		.uleb128 0x5
 10318 011f 49       		.uleb128 0x49
 10319 0120 13       		.uleb128 0x13
 10320 0121 38       		.uleb128 0x38
 10321 0122 0B       		.uleb128 0xb
 10322 0123 00       		.byte	0
ARM GAS  C:\Users\Phuong\AppData\Local\Temp\ccP1LXIT.s 			page 201


 10323 0124 00       		.byte	0
 10324 0125 1A       		.uleb128 0x1a
 10325 0126 0D       		.uleb128 0xd
 10326 0127 00       		.byte	0
 10327 0128 03       		.uleb128 0x3
 10328 0129 08       		.uleb128 0x8
 10329 012a 3A       		.uleb128 0x3a
 10330 012b 0B       		.uleb128 0xb
 10331 012c 3B       		.uleb128 0x3b
 10332 012d 05       		.uleb128 0x5
 10333 012e 49       		.uleb128 0x49
 10334 012f 13       		.uleb128 0x13
 10335 0130 38       		.uleb128 0x38
 10336 0131 0B       		.uleb128 0xb
 10337 0132 00       		.byte	0
 10338 0133 00       		.byte	0
 10339 0134 1B       		.uleb128 0x1b
 10340 0135 13       		.uleb128 0x13
 10341 0136 01       		.byte	0x1
 10342 0137 03       		.uleb128 0x3
 10343 0138 0E       		.uleb128 0xe
 10344 0139 0B       		.uleb128 0xb
 10345 013a 05       		.uleb128 0x5
 10346 013b 3A       		.uleb128 0x3a
 10347 013c 0B       		.uleb128 0xb
 10348 013d 3B       		.uleb128 0x3b
 10349 013e 05       		.uleb128 0x5
 10350 013f 01       		.uleb128 0x1
 10351 0140 13       		.uleb128 0x13
 10352 0141 00       		.byte	0
 10353 0142 00       		.byte	0
 10354 0143 1C       		.uleb128 0x1c
 10355 0144 0D       		.uleb128 0xd
 10356 0145 00       		.byte	0
 10357 0146 03       		.uleb128 0x3
 10358 0147 0E       		.uleb128 0xe
 10359 0148 3A       		.uleb128 0x3a
 10360 0149 0B       		.uleb128 0xb
 10361 014a 3B       		.uleb128 0x3b
 10362 014b 05       		.uleb128 0x5
 10363 014c 49       		.uleb128 0x49
 10364 014d 13       		.uleb128 0x13
 10365 014e 38       		.uleb128 0x38
 10366 014f 05       		.uleb128 0x5
 10367 0150 00       		.byte	0
 10368 0151 00       		.byte	0
 10369 0152 1D       		.uleb128 0x1d
 10370 0153 0D       		.uleb128 0xd
 10371 0154 00       		.byte	0
 10372 0155 03       		.uleb128 0x3
 10373 0156 0E       		.uleb128 0xe
 10374 0157 3A       		.uleb128 0x3a
 10375 0158 0B       		.uleb128 0xb
 10376 0159 3B       		.uleb128 0x3b
 10377 015a 05       		.uleb128 0x5
 10378 015b 49       		.uleb128 0x49
 10379 015c 13       		.uleb128 0x13
ARM GAS  C:\Users\Phuong\AppData\Local\Temp\ccP1LXIT.s 			page 202


 10380 015d 0B       		.uleb128 0xb
 10381 015e 0B       		.uleb128 0xb
 10382 015f 0D       		.uleb128 0xd
 10383 0160 0B       		.uleb128 0xb
 10384 0161 0C       		.uleb128 0xc
 10385 0162 0B       		.uleb128 0xb
 10386 0163 38       		.uleb128 0x38
 10387 0164 0B       		.uleb128 0xb
 10388 0165 00       		.byte	0
 10389 0166 00       		.byte	0
 10390 0167 1E       		.uleb128 0x1e
 10391 0168 04       		.uleb128 0x4
 10392 0169 01       		.byte	0x1
 10393 016a 03       		.uleb128 0x3
 10394 016b 0E       		.uleb128 0xe
 10395 016c 0B       		.uleb128 0xb
 10396 016d 0B       		.uleb128 0xb
 10397 016e 49       		.uleb128 0x49
 10398 016f 13       		.uleb128 0x13
 10399 0170 3A       		.uleb128 0x3a
 10400 0171 0B       		.uleb128 0xb
 10401 0172 3B       		.uleb128 0x3b
 10402 0173 0B       		.uleb128 0xb
 10403 0174 01       		.uleb128 0x1
 10404 0175 13       		.uleb128 0x13
 10405 0176 00       		.byte	0
 10406 0177 00       		.byte	0
 10407 0178 1F       		.uleb128 0x1f
 10408 0179 18       		.uleb128 0x18
 10409 017a 00       		.byte	0
 10410 017b 00       		.byte	0
 10411 017c 00       		.byte	0
 10412 017d 20       		.uleb128 0x20
 10413 017e 2E       		.uleb128 0x2e
 10414 017f 01       		.byte	0x1
 10415 0180 03       		.uleb128 0x3
 10416 0181 0E       		.uleb128 0xe
 10417 0182 3A       		.uleb128 0x3a
 10418 0183 0B       		.uleb128 0xb
 10419 0184 3B       		.uleb128 0x3b
 10420 0185 0B       		.uleb128 0xb
 10421 0186 27       		.uleb128 0x27
 10422 0187 19       		.uleb128 0x19
 10423 0188 11       		.uleb128 0x11
 10424 0189 01       		.uleb128 0x1
 10425 018a 12       		.uleb128 0x12
 10426 018b 06       		.uleb128 0x6
 10427 018c 40       		.uleb128 0x40
 10428 018d 18       		.uleb128 0x18
 10429 018e 9642     		.uleb128 0x2116
 10430 0190 19       		.uleb128 0x19
 10431 0191 01       		.uleb128 0x1
 10432 0192 13       		.uleb128 0x13
 10433 0193 00       		.byte	0
 10434 0194 00       		.byte	0
 10435 0195 21       		.uleb128 0x21
 10436 0196 05       		.uleb128 0x5
ARM GAS  C:\Users\Phuong\AppData\Local\Temp\ccP1LXIT.s 			page 203


 10437 0197 00       		.byte	0
 10438 0198 03       		.uleb128 0x3
 10439 0199 0E       		.uleb128 0xe
 10440 019a 3A       		.uleb128 0x3a
 10441 019b 0B       		.uleb128 0xb
 10442 019c 3B       		.uleb128 0x3b
 10443 019d 0B       		.uleb128 0xb
 10444 019e 49       		.uleb128 0x49
 10445 019f 13       		.uleb128 0x13
 10446 01a0 02       		.uleb128 0x2
 10447 01a1 17       		.uleb128 0x17
 10448 01a2 00       		.byte	0
 10449 01a3 00       		.byte	0
 10450 01a4 22       		.uleb128 0x22
 10451 01a5 34       		.uleb128 0x34
 10452 01a6 00       		.byte	0
 10453 01a7 03       		.uleb128 0x3
 10454 01a8 0E       		.uleb128 0xe
 10455 01a9 49       		.uleb128 0x49
 10456 01aa 13       		.uleb128 0x13
 10457 01ab 34       		.uleb128 0x34
 10458 01ac 19       		.uleb128 0x19
 10459 01ad 02       		.uleb128 0x2
 10460 01ae 18       		.uleb128 0x18
 10461 01af 00       		.byte	0
 10462 01b0 00       		.byte	0
 10463 01b1 23       		.uleb128 0x23
 10464 01b2 0B       		.uleb128 0xb
 10465 01b3 01       		.byte	0x1
 10466 01b4 11       		.uleb128 0x11
 10467 01b5 01       		.uleb128 0x1
 10468 01b6 12       		.uleb128 0x12
 10469 01b7 06       		.uleb128 0x6
 10470 01b8 01       		.uleb128 0x1
 10471 01b9 13       		.uleb128 0x13
 10472 01ba 00       		.byte	0
 10473 01bb 00       		.byte	0
 10474 01bc 24       		.uleb128 0x24
 10475 01bd 34       		.uleb128 0x34
 10476 01be 00       		.byte	0
 10477 01bf 03       		.uleb128 0x3
 10478 01c0 08       		.uleb128 0x8
 10479 01c1 3A       		.uleb128 0x3a
 10480 01c2 0B       		.uleb128 0xb
 10481 01c3 3B       		.uleb128 0x3b
 10482 01c4 0B       		.uleb128 0xb
 10483 01c5 49       		.uleb128 0x49
 10484 01c6 13       		.uleb128 0x13
 10485 01c7 02       		.uleb128 0x2
 10486 01c8 17       		.uleb128 0x17
 10487 01c9 00       		.byte	0
 10488 01ca 00       		.byte	0
 10489 01cb 25       		.uleb128 0x25
 10490 01cc 898201   		.uleb128 0x4109
 10491 01cf 00       		.byte	0
 10492 01d0 11       		.uleb128 0x11
 10493 01d1 01       		.uleb128 0x1
ARM GAS  C:\Users\Phuong\AppData\Local\Temp\ccP1LXIT.s 			page 204


 10494 01d2 31       		.uleb128 0x31
 10495 01d3 13       		.uleb128 0x13
 10496 01d4 00       		.byte	0
 10497 01d5 00       		.byte	0
 10498 01d6 26       		.uleb128 0x26
 10499 01d7 898201   		.uleb128 0x4109
 10500 01da 01       		.byte	0x1
 10501 01db 11       		.uleb128 0x11
 10502 01dc 01       		.uleb128 0x1
 10503 01dd 9342     		.uleb128 0x2113
 10504 01df 18       		.uleb128 0x18
 10505 01e0 00       		.byte	0
 10506 01e1 00       		.byte	0
 10507 01e2 27       		.uleb128 0x27
 10508 01e3 8A8201   		.uleb128 0x410a
 10509 01e6 00       		.byte	0
 10510 01e7 02       		.uleb128 0x2
 10511 01e8 18       		.uleb128 0x18
 10512 01e9 9142     		.uleb128 0x2111
 10513 01eb 18       		.uleb128 0x18
 10514 01ec 00       		.byte	0
 10515 01ed 00       		.byte	0
 10516 01ee 28       		.uleb128 0x28
 10517 01ef 0B       		.uleb128 0xb
 10518 01f0 01       		.byte	0x1
 10519 01f1 11       		.uleb128 0x11
 10520 01f2 01       		.uleb128 0x1
 10521 01f3 12       		.uleb128 0x12
 10522 01f4 06       		.uleb128 0x6
 10523 01f5 00       		.byte	0
 10524 01f6 00       		.byte	0
 10525 01f7 29       		.uleb128 0x29
 10526 01f8 34       		.uleb128 0x34
 10527 01f9 00       		.byte	0
 10528 01fa 03       		.uleb128 0x3
 10529 01fb 0E       		.uleb128 0xe
 10530 01fc 3A       		.uleb128 0x3a
 10531 01fd 0B       		.uleb128 0xb
 10532 01fe 3B       		.uleb128 0x3b
 10533 01ff 0B       		.uleb128 0xb
 10534 0200 49       		.uleb128 0x49
 10535 0201 13       		.uleb128 0x13
 10536 0202 02       		.uleb128 0x2
 10537 0203 17       		.uleb128 0x17
 10538 0204 00       		.byte	0
 10539 0205 00       		.byte	0
 10540 0206 2A       		.uleb128 0x2a
 10541 0207 2E       		.uleb128 0x2e
 10542 0208 01       		.byte	0x1
 10543 0209 03       		.uleb128 0x3
 10544 020a 0E       		.uleb128 0xe
 10545 020b 3A       		.uleb128 0x3a
 10546 020c 0B       		.uleb128 0xb
 10547 020d 3B       		.uleb128 0x3b
 10548 020e 05       		.uleb128 0x5
 10549 020f 27       		.uleb128 0x27
 10550 0210 19       		.uleb128 0x19
ARM GAS  C:\Users\Phuong\AppData\Local\Temp\ccP1LXIT.s 			page 205


 10551 0211 11       		.uleb128 0x11
 10552 0212 01       		.uleb128 0x1
 10553 0213 12       		.uleb128 0x12
 10554 0214 06       		.uleb128 0x6
 10555 0215 40       		.uleb128 0x40
 10556 0216 18       		.uleb128 0x18
 10557 0217 9742     		.uleb128 0x2117
 10558 0219 19       		.uleb128 0x19
 10559 021a 01       		.uleb128 0x1
 10560 021b 13       		.uleb128 0x13
 10561 021c 00       		.byte	0
 10562 021d 00       		.byte	0
 10563 021e 2B       		.uleb128 0x2b
 10564 021f 05       		.uleb128 0x5
 10565 0220 00       		.byte	0
 10566 0221 03       		.uleb128 0x3
 10567 0222 0E       		.uleb128 0xe
 10568 0223 3A       		.uleb128 0x3a
 10569 0224 0B       		.uleb128 0xb
 10570 0225 3B       		.uleb128 0x3b
 10571 0226 05       		.uleb128 0x5
 10572 0227 49       		.uleb128 0x49
 10573 0228 13       		.uleb128 0x13
 10574 0229 02       		.uleb128 0x2
 10575 022a 17       		.uleb128 0x17
 10576 022b 00       		.byte	0
 10577 022c 00       		.byte	0
 10578 022d 2C       		.uleb128 0x2c
 10579 022e 34       		.uleb128 0x34
 10580 022f 00       		.byte	0
 10581 0230 03       		.uleb128 0x3
 10582 0231 0E       		.uleb128 0xe
 10583 0232 3A       		.uleb128 0x3a
 10584 0233 0B       		.uleb128 0xb
 10585 0234 3B       		.uleb128 0x3b
 10586 0235 05       		.uleb128 0x5
 10587 0236 49       		.uleb128 0x49
 10588 0237 13       		.uleb128 0x13
 10589 0238 02       		.uleb128 0x2
 10590 0239 18       		.uleb128 0x18
 10591 023a 00       		.byte	0
 10592 023b 00       		.byte	0
 10593 023c 2D       		.uleb128 0x2d
 10594 023d 898201   		.uleb128 0x4109
 10595 0240 01       		.byte	0x1
 10596 0241 11       		.uleb128 0x11
 10597 0242 01       		.uleb128 0x1
 10598 0243 31       		.uleb128 0x31
 10599 0244 13       		.uleb128 0x13
 10600 0245 01       		.uleb128 0x1
 10601 0246 13       		.uleb128 0x13
 10602 0247 00       		.byte	0
 10603 0248 00       		.byte	0
 10604 0249 2E       		.uleb128 0x2e
 10605 024a 898201   		.uleb128 0x4109
 10606 024d 01       		.byte	0x1
 10607 024e 11       		.uleb128 0x11
ARM GAS  C:\Users\Phuong\AppData\Local\Temp\ccP1LXIT.s 			page 206


 10608 024f 01       		.uleb128 0x1
 10609 0250 31       		.uleb128 0x31
 10610 0251 13       		.uleb128 0x13
 10611 0252 00       		.byte	0
 10612 0253 00       		.byte	0
 10613 0254 2F       		.uleb128 0x2f
 10614 0255 2E       		.uleb128 0x2e
 10615 0256 01       		.byte	0x1
 10616 0257 3F       		.uleb128 0x3f
 10617 0258 19       		.uleb128 0x19
 10618 0259 03       		.uleb128 0x3
 10619 025a 0E       		.uleb128 0xe
 10620 025b 3A       		.uleb128 0x3a
 10621 025c 0B       		.uleb128 0xb
 10622 025d 3B       		.uleb128 0x3b
 10623 025e 05       		.uleb128 0x5
 10624 025f 27       		.uleb128 0x27
 10625 0260 19       		.uleb128 0x19
 10626 0261 49       		.uleb128 0x49
 10627 0262 13       		.uleb128 0x13
 10628 0263 11       		.uleb128 0x11
 10629 0264 01       		.uleb128 0x1
 10630 0265 12       		.uleb128 0x12
 10631 0266 06       		.uleb128 0x6
 10632 0267 40       		.uleb128 0x40
 10633 0268 18       		.uleb128 0x18
 10634 0269 9742     		.uleb128 0x2117
 10635 026b 19       		.uleb128 0x19
 10636 026c 01       		.uleb128 0x1
 10637 026d 13       		.uleb128 0x13
 10638 026e 00       		.byte	0
 10639 026f 00       		.byte	0
 10640 0270 30       		.uleb128 0x30
 10641 0271 34       		.uleb128 0x34
 10642 0272 00       		.byte	0
 10643 0273 03       		.uleb128 0x3
 10644 0274 0E       		.uleb128 0xe
 10645 0275 3A       		.uleb128 0x3a
 10646 0276 0B       		.uleb128 0xb
 10647 0277 3B       		.uleb128 0x3b
 10648 0278 05       		.uleb128 0x5
 10649 0279 49       		.uleb128 0x49
 10650 027a 13       		.uleb128 0x13
 10651 027b 02       		.uleb128 0x2
 10652 027c 17       		.uleb128 0x17
 10653 027d 00       		.byte	0
 10654 027e 00       		.byte	0
 10655 027f 31       		.uleb128 0x31
 10656 0280 34       		.uleb128 0x34
 10657 0281 00       		.byte	0
 10658 0282 03       		.uleb128 0x3
 10659 0283 08       		.uleb128 0x8
 10660 0284 3A       		.uleb128 0x3a
 10661 0285 0B       		.uleb128 0xb
 10662 0286 3B       		.uleb128 0x3b
 10663 0287 05       		.uleb128 0x5
 10664 0288 49       		.uleb128 0x49
ARM GAS  C:\Users\Phuong\AppData\Local\Temp\ccP1LXIT.s 			page 207


 10665 0289 13       		.uleb128 0x13
 10666 028a 02       		.uleb128 0x2
 10667 028b 17       		.uleb128 0x17
 10668 028c 00       		.byte	0
 10669 028d 00       		.byte	0
 10670 028e 32       		.uleb128 0x32
 10671 028f 2E       		.uleb128 0x2e
 10672 0290 01       		.byte	0x1
 10673 0291 03       		.uleb128 0x3
 10674 0292 0E       		.uleb128 0xe
 10675 0293 3A       		.uleb128 0x3a
 10676 0294 0B       		.uleb128 0xb
 10677 0295 3B       		.uleb128 0x3b
 10678 0296 05       		.uleb128 0x5
 10679 0297 27       		.uleb128 0x27
 10680 0298 19       		.uleb128 0x19
 10681 0299 49       		.uleb128 0x49
 10682 029a 13       		.uleb128 0x13
 10683 029b 11       		.uleb128 0x11
 10684 029c 01       		.uleb128 0x1
 10685 029d 12       		.uleb128 0x12
 10686 029e 06       		.uleb128 0x6
 10687 029f 40       		.uleb128 0x40
 10688 02a0 18       		.uleb128 0x18
 10689 02a1 9742     		.uleb128 0x2117
 10690 02a3 19       		.uleb128 0x19
 10691 02a4 01       		.uleb128 0x1
 10692 02a5 13       		.uleb128 0x13
 10693 02a6 00       		.byte	0
 10694 02a7 00       		.byte	0
 10695 02a8 33       		.uleb128 0x33
 10696 02a9 05       		.uleb128 0x5
 10697 02aa 00       		.byte	0
 10698 02ab 03       		.uleb128 0x3
 10699 02ac 08       		.uleb128 0x8
 10700 02ad 3A       		.uleb128 0x3a
 10701 02ae 0B       		.uleb128 0xb
 10702 02af 3B       		.uleb128 0x3b
 10703 02b0 05       		.uleb128 0x5
 10704 02b1 49       		.uleb128 0x49
 10705 02b2 13       		.uleb128 0x13
 10706 02b3 02       		.uleb128 0x2
 10707 02b4 17       		.uleb128 0x17
 10708 02b5 00       		.byte	0
 10709 02b6 00       		.byte	0
 10710 02b7 34       		.uleb128 0x34
 10711 02b8 0B       		.uleb128 0xb
 10712 02b9 01       		.byte	0x1
 10713 02ba 55       		.uleb128 0x55
 10714 02bb 17       		.uleb128 0x17
 10715 02bc 00       		.byte	0
 10716 02bd 00       		.byte	0
 10717 02be 35       		.uleb128 0x35
 10718 02bf 34       		.uleb128 0x34
 10719 02c0 00       		.byte	0
 10720 02c1 03       		.uleb128 0x3
 10721 02c2 0E       		.uleb128 0xe
ARM GAS  C:\Users\Phuong\AppData\Local\Temp\ccP1LXIT.s 			page 208


 10722 02c3 3A       		.uleb128 0x3a
 10723 02c4 0B       		.uleb128 0xb
 10724 02c5 3B       		.uleb128 0x3b
 10725 02c6 05       		.uleb128 0x5
 10726 02c7 49       		.uleb128 0x49
 10727 02c8 13       		.uleb128 0x13
 10728 02c9 00       		.byte	0
 10729 02ca 00       		.byte	0
 10730 02cb 36       		.uleb128 0x36
 10731 02cc 2E       		.uleb128 0x2e
 10732 02cd 01       		.byte	0x1
 10733 02ce 03       		.uleb128 0x3
 10734 02cf 0E       		.uleb128 0xe
 10735 02d0 3A       		.uleb128 0x3a
 10736 02d1 0B       		.uleb128 0xb
 10737 02d2 3B       		.uleb128 0x3b
 10738 02d3 0B       		.uleb128 0xb
 10739 02d4 27       		.uleb128 0x27
 10740 02d5 19       		.uleb128 0x19
 10741 02d6 11       		.uleb128 0x11
 10742 02d7 01       		.uleb128 0x1
 10743 02d8 12       		.uleb128 0x12
 10744 02d9 06       		.uleb128 0x6
 10745 02da 40       		.uleb128 0x40
 10746 02db 18       		.uleb128 0x18
 10747 02dc 9742     		.uleb128 0x2117
 10748 02de 19       		.uleb128 0x19
 10749 02df 01       		.uleb128 0x1
 10750 02e0 13       		.uleb128 0x13
 10751 02e1 00       		.byte	0
 10752 02e2 00       		.byte	0
 10753 02e3 37       		.uleb128 0x37
 10754 02e4 34       		.uleb128 0x34
 10755 02e5 00       		.byte	0
 10756 02e6 03       		.uleb128 0x3
 10757 02e7 0E       		.uleb128 0xe
 10758 02e8 3A       		.uleb128 0x3a
 10759 02e9 0B       		.uleb128 0xb
 10760 02ea 3B       		.uleb128 0x3b
 10761 02eb 05       		.uleb128 0x5
 10762 02ec 49       		.uleb128 0x49
 10763 02ed 13       		.uleb128 0x13
 10764 02ee 1C       		.uleb128 0x1c
 10765 02ef 0B       		.uleb128 0xb
 10766 02f0 00       		.byte	0
 10767 02f1 00       		.byte	0
 10768 02f2 38       		.uleb128 0x38
 10769 02f3 2E       		.uleb128 0x2e
 10770 02f4 01       		.byte	0x1
 10771 02f5 3F       		.uleb128 0x3f
 10772 02f6 19       		.uleb128 0x19
 10773 02f7 03       		.uleb128 0x3
 10774 02f8 0E       		.uleb128 0xe
 10775 02f9 3A       		.uleb128 0x3a
 10776 02fa 0B       		.uleb128 0xb
 10777 02fb 3B       		.uleb128 0x3b
 10778 02fc 05       		.uleb128 0x5
ARM GAS  C:\Users\Phuong\AppData\Local\Temp\ccP1LXIT.s 			page 209


 10779 02fd 27       		.uleb128 0x27
 10780 02fe 19       		.uleb128 0x19
 10781 02ff 11       		.uleb128 0x11
 10782 0300 01       		.uleb128 0x1
 10783 0301 12       		.uleb128 0x12
 10784 0302 06       		.uleb128 0x6
 10785 0303 40       		.uleb128 0x40
 10786 0304 18       		.uleb128 0x18
 10787 0305 9742     		.uleb128 0x2117
 10788 0307 19       		.uleb128 0x19
 10789 0308 01       		.uleb128 0x1
 10790 0309 13       		.uleb128 0x13
 10791 030a 00       		.byte	0
 10792 030b 00       		.byte	0
 10793 030c 39       		.uleb128 0x39
 10794 030d 05       		.uleb128 0x5
 10795 030e 00       		.byte	0
 10796 030f 03       		.uleb128 0x3
 10797 0310 0E       		.uleb128 0xe
 10798 0311 3A       		.uleb128 0x3a
 10799 0312 0B       		.uleb128 0xb
 10800 0313 3B       		.uleb128 0x3b
 10801 0314 05       		.uleb128 0x5
 10802 0315 49       		.uleb128 0x49
 10803 0316 13       		.uleb128 0x13
 10804 0317 02       		.uleb128 0x2
 10805 0318 18       		.uleb128 0x18
 10806 0319 00       		.byte	0
 10807 031a 00       		.byte	0
 10808 031b 3A       		.uleb128 0x3a
 10809 031c 2E       		.uleb128 0x2e
 10810 031d 01       		.byte	0x1
 10811 031e 03       		.uleb128 0x3
 10812 031f 0E       		.uleb128 0xe
 10813 0320 3A       		.uleb128 0x3a
 10814 0321 0B       		.uleb128 0xb
 10815 0322 3B       		.uleb128 0x3b
 10816 0323 0B       		.uleb128 0xb
 10817 0324 27       		.uleb128 0x27
 10818 0325 19       		.uleb128 0x19
 10819 0326 49       		.uleb128 0x49
 10820 0327 13       		.uleb128 0x13
 10821 0328 11       		.uleb128 0x11
 10822 0329 01       		.uleb128 0x1
 10823 032a 12       		.uleb128 0x12
 10824 032b 06       		.uleb128 0x6
 10825 032c 40       		.uleb128 0x40
 10826 032d 18       		.uleb128 0x18
 10827 032e 9742     		.uleb128 0x2117
 10828 0330 19       		.uleb128 0x19
 10829 0331 01       		.uleb128 0x1
 10830 0332 13       		.uleb128 0x13
 10831 0333 00       		.byte	0
 10832 0334 00       		.byte	0
 10833 0335 3B       		.uleb128 0x3b
 10834 0336 34       		.uleb128 0x34
 10835 0337 00       		.byte	0
ARM GAS  C:\Users\Phuong\AppData\Local\Temp\ccP1LXIT.s 			page 210


 10836 0338 03       		.uleb128 0x3
 10837 0339 0E       		.uleb128 0xe
 10838 033a 3A       		.uleb128 0x3a
 10839 033b 0B       		.uleb128 0xb
 10840 033c 3B       		.uleb128 0x3b
 10841 033d 0B       		.uleb128 0xb
 10842 033e 49       		.uleb128 0x49
 10843 033f 13       		.uleb128 0x13
 10844 0340 1C       		.uleb128 0x1c
 10845 0341 0B       		.uleb128 0xb
 10846 0342 00       		.byte	0
 10847 0343 00       		.byte	0
 10848 0344 3C       		.uleb128 0x3c
 10849 0345 34       		.uleb128 0x34
 10850 0346 00       		.byte	0
 10851 0347 03       		.uleb128 0x3
 10852 0348 0E       		.uleb128 0xe
 10853 0349 3A       		.uleb128 0x3a
 10854 034a 0B       		.uleb128 0xb
 10855 034b 3B       		.uleb128 0x3b
 10856 034c 0B       		.uleb128 0xb
 10857 034d 49       		.uleb128 0x49
 10858 034e 13       		.uleb128 0x13
 10859 034f 02       		.uleb128 0x2
 10860 0350 18       		.uleb128 0x18
 10861 0351 00       		.byte	0
 10862 0352 00       		.byte	0
 10863 0353 3D       		.uleb128 0x3d
 10864 0354 898201   		.uleb128 0x4109
 10865 0357 01       		.byte	0x1
 10866 0358 11       		.uleb128 0x11
 10867 0359 01       		.uleb128 0x1
 10868 035a 00       		.byte	0
 10869 035b 00       		.byte	0
 10870 035c 3E       		.uleb128 0x3e
 10871 035d 0B       		.uleb128 0xb
 10872 035e 01       		.byte	0x1
 10873 035f 55       		.uleb128 0x55
 10874 0360 17       		.uleb128 0x17
 10875 0361 01       		.uleb128 0x1
 10876 0362 13       		.uleb128 0x13
 10877 0363 00       		.byte	0
 10878 0364 00       		.byte	0
 10879 0365 3F       		.uleb128 0x3f
 10880 0366 2E       		.uleb128 0x2e
 10881 0367 00       		.byte	0
 10882 0368 3F       		.uleb128 0x3f
 10883 0369 19       		.uleb128 0x19
 10884 036a 03       		.uleb128 0x3
 10885 036b 0E       		.uleb128 0xe
 10886 036c 3A       		.uleb128 0x3a
 10887 036d 0B       		.uleb128 0xb
 10888 036e 3B       		.uleb128 0x3b
 10889 036f 05       		.uleb128 0x5
 10890 0370 27       		.uleb128 0x27
 10891 0371 19       		.uleb128 0x19
 10892 0372 49       		.uleb128 0x49
ARM GAS  C:\Users\Phuong\AppData\Local\Temp\ccP1LXIT.s 			page 211


 10893 0373 13       		.uleb128 0x13
 10894 0374 11       		.uleb128 0x11
 10895 0375 01       		.uleb128 0x1
 10896 0376 12       		.uleb128 0x12
 10897 0377 06       		.uleb128 0x6
 10898 0378 40       		.uleb128 0x40
 10899 0379 18       		.uleb128 0x18
 10900 037a 9742     		.uleb128 0x2117
 10901 037c 19       		.uleb128 0x19
 10902 037d 00       		.byte	0
 10903 037e 00       		.byte	0
 10904 037f 40       		.uleb128 0x40
 10905 0380 2E       		.uleb128 0x2e
 10906 0381 00       		.byte	0
 10907 0382 3F       		.uleb128 0x3f
 10908 0383 19       		.uleb128 0x19
 10909 0384 3C       		.uleb128 0x3c
 10910 0385 19       		.uleb128 0x19
 10911 0386 6E       		.uleb128 0x6e
 10912 0387 0E       		.uleb128 0xe
 10913 0388 03       		.uleb128 0x3
 10914 0389 0E       		.uleb128 0xe
 10915 038a 3A       		.uleb128 0x3a
 10916 038b 0B       		.uleb128 0xb
 10917 038c 3B       		.uleb128 0x3b
 10918 038d 0B       		.uleb128 0xb
 10919 038e 00       		.byte	0
 10920 038f 00       		.byte	0
 10921 0390 41       		.uleb128 0x41
 10922 0391 2E       		.uleb128 0x2e
 10923 0392 00       		.byte	0
 10924 0393 3F       		.uleb128 0x3f
 10925 0394 19       		.uleb128 0x19
 10926 0395 3C       		.uleb128 0x3c
 10927 0396 19       		.uleb128 0x19
 10928 0397 6E       		.uleb128 0x6e
 10929 0398 0E       		.uleb128 0xe
 10930 0399 03       		.uleb128 0x3
 10931 039a 0E       		.uleb128 0xe
 10932 039b 3A       		.uleb128 0x3a
 10933 039c 0B       		.uleb128 0xb
 10934 039d 3B       		.uleb128 0x3b
 10935 039e 05       		.uleb128 0x5
 10936 039f 00       		.byte	0
 10937 03a0 00       		.byte	0
 10938 03a1 42       		.uleb128 0x42
 10939 03a2 2E       		.uleb128 0x2e
 10940 03a3 00       		.byte	0
 10941 03a4 3F       		.uleb128 0x3f
 10942 03a5 19       		.uleb128 0x19
 10943 03a6 3C       		.uleb128 0x3c
 10944 03a7 19       		.uleb128 0x19
 10945 03a8 6E       		.uleb128 0x6e
 10946 03a9 0E       		.uleb128 0xe
 10947 03aa 03       		.uleb128 0x3
 10948 03ab 0E       		.uleb128 0xe
 10949 03ac 00       		.byte	0
ARM GAS  C:\Users\Phuong\AppData\Local\Temp\ccP1LXIT.s 			page 212


 10950 03ad 00       		.byte	0
 10951 03ae 43       		.uleb128 0x43
 10952 03af 36       		.uleb128 0x36
 10953 03b0 00       		.byte	0
 10954 03b1 02       		.uleb128 0x2
 10955 03b2 18       		.uleb128 0x18
 10956 03b3 00       		.byte	0
 10957 03b4 00       		.byte	0
 10958 03b5 00       		.byte	0
 10959              		.section	.debug_loc,"",%progbits
 10960              	.Ldebug_loc0:
 10961              	.LLST0:
 10962 0000 00000000 		.4byte	.LVL0
 10963 0004 0A000000 		.4byte	.LVL1
 10964 0008 0100     		.2byte	0x1
 10965 000a 50       		.byte	0x50
 10966 000b 0A000000 		.4byte	.LVL1
 10967 000f 0E000000 		.4byte	.LFE18
 10968 0013 0400     		.2byte	0x4
 10969 0015 F3       		.byte	0xf3
 10970 0016 01       		.uleb128 0x1
 10971 0017 50       		.byte	0x50
 10972 0018 9F       		.byte	0x9f
 10973 0019 00000000 		.4byte	0
 10974 001d 00000000 		.4byte	0
 10975              	.LLST1:
 10976 0021 00000000 		.4byte	.LVL3
 10977 0025 0A000000 		.4byte	.LVL4
 10978 0029 0100     		.2byte	0x1
 10979 002b 50       		.byte	0x50
 10980 002c 0A000000 		.4byte	.LVL4
 10981 0030 0E000000 		.4byte	.LFE19
 10982 0034 0400     		.2byte	0x4
 10983 0036 F3       		.byte	0xf3
 10984 0037 01       		.uleb128 0x1
 10985 0038 50       		.byte	0x50
 10986 0039 9F       		.byte	0x9f
 10987 003a 00000000 		.4byte	0
 10988 003e 00000000 		.4byte	0
 10989              	.LLST2:
 10990 0042 00000000 		.4byte	.LVL3
 10991 0046 0B000000 		.4byte	.LVL5-1
 10992 004a 0100     		.2byte	0x1
 10993 004c 51       		.byte	0x51
 10994 004d 0B000000 		.4byte	.LVL5-1
 10995 0051 0E000000 		.4byte	.LFE19
 10996 0055 0400     		.2byte	0x4
 10997 0057 F3       		.byte	0xf3
 10998 0058 01       		.uleb128 0x1
 10999 0059 51       		.byte	0x51
 11000 005a 9F       		.byte	0x9f
 11001 005b 00000000 		.4byte	0
 11002 005f 00000000 		.4byte	0
 11003              	.LLST3:
 11004 0063 00000000 		.4byte	.LVL6
 11005 0067 0B000000 		.4byte	.LVL7-1
 11006 006b 0100     		.2byte	0x1
ARM GAS  C:\Users\Phuong\AppData\Local\Temp\ccP1LXIT.s 			page 213


 11007 006d 50       		.byte	0x50
 11008 006e 0B000000 		.4byte	.LVL7-1
 11009 0072 24000000 		.4byte	.LVL11
 11010 0076 0400     		.2byte	0x4
 11011 0078 F3       		.byte	0xf3
 11012 0079 01       		.uleb128 0x1
 11013 007a 50       		.byte	0x50
 11014 007b 9F       		.byte	0x9f
 11015 007c 24000000 		.4byte	.LVL11
 11016 0080 32000000 		.4byte	.LVL12
 11017 0084 0100     		.2byte	0x1
 11018 0086 50       		.byte	0x50
 11019 0087 32000000 		.4byte	.LVL12
 11020 008b 44000000 		.4byte	.LFE24
 11021 008f 0400     		.2byte	0x4
 11022 0091 F3       		.byte	0xf3
 11023 0092 01       		.uleb128 0x1
 11024 0093 50       		.byte	0x50
 11025 0094 9F       		.byte	0x9f
 11026 0095 00000000 		.4byte	0
 11027 0099 00000000 		.4byte	0
 11028              	.LLST4:
 11029 009d 0E000000 		.4byte	.LVL8
 11030 00a1 20000000 		.4byte	.LVL9
 11031 00a5 0100     		.2byte	0x1
 11032 00a7 50       		.byte	0x50
 11033 00a8 20000000 		.4byte	.LVL9
 11034 00ac 24000000 		.4byte	.LVL11
 11035 00b0 0100     		.2byte	0x1
 11036 00b2 54       		.byte	0x54
 11037 00b3 00000000 		.4byte	0
 11038 00b7 00000000 		.4byte	0
 11039              	.LLST5:
 11040 00bb 24000000 		.4byte	.LVL11
 11041 00bf 32000000 		.4byte	.LVL12
 11042 00c3 0100     		.2byte	0x1
 11043 00c5 50       		.byte	0x50
 11044 00c6 32000000 		.4byte	.LVL12
 11045 00ca 34000000 		.4byte	.LVL13
 11046 00ce 0400     		.2byte	0x4
 11047 00d0 F3       		.byte	0xf3
 11048 00d1 01       		.uleb128 0x1
 11049 00d2 50       		.byte	0x50
 11050 00d3 9F       		.byte	0x9f
 11051 00d4 00000000 		.4byte	0
 11052 00d8 00000000 		.4byte	0
 11053              	.LLST6:
 11054 00dc 00000000 		.4byte	.LVL14
 11055 00e0 14000000 		.4byte	.LVL16
 11056 00e4 0100     		.2byte	0x1
 11057 00e6 50       		.byte	0x50
 11058 00e7 14000000 		.4byte	.LVL16
 11059 00eb CA000000 		.4byte	.LVL33
 11060 00ef 0100     		.2byte	0x1
 11061 00f1 56       		.byte	0x56
 11062 00f2 CA000000 		.4byte	.LVL33
 11063 00f6 E8000000 		.4byte	.LFE28
ARM GAS  C:\Users\Phuong\AppData\Local\Temp\ccP1LXIT.s 			page 214


 11064 00fa 0400     		.2byte	0x4
 11065 00fc F3       		.byte	0xf3
 11066 00fd 01       		.uleb128 0x1
 11067 00fe 50       		.byte	0x50
 11068 00ff 9F       		.byte	0x9f
 11069 0100 00000000 		.4byte	0
 11070 0104 00000000 		.4byte	0
 11071              	.LLST7:
 11072 0108 00000000 		.4byte	.LVL14
 11073 010c 17000000 		.4byte	.LVL17-1
 11074 0110 0100     		.2byte	0x1
 11075 0112 51       		.byte	0x51
 11076 0113 17000000 		.4byte	.LVL17-1
 11077 0117 E8000000 		.4byte	.LFE28
 11078 011b 0200     		.2byte	0x2
 11079 011d 91       		.byte	0x91
 11080 011e 64       		.sleb128 -28
 11081 011f 00000000 		.4byte	0
 11082 0123 00000000 		.4byte	0
 11083              	.LLST8:
 11084 0127 00000000 		.4byte	.LVL34
 11085 012b 0B000000 		.4byte	.LVL36-1
 11086 012f 0100     		.2byte	0x1
 11087 0131 50       		.byte	0x50
 11088 0132 0B000000 		.4byte	.LVL36-1
 11089 0136 2A000000 		.4byte	.LVL41
 11090 013a 0100     		.2byte	0x1
 11091 013c 55       		.byte	0x55
 11092 013d 2A000000 		.4byte	.LVL41
 11093 0141 2C000000 		.4byte	.LVL42
 11094 0145 0100     		.2byte	0x1
 11095 0147 50       		.byte	0x50
 11096 0148 2C000000 		.4byte	.LVL42
 11097 014c A6000000 		.4byte	.LVL61
 11098 0150 0100     		.2byte	0x1
 11099 0152 55       		.byte	0x55
 11100 0153 A6000000 		.4byte	.LVL61
 11101 0157 C8000000 		.4byte	.LVL65
 11102 015b 0400     		.2byte	0x4
 11103 015d F3       		.byte	0xf3
 11104 015e 01       		.uleb128 0x1
 11105 015f 50       		.byte	0x50
 11106 0160 9F       		.byte	0x9f
 11107 0161 C8000000 		.4byte	.LVL65
 11108 0165 EA000000 		.4byte	.LVL70
 11109 0169 0100     		.2byte	0x1
 11110 016b 55       		.byte	0x55
 11111 016c EA000000 		.4byte	.LVL70
 11112 0170 04010000 		.4byte	.LVL73
 11113 0174 0400     		.2byte	0x4
 11114 0176 F3       		.byte	0xf3
 11115 0177 01       		.uleb128 0x1
 11116 0178 50       		.byte	0x50
 11117 0179 9F       		.byte	0x9f
 11118 017a 04010000 		.4byte	.LVL73
 11119 017e 06010000 		.4byte	.LVL74
 11120 0182 0100     		.2byte	0x1
ARM GAS  C:\Users\Phuong\AppData\Local\Temp\ccP1LXIT.s 			page 215


 11121 0184 55       		.byte	0x55
 11122 0185 06010000 		.4byte	.LVL74
 11123 0189 24010000 		.4byte	.LFE29
 11124 018d 0400     		.2byte	0x4
 11125 018f F3       		.byte	0xf3
 11126 0190 01       		.uleb128 0x1
 11127 0191 50       		.byte	0x50
 11128 0192 9F       		.byte	0x9f
 11129 0193 00000000 		.4byte	0
 11130 0197 00000000 		.4byte	0
 11131              	.LLST9:
 11132 019b 06000000 		.4byte	.LVL35
 11133 019f 0B000000 		.4byte	.LVL36-1
 11134 01a3 0100     		.2byte	0x1
 11135 01a5 50       		.byte	0x50
 11136 01a6 0B000000 		.4byte	.LVL36-1
 11137 01aa 2A000000 		.4byte	.LVL41
 11138 01ae 0100     		.2byte	0x1
 11139 01b0 55       		.byte	0x55
 11140 01b1 2A000000 		.4byte	.LVL41
 11141 01b5 2C000000 		.4byte	.LVL42
 11142 01b9 0100     		.2byte	0x1
 11143 01bb 50       		.byte	0x50
 11144 01bc 2C000000 		.4byte	.LVL42
 11145 01c0 A6000000 		.4byte	.LVL61
 11146 01c4 0100     		.2byte	0x1
 11147 01c6 55       		.byte	0x55
 11148 01c7 A6000000 		.4byte	.LVL61
 11149 01cb C8000000 		.4byte	.LVL65
 11150 01cf 0400     		.2byte	0x4
 11151 01d1 F3       		.byte	0xf3
 11152 01d2 01       		.uleb128 0x1
 11153 01d3 50       		.byte	0x50
 11154 01d4 9F       		.byte	0x9f
 11155 01d5 C8000000 		.4byte	.LVL65
 11156 01d9 EA000000 		.4byte	.LVL70
 11157 01dd 0100     		.2byte	0x1
 11158 01df 55       		.byte	0x55
 11159 01e0 EA000000 		.4byte	.LVL70
 11160 01e4 04010000 		.4byte	.LVL73
 11161 01e8 0400     		.2byte	0x4
 11162 01ea F3       		.byte	0xf3
 11163 01eb 01       		.uleb128 0x1
 11164 01ec 50       		.byte	0x50
 11165 01ed 9F       		.byte	0x9f
 11166 01ee 04010000 		.4byte	.LVL73
 11167 01f2 06010000 		.4byte	.LVL74
 11168 01f6 0100     		.2byte	0x1
 11169 01f8 55       		.byte	0x55
 11170 01f9 06010000 		.4byte	.LVL74
 11171 01fd 24010000 		.4byte	.LFE29
 11172 0201 0400     		.2byte	0x4
 11173 0203 F3       		.byte	0xf3
 11174 0204 01       		.uleb128 0x1
 11175 0205 50       		.byte	0x50
 11176 0206 9F       		.byte	0x9f
 11177 0207 00000000 		.4byte	0
ARM GAS  C:\Users\Phuong\AppData\Local\Temp\ccP1LXIT.s 			page 216


 11178 020b 00000000 		.4byte	0
 11179              	.LLST10:
 11180 020f 34000000 		.4byte	.LVL44
 11181 0213 38000000 		.4byte	.LVL45
 11182 0217 0100     		.2byte	0x1
 11183 0219 50       		.byte	0x50
 11184 021a 38000000 		.4byte	.LVL45
 11185 021e 5C000000 		.4byte	.LVL52
 11186 0222 0100     		.2byte	0x1
 11187 0224 54       		.byte	0x54
 11188 0225 5C000000 		.4byte	.LVL52
 11189 0229 7E000000 		.4byte	.LVL58
 11190 022d 0200     		.2byte	0x2
 11191 022f 30       		.byte	0x30
 11192 0230 9F       		.byte	0x9f
 11193 0231 7E000000 		.4byte	.LVL58
 11194 0235 C4000000 		.4byte	.LVL64
 11195 0239 0100     		.2byte	0x1
 11196 023b 54       		.byte	0x54
 11197 023c C4000000 		.4byte	.LVL64
 11198 0240 C8000000 		.4byte	.LVL65
 11199 0244 0200     		.2byte	0x2
 11200 0246 30       		.byte	0x30
 11201 0247 9F       		.byte	0x9f
 11202 0248 C8000000 		.4byte	.LVL65
 11203 024c E0000000 		.4byte	.LVL67
 11204 0250 0100     		.2byte	0x1
 11205 0252 54       		.byte	0x54
 11206 0253 E0000000 		.4byte	.LVL67
 11207 0257 E4000000 		.4byte	.LVL68
 11208 025b 0200     		.2byte	0x2
 11209 025d 30       		.byte	0x30
 11210 025e 9F       		.byte	0x9f
 11211 025f E4000000 		.4byte	.LVL68
 11212 0263 E7000000 		.4byte	.LVL69-1
 11213 0267 0100     		.2byte	0x1
 11214 0269 50       		.byte	0x50
 11215 026a E7000000 		.4byte	.LVL69-1
 11216 026e 04010000 		.4byte	.LVL73
 11217 0272 0100     		.2byte	0x1
 11218 0274 54       		.byte	0x54
 11219 0275 06010000 		.4byte	.LVL74
 11220 0279 0A010000 		.4byte	.LVL75
 11221 027d 0100     		.2byte	0x1
 11222 027f 54       		.byte	0x54
 11223 0280 0A010000 		.4byte	.LVL75
 11224 0284 24010000 		.4byte	.LFE29
 11225 0288 0100     		.2byte	0x1
 11226 028a 50       		.byte	0x50
 11227 028b 00000000 		.4byte	0
 11228 028f 00000000 		.4byte	0
 11229              	.LLST11:
 11230 0293 0E000000 		.4byte	.LVL37
 11231 0297 24000000 		.4byte	.LVL38
 11232 029b 0100     		.2byte	0x1
 11233 029d 50       		.byte	0x50
 11234 029e 24000000 		.4byte	.LVL38
ARM GAS  C:\Users\Phuong\AppData\Local\Temp\ccP1LXIT.s 			page 217


 11235 02a2 28000000 		.4byte	.LVL40
 11236 02a6 0100     		.2byte	0x1
 11237 02a8 54       		.byte	0x54
 11238 02a9 04010000 		.4byte	.LVL73
 11239 02ad 06010000 		.4byte	.LVL74
 11240 02b1 0100     		.2byte	0x1
 11241 02b3 50       		.byte	0x50
 11242 02b4 00000000 		.4byte	0
 11243 02b8 00000000 		.4byte	0
 11244              	.LLST12:
 11245 02bc 3C000000 		.4byte	.LVL46
 11246 02c0 40000000 		.4byte	.LVL48
 11247 02c4 0100     		.2byte	0x1
 11248 02c6 50       		.byte	0x50
 11249 02c7 50000000 		.4byte	.LVL49
 11250 02cb 58000000 		.4byte	.LVL51
 11251 02cf 0100     		.2byte	0x1
 11252 02d1 50       		.byte	0x50
 11253 02d2 7E000000 		.4byte	.LVL58
 11254 02d6 99000000 		.4byte	.LVL59-1
 11255 02da 0100     		.2byte	0x1
 11256 02dc 50       		.byte	0x50
 11257 02dd 00000000 		.4byte	0
 11258 02e1 00000000 		.4byte	0
 11259              	.LLST13:
 11260 02e5 3E000000 		.4byte	.LVL47
 11261 02e9 40000000 		.4byte	.LVL48
 11262 02ed 0100     		.2byte	0x1
 11263 02ef 51       		.byte	0x51
 11264 02f0 50000000 		.4byte	.LVL49
 11265 02f4 52000000 		.4byte	.LVL50
 11266 02f8 0300     		.2byte	0x3
 11267 02fa 91       		.byte	0x91
 11268 02fb 64       		.sleb128 -28
 11269 02fc 9F       		.byte	0x9f
 11270 02fd 52000000 		.4byte	.LVL50
 11271 0301 5B000000 		.4byte	.LVL52-1
 11272 0305 0100     		.2byte	0x1
 11273 0307 51       		.byte	0x51
 11274 0308 7E000000 		.4byte	.LVL58
 11275 030c 99000000 		.4byte	.LVL59-1
 11276 0310 0100     		.2byte	0x1
 11277 0312 51       		.byte	0x51
 11278 0313 00000000 		.4byte	0
 11279 0317 00000000 		.4byte	0
 11280              	.LLST14:
 11281 031b 62000000 		.4byte	.LVL54
 11282 031f 78000000 		.4byte	.LVL55
 11283 0323 0100     		.2byte	0x1
 11284 0325 50       		.byte	0x50
 11285 0326 78000000 		.4byte	.LVL55
 11286 032a 7C000000 		.4byte	.LVL57
 11287 032e 0100     		.2byte	0x1
 11288 0330 54       		.byte	0x54
 11289 0331 E0000000 		.4byte	.LVL67
 11290 0335 E4000000 		.4byte	.LVL68
 11291 0339 0100     		.2byte	0x1
ARM GAS  C:\Users\Phuong\AppData\Local\Temp\ccP1LXIT.s 			page 218


 11292 033b 50       		.byte	0x50
 11293 033c 00000000 		.4byte	0
 11294 0340 00000000 		.4byte	0
 11295              	.LLST15:
 11296 0344 A6000000 		.4byte	.LVL61
 11297 0348 BC000000 		.4byte	.LVL62
 11298 034c 0100     		.2byte	0x1
 11299 034e 50       		.byte	0x50
 11300 034f BC000000 		.4byte	.LVL62
 11301 0353 C8000000 		.4byte	.LVL65
 11302 0357 0100     		.2byte	0x1
 11303 0359 55       		.byte	0x55
 11304 035a 00000000 		.4byte	0
 11305 035e 00000000 		.4byte	0
 11306              	.LLST16:
 11307 0362 EA000000 		.4byte	.LVL70
 11308 0366 00010000 		.4byte	.LVL71
 11309 036a 0100     		.2byte	0x1
 11310 036c 50       		.byte	0x50
 11311 036d 00010000 		.4byte	.LVL71
 11312 0371 04010000 		.4byte	.LVL73
 11313 0375 0100     		.2byte	0x1
 11314 0377 55       		.byte	0x55
 11315 0378 00000000 		.4byte	0
 11316 037c 00000000 		.4byte	0
 11317              	.LLST17:
 11318 0380 00000000 		.4byte	.LVL76
 11319 0384 11000000 		.4byte	.LVL77-1
 11320 0388 0100     		.2byte	0x1
 11321 038a 50       		.byte	0x50
 11322 038b 11000000 		.4byte	.LVL77-1
 11323 038f 14000000 		.4byte	.LVL78
 11324 0393 0100     		.2byte	0x1
 11325 0395 54       		.byte	0x54
 11326 0396 14000000 		.4byte	.LVL78
 11327 039a 30000000 		.4byte	.LVL81
 11328 039e 0400     		.2byte	0x4
 11329 03a0 F3       		.byte	0xf3
 11330 03a1 01       		.uleb128 0x1
 11331 03a2 50       		.byte	0x50
 11332 03a3 9F       		.byte	0x9f
 11333 03a4 30000000 		.4byte	.LVL81
 11334 03a8 42000000 		.4byte	.LVL84
 11335 03ac 0100     		.2byte	0x1
 11336 03ae 54       		.byte	0x54
 11337 03af 42000000 		.4byte	.LVL84
 11338 03b3 44000000 		.4byte	.LVL85
 11339 03b7 0100     		.2byte	0x1
 11340 03b9 50       		.byte	0x50
 11341 03ba 44000000 		.4byte	.LVL85
 11342 03be A2000000 		.4byte	.LVL94
 11343 03c2 0100     		.2byte	0x1
 11344 03c4 54       		.byte	0x54
 11345 03c5 A2000000 		.4byte	.LVL94
 11346 03c9 A6000000 		.4byte	.LVL96
 11347 03cd 0400     		.2byte	0x4
 11348 03cf F3       		.byte	0xf3
ARM GAS  C:\Users\Phuong\AppData\Local\Temp\ccP1LXIT.s 			page 219


 11349 03d0 01       		.uleb128 0x1
 11350 03d1 50       		.byte	0x50
 11351 03d2 9F       		.byte	0x9f
 11352 03d3 A6000000 		.4byte	.LVL96
 11353 03d7 A8000000 		.4byte	.LVL97
 11354 03db 0100     		.2byte	0x1
 11355 03dd 54       		.byte	0x54
 11356 03de A8000000 		.4byte	.LVL97
 11357 03e2 C0000000 		.4byte	.LFE25
 11358 03e6 0400     		.2byte	0x4
 11359 03e8 F3       		.byte	0xf3
 11360 03e9 01       		.uleb128 0x1
 11361 03ea 50       		.byte	0x50
 11362 03eb 9F       		.byte	0x9f
 11363 03ec 00000000 		.4byte	0
 11364 03f0 00000000 		.4byte	0
 11365              	.LLST18:
 11366 03f4 00000000 		.4byte	.LVL76
 11367 03f8 11000000 		.4byte	.LVL77-1
 11368 03fc 0100     		.2byte	0x1
 11369 03fe 51       		.byte	0x51
 11370 03ff 11000000 		.4byte	.LVL77-1
 11371 0403 42000000 		.4byte	.LVL84
 11372 0407 0100     		.2byte	0x1
 11373 0409 57       		.byte	0x57
 11374 040a 42000000 		.4byte	.LVL84
 11375 040e 44000000 		.4byte	.LVL85
 11376 0412 0100     		.2byte	0x1
 11377 0414 51       		.byte	0x51
 11378 0415 44000000 		.4byte	.LVL85
 11379 0419 AA000000 		.4byte	.LVL98
 11380 041d 0100     		.2byte	0x1
 11381 041f 57       		.byte	0x57
 11382 0420 AA000000 		.4byte	.LVL98
 11383 0424 C0000000 		.4byte	.LFE25
 11384 0428 0400     		.2byte	0x4
 11385 042a F3       		.byte	0xf3
 11386 042b 01       		.uleb128 0x1
 11387 042c 51       		.byte	0x51
 11388 042d 9F       		.byte	0x9f
 11389 042e 00000000 		.4byte	0
 11390 0432 00000000 		.4byte	0
 11391              	.LLST19:
 11392 0436 00000000 		.4byte	.LVL76
 11393 043a 11000000 		.4byte	.LVL77-1
 11394 043e 0100     		.2byte	0x1
 11395 0440 52       		.byte	0x52
 11396 0441 11000000 		.4byte	.LVL77-1
 11397 0445 42000000 		.4byte	.LVL84
 11398 0449 0100     		.2byte	0x1
 11399 044b 56       		.byte	0x56
 11400 044c 42000000 		.4byte	.LVL84
 11401 0450 44000000 		.4byte	.LVL85
 11402 0454 0100     		.2byte	0x1
 11403 0456 52       		.byte	0x52
 11404 0457 44000000 		.4byte	.LVL85
 11405 045b 56000000 		.4byte	.LVL87
ARM GAS  C:\Users\Phuong\AppData\Local\Temp\ccP1LXIT.s 			page 220


 11406 045f 0100     		.2byte	0x1
 11407 0461 56       		.byte	0x56
 11408 0462 56000000 		.4byte	.LVL87
 11409 0466 A2000000 		.4byte	.LVL94
 11410 046a 0400     		.2byte	0x4
 11411 046c F3       		.byte	0xf3
 11412 046d 01       		.uleb128 0x1
 11413 046e 52       		.byte	0x52
 11414 046f 9F       		.byte	0x9f
 11415 0470 A2000000 		.4byte	.LVL94
 11416 0474 A6000000 		.4byte	.LVL96
 11417 0478 0100     		.2byte	0x1
 11418 047a 56       		.byte	0x56
 11419 047b A6000000 		.4byte	.LVL96
 11420 047f C0000000 		.4byte	.LFE25
 11421 0483 0400     		.2byte	0x4
 11422 0485 F3       		.byte	0xf3
 11423 0486 01       		.uleb128 0x1
 11424 0487 52       		.byte	0x52
 11425 0488 9F       		.byte	0x9f
 11426 0489 00000000 		.4byte	0
 11427 048d 00000000 		.4byte	0
 11428              	.LLST20:
 11429 0491 A0000000 		.4byte	.LVL93
 11430 0495 A2000000 		.4byte	.LVL94
 11431 0499 0100     		.2byte	0x1
 11432 049b 50       		.byte	0x50
 11433 049c A8000000 		.4byte	.LVL97
 11434 04a0 C0000000 		.4byte	.LFE25
 11435 04a4 0100     		.2byte	0x1
 11436 04a6 50       		.byte	0x50
 11437 04a7 00000000 		.4byte	0
 11438 04ab 00000000 		.4byte	0
 11439              	.LLST21:
 11440 04af 14000000 		.4byte	.LVL78
 11441 04b3 2A000000 		.4byte	.LVL79
 11442 04b7 0100     		.2byte	0x1
 11443 04b9 50       		.byte	0x50
 11444 04ba 2A000000 		.4byte	.LVL79
 11445 04be 30000000 		.4byte	.LVL81
 11446 04c2 0100     		.2byte	0x1
 11447 04c4 54       		.byte	0x54
 11448 04c5 A2000000 		.4byte	.LVL94
 11449 04c9 A4000000 		.4byte	.LVL95
 11450 04cd 0100     		.2byte	0x1
 11451 04cf 50       		.byte	0x50
 11452 04d0 A4000000 		.4byte	.LVL95
 11453 04d4 A6000000 		.4byte	.LVL96
 11454 04d8 0100     		.2byte	0x1
 11455 04da 54       		.byte	0x54
 11456 04db 00000000 		.4byte	0
 11457 04df 00000000 		.4byte	0
 11458              	.LLST22:
 11459 04e3 80000000 		.4byte	.LVL90
 11460 04e7 88000000 		.4byte	.LVL91
 11461 04eb 0100     		.2byte	0x1
 11462 04ed 50       		.byte	0x50
ARM GAS  C:\Users\Phuong\AppData\Local\Temp\ccP1LXIT.s 			page 221


 11463 04ee 00000000 		.4byte	0
 11464 04f2 00000000 		.4byte	0
 11465              	.LLST23:
 11466 04f6 30000000 		.4byte	.LVL81
 11467 04fa 42000000 		.4byte	.LVL84
 11468 04fe 0100     		.2byte	0x1
 11469 0500 55       		.byte	0x55
 11470 0501 44000000 		.4byte	.LVL85
 11471 0505 A2000000 		.4byte	.LVL94
 11472 0509 0100     		.2byte	0x1
 11473 050b 55       		.byte	0x55
 11474 050c A6000000 		.4byte	.LVL96
 11475 0510 A8000000 		.4byte	.LVL97
 11476 0514 0100     		.2byte	0x1
 11477 0516 55       		.byte	0x55
 11478 0517 00000000 		.4byte	0
 11479 051b 00000000 		.4byte	0
 11480              	.LLST24:
 11481 051f 50000000 		.4byte	.LVL86
 11482 0523 56000000 		.4byte	.LVL87
 11483 0527 0100     		.2byte	0x1
 11484 0529 53       		.byte	0x53
 11485 052a 56000000 		.4byte	.LVL87
 11486 052e A2000000 		.4byte	.LVL94
 11487 0532 0100     		.2byte	0x1
 11488 0534 56       		.byte	0x56
 11489 0535 A6000000 		.4byte	.LVL96
 11490 0539 A8000000 		.4byte	.LVL97
 11491 053d 0100     		.2byte	0x1
 11492 053f 56       		.byte	0x56
 11493 0540 00000000 		.4byte	0
 11494 0544 00000000 		.4byte	0
 11495              	.LLST25:
 11496 0548 00000000 		.4byte	.LVL99
 11497 054c 14000000 		.4byte	.LVL102
 11498 0550 0100     		.2byte	0x1
 11499 0552 50       		.byte	0x50
 11500 0553 14000000 		.4byte	.LVL102
 11501 0557 44000000 		.4byte	.LVL110
 11502 055b 0100     		.2byte	0x1
 11503 055d 54       		.byte	0x54
 11504 055e 44000000 		.4byte	.LVL110
 11505 0562 47000000 		.4byte	.LVL111-1
 11506 0566 0100     		.2byte	0x1
 11507 0568 50       		.byte	0x50
 11508 0569 47000000 		.4byte	.LVL111-1
 11509 056d 4A000000 		.4byte	.LVL112
 11510 0571 0100     		.2byte	0x1
 11511 0573 54       		.byte	0x54
 11512 0574 4A000000 		.4byte	.LVL112
 11513 0578 70000000 		.4byte	.LFE22
 11514 057c 0400     		.2byte	0x4
 11515 057e F3       		.byte	0xf3
 11516 057f 01       		.uleb128 0x1
 11517 0580 50       		.byte	0x50
 11518 0581 9F       		.byte	0x9f
 11519 0582 00000000 		.4byte	0
ARM GAS  C:\Users\Phuong\AppData\Local\Temp\ccP1LXIT.s 			page 222


 11520 0586 00000000 		.4byte	0
 11521              	.LLST26:
 11522 058a 00000000 		.4byte	.LVL99
 11523 058e 12000000 		.4byte	.LVL101
 11524 0592 0100     		.2byte	0x1
 11525 0594 51       		.byte	0x51
 11526 0595 12000000 		.4byte	.LVL101
 11527 0599 44000000 		.4byte	.LVL110
 11528 059d 0100     		.2byte	0x1
 11529 059f 56       		.byte	0x56
 11530 05a0 44000000 		.4byte	.LVL110
 11531 05a4 47000000 		.4byte	.LVL111-1
 11532 05a8 0100     		.2byte	0x1
 11533 05aa 51       		.byte	0x51
 11534 05ab 47000000 		.4byte	.LVL111-1
 11535 05af 62000000 		.4byte	.LVL115
 11536 05b3 0100     		.2byte	0x1
 11537 05b5 56       		.byte	0x56
 11538 05b6 62000000 		.4byte	.LVL115
 11539 05ba 70000000 		.4byte	.LFE22
 11540 05be 0400     		.2byte	0x4
 11541 05c0 F3       		.byte	0xf3
 11542 05c1 01       		.uleb128 0x1
 11543 05c2 51       		.byte	0x51
 11544 05c3 9F       		.byte	0x9f
 11545 05c4 00000000 		.4byte	0
 11546 05c8 00000000 		.4byte	0
 11547              	.LLST27:
 11548 05cc 00000000 		.4byte	.LVL99
 11549 05d0 17000000 		.4byte	.LVL103-1
 11550 05d4 0100     		.2byte	0x1
 11551 05d6 52       		.byte	0x52
 11552 05d7 17000000 		.4byte	.LVL103-1
 11553 05db 40000000 		.4byte	.LVL109
 11554 05df 0100     		.2byte	0x1
 11555 05e1 55       		.byte	0x55
 11556 05e2 40000000 		.4byte	.LVL109
 11557 05e6 44000000 		.4byte	.LVL110
 11558 05ea 0400     		.2byte	0x4
 11559 05ec F3       		.byte	0xf3
 11560 05ed 01       		.uleb128 0x1
 11561 05ee 52       		.byte	0x52
 11562 05ef 9F       		.byte	0x9f
 11563 05f0 44000000 		.4byte	.LVL110
 11564 05f4 47000000 		.4byte	.LVL111-1
 11565 05f8 0100     		.2byte	0x1
 11566 05fa 52       		.byte	0x52
 11567 05fb 47000000 		.4byte	.LVL111-1
 11568 05ff 60000000 		.4byte	.LVL114
 11569 0603 0100     		.2byte	0x1
 11570 0605 55       		.byte	0x55
 11571 0606 60000000 		.4byte	.LVL114
 11572 060a 70000000 		.4byte	.LFE22
 11573 060e 0400     		.2byte	0x4
 11574 0610 F3       		.byte	0xf3
 11575 0611 01       		.uleb128 0x1
 11576 0612 52       		.byte	0x52
ARM GAS  C:\Users\Phuong\AppData\Local\Temp\ccP1LXIT.s 			page 223


 11577 0613 9F       		.byte	0x9f
 11578 0614 00000000 		.4byte	0
 11579 0618 00000000 		.4byte	0
 11580              	.LLST28:
 11581 061c 0E000000 		.4byte	.LVL100
 11582 0620 14000000 		.4byte	.LVL102
 11583 0624 0100     		.2byte	0x1
 11584 0626 50       		.byte	0x50
 11585 0627 14000000 		.4byte	.LVL102
 11586 062b 44000000 		.4byte	.LVL110
 11587 062f 0100     		.2byte	0x1
 11588 0631 54       		.byte	0x54
 11589 0632 00000000 		.4byte	0
 11590 0636 00000000 		.4byte	0
 11591              	.LLST29:
 11592 063a 18000000 		.4byte	.LVL103
 11593 063e 24000000 		.4byte	.LVL104
 11594 0642 0100     		.2byte	0x1
 11595 0644 50       		.byte	0x50
 11596 0645 2A000000 		.4byte	.LVL106
 11597 0649 32000000 		.4byte	.LVL107
 11598 064d 0100     		.2byte	0x1
 11599 064f 50       		.byte	0x50
 11600 0650 32000000 		.4byte	.LVL107
 11601 0654 39000000 		.4byte	.LVL108-1
 11602 0658 0200     		.2byte	0x2
 11603 065a 74       		.byte	0x74
 11604 065b 28       		.sleb128 40
 11605 065c 00000000 		.4byte	0
 11606 0660 00000000 		.4byte	0
 11607              	.LLST30:
 11608 0664 4A000000 		.4byte	.LVL112
 11609 0668 5E000000 		.4byte	.LVL113
 11610 066c 0100     		.2byte	0x1
 11611 066e 50       		.byte	0x50
 11612 066f 5E000000 		.4byte	.LVL113
 11613 0673 60000000 		.4byte	.LVL114
 11614 0677 0100     		.2byte	0x1
 11615 0679 54       		.byte	0x54
 11616 067a 00000000 		.4byte	0
 11617 067e 00000000 		.4byte	0
 11618              	.LLST31:
 11619 0682 00000000 		.4byte	.LVL116
 11620 0686 0F000000 		.4byte	.LVL117-1
 11621 068a 0100     		.2byte	0x1
 11622 068c 50       		.byte	0x50
 11623 068d 0F000000 		.4byte	.LVL117-1
 11624 0691 12000000 		.4byte	.LVL118
 11625 0695 0100     		.2byte	0x1
 11626 0697 54       		.byte	0x54
 11627 0698 12000000 		.4byte	.LVL118
 11628 069c 2E000000 		.4byte	.LVL121
 11629 06a0 0400     		.2byte	0x4
 11630 06a2 F3       		.byte	0xf3
 11631 06a3 01       		.uleb128 0x1
 11632 06a4 50       		.byte	0x50
 11633 06a5 9F       		.byte	0x9f
ARM GAS  C:\Users\Phuong\AppData\Local\Temp\ccP1LXIT.s 			page 224


 11634 06a6 2E000000 		.4byte	.LVL121
 11635 06aa 36000000 		.4byte	.LVL122
 11636 06ae 0100     		.2byte	0x1
 11637 06b0 50       		.byte	0x50
 11638 06b1 36000000 		.4byte	.LVL122
 11639 06b5 52000000 		.4byte	.LVL127
 11640 06b9 0100     		.2byte	0x1
 11641 06bb 54       		.byte	0x54
 11642 06bc 52000000 		.4byte	.LVL127
 11643 06c0 64000000 		.4byte	.LFE26
 11644 06c4 0400     		.2byte	0x4
 11645 06c6 F3       		.byte	0xf3
 11646 06c7 01       		.uleb128 0x1
 11647 06c8 50       		.byte	0x50
 11648 06c9 9F       		.byte	0x9f
 11649 06ca 00000000 		.4byte	0
 11650 06ce 00000000 		.4byte	0
 11651              	.LLST32:
 11652 06d2 00000000 		.4byte	.LVL116
 11653 06d6 0F000000 		.4byte	.LVL117-1
 11654 06da 0100     		.2byte	0x1
 11655 06dc 51       		.byte	0x51
 11656 06dd 0F000000 		.4byte	.LVL117-1
 11657 06e1 2E000000 		.4byte	.LVL121
 11658 06e5 0400     		.2byte	0x4
 11659 06e7 F3       		.byte	0xf3
 11660 06e8 01       		.uleb128 0x1
 11661 06e9 51       		.byte	0x51
 11662 06ea 9F       		.byte	0x9f
 11663 06eb 2E000000 		.4byte	.LVL121
 11664 06ef 39000000 		.4byte	.LVL123-1
 11665 06f3 0100     		.2byte	0x1
 11666 06f5 51       		.byte	0x51
 11667 06f6 39000000 		.4byte	.LVL123-1
 11668 06fa 64000000 		.4byte	.LFE26
 11669 06fe 0400     		.2byte	0x4
 11670 0700 F3       		.byte	0xf3
 11671 0701 01       		.uleb128 0x1
 11672 0702 51       		.byte	0x51
 11673 0703 9F       		.byte	0x9f
 11674 0704 00000000 		.4byte	0
 11675 0708 00000000 		.4byte	0
 11676              	.LLST33:
 11677 070c 00000000 		.4byte	.LVL116
 11678 0710 0F000000 		.4byte	.LVL117-1
 11679 0714 0100     		.2byte	0x1
 11680 0716 52       		.byte	0x52
 11681 0717 0F000000 		.4byte	.LVL117-1
 11682 071b 2E000000 		.4byte	.LVL121
 11683 071f 0100     		.2byte	0x1
 11684 0721 55       		.byte	0x55
 11685 0722 2E000000 		.4byte	.LVL121
 11686 0726 39000000 		.4byte	.LVL123-1
 11687 072a 0100     		.2byte	0x1
 11688 072c 52       		.byte	0x52
 11689 072d 39000000 		.4byte	.LVL123-1
 11690 0731 56000000 		.4byte	.LVL129
ARM GAS  C:\Users\Phuong\AppData\Local\Temp\ccP1LXIT.s 			page 225


 11691 0735 0100     		.2byte	0x1
 11692 0737 55       		.byte	0x55
 11693 0738 56000000 		.4byte	.LVL129
 11694 073c 64000000 		.4byte	.LFE26
 11695 0740 0400     		.2byte	0x4
 11696 0742 F3       		.byte	0xf3
 11697 0743 01       		.uleb128 0x1
 11698 0744 52       		.byte	0x52
 11699 0745 9F       		.byte	0x9f
 11700 0746 00000000 		.4byte	0
 11701 074a 00000000 		.4byte	0
 11702              	.LLST34:
 11703 074e 4A000000 		.4byte	.LVL124
 11704 0752 4E000000 		.4byte	.LVL125
 11705 0756 0200     		.2byte	0x2
 11706 0758 30       		.byte	0x30
 11707 0759 9F       		.byte	0x9f
 11708 075a 50000000 		.4byte	.LVL126
 11709 075e 52000000 		.4byte	.LVL127
 11710 0762 0100     		.2byte	0x1
 11711 0764 50       		.byte	0x50
 11712 0765 54000000 		.4byte	.LVL128
 11713 0769 64000000 		.4byte	.LFE26
 11714 076d 0100     		.2byte	0x1
 11715 076f 50       		.byte	0x50
 11716 0770 00000000 		.4byte	0
 11717 0774 00000000 		.4byte	0
 11718              	.LLST35:
 11719 0778 12000000 		.4byte	.LVL118
 11720 077c 28000000 		.4byte	.LVL119
 11721 0780 0100     		.2byte	0x1
 11722 0782 50       		.byte	0x50
 11723 0783 28000000 		.4byte	.LVL119
 11724 0787 2E000000 		.4byte	.LVL121
 11725 078b 0100     		.2byte	0x1
 11726 078d 54       		.byte	0x54
 11727 078e 52000000 		.4byte	.LVL127
 11728 0792 54000000 		.4byte	.LVL128
 11729 0796 0100     		.2byte	0x1
 11730 0798 50       		.byte	0x50
 11731 0799 00000000 		.4byte	0
 11732 079d 00000000 		.4byte	0
 11733              	.LLST36:
 11734 07a1 2E000000 		.4byte	.LVL121
 11735 07a5 36000000 		.4byte	.LVL122
 11736 07a9 0100     		.2byte	0x1
 11737 07ab 50       		.byte	0x50
 11738 07ac 36000000 		.4byte	.LVL122
 11739 07b0 52000000 		.4byte	.LVL127
 11740 07b4 0100     		.2byte	0x1
 11741 07b6 54       		.byte	0x54
 11742 07b7 00000000 		.4byte	0
 11743 07bb 00000000 		.4byte	0
 11744              	.LLST37:
 11745 07bf 00000000 		.4byte	.LVL130
 11746 07c3 0E000000 		.4byte	.LVL132
 11747 07c7 0100     		.2byte	0x1
ARM GAS  C:\Users\Phuong\AppData\Local\Temp\ccP1LXIT.s 			page 226


 11748 07c9 50       		.byte	0x50
 11749 07ca 0E000000 		.4byte	.LVL132
 11750 07ce 42000000 		.4byte	.LFE27
 11751 07d2 0400     		.2byte	0x4
 11752 07d4 F3       		.byte	0xf3
 11753 07d5 01       		.uleb128 0x1
 11754 07d6 50       		.byte	0x50
 11755 07d7 9F       		.byte	0x9f
 11756 07d8 00000000 		.4byte	0
 11757 07dc 00000000 		.4byte	0
 11758              	.LLST38:
 11759 07e0 00000000 		.4byte	.LVL130
 11760 07e4 11000000 		.4byte	.LVL133-1
 11761 07e8 0100     		.2byte	0x1
 11762 07ea 51       		.byte	0x51
 11763 07eb 11000000 		.4byte	.LVL133-1
 11764 07ef 3C000000 		.4byte	.LVL141
 11765 07f3 0100     		.2byte	0x1
 11766 07f5 57       		.byte	0x57
 11767 07f6 3C000000 		.4byte	.LVL141
 11768 07fa 42000000 		.4byte	.LFE27
 11769 07fe 0400     		.2byte	0x4
 11770 0800 F3       		.byte	0xf3
 11771 0801 01       		.uleb128 0x1
 11772 0802 51       		.byte	0x51
 11773 0803 9F       		.byte	0x9f
 11774 0804 00000000 		.4byte	0
 11775 0808 00000000 		.4byte	0
 11776              	.LLST39:
 11777 080c 00000000 		.4byte	.LVL130
 11778 0810 11000000 		.4byte	.LVL133-1
 11779 0814 0100     		.2byte	0x1
 11780 0816 52       		.byte	0x52
 11781 0817 11000000 		.4byte	.LVL133-1
 11782 081b 3C000000 		.4byte	.LVL140
 11783 081f 0100     		.2byte	0x1
 11784 0821 56       		.byte	0x56
 11785 0822 3C000000 		.4byte	.LVL140
 11786 0826 42000000 		.4byte	.LFE27
 11787 082a 0200     		.2byte	0x2
 11788 082c 73       		.byte	0x73
 11789 082d 00       		.sleb128 0
 11790 082e 00000000 		.4byte	0
 11791 0832 00000000 		.4byte	0
 11792              	.LLST40:
 11793 0836 00000000 		.4byte	.LVL130
 11794 083a 11000000 		.4byte	.LVL133-1
 11795 083e 0100     		.2byte	0x1
 11796 0840 53       		.byte	0x53
 11797 0841 11000000 		.4byte	.LVL133-1
 11798 0845 3C000000 		.4byte	.LVL142
 11799 0849 0100     		.2byte	0x1
 11800 084b 58       		.byte	0x58
 11801 084c 3C000000 		.4byte	.LVL142
 11802 0850 42000000 		.4byte	.LFE27
 11803 0854 0100     		.2byte	0x1
 11804 0856 53       		.byte	0x53
ARM GAS  C:\Users\Phuong\AppData\Local\Temp\ccP1LXIT.s 			page 227


 11805 0857 00000000 		.4byte	0
 11806 085b 00000000 		.4byte	0
 11807              	.LLST41:
 11808 085f 16000000 		.4byte	.LVL134
 11809 0863 1A000000 		.4byte	.LVL135
 11810 0867 0200     		.2byte	0x2
 11811 0869 30       		.byte	0x30
 11812 086a 9F       		.byte	0x9f
 11813 086b 1A000000 		.4byte	.LVL135
 11814 086f 30000000 		.4byte	.LVL137
 11815 0873 0100     		.2byte	0x1
 11816 0875 54       		.byte	0x54
 11817 0876 32000000 		.4byte	.LVL138
 11818 087a 3C000000 		.4byte	.LVL139
 11819 087e 0100     		.2byte	0x1
 11820 0880 54       		.byte	0x54
 11821 0881 00000000 		.4byte	0
 11822 0885 00000000 		.4byte	0
 11823              	.LLST42:
 11824 0889 00000000 		.4byte	.LVL143
 11825 088d 0C000000 		.4byte	.LVL145
 11826 0891 0100     		.2byte	0x1
 11827 0893 50       		.byte	0x50
 11828 0894 0C000000 		.4byte	.LVL145
 11829 0898 5A000000 		.4byte	.LVL155
 11830 089c 0100     		.2byte	0x1
 11831 089e 54       		.byte	0x54
 11832 089f 5A000000 		.4byte	.LVL155
 11833 08a3 5C000000 		.4byte	.LFE30
 11834 08a7 0400     		.2byte	0x4
 11835 08a9 F3       		.byte	0xf3
 11836 08aa 01       		.uleb128 0x1
 11837 08ab 50       		.byte	0x50
 11838 08ac 9F       		.byte	0x9f
 11839 08ad 00000000 		.4byte	0
 11840 08b1 00000000 		.4byte	0
 11841              	.LLST43:
 11842 08b5 06000000 		.4byte	.LVL144
 11843 08b9 0C000000 		.4byte	.LVL145
 11844 08bd 0100     		.2byte	0x1
 11845 08bf 50       		.byte	0x50
 11846 08c0 0C000000 		.4byte	.LVL145
 11847 08c4 5A000000 		.4byte	.LVL154
 11848 08c8 0100     		.2byte	0x1
 11849 08ca 54       		.byte	0x54
 11850 08cb 00000000 		.4byte	0
 11851 08cf 00000000 		.4byte	0
 11852              	.LLST44:
 11853 08d3 00000000 		.4byte	.LVL156
 11854 08d7 0B000000 		.4byte	.LVL158-1
 11855 08db 0100     		.2byte	0x1
 11856 08dd 50       		.byte	0x50
 11857 08de 0B000000 		.4byte	.LVL158-1
 11858 08e2 0E000000 		.4byte	.LVL159
 11859 08e6 0100     		.2byte	0x1
 11860 08e8 54       		.byte	0x54
 11861 08e9 0E000000 		.4byte	.LVL159
ARM GAS  C:\Users\Phuong\AppData\Local\Temp\ccP1LXIT.s 			page 228


 11862 08ed 2A000000 		.4byte	.LVL162
 11863 08f1 0400     		.2byte	0x4
 11864 08f3 F3       		.byte	0xf3
 11865 08f4 01       		.uleb128 0x1
 11866 08f5 50       		.byte	0x50
 11867 08f6 9F       		.byte	0x9f
 11868 08f7 2A000000 		.4byte	.LVL162
 11869 08fb 2C000000 		.4byte	.LVL163
 11870 08ff 0100     		.2byte	0x1
 11871 0901 50       		.byte	0x50
 11872 0902 2C000000 		.4byte	.LVL163
 11873 0906 AC000000 		.4byte	.LVL179
 11874 090a 0100     		.2byte	0x1
 11875 090c 54       		.byte	0x54
 11876 090d AC000000 		.4byte	.LVL179
 11877 0911 B2000000 		.4byte	.LVL181
 11878 0915 0400     		.2byte	0x4
 11879 0917 F3       		.byte	0xf3
 11880 0918 01       		.uleb128 0x1
 11881 0919 50       		.byte	0x50
 11882 091a 9F       		.byte	0x9f
 11883 091b B2000000 		.4byte	.LVL181
 11884 091f BA000000 		.4byte	.LVL184
 11885 0923 0100     		.2byte	0x1
 11886 0925 54       		.byte	0x54
 11887 0926 BA000000 		.4byte	.LVL184
 11888 092a EC000000 		.4byte	.LFE31
 11889 092e 0400     		.2byte	0x4
 11890 0930 F3       		.byte	0xf3
 11891 0931 01       		.uleb128 0x1
 11892 0932 50       		.byte	0x50
 11893 0933 9F       		.byte	0x9f
 11894 0934 00000000 		.4byte	0
 11895 0938 00000000 		.4byte	0
 11896              	.LLST45:
 11897 093c 00000000 		.4byte	.LVL156
 11898 0940 0B000000 		.4byte	.LVL158-1
 11899 0944 0100     		.2byte	0x1
 11900 0946 51       		.byte	0x51
 11901 0947 0B000000 		.4byte	.LVL158-1
 11902 094b 2A000000 		.4byte	.LVL162
 11903 094f 0400     		.2byte	0x4
 11904 0951 F3       		.byte	0xf3
 11905 0952 01       		.uleb128 0x1
 11906 0953 51       		.byte	0x51
 11907 0954 9F       		.byte	0x9f
 11908 0955 2A000000 		.4byte	.LVL162
 11909 0959 35000000 		.4byte	.LVL164-1
 11910 095d 0100     		.2byte	0x1
 11911 095f 51       		.byte	0x51
 11912 0960 35000000 		.4byte	.LVL164-1
 11913 0964 58000000 		.4byte	.LVL168
 11914 0968 0400     		.2byte	0x4
 11915 096a F3       		.byte	0xf3
 11916 096b 01       		.uleb128 0x1
 11917 096c 51       		.byte	0x51
 11918 096d 9F       		.byte	0x9f
ARM GAS  C:\Users\Phuong\AppData\Local\Temp\ccP1LXIT.s 			page 229


 11919 096e 58000000 		.4byte	.LVL168
 11920 0972 7E000000 		.4byte	.LVL172
 11921 0976 0100     		.2byte	0x1
 11922 0978 51       		.byte	0x51
 11923 0979 7E000000 		.4byte	.LVL172
 11924 097d EC000000 		.4byte	.LFE31
 11925 0981 0400     		.2byte	0x4
 11926 0983 F3       		.byte	0xf3
 11927 0984 01       		.uleb128 0x1
 11928 0985 51       		.byte	0x51
 11929 0986 9F       		.byte	0x9f
 11930 0987 00000000 		.4byte	0
 11931 098b 00000000 		.4byte	0
 11932              	.LLST46:
 11933 098f 00000000 		.4byte	.LVL156
 11934 0993 0B000000 		.4byte	.LVL158-1
 11935 0997 0100     		.2byte	0x1
 11936 0999 52       		.byte	0x52
 11937 099a 0B000000 		.4byte	.LVL158-1
 11938 099e 2A000000 		.4byte	.LVL162
 11939 09a2 0400     		.2byte	0x4
 11940 09a4 F3       		.byte	0xf3
 11941 09a5 01       		.uleb128 0x1
 11942 09a6 52       		.byte	0x52
 11943 09a7 9F       		.byte	0x9f
 11944 09a8 2A000000 		.4byte	.LVL162
 11945 09ac 35000000 		.4byte	.LVL164-1
 11946 09b0 0100     		.2byte	0x1
 11947 09b2 52       		.byte	0x52
 11948 09b3 35000000 		.4byte	.LVL164-1
 11949 09b7 58000000 		.4byte	.LVL168
 11950 09bb 0400     		.2byte	0x4
 11951 09bd F3       		.byte	0xf3
 11952 09be 01       		.uleb128 0x1
 11953 09bf 52       		.byte	0x52
 11954 09c0 9F       		.byte	0x9f
 11955 09c1 58000000 		.4byte	.LVL168
 11956 09c5 6C000000 		.4byte	.LVL170
 11957 09c9 0100     		.2byte	0x1
 11958 09cb 52       		.byte	0x52
 11959 09cc 6C000000 		.4byte	.LVL170
 11960 09d0 70000000 		.4byte	.LVL171
 11961 09d4 0200     		.2byte	0x2
 11962 09d6 74       		.byte	0x74
 11963 09d7 18       		.sleb128 24
 11964 09d8 70000000 		.4byte	.LVL171
 11965 09dc EC000000 		.4byte	.LFE31
 11966 09e0 0400     		.2byte	0x4
 11967 09e2 F3       		.byte	0xf3
 11968 09e3 01       		.uleb128 0x1
 11969 09e4 52       		.byte	0x52
 11970 09e5 9F       		.byte	0x9f
 11971 09e6 00000000 		.4byte	0
 11972 09ea 00000000 		.4byte	0
 11973              	.LLST47:
 11974 09ee 00000000 		.4byte	.LVL156
 11975 09f2 0B000000 		.4byte	.LVL158-1
ARM GAS  C:\Users\Phuong\AppData\Local\Temp\ccP1LXIT.s 			page 230


 11976 09f6 0100     		.2byte	0x1
 11977 09f8 53       		.byte	0x53
 11978 09f9 0B000000 		.4byte	.LVL158-1
 11979 09fd 2A000000 		.4byte	.LVL162
 11980 0a01 0400     		.2byte	0x4
 11981 0a03 F3       		.byte	0xf3
 11982 0a04 01       		.uleb128 0x1
 11983 0a05 53       		.byte	0x53
 11984 0a06 9F       		.byte	0x9f
 11985 0a07 2A000000 		.4byte	.LVL162
 11986 0a0b 35000000 		.4byte	.LVL164-1
 11987 0a0f 0100     		.2byte	0x1
 11988 0a11 53       		.byte	0x53
 11989 0a12 35000000 		.4byte	.LVL164-1
 11990 0a16 58000000 		.4byte	.LVL168
 11991 0a1a 0400     		.2byte	0x4
 11992 0a1c F3       		.byte	0xf3
 11993 0a1d 01       		.uleb128 0x1
 11994 0a1e 53       		.byte	0x53
 11995 0a1f 9F       		.byte	0x9f
 11996 0a20 58000000 		.4byte	.LVL168
 11997 0a24 5C000000 		.4byte	.LVL169
 11998 0a28 0100     		.2byte	0x1
 11999 0a2a 53       		.byte	0x53
 12000 0a2b 5C000000 		.4byte	.LVL169
 12001 0a2f 70000000 		.4byte	.LVL171
 12002 0a33 0200     		.2byte	0x2
 12003 0a35 74       		.byte	0x74
 12004 0a36 04       		.sleb128 4
 12005 0a37 70000000 		.4byte	.LVL171
 12006 0a3b EC000000 		.4byte	.LFE31
 12007 0a3f 0400     		.2byte	0x4
 12008 0a41 F3       		.byte	0xf3
 12009 0a42 01       		.uleb128 0x1
 12010 0a43 53       		.byte	0x53
 12011 0a44 9F       		.byte	0x9f
 12012 0a45 00000000 		.4byte	0
 12013 0a49 00000000 		.4byte	0
 12014              	.LLST48:
 12015 0a4d 06000000 		.4byte	.LVL157
 12016 0a51 A8000000 		.4byte	.LVL178
 12017 0a55 0200     		.2byte	0x2
 12018 0a57 30       		.byte	0x30
 12019 0a58 9F       		.byte	0x9f
 12020 0a59 A8000000 		.4byte	.LVL178
 12021 0a5d AC000000 		.4byte	.LVL179
 12022 0a61 0400     		.2byte	0x4
 12023 0a63 0A       		.byte	0xa
 12024 0a64 1702     		.2byte	0x217
 12025 0a66 9F       		.byte	0x9f
 12026 0a67 AC000000 		.4byte	.LVL179
 12027 0a6b BA000000 		.4byte	.LVL184
 12028 0a6f 0200     		.2byte	0x2
 12029 0a71 30       		.byte	0x30
 12030 0a72 9F       		.byte	0x9f
 12031 0a73 BA000000 		.4byte	.LVL184
 12032 0a77 EC000000 		.4byte	.LFE31
ARM GAS  C:\Users\Phuong\AppData\Local\Temp\ccP1LXIT.s 			page 231


 12033 0a7b 0100     		.2byte	0x1
 12034 0a7d 50       		.byte	0x50
 12035 0a7e 00000000 		.4byte	0
 12036 0a82 00000000 		.4byte	0
 12037              	.LLST49:
 12038 0a86 0E000000 		.4byte	.LVL159
 12039 0a8a 22000000 		.4byte	.LVL160
 12040 0a8e 0100     		.2byte	0x1
 12041 0a90 50       		.byte	0x50
 12042 0a91 22000000 		.4byte	.LVL160
 12043 0a95 2A000000 		.4byte	.LVL162
 12044 0a99 0100     		.2byte	0x1
 12045 0a9b 54       		.byte	0x54
 12046 0a9c AC000000 		.4byte	.LVL179
 12047 0aa0 AE000000 		.4byte	.LVL180
 12048 0aa4 0100     		.2byte	0x1
 12049 0aa6 50       		.byte	0x50
 12050 0aa7 AE000000 		.4byte	.LVL180
 12051 0aab B2000000 		.4byte	.LVL181
 12052 0aaf 0100     		.2byte	0x1
 12053 0ab1 54       		.byte	0x54
 12054 0ab2 00000000 		.4byte	0
 12055 0ab6 00000000 		.4byte	0
 12056              	.LLST50:
 12057 0aba 2A000000 		.4byte	.LVL162
 12058 0abe 2C000000 		.4byte	.LVL163
 12059 0ac2 0100     		.2byte	0x1
 12060 0ac4 50       		.byte	0x50
 12061 0ac5 2C000000 		.4byte	.LVL163
 12062 0ac9 AC000000 		.4byte	.LVL179
 12063 0acd 0100     		.2byte	0x1
 12064 0acf 54       		.byte	0x54
 12065 0ad0 B2000000 		.4byte	.LVL181
 12066 0ad4 BA000000 		.4byte	.LVL184
 12067 0ad8 0100     		.2byte	0x1
 12068 0ada 54       		.byte	0x54
 12069 0adb 00000000 		.4byte	0
 12070 0adf 00000000 		.4byte	0
 12071              	.LLST51:
 12072 0ae3 38000000 		.4byte	.LVL165
 12073 0ae7 50000000 		.4byte	.LVL166
 12074 0aeb 0100     		.2byte	0x1
 12075 0aed 50       		.byte	0x50
 12076 0aee 50000000 		.4byte	.LVL166
 12077 0af2 58000000 		.4byte	.LVL168
 12078 0af6 0100     		.2byte	0x1
 12079 0af8 55       		.byte	0x55
 12080 0af9 B2000000 		.4byte	.LVL181
 12081 0afd B4000000 		.4byte	.LVL182
 12082 0b01 0100     		.2byte	0x1
 12083 0b03 50       		.byte	0x50
 12084 0b04 B4000000 		.4byte	.LVL182
 12085 0b08 B8000000 		.4byte	.LVL183
 12086 0b0c 0100     		.2byte	0x1
 12087 0b0e 55       		.byte	0x55
 12088 0b0f 00000000 		.4byte	0
 12089 0b13 00000000 		.4byte	0
ARM GAS  C:\Users\Phuong\AppData\Local\Temp\ccP1LXIT.s 			page 232


 12090              	.LLST52:
 12091 0b17 8E000000 		.4byte	.LVL175
 12092 0b1b A0000000 		.4byte	.LVL176
 12093 0b1f 0100     		.2byte	0x1
 12094 0b21 50       		.byte	0x50
 12095 0b22 A0000000 		.4byte	.LVL176
 12096 0b26 AC000000 		.4byte	.LVL179
 12097 0b2a 0100     		.2byte	0x1
 12098 0b2c 55       		.byte	0x55
 12099 0b2d 00000000 		.4byte	0
 12100 0b31 00000000 		.4byte	0
 12101              	.LLST53:
 12102 0b35 00000000 		.4byte	.LVL185
 12103 0b39 0B000000 		.4byte	.LVL186-1
 12104 0b3d 0100     		.2byte	0x1
 12105 0b3f 50       		.byte	0x50
 12106 0b40 0B000000 		.4byte	.LVL186-1
 12107 0b44 0E000000 		.4byte	.LVL187
 12108 0b48 0100     		.2byte	0x1
 12109 0b4a 54       		.byte	0x54
 12110 0b4b 0E000000 		.4byte	.LVL187
 12111 0b4f 26000000 		.4byte	.LVL190
 12112 0b53 0400     		.2byte	0x4
 12113 0b55 F3       		.byte	0xf3
 12114 0b56 01       		.uleb128 0x1
 12115 0b57 50       		.byte	0x50
 12116 0b58 9F       		.byte	0x9f
 12117 0b59 26000000 		.4byte	.LVL190
 12118 0b5d 3E000000 		.4byte	.LVL191
 12119 0b61 0100     		.2byte	0x1
 12120 0b63 50       		.byte	0x50
 12121 0b64 3E000000 		.4byte	.LVL191
 12122 0b68 52000000 		.4byte	.LVL194
 12123 0b6c 0100     		.2byte	0x1
 12124 0b6e 54       		.byte	0x54
 12125 0b6f 52000000 		.4byte	.LVL194
 12126 0b73 5B000000 		.4byte	.LVL195-1
 12127 0b77 0100     		.2byte	0x1
 12128 0b79 50       		.byte	0x50
 12129 0b7a 5B000000 		.4byte	.LVL195-1
 12130 0b7e 5C000000 		.4byte	.LVL195
 12131 0b82 0100     		.2byte	0x1
 12132 0b84 54       		.byte	0x54
 12133 0b85 5C000000 		.4byte	.LVL195
 12134 0b89 6C000000 		.4byte	.LFE23
 12135 0b8d 0400     		.2byte	0x4
 12136 0b8f F3       		.byte	0xf3
 12137 0b90 01       		.uleb128 0x1
 12138 0b91 50       		.byte	0x50
 12139 0b92 9F       		.byte	0x9f
 12140 0b93 00000000 		.4byte	0
 12141 0b97 00000000 		.4byte	0
 12142              	.LLST54:
 12143 0b9b 0E000000 		.4byte	.LVL187
 12144 0b9f 22000000 		.4byte	.LVL188
 12145 0ba3 0100     		.2byte	0x1
 12146 0ba5 50       		.byte	0x50
ARM GAS  C:\Users\Phuong\AppData\Local\Temp\ccP1LXIT.s 			page 233


 12147 0ba6 22000000 		.4byte	.LVL188
 12148 0baa 26000000 		.4byte	.LVL190
 12149 0bae 0100     		.2byte	0x1
 12150 0bb0 54       		.byte	0x54
 12151 0bb1 00000000 		.4byte	0
 12152 0bb5 00000000 		.4byte	0
 12153              	.LLST55:
 12154 0bb9 26000000 		.4byte	.LVL190
 12155 0bbd 3E000000 		.4byte	.LVL191
 12156 0bc1 0100     		.2byte	0x1
 12157 0bc3 50       		.byte	0x50
 12158 0bc4 3E000000 		.4byte	.LVL191
 12159 0bc8 52000000 		.4byte	.LVL194
 12160 0bcc 0100     		.2byte	0x1
 12161 0bce 54       		.byte	0x54
 12162 0bcf 52000000 		.4byte	.LVL194
 12163 0bd3 5B000000 		.4byte	.LVL195-1
 12164 0bd7 0100     		.2byte	0x1
 12165 0bd9 50       		.byte	0x50
 12166 0bda 5B000000 		.4byte	.LVL195-1
 12167 0bde 5C000000 		.4byte	.LVL195
 12168 0be2 0100     		.2byte	0x1
 12169 0be4 54       		.byte	0x54
 12170 0be5 00000000 		.4byte	0
 12171 0be9 00000000 		.4byte	0
 12172              	.LLST56:
 12173 0bed 00000000 		.4byte	.LVL196
 12174 0bf1 0B000000 		.4byte	.LVL197-1
 12175 0bf5 0100     		.2byte	0x1
 12176 0bf7 50       		.byte	0x50
 12177 0bf8 0B000000 		.4byte	.LVL197-1
 12178 0bfc 0E000000 		.4byte	.LVL198
 12179 0c00 0100     		.2byte	0x1
 12180 0c02 54       		.byte	0x54
 12181 0c03 0E000000 		.4byte	.LVL198
 12182 0c07 26000000 		.4byte	.LVL201
 12183 0c0b 0400     		.2byte	0x4
 12184 0c0d F3       		.byte	0xf3
 12185 0c0e 01       		.uleb128 0x1
 12186 0c0f 50       		.byte	0x50
 12187 0c10 9F       		.byte	0x9f
 12188 0c11 26000000 		.4byte	.LVL201
 12189 0c15 35000000 		.4byte	.LVL203-1
 12190 0c19 0100     		.2byte	0x1
 12191 0c1b 50       		.byte	0x50
 12192 0c1c 35000000 		.4byte	.LVL203-1
 12193 0c20 38000000 		.4byte	.LVL204
 12194 0c24 0100     		.2byte	0x1
 12195 0c26 54       		.byte	0x54
 12196 0c27 38000000 		.4byte	.LVL204
 12197 0c2b 3E000000 		.4byte	.LVL205
 12198 0c2f 0100     		.2byte	0x1
 12199 0c31 50       		.byte	0x50
 12200 0c32 3E000000 		.4byte	.LVL205
 12201 0c36 76000000 		.4byte	.LVL211
 12202 0c3a 0100     		.2byte	0x1
 12203 0c3c 54       		.byte	0x54
ARM GAS  C:\Users\Phuong\AppData\Local\Temp\ccP1LXIT.s 			page 234


 12204 0c3d 76000000 		.4byte	.LVL211
 12205 0c41 90000000 		.4byte	.LFE21
 12206 0c45 0400     		.2byte	0x4
 12207 0c47 F3       		.byte	0xf3
 12208 0c48 01       		.uleb128 0x1
 12209 0c49 50       		.byte	0x50
 12210 0c4a 9F       		.byte	0x9f
 12211 0c4b 00000000 		.4byte	0
 12212 0c4f 00000000 		.4byte	0
 12213              	.LLST57:
 12214 0c53 00000000 		.4byte	.LVL196
 12215 0c57 0B000000 		.4byte	.LVL197-1
 12216 0c5b 0100     		.2byte	0x1
 12217 0c5d 51       		.byte	0x51
 12218 0c5e 0B000000 		.4byte	.LVL197-1
 12219 0c62 26000000 		.4byte	.LVL201
 12220 0c66 0400     		.2byte	0x4
 12221 0c68 F3       		.byte	0xf3
 12222 0c69 01       		.uleb128 0x1
 12223 0c6a 51       		.byte	0x51
 12224 0c6b 9F       		.byte	0x9f
 12225 0c6c 26000000 		.4byte	.LVL201
 12226 0c70 32000000 		.4byte	.LVL202
 12227 0c74 0100     		.2byte	0x1
 12228 0c76 51       		.byte	0x51
 12229 0c77 32000000 		.4byte	.LVL202
 12230 0c7b 38000000 		.4byte	.LVL204
 12231 0c7f 0400     		.2byte	0x4
 12232 0c81 F3       		.byte	0xf3
 12233 0c82 01       		.uleb128 0x1
 12234 0c83 51       		.byte	0x51
 12235 0c84 9F       		.byte	0x9f
 12236 0c85 38000000 		.4byte	.LVL204
 12237 0c89 3E000000 		.4byte	.LVL205
 12238 0c8d 0100     		.2byte	0x1
 12239 0c8f 51       		.byte	0x51
 12240 0c90 3E000000 		.4byte	.LVL205
 12241 0c94 90000000 		.4byte	.LFE21
 12242 0c98 0400     		.2byte	0x4
 12243 0c9a F3       		.byte	0xf3
 12244 0c9b 01       		.uleb128 0x1
 12245 0c9c 51       		.byte	0x51
 12246 0c9d 9F       		.byte	0x9f
 12247 0c9e 00000000 		.4byte	0
 12248 0ca2 00000000 		.4byte	0
 12249              	.LLST58:
 12250 0ca6 0E000000 		.4byte	.LVL198
 12251 0caa 22000000 		.4byte	.LVL199
 12252 0cae 0100     		.2byte	0x1
 12253 0cb0 50       		.byte	0x50
 12254 0cb1 22000000 		.4byte	.LVL199
 12255 0cb5 26000000 		.4byte	.LVL201
 12256 0cb9 0100     		.2byte	0x1
 12257 0cbb 54       		.byte	0x54
 12258 0cbc 00000000 		.4byte	0
 12259 0cc0 00000000 		.4byte	0
 12260              	.LLST59:
ARM GAS  C:\Users\Phuong\AppData\Local\Temp\ccP1LXIT.s 			page 235


 12261 0cc4 26000000 		.4byte	.LVL201
 12262 0cc8 35000000 		.4byte	.LVL203-1
 12263 0ccc 0100     		.2byte	0x1
 12264 0cce 50       		.byte	0x50
 12265 0ccf 35000000 		.4byte	.LVL203-1
 12266 0cd3 38000000 		.4byte	.LVL204
 12267 0cd7 0100     		.2byte	0x1
 12268 0cd9 54       		.byte	0x54
 12269 0cda 38000000 		.4byte	.LVL204
 12270 0cde 3E000000 		.4byte	.LVL205
 12271 0ce2 0100     		.2byte	0x1
 12272 0ce4 50       		.byte	0x50
 12273 0ce5 3E000000 		.4byte	.LVL205
 12274 0ce9 76000000 		.4byte	.LVL211
 12275 0ced 0100     		.2byte	0x1
 12276 0cef 54       		.byte	0x54
 12277 0cf0 00000000 		.4byte	0
 12278 0cf4 00000000 		.4byte	0
 12279              	.LLST60:
 12280 0cf8 26000000 		.4byte	.LVL201
 12281 0cfc 3E000000 		.4byte	.LVL205
 12282 0d00 0200     		.2byte	0x2
 12283 0d02 30       		.byte	0x30
 12284 0d03 9F       		.byte	0x9f
 12285 0d04 48000000 		.4byte	.LVL206
 12286 0d08 62000000 		.4byte	.LVL207
 12287 0d0c 0100     		.2byte	0x1
 12288 0d0e 50       		.byte	0x50
 12289 0d0f 68000000 		.4byte	.LVL209
 12290 0d13 72000000 		.4byte	.LVL210
 12291 0d17 0100     		.2byte	0x1
 12292 0d19 50       		.byte	0x50
 12293 0d1a 00000000 		.4byte	0
 12294 0d1e 00000000 		.4byte	0
 12295              	.LLST61:
 12296 0d22 00000000 		.4byte	.LVL212
 12297 0d26 14000000 		.4byte	.LVL215
 12298 0d2a 0100     		.2byte	0x1
 12299 0d2c 50       		.byte	0x50
 12300 0d2d 14000000 		.4byte	.LVL215
 12301 0d31 38000000 		.4byte	.LVL218
 12302 0d35 0100     		.2byte	0x1
 12303 0d37 54       		.byte	0x54
 12304 0d38 38000000 		.4byte	.LVL218
 12305 0d3c 3A000000 		.4byte	.LVL219
 12306 0d40 0100     		.2byte	0x1
 12307 0d42 50       		.byte	0x50
 12308 0d43 3A000000 		.4byte	.LVL219
 12309 0d47 3C000000 		.4byte	.LVL220
 12310 0d4b 0100     		.2byte	0x1
 12311 0d4d 54       		.byte	0x54
 12312 0d4e 3C000000 		.4byte	.LVL220
 12313 0d52 3E000000 		.4byte	.LVL221
 12314 0d56 0100     		.2byte	0x1
 12315 0d58 50       		.byte	0x50
 12316 0d59 3E000000 		.4byte	.LVL221
 12317 0d5d 40000000 		.4byte	.LVL222
ARM GAS  C:\Users\Phuong\AppData\Local\Temp\ccP1LXIT.s 			page 236


 12318 0d61 0100     		.2byte	0x1
 12319 0d63 54       		.byte	0x54
 12320 0d64 40000000 		.4byte	.LVL222
 12321 0d68 42000000 		.4byte	.LVL223
 12322 0d6c 0100     		.2byte	0x1
 12323 0d6e 50       		.byte	0x50
 12324 0d6f 42000000 		.4byte	.LVL223
 12325 0d73 46000000 		.4byte	.LVL226
 12326 0d77 0100     		.2byte	0x1
 12327 0d79 54       		.byte	0x54
 12328 0d7a 46000000 		.4byte	.LVL226
 12329 0d7e 58000000 		.4byte	.LFE32
 12330 0d82 0400     		.2byte	0x4
 12331 0d84 F3       		.byte	0xf3
 12332 0d85 01       		.uleb128 0x1
 12333 0d86 50       		.byte	0x50
 12334 0d87 9F       		.byte	0x9f
 12335 0d88 00000000 		.4byte	0
 12336 0d8c 00000000 		.4byte	0
 12337              	.LLST62:
 12338 0d90 00000000 		.4byte	.LVL212
 12339 0d94 25000000 		.4byte	.LVL216-1
 12340 0d98 0100     		.2byte	0x1
 12341 0d9a 51       		.byte	0x51
 12342 0d9b 25000000 		.4byte	.LVL216-1
 12343 0d9f 38000000 		.4byte	.LVL218
 12344 0da3 0400     		.2byte	0x4
 12345 0da5 F3       		.byte	0xf3
 12346 0da6 01       		.uleb128 0x1
 12347 0da7 51       		.byte	0x51
 12348 0da8 9F       		.byte	0x9f
 12349 0da9 38000000 		.4byte	.LVL218
 12350 0dad 44000000 		.4byte	.LVL224
 12351 0db1 0100     		.2byte	0x1
 12352 0db3 51       		.byte	0x51
 12353 0db4 44000000 		.4byte	.LVL224
 12354 0db8 58000000 		.4byte	.LFE32
 12355 0dbc 0400     		.2byte	0x4
 12356 0dbe F3       		.byte	0xf3
 12357 0dbf 01       		.uleb128 0x1
 12358 0dc0 51       		.byte	0x51
 12359 0dc1 9F       		.byte	0x9f
 12360 0dc2 00000000 		.4byte	0
 12361 0dc6 00000000 		.4byte	0
 12362              	.LLST63:
 12363 0dca 00000000 		.4byte	.LVL212
 12364 0dce 25000000 		.4byte	.LVL216-1
 12365 0dd2 0100     		.2byte	0x1
 12366 0dd4 52       		.byte	0x52
 12367 0dd5 25000000 		.4byte	.LVL216-1
 12368 0dd9 38000000 		.4byte	.LVL218
 12369 0ddd 0400     		.2byte	0x4
 12370 0ddf F3       		.byte	0xf3
 12371 0de0 01       		.uleb128 0x1
 12372 0de1 52       		.byte	0x52
 12373 0de2 9F       		.byte	0x9f
 12374 0de3 38000000 		.4byte	.LVL218
ARM GAS  C:\Users\Phuong\AppData\Local\Temp\ccP1LXIT.s 			page 237


 12375 0de7 44000000 		.4byte	.LVL224
 12376 0deb 0100     		.2byte	0x1
 12377 0ded 52       		.byte	0x52
 12378 0dee 44000000 		.4byte	.LVL224
 12379 0df2 58000000 		.4byte	.LFE32
 12380 0df6 0400     		.2byte	0x4
 12381 0df8 F3       		.byte	0xf3
 12382 0df9 01       		.uleb128 0x1
 12383 0dfa 52       		.byte	0x52
 12384 0dfb 9F       		.byte	0x9f
 12385 0dfc 00000000 		.4byte	0
 12386 0e00 00000000 		.4byte	0
 12387              	.LLST64:
 12388 0e04 04000000 		.4byte	.LVL213
 12389 0e08 46000000 		.4byte	.LVL225
 12390 0e0c 0200     		.2byte	0x2
 12391 0e0e 30       		.byte	0x30
 12392 0e0f 9F       		.byte	0x9f
 12393 0e10 46000000 		.4byte	.LVL225
 12394 0e14 58000000 		.4byte	.LFE32
 12395 0e18 0100     		.2byte	0x1
 12396 0e1a 50       		.byte	0x50
 12397 0e1b 00000000 		.4byte	0
 12398 0e1f 00000000 		.4byte	0
 12399              	.LLST65:
 12400 0e23 06000000 		.4byte	.LVL214
 12401 0e27 14000000 		.4byte	.LVL215
 12402 0e2b 0100     		.2byte	0x1
 12403 0e2d 50       		.byte	0x50
 12404 0e2e 14000000 		.4byte	.LVL215
 12405 0e32 38000000 		.4byte	.LVL218
 12406 0e36 0100     		.2byte	0x1
 12407 0e38 54       		.byte	0x54
 12408 0e39 3C000000 		.4byte	.LVL220
 12409 0e3d 3E000000 		.4byte	.LVL221
 12410 0e41 0100     		.2byte	0x1
 12411 0e43 50       		.byte	0x50
 12412 0e44 3E000000 		.4byte	.LVL221
 12413 0e48 40000000 		.4byte	.LVL222
 12414 0e4c 0100     		.2byte	0x1
 12415 0e4e 54       		.byte	0x54
 12416 0e4f 40000000 		.4byte	.LVL222
 12417 0e53 42000000 		.4byte	.LVL223
 12418 0e57 0100     		.2byte	0x1
 12419 0e59 50       		.byte	0x50
 12420 0e5a 42000000 		.4byte	.LVL223
 12421 0e5e 46000000 		.4byte	.LVL225
 12422 0e62 0100     		.2byte	0x1
 12423 0e64 54       		.byte	0x54
 12424 0e65 00000000 		.4byte	0
 12425 0e69 00000000 		.4byte	0
 12426              	.LLST66:
 12427 0e6d 00000000 		.4byte	.LVL227
 12428 0e71 1E000000 		.4byte	.LVL231
 12429 0e75 0100     		.2byte	0x1
 12430 0e77 50       		.byte	0x50
 12431 0e78 1E000000 		.4byte	.LVL231
ARM GAS  C:\Users\Phuong\AppData\Local\Temp\ccP1LXIT.s 			page 238


 12432 0e7c 23000000 		.4byte	.LVL232-1
 12433 0e80 0400     		.2byte	0x4
 12434 0e82 70       		.byte	0x70
 12435 0e83 9078     		.sleb128 -1008
 12436 0e85 9F       		.byte	0x9f
 12437 0e86 23000000 		.4byte	.LVL232-1
 12438 0e8a 2C000000 		.4byte	.LVL234
 12439 0e8e 0400     		.2byte	0x4
 12440 0e90 F3       		.byte	0xf3
 12441 0e91 01       		.uleb128 0x1
 12442 0e92 50       		.byte	0x50
 12443 0e93 9F       		.byte	0x9f
 12444 0e94 2C000000 		.4byte	.LVL234
 12445 0e98 2E000000 		.4byte	.LVL235
 12446 0e9c 0100     		.2byte	0x1
 12447 0e9e 50       		.byte	0x50
 12448 0e9f 2E000000 		.4byte	.LVL235
 12449 0ea3 32000000 		.4byte	.LVL236
 12450 0ea7 0400     		.2byte	0x4
 12451 0ea9 F3       		.byte	0xf3
 12452 0eaa 01       		.uleb128 0x1
 12453 0eab 50       		.byte	0x50
 12454 0eac 9F       		.byte	0x9f
 12455 0ead 32000000 		.4byte	.LVL236
 12456 0eb1 34000000 		.4byte	.LVL237
 12457 0eb5 0100     		.2byte	0x1
 12458 0eb7 50       		.byte	0x50
 12459 0eb8 34000000 		.4byte	.LVL237
 12460 0ebc 40000000 		.4byte	.LFE33
 12461 0ec0 0400     		.2byte	0x4
 12462 0ec2 F3       		.byte	0xf3
 12463 0ec3 01       		.uleb128 0x1
 12464 0ec4 50       		.byte	0x50
 12465 0ec5 9F       		.byte	0x9f
 12466 0ec6 00000000 		.4byte	0
 12467 0eca 00000000 		.4byte	0
 12468              	.LLST67:
 12469 0ece 00000000 		.4byte	.LVL227
 12470 0ed2 23000000 		.4byte	.LVL232-1
 12471 0ed6 0100     		.2byte	0x1
 12472 0ed8 51       		.byte	0x51
 12473 0ed9 23000000 		.4byte	.LVL232-1
 12474 0edd 2C000000 		.4byte	.LVL234
 12475 0ee1 0400     		.2byte	0x4
 12476 0ee3 F3       		.byte	0xf3
 12477 0ee4 01       		.uleb128 0x1
 12478 0ee5 51       		.byte	0x51
 12479 0ee6 9F       		.byte	0x9f
 12480 0ee7 2C000000 		.4byte	.LVL234
 12481 0eeb 38000000 		.4byte	.LVL238
 12482 0eef 0100     		.2byte	0x1
 12483 0ef1 51       		.byte	0x51
 12484 0ef2 38000000 		.4byte	.LVL238
 12485 0ef6 40000000 		.4byte	.LFE33
 12486 0efa 0400     		.2byte	0x4
 12487 0efc F3       		.byte	0xf3
 12488 0efd 01       		.uleb128 0x1
ARM GAS  C:\Users\Phuong\AppData\Local\Temp\ccP1LXIT.s 			page 239


 12489 0efe 51       		.byte	0x51
 12490 0eff 9F       		.byte	0x9f
 12491 0f00 00000000 		.4byte	0
 12492 0f04 00000000 		.4byte	0
 12493              	.LLST68:
 12494 0f08 00000000 		.4byte	.LVL227
 12495 0f0c 0A000000 		.4byte	.LVL229
 12496 0f10 0100     		.2byte	0x1
 12497 0f12 52       		.byte	0x52
 12498 0f13 0A000000 		.4byte	.LVL229
 12499 0f17 2C000000 		.4byte	.LVL234
 12500 0f1b 0100     		.2byte	0x1
 12501 0f1d 54       		.byte	0x54
 12502 0f1e 2C000000 		.4byte	.LVL234
 12503 0f22 32000000 		.4byte	.LVL236
 12504 0f26 0100     		.2byte	0x1
 12505 0f28 52       		.byte	0x52
 12506 0f29 32000000 		.4byte	.LVL236
 12507 0f2d 3A000000 		.4byte	.LVL240
 12508 0f31 0100     		.2byte	0x1
 12509 0f33 54       		.byte	0x54
 12510 0f34 3A000000 		.4byte	.LVL240
 12511 0f38 40000000 		.4byte	.LFE33
 12512 0f3c 0400     		.2byte	0x4
 12513 0f3e F3       		.byte	0xf3
 12514 0f3f 01       		.uleb128 0x1
 12515 0f40 52       		.byte	0x52
 12516 0f41 9F       		.byte	0x9f
 12517 0f42 00000000 		.4byte	0
 12518 0f46 00000000 		.4byte	0
 12519              	.LLST69:
 12520 0f4a 00000000 		.4byte	.LVL227
 12521 0f4e 14000000 		.4byte	.LVL230
 12522 0f52 0100     		.2byte	0x1
 12523 0f54 53       		.byte	0x53
 12524 0f55 14000000 		.4byte	.LVL230
 12525 0f59 1E000000 		.4byte	.LVL231
 12526 0f5d 0200     		.2byte	0x2
 12527 0f5f 70       		.byte	0x70
 12528 0f60 30       		.sleb128 48
 12529 0f61 1E000000 		.4byte	.LVL231
 12530 0f65 23000000 		.4byte	.LVL232-1
 12531 0f69 0300     		.2byte	0x3
 12532 0f6b 70       		.byte	0x70
 12533 0f6c C078     		.sleb128 -960
 12534 0f6e 23000000 		.4byte	.LVL232-1
 12535 0f72 2C000000 		.4byte	.LVL234
 12536 0f76 0400     		.2byte	0x4
 12537 0f78 F3       		.byte	0xf3
 12538 0f79 01       		.uleb128 0x1
 12539 0f7a 53       		.byte	0x53
 12540 0f7b 9F       		.byte	0x9f
 12541 0f7c 2C000000 		.4byte	.LVL234
 12542 0f80 38000000 		.4byte	.LVL238
 12543 0f84 0100     		.2byte	0x1
 12544 0f86 53       		.byte	0x53
 12545 0f87 38000000 		.4byte	.LVL238
ARM GAS  C:\Users\Phuong\AppData\Local\Temp\ccP1LXIT.s 			page 240


 12546 0f8b 40000000 		.4byte	.LFE33
 12547 0f8f 0400     		.2byte	0x4
 12548 0f91 F3       		.byte	0xf3
 12549 0f92 01       		.uleb128 0x1
 12550 0f93 53       		.byte	0x53
 12551 0f94 9F       		.byte	0x9f
 12552 0f95 00000000 		.4byte	0
 12553 0f99 00000000 		.4byte	0
 12554              	.LLST70:
 12555 0f9d 08000000 		.4byte	.LVL228
 12556 0fa1 1E000000 		.4byte	.LVL231
 12557 0fa5 0100     		.2byte	0x1
 12558 0fa7 50       		.byte	0x50
 12559 0fa8 1E000000 		.4byte	.LVL231
 12560 0fac 23000000 		.4byte	.LVL232-1
 12561 0fb0 0400     		.2byte	0x4
 12562 0fb2 70       		.byte	0x70
 12563 0fb3 9078     		.sleb128 -1008
 12564 0fb5 9F       		.byte	0x9f
 12565 0fb6 23000000 		.4byte	.LVL232-1
 12566 0fba 2C000000 		.4byte	.LVL234
 12567 0fbe 0400     		.2byte	0x4
 12568 0fc0 F3       		.byte	0xf3
 12569 0fc1 01       		.uleb128 0x1
 12570 0fc2 50       		.byte	0x50
 12571 0fc3 9F       		.byte	0x9f
 12572 0fc4 32000000 		.4byte	.LVL236
 12573 0fc8 34000000 		.4byte	.LVL237
 12574 0fcc 0100     		.2byte	0x1
 12575 0fce 50       		.byte	0x50
 12576 0fcf 34000000 		.4byte	.LVL237
 12577 0fd3 3A000000 		.4byte	.LVL239
 12578 0fd7 0400     		.2byte	0x4
 12579 0fd9 F3       		.byte	0xf3
 12580 0fda 01       		.uleb128 0x1
 12581 0fdb 50       		.byte	0x50
 12582 0fdc 9F       		.byte	0x9f
 12583 0fdd 00000000 		.4byte	0
 12584 0fe1 00000000 		.4byte	0
 12585              	.LLST71:
 12586 0fe5 24000000 		.4byte	.LVL232
 12587 0fe9 2A000000 		.4byte	.LVL233
 12588 0fed 0100     		.2byte	0x1
 12589 0fef 50       		.byte	0x50
 12590 0ff0 38000000 		.4byte	.LVL238
 12591 0ff4 3A000000 		.4byte	.LVL239
 12592 0ff8 0100     		.2byte	0x1
 12593 0ffa 50       		.byte	0x50
 12594 0ffb 00000000 		.4byte	0
 12595 0fff 00000000 		.4byte	0
 12596              	.LLST72:
 12597 1003 00000000 		.4byte	.LVL241
 12598 1007 0A000000 		.4byte	.LVL243
 12599 100b 0100     		.2byte	0x1
 12600 100d 50       		.byte	0x50
 12601 100e 0A000000 		.4byte	.LVL243
 12602 1012 32000000 		.4byte	.LVL249
ARM GAS  C:\Users\Phuong\AppData\Local\Temp\ccP1LXIT.s 			page 241


 12603 1016 0100     		.2byte	0x1
 12604 1018 55       		.byte	0x55
 12605 1019 32000000 		.4byte	.LVL249
 12606 101d 34000000 		.4byte	.LFE20
 12607 1021 0400     		.2byte	0x4
 12608 1023 F3       		.byte	0xf3
 12609 1024 01       		.uleb128 0x1
 12610 1025 50       		.byte	0x50
 12611 1026 9F       		.byte	0x9f
 12612 1027 00000000 		.4byte	0
 12613 102b 00000000 		.4byte	0
 12614              	.LLST73:
 12615 102f 06000000 		.4byte	.LVL242
 12616 1033 0A000000 		.4byte	.LVL243
 12617 1037 0200     		.2byte	0x2
 12618 1039 31       		.byte	0x31
 12619 103a 9F       		.byte	0x9f
 12620 103b 0A000000 		.4byte	.LVL243
 12621 103f 1A000000 		.4byte	.LVL245
 12622 1043 0100     		.2byte	0x1
 12623 1045 54       		.byte	0x54
 12624 1046 1A000000 		.4byte	.LVL245
 12625 104a 28000000 		.4byte	.LVL246
 12626 104e 0100     		.2byte	0x1
 12627 1050 50       		.byte	0x50
 12628 1051 28000000 		.4byte	.LVL246
 12629 1055 29000000 		.4byte	.LVL247-1
 12630 1059 0100     		.2byte	0x1
 12631 105b 52       		.byte	0x52
 12632 105c 29000000 		.4byte	.LVL247-1
 12633 1060 32000000 		.4byte	.LVL248
 12634 1064 0100     		.2byte	0x1
 12635 1066 54       		.byte	0x54
 12636 1067 00000000 		.4byte	0
 12637 106b 00000000 		.4byte	0
 12638              	.LLST74:
 12639 106f 00000000 		.4byte	.LVL250
 12640 1073 15000000 		.4byte	.LVL252-1
 12641 1077 0100     		.2byte	0x1
 12642 1079 50       		.byte	0x50
 12643 107a 15000000 		.4byte	.LVL252-1
 12644 107e 1C000000 		.4byte	.LVL254
 12645 1082 0100     		.2byte	0x1
 12646 1084 54       		.byte	0x54
 12647 1085 1C000000 		.4byte	.LVL254
 12648 1089 1E000000 		.4byte	.LFE34
 12649 108d 0400     		.2byte	0x4
 12650 108f F3       		.byte	0xf3
 12651 1090 01       		.uleb128 0x1
 12652 1091 50       		.byte	0x50
 12653 1092 9F       		.byte	0x9f
 12654 1093 00000000 		.4byte	0
 12655 1097 00000000 		.4byte	0
 12656              	.LLST75:
 12657 109b 06000000 		.4byte	.LVL251
 12658 109f 15000000 		.4byte	.LVL252-1
 12659 10a3 0100     		.2byte	0x1
ARM GAS  C:\Users\Phuong\AppData\Local\Temp\ccP1LXIT.s 			page 242


 12660 10a5 50       		.byte	0x50
 12661 10a6 15000000 		.4byte	.LVL252-1
 12662 10aa 1C000000 		.4byte	.LVL253
 12663 10ae 0100     		.2byte	0x1
 12664 10b0 54       		.byte	0x54
 12665 10b1 00000000 		.4byte	0
 12666 10b5 00000000 		.4byte	0
 12667              	.LLST76:
 12668 10b9 00000000 		.4byte	.LVL255
 12669 10bd 0B000000 		.4byte	.LVL256-1
 12670 10c1 0100     		.2byte	0x1
 12671 10c3 50       		.byte	0x50
 12672 10c4 0B000000 		.4byte	.LVL256-1
 12673 10c8 2A000000 		.4byte	.LVL261
 12674 10cc 0100     		.2byte	0x1
 12675 10ce 55       		.byte	0x55
 12676 10cf 2A000000 		.4byte	.LVL261
 12677 10d3 30000000 		.4byte	.LVL262
 12678 10d7 0100     		.2byte	0x1
 12679 10d9 50       		.byte	0x50
 12680 10da 30000000 		.4byte	.LVL262
 12681 10de 3E000000 		.4byte	.LVL266
 12682 10e2 0100     		.2byte	0x1
 12683 10e4 55       		.byte	0x55
 12684 10e5 3E000000 		.4byte	.LVL266
 12685 10e9 56000000 		.4byte	.LVL269
 12686 10ed 0400     		.2byte	0x4
 12687 10ef F3       		.byte	0xf3
 12688 10f0 01       		.uleb128 0x1
 12689 10f1 50       		.byte	0x50
 12690 10f2 9F       		.byte	0x9f
 12691 10f3 56000000 		.4byte	.LVL269
 12692 10f7 74000000 		.4byte	.LVL276
 12693 10fb 0100     		.2byte	0x1
 12694 10fd 55       		.byte	0x55
 12695 10fe 74000000 		.4byte	.LVL276
 12696 1102 9A000000 		.4byte	.LVL281
 12697 1106 0400     		.2byte	0x4
 12698 1108 F3       		.byte	0xf3
 12699 1109 01       		.uleb128 0x1
 12700 110a 50       		.byte	0x50
 12701 110b 9F       		.byte	0x9f
 12702 110c 9A000000 		.4byte	.LVL281
 12703 1110 B6000000 		.4byte	.LVL284
 12704 1114 0100     		.2byte	0x1
 12705 1116 55       		.byte	0x55
 12706 1117 B6000000 		.4byte	.LVL284
 12707 111b D6000000 		.4byte	.LVL288
 12708 111f 0400     		.2byte	0x4
 12709 1121 F3       		.byte	0xf3
 12710 1122 01       		.uleb128 0x1
 12711 1123 50       		.byte	0x50
 12712 1124 9F       		.byte	0x9f
 12713 1125 D6000000 		.4byte	.LVL288
 12714 1129 D8000000 		.4byte	.LVL289
 12715 112d 0100     		.2byte	0x1
 12716 112f 55       		.byte	0x55
ARM GAS  C:\Users\Phuong\AppData\Local\Temp\ccP1LXIT.s 			page 243


 12717 1130 D8000000 		.4byte	.LVL289
 12718 1134 1C010000 		.4byte	.LFE38
 12719 1138 0400     		.2byte	0x4
 12720 113a F3       		.byte	0xf3
 12721 113b 01       		.uleb128 0x1
 12722 113c 50       		.byte	0x50
 12723 113d 9F       		.byte	0x9f
 12724 113e 00000000 		.4byte	0
 12725 1142 00000000 		.4byte	0
 12726              	.LLST77:
 12727 1146 36000000 		.4byte	.LVL264
 12728 114a 3B000000 		.4byte	.LVL265-1
 12729 114e 0100     		.2byte	0x1
 12730 1150 50       		.byte	0x50
 12731 1151 3B000000 		.4byte	.LVL265-1
 12732 1155 56000000 		.4byte	.LVL269
 12733 1159 0100     		.2byte	0x1
 12734 115b 54       		.byte	0x54
 12735 115c 56000000 		.4byte	.LVL269
 12736 1160 58000000 		.4byte	.LVL270
 12737 1164 0100     		.2byte	0x1
 12738 1166 50       		.byte	0x50
 12739 1167 58000000 		.4byte	.LVL270
 12740 116b 96000000 		.4byte	.LVL280
 12741 116f 0100     		.2byte	0x1
 12742 1171 54       		.byte	0x54
 12743 1172 96000000 		.4byte	.LVL280
 12744 1176 9A000000 		.4byte	.LVL281
 12745 117a 0200     		.2byte	0x2
 12746 117c 30       		.byte	0x30
 12747 117d 9F       		.byte	0x9f
 12748 117e 9A000000 		.4byte	.LVL281
 12749 1182 D2000000 		.4byte	.LVL287
 12750 1186 0100     		.2byte	0x1
 12751 1188 54       		.byte	0x54
 12752 1189 D2000000 		.4byte	.LVL287
 12753 118d D6000000 		.4byte	.LVL288
 12754 1191 0200     		.2byte	0x2
 12755 1193 30       		.byte	0x30
 12756 1194 9F       		.byte	0x9f
 12757 1195 D8000000 		.4byte	.LVL289
 12758 1199 DC000000 		.4byte	.LVL290
 12759 119d 0100     		.2byte	0x1
 12760 119f 54       		.byte	0x54
 12761 11a0 DC000000 		.4byte	.LVL290
 12762 11a4 1C010000 		.4byte	.LFE38
 12763 11a8 0100     		.2byte	0x1
 12764 11aa 50       		.byte	0x50
 12765 11ab 00000000 		.4byte	0
 12766 11af 00000000 		.4byte	0
 12767              	.LLST78:
 12768 11b3 0E000000 		.4byte	.LVL257
 12769 11b7 24000000 		.4byte	.LVL258
 12770 11bb 0100     		.2byte	0x1
 12771 11bd 50       		.byte	0x50
 12772 11be 24000000 		.4byte	.LVL258
 12773 11c2 28000000 		.4byte	.LVL260
ARM GAS  C:\Users\Phuong\AppData\Local\Temp\ccP1LXIT.s 			page 244


 12774 11c6 0100     		.2byte	0x1
 12775 11c8 54       		.byte	0x54
 12776 11c9 D6000000 		.4byte	.LVL288
 12777 11cd D8000000 		.4byte	.LVL289
 12778 11d1 0100     		.2byte	0x1
 12779 11d3 50       		.byte	0x50
 12780 11d4 00000000 		.4byte	0
 12781 11d8 00000000 		.4byte	0
 12782              	.LLST79:
 12783 11dc 3E000000 		.4byte	.LVL266
 12784 11e0 52000000 		.4byte	.LVL267
 12785 11e4 0100     		.2byte	0x1
 12786 11e6 50       		.byte	0x50
 12787 11e7 52000000 		.4byte	.LVL267
 12788 11eb 56000000 		.4byte	.LVL269
 12789 11ef 0100     		.2byte	0x1
 12790 11f1 55       		.byte	0x55
 12791 11f2 00000000 		.4byte	0
 12792 11f6 00000000 		.4byte	0
 12793              	.LLST80:
 12794 11fa 56000000 		.4byte	.LVL269
 12795 11fe 74000000 		.4byte	.LVL276
 12796 1202 0100     		.2byte	0x1
 12797 1204 55       		.byte	0x55
 12798 1205 74000000 		.4byte	.LVL276
 12799 1209 9A000000 		.4byte	.LVL281
 12800 120d 0400     		.2byte	0x4
 12801 120f F3       		.byte	0xf3
 12802 1210 01       		.uleb128 0x1
 12803 1211 50       		.byte	0x50
 12804 1212 9F       		.byte	0x9f
 12805 1213 9A000000 		.4byte	.LVL281
 12806 1217 B6000000 		.4byte	.LVL284
 12807 121b 0100     		.2byte	0x1
 12808 121d 55       		.byte	0x55
 12809 121e B6000000 		.4byte	.LVL284
 12810 1222 D6000000 		.4byte	.LVL288
 12811 1226 0400     		.2byte	0x4
 12812 1228 F3       		.byte	0xf3
 12813 1229 01       		.uleb128 0x1
 12814 122a 50       		.byte	0x50
 12815 122b 9F       		.byte	0x9f
 12816 122c 00000000 		.4byte	0
 12817 1230 00000000 		.4byte	0
 12818              	.LLST81:
 12819 1234 5E000000 		.4byte	.LVL272
 12820 1238 66000000 		.4byte	.LVL273
 12821 123c 0100     		.2byte	0x1
 12822 123e 50       		.byte	0x50
 12823 123f 66000000 		.4byte	.LVL273
 12824 1243 69000000 		.4byte	.LVL274-1
 12825 1247 0100     		.2byte	0x1
 12826 1249 52       		.byte	0x52
 12827 124a 69000000 		.4byte	.LVL274-1
 12828 124e D6000000 		.4byte	.LVL288
 12829 1252 0100     		.2byte	0x1
 12830 1254 56       		.byte	0x56
ARM GAS  C:\Users\Phuong\AppData\Local\Temp\ccP1LXIT.s 			page 245


 12831 1255 00000000 		.4byte	0
 12832 1259 00000000 		.4byte	0
 12833              	.LLST82:
 12834 125d 74000000 		.4byte	.LVL276
 12835 1261 88000000 		.4byte	.LVL277
 12836 1265 0100     		.2byte	0x1
 12837 1267 50       		.byte	0x50
 12838 1268 88000000 		.4byte	.LVL277
 12839 126c 9A000000 		.4byte	.LVL281
 12840 1270 0100     		.2byte	0x1
 12841 1272 55       		.byte	0x55
 12842 1273 00000000 		.4byte	0
 12843 1277 00000000 		.4byte	0
 12844              	.LLST83:
 12845 127b B6000000 		.4byte	.LVL284
 12846 127f CA000000 		.4byte	.LVL285
 12847 1283 0100     		.2byte	0x1
 12848 1285 50       		.byte	0x50
 12849 1286 CA000000 		.4byte	.LVL285
 12850 128a D6000000 		.4byte	.LVL288
 12851 128e 0100     		.2byte	0x1
 12852 1290 55       		.byte	0x55
 12853 1291 00000000 		.4byte	0
 12854 1295 00000000 		.4byte	0
 12855              	.LLST84:
 12856 1299 00000000 		.4byte	.LVL291
 12857 129d 13000000 		.4byte	.LVL292-1
 12858 12a1 0100     		.2byte	0x1
 12859 12a3 50       		.byte	0x50
 12860 12a4 13000000 		.4byte	.LVL292-1
 12861 12a8 32000000 		.4byte	.LVL296
 12862 12ac 0100     		.2byte	0x1
 12863 12ae 54       		.byte	0x54
 12864 12af 32000000 		.4byte	.LVL296
 12865 12b3 37000000 		.4byte	.LVL298-1
 12866 12b7 0100     		.2byte	0x1
 12867 12b9 50       		.byte	0x50
 12868 12ba 37000000 		.4byte	.LVL298-1
 12869 12be 78000000 		.4byte	.LVL306
 12870 12c2 0100     		.2byte	0x1
 12871 12c4 54       		.byte	0x54
 12872 12c5 78000000 		.4byte	.LVL306
 12873 12c9 9C000000 		.4byte	.LFE37
 12874 12cd 0400     		.2byte	0x4
 12875 12cf F3       		.byte	0xf3
 12876 12d0 01       		.uleb128 0x1
 12877 12d1 50       		.byte	0x50
 12878 12d2 9F       		.byte	0x9f
 12879 12d3 00000000 		.4byte	0
 12880 12d7 00000000 		.4byte	0
 12881              	.LLST85:
 12882 12db 00000000 		.4byte	.LVL291
 12883 12df 13000000 		.4byte	.LVL292-1
 12884 12e3 0100     		.2byte	0x1
 12885 12e5 51       		.byte	0x51
 12886 12e6 13000000 		.4byte	.LVL292-1
 12887 12ea 32000000 		.4byte	.LVL296
ARM GAS  C:\Users\Phuong\AppData\Local\Temp\ccP1LXIT.s 			page 246


 12888 12ee 0100     		.2byte	0x1
 12889 12f0 55       		.byte	0x55
 12890 12f1 32000000 		.4byte	.LVL296
 12891 12f5 34000000 		.4byte	.LVL297
 12892 12f9 0100     		.2byte	0x1
 12893 12fb 51       		.byte	0x51
 12894 12fc 34000000 		.4byte	.LVL297
 12895 1300 5E000000 		.4byte	.LVL303
 12896 1304 0100     		.2byte	0x1
 12897 1306 55       		.byte	0x55
 12898 1307 5E000000 		.4byte	.LVL303
 12899 130b 9C000000 		.4byte	.LFE37
 12900 130f 0400     		.2byte	0x4
 12901 1311 F3       		.byte	0xf3
 12902 1312 01       		.uleb128 0x1
 12903 1313 51       		.byte	0x51
 12904 1314 9F       		.byte	0x9f
 12905 1315 00000000 		.4byte	0
 12906 1319 00000000 		.4byte	0
 12907              	.LLST86:
 12908 131d 16000000 		.4byte	.LVL293
 12909 1321 2E000000 		.4byte	.LVL294
 12910 1325 0100     		.2byte	0x1
 12911 1327 50       		.byte	0x50
 12912 1328 2E000000 		.4byte	.LVL294
 12913 132c 32000000 		.4byte	.LVL296
 12914 1330 0100     		.2byte	0x1
 12915 1332 56       		.byte	0x56
 12916 1333 00000000 		.4byte	0
 12917 1337 00000000 		.4byte	0
 12918              	.LLST87:
 12919 133b 5E000000 		.4byte	.LVL303
 12920 133f 74000000 		.4byte	.LVL304
 12921 1343 0100     		.2byte	0x1
 12922 1345 50       		.byte	0x50
 12923 1346 74000000 		.4byte	.LVL304
 12924 134a 76000000 		.4byte	.LVL305
 12925 134e 0100     		.2byte	0x1
 12926 1350 55       		.byte	0x55
 12927 1351 00000000 		.4byte	0
 12928 1355 00000000 		.4byte	0
 12929              	.LLST88:
 12930 1359 00000000 		.4byte	.LVL307
 12931 135d 13000000 		.4byte	.LVL308-1
 12932 1361 0100     		.2byte	0x1
 12933 1363 50       		.byte	0x50
 12934 1364 13000000 		.4byte	.LVL308-1
 12935 1368 36000000 		.4byte	.LVL312
 12936 136c 0100     		.2byte	0x1
 12937 136e 54       		.byte	0x54
 12938 136f 36000000 		.4byte	.LVL312
 12939 1373 3B000000 		.4byte	.LVL314-1
 12940 1377 0100     		.2byte	0x1
 12941 1379 50       		.byte	0x50
 12942 137a 3B000000 		.4byte	.LVL314-1
 12943 137e 62000000 		.4byte	.LVL318
 12944 1382 0100     		.2byte	0x1
ARM GAS  C:\Users\Phuong\AppData\Local\Temp\ccP1LXIT.s 			page 247


 12945 1384 54       		.byte	0x54
 12946 1385 62000000 		.4byte	.LVL318
 12947 1389 80000000 		.4byte	.LVL321
 12948 138d 0400     		.2byte	0x4
 12949 138f F3       		.byte	0xf3
 12950 1390 01       		.uleb128 0x1
 12951 1391 50       		.byte	0x50
 12952 1392 9F       		.byte	0x9f
 12953 1393 80000000 		.4byte	.LVL321
 12954 1397 A2000000 		.4byte	.LVL326
 12955 139b 0100     		.2byte	0x1
 12956 139d 54       		.byte	0x54
 12957 139e A2000000 		.4byte	.LVL326
 12958 13a2 CC000000 		.4byte	.LFE36
 12959 13a6 0400     		.2byte	0x4
 12960 13a8 F3       		.byte	0xf3
 12961 13a9 01       		.uleb128 0x1
 12962 13aa 50       		.byte	0x50
 12963 13ab 9F       		.byte	0x9f
 12964 13ac 00000000 		.4byte	0
 12965 13b0 00000000 		.4byte	0
 12966              	.LLST89:
 12967 13b4 00000000 		.4byte	.LVL307
 12968 13b8 13000000 		.4byte	.LVL308-1
 12969 13bc 0100     		.2byte	0x1
 12970 13be 51       		.byte	0x51
 12971 13bf 13000000 		.4byte	.LVL308-1
 12972 13c3 36000000 		.4byte	.LVL312
 12973 13c7 0100     		.2byte	0x1
 12974 13c9 55       		.byte	0x55
 12975 13ca 36000000 		.4byte	.LVL312
 12976 13ce 38000000 		.4byte	.LVL313
 12977 13d2 0100     		.2byte	0x1
 12978 13d4 51       		.byte	0x51
 12979 13d5 38000000 		.4byte	.LVL313
 12980 13d9 86000000 		.4byte	.LVL323
 12981 13dd 0100     		.2byte	0x1
 12982 13df 55       		.byte	0x55
 12983 13e0 86000000 		.4byte	.LVL323
 12984 13e4 CC000000 		.4byte	.LFE36
 12985 13e8 0400     		.2byte	0x4
 12986 13ea F3       		.byte	0xf3
 12987 13eb 01       		.uleb128 0x1
 12988 13ec 51       		.byte	0x51
 12989 13ed 9F       		.byte	0x9f
 12990 13ee 00000000 		.4byte	0
 12991 13f2 00000000 		.4byte	0
 12992              	.LLST90:
 12993 13f6 16000000 		.4byte	.LVL309
 12994 13fa 2E000000 		.4byte	.LVL310
 12995 13fe 0100     		.2byte	0x1
 12996 1400 50       		.byte	0x50
 12997 1401 2E000000 		.4byte	.LVL310
 12998 1405 36000000 		.4byte	.LVL312
 12999 1409 0100     		.2byte	0x1
 13000 140b 56       		.byte	0x56
 13001 140c 00000000 		.4byte	0
ARM GAS  C:\Users\Phuong\AppData\Local\Temp\ccP1LXIT.s 			page 248


 13002 1410 00000000 		.4byte	0
 13003              	.LLST91:
 13004 1414 62000000 		.4byte	.LVL318
 13005 1418 78000000 		.4byte	.LVL319
 13006 141c 0100     		.2byte	0x1
 13007 141e 50       		.byte	0x50
 13008 141f 78000000 		.4byte	.LVL319
 13009 1423 80000000 		.4byte	.LVL321
 13010 1427 0100     		.2byte	0x1
 13011 1429 54       		.byte	0x54
 13012 142a 00000000 		.4byte	0
 13013 142e 00000000 		.4byte	0
 13014              	.LLST92:
 13015 1432 86000000 		.4byte	.LVL323
 13016 1436 9C000000 		.4byte	.LVL324
 13017 143a 0100     		.2byte	0x1
 13018 143c 50       		.byte	0x50
 13019 143d 9C000000 		.4byte	.LVL324
 13020 1441 A2000000 		.4byte	.LVL326
 13021 1445 0100     		.2byte	0x1
 13022 1447 55       		.byte	0x55
 13023 1448 00000000 		.4byte	0
 13024 144c 00000000 		.4byte	0
 13025              	.LLST93:
 13026 1450 00000000 		.4byte	.LVL327
 13027 1454 14000000 		.4byte	.LVL329
 13028 1458 0100     		.2byte	0x1
 13029 145a 50       		.byte	0x50
 13030 145b 14000000 		.4byte	.LVL329
 13031 145f 48000000 		.4byte	.LVL334
 13032 1463 0100     		.2byte	0x1
 13033 1465 54       		.byte	0x54
 13034 1466 48000000 		.4byte	.LVL334
 13035 146a 64000000 		.4byte	.LVL337
 13036 146e 0400     		.2byte	0x4
 13037 1470 F3       		.byte	0xf3
 13038 1471 01       		.uleb128 0x1
 13039 1472 50       		.byte	0x50
 13040 1473 9F       		.byte	0x9f
 13041 1474 64000000 		.4byte	.LVL337
 13042 1478 84000000 		.4byte	.LVL342
 13043 147c 0100     		.2byte	0x1
 13044 147e 54       		.byte	0x54
 13045 147f 84000000 		.4byte	.LVL342
 13046 1483 A0000000 		.4byte	.LVL345
 13047 1487 0400     		.2byte	0x4
 13048 1489 75       		.byte	0x75
 13049 148a A874     		.sleb128 -1496
 13050 148c 9F       		.byte	0x9f
 13051 148d A0000000 		.4byte	.LVL345
 13052 1491 BE000000 		.4byte	.LVL350
 13053 1495 0100     		.2byte	0x1
 13054 1497 54       		.byte	0x54
 13055 1498 BE000000 		.4byte	.LVL350
 13056 149c C0000000 		.4byte	.LVL351
 13057 14a0 0100     		.2byte	0x1
 13058 14a2 50       		.byte	0x50
ARM GAS  C:\Users\Phuong\AppData\Local\Temp\ccP1LXIT.s 			page 249


 13059 14a3 C0000000 		.4byte	.LVL351
 13060 14a7 C2000000 		.4byte	.LVL352
 13061 14ab 0100     		.2byte	0x1
 13062 14ad 54       		.byte	0x54
 13063 14ae C2000000 		.4byte	.LVL352
 13064 14b2 C4000000 		.4byte	.LVL353
 13065 14b6 0100     		.2byte	0x1
 13066 14b8 50       		.byte	0x50
 13067 14b9 C4000000 		.4byte	.LVL353
 13068 14bd C6000000 		.4byte	.LVL354
 13069 14c1 0100     		.2byte	0x1
 13070 14c3 54       		.byte	0x54
 13071 14c4 C6000000 		.4byte	.LVL354
 13072 14c8 CC000000 		.4byte	.LVL356
 13073 14cc 0400     		.2byte	0x4
 13074 14ce F3       		.byte	0xf3
 13075 14cf 01       		.uleb128 0x1
 13076 14d0 50       		.byte	0x50
 13077 14d1 9F       		.byte	0x9f
 13078 14d2 CC000000 		.4byte	.LVL356
 13079 14d6 D0000000 		.4byte	.LVL358
 13080 14da 0400     		.2byte	0x4
 13081 14dc 75       		.byte	0x75
 13082 14dd A874     		.sleb128 -1496
 13083 14df 9F       		.byte	0x9f
 13084 14e0 D0000000 		.4byte	.LVL358
 13085 14e4 F4000000 		.4byte	.LFE39
 13086 14e8 0400     		.2byte	0x4
 13087 14ea F3       		.byte	0xf3
 13088 14eb 01       		.uleb128 0x1
 13089 14ec 50       		.byte	0x50
 13090 14ed 9F       		.byte	0x9f
 13091 14ee 00000000 		.4byte	0
 13092 14f2 00000000 		.4byte	0
 13093              	.LLST94:
 13094 14f6 00000000 		.4byte	.LVL327
 13095 14fa 17000000 		.4byte	.LVL330-1
 13096 14fe 0100     		.2byte	0x1
 13097 1500 51       		.byte	0x51
 13098 1501 17000000 		.4byte	.LVL330-1
 13099 1505 6A000000 		.4byte	.LVL338
 13100 1509 0100     		.2byte	0x1
 13101 150b 55       		.byte	0x55
 13102 150c 6A000000 		.4byte	.LVL338
 13103 1510 B2000000 		.4byte	.LVL348
 13104 1514 0400     		.2byte	0x4
 13105 1516 F3       		.byte	0xf3
 13106 1517 01       		.uleb128 0x1
 13107 1518 51       		.byte	0x51
 13108 1519 9F       		.byte	0x9f
 13109 151a B2000000 		.4byte	.LVL348
 13110 151e BE000000 		.4byte	.LVL350
 13111 1522 0100     		.2byte	0x1
 13112 1524 55       		.byte	0x55
 13113 1525 BE000000 		.4byte	.LVL350
 13114 1529 C6000000 		.4byte	.LVL354
 13115 152d 0100     		.2byte	0x1
ARM GAS  C:\Users\Phuong\AppData\Local\Temp\ccP1LXIT.s 			page 250


 13116 152f 51       		.byte	0x51
 13117 1530 C6000000 		.4byte	.LVL354
 13118 1534 CC000000 		.4byte	.LVL356
 13119 1538 0100     		.2byte	0x1
 13120 153a 55       		.byte	0x55
 13121 153b CC000000 		.4byte	.LVL356
 13122 153f F4000000 		.4byte	.LFE39
 13123 1543 0400     		.2byte	0x4
 13124 1545 F3       		.byte	0xf3
 13125 1546 01       		.uleb128 0x1
 13126 1547 51       		.byte	0x51
 13127 1548 9F       		.byte	0x9f
 13128 1549 00000000 		.4byte	0
 13129 154d 00000000 		.4byte	0
 13130              	.LLST95:
 13131 1551 00000000 		.4byte	.LVL327
 13132 1555 17000000 		.4byte	.LVL330-1
 13133 1559 0100     		.2byte	0x1
 13134 155b 52       		.byte	0x52
 13135 155c 17000000 		.4byte	.LVL330-1
 13136 1560 BE000000 		.4byte	.LVL350
 13137 1564 0100     		.2byte	0x1
 13138 1566 56       		.byte	0x56
 13139 1567 BE000000 		.4byte	.LVL350
 13140 156b C6000000 		.4byte	.LVL354
 13141 156f 0100     		.2byte	0x1
 13142 1571 52       		.byte	0x52
 13143 1572 C6000000 		.4byte	.LVL354
 13144 1576 D2000000 		.4byte	.LVL359
 13145 157a 0100     		.2byte	0x1
 13146 157c 56       		.byte	0x56
 13147 157d D2000000 		.4byte	.LVL359
 13148 1581 F4000000 		.4byte	.LFE39
 13149 1585 0400     		.2byte	0x4
 13150 1587 F3       		.byte	0xf3
 13151 1588 01       		.uleb128 0x1
 13152 1589 52       		.byte	0x52
 13153 158a 9F       		.byte	0x9f
 13154 158b 00000000 		.4byte	0
 13155 158f 00000000 		.4byte	0
 13156              	.LLST96:
 13157 1593 AE000000 		.4byte	.LVL347
 13158 1597 B2000000 		.4byte	.LVL348
 13159 159b 0200     		.2byte	0x2
 13160 159d 30       		.byte	0x30
 13161 159e 9F       		.byte	0x9f
 13162 159f BC000000 		.4byte	.LVL349
 13163 15a3 BE000000 		.4byte	.LVL350
 13164 15a7 0100     		.2byte	0x1
 13165 15a9 50       		.byte	0x50
 13166 15aa D0000000 		.4byte	.LVL358
 13167 15ae F4000000 		.4byte	.LFE39
 13168 15b2 0100     		.2byte	0x1
 13169 15b4 50       		.byte	0x50
 13170 15b5 00000000 		.4byte	0
 13171 15b9 00000000 		.4byte	0
 13172              	.LLST97:
ARM GAS  C:\Users\Phuong\AppData\Local\Temp\ccP1LXIT.s 			page 251


 13173 15bd 12000000 		.4byte	.LVL328
 13174 15c1 14000000 		.4byte	.LVL329
 13175 15c5 0100     		.2byte	0x1
 13176 15c7 50       		.byte	0x50
 13177 15c8 14000000 		.4byte	.LVL329
 13178 15cc 48000000 		.4byte	.LVL334
 13179 15d0 0100     		.2byte	0x1
 13180 15d2 54       		.byte	0x54
 13181 15d3 48000000 		.4byte	.LVL334
 13182 15d7 64000000 		.4byte	.LVL337
 13183 15db 0400     		.2byte	0x4
 13184 15dd F3       		.byte	0xf3
 13185 15de 01       		.uleb128 0x1
 13186 15df 50       		.byte	0x50
 13187 15e0 9F       		.byte	0x9f
 13188 15e1 64000000 		.4byte	.LVL337
 13189 15e5 84000000 		.4byte	.LVL342
 13190 15e9 0100     		.2byte	0x1
 13191 15eb 54       		.byte	0x54
 13192 15ec 84000000 		.4byte	.LVL342
 13193 15f0 A0000000 		.4byte	.LVL345
 13194 15f4 0400     		.2byte	0x4
 13195 15f6 75       		.byte	0x75
 13196 15f7 A874     		.sleb128 -1496
 13197 15f9 9F       		.byte	0x9f
 13198 15fa A0000000 		.4byte	.LVL345
 13199 15fe BE000000 		.4byte	.LVL350
 13200 1602 0100     		.2byte	0x1
 13201 1604 54       		.byte	0x54
 13202 1605 C6000000 		.4byte	.LVL354
 13203 1609 CC000000 		.4byte	.LVL356
 13204 160d 0400     		.2byte	0x4
 13205 160f F3       		.byte	0xf3
 13206 1610 01       		.uleb128 0x1
 13207 1611 50       		.byte	0x50
 13208 1612 9F       		.byte	0x9f
 13209 1613 CC000000 		.4byte	.LVL356
 13210 1617 D0000000 		.4byte	.LVL358
 13211 161b 0400     		.2byte	0x4
 13212 161d 75       		.byte	0x75
 13213 161e A874     		.sleb128 -1496
 13214 1620 9F       		.byte	0x9f
 13215 1621 00000000 		.4byte	0
 13216 1625 00000000 		.4byte	0
 13217              	.LLST98:
 13218 1629 48000000 		.4byte	.LVL334
 13219 162d 5C000000 		.4byte	.LVL335
 13220 1631 0100     		.2byte	0x1
 13221 1633 50       		.byte	0x50
 13222 1634 5C000000 		.4byte	.LVL335
 13223 1638 64000000 		.4byte	.LVL337
 13224 163c 0100     		.2byte	0x1
 13225 163e 54       		.byte	0x54
 13226 163f C6000000 		.4byte	.LVL354
 13227 1643 C8000000 		.4byte	.LVL355
 13228 1647 0100     		.2byte	0x1
 13229 1649 50       		.byte	0x50
ARM GAS  C:\Users\Phuong\AppData\Local\Temp\ccP1LXIT.s 			page 252


 13230 164a C8000000 		.4byte	.LVL355
 13231 164e CC000000 		.4byte	.LVL356
 13232 1652 0100     		.2byte	0x1
 13233 1654 54       		.byte	0x54
 13234 1655 00000000 		.4byte	0
 13235 1659 00000000 		.4byte	0
 13236              	.LLST99:
 13237 165d 7A000000 		.4byte	.LVL340
 13238 1661 81000000 		.4byte	.LVL341-1
 13239 1665 0100     		.2byte	0x1
 13240 1667 50       		.byte	0x50
 13241 1668 A0000000 		.4byte	.LVL345
 13242 166c A6000000 		.4byte	.LVL346
 13243 1670 0100     		.2byte	0x1
 13244 1672 50       		.byte	0x50
 13245 1673 00000000 		.4byte	0
 13246 1677 00000000 		.4byte	0
 13247              	.LLST100:
 13248 167b 84000000 		.4byte	.LVL342
 13249 167f 98000000 		.4byte	.LVL343
 13250 1683 0100     		.2byte	0x1
 13251 1685 50       		.byte	0x50
 13252 1686 98000000 		.4byte	.LVL343
 13253 168a A0000000 		.4byte	.LVL345
 13254 168e 0100     		.2byte	0x1
 13255 1690 54       		.byte	0x54
 13256 1691 CC000000 		.4byte	.LVL356
 13257 1695 CE000000 		.4byte	.LVL357
 13258 1699 0100     		.2byte	0x1
 13259 169b 50       		.byte	0x50
 13260 169c CE000000 		.4byte	.LVL357
 13261 16a0 D0000000 		.4byte	.LVL358
 13262 16a4 0100     		.2byte	0x1
 13263 16a6 54       		.byte	0x54
 13264 16a7 00000000 		.4byte	0
 13265 16ab 00000000 		.4byte	0
 13266              		.section	.debug_aranges,"",%progbits
 13267 0000 C4000000 		.4byte	0xc4
 13268 0004 0200     		.2byte	0x2
 13269 0006 00000000 		.4byte	.Ldebug_info0
 13270 000a 04       		.byte	0x4
 13271 000b 00       		.byte	0
 13272 000c 0000     		.2byte	0
 13273 000e 0000     		.2byte	0
 13274 0010 00000000 		.4byte	.LFB18
 13275 0014 0E000000 		.4byte	.LFE18-.LFB18
 13276 0018 00000000 		.4byte	.LFB19
 13277 001c 0E000000 		.4byte	.LFE19-.LFB19
 13278 0020 00000000 		.4byte	.LFB24
 13279 0024 44000000 		.4byte	.LFE24-.LFB24
 13280 0028 00000000 		.4byte	.LFB28
 13281 002c E8000000 		.4byte	.LFE28-.LFB28
 13282 0030 00000000 		.4byte	.LFB29
 13283 0034 24010000 		.4byte	.LFE29-.LFB29
 13284 0038 00000000 		.4byte	.LFB25
 13285 003c C0000000 		.4byte	.LFE25-.LFB25
 13286 0040 00000000 		.4byte	.LFB22
ARM GAS  C:\Users\Phuong\AppData\Local\Temp\ccP1LXIT.s 			page 253


 13287 0044 70000000 		.4byte	.LFE22-.LFB22
 13288 0048 00000000 		.4byte	.LFB26
 13289 004c 64000000 		.4byte	.LFE26-.LFB26
 13290 0050 00000000 		.4byte	.LFB27
 13291 0054 42000000 		.4byte	.LFE27-.LFB27
 13292 0058 00000000 		.4byte	.LFB30
 13293 005c 5C000000 		.4byte	.LFE30-.LFB30
 13294 0060 00000000 		.4byte	.LFB31
 13295 0064 EC000000 		.4byte	.LFE31-.LFB31
 13296 0068 00000000 		.4byte	.LFB23
 13297 006c 6C000000 		.4byte	.LFE23-.LFB23
 13298 0070 00000000 		.4byte	.LFB21
 13299 0074 90000000 		.4byte	.LFE21-.LFB21
 13300 0078 00000000 		.4byte	.LFB32
 13301 007c 58000000 		.4byte	.LFE32-.LFB32
 13302 0080 00000000 		.4byte	.LFB33
 13303 0084 40000000 		.4byte	.LFE33-.LFB33
 13304 0088 00000000 		.4byte	.LFB20
 13305 008c 34000000 		.4byte	.LFE20-.LFB20
 13306 0090 00000000 		.4byte	.LFB34
 13307 0094 1E000000 		.4byte	.LFE34-.LFB34
 13308 0098 00000000 		.4byte	.LFB38
 13309 009c 1C010000 		.4byte	.LFE38-.LFB38
 13310 00a0 00000000 		.4byte	.LFB37
 13311 00a4 9C000000 		.4byte	.LFE37-.LFB37
 13312 00a8 00000000 		.4byte	.LFB36
 13313 00ac CC000000 		.4byte	.LFE36-.LFB36
 13314 00b0 00000000 		.4byte	.LFB39
 13315 00b4 F4000000 		.4byte	.LFE39-.LFB39
 13316 00b8 00000000 		.4byte	.LFB35
 13317 00bc 0C000000 		.4byte	.LFE35-.LFB35
 13318 00c0 00000000 		.4byte	0
 13319 00c4 00000000 		.4byte	0
 13320              		.section	.debug_ranges,"",%progbits
 13321              	.Ldebug_ranges0:
 13322 0000 30000000 		.4byte	.LBB10
 13323 0004 42000000 		.4byte	.LBE10
 13324 0008 44000000 		.4byte	.LBB11
 13325 000c A2000000 		.4byte	.LBE11
 13326 0010 A6000000 		.4byte	.LBB12
 13327 0014 A8000000 		.4byte	.LBE12
 13328 0018 00000000 		.4byte	0
 13329 001c 00000000 		.4byte	0
 13330 0020 2A000000 		.4byte	.LBB20
 13331 0024 AC000000 		.4byte	.LBE20
 13332 0028 B2000000 		.4byte	.LBB23
 13333 002c BA000000 		.4byte	.LBE23
 13334 0030 00000000 		.4byte	0
 13335 0034 00000000 		.4byte	0
 13336 0038 06000000 		.4byte	.LBB28
 13337 003c 38000000 		.4byte	.LBE28
 13338 0040 3C000000 		.4byte	.LBB29
 13339 0044 46000000 		.4byte	.LBE29
 13340 0048 00000000 		.4byte	0
 13341 004c 00000000 		.4byte	0
 13342 0050 08000000 		.4byte	.LBB30
 13343 0054 2C000000 		.4byte	.LBE30
ARM GAS  C:\Users\Phuong\AppData\Local\Temp\ccP1LXIT.s 			page 254


 13344 0058 32000000 		.4byte	.LBB33
 13345 005c 3A000000 		.4byte	.LBE33
 13346 0060 00000000 		.4byte	0
 13347 0064 00000000 		.4byte	0
 13348 0068 10000000 		.4byte	.LBB31
 13349 006c 2C000000 		.4byte	.LBE31
 13350 0070 38000000 		.4byte	.LBB32
 13351 0074 3A000000 		.4byte	.LBE32
 13352 0078 00000000 		.4byte	0
 13353 007c 00000000 		.4byte	0
 13354 0080 12000000 		.4byte	.LBB45
 13355 0084 BE000000 		.4byte	.LBE45
 13356 0088 C6000000 		.4byte	.LBB50
 13357 008c D0000000 		.4byte	.LBE50
 13358 0090 00000000 		.4byte	0
 13359 0094 00000000 		.4byte	0
 13360 0098 64000000 		.4byte	.LBB47
 13361 009c B2000000 		.4byte	.LBE47
 13362 00a0 CC000000 		.4byte	.LBB49
 13363 00a4 D0000000 		.4byte	.LBE49
 13364 00a8 00000000 		.4byte	0
 13365 00ac 00000000 		.4byte	0
 13366 00b0 00000000 		.4byte	.LFB18
 13367 00b4 0E000000 		.4byte	.LFE18
 13368 00b8 00000000 		.4byte	.LFB19
 13369 00bc 0E000000 		.4byte	.LFE19
 13370 00c0 00000000 		.4byte	.LFB24
 13371 00c4 44000000 		.4byte	.LFE24
 13372 00c8 00000000 		.4byte	.LFB28
 13373 00cc E8000000 		.4byte	.LFE28
 13374 00d0 00000000 		.4byte	.LFB29
 13375 00d4 24010000 		.4byte	.LFE29
 13376 00d8 00000000 		.4byte	.LFB25
 13377 00dc C0000000 		.4byte	.LFE25
 13378 00e0 00000000 		.4byte	.LFB22
 13379 00e4 70000000 		.4byte	.LFE22
 13380 00e8 00000000 		.4byte	.LFB26
 13381 00ec 64000000 		.4byte	.LFE26
 13382 00f0 00000000 		.4byte	.LFB27
 13383 00f4 42000000 		.4byte	.LFE27
 13384 00f8 00000000 		.4byte	.LFB30
 13385 00fc 5C000000 		.4byte	.LFE30
 13386 0100 00000000 		.4byte	.LFB31
 13387 0104 EC000000 		.4byte	.LFE31
 13388 0108 00000000 		.4byte	.LFB23
 13389 010c 6C000000 		.4byte	.LFE23
 13390 0110 00000000 		.4byte	.LFB21
 13391 0114 90000000 		.4byte	.LFE21
 13392 0118 00000000 		.4byte	.LFB32
 13393 011c 58000000 		.4byte	.LFE32
 13394 0120 00000000 		.4byte	.LFB33
 13395 0124 40000000 		.4byte	.LFE33
 13396 0128 00000000 		.4byte	.LFB20
 13397 012c 34000000 		.4byte	.LFE20
 13398 0130 00000000 		.4byte	.LFB34
 13399 0134 1E000000 		.4byte	.LFE34
 13400 0138 00000000 		.4byte	.LFB38
ARM GAS  C:\Users\Phuong\AppData\Local\Temp\ccP1LXIT.s 			page 255


 13401 013c 1C010000 		.4byte	.LFE38
 13402 0140 00000000 		.4byte	.LFB37
 13403 0144 9C000000 		.4byte	.LFE37
 13404 0148 00000000 		.4byte	.LFB36
 13405 014c CC000000 		.4byte	.LFE36
 13406 0150 00000000 		.4byte	.LFB39
 13407 0154 F4000000 		.4byte	.LFE39
 13408 0158 00000000 		.4byte	.LFB35
 13409 015c 0C000000 		.4byte	.LFE35
 13410 0160 00000000 		.4byte	0
 13411 0164 00000000 		.4byte	0
 13412              		.section	.debug_line,"",%progbits
 13413              	.Ldebug_line0:
 13414 0000 F6070000 		.section	.debug_str,"MS",%progbits,1
 13414      0200B903 
 13414      00000201 
 13414      FB0E0D00 
 13414      01010101 
 13415              	.LASF131:
 13416 0000 72656E65 		.ascii	"renego_records_seen\000"
 13416      676F5F72 
 13416      65636F72 
 13416      64735F73 
 13416      65656E00 
 13417              	.LASF428:
 13418 0014 746C7369 		.ascii	"tlsio_mbedtls_interface_description\000"
 13418      6F5F6D62 
 13418      6564746C 
 13418      735F696E 
 13418      74657266 
 13419              	.LASF422:
 13420 0038 4F505449 		.ascii	"OPTION_TLS_VERSION\000"
 13420      4F4E5F54 
 13420      4C535F56 
 13420      45525349 
 13420      4F4E00
 13421              	.LASF4:
 13422 004b 73697A65 		.ascii	"size_t\000"
 13422      5F7400
 13423              	.LASF388:
 13424 0052 746C7369 		.ascii	"tlsio_mbedtls_open\000"
 13424      6F5F6D62 
 13424      6564746C 
 13424      735F6F70 
 13424      656E00
 13425              	.LASF15:
 13426 0065 73697A65 		.ascii	"sizetype\000"
 13426      74797065 
 13426      00
 13427              	.LASF334:
 13428 006e 544C5349 		.ascii	"TLSIO_STATE_OPENING_UNDERLYING_IO\000"
 13428      4F5F5354 
 13428      4154455F 
 13428      4F50454E 
 13428      494E475F 
 13429              	.LASF211:
 13430 0090 705F6578 		.ascii	"p_export_keys\000"
ARM GAS  C:\Users\Phuong\AppData\Local\Temp\ccP1LXIT.s 			page 256


 13430      706F7274 
 13430      5F6B6579 
 13430      7300
 13431              	.LASF227:
 13432 009e 72656E65 		.ascii	"renego_max_records\000"
 13432      676F5F6D 
 13432      61785F72 
 13432      65636F72 
 13432      647300
 13433              	.LASF250:
 13434 00b1 6D626564 		.ascii	"mbedtls_sha512_context\000"
 13434      746C735F 
 13434      73686135 
 13434      31325F63 
 13434      6F6E7465 
 13435              	.LASF418:
 13436 00c8 4F505449 		.ascii	"OPTION_CURL_FRESH_CONNECT\000"
 13436      4F4E5F43 
 13436      55524C5F 
 13436      46524553 
 13436      485F434F 
 13437              	.LASF282:
 13438 00e2 58494F5F 		.ascii	"XIO_INSTANCE_TAG\000"
 13438      494E5354 
 13438      414E4345 
 13438      5F544147 
 13438      00
 13439              	.LASF335:
 13440 00f3 544C5349 		.ascii	"TLSIO_STATE_IN_HANDSHAKE\000"
 13440      4F5F5354 
 13440      4154455F 
 13440      494E5F48 
 13440      414E4453 
 13441              	.LASF303:
 13442 010c 494F5F4F 		.ascii	"IO_OPEN\000"
 13442      50454E00 
 13443              	.LASF199:
 13444 0114 705F736E 		.ascii	"p_sni\000"
 13444      6900
 13445              	.LASF445:
 13446 011a 6D626564 		.ascii	"mbedtls_ssl_setup\000"
 13446      746C735F 
 13446      73736C5F 
 13446      73657475 
 13446      7000
 13447              	.LASF58:
 13448 012c 6D626564 		.ascii	"mbedtls_pk_context\000"
 13448      746C735F 
 13448      706B5F63 
 13448      6F6E7465 
 13448      787400
 13449              	.LASF163:
 13450 013f 696E5F77 		.ascii	"in_window_top\000"
 13450      696E646F 
 13450      775F746F 
 13450      7000
 13451              	.LASF115:
ARM GAS  C:\Users\Phuong\AppData\Local\Temp\ccP1LXIT.s 			page 257


 13452 014d 63697068 		.ascii	"ciphersuite\000"
 13452      65727375 
 13452      69746500 
 13453              	.LASF287:
 13454 0159 494F5F53 		.ascii	"IO_SEND_ERROR\000"
 13454      454E445F 
 13454      4552524F 
 13454      5200
 13455              	.LASF368:
 13456 0167 696E7374 		.ascii	"instance\000"
 13456      616E6365 
 13456      00
 13457              	.LASF54:
 13458 0170 4D424544 		.ascii	"MBEDTLS_PK_RSA_ALT\000"
 13458      544C535F 
 13458      504B5F52 
 13458      53415F41 
 13458      4C5400
 13459              	.LASF374:
 13460 0183 5F5F6675 		.ascii	"__func__\000"
 13460      6E635F5F 
 13460      00
 13461              	.LASF192:
 13462 018c 705F6462 		.ascii	"p_dbg\000"
 13462      6700
 13463              	.LASF69:
 13464 0192 6D626564 		.ascii	"mbedtls_x509_time\000"
 13464      746C735F 
 13464      78353039 
 13464      5F74696D 
 13464      6500
 13465              	.LASF204:
 13466 01a4 665F636F 		.ascii	"f_cookie_write\000"
 13466      6F6B6965 
 13466      5F777269 
 13466      746500
 13467              	.LASF436:
 13468 01b3 6D626564 		.ascii	"mbedtls_entropy_add_source\000"
 13468      746C735F 
 13468      656E7472 
 13468      6F70795F 
 13468      6164645F 
 13469              	.LASF266:
 13470 01ce 6D626564 		.ascii	"mbedtls_aes_context\000"
 13470      746C735F 
 13470      6165735F 
 13470      636F6E74 
 13470      65787400 
 13471              	.LASF409:
 13472 01e2 4F505449 		.ascii	"OPTION_HTTP_TIMEOUT\000"
 13472      4F4E5F48 
 13472      5454505F 
 13472      54494D45 
 13472      4F555400 
 13473              	.LASF59:
 13474 01f6 706B5F69 		.ascii	"pk_info\000"
 13474      6E666F00 
ARM GAS  C:\Users\Phuong\AppData\Local\Temp\ccP1LXIT.s 			page 258


 13475              	.LASF150:
 13476 01fe 665F6765 		.ascii	"f_get_timer\000"
 13476      745F7469 
 13476      6D657200 
 13477              	.LASF56:
 13478 020a 6D626564 		.ascii	"mbedtls_pk_type_t\000"
 13478      746C735F 
 13478      706B5F74 
 13478      7970655F 
 13478      7400
 13479              	.LASF322:
 13480 021c 544C5349 		.ascii	"TLSIO_CONFIG\000"
 13480      4F5F434F 
 13480      4E464947 
 13480      00
 13481              	.LASF129:
 13482 0229 73746174 		.ascii	"state\000"
 13482      6500
 13483              	.LASF179:
 13484 022f 73706C69 		.ascii	"split_done\000"
 13484      745F646F 
 13484      6E6500
 13485              	.LASF237:
 13486 023a 61757468 		.ascii	"authmode\000"
 13486      6D6F6465 
 13486      00
 13487              	.LASF444:
 13488 0243 6D626564 		.ascii	"mbedtls_ssl_set_session\000"
 13488      746C735F 
 13488      73736C5F 
 13488      7365745F 
 13488      73657373 
 13489              	.LASF358:
 13490 025b 74727573 		.ascii	"trusted_certificates_parsed\000"
 13490      7465645F 
 13490      63657274 
 13490      69666963 
 13490      61746573 
 13491              	.LASF296:
 13492 0277 4F4E5F53 		.ascii	"ON_SEND_COMPLETE\000"
 13492      454E445F 
 13492      434F4D50 
 13492      4C455445 
 13492      00
 13493              	.LASF84:
 13494 0288 63726C5F 		.ascii	"crl_ext\000"
 13494      65787400 
 13495              	.LASF76:
 13496 0290 6D626564 		.ascii	"mbedtls_x509_crl\000"
 13496      746C735F 
 13496      78353039 
 13496      5F63726C 
 13496      00
 13497              	.LASF200:
 13498 02a1 665F7672 		.ascii	"f_vrfy\000"
 13498      667900
 13499              	.LASF39:
ARM GAS  C:\Users\Phuong\AppData\Local\Temp\ccP1LXIT.s 			page 259


 13500 02a8 4D424544 		.ascii	"MBEDTLS_MD_MD2\000"
 13500      544C535F 
 13500      4D445F4D 
 13500      443200
 13501              	.LASF270:
 13502 02b7 70726564 		.ascii	"prediction_resistance\000"
 13502      69637469 
 13502      6F6E5F72 
 13502      65736973 
 13502      74616E63 
 13503              	.LASF40:
 13504 02cd 4D424544 		.ascii	"MBEDTLS_MD_MD4\000"
 13504      544C535F 
 13504      4D445F4D 
 13504      443400
 13505              	.LASF41:
 13506 02dc 4D424544 		.ascii	"MBEDTLS_MD_MD5\000"
 13506      544C535F 
 13506      4D445F4D 
 13506      443500
 13507              	.LASF70:
 13508 02eb 79656172 		.ascii	"year\000"
 13508      00
 13509              	.LASF89:
 13510 02f0 6D626564 		.ascii	"mbedtls_x509_crt\000"
 13510      746C735F 
 13510      78353039 
 13510      5F637274 
 13510      00
 13511              	.LASF128:
 13512 0301 636F6E66 		.ascii	"conf\000"
 13512      00
 13513              	.LASF88:
 13514 0306 7369675F 		.ascii	"sig_opts\000"
 13514      6F707473 
 13514      00
 13515              	.LASF134:
 13516 030f 6261646D 		.ascii	"badmac_seen\000"
 13516      61635F73 
 13516      65656E00 
 13517              	.LASF78:
 13518 031b 7369675F 		.ascii	"sig_oid\000"
 13518      6F696400 
 13519              	.LASF147:
 13520 0323 7472616E 		.ascii	"transform_negotiate\000"
 13520      73666F72 
 13520      6D5F6E65 
 13520      676F7469 
 13520      61746500 
 13521              	.LASF393:
 13522 0337 746C7369 		.ascii	"tlsio_mbedtls_send\000"
 13522      6F5F6D62 
 13522      6564746C 
 13522      735F7365 
 13522      6E6400
 13523              	.LASF390:
 13524 034a 6F6E5F75 		.ascii	"on_underlying_io_open_complete\000"
ARM GAS  C:\Users\Phuong\AppData\Local\Temp\ccP1LXIT.s 			page 260


 13524      6E646572 
 13524      6C79696E 
 13524      675F696F 
 13524      5F6F7065 
 13525              	.LASF391:
 13526 0369 746C7369 		.ascii	"tlsio_mbedtls_close\000"
 13526      6F5F6D62 
 13526      6564746C 
 13526      735F636C 
 13526      6F736500 
 13527              	.LASF349:
 13528 037d 6F6E5F69 		.ascii	"on_io_error_context\000"
 13528      6F5F6572 
 13528      726F725F 
 13528      636F6E74 
 13528      65787400 
 13529              	.LASF329:
 13530 0391 534F434B 		.ascii	"SOCKETIO_CONFIG_TAG\000"
 13530      4554494F 
 13530      5F434F4E 
 13530      4649475F 
 13530      54414700 
 13531              	.LASF109:
 13532 03a5 6D626564 		.ascii	"mbedtls_ssl_send_t\000"
 13532      746C735F 
 13532      73736C5F 
 13532      73656E64 
 13532      5F7400
 13533              	.LASF5:
 13534 03b8 5F5F7569 		.ascii	"__uint8_t\000"
 13534      6E74385F 
 13534      7400
 13535              	.LASF24:
 13536 03c2 4D424544 		.ascii	"MBEDTLS_ECP_DP_SECP192R1\000"
 13536      544C535F 
 13536      4543505F 
 13536      44505F53 
 13536      45435031 
 13537              	.LASF143:
 13538 03db 68616E64 		.ascii	"handshake\000"
 13538      7368616B 
 13538      6500
 13539              	.LASF373:
 13540 03e5 72657375 		.ascii	"result\000"
 13540      6C7400
 13541              	.LASF85:
 13542 03ec 7369675F 		.ascii	"sig_oid2\000"
 13542      6F696432 
 13542      00
 13543              	.LASF438:
 13544 03f5 6D626564 		.ascii	"mbedtls_ssl_config_defaults\000"
 13544      746C735F 
 13544      73736C5F 
 13544      636F6E66 
 13544      69675F64 
 13545              	.LASF37:
 13546 0411 6D626564 		.ascii	"mbedtls_ecp_group_id\000"
ARM GAS  C:\Users\Phuong\AppData\Local\Temp\ccP1LXIT.s 			page 261


 13546      746C735F 
 13546      6563705F 
 13546      67726F75 
 13546      705F6964 
 13547              	.LASF356:
 13548 0426 6374725F 		.ascii	"ctr_drbg\000"
 13548      64726267 
 13548      00
 13549              	.LASF102:
 13550 042f 6578745F 		.ascii	"ext_key_usage\000"
 13550      6B65795F 
 13550      75736167 
 13550      6500
 13551              	.LASF114:
 13552 043d 6D626564 		.ascii	"mbedtls_ssl_session\000"
 13552      746C735F 
 13552      73736C5F 
 13552      73657373 
 13552      696F6E00 
 13553              	.LASF99:
 13554 0451 63615F69 		.ascii	"ca_istrue\000"
 13554      73747275 
 13554      6500
 13555              	.LASF350:
 13556 045b 746C7369 		.ascii	"tlsio_state\000"
 13556      6F5F7374 
 13556      61746500 
 13557              	.LASF130:
 13558 0467 72656E65 		.ascii	"renego_status\000"
 13558      676F5F73 
 13558      74617475 
 13558      7300
 13559              	.LASF45:
 13560 0475 4D424544 		.ascii	"MBEDTLS_MD_SHA384\000"
 13560      544C535F 
 13560      4D445F53 
 13560      48413338 
 13560      3400
 13561              	.LASF10:
 13562 0487 6C6F6E67 		.ascii	"long int\000"
 13562      20696E74 
 13562      00
 13563              	.LASF145:
 13564 0490 7472616E 		.ascii	"transform_out\000"
 13564      73666F72 
 13564      6D5F6F75 
 13564      7400
 13565              	.LASF202:
 13566 049e 665F7073 		.ascii	"f_psk\000"
 13566      6B00
 13567              	.LASF224:
 13568 04a4 72656164 		.ascii	"read_timeout\000"
 13568      5F74696D 
 13568      656F7574 
 13568      00
 13569              	.LASF100:
 13570 04b1 6D61785F 		.ascii	"max_pathlen\000"
ARM GAS  C:\Users\Phuong\AppData\Local\Temp\ccP1LXIT.s 			page 262


 13570      70617468 
 13570      6C656E00 
 13571              	.LASF164:
 13572 04bd 696E5F77 		.ascii	"in_window\000"
 13572      696E646F 
 13572      7700
 13573              	.LASF313:
 13574 04c7 636F6E63 		.ascii	"concrete_io_close\000"
 13574      72657465 
 13574      5F696F5F 
 13574      636C6F73 
 13574      6500
 13575              	.LASF30:
 13576 04d9 4D424544 		.ascii	"MBEDTLS_ECP_DP_BP384R1\000"
 13576      544C535F 
 13576      4543505F 
 13576      44505F42 
 13576      50333834 
 13577              	.LASF290:
 13578 04f0 494F5F4F 		.ascii	"IO_OPEN_RESULT_TAG\000"
 13578      50454E5F 
 13578      52455355 
 13578      4C545F54 
 13578      414700
 13579              	.LASF407:
 13580 0503 70617273 		.ascii	"parse_result\000"
 13580      655F7265 
 13580      73756C74 
 13580      00
 13581              	.LASF195:
 13582 0510 665F6765 		.ascii	"f_get_cache\000"
 13582      745F6361 
 13582      63686500 
 13583              	.LASF191:
 13584 051c 665F6462 		.ascii	"f_dbg\000"
 13584      6700
 13585              	.LASF446:
 13586 0522 736F636B 		.ascii	"socketio_get_interface_description\000"
 13586      6574696F 
 13586      5F676574 
 13586      5F696E74 
 13586      65726661 
 13587              	.LASF454:
 13588 0545 72616E64 		.ascii	"rand\000"
 13588      00
 13589              	.LASF60:
 13590 054a 706B5F63 		.ascii	"pk_ctx\000"
 13590      747800
 13591              	.LASF344:
 13592 0551 6F6E5F69 		.ascii	"on_io_close_complete\000"
 13592      6F5F636C 
 13592      6F73655F 
 13592      636F6D70 
 13592      6C657465 
 13593              	.LASF278:
 13594 0566 4F505449 		.ascii	"OPTIONHANDLER_INVALIDARG\000"
 13594      4F4E4841 
ARM GAS  C:\Users\Phuong\AppData\Local\Temp\ccP1LXIT.s 			page 263


 13594      4E444C45 
 13594      525F494E 
 13594      56414C49 
 13595              	.LASF280:
 13596 057f 4F505449 		.ascii	"OPTIONHANDLER_HANDLE_DATA_TAG\000"
 13596      4F4E4841 
 13596      4E444C45 
 13596      525F4841 
 13596      4E444C45 
 13597              	.LASF459:
 13598 059d 6D626564 		.ascii	"mbedtls_x509_crt_free\000"
 13598      746C735F 
 13598      78353039 
 13598      5F637274 
 13598      5F667265 
 13599              	.LASF275:
 13600 05b3 705F656E 		.ascii	"p_entropy\000"
 13600      74726F70 
 13600      7900
 13601              	.LASF426:
 13602 05bd 4F505449 		.ascii	"OPTION_UNDERLYING_IO_OPTIONS\000"
 13602      4F4E5F55 
 13602      4E444552 
 13602      4C59494E 
 13602      475F494F 
 13603              	.LASF162:
 13604 05da 6E657874 		.ascii	"next_record_offset\000"
 13604      5F726563 
 13604      6F72645F 
 13604      6F666673 
 13604      657400
 13605              	.LASF3:
 13606 05ed 7369676E 		.ascii	"signed char\000"
 13606      65642063 
 13606      68617200 
 13607              	.LASF29:
 13608 05f9 4D424544 		.ascii	"MBEDTLS_ECP_DP_BP256R1\000"
 13608      544C535F 
 13608      4543505F 
 13608      44505F42 
 13608      50323536 
 13609              	.LASF17:
 13610 0610 75696E74 		.ascii	"uint8_t\000"
 13610      385F7400 
 13611              	.LASF328:
 13612 0618 4C4F4747 		.ascii	"LOGGER_LOG\000"
 13612      45525F4C 
 13612      4F4700
 13613              	.LASF186:
 13614 0623 76657269 		.ascii	"verify_data_len\000"
 13614      66795F64 
 13614      6174615F 
 13614      6C656E00 
 13615              	.LASF135:
 13616 0633 665F7365 		.ascii	"f_send\000"
 13616      6E6400
 13617              	.LASF283:
ARM GAS  C:\Users\Phuong\AppData\Local\Temp\ccP1LXIT.s 			page 264


 13618 063a 434F4E43 		.ascii	"CONCRETE_IO_HANDLE\000"
 13618      52455445 
 13618      5F494F5F 
 13618      48414E44 
 13618      4C4500
 13619              	.LASF361:
 13620 064d 696E6469 		.ascii	"indicate_error\000"
 13620      63617465 
 13620      5F657272 
 13620      6F7200
 13621              	.LASF80:
 13622 065c 69737375 		.ascii	"issuer\000"
 13622      657200
 13623              	.LASF148:
 13624 0663 705F7469 		.ascii	"p_timer\000"
 13624      6D657200 
 13625              	.LASF230:
 13626 066b 64686D5F 		.ascii	"dhm_min_bitlen\000"
 13626      6D696E5F 
 13626      6269746C 
 13626      656E00
 13627              	.LASF461:
 13628 067a 6D626564 		.ascii	"mbedtls_entropy_free\000"
 13628      746C735F 
 13628      656E7472 
 13628      6F70795F 
 13628      66726565 
 13629              	.LASF201:
 13630 068f 705F7672 		.ascii	"p_vrfy\000"
 13630      667900
 13631              	.LASF347:
 13632 0696 6F6E5F69 		.ascii	"on_io_open_complete_context\000"
 13632      6F5F6F70 
 13632      656E5F63 
 13632      6F6D706C 
 13632      6574655F 
 13633              	.LASF359:
 13634 06b2 74727573 		.ascii	"trusted_certificates\000"
 13634      7465645F 
 13634      63657274 
 13634      69666963 
 13634      61746573 
 13635              	.LASF159:
 13636 06c7 696E5F6D 		.ascii	"in_msglen\000"
 13636      73676C65 
 13636      6E00
 13637              	.LASF6:
 13638 06d1 756E7369 		.ascii	"unsigned char\000"
 13638      676E6564 
 13638      20636861 
 13638      7200
 13639              	.LASF98:
 13640 06df 6578745F 		.ascii	"ext_types\000"
 13640      74797065 
 13640      7300
 13641              	.LASF169:
 13642 06e9 6F75745F 		.ascii	"out_buf\000"
ARM GAS  C:\Users\Phuong\AppData\Local\Temp\ccP1LXIT.s 			page 265


 13642      62756600 
 13643              	.LASF31:
 13644 06f1 4D424544 		.ascii	"MBEDTLS_ECP_DP_BP512R1\000"
 13644      544C535F 
 13644      4543505F 
 13644      44505F42 
 13644      50353132 
 13645              	.LASF21:
 13646 0708 6D626564 		.ascii	"mbedtls_mpi_uint\000"
 13646      746C735F 
 13646      6D70695F 
 13646      75696E74 
 13646      00
 13647              	.LASF153:
 13648 0719 696E5F68 		.ascii	"in_hdr\000"
 13648      647200
 13649              	.LASF452:
 13650 0720 7265616C 		.ascii	"realloc\000"
 13650      6C6F6300 
 13651              	.LASF345:
 13652 0728 6F6E5F69 		.ascii	"on_io_error\000"
 13652      6F5F6572 
 13652      726F7200 
 13653              	.LASF379:
 13654 0734 62797465 		.ascii	"bytes_cnt\000"
 13654      735F636E 
 13654      7400
 13655              	.LASF364:
 13656 073e 6F70656E 		.ascii	"open_result\000"
 13656      5F726573 
 13656      756C7400 
 13657              	.LASF336:
 13658 074a 544C5349 		.ascii	"TLSIO_STATE_OPEN\000"
 13658      4F5F5354 
 13658      4154455F 
 13658      4F50454E 
 13658      00
 13659              	.LASF424:
 13660 075b 4F505449 		.ascii	"OPTION_ADDRESS_TYPE_DOMAIN_SOCKET\000"
 13660      4F4E5F41 
 13660      44445245 
 13660      53535F54 
 13660      5950455F 
 13661              	.LASF351:
 13662 077d 736F636B 		.ascii	"socket_io_read_bytes\000"
 13662      65745F69 
 13662      6F5F7265 
 13662      61645F62 
 13662      79746573 
 13663              	.LASF110:
 13664 0792 6D626564 		.ascii	"mbedtls_ssl_recv_t\000"
 13664      746C735F 
 13664      73736C5F 
 13664      72656376 
 13664      5F7400
 13665              	.LASF352:
 13666 07a5 736F636B 		.ascii	"socket_io_read_byte_count\000"
ARM GAS  C:\Users\Phuong\AppData\Local\Temp\ccP1LXIT.s 			page 266


 13666      65745F69 
 13666      6F5F7265 
 13666      61645F62 
 13666      7974655F 
 13667              	.LASF479:
 13668 07bf 474E5520 		.ascii	"GNU C11 5.4.1 20160609 (release) [ARM/embedded-5-br"
 13668      43313120 
 13668      352E342E 
 13668      31203230 
 13668      31363036 
 13669 07f2 616E6368 		.ascii	"anch revision 237715] -mcpu=cortex-m0plus -mthumb -"
 13669      20726576 
 13669      6973696F 
 13669      6E203233 
 13669      37373135 
 13670 0825 67202D4F 		.ascii	"g -Og -ffunction-sections -ffat-lto-objects\000"
 13670      67202D66 
 13670      66756E63 
 13670      74696F6E 
 13670      2D736563 
 13671              	.LASF403:
 13672 0851 76616C75 		.ascii	"value\000"
 13672      6500
 13673              	.LASF177:
 13674 0857 6F75745F 		.ascii	"out_left\000"
 13674      6C656674 
 13674      00
 13675              	.LASF385:
 13676 0860 6F6C656E 		.ascii	"olen\000"
 13676      00
 13677              	.LASF16:
 13678 0865 63686172 		.ascii	"char\000"
 13678      00
 13679              	.LASF384:
 13680 086a 6F757470 		.ascii	"output\000"
 13680      757400
 13681              	.LASF442:
 13682 0871 6D626564 		.ascii	"mbedtls_ssl_set_bio\000"
 13682      746C735F 
 13682      73736C5F 
 13682      7365745F 
 13682      62696F00 
 13683              	.LASF49:
 13684 0885 4D424544 		.ascii	"MBEDTLS_PK_NONE\000"
 13684      544C535F 
 13684      504B5F4E 
 13684      4F4E4500 
 13685              	.LASF8:
 13686 0895 5F5F7569 		.ascii	"__uint16_t\000"
 13686      6E743136 
 13686      5F7400
 13687              	.LASF360:
 13688 08a0 544C535F 		.ascii	"TLS_IO_INSTANCE\000"
 13688      494F5F49 
 13688      4E535441 
 13688      4E434500 
 13689              	.LASF304:
ARM GAS  C:\Users\Phuong\AppData\Local\Temp\ccP1LXIT.s 			page 267


 13690 08b0 494F5F43 		.ascii	"IO_CLOSE\000"
 13690      4C4F5345 
 13690      00
 13691              	.LASF471:
 13692 08b9 4F707469 		.ascii	"OptionHandler_Destroy\000"
 13692      6F6E4861 
 13692      6E646C65 
 13692      725F4465 
 13692      7374726F 
 13693              	.LASF119:
 13694 08cf 70656572 		.ascii	"peer_cert\000"
 13694      5F636572 
 13694      7400
 13695              	.LASF439:
 13696 08d9 6D626564 		.ascii	"mbedtls_ssl_conf_rng\000"
 13696      746C735F 
 13696      73736C5F 
 13696      636F6E66 
 13696      5F726E67 
 13697              	.LASF265:
 13698 08ee 736F7572 		.ascii	"source\000"
 13698      636500
 13699              	.LASF142:
 13700 08f5 73657373 		.ascii	"session_negotiate\000"
 13700      696F6E5F 
 13700      6E65676F 
 13700      74696174 
 13700      6500
 13701              	.LASF346:
 13702 0907 6F6E5F62 		.ascii	"on_bytes_received_context\000"
 13702      79746573 
 13702      5F726563 
 13702      65697665 
 13702      645F636F 
 13703              	.LASF311:
 13704 0921 636F6E63 		.ascii	"concrete_io_destroy\000"
 13704      72657465 
 13704      5F696F5F 
 13704      64657374 
 13704      726F7900 
 13705              	.LASF157:
 13706 0935 696E5F6F 		.ascii	"in_offt\000"
 13706      66667400 
 13707              	.LASF140:
 13708 093d 73657373 		.ascii	"session_out\000"
 13708      696F6E5F 
 13708      6F757400 
 13709              	.LASF46:
 13710 0949 4D424544 		.ascii	"MBEDTLS_MD_SHA512\000"
 13710      544C535F 
 13710      4D445F53 
 13710      48413531 
 13710      3200
 13711              	.LASF473:
 13712 095b 73747263 		.ascii	"strcmp\000"
 13712      6D7000
 13713              	.LASF210:
ARM GAS  C:\Users\Phuong\AppData\Local\Temp\ccP1LXIT.s 			page 268


 13714 0962 665F6578 		.ascii	"f_export_keys\000"
 13714      706F7274 
 13714      5F6B6579 
 13714      7300
 13715              	.LASF337:
 13716 0970 544C5349 		.ascii	"TLSIO_STATE_CLOSING\000"
 13716      4F5F5354 
 13716      4154455F 
 13716      434C4F53 
 13716      494E4700 
 13717              	.LASF340:
 13718 0984 544C535F 		.ascii	"TLS_IO_INSTANCE_TAG\000"
 13718      494F5F49 
 13718      4E535441 
 13718      4E43455F 
 13718      54414700 
 13719              	.LASF308:
 13720 0998 494F5F49 		.ascii	"IO_INTERFACE_DESCRIPTION_TAG\000"
 13720      4E544552 
 13720      46414345 
 13720      5F444553 
 13720      43524950 
 13721              	.LASF245:
 13722 09b5 66616C6C 		.ascii	"fallback\000"
 13722      6261636B 
 13722      00
 13723              	.LASF113:
 13724 09be 6D626564 		.ascii	"mbedtls_ssl_get_timer_t\000"
 13724      746C735F 
 13724      73736C5F 
 13724      6765745F 
 13724      74696D65 
 13725              	.LASF449:
 13726 09d6 6D616C6C 		.ascii	"malloc\000"
 13726      6F6300
 13727              	.LASF302:
 13728 09dd 494F5F44 		.ascii	"IO_DESTROY\000"
 13728      45535452 
 13728      4F5900
 13729              	.LASF158:
 13730 09e8 696E5F6D 		.ascii	"in_msgtype\000"
 13730      73677479 
 13730      706500
 13731              	.LASF136:
 13732 09f3 665F7265 		.ascii	"f_recv\000"
 13732      637600
 13733              	.LASF221:
 13734 09fa 70736B5F 		.ascii	"psk_identity\000"
 13734      6964656E 
 13734      74697479 
 13734      00
 13735              	.LASF215:
 13736 0a07 63615F63 		.ascii	"ca_crl\000"
 13736      726C00
 13737              	.LASF252:
 13738 0a0e 62756666 		.ascii	"buffer\000"
 13738      657200
ARM GAS  C:\Users\Phuong\AppData\Local\Temp\ccP1LXIT.s 			page 269


 13739              	.LASF133:
 13740 0a15 6D696E6F 		.ascii	"minor_ver\000"
 13740      725F7665 
 13740      7200
 13741              	.LASF139:
 13742 0a1f 73657373 		.ascii	"session_in\000"
 13742      696F6E5F 
 13742      696E00
 13743              	.LASF236:
 13744 0a2a 7472616E 		.ascii	"transport\000"
 13744      73706F72 
 13744      7400
 13745              	.LASF243:
 13746 0a34 64697361 		.ascii	"disable_renegotiation\000"
 13746      626C655F 
 13746      72656E65 
 13746      676F7469 
 13746      6174696F 
 13747              	.LASF465:
 13748 0a4a 6D626564 		.ascii	"mbedtls_ssl_handshake\000"
 13748      746C735F 
 13748      73736C5F 
 13748      68616E64 
 13748      7368616B 
 13749              	.LASF405:
 13750 0a60 746C7369 		.ascii	"tlsio_mbedtls_setoption\000"
 13750      6F5F6D62 
 13750      6564746C 
 13750      735F7365 
 13750      746F7074 
 13751              	.LASF277:
 13752 0a78 4F505449 		.ascii	"OPTIONHANDLER_ERROR\000"
 13752      4F4E4841 
 13752      4E444C45 
 13752      525F4552 
 13752      524F5200 
 13753              	.LASF106:
 13754 0a8c 616C6C6F 		.ascii	"allowed_pks\000"
 13754      7765645F 
 13754      706B7300 
 13755              	.LASF55:
 13756 0a98 4D424544 		.ascii	"MBEDTLS_PK_RSASSA_PSS\000"
 13756      544C535F 
 13756      504B5F52 
 13756      53415353 
 13756      415F5053 
 13757              	.LASF176:
 13758 0aae 6F75745F 		.ascii	"out_msglen\000"
 13758      6D73676C 
 13758      656E00
 13759              	.LASF174:
 13760 0ab9 6F75745F 		.ascii	"out_msg\000"
 13760      6D736700 
 13761              	.LASF314:
 13762 0ac1 636F6E63 		.ascii	"concrete_io_send\000"
 13762      72657465 
 13762      5F696F5F 
ARM GAS  C:\Users\Phuong\AppData\Local\Temp\ccP1LXIT.s 			page 270


 13762      73656E64 
 13762      00
 13763              	.LASF193:
 13764 0ad2 665F726E 		.ascii	"f_rng\000"
 13764      6700
 13765              	.LASF463:
 13766 0ad8 78696F5F 		.ascii	"xio_open\000"
 13766      6F70656E 
 13766      00
 13767              	.LASF112:
 13768 0ae1 6D626564 		.ascii	"mbedtls_ssl_set_timer_t\000"
 13768      746C735F 
 13768      73736C5F 
 13768      7365745F 
 13768      74696D65 
 13769              	.LASF400:
 13770 0af9 756E6465 		.ascii	"underlying_io_options\000"
 13770      726C7969 
 13770      6E675F69 
 13770      6F5F6F70 
 13770      74696F6E 
 13771              	.LASF196:
 13772 0b0f 665F7365 		.ascii	"f_set_cache\000"
 13772      745F6361 
 13772      63686500 
 13773              	.LASF394:
 13774 0b1b 6465636F 		.ascii	"decode_ssl_received_bytes\000"
 13774      64655F73 
 13774      736C5F72 
 13774      65636569 
 13774      7665645F 
 13775              	.LASF378:
 13776 0b35 736F636B 		.ascii	"socket_reads\000"
 13776      65745F72 
 13776      65616473 
 13776      00
 13777              	.LASF92:
 13778 0b42 76616C69 		.ascii	"valid_from\000"
 13778      645F6672 
 13778      6F6D00
 13779              	.LASF372:
 13780 0b4d 746C735F 		.ascii	"tls_io_config\000"
 13780      696F5F63 
 13780      6F6E6669 
 13780      6700
 13781              	.LASF246:
 13782 0b5b 63657274 		.ascii	"cert_req_ca_list\000"
 13782      5F726571 
 13782      5F63615F 
 13782      6C697374 
 13782      00
 13783              	.LASF170:
 13784 0b6c 6F75745F 		.ascii	"out_ctr\000"
 13784      63747200 
 13785              	.LASF208:
 13786 0b74 665F7469 		.ascii	"f_ticket_parse\000"
 13786      636B6574 
ARM GAS  C:\Users\Phuong\AppData\Local\Temp\ccP1LXIT.s 			page 271


 13786      5F706172 
 13786      736500
 13787              	.LASF13:
 13788 0b83 5F5F7569 		.ascii	"__uint64_t\000"
 13788      6E743634 
 13788      5F7400
 13789              	.LASF216:
 13790 0b8e 7369675F 		.ascii	"sig_hashes\000"
 13790      68617368 
 13790      657300
 13791              	.LASF67:
 13792 0b99 6D626564 		.ascii	"mbedtls_x509_name\000"
 13792      746C735F 
 13792      78353039 
 13792      5F6E616D 
 13792      6500
 13793              	.LASF182:
 13794 0bab 616C706E 		.ascii	"alpn_chosen\000"
 13794      5F63686F 
 13794      73656E00 
 13795              	.LASF165:
 13796 0bb7 696E5F68 		.ascii	"in_hslen\000"
 13796      736C656E 
 13796      00
 13797              	.LASF12:
 13798 0bc0 6C6F6E67 		.ascii	"long unsigned int\000"
 13798      20756E73 
 13798      69676E65 
 13798      6420696E 
 13798      7400
 13799              	.LASF121:
 13800 0bd2 7469636B 		.ascii	"ticket\000"
 13800      657400
 13801              	.LASF462:
 13802 0bd9 78696F5F 		.ascii	"xio_destroy\000"
 13802      64657374 
 13802      726F7900 
 13803              	.LASF392:
 13804 0be5 63616C6C 		.ascii	"callback_context\000"
 13804      6261636B 
 13804      5F636F6E 
 13804      74657874 
 13804      00
 13805              	.LASF175:
 13806 0bf6 6F75745F 		.ascii	"out_msgtype\000"
 13806      6D736774 
 13806      79706500 
 13807              	.LASF305:
 13808 0c02 494F5F53 		.ascii	"IO_SEND\000"
 13808      454E4400 
 13809              	.LASF90:
 13810 0c0a 7375626A 		.ascii	"subject_raw\000"
 13810      6563745F 
 13810      72617700 
 13811              	.LASF47:
 13812 0c16 4D424544 		.ascii	"MBEDTLS_MD_RIPEMD160\000"
 13812      544C535F 
ARM GAS  C:\Users\Phuong\AppData\Local\Temp\ccP1LXIT.s 			page 272


 13812      4D445F52 
 13812      4950454D 
 13812      44313630 
 13813              	.LASF79:
 13814 0c2b 69737375 		.ascii	"issuer_raw\000"
 13814      65725F72 
 13814      617700
 13815              	.LASF323:
 13816 0c36 4C4F475F 		.ascii	"LOG_CATEGORY_TAG\000"
 13816      43415445 
 13816      474F5259 
 13816      5F544147 
 13816      00
 13817              	.LASF214:
 13818 0c47 63615F63 		.ascii	"ca_chain\000"
 13818      6861696E 
 13818      00
 13819              	.LASF472:
 13820 0c50 4F707469 		.ascii	"OptionHandler_Create\000"
 13820      6F6E4861 
 13820      6E646C65 
 13820      725F4372 
 13820      65617465 
 13821              	.LASF423:
 13822 0c65 4F505449 		.ascii	"OPTION_ADDRESS_TYPE\000"
 13822      4F4E5F41 
 13822      44445245 
 13822      53535F54 
 13822      59504500 
 13823              	.LASF141:
 13824 0c79 73657373 		.ascii	"session\000"
 13824      696F6E00 
 13825              	.LASF257:
 13826 0c81 705F736F 		.ascii	"p_source\000"
 13826      75726365 
 13826      00
 13827              	.LASF440:
 13828 0c8a 6D626564 		.ascii	"mbedtls_ssl_conf_authmode\000"
 13828      746C735F 
 13828      73736C5F 
 13828      636F6E66 
 13828      5F617574 
 13829              	.LASF478:
 13830 0ca4 78696F5F 		.ascii	"xio_setoption\000"
 13830      7365746F 
 13830      7074696F 
 13830      6E00
 13831              	.LASF264:
 13832 0cb2 736F7572 		.ascii	"source_count\000"
 13832      63655F63 
 13832      6F756E74 
 13832      00
 13833              	.LASF32:
 13834 0cbf 4D424544 		.ascii	"MBEDTLS_ECP_DP_CURVE25519\000"
 13834      544C535F 
 13834      4543505F 
 13834      44505F43 
ARM GAS  C:\Users\Phuong\AppData\Local\Temp\ccP1LXIT.s 			page 273


 13834      55525645 
 13835              	.LASF173:
 13836 0cd9 6F75745F 		.ascii	"out_iv\000"
 13836      697600
 13837              	.LASF104:
 13838 0ce0 6D626564 		.ascii	"mbedtls_x509_crt_profile\000"
 13838      746C735F 
 13838      78353039 
 13838      5F637274 
 13838      5F70726F 
 13839              	.LASF365:
 13840 0cf9 6F6E5F75 		.ascii	"on_underlying_io_close_complete_during_close\000"
 13840      6E646572 
 13840      6C79696E 
 13840      675F696F 
 13840      5F636C6F 
 13841              	.LASF223:
 13842 0d26 616C706E 		.ascii	"alpn_list\000"
 13842      5F6C6973 
 13842      7400
 13843              	.LASF262:
 13844 0d30 61636375 		.ascii	"accumulator_started\000"
 13844      6D756C61 
 13844      746F725F 
 13844      73746172 
 13844      74656400 
 13845              	.LASF73:
 13846 0d44 73657269 		.ascii	"serial\000"
 13846      616C00
 13847              	.LASF397:
 13848 0d4b 746C7369 		.ascii	"tlsio_mbedtls_dowork\000"
 13848      6F5F6D62 
 13848      6564746C 
 13848      735F646F 
 13848      776F726B 
 13849              	.LASF256:
 13850 0d60 665F736F 		.ascii	"f_source\000"
 13850      75726365 
 13850      00
 13851              	.LASF325:
 13852 0d69 415A5F4C 		.ascii	"AZ_LOG_INFO\000"
 13852      4F475F49 
 13852      4E464F00 
 13853              	.LASF228:
 13854 0d75 72656E65 		.ascii	"renego_period\000"
 13854      676F5F70 
 13854      6572696F 
 13854      6400
 13855              	.LASF168:
 13856 0d83 64697361 		.ascii	"disable_datagram_packing\000"
 13856      626C655F 
 13856      64617461 
 13856      6772616D 
 13856      5F706163 
 13857              	.LASF137:
 13858 0d9c 665F7265 		.ascii	"f_recv_timeout\000"
 13858      63765F74 
ARM GAS  C:\Users\Phuong\AppData\Local\Temp\ccP1LXIT.s 			page 274


 13858      696D656F 
 13858      757400
 13859              	.LASF180:
 13860 0dab 636C6965 		.ascii	"client_auth\000"
 13860      6E745F61 
 13860      75746800 
 13861              	.LASF395:
 13862 0db7 7263765F 		.ascii	"rcv_bytes\000"
 13862      62797465 
 13862      7300
 13863              	.LASF295:
 13864 0dc1 4F4E5F42 		.ascii	"ON_BYTES_RECEIVED\000"
 13864      59544553 
 13864      5F524543 
 13864      45495645 
 13864      4400
 13865              	.LASF107:
 13866 0dd3 616C6C6F 		.ascii	"allowed_curves\000"
 13866      7765645F 
 13866      63757276 
 13866      657300
 13867              	.LASF178:
 13868 0de2 6375725F 		.ascii	"cur_out_ctr\000"
 13868      6F75745F 
 13868      63747200 
 13869              	.LASF417:
 13870 0dee 4F505449 		.ascii	"OPTION_CURL_LOW_SPEED_TIME\000"
 13870      4F4E5F43 
 13870      55524C5F 
 13870      4C4F575F 
 13870      53504545 
 13871              	.LASF254:
 13872 0e09 6D626564 		.ascii	"mbedtls_entropy_f_source_ptr\000"
 13872      746C735F 
 13872      656E7472 
 13872      6F70795F 
 13872      665F736F 
 13873              	.LASF432:
 13874 0e26 6D626564 		.ascii	"mbedtls_ssl_init\000"
 13874      746C735F 
 13874      73736C5F 
 13874      696E6974 
 13874      00
 13875              	.LASF469:
 13876 0e37 78696F5F 		.ascii	"xio_retrieveoptions\000"
 13876      72657472 
 13876      69657665 
 13876      6F707469 
 13876      6F6E7300 
 13877              	.LASF320:
 13878 0e4b 756E6465 		.ascii	"underlying_io_interface\000"
 13878      726C7969 
 13878      6E675F69 
 13878      6F5F696E 
 13878      74657266 
 13879              	.LASF11:
 13880 0e63 5F5F7569 		.ascii	"__uint32_t\000"
ARM GAS  C:\Users\Phuong\AppData\Local\Temp\ccP1LXIT.s 			page 275


 13880      6E743332 
 13880      5F7400
 13881              	.LASF271:
 13882 0e6e 656E7472 		.ascii	"entropy_len\000"
 13882      6F70795F 
 13882      6C656E00 
 13883              	.LASF1:
 13884 0e7a 6C6F6E67 		.ascii	"long long int\000"
 13884      206C6F6E 
 13884      6720696E 
 13884      7400
 13885              	.LASF414:
 13886 0e88 4F505449 		.ascii	"OPTION_X509_ECC_CERT\000"
 13886      4F4E5F58 
 13886      3530395F 
 13886      4543435F 
 13886      43455254 
 13887              	.LASF450:
 13888 0e9d 78696F5F 		.ascii	"xio_dowork\000"
 13888      646F776F 
 13888      726B00
 13889              	.LASF268:
 13890 0ea8 636F756E 		.ascii	"counter\000"
 13890      74657200 
 13891              	.LASF232:
 13892 0eb0 6D61785F 		.ascii	"max_minor_ver\000"
 13892      6D696E6F 
 13892      725F7665 
 13892      7200
 13893              	.LASF316:
 13894 0ebe 636F6E63 		.ascii	"concrete_io_setoption\000"
 13894      72657465 
 13894      5F696F5F 
 13894      7365746F 
 13894      7074696F 
 13895              	.LASF376:
 13896 0ed4 696F5F69 		.ascii	"io_interface_parameters\000"
 13896      6E746572 
 13896      66616365 
 13896      5F706172 
 13896      616D6574 
 13897              	.LASF357:
 13898 0eec 636F6E66 		.ascii	"config\000"
 13898      696700
 13899              	.LASF155:
 13900 0ef3 696E5F69 		.ascii	"in_iv\000"
 13900      7600
 13901              	.LASF355:
 13902 0ef9 656E7472 		.ascii	"entropy\000"
 13902      6F707900 
 13903              	.LASF51:
 13904 0f01 4D424544 		.ascii	"MBEDTLS_PK_ECKEY\000"
 13904      544C535F 
 13904      504B5F45 
 13904      434B4559 
 13904      00
 13905              	.LASF406:
ARM GAS  C:\Users\Phuong\AppData\Local\Temp\ccP1LXIT.s 			page 276


 13906 0f12 6F707469 		.ascii	"optionName\000"
 13906      6F6E4E61 
 13906      6D6500
 13907              	.LASF261:
 13908 0f1d 6D626564 		.ascii	"mbedtls_entropy_context\000"
 13908      746C735F 
 13908      656E7472 
 13908      6F70795F 
 13908      636F6E74 
 13909              	.LASF387:
 13910 0f35 746C7369 		.ascii	"tlsio_mbedtls_create\000"
 13910      6F5F6D62 
 13910      6564746C 
 13910      735F6372 
 13910      65617465 
 13911              	.LASF35:
 13912 0f4a 4D424544 		.ascii	"MBEDTLS_ECP_DP_SECP256K1\000"
 13912      544C535F 
 13912      4543505F 
 13912      44505F53 
 13912      45435032 
 13913              	.LASF42:
 13914 0f63 4D424544 		.ascii	"MBEDTLS_MD_SHA1\000"
 13914      544C535F 
 13914      4D445F53 
 13914      48413100 
 13915              	.LASF253:
 13916 0f73 69733338 		.ascii	"is384\000"
 13916      3400
 13917              	.LASF435:
 13918 0f79 6D626564 		.ascii	"mbedtls_x509_crt_init\000"
 13918      746C735F 
 13918      78353039 
 13918      5F637274 
 13918      5F696E69 
 13919              	.LASF451:
 13920 0f8f 6D656D6D 		.ascii	"memmove\000"
 13920      6F766500 
 13921              	.LASF105:
 13922 0f97 616C6C6F 		.ascii	"allowed_mds\000"
 13922      7765645F 
 13922      6D647300 
 13923              	.LASF425:
 13924 0fa3 4F505449 		.ascii	"OPTION_ADDRESS_TYPE_IP_SOCKET\000"
 13924      4F4E5F41 
 13924      44445245 
 13924      53535F54 
 13924      5950455F 
 13925              	.LASF297:
 13926 0fc1 4F4E5F49 		.ascii	"ON_IO_OPEN_COMPLETE\000"
 13926      4F5F4F50 
 13926      454E5F43 
 13926      4F4D504C 
 13926      45544500 
 13927              	.LASF185:
 13928 0fd5 73656375 		.ascii	"secure_renegotiation\000"
 13928      72655F72 
ARM GAS  C:\Users\Phuong\AppData\Local\Temp\ccP1LXIT.s 			page 277


 13928      656E6567 
 13928      6F746961 
 13928      74696F6E 
 13929              	.LASF259:
 13930 0fea 74687265 		.ascii	"threshold\000"
 13930      73686F6C 
 13930      6400
 13931              	.LASF53:
 13932 0ff4 4D424544 		.ascii	"MBEDTLS_PK_ECDSA\000"
 13932      544C535F 
 13932      504B5F45 
 13932      43445341 
 13932      00
 13933              	.LASF401:
 13934 1005 746C7369 		.ascii	"tlsio_mbedtls_DestroyOption\000"
 13934      6F5F6D62 
 13934      6564746C 
 13934      735F4465 
 13934      7374726F 
 13935              	.LASF209:
 13936 1021 705F7469 		.ascii	"p_ticket\000"
 13936      636B6574 
 13936      00
 13937              	.LASF0:
 13938 102a 756E7369 		.ascii	"unsigned int\000"
 13938      676E6564 
 13938      20696E74 
 13938      00
 13939              	.LASF248:
 13940 1037 6D626564 		.ascii	"mbedtls_ssl_handshake_params\000"
 13940      746C735F 
 13940      73736C5F 
 13940      68616E64 
 13940      7368616B 
 13941              	.LASF448:
 13942 1054 78696F5F 		.ascii	"xio_create\000"
 13942      63726561 
 13942      746500
 13943              	.LASF427:
 13944 105f 534F434B 		.ascii	"SOCKET_READ_LIMIT\000"
 13944      45545F52 
 13944      4541445F 
 13944      4C494D49 
 13944      5400
 13945              	.LASF72:
 13946 1071 6D626564 		.ascii	"mbedtls_x509_crl_entry\000"
 13946      746C735F 
 13946      78353039 
 13946      5F63726C 
 13946      5F656E74 
 13947              	.LASF36:
 13948 1088 4D424544 		.ascii	"MBEDTLS_ECP_DP_CURVE448\000"
 13948      544C535F 
 13948      4543505F 
 13948      44505F43 
 13948      55525645 
 13949              	.LASF377:
ARM GAS  C:\Users\Phuong\AppData\Local\Temp\ccP1LXIT.s 			page 278


 13950 10a0 6E65775F 		.ascii	"new_socket_io_read_bytes\000"
 13950      736F636B 
 13950      65745F69 
 13950      6F5F7265 
 13950      61645F62 
 13951              	.LASF408:
 13952 10b9 4F505449 		.ascii	"OPTION_HTTP_PROXY\000"
 13952      4F4E5F48 
 13952      5454505F 
 13952      50524F58 
 13952      5900
 13953              	.LASF293:
 13954 10cb 494F5F4F 		.ascii	"IO_OPEN_CANCELLED\000"
 13954      50454E5F 
 13954      43414E43 
 13954      454C4C45 
 13954      4400
 13955              	.LASF255:
 13956 10dd 6D626564 		.ascii	"mbedtls_entropy_source_state\000"
 13956      746C735F 
 13956      656E7472 
 13956      6F70795F 
 13956      736F7572 
 13957              	.LASF151:
 13958 10fa 696E5F62 		.ascii	"in_buf\000"
 13958      756600
 13959              	.LASF64:
 13960 1101 6D626564 		.ascii	"mbedtls_asn1_named_data\000"
 13960      746C735F 
 13960      61736E31 
 13960      5F6E616D 
 13960      65645F64 
 13961              	.LASF68:
 13962 1119 6D626564 		.ascii	"mbedtls_x509_sequence\000"
 13962      746C735F 
 13962      78353039 
 13962      5F736571 
 13962      75656E63 
 13963              	.LASF366:
 13964 112f 636F6E74 		.ascii	"context\000"
 13964      65787400 
 13965              	.LASF198:
 13966 1137 665F736E 		.ascii	"f_sni\000"
 13966      6900
 13967              	.LASF118:
 13968 113d 6D617374 		.ascii	"master\000"
 13968      657200
 13969              	.LASF160:
 13970 1144 696E5F6C 		.ascii	"in_left\000"
 13970      65667400 
 13971              	.LASF338:
 13972 114c 544C5349 		.ascii	"TLSIO_STATE_ERROR\000"
 13972      4F5F5354 
 13972      4154455F 
 13972      4552524F 
 13972      5200
 13973              	.LASF382:
ARM GAS  C:\Users\Phuong\AppData\Local\Temp\ccP1LXIT.s 			page 279


 13974 115e 6F6E5F69 		.ascii	"on_io_send\000"
 13974      6F5F7365 
 13974      6E6400
 13975              	.LASF183:
 13976 1169 636C695F 		.ascii	"cli_id\000"
 13976      696400
 13977              	.LASF103:
 13978 1170 6E735F63 		.ascii	"ns_cert_type\000"
 13978      6572745F 
 13978      74797065 
 13978      00
 13979              	.LASF251:
 13980 117d 746F7461 		.ascii	"total\000"
 13980      6C00
 13981              	.LASF203:
 13982 1183 705F7073 		.ascii	"p_psk\000"
 13982      6B00
 13983              	.LASF272:
 13984 1189 72657365 		.ascii	"reseed_interval\000"
 13984      65645F69 
 13984      6E746572 
 13984      76616C00 
 13985              	.LASF34:
 13986 1199 4D424544 		.ascii	"MBEDTLS_ECP_DP_SECP224K1\000"
 13986      544C535F 
 13986      4543505F 
 13986      44505F53 
 13986      45435032 
 13987              	.LASF249:
 13988 11b2 6D626564 		.ascii	"mbedtls_ssl_key_cert\000"
 13988      746C735F 
 13988      73736C5F 
 13988      6B65795F 
 13988      63657274 
 13989              	.LASF220:
 13990 11c7 70736B5F 		.ascii	"psk_len\000"
 13990      6C656E00 
 13991              	.LASF65:
 13992 11cf 6E657874 		.ascii	"next_merged\000"
 13992      5F6D6572 
 13992      67656400 
 13993              	.LASF117:
 13994 11db 69645F6C 		.ascii	"id_len\000"
 13994      656E00
 13995              	.LASF380:
 13996 11e2 6F6E5F75 		.ascii	"on_underlying_io_bytes_received\000"
 13996      6E646572 
 13996      6C79696E 
 13996      675F696F 
 13996      5F627974 
 13997              	.LASF362:
 13998 1202 696E6469 		.ascii	"indicate_open_complete\000"
 13998      63617465 
 13998      5F6F7065 
 13998      6E5F636F 
 13998      6D706C65 
 13999              	.LASF48:
ARM GAS  C:\Users\Phuong\AppData\Local\Temp\ccP1LXIT.s 			page 280


 14000 1219 6D626564 		.ascii	"mbedtls_md_type_t\000"
 14000      746C735F 
 14000      6D645F74 
 14000      7970655F 
 14000      7400
 14001              	.LASF457:
 14002 122b 6D626564 		.ascii	"mbedtls_ssl_free\000"
 14002      746C735F 
 14002      73736C5F 
 14002      66726565 
 14002      00
 14003              	.LASF52:
 14004 123c 4D424544 		.ascii	"MBEDTLS_PK_ECKEY_DH\000"
 14004      544C535F 
 14004      504B5F45 
 14004      434B4559 
 14004      5F444800 
 14005              	.LASF420:
 14006 1250 4F505449 		.ascii	"OPTION_CURL_VERBOSE\000"
 14006      4F4E5F43 
 14006      55524C5F 
 14006      56455242 
 14006      4F534500 
 14007              	.LASF188:
 14008 1264 70656572 		.ascii	"peer_verify_data\000"
 14008      5F766572 
 14008      6966795F 
 14008      64617461 
 14008      00
 14009              	.LASF375:
 14010 1275 736F636B 		.ascii	"socketio_config\000"
 14010      6574696F 
 14010      5F636F6E 
 14010      66696700 
 14011              	.LASF2:
 14012 1285 6C6F6E67 		.ascii	"long double\000"
 14012      20646F75 
 14012      626C6500 
 14013              	.LASF258:
 14014 1291 73697A65 		.ascii	"size\000"
 14014      00
 14015              	.LASF383:
 14016 1296 746C7369 		.ascii	"tlsio_entropy_poll\000"
 14016      6F5F656E 
 14016      74726F70 
 14016      795F706F 
 14016      6C6C00
 14017              	.LASF429:
 14018 12a9 786C6F67 		.ascii	"xlogging_get_log_function\000"
 14018      67696E67 
 14018      5F676574 
 14018      5F6C6F67 
 14018      5F66756E 
 14019              	.LASF291:
 14020 12c3 494F5F4F 		.ascii	"IO_OPEN_OK\000"
 14020      50454E5F 
 14020      4F4B00
ARM GAS  C:\Users\Phuong\AppData\Local\Temp\ccP1LXIT.s 			page 281


 14021              	.LASF86:
 14022 12ce 7369675F 		.ascii	"sig_md\000"
 14022      6D6400
 14023              	.LASF61:
 14024 12d5 6D626564 		.ascii	"mbedtls_asn1_buf\000"
 14024      746C735F 
 14024      61736E31 
 14024      5F627566 
 14024      00
 14025              	.LASF389:
 14026 12e6 6F6E5F75 		.ascii	"on_underlying_io_error\000"
 14026      6E646572 
 14026      6C79696E 
 14026      675F696F 
 14026      5F657272 
 14027              	.LASF116:
 14028 12fd 636F6D70 		.ascii	"compression\000"
 14028      72657373 
 14028      696F6E00 
 14029              	.LASF411:
 14030 1309 4F505449 		.ascii	"OPTION_OPENSSL_CIPHER_SUITE\000"
 14030      4F4E5F4F 
 14030      50454E53 
 14030      534C5F43 
 14030      49504845 
 14031              	.LASF399:
 14032 1325 68616E64 		.ascii	"handle\000"
 14032      6C6500
 14033              	.LASF476:
 14034 132c 6D626564 		.ascii	"mbedtls_x509_crt_parse\000"
 14034      746C735F 
 14034      78353039 
 14034      5F637274 
 14034      5F706172 
 14035              	.LASF83:
 14036 1343 656E7472 		.ascii	"entry\000"
 14036      7900
 14037              	.LASF289:
 14038 1349 494F5F53 		.ascii	"IO_SEND_RESULT\000"
 14038      454E445F 
 14038      52455355 
 14038      4C5400
 14039              	.LASF273:
 14040 1358 6165735F 		.ascii	"aes_ctx\000"
 14040      63747800 
 14041              	.LASF367:
 14042 1360 6D626564 		.ascii	"mbedtls_init\000"
 14042      746C735F 
 14042      696E6974 
 14042      00
 14043              	.LASF309:
 14044 136d 636F6E63 		.ascii	"concrete_io_retrieveoptions\000"
 14044      72657465 
 14044      5F696F5F 
 14044      72657472 
 14044      69657665 
 14045              	.LASF470:
ARM GAS  C:\Users\Phuong\AppData\Local\Temp\ccP1LXIT.s 			page 282


 14046 1389 4F707469 		.ascii	"OptionHandler_AddOption\000"
 14046      6F6E4861 
 14046      6E646C65 
 14046      725F4164 
 14046      644F7074 
 14047              	.LASF300:
 14048 13a1 494F5F52 		.ascii	"IO_RETRIEVEOPTIONS\000"
 14048      45545249 
 14048      4556454F 
 14048      5054494F 
 14048      4E5300
 14049              	.LASF327:
 14050 13b4 4C4F475F 		.ascii	"LOG_CATEGORY\000"
 14050      43415445 
 14050      474F5259 
 14050      00
 14051              	.LASF75:
 14052 13c1 656E7472 		.ascii	"entry_ext\000"
 14052      795F6578 
 14052      7400
 14053              	.LASF342:
 14054 13cb 6F6E5F62 		.ascii	"on_bytes_received\000"
 14054      79746573 
 14054      5F726563 
 14054      65697665 
 14054      6400
 14055              	.LASF306:
 14056 13dd 494F5F44 		.ascii	"IO_DOWORK\000"
 14056      4F574F52 
 14056      4B00
 14057              	.LASF50:
 14058 13e7 4D424544 		.ascii	"MBEDTLS_PK_RSA\000"
 14058      544C535F 
 14058      504B5F52 
 14058      534100
 14059              	.LASF247:
 14060 13f6 6D626564 		.ascii	"mbedtls_ssl_transform\000"
 14060      746C735F 
 14060      73736C5F 
 14060      7472616E 
 14060      73666F72 
 14061              	.LASF14:
 14062 140c 6C6F6E67 		.ascii	"long long unsigned int\000"
 14062      206C6F6E 
 14062      6720756E 
 14062      7369676E 
 14062      65642069 
 14063              	.LASF396:
 14064 1423 746C7369 		.ascii	"tlsio_mbedtls_destroy\000"
 14064      6F5F6D62 
 14064      6564746C 
 14064      735F6465 
 14064      7374726F 
 14065              	.LASF431:
 14066 1439 6D626564 		.ascii	"mbedtls_ctr_drbg_init\000"
 14066      746C735F 
 14066      6374725F 
ARM GAS  C:\Users\Phuong\AppData\Local\Temp\ccP1LXIT.s 			page 283


 14066      64726267 
 14066      5F696E69 
 14067              	.LASF326:
 14068 144f 415A5F4C 		.ascii	"AZ_LOG_TRACE\000"
 14068      4F475F54 
 14068      52414345 
 14068      00
 14069              	.LASF267:
 14070 145c 6D626564 		.ascii	"mbedtls_ctr_drbg_context\000"
 14070      746C735F 
 14070      6374725F 
 14070      64726267 
 14070      5F636F6E 
 14071              	.LASF18:
 14072 1475 75696E74 		.ascii	"uint16_t\000"
 14072      31365F74 
 14072      00
 14073              	.LASF82:
 14074 147e 6E657874 		.ascii	"next_update\000"
 14074      5F757064 
 14074      61746500 
 14075              	.LASF235:
 14076 148a 656E6470 		.ascii	"endpoint\000"
 14076      6F696E74 
 14076      00
 14077              	.LASF123:
 14078 1493 7469636B 		.ascii	"ticket_lifetime\000"
 14078      65745F6C 
 14078      69666574 
 14078      696D6500 
 14079              	.LASF434:
 14080 14a3 6D626564 		.ascii	"mbedtls_ssl_config_init\000"
 14080      746C735F 
 14080      73736C5F 
 14080      636F6E66 
 14080      69675F69 
 14081              	.LASF430:
 14082 14bb 6D626564 		.ascii	"mbedtls_entropy_init\000"
 14082      746C735F 
 14082      656E7472 
 14082      6F70795F 
 14082      696E6974 
 14083              	.LASF477:
 14084 14d0 6D626564 		.ascii	"mbedtls_ssl_conf_ca_chain\000"
 14084      746C735F 
 14084      73736C5F 
 14084      636F6E66 
 14084      5F63615F 
 14085              	.LASF138:
 14086 14ea 705F6269 		.ascii	"p_bio\000"
 14086      6F00
 14087              	.LASF27:
 14088 14f0 4D424544 		.ascii	"MBEDTLS_ECP_DP_SECP384R1\000"
 14088      544C535F 
 14088      4543505F 
 14088      44505F53 
 14088      45435033 
ARM GAS  C:\Users\Phuong\AppData\Local\Temp\ccP1LXIT.s 			page 284


 14089              	.LASF22:
 14090 1509 6D626564 		.ascii	"mbedtls_mpi\000"
 14090      746C735F 
 14090      6D706900 
 14091              	.LASF226:
 14092 1515 68735F74 		.ascii	"hs_timeout_max\000"
 14092      696D656F 
 14092      75745F6D 
 14092      617800
 14093              	.LASF74:
 14094 1524 7265766F 		.ascii	"revocation_date\000"
 14094      63617469 
 14094      6F6E5F64 
 14094      61746500 
 14095              	.LASF415:
 14096 1534 4F505449 		.ascii	"OPTION_X509_ECC_KEY\000"
 14096      4F4E5F58 
 14096      3530395F 
 14096      4543435F 
 14096      4B455900 
 14097              	.LASF433:
 14098 1548 6D626564 		.ascii	"mbedtls_ssl_session_init\000"
 14098      746C735F 
 14098      73736C5F 
 14098      73657373 
 14098      696F6E5F 
 14099              	.LASF111:
 14100 1561 6D626564 		.ascii	"mbedtls_ssl_recv_timeout_t\000"
 14100      746C735F 
 14100      73736C5F 
 14100      72656376 
 14100      5F74696D 
 14101              	.LASF149:
 14102 157c 665F7365 		.ascii	"f_set_timer\000"
 14102      745F7469 
 14102      6D657200 
 14103              	.LASF286:
 14104 1588 494F5F53 		.ascii	"IO_SEND_OK\000"
 14104      454E445F 
 14104      4F4B00
 14105              	.LASF172:
 14106 1593 6F75745F 		.ascii	"out_len\000"
 14106      6C656E00 
 14107              	.LASF206:
 14108 159b 705F636F 		.ascii	"p_cookie\000"
 14108      6F6B6965 
 14108      00
 14109              	.LASF219:
 14110 15a4 64686D5F 		.ascii	"dhm_G\000"
 14110      4700
 14111              	.LASF184:
 14112 15aa 636C695F 		.ascii	"cli_id_len\000"
 14112      69645F6C 
 14112      656E00
 14113              	.LASF156:
 14114 15b5 696E5F6D 		.ascii	"in_msg\000"
 14114      736700
ARM GAS  C:\Users\Phuong\AppData\Local\Temp\ccP1LXIT.s 			page 285


 14115              	.LASF96:
 14116 15bc 76335F65 		.ascii	"v3_ext\000"
 14116      787400
 14117              	.LASF81:
 14118 15c3 74686973 		.ascii	"this_update\000"
 14118      5F757064 
 14118      61746500 
 14119              	.LASF218:
 14120 15cf 64686D5F 		.ascii	"dhm_P\000"
 14120      5000
 14121              	.LASF108:
 14122 15d5 7273615F 		.ascii	"rsa_min_bitlen\000"
 14122      6D696E5F 
 14122      6269746C 
 14122      656E00
 14123              	.LASF467:
 14124 15e4 6D626564 		.ascii	"mbedtls_ssl_write\000"
 14124      746C735F 
 14124      73736C5F 
 14124      77726974 
 14124      6500
 14125              	.LASF298:
 14126 15f6 4F4E5F49 		.ascii	"ON_IO_CLOSE_COMPLETE\000"
 14126      4F5F434C 
 14126      4F53455F 
 14126      434F4D50 
 14126      4C455445 
 14127              	.LASF363:
 14128 160b 746C735F 		.ascii	"tls_io_instance\000"
 14128      696F5F69 
 14128      6E737461 
 14128      6E636500 
 14129              	.LASF330:
 14130 161b 61636365 		.ascii	"accepted_socket\000"
 14130      70746564 
 14130      5F736F63 
 14130      6B657400 
 14131              	.LASF124:
 14132 162b 6D666C5F 		.ascii	"mfl_code\000"
 14132      636F6465 
 14132      00
 14133              	.LASF381:
 14134 1634 6F6E5F69 		.ascii	"on_io_recv\000"
 14134      6F5F7265 
 14134      637600
 14135              	.LASF181:
 14136 163f 686F7374 		.ascii	"hostname\000"
 14136      6E616D65 
 14136      00
 14137              	.LASF386:
 14138 1648 746C735F 		.ascii	"tls_io\000"
 14138      696F00
 14139              	.LASF77:
 14140 164f 76657273 		.ascii	"version\000"
 14140      696F6E00 
 14141              	.LASF125:
 14142 1657 7472756E 		.ascii	"trunc_hmac\000"
ARM GAS  C:\Users\Phuong\AppData\Local\Temp\ccP1LXIT.s 			page 286


 14142      635F686D 
 14142      616300
 14143              	.LASF205:
 14144 1662 665F636F 		.ascii	"f_cookie_check\000"
 14144      6F6B6965 
 14144      5F636865 
 14144      636B00
 14145              	.LASF43:
 14146 1671 4D424544 		.ascii	"MBEDTLS_MD_SHA224\000"
 14146      544C535F 
 14146      4D445F53 
 14146      48413232 
 14146      3400
 14147              	.LASF97:
 14148 1683 7375626A 		.ascii	"subject_alt_names\000"
 14148      6563745F 
 14148      616C745F 
 14148      6E616D65 
 14148      7300
 14149              	.LASF132:
 14150 1695 6D616A6F 		.ascii	"major_ver\000"
 14150      725F7665 
 14150      7200
 14151              	.LASF301:
 14152 169f 494F5F43 		.ascii	"IO_CREATE\000"
 14152      52454154 
 14152      4500
 14153              	.LASF152:
 14154 16a9 696E5F63 		.ascii	"in_ctr\000"
 14154      747200
 14155              	.LASF26:
 14156 16b0 4D424544 		.ascii	"MBEDTLS_ECP_DP_SECP256R1\000"
 14156      544C535F 
 14156      4543505F 
 14156      44505F53 
 14156      45435032 
 14157              	.LASF87:
 14158 16c9 7369675F 		.ascii	"sig_pk\000"
 14158      706B00
 14159              	.LASF412:
 14160 16d0 53555F4F 		.ascii	"SU_OPTION_X509_CERT\000"
 14160      5054494F 
 14160      4E5F5835 
 14160      30395F43 
 14160      45525400 
 14161              	.LASF276:
 14162 16e4 4F505449 		.ascii	"OPTIONHANDLER_OK\000"
 14162      4F4E4841 
 14162      4E444C45 
 14162      525F4F4B 
 14162      00
 14163              	.LASF318:
 14164 16f5 544C5349 		.ascii	"TLSIO_CONFIG_TAG\000"
 14164      4F5F434F 
 14164      4E464947 
 14164      5F544147 
 14164      00
ARM GAS  C:\Users\Phuong\AppData\Local\Temp\ccP1LXIT.s 			page 287


 14165              	.LASF354:
 14166 1706 6F6E5F73 		.ascii	"on_send_complete_callback_context\000"
 14166      656E645F 
 14166      636F6D70 
 14166      6C657465 
 14166      5F63616C 
 14167              	.LASF455:
 14168 1728 74696D65 		.ascii	"time\000"
 14168      00
 14169              	.LASF95:
 14170 172d 7375626A 		.ascii	"subject_id\000"
 14170      6563745F 
 14170      696400
 14171              	.LASF260:
 14172 1738 7374726F 		.ascii	"strong\000"
 14172      6E6700
 14173              	.LASF28:
 14174 173f 4D424544 		.ascii	"MBEDTLS_ECP_DP_SECP521R1\000"
 14174      544C535F 
 14174      4543505F 
 14174      44505F53 
 14174      45435035 
 14175              	.LASF410:
 14176 1758 4F505449 		.ascii	"OPTION_TRUSTED_CERT\000"
 14176      4F4E5F54 
 14176      52555354 
 14176      45445F43 
 14176      45525400 
 14177              	.LASF146:
 14178 176c 7472616E 		.ascii	"transform\000"
 14178      73666F72 
 14178      6D00
 14179              	.LASF229:
 14180 1776 6261646D 		.ascii	"badmac_limit\000"
 14180      61635F6C 
 14180      696D6974 
 14180      00
 14181              	.LASF299:
 14182 1783 4F4E5F49 		.ascii	"ON_IO_ERROR\000"
 14182      4F5F4552 
 14182      524F5200 
 14183              	.LASF242:
 14184 178f 6362635F 		.ascii	"cbc_record_splitting\000"
 14184      7265636F 
 14184      72645F73 
 14184      706C6974 
 14184      74696E67 
 14185              	.LASF307:
 14186 17a4 494F5F53 		.ascii	"IO_SETOPTION\000"
 14186      45544F50 
 14186      54494F4E 
 14186      00
 14187              	.LASF285:
 14188 17b1 494F5F53 		.ascii	"IO_SEND_RESULT_TAG\000"
 14188      454E445F 
 14188      52455355 
 14188      4C545F54 
ARM GAS  C:\Users\Phuong\AppData\Local\Temp\ccP1LXIT.s 			page 288


 14188      414700
 14189              	.LASF441:
 14190 17c4 6D626564 		.ascii	"mbedtls_ssl_conf_min_version\000"
 14190      746C735F 
 14190      73736C5F 
 14190      636F6E66 
 14190      5F6D696E 
 14191              	.LASF370:
 14192 17e1 70657273 		.ascii	"pers\000"
 14192      00
 14193              	.LASF437:
 14194 17e6 6D626564 		.ascii	"mbedtls_ctr_drbg_seed\000"
 14194      746C735F 
 14194      6374725F 
 14194      64726267 
 14194      5F736565 
 14195              	.LASF222:
 14196 17fc 70736B5F 		.ascii	"psk_identity_len\000"
 14196      6964656E 
 14196      74697479 
 14196      5F6C656E 
 14196      00
 14197              	.LASF212:
 14198 180d 63657274 		.ascii	"cert_profile\000"
 14198      5F70726F 
 14198      66696C65 
 14198      00
 14199              	.LASF369:
 14200 181a 686F7374 		.ascii	"host\000"
 14200      00
 14201              	.LASF91:
 14202 181f 7375626A 		.ascii	"subject\000"
 14202      65637400 
 14203              	.LASF93:
 14204 1827 76616C69 		.ascii	"valid_to\000"
 14204      645F746F 
 14204      00
 14205              	.LASF402:
 14206 1830 6E616D65 		.ascii	"name\000"
 14206      00
 14207              	.LASF319:
 14208 1835 706F7274 		.ascii	"port\000"
 14208      00
 14209              	.LASF126:
 14210 183a 656E6372 		.ascii	"encrypt_then_mac\000"
 14210      7970745F 
 14210      7468656E 
 14210      5F6D6163 
 14210      00
 14211              	.LASF419:
 14212 184b 4F505449 		.ascii	"OPTION_CURL_FORBID_REUSE\000"
 14212      4F4E5F43 
 14212      55524C5F 
 14212      464F5242 
 14212      49445F52 
 14213              	.LASF294:
 14214 1864 494F5F4F 		.ascii	"IO_OPEN_RESULT\000"
ARM GAS  C:\Users\Phuong\AppData\Local\Temp\ccP1LXIT.s 			page 289


 14214      50454E5F 
 14214      52455355 
 14214      4C5400
 14215              	.LASF404:
 14216 1873 746C7369 		.ascii	"tlsio_mbedtls_CloneOption\000"
 14216      6F5F6D62 
 14216      6564746C 
 14216      735F436C 
 14216      6F6E654F 
 14217              	.LASF7:
 14218 188d 73686F72 		.ascii	"short int\000"
 14218      7420696E 
 14218      7400
 14219              	.LASF23:
 14220 1897 4D424544 		.ascii	"MBEDTLS_ECP_DP_NONE\000"
 14220      544C535F 
 14220      4543505F 
 14220      44505F4E 
 14220      4F4E4500 
 14221              	.LASF231:
 14222 18ab 6D61785F 		.ascii	"max_major_ver\000"
 14222      6D616A6F 
 14222      725F7665 
 14222      7200
 14223              	.LASF20:
 14224 18b9 75696E74 		.ascii	"uint64_t\000"
 14224      36345F74 
 14224      00
 14225              	.LASF189:
 14226 18c2 6D626564 		.ascii	"mbedtls_ssl_config\000"
 14226      746C735F 
 14226      73736C5F 
 14226      636F6E66 
 14226      696700
 14227              	.LASF263:
 14228 18d5 61636375 		.ascii	"accumulator\000"
 14228      6D756C61 
 14228      746F7200 
 14229              	.LASF312:
 14230 18e1 636F6E63 		.ascii	"concrete_io_open\000"
 14230      72657465 
 14230      5F696F5F 
 14230      6F70656E 
 14230      00
 14231              	.LASF466:
 14232 18f2 6D626564 		.ascii	"mbedtls_ssl_close_notify\000"
 14232      746C735F 
 14232      73736C5F 
 14232      636C6F73 
 14232      655F6E6F 
 14233              	.LASF413:
 14234 190b 53555F4F 		.ascii	"SU_OPTION_X509_PRIVATE_KEY\000"
 14234      5054494F 
 14234      4E5F5835 
 14234      30395F50 
 14234      52495641 
 14235              	.LASF240:
ARM GAS  C:\Users\Phuong\AppData\Local\Temp\ccP1LXIT.s 			page 290


 14236 1926 65787465 		.ascii	"extended_ms\000"
 14236      6E646564 
 14236      5F6D7300 
 14237              	.LASF281:
 14238 1932 58494F5F 		.ascii	"XIO_HANDLE\000"
 14238      48414E44 
 14238      4C4500
 14239              	.LASF120:
 14240 193d 76657269 		.ascii	"verify_result\000"
 14240      66795F72 
 14240      6573756C 
 14240      7400
 14241              	.LASF239:
 14242 194b 61726334 		.ascii	"arc4_disabled\000"
 14242      5F646973 
 14242      61626C65 
 14242      6400
 14243              	.LASF25:
 14244 1959 4D424544 		.ascii	"MBEDTLS_ECP_DP_SECP224R1\000"
 14244      544C535F 
 14244      4543505F 
 14244      44505F53 
 14244      45435032 
 14245              	.LASF194:
 14246 1972 705F726E 		.ascii	"p_rng\000"
 14246      6700
 14247              	.LASF217:
 14248 1978 63757276 		.ascii	"curve_list\000"
 14248      655F6C69 
 14248      737400
 14249              	.LASF460:
 14250 1983 6D626564 		.ascii	"mbedtls_ctr_drbg_free\000"
 14250      746C735F 
 14250      6374725F 
 14250      64726267 
 14250      5F667265 
 14251              	.LASF213:
 14252 1999 6B65795F 		.ascii	"key_cert\000"
 14252      63657274 
 14252      00
 14253              	.LASF324:
 14254 19a2 415A5F4C 		.ascii	"AZ_LOG_ERROR\000"
 14254      4F475F45 
 14254      52524F52 
 14254      00
 14255              	.LASF44:
 14256 19af 4D424544 		.ascii	"MBEDTLS_MD_SHA256\000"
 14256      544C535F 
 14256      4D445F53 
 14256      48413235 
 14256      3600
 14257              	.LASF321:
 14258 19c1 756E6465 		.ascii	"underlying_io_parameters\000"
 14258      726C7969 
 14258      6E675F69 
 14258      6F5F7061 
 14258      72616D65 
ARM GAS  C:\Users\Phuong\AppData\Local\Temp\ccP1LXIT.s 			page 291


 14259              	.LASF453:
 14260 19da 78696F5F 		.ascii	"xio_send\000"
 14260      73656E64 
 14260      00
 14261              	.LASF38:
 14262 19e3 4D424544 		.ascii	"MBEDTLS_MD_NONE\000"
 14262      544C535F 
 14262      4D445F4E 
 14262      4F4E4500 
 14263              	.LASF187:
 14264 19f3 6F776E5F 		.ascii	"own_verify_data\000"
 14264      76657269 
 14264      66795F64 
 14264      61746100 
 14265              	.LASF315:
 14266 1a03 636F6E63 		.ascii	"concrete_io_dowork\000"
 14266      72657465 
 14266      5F696F5F 
 14266      646F776F 
 14266      726B00
 14267              	.LASF94:
 14268 1a16 69737375 		.ascii	"issuer_id\000"
 14268      65725F69 
 14268      6400
 14269              	.LASF71:
 14270 1a20 686F7572 		.ascii	"hour\000"
 14270      00
 14271              	.LASF458:
 14272 1a25 6D626564 		.ascii	"mbedtls_ssl_config_free\000"
 14272      746C735F 
 14272      73736C5F 
 14272      636F6E66 
 14272      69675F66 
 14273              	.LASF284:
 14274 1a3d 4F505449 		.ascii	"OPTIONHANDLER_RESULT_TAG\000"
 14274      4F4E4841 
 14274      4E444C45 
 14274      525F5245 
 14274      53554C54 
 14275              	.LASF234:
 14276 1a56 6D696E5F 		.ascii	"min_minor_ver\000"
 14276      6D696E6F 
 14276      725F7665 
 14276      7200
 14277              	.LASF456:
 14278 1a64 7372616E 		.ascii	"srand\000"
 14278      6400
 14279              	.LASF238:
 14280 1a6a 616C6C6F 		.ascii	"allow_legacy_renegotiation\000"
 14280      775F6C65 
 14280      67616379 
 14280      5F72656E 
 14280      65676F74 
 14281              	.LASF122:
 14282 1a85 7469636B 		.ascii	"ticket_len\000"
 14282      65745F6C 
 14282      656E00
ARM GAS  C:\Users\Phuong\AppData\Local\Temp\ccP1LXIT.s 			page 292


 14283              	.LASF475:
 14284 1a90 7374726C 		.ascii	"strlen\000"
 14284      656E00
 14285              	.LASF331:
 14286 1a97 534F434B 		.ascii	"SOCKETIO_CONFIG\000"
 14286      4554494F 
 14286      5F434F4E 
 14286      46494700 
 14287              	.LASF154:
 14288 1aa7 696E5F6C 		.ascii	"in_len\000"
 14288      656E00
 14289              	.LASF483:
 14290 1aae 6D656D63 		.ascii	"memcpy\000"
 14290      707900
 14291              	.LASF481:
 14292 1ab5 433A5C55 		.ascii	"C:\\Users\\Phuong\\Documents\\PSoC Creator\\Dec0820"
 14292      73657273 
 14292      5C506875 
 14292      6F6E675C 
 14292      446F6375 
 14293 1ae3 31385C69 		.ascii	"18\\iot-sdk-iot-dev\\PSOC6_FreeRTOS+LwIP+MbedTLS_Az"
 14293      6F742D73 
 14293      646B2D69 
 14293      6F742D64 
 14293      65765C50 
 14294 1b14 7572652D 		.ascii	"ure-IOT-Hub-Demo\\PSOC6_FreeRTOS+LwIP+MbedTLS_Azure"
 14294      494F542D 
 14294      4875622D 
 14294      44656D6F 
 14294      5C50534F 
 14295 1b46 2D494F54 		.ascii	"-IOT-Hub-Demo.cydsn\000"
 14295      2D487562 
 14295      2D44656D 
 14295      6F2E6379 
 14295      64736E00 
 14296              	.LASF167:
 14297 1b5a 6B656570 		.ascii	"keep_current_message\000"
 14297      5F637572 
 14297      72656E74 
 14297      5F6D6573 
 14297      73616765 
 14298              	.LASF171:
 14299 1b6f 6F75745F 		.ascii	"out_hdr\000"
 14299      68647200 
 14300              	.LASF197:
 14301 1b77 705F6361 		.ascii	"p_cache\000"
 14301      63686500 
 14302              	.LASF33:
 14303 1b7f 4D424544 		.ascii	"MBEDTLS_ECP_DP_SECP192K1\000"
 14303      544C535F 
 14303      4543505F 
 14303      44505F53 
 14303      45435031 
 14304              	.LASF279:
 14305 1b98 4F505449 		.ascii	"OPTIONHANDLER_HANDLE\000"
 14305      4F4E4841 
 14305      4E444C45 
ARM GAS  C:\Users\Phuong\AppData\Local\Temp\ccP1LXIT.s 			page 293


 14305      525F4841 
 14305      4E444C45 
 14306              	.LASF482:
 14307 1bad 746C7369 		.ascii	"tlsio_mbedtls_get_interface_description\000"
 14307      6F5F6D62 
 14307      6564746C 
 14307      735F6765 
 14307      745F696E 
 14308              	.LASF161:
 14309 1bd5 696E5F65 		.ascii	"in_epoch\000"
 14309      706F6368 
 14309      00
 14310              	.LASF19:
 14311 1bde 75696E74 		.ascii	"uint32_t\000"
 14311      33325F74 
 14311      00
 14312              	.LASF190:
 14313 1be7 63697068 		.ascii	"ciphersuite_list\000"
 14313      65727375 
 14313      6974655F 
 14313      6C697374 
 14313      00
 14314              	.LASF333:
 14315 1bf8 544C5349 		.ascii	"TLSIO_STATE_NOT_OPEN\000"
 14315      4F5F5354 
 14315      4154455F 
 14315      4E4F545F 
 14315      4F50454E 
 14316              	.LASF343:
 14317 1c0d 6F6E5F69 		.ascii	"on_io_open_complete\000"
 14317      6F5F6F70 
 14317      656E5F63 
 14317      6F6D706C 
 14317      65746500 
 14318              	.LASF398:
 14319 1c21 746C7369 		.ascii	"tlsio_mbedtls_retrieveoptions\000"
 14319      6F5F6D62 
 14319      6564746C 
 14319      735F7265 
 14319      74726965 
 14320              	.LASF416:
 14321 1c3f 4F505449 		.ascii	"OPTION_CURL_LOW_SPEED_LIMIT\000"
 14321      4F4E5F43 
 14321      55524C5F 
 14321      4C4F575F 
 14321      53504545 
 14322              	.LASF101:
 14323 1c5b 6B65795F 		.ascii	"key_usage\000"
 14323      75736167 
 14323      6500
 14324              	.LASF207:
 14325 1c65 665F7469 		.ascii	"f_ticket_write\000"
 14325      636B6574 
 14325      5F777269 
 14325      746500
 14326              	.LASF127:
 14327 1c74 6D626564 		.ascii	"mbedtls_ssl_context\000"
ARM GAS  C:\Users\Phuong\AppData\Local\Temp\ccP1LXIT.s 			page 294


 14327      746C735F 
 14327      73736C5F 
 14327      636F6E74 
 14327      65787400 
 14328              	.LASF144:
 14329 1c88 7472616E 		.ascii	"transform_in\000"
 14329      73666F72 
 14329      6D5F696E 
 14329      00
 14330              	.LASF288:
 14331 1c95 494F5F53 		.ascii	"IO_SEND_CANCELLED\000"
 14331      454E445F 
 14331      43414E43 
 14331      454C4C45 
 14331      4400
 14332              	.LASF310:
 14333 1ca7 636F6E63 		.ascii	"concrete_io_create\000"
 14333      72657465 
 14333      5F696F5F 
 14333      63726561 
 14333      746500
 14334              	.LASF447:
 14335 1cba 66726565 		.ascii	"free\000"
 14335      00
 14336              	.LASF353:
 14337 1cbf 6F6E5F73 		.ascii	"on_send_complete\000"
 14337      656E645F 
 14337      636F6D70 
 14337      6C657465 
 14337      00
 14338              	.LASF233:
 14339 1cd0 6D696E5F 		.ascii	"min_major_ver\000"
 14339      6D616A6F 
 14339      725F7665 
 14339      7200
 14340              	.LASF9:
 14341 1cde 73686F72 		.ascii	"short unsigned int\000"
 14341      7420756E 
 14341      7369676E 
 14341      65642069 
 14341      6E7400
 14342              	.LASF421:
 14343 1cf1 4F505449 		.ascii	"OPTION_NET_INT_MAC_ADDRESS\000"
 14343      4F4E5F4E 
 14343      45545F49 
 14343      4E545F4D 
 14343      41435F41 
 14344              	.LASF339:
 14345 1d0c 544C5349 		.ascii	"TLSIO_STATE_ENUM\000"
 14345      4F5F5354 
 14345      4154455F 
 14345      454E554D 
 14345      00
 14346              	.LASF241:
 14347 1d1d 616E7469 		.ascii	"anti_replay\000"
 14347      5F726570 
 14347      6C617900 
ARM GAS  C:\Users\Phuong\AppData\Local\Temp\ccP1LXIT.s 			page 295


 14348              	.LASF468:
 14349 1d29 6D626564 		.ascii	"mbedtls_ssl_read\000"
 14349      746C735F 
 14349      73736C5F 
 14349      72656164 
 14349      00
 14350              	.LASF62:
 14351 1d3a 6D626564 		.ascii	"mbedtls_asn1_sequence\000"
 14351      746C735F 
 14351      61736E31 
 14351      5F736571 
 14351      75656E63 
 14352              	.LASF348:
 14353 1d50 6F6E5F69 		.ascii	"on_io_close_complete_context\000"
 14353      6F5F636C 
 14353      6F73655F 
 14353      636F6D70 
 14353      6C657465 
 14354              	.LASF166:
 14355 1d6d 6E625F7A 		.ascii	"nb_zero\000"
 14355      65726F00 
 14356              	.LASF480:
 14357 1d75 536F7572 		.ascii	"Source\\azure_iot_sdk\\c-utility\\adapters\\tlsio_m"
 14357      63655C61 
 14357      7A757265 
 14357      5F696F74 
 14357      5F73646B 
 14358 1da4 62656474 		.ascii	"bedtls.c\000"
 14358      6C732E63 
 14358      00
 14359              	.LASF317:
 14360 1dad 494F5F49 		.ascii	"IO_INTERFACE_DESCRIPTION\000"
 14360      4E544552 
 14360      46414345 
 14360      5F444553 
 14360      43524950 
 14361              	.LASF269:
 14362 1dc6 72657365 		.ascii	"reseed_counter\000"
 14362      65645F63 
 14362      6F756E74 
 14362      657200
 14363              	.LASF332:
 14364 1dd5 544C5349 		.ascii	"TLSIO_STATE_ENUM_TAG\000"
 14364      4F5F5354 
 14364      4154455F 
 14364      454E554D 
 14364      5F544147 
 14365              	.LASF341:
 14366 1dea 736F636B 		.ascii	"socket_io\000"
 14366      65745F69 
 14366      6F00
 14367              	.LASF464:
 14368 1df4 78696F5F 		.ascii	"xio_close\000"
 14368      636C6F73 
 14368      6500
 14369              	.LASF244:
 14370 1dfe 73657373 		.ascii	"session_tickets\000"
ARM GAS  C:\Users\Phuong\AppData\Local\Temp\ccP1LXIT.s 			page 296


 14370      696F6E5F 
 14370      7469636B 
 14370      65747300 
 14371              	.LASF225:
 14372 1e0e 68735F74 		.ascii	"hs_timeout_min\000"
 14372      696D656F 
 14372      75745F6D 
 14372      696E00
 14373              	.LASF292:
 14374 1e1d 494F5F4F 		.ascii	"IO_OPEN_ERROR\000"
 14374      50454E5F 
 14374      4552524F 
 14374      5200
 14375              	.LASF63:
 14376 1e2b 6E657874 		.ascii	"next\000"
 14376      00
 14377              	.LASF443:
 14378 1e30 6D626564 		.ascii	"mbedtls_ssl_set_hostname\000"
 14378      746C735F 
 14378      73736C5F 
 14378      7365745F 
 14378      686F7374 
 14379              	.LASF274:
 14380 1e49 665F656E 		.ascii	"f_entropy\000"
 14380      74726F70 
 14380      7900
 14381              	.LASF66:
 14382 1e53 6D626564 		.ascii	"mbedtls_x509_buf\000"
 14382      746C735F 
 14382      78353039 
 14382      5F627566 
 14382      00
 14383              	.LASF474:
 14384 1e64 6D616C6C 		.ascii	"mallocAndStrcpy_s\000"
 14384      6F63416E 
 14384      64537472 
 14384      6370795F 
 14384      7300
 14385              	.LASF57:
 14386 1e76 6D626564 		.ascii	"mbedtls_pk_info_t\000"
 14386      746C735F 
 14386      706B5F69 
 14386      6E666F5F 
 14386      7400
 14387              	.LASF371:
 14388 1e88 696F5F63 		.ascii	"io_create_parameters\000"
 14388      72656174 
 14388      655F7061 
 14388      72616D65 
 14388      74657273 
 14389              		.ident	"GCC: (GNU Tools for ARM Embedded Processors) 5.4.1 20160609 (release) [ARM/embedded-5-bran
