ARM GAS  C:\Users\Phuong\AppData\Local\Temp\ccP1LXIT.s 			page 1


   1              		.syntax unified
   2              		.cpu cortex-m0plus
   3              		.fpu softvfp
   4              		.eabi_attribute 20, 1
   5              		.eabi_attribute 21, 1
   6              		.eabi_attribute 23, 3
   7              		.eabi_attribute 24, 1
   8              		.eabi_attribute 25, 1
   9              		.eabi_attribute 26, 1
  10              		.eabi_attribute 30, 1
  11              		.eabi_attribute 34, 0
  12              		.eabi_attribute 18, 4
  13              		.thumb
  14              		.syntax unified
  15              		.file	"tlsio_mbedtls.c"
  16              		.text
  17              	.Ltext0:
  18              		.cfi_sections	.debug_frame
  19              		.section	.text.indicate_error,"ax",%progbits
  20              		.align	2
  21              		.code	16
  22              		.thumb_func
  23              		.type	indicate_error, %function
  24              	indicate_error:
  25              	.LFB18:
  26              		.file 1 "Source\\azure_iot_sdk\\c-utility\\adapters\\tlsio_mbedtls.c"
   1:Source\azure_iot_sdk\c-utility\adapters/tlsio_mbedtls.c **** // Copyright (c) Microsoft. All rights reserved.
   2:Source\azure_iot_sdk\c-utility\adapters/tlsio_mbedtls.c **** // Licensed under the MIT license. See LICENSE file in the project root for full license informatio
   3:Source\azure_iot_sdk\c-utility\adapters/tlsio_mbedtls.c **** 
   4:Source\azure_iot_sdk\c-utility\adapters/tlsio_mbedtls.c **** // DEPRECATED: the USE_MBED_TLS #define is deprecated.
   5:Source\azure_iot_sdk\c-utility\adapters/tlsio_mbedtls.c **** #define USE_MBED_TLS
   6:Source\azure_iot_sdk\c-utility\adapters/tlsio_mbedtls.c **** #ifdef USE_MBED_TLS
   7:Source\azure_iot_sdk\c-utility\adapters/tlsio_mbedtls.c **** 
   8:Source\azure_iot_sdk\c-utility\adapters/tlsio_mbedtls.c **** #include <stdlib.h>
   9:Source\azure_iot_sdk\c-utility\adapters/tlsio_mbedtls.c **** #include <stdint.h>
  10:Source\azure_iot_sdk\c-utility\adapters/tlsio_mbedtls.c **** #include <stdio.h>
  11:Source\azure_iot_sdk\c-utility\adapters/tlsio_mbedtls.c **** #include <stdbool.h>
  12:Source\azure_iot_sdk\c-utility\adapters/tlsio_mbedtls.c **** #include <string.h>
  13:Source\azure_iot_sdk\c-utility\adapters/tlsio_mbedtls.c **** 
  14:Source\azure_iot_sdk\c-utility\adapters/tlsio_mbedtls.c **** #ifdef TIZENRT
  15:Source\azure_iot_sdk\c-utility\adapters/tlsio_mbedtls.c **** #include "tls/config.h"
  16:Source\azure_iot_sdk\c-utility\adapters/tlsio_mbedtls.c **** #include "tls/debug.h"
  17:Source\azure_iot_sdk\c-utility\adapters/tlsio_mbedtls.c **** #include "tls/ssl.h"
  18:Source\azure_iot_sdk\c-utility\adapters/tlsio_mbedtls.c **** #include "tls/entropy.h"
  19:Source\azure_iot_sdk\c-utility\adapters/tlsio_mbedtls.c **** #include "tls/ctr_drbg.h"
  20:Source\azure_iot_sdk\c-utility\adapters/tlsio_mbedtls.c **** #include "tls/error.h"
  21:Source\azure_iot_sdk\c-utility\adapters/tlsio_mbedtls.c **** #include "tls/certs.h"
  22:Source\azure_iot_sdk\c-utility\adapters/tlsio_mbedtls.c **** #include "tls/entropy_poll.h"
  23:Source\azure_iot_sdk\c-utility\adapters/tlsio_mbedtls.c **** #else
  24:Source\azure_iot_sdk\c-utility\adapters/tlsio_mbedtls.c **** #include "mbedtls/config.h"
  25:Source\azure_iot_sdk\c-utility\adapters/tlsio_mbedtls.c **** #include "mbedtls/debug.h"
  26:Source\azure_iot_sdk\c-utility\adapters/tlsio_mbedtls.c **** #include "mbedtls/ssl.h"
  27:Source\azure_iot_sdk\c-utility\adapters/tlsio_mbedtls.c **** #include "mbedtls/entropy.h"
  28:Source\azure_iot_sdk\c-utility\adapters/tlsio_mbedtls.c **** #include "mbedtls/ctr_drbg.h"
  29:Source\azure_iot_sdk\c-utility\adapters/tlsio_mbedtls.c **** #include "mbedtls/error.h"
  30:Source\azure_iot_sdk\c-utility\adapters/tlsio_mbedtls.c **** #include "mbedtls/certs.h"
  31:Source\azure_iot_sdk\c-utility\adapters/tlsio_mbedtls.c **** #include "mbedtls/entropy_poll.h"
ARM GAS  C:\Users\Phuong\AppData\Local\Temp\ccP1LXIT.s 			page 2


  32:Source\azure_iot_sdk\c-utility\adapters/tlsio_mbedtls.c **** #endif
  33:Source\azure_iot_sdk\c-utility\adapters/tlsio_mbedtls.c **** 
  34:Source\azure_iot_sdk\c-utility\adapters/tlsio_mbedtls.c **** #include "azure_c_shared_utility/gballoc.h"
  35:Source\azure_iot_sdk\c-utility\adapters/tlsio_mbedtls.c **** #include "azure_c_shared_utility/optimize_size.h"
  36:Source\azure_iot_sdk\c-utility\adapters/tlsio_mbedtls.c **** #include "azure_c_shared_utility/tlsio.h"
  37:Source\azure_iot_sdk\c-utility\adapters/tlsio_mbedtls.c **** #include "azure_c_shared_utility/tlsio_mbedtls.h"
  38:Source\azure_iot_sdk\c-utility\adapters/tlsio_mbedtls.c **** #include "azure_c_shared_utility/socketio.h"
  39:Source\azure_iot_sdk\c-utility\adapters/tlsio_mbedtls.c **** #include "azure_c_shared_utility/crt_abstractions.h"
  40:Source\azure_iot_sdk\c-utility\adapters/tlsio_mbedtls.c **** #include "azure_c_shared_utility/shared_util_options.h"
  41:Source\azure_iot_sdk\c-utility\adapters/tlsio_mbedtls.c **** #include "azure_c_shared_utility/optionhandler.h"
  42:Source\azure_iot_sdk\c-utility\adapters/tlsio_mbedtls.c **** 
  43:Source\azure_iot_sdk\c-utility\adapters/tlsio_mbedtls.c **** static const char* const OPTION_UNDERLYING_IO_OPTIONS = "underlying_io_options";
  44:Source\azure_iot_sdk\c-utility\adapters/tlsio_mbedtls.c **** 
  45:Source\azure_iot_sdk\c-utility\adapters/tlsio_mbedtls.c **** // DEPRECATED: debug functions do not belong in the tree.
  46:Source\azure_iot_sdk\c-utility\adapters/tlsio_mbedtls.c **** //#define MBED_TLS_DEBUG_ENABLE
  47:Source\azure_iot_sdk\c-utility\adapters/tlsio_mbedtls.c **** 
  48:Source\azure_iot_sdk\c-utility\adapters/tlsio_mbedtls.c **** static const size_t SOCKET_READ_LIMIT = 5;
  49:Source\azure_iot_sdk\c-utility\adapters/tlsio_mbedtls.c **** 
  50:Source\azure_iot_sdk\c-utility\adapters/tlsio_mbedtls.c **** typedef enum TLSIO_STATE_ENUM_TAG
  51:Source\azure_iot_sdk\c-utility\adapters/tlsio_mbedtls.c **** {
  52:Source\azure_iot_sdk\c-utility\adapters/tlsio_mbedtls.c ****     TLSIO_STATE_NOT_OPEN,
  53:Source\azure_iot_sdk\c-utility\adapters/tlsio_mbedtls.c ****     TLSIO_STATE_OPENING_UNDERLYING_IO,
  54:Source\azure_iot_sdk\c-utility\adapters/tlsio_mbedtls.c ****     TLSIO_STATE_IN_HANDSHAKE,
  55:Source\azure_iot_sdk\c-utility\adapters/tlsio_mbedtls.c ****     TLSIO_STATE_OPEN,
  56:Source\azure_iot_sdk\c-utility\adapters/tlsio_mbedtls.c ****     TLSIO_STATE_CLOSING,
  57:Source\azure_iot_sdk\c-utility\adapters/tlsio_mbedtls.c ****     TLSIO_STATE_ERROR
  58:Source\azure_iot_sdk\c-utility\adapters/tlsio_mbedtls.c **** } TLSIO_STATE_ENUM;
  59:Source\azure_iot_sdk\c-utility\adapters/tlsio_mbedtls.c **** 
  60:Source\azure_iot_sdk\c-utility\adapters/tlsio_mbedtls.c **** typedef struct TLS_IO_INSTANCE_TAG
  61:Source\azure_iot_sdk\c-utility\adapters/tlsio_mbedtls.c **** {
  62:Source\azure_iot_sdk\c-utility\adapters/tlsio_mbedtls.c ****     XIO_HANDLE socket_io;
  63:Source\azure_iot_sdk\c-utility\adapters/tlsio_mbedtls.c ****     ON_BYTES_RECEIVED on_bytes_received;
  64:Source\azure_iot_sdk\c-utility\adapters/tlsio_mbedtls.c ****     ON_IO_OPEN_COMPLETE on_io_open_complete;
  65:Source\azure_iot_sdk\c-utility\adapters/tlsio_mbedtls.c ****     ON_IO_CLOSE_COMPLETE on_io_close_complete;
  66:Source\azure_iot_sdk\c-utility\adapters/tlsio_mbedtls.c ****     ON_IO_ERROR on_io_error;
  67:Source\azure_iot_sdk\c-utility\adapters/tlsio_mbedtls.c ****     void* on_bytes_received_context;
  68:Source\azure_iot_sdk\c-utility\adapters/tlsio_mbedtls.c ****     void* on_io_open_complete_context;
  69:Source\azure_iot_sdk\c-utility\adapters/tlsio_mbedtls.c ****     void* on_io_close_complete_context;
  70:Source\azure_iot_sdk\c-utility\adapters/tlsio_mbedtls.c ****     void* on_io_error_context;
  71:Source\azure_iot_sdk\c-utility\adapters/tlsio_mbedtls.c ****     TLSIO_STATE_ENUM tlsio_state;
  72:Source\azure_iot_sdk\c-utility\adapters/tlsio_mbedtls.c ****     unsigned char* socket_io_read_bytes;
  73:Source\azure_iot_sdk\c-utility\adapters/tlsio_mbedtls.c ****     size_t socket_io_read_byte_count;
  74:Source\azure_iot_sdk\c-utility\adapters/tlsio_mbedtls.c ****     ON_SEND_COMPLETE on_send_complete;
  75:Source\azure_iot_sdk\c-utility\adapters/tlsio_mbedtls.c ****     void* on_send_complete_callback_context;
  76:Source\azure_iot_sdk\c-utility\adapters/tlsio_mbedtls.c ****     mbedtls_entropy_context    entropy;
  77:Source\azure_iot_sdk\c-utility\adapters/tlsio_mbedtls.c ****     mbedtls_ctr_drbg_context   ctr_drbg;
  78:Source\azure_iot_sdk\c-utility\adapters/tlsio_mbedtls.c ****     mbedtls_ssl_context        ssl;
  79:Source\azure_iot_sdk\c-utility\adapters/tlsio_mbedtls.c ****     mbedtls_ssl_config         config;
  80:Source\azure_iot_sdk\c-utility\adapters/tlsio_mbedtls.c ****     mbedtls_x509_crt           trusted_certificates_parsed;
  81:Source\azure_iot_sdk\c-utility\adapters/tlsio_mbedtls.c ****     mbedtls_ssl_session        ssn;
  82:Source\azure_iot_sdk\c-utility\adapters/tlsio_mbedtls.c ****     char*                      trusted_certificates;
  83:Source\azure_iot_sdk\c-utility\adapters/tlsio_mbedtls.c **** } TLS_IO_INSTANCE;
  84:Source\azure_iot_sdk\c-utility\adapters/tlsio_mbedtls.c **** 
  85:Source\azure_iot_sdk\c-utility\adapters/tlsio_mbedtls.c **** static const IO_INTERFACE_DESCRIPTION tlsio_mbedtls_interface_description =
  86:Source\azure_iot_sdk\c-utility\adapters/tlsio_mbedtls.c **** {
  87:Source\azure_iot_sdk\c-utility\adapters/tlsio_mbedtls.c ****     tlsio_mbedtls_retrieveoptions,
  88:Source\azure_iot_sdk\c-utility\adapters/tlsio_mbedtls.c ****     tlsio_mbedtls_create,
ARM GAS  C:\Users\Phuong\AppData\Local\Temp\ccP1LXIT.s 			page 3


  89:Source\azure_iot_sdk\c-utility\adapters/tlsio_mbedtls.c ****     tlsio_mbedtls_destroy,
  90:Source\azure_iot_sdk\c-utility\adapters/tlsio_mbedtls.c ****     tlsio_mbedtls_open,
  91:Source\azure_iot_sdk\c-utility\adapters/tlsio_mbedtls.c ****     tlsio_mbedtls_close,
  92:Source\azure_iot_sdk\c-utility\adapters/tlsio_mbedtls.c ****     tlsio_mbedtls_send,
  93:Source\azure_iot_sdk\c-utility\adapters/tlsio_mbedtls.c ****     tlsio_mbedtls_dowork,
  94:Source\azure_iot_sdk\c-utility\adapters/tlsio_mbedtls.c ****     tlsio_mbedtls_setoption
  95:Source\azure_iot_sdk\c-utility\adapters/tlsio_mbedtls.c **** };
  96:Source\azure_iot_sdk\c-utility\adapters/tlsio_mbedtls.c **** 
  97:Source\azure_iot_sdk\c-utility\adapters/tlsio_mbedtls.c **** // DEPRECATED: debug functions do not belong in the tree.
  98:Source\azure_iot_sdk\c-utility\adapters/tlsio_mbedtls.c **** #if defined (MBED_TLS_DEBUG_ENABLE)
  99:Source\azure_iot_sdk\c-utility\adapters/tlsio_mbedtls.c **** void mbedtls_debug(void *ctx, int level, const char *file, int line, const char *str)
 100:Source\azure_iot_sdk\c-utility\adapters/tlsio_mbedtls.c **** {
 101:Source\azure_iot_sdk\c-utility\adapters/tlsio_mbedtls.c ****     (void)ctx;
 102:Source\azure_iot_sdk\c-utility\adapters/tlsio_mbedtls.c ****     ((void)level);
 103:Source\azure_iot_sdk\c-utility\adapters/tlsio_mbedtls.c ****     printf("%s (%d): %s\r\n", file, line, str);
 104:Source\azure_iot_sdk\c-utility\adapters/tlsio_mbedtls.c **** }
 105:Source\azure_iot_sdk\c-utility\adapters/tlsio_mbedtls.c **** #endif
 106:Source\azure_iot_sdk\c-utility\adapters/tlsio_mbedtls.c **** 
 107:Source\azure_iot_sdk\c-utility\adapters/tlsio_mbedtls.c **** static void indicate_error(TLS_IO_INSTANCE* tls_io_instance)
 108:Source\azure_iot_sdk\c-utility\adapters/tlsio_mbedtls.c **** {
  27              		.loc 1 108 0
  28              		.cfi_startproc
  29              		@ args = 0, pretend = 0, frame = 0
  30              		@ frame_needed = 0, uses_anonymous_args = 0
  31              	.LVL0:
  32 0000 10B5     		push	{r4, lr}
  33              		.cfi_def_cfa_offset 8
  34              		.cfi_offset 4, -8
  35              		.cfi_offset 14, -4
 109:Source\azure_iot_sdk\c-utility\adapters/tlsio_mbedtls.c ****     if (tls_io_instance->on_io_error != NULL)
  36              		.loc 1 109 0
  37 0002 0369     		ldr	r3, [r0, #16]
  38 0004 002B     		cmp	r3, #0
  39 0006 01D0     		beq	.L1
 110:Source\azure_iot_sdk\c-utility\adapters/tlsio_mbedtls.c ****     {
 111:Source\azure_iot_sdk\c-utility\adapters/tlsio_mbedtls.c ****         tls_io_instance->on_io_error(tls_io_instance->on_io_error_context);
  40              		.loc 1 111 0
  41 0008 006A     		ldr	r0, [r0, #32]
  42              	.LVL1:
  43 000a 9847     		blx	r3
  44              	.LVL2:
  45              	.L1:
 112:Source\azure_iot_sdk\c-utility\adapters/tlsio_mbedtls.c ****     }
 113:Source\azure_iot_sdk\c-utility\adapters/tlsio_mbedtls.c **** }
  46              		.loc 1 113 0
  47              		@ sp needed
  48 000c 10BD     		pop	{r4, pc}
  49              		.cfi_endproc
  50              	.LFE18:
  51              		.size	indicate_error, .-indicate_error
  52 000e C046     		.section	.text.indicate_open_complete,"ax",%progbits
  53              		.align	2
  54              		.code	16
  55              		.thumb_func
  56              		.type	indicate_open_complete, %function
  57              	indicate_open_complete:
  58              	.LFB19:
ARM GAS  C:\Users\Phuong\AppData\Local\Temp\ccP1LXIT.s 			page 4


 114:Source\azure_iot_sdk\c-utility\adapters/tlsio_mbedtls.c **** 
 115:Source\azure_iot_sdk\c-utility\adapters/tlsio_mbedtls.c **** static void indicate_open_complete(TLS_IO_INSTANCE* tls_io_instance, IO_OPEN_RESULT open_result)
 116:Source\azure_iot_sdk\c-utility\adapters/tlsio_mbedtls.c **** {
  59              		.loc 1 116 0
  60              		.cfi_startproc
  61              		@ args = 0, pretend = 0, frame = 0
  62              		@ frame_needed = 0, uses_anonymous_args = 0
  63              	.LVL3:
  64 0000 10B5     		push	{r4, lr}
  65              		.cfi_def_cfa_offset 8
  66              		.cfi_offset 4, -8
  67              		.cfi_offset 14, -4
 117:Source\azure_iot_sdk\c-utility\adapters/tlsio_mbedtls.c ****     if (tls_io_instance->on_io_open_complete != NULL)
  68              		.loc 1 117 0
  69 0002 8368     		ldr	r3, [r0, #8]
  70 0004 002B     		cmp	r3, #0
  71 0006 01D0     		beq	.L3
 118:Source\azure_iot_sdk\c-utility\adapters/tlsio_mbedtls.c ****     {
 119:Source\azure_iot_sdk\c-utility\adapters/tlsio_mbedtls.c ****         tls_io_instance->on_io_open_complete(tls_io_instance->on_io_open_complete_context, open_res
  72              		.loc 1 119 0
  73 0008 8069     		ldr	r0, [r0, #24]
  74              	.LVL4:
  75 000a 9847     		blx	r3
  76              	.LVL5:
  77              	.L3:
 120:Source\azure_iot_sdk\c-utility\adapters/tlsio_mbedtls.c ****     }
 121:Source\azure_iot_sdk\c-utility\adapters/tlsio_mbedtls.c **** }
  78              		.loc 1 121 0
  79              		@ sp needed
  80 000c 10BD     		pop	{r4, pc}
  81              		.cfi_endproc
  82              	.LFE19:
  83              		.size	indicate_open_complete, .-indicate_open_complete
  84 000e C046     		.section	.text.on_underlying_io_close_complete_during_close,"ax",%progbits
  85              		.align	2
  86              		.code	16
  87              		.thumb_func
  88              		.type	on_underlying_io_close_complete_during_close, %function
  89              	on_underlying_io_close_complete_during_close:
  90              	.LFB24:
 122:Source\azure_iot_sdk\c-utility\adapters/tlsio_mbedtls.c **** 
 123:Source\azure_iot_sdk\c-utility\adapters/tlsio_mbedtls.c **** static int decode_ssl_received_bytes(TLS_IO_INSTANCE* tls_io_instance)
 124:Source\azure_iot_sdk\c-utility\adapters/tlsio_mbedtls.c **** {
 125:Source\azure_iot_sdk\c-utility\adapters/tlsio_mbedtls.c ****     int result = 0;
 126:Source\azure_iot_sdk\c-utility\adapters/tlsio_mbedtls.c ****     unsigned char buffer[64];
 127:Source\azure_iot_sdk\c-utility\adapters/tlsio_mbedtls.c ****     int rcv_bytes = 1;
 128:Source\azure_iot_sdk\c-utility\adapters/tlsio_mbedtls.c **** 
 129:Source\azure_iot_sdk\c-utility\adapters/tlsio_mbedtls.c ****     while (rcv_bytes > 0)
 130:Source\azure_iot_sdk\c-utility\adapters/tlsio_mbedtls.c ****     {
 131:Source\azure_iot_sdk\c-utility\adapters/tlsio_mbedtls.c ****         rcv_bytes = mbedtls_ssl_read(&tls_io_instance->ssl, buffer, sizeof(buffer));
 132:Source\azure_iot_sdk\c-utility\adapters/tlsio_mbedtls.c ****         if (rcv_bytes > 0)
 133:Source\azure_iot_sdk\c-utility\adapters/tlsio_mbedtls.c ****         {
 134:Source\azure_iot_sdk\c-utility\adapters/tlsio_mbedtls.c ****             if (tls_io_instance->on_bytes_received != NULL)
 135:Source\azure_iot_sdk\c-utility\adapters/tlsio_mbedtls.c ****             {
 136:Source\azure_iot_sdk\c-utility\adapters/tlsio_mbedtls.c ****                 tls_io_instance->on_bytes_received(tls_io_instance->on_bytes_received_context, buff
 137:Source\azure_iot_sdk\c-utility\adapters/tlsio_mbedtls.c ****             }
 138:Source\azure_iot_sdk\c-utility\adapters/tlsio_mbedtls.c ****         }
ARM GAS  C:\Users\Phuong\AppData\Local\Temp\ccP1LXIT.s 			page 5


 139:Source\azure_iot_sdk\c-utility\adapters/tlsio_mbedtls.c ****     }
 140:Source\azure_iot_sdk\c-utility\adapters/tlsio_mbedtls.c **** 
 141:Source\azure_iot_sdk\c-utility\adapters/tlsio_mbedtls.c ****     return result;
 142:Source\azure_iot_sdk\c-utility\adapters/tlsio_mbedtls.c **** }
 143:Source\azure_iot_sdk\c-utility\adapters/tlsio_mbedtls.c **** 
 144:Source\azure_iot_sdk\c-utility\adapters/tlsio_mbedtls.c **** static void on_underlying_io_open_complete(void* context, IO_OPEN_RESULT open_result)
 145:Source\azure_iot_sdk\c-utility\adapters/tlsio_mbedtls.c **** {
 146:Source\azure_iot_sdk\c-utility\adapters/tlsio_mbedtls.c ****     if (context == NULL)
 147:Source\azure_iot_sdk\c-utility\adapters/tlsio_mbedtls.c ****     {
 148:Source\azure_iot_sdk\c-utility\adapters/tlsio_mbedtls.c ****         LogError("Invalid context NULL value passed");
 149:Source\azure_iot_sdk\c-utility\adapters/tlsio_mbedtls.c ****     }
 150:Source\azure_iot_sdk\c-utility\adapters/tlsio_mbedtls.c ****     else
 151:Source\azure_iot_sdk\c-utility\adapters/tlsio_mbedtls.c ****     {
 152:Source\azure_iot_sdk\c-utility\adapters/tlsio_mbedtls.c ****         TLS_IO_INSTANCE* tls_io_instance = (TLS_IO_INSTANCE*)context;
 153:Source\azure_iot_sdk\c-utility\adapters/tlsio_mbedtls.c ****         int result = 0;
 154:Source\azure_iot_sdk\c-utility\adapters/tlsio_mbedtls.c **** 
 155:Source\azure_iot_sdk\c-utility\adapters/tlsio_mbedtls.c ****         if (open_result != IO_OPEN_OK)
 156:Source\azure_iot_sdk\c-utility\adapters/tlsio_mbedtls.c ****         {
 157:Source\azure_iot_sdk\c-utility\adapters/tlsio_mbedtls.c ****             tls_io_instance->tlsio_state = TLSIO_STATE_NOT_OPEN;
 158:Source\azure_iot_sdk\c-utility\adapters/tlsio_mbedtls.c ****             indicate_open_complete(tls_io_instance, IO_OPEN_ERROR);
 159:Source\azure_iot_sdk\c-utility\adapters/tlsio_mbedtls.c ****         }
 160:Source\azure_iot_sdk\c-utility\adapters/tlsio_mbedtls.c ****         else
 161:Source\azure_iot_sdk\c-utility\adapters/tlsio_mbedtls.c ****         {
 162:Source\azure_iot_sdk\c-utility\adapters/tlsio_mbedtls.c ****             tls_io_instance->tlsio_state = TLSIO_STATE_IN_HANDSHAKE;
 163:Source\azure_iot_sdk\c-utility\adapters/tlsio_mbedtls.c **** 
 164:Source\azure_iot_sdk\c-utility\adapters/tlsio_mbedtls.c ****             do {
 165:Source\azure_iot_sdk\c-utility\adapters/tlsio_mbedtls.c ****                 result = mbedtls_ssl_handshake(&tls_io_instance->ssl);
 166:Source\azure_iot_sdk\c-utility\adapters/tlsio_mbedtls.c ****             } while (result == MBEDTLS_ERR_SSL_WANT_READ || result == MBEDTLS_ERR_SSL_WANT_WRITE);
 167:Source\azure_iot_sdk\c-utility\adapters/tlsio_mbedtls.c **** 
 168:Source\azure_iot_sdk\c-utility\adapters/tlsio_mbedtls.c ****             if (result == 0)
 169:Source\azure_iot_sdk\c-utility\adapters/tlsio_mbedtls.c ****             {
 170:Source\azure_iot_sdk\c-utility\adapters/tlsio_mbedtls.c ****                 tls_io_instance->tlsio_state = TLSIO_STATE_OPEN;
 171:Source\azure_iot_sdk\c-utility\adapters/tlsio_mbedtls.c ****                 indicate_open_complete(tls_io_instance, IO_OPEN_OK);
 172:Source\azure_iot_sdk\c-utility\adapters/tlsio_mbedtls.c ****             }
 173:Source\azure_iot_sdk\c-utility\adapters/tlsio_mbedtls.c ****             else
 174:Source\azure_iot_sdk\c-utility\adapters/tlsio_mbedtls.c ****             {
 175:Source\azure_iot_sdk\c-utility\adapters/tlsio_mbedtls.c ****                 tls_io_instance->tlsio_state = TLSIO_STATE_NOT_OPEN;
 176:Source\azure_iot_sdk\c-utility\adapters/tlsio_mbedtls.c ****                 indicate_open_complete(tls_io_instance, IO_OPEN_ERROR);
 177:Source\azure_iot_sdk\c-utility\adapters/tlsio_mbedtls.c ****             }
 178:Source\azure_iot_sdk\c-utility\adapters/tlsio_mbedtls.c ****         }
 179:Source\azure_iot_sdk\c-utility\adapters/tlsio_mbedtls.c ****     }
 180:Source\azure_iot_sdk\c-utility\adapters/tlsio_mbedtls.c **** }
 181:Source\azure_iot_sdk\c-utility\adapters/tlsio_mbedtls.c **** 
 182:Source\azure_iot_sdk\c-utility\adapters/tlsio_mbedtls.c **** static void on_underlying_io_bytes_received(void* context, const unsigned char* buffer, size_t size
 183:Source\azure_iot_sdk\c-utility\adapters/tlsio_mbedtls.c **** {
 184:Source\azure_iot_sdk\c-utility\adapters/tlsio_mbedtls.c ****     if (context != NULL)
 185:Source\azure_iot_sdk\c-utility\adapters/tlsio_mbedtls.c ****     {
 186:Source\azure_iot_sdk\c-utility\adapters/tlsio_mbedtls.c ****         TLS_IO_INSTANCE* tls_io_instance = (TLS_IO_INSTANCE*)context;
 187:Source\azure_iot_sdk\c-utility\adapters/tlsio_mbedtls.c **** 
 188:Source\azure_iot_sdk\c-utility\adapters/tlsio_mbedtls.c ****         unsigned char* new_socket_io_read_bytes = (unsigned char*)realloc(tls_io_instance->socket_i
 189:Source\azure_iot_sdk\c-utility\adapters/tlsio_mbedtls.c ****         if (new_socket_io_read_bytes == NULL)
 190:Source\azure_iot_sdk\c-utility\adapters/tlsio_mbedtls.c ****         {
 191:Source\azure_iot_sdk\c-utility\adapters/tlsio_mbedtls.c ****             tls_io_instance->tlsio_state = TLSIO_STATE_ERROR;
 192:Source\azure_iot_sdk\c-utility\adapters/tlsio_mbedtls.c ****             indicate_error(tls_io_instance);
 193:Source\azure_iot_sdk\c-utility\adapters/tlsio_mbedtls.c ****         }
 194:Source\azure_iot_sdk\c-utility\adapters/tlsio_mbedtls.c ****         else
 195:Source\azure_iot_sdk\c-utility\adapters/tlsio_mbedtls.c ****         {
ARM GAS  C:\Users\Phuong\AppData\Local\Temp\ccP1LXIT.s 			page 6


 196:Source\azure_iot_sdk\c-utility\adapters/tlsio_mbedtls.c ****             tls_io_instance->socket_io_read_bytes = new_socket_io_read_bytes;
 197:Source\azure_iot_sdk\c-utility\adapters/tlsio_mbedtls.c ****             (void)memcpy(tls_io_instance->socket_io_read_bytes + tls_io_instance->socket_io_read_by
 198:Source\azure_iot_sdk\c-utility\adapters/tlsio_mbedtls.c ****             tls_io_instance->socket_io_read_byte_count += size;
 199:Source\azure_iot_sdk\c-utility\adapters/tlsio_mbedtls.c ****         }
 200:Source\azure_iot_sdk\c-utility\adapters/tlsio_mbedtls.c ****     }
 201:Source\azure_iot_sdk\c-utility\adapters/tlsio_mbedtls.c ****     else
 202:Source\azure_iot_sdk\c-utility\adapters/tlsio_mbedtls.c ****     {
 203:Source\azure_iot_sdk\c-utility\adapters/tlsio_mbedtls.c ****         LogError("NULL value passed in context");
 204:Source\azure_iot_sdk\c-utility\adapters/tlsio_mbedtls.c ****     }
 205:Source\azure_iot_sdk\c-utility\adapters/tlsio_mbedtls.c **** }
 206:Source\azure_iot_sdk\c-utility\adapters/tlsio_mbedtls.c **** 
 207:Source\azure_iot_sdk\c-utility\adapters/tlsio_mbedtls.c **** static void on_underlying_io_error(void* context)
 208:Source\azure_iot_sdk\c-utility\adapters/tlsio_mbedtls.c **** {
 209:Source\azure_iot_sdk\c-utility\adapters/tlsio_mbedtls.c ****     if (context == NULL)
 210:Source\azure_iot_sdk\c-utility\adapters/tlsio_mbedtls.c ****     {
 211:Source\azure_iot_sdk\c-utility\adapters/tlsio_mbedtls.c ****         LogError("Invalid context NULL value passed");
 212:Source\azure_iot_sdk\c-utility\adapters/tlsio_mbedtls.c ****     }
 213:Source\azure_iot_sdk\c-utility\adapters/tlsio_mbedtls.c ****     else
 214:Source\azure_iot_sdk\c-utility\adapters/tlsio_mbedtls.c ****     {
 215:Source\azure_iot_sdk\c-utility\adapters/tlsio_mbedtls.c ****         TLS_IO_INSTANCE* tls_io_instance = (TLS_IO_INSTANCE*)context;
 216:Source\azure_iot_sdk\c-utility\adapters/tlsio_mbedtls.c ****         switch (tls_io_instance->tlsio_state)
 217:Source\azure_iot_sdk\c-utility\adapters/tlsio_mbedtls.c ****         {
 218:Source\azure_iot_sdk\c-utility\adapters/tlsio_mbedtls.c ****             default:
 219:Source\azure_iot_sdk\c-utility\adapters/tlsio_mbedtls.c ****             case TLSIO_STATE_NOT_OPEN:
 220:Source\azure_iot_sdk\c-utility\adapters/tlsio_mbedtls.c ****             case TLSIO_STATE_ERROR:
 221:Source\azure_iot_sdk\c-utility\adapters/tlsio_mbedtls.c ****                 break;
 222:Source\azure_iot_sdk\c-utility\adapters/tlsio_mbedtls.c **** 
 223:Source\azure_iot_sdk\c-utility\adapters/tlsio_mbedtls.c ****             case TLSIO_STATE_OPENING_UNDERLYING_IO:
 224:Source\azure_iot_sdk\c-utility\adapters/tlsio_mbedtls.c ****             case TLSIO_STATE_IN_HANDSHAKE:
 225:Source\azure_iot_sdk\c-utility\adapters/tlsio_mbedtls.c ****                 // Existing socket impls are all synchronous close, and this
 226:Source\azure_iot_sdk\c-utility\adapters/tlsio_mbedtls.c ****                 // adapter does not yet support async close.
 227:Source\azure_iot_sdk\c-utility\adapters/tlsio_mbedtls.c ****                 xio_close(tls_io_instance->socket_io, NULL, NULL);
 228:Source\azure_iot_sdk\c-utility\adapters/tlsio_mbedtls.c ****                 tls_io_instance->tlsio_state = TLSIO_STATE_NOT_OPEN;
 229:Source\azure_iot_sdk\c-utility\adapters/tlsio_mbedtls.c ****                 indicate_open_complete(tls_io_instance, IO_OPEN_ERROR);
 230:Source\azure_iot_sdk\c-utility\adapters/tlsio_mbedtls.c ****                 break;
 231:Source\azure_iot_sdk\c-utility\adapters/tlsio_mbedtls.c **** 
 232:Source\azure_iot_sdk\c-utility\adapters/tlsio_mbedtls.c ****             case TLSIO_STATE_OPEN:
 233:Source\azure_iot_sdk\c-utility\adapters/tlsio_mbedtls.c ****                 tls_io_instance->tlsio_state = TLSIO_STATE_ERROR;
 234:Source\azure_iot_sdk\c-utility\adapters/tlsio_mbedtls.c ****                 indicate_error(tls_io_instance);
 235:Source\azure_iot_sdk\c-utility\adapters/tlsio_mbedtls.c ****                 break;
 236:Source\azure_iot_sdk\c-utility\adapters/tlsio_mbedtls.c ****         }
 237:Source\azure_iot_sdk\c-utility\adapters/tlsio_mbedtls.c ****     }
 238:Source\azure_iot_sdk\c-utility\adapters/tlsio_mbedtls.c **** }
 239:Source\azure_iot_sdk\c-utility\adapters/tlsio_mbedtls.c **** 
 240:Source\azure_iot_sdk\c-utility\adapters/tlsio_mbedtls.c **** static void on_underlying_io_close_complete_during_close(void* context)
 241:Source\azure_iot_sdk\c-utility\adapters/tlsio_mbedtls.c **** {
  91              		.loc 1 241 0
  92              		.cfi_startproc
  93              		@ args = 0, pretend = 0, frame = 0
  94              		@ frame_needed = 0, uses_anonymous_args = 0
  95              	.LVL6:
  96 0000 10B5     		push	{r4, lr}
  97              		.cfi_def_cfa_offset 8
  98              		.cfi_offset 4, -8
  99              		.cfi_offset 14, -4
 100 0002 82B0     		sub	sp, sp, #8
 101              		.cfi_def_cfa_offset 16
ARM GAS  C:\Users\Phuong\AppData\Local\Temp\ccP1LXIT.s 			page 7


 242:Source\azure_iot_sdk\c-utility\adapters/tlsio_mbedtls.c ****     if (context == NULL)
 102              		.loc 1 242 0
 103 0004 0028     		cmp	r0, #0
 104 0006 0DD1     		bne	.L6
 105              	.LBB2:
 243:Source\azure_iot_sdk\c-utility\adapters/tlsio_mbedtls.c ****     {
 244:Source\azure_iot_sdk\c-utility\adapters/tlsio_mbedtls.c ****         LogError("Invalid context NULL value passed");
 106              		.loc 1 244 0 discriminator 3
 107 0008 FFF7FEFF 		bl	xlogging_get_log_function
 108              	.LVL7:
 109 000c 041E     		subs	r4, r0, #0
 110              	.LVL8:
 111 000e 11D0     		beq	.L5
 112              		.loc 1 244 0 is_stmt 0 discriminator 4
 113 0010 094B     		ldr	r3, .L8
 114 0012 0193     		str	r3, [sp, #4]
 115 0014 0123     		movs	r3, #1
 116 0016 0093     		str	r3, [sp]
 117 0018 F333     		adds	r3, r3, #243
 118 001a 084A     		ldr	r2, .L8+4
 119 001c 0849     		ldr	r1, .L8+8
 120 001e 0020     		movs	r0, #0
 121              	.LVL9:
 122 0020 A047     		blx	r4
 123              	.LVL10:
 124 0022 07E0     		b	.L5
 125              	.LVL11:
 126              	.L6:
 127              	.LBE2:
 128              	.LBB3:
 245:Source\azure_iot_sdk\c-utility\adapters/tlsio_mbedtls.c ****     }
 246:Source\azure_iot_sdk\c-utility\adapters/tlsio_mbedtls.c ****     else
 247:Source\azure_iot_sdk\c-utility\adapters/tlsio_mbedtls.c ****     {
 248:Source\azure_iot_sdk\c-utility\adapters/tlsio_mbedtls.c ****         TLS_IO_INSTANCE* tls_io_instance = (TLS_IO_INSTANCE*)context;
 249:Source\azure_iot_sdk\c-utility\adapters/tlsio_mbedtls.c ****         tls_io_instance->tlsio_state = TLSIO_STATE_NOT_OPEN;
 129              		.loc 1 249 0 is_stmt 1
 130 0024 0022     		movs	r2, #0
 131 0026 2423     		movs	r3, #36
 132 0028 C254     		strb	r2, [r0, r3]
 250:Source\azure_iot_sdk\c-utility\adapters/tlsio_mbedtls.c ****         if (tls_io_instance->on_io_close_complete != NULL)
 133              		.loc 1 250 0
 134 002a C368     		ldr	r3, [r0, #12]
 135 002c 002B     		cmp	r3, #0
 136 002e 01D0     		beq	.L5
 251:Source\azure_iot_sdk\c-utility\adapters/tlsio_mbedtls.c ****         {
 252:Source\azure_iot_sdk\c-utility\adapters/tlsio_mbedtls.c ****             tls_io_instance->on_io_close_complete(tls_io_instance->on_io_close_complete_context);
 137              		.loc 1 252 0
 138 0030 C069     		ldr	r0, [r0, #28]
 139              	.LVL12:
 140 0032 9847     		blx	r3
 141              	.LVL13:
 142              	.L5:
 143              	.LBE3:
 253:Source\azure_iot_sdk\c-utility\adapters/tlsio_mbedtls.c ****         }
 254:Source\azure_iot_sdk\c-utility\adapters/tlsio_mbedtls.c ****     }
 255:Source\azure_iot_sdk\c-utility\adapters/tlsio_mbedtls.c **** }
 144              		.loc 1 255 0
ARM GAS  C:\Users\Phuong\AppData\Local\Temp\ccP1LXIT.s 			page 8


 145 0034 02B0     		add	sp, sp, #8
 146              		@ sp needed
 147 0036 10BD     		pop	{r4, pc}
 148              	.L9:
 149              		.align	2
 150              	.L8:
 151 0038 38000000 		.word	.LC3
 152 003c 00000000 		.word	.LANCHOR0
 153 0040 00000000 		.word	.LC1
 154              		.cfi_endproc
 155              	.LFE24:
 156              		.size	on_underlying_io_close_complete_during_close, .-on_underlying_io_close_complete_during_close
 157              		.section	.text.mbedtls_init,"ax",%progbits
 158              		.align	2
 159              		.code	16
 160              		.thumb_func
 161              		.type	mbedtls_init, %function
 162              	mbedtls_init:
 163              	.LFB28:
 256:Source\azure_iot_sdk\c-utility\adapters/tlsio_mbedtls.c **** 
 257:Source\azure_iot_sdk\c-utility\adapters/tlsio_mbedtls.c **** static int on_io_recv(void *context, unsigned char *buf, size_t sz)
 258:Source\azure_iot_sdk\c-utility\adapters/tlsio_mbedtls.c **** {
 259:Source\azure_iot_sdk\c-utility\adapters/tlsio_mbedtls.c ****     int result;
 260:Source\azure_iot_sdk\c-utility\adapters/tlsio_mbedtls.c ****     if (context == NULL)
 261:Source\azure_iot_sdk\c-utility\adapters/tlsio_mbedtls.c ****     {
 262:Source\azure_iot_sdk\c-utility\adapters/tlsio_mbedtls.c ****         LogError("Invalid context NULL value passed");
 263:Source\azure_iot_sdk\c-utility\adapters/tlsio_mbedtls.c ****         result = MBEDTLS_ERR_SSL_BAD_INPUT_DATA;
 264:Source\azure_iot_sdk\c-utility\adapters/tlsio_mbedtls.c ****     }
 265:Source\azure_iot_sdk\c-utility\adapters/tlsio_mbedtls.c ****     else
 266:Source\azure_iot_sdk\c-utility\adapters/tlsio_mbedtls.c ****     {
 267:Source\azure_iot_sdk\c-utility\adapters/tlsio_mbedtls.c ****         TLS_IO_INSTANCE* tls_io_instance = (TLS_IO_INSTANCE*)context;
 268:Source\azure_iot_sdk\c-utility\adapters/tlsio_mbedtls.c ****         unsigned char* new_socket_io_read_bytes;
 269:Source\azure_iot_sdk\c-utility\adapters/tlsio_mbedtls.c ****         size_t socket_reads = 0;
 270:Source\azure_iot_sdk\c-utility\adapters/tlsio_mbedtls.c **** 
 271:Source\azure_iot_sdk\c-utility\adapters/tlsio_mbedtls.c ****         // Read until we have data or until we've hit the read limit
 272:Source\azure_iot_sdk\c-utility\adapters/tlsio_mbedtls.c ****         while (tls_io_instance->socket_io_read_byte_count == 0 && socket_reads < SOCKET_READ_LIMIT)
 273:Source\azure_iot_sdk\c-utility\adapters/tlsio_mbedtls.c ****         {
 274:Source\azure_iot_sdk\c-utility\adapters/tlsio_mbedtls.c ****             xio_dowork(tls_io_instance->socket_io);
 275:Source\azure_iot_sdk\c-utility\adapters/tlsio_mbedtls.c ****             if (tls_io_instance->tlsio_state == TLSIO_STATE_OPEN)
 276:Source\azure_iot_sdk\c-utility\adapters/tlsio_mbedtls.c ****             {
 277:Source\azure_iot_sdk\c-utility\adapters/tlsio_mbedtls.c ****                 break;
 278:Source\azure_iot_sdk\c-utility\adapters/tlsio_mbedtls.c ****             }
 279:Source\azure_iot_sdk\c-utility\adapters/tlsio_mbedtls.c ****             // Control the reads so we don't get blocked by
 280:Source\azure_iot_sdk\c-utility\adapters/tlsio_mbedtls.c ****             // a bug in the lower layer
 281:Source\azure_iot_sdk\c-utility\adapters/tlsio_mbedtls.c ****             socket_reads++;
 282:Source\azure_iot_sdk\c-utility\adapters/tlsio_mbedtls.c ****         }
 283:Source\azure_iot_sdk\c-utility\adapters/tlsio_mbedtls.c **** 
 284:Source\azure_iot_sdk\c-utility\adapters/tlsio_mbedtls.c ****         size_t bytes_cnt = tls_io_instance->socket_io_read_byte_count;
 285:Source\azure_iot_sdk\c-utility\adapters/tlsio_mbedtls.c ****         if (bytes_cnt > sz)
 286:Source\azure_iot_sdk\c-utility\adapters/tlsio_mbedtls.c ****         {
 287:Source\azure_iot_sdk\c-utility\adapters/tlsio_mbedtls.c ****             bytes_cnt = sz;
 288:Source\azure_iot_sdk\c-utility\adapters/tlsio_mbedtls.c ****         }
 289:Source\azure_iot_sdk\c-utility\adapters/tlsio_mbedtls.c **** 
 290:Source\azure_iot_sdk\c-utility\adapters/tlsio_mbedtls.c ****         if (bytes_cnt > 0)
 291:Source\azure_iot_sdk\c-utility\adapters/tlsio_mbedtls.c ****         {
 292:Source\azure_iot_sdk\c-utility\adapters/tlsio_mbedtls.c ****             (void)memcpy((void *)buf, tls_io_instance->socket_io_read_bytes, bytes_cnt);
 293:Source\azure_iot_sdk\c-utility\adapters/tlsio_mbedtls.c ****             (void)memmove(tls_io_instance->socket_io_read_bytes, tls_io_instance->socket_io_read_by
ARM GAS  C:\Users\Phuong\AppData\Local\Temp\ccP1LXIT.s 			page 9


 294:Source\azure_iot_sdk\c-utility\adapters/tlsio_mbedtls.c ****             tls_io_instance->socket_io_read_byte_count -= bytes_cnt;
 295:Source\azure_iot_sdk\c-utility\adapters/tlsio_mbedtls.c ****             if (tls_io_instance->socket_io_read_byte_count > 0)
 296:Source\azure_iot_sdk\c-utility\adapters/tlsio_mbedtls.c ****             {
 297:Source\azure_iot_sdk\c-utility\adapters/tlsio_mbedtls.c ****                 new_socket_io_read_bytes = (unsigned char*)realloc(tls_io_instance->socket_io_read_
 298:Source\azure_iot_sdk\c-utility\adapters/tlsio_mbedtls.c ****                 if (new_socket_io_read_bytes != NULL)
 299:Source\azure_iot_sdk\c-utility\adapters/tlsio_mbedtls.c ****                 {
 300:Source\azure_iot_sdk\c-utility\adapters/tlsio_mbedtls.c ****                     tls_io_instance->socket_io_read_bytes = new_socket_io_read_bytes;
 301:Source\azure_iot_sdk\c-utility\adapters/tlsio_mbedtls.c ****                 }
 302:Source\azure_iot_sdk\c-utility\adapters/tlsio_mbedtls.c ****             }
 303:Source\azure_iot_sdk\c-utility\adapters/tlsio_mbedtls.c ****             else
 304:Source\azure_iot_sdk\c-utility\adapters/tlsio_mbedtls.c ****             {
 305:Source\azure_iot_sdk\c-utility\adapters/tlsio_mbedtls.c ****                 free(tls_io_instance->socket_io_read_bytes);
 306:Source\azure_iot_sdk\c-utility\adapters/tlsio_mbedtls.c ****                 tls_io_instance->socket_io_read_bytes = NULL;
 307:Source\azure_iot_sdk\c-utility\adapters/tlsio_mbedtls.c ****             }
 308:Source\azure_iot_sdk\c-utility\adapters/tlsio_mbedtls.c ****         }
 309:Source\azure_iot_sdk\c-utility\adapters/tlsio_mbedtls.c **** 
 310:Source\azure_iot_sdk\c-utility\adapters/tlsio_mbedtls.c ****         if ((bytes_cnt == 0) && (tls_io_instance->tlsio_state == TLSIO_STATE_OPEN))
 311:Source\azure_iot_sdk\c-utility\adapters/tlsio_mbedtls.c ****         {
 312:Source\azure_iot_sdk\c-utility\adapters/tlsio_mbedtls.c ****             result = MBEDTLS_ERR_SSL_WANT_READ;
 313:Source\azure_iot_sdk\c-utility\adapters/tlsio_mbedtls.c ****         }
 314:Source\azure_iot_sdk\c-utility\adapters/tlsio_mbedtls.c ****         else
 315:Source\azure_iot_sdk\c-utility\adapters/tlsio_mbedtls.c ****         {
 316:Source\azure_iot_sdk\c-utility\adapters/tlsio_mbedtls.c ****             result = (int)bytes_cnt;
 317:Source\azure_iot_sdk\c-utility\adapters/tlsio_mbedtls.c ****         }
 318:Source\azure_iot_sdk\c-utility\adapters/tlsio_mbedtls.c ****     }
 319:Source\azure_iot_sdk\c-utility\adapters/tlsio_mbedtls.c ****     return result;
 320:Source\azure_iot_sdk\c-utility\adapters/tlsio_mbedtls.c **** }
 321:Source\azure_iot_sdk\c-utility\adapters/tlsio_mbedtls.c **** 
 322:Source\azure_iot_sdk\c-utility\adapters/tlsio_mbedtls.c **** static int on_io_send(void *context, const unsigned char *buf, size_t sz)
 323:Source\azure_iot_sdk\c-utility\adapters/tlsio_mbedtls.c **** {
 324:Source\azure_iot_sdk\c-utility\adapters/tlsio_mbedtls.c ****     int result;
 325:Source\azure_iot_sdk\c-utility\adapters/tlsio_mbedtls.c ****     if (context == NULL)
 326:Source\azure_iot_sdk\c-utility\adapters/tlsio_mbedtls.c ****     {
 327:Source\azure_iot_sdk\c-utility\adapters/tlsio_mbedtls.c ****         LogError("Invalid context NULL value passed");
 328:Source\azure_iot_sdk\c-utility\adapters/tlsio_mbedtls.c ****         result = 0;
 329:Source\azure_iot_sdk\c-utility\adapters/tlsio_mbedtls.c ****     }
 330:Source\azure_iot_sdk\c-utility\adapters/tlsio_mbedtls.c ****     else
 331:Source\azure_iot_sdk\c-utility\adapters/tlsio_mbedtls.c ****     {
 332:Source\azure_iot_sdk\c-utility\adapters/tlsio_mbedtls.c ****         TLS_IO_INSTANCE* tls_io_instance = (TLS_IO_INSTANCE*)context;
 333:Source\azure_iot_sdk\c-utility\adapters/tlsio_mbedtls.c ****         if (xio_send(tls_io_instance->socket_io, buf, sz, tls_io_instance->on_send_complete, tls_io
 334:Source\azure_iot_sdk\c-utility\adapters/tlsio_mbedtls.c ****         {
 335:Source\azure_iot_sdk\c-utility\adapters/tlsio_mbedtls.c ****             tls_io_instance->tlsio_state = TLSIO_STATE_ERROR;
 336:Source\azure_iot_sdk\c-utility\adapters/tlsio_mbedtls.c ****             indicate_error(tls_io_instance);
 337:Source\azure_iot_sdk\c-utility\adapters/tlsio_mbedtls.c ****             result = 0;
 338:Source\azure_iot_sdk\c-utility\adapters/tlsio_mbedtls.c ****         }
 339:Source\azure_iot_sdk\c-utility\adapters/tlsio_mbedtls.c ****         else
 340:Source\azure_iot_sdk\c-utility\adapters/tlsio_mbedtls.c ****         {
 341:Source\azure_iot_sdk\c-utility\adapters/tlsio_mbedtls.c ****             result = sz;
 342:Source\azure_iot_sdk\c-utility\adapters/tlsio_mbedtls.c ****         }
 343:Source\azure_iot_sdk\c-utility\adapters/tlsio_mbedtls.c ****     }
 344:Source\azure_iot_sdk\c-utility\adapters/tlsio_mbedtls.c ****     return result;
 345:Source\azure_iot_sdk\c-utility\adapters/tlsio_mbedtls.c **** }
 346:Source\azure_iot_sdk\c-utility\adapters/tlsio_mbedtls.c **** 
 347:Source\azure_iot_sdk\c-utility\adapters/tlsio_mbedtls.c **** static int tlsio_entropy_poll(void* v, unsigned char* output, size_t len, size_t* olen)
 348:Source\azure_iot_sdk\c-utility\adapters/tlsio_mbedtls.c **** {
 349:Source\azure_iot_sdk\c-utility\adapters/tlsio_mbedtls.c ****     (void)v;
 350:Source\azure_iot_sdk\c-utility\adapters/tlsio_mbedtls.c ****     int result = 0;
ARM GAS  C:\Users\Phuong\AppData\Local\Temp\ccP1LXIT.s 			page 10


 351:Source\azure_iot_sdk\c-utility\adapters/tlsio_mbedtls.c ****     srand((unsigned int)time(NULL));
 352:Source\azure_iot_sdk\c-utility\adapters/tlsio_mbedtls.c ****     for (uint16_t i = 0; i < len; i++) {
 353:Source\azure_iot_sdk\c-utility\adapters/tlsio_mbedtls.c ****         output[i] = rand() % 256;
 354:Source\azure_iot_sdk\c-utility\adapters/tlsio_mbedtls.c ****     }
 355:Source\azure_iot_sdk\c-utility\adapters/tlsio_mbedtls.c ****     *olen = len;
 356:Source\azure_iot_sdk\c-utility\adapters/tlsio_mbedtls.c ****     return result;
 357:Source\azure_iot_sdk\c-utility\adapters/tlsio_mbedtls.c **** }
 358:Source\azure_iot_sdk\c-utility\adapters/tlsio_mbedtls.c **** 
 359:Source\azure_iot_sdk\c-utility\adapters/tlsio_mbedtls.c **** static void mbedtls_init(TLS_IO_INSTANCE* instance, const char *host)
 360:Source\azure_iot_sdk\c-utility\adapters/tlsio_mbedtls.c **** {
 164              		.loc 1 360 0
 165              		.cfi_startproc
 166              		@ args = 0, pretend = 0, frame = 16
 167              		@ frame_needed = 0, uses_anonymous_args = 0
 168              	.LVL14:
 169 0000 F0B5     		push	{r4, r5, r6, r7, lr}
 170              		.cfi_def_cfa_offset 20
 171              		.cfi_offset 4, -20
 172              		.cfi_offset 5, -16
 173              		.cfi_offset 6, -12
 174              		.cfi_offset 7, -8
 175              		.cfi_offset 14, -4
 176 0002 87B0     		sub	sp, sp, #28
 177              		.cfi_def_cfa_offset 48
 178 0004 0600     		movs	r6, r0
 179 0006 0591     		str	r1, [sp, #20]
 180              	.LVL15:
 361:Source\azure_iot_sdk\c-utility\adapters/tlsio_mbedtls.c ****     const char *pers = "azure_iot_client";
 362:Source\azure_iot_sdk\c-utility\adapters/tlsio_mbedtls.c **** 
 363:Source\azure_iot_sdk\c-utility\adapters/tlsio_mbedtls.c ****     // mbedTLS initialize...
 364:Source\azure_iot_sdk\c-utility\adapters/tlsio_mbedtls.c ****     mbedtls_entropy_init(&instance->entropy);
 181              		.loc 1 364 0
 182 0008 3823     		movs	r3, #56
 183 000a 9C46     		mov	ip, r3
 184 000c 8444     		add	ip, ip, r0
 185 000e 6346     		mov	r3, ip
 186 0010 0293     		str	r3, [sp, #8]
 187 0012 6046     		mov	r0, ip
 188              	.LVL16:
 189 0014 FFF7FEFF 		bl	mbedtls_entropy_init
 190              	.LVL17:
 365:Source\azure_iot_sdk\c-utility\adapters/tlsio_mbedtls.c ****     mbedtls_ctr_drbg_init(&instance->ctr_drbg);
 191              		.loc 1 365 0
 192 0018 AC22     		movs	r2, #172
 193 001a 9200     		lsls	r2, r2, #2
 194 001c 9446     		mov	ip, r2
 195 001e B444     		add	ip, ip, r6
 196 0020 6246     		mov	r2, ip
 197 0022 0392     		str	r2, [sp, #12]
 198 0024 6046     		mov	r0, ip
 199 0026 FFF7FEFF 		bl	mbedtls_ctr_drbg_init
 200              	.LVL18:
 366:Source\azure_iot_sdk\c-utility\adapters/tlsio_mbedtls.c ****     mbedtls_ssl_init(&instance->ssl);
 201              		.loc 1 366 0
 202 002a FC20     		movs	r0, #252
 203 002c 8000     		lsls	r0, r0, #2
 204 002e 3518     		adds	r5, r6, r0
ARM GAS  C:\Users\Phuong\AppData\Local\Temp\ccP1LXIT.s 			page 11


 205 0030 2800     		movs	r0, r5
 206 0032 FFF7FEFF 		bl	mbedtls_ssl_init
 207              	.LVL19:
 367:Source\azure_iot_sdk\c-utility\adapters/tlsio_mbedtls.c ****     mbedtls_ssl_session_init(&instance->ssn);
 208              		.loc 1 367 0
 209 0036 2548     		ldr	r0, .L11
 210 0038 8446     		mov	ip, r0
 211 003a B444     		add	ip, ip, r6
 212 003c 6046     		mov	r0, ip
 213 003e 0490     		str	r0, [sp, #16]
 214 0040 FFF7FEFF 		bl	mbedtls_ssl_session_init
 215              	.LVL20:
 368:Source\azure_iot_sdk\c-utility\adapters/tlsio_mbedtls.c ****     mbedtls_ssl_config_init(&instance->config);
 216              		.loc 1 368 0
 217 0044 A124     		movs	r4, #161
 218 0046 E400     		lsls	r4, r4, #3
 219 0048 3419     		adds	r4, r6, r4
 220 004a 2000     		movs	r0, r4
 221 004c FFF7FEFF 		bl	mbedtls_ssl_config_init
 222              	.LVL21:
 369:Source\azure_iot_sdk\c-utility\adapters/tlsio_mbedtls.c ****     mbedtls_x509_crt_init(&instance->trusted_certificates_parsed);
 223              		.loc 1 369 0
 224 0050 BB27     		movs	r7, #187
 225 0052 FF00     		lsls	r7, r7, #3
 226 0054 F019     		adds	r0, r6, r7
 227 0056 FFF7FEFF 		bl	mbedtls_x509_crt_init
 228              	.LVL22:
 370:Source\azure_iot_sdk\c-utility\adapters/tlsio_mbedtls.c ****     mbedtls_entropy_add_source(&instance->entropy, tlsio_entropy_poll, NULL, 128, 0);
 229              		.loc 1 370 0
 230 005a 0027     		movs	r7, #0
 231 005c 0097     		str	r7, [sp]
 232 005e 8023     		movs	r3, #128
 233 0060 0022     		movs	r2, #0
 234 0062 1B49     		ldr	r1, .L11+4
 235 0064 0298     		ldr	r0, [sp, #8]
 236 0066 FFF7FEFF 		bl	mbedtls_entropy_add_source
 237              	.LVL23:
 371:Source\azure_iot_sdk\c-utility\adapters/tlsio_mbedtls.c ****     mbedtls_ctr_drbg_seed(&instance->ctr_drbg, mbedtls_entropy_func, &instance->entropy, (const uns
 238              		.loc 1 371 0
 239 006a 1023     		movs	r3, #16
 240 006c 0093     		str	r3, [sp]
 241 006e 194B     		ldr	r3, .L11+8
 242 0070 029A     		ldr	r2, [sp, #8]
 243 0072 1949     		ldr	r1, .L11+12
 244 0074 0398     		ldr	r0, [sp, #12]
 245 0076 FFF7FEFF 		bl	mbedtls_ctr_drbg_seed
 246              	.LVL24:
 372:Source\azure_iot_sdk\c-utility\adapters/tlsio_mbedtls.c ****     mbedtls_ssl_config_defaults(&instance->config, MBEDTLS_SSL_IS_CLIENT, MBEDTLS_SSL_TRANSPORT_STR
 247              		.loc 1 372 0
 248 007a 0023     		movs	r3, #0
 249 007c 0022     		movs	r2, #0
 250 007e 0021     		movs	r1, #0
 251 0080 2000     		movs	r0, r4
 252 0082 FFF7FEFF 		bl	mbedtls_ssl_config_defaults
 253              	.LVL25:
 373:Source\azure_iot_sdk\c-utility\adapters/tlsio_mbedtls.c ****     mbedtls_ssl_conf_rng(&instance->config, mbedtls_ctr_drbg_random, &instance->ctr_drbg);
 254              		.loc 1 373 0
ARM GAS  C:\Users\Phuong\AppData\Local\Temp\ccP1LXIT.s 			page 12


 255 0086 039A     		ldr	r2, [sp, #12]
 256 0088 1449     		ldr	r1, .L11+16
 257 008a 2000     		movs	r0, r4
 258 008c FFF7FEFF 		bl	mbedtls_ssl_conf_rng
 259              	.LVL26:
 374:Source\azure_iot_sdk\c-utility\adapters/tlsio_mbedtls.c ****     mbedtls_ssl_conf_authmode(&instance->config, MBEDTLS_SSL_VERIFY_REQUIRED);
 260              		.loc 1 374 0
 261 0090 0221     		movs	r1, #2
 262 0092 2000     		movs	r0, r4
 263 0094 FFF7FEFF 		bl	mbedtls_ssl_conf_authmode
 264              	.LVL27:
 375:Source\azure_iot_sdk\c-utility\adapters/tlsio_mbedtls.c ****     mbedtls_ssl_conf_min_version(&instance->config, MBEDTLS_SSL_MAJOR_VERSION_3, MBEDTLS_SSL_MINOR_
 265              		.loc 1 375 0
 266 0098 0322     		movs	r2, #3
 267 009a 0321     		movs	r1, #3
 268 009c 2000     		movs	r0, r4
 269 009e FFF7FEFF 		bl	mbedtls_ssl_conf_min_version
 270              	.LVL28:
 376:Source\azure_iot_sdk\c-utility\adapters/tlsio_mbedtls.c ****     mbedtls_ssl_set_bio(&instance->ssl, instance, on_io_send, on_io_recv, NULL);
 271              		.loc 1 376 0
 272 00a2 0097     		str	r7, [sp]
 273 00a4 0E4B     		ldr	r3, .L11+20
 274 00a6 0F4A     		ldr	r2, .L11+24
 275 00a8 3100     		movs	r1, r6
 276 00aa 2800     		movs	r0, r5
 277 00ac FFF7FEFF 		bl	mbedtls_ssl_set_bio
 278              	.LVL29:
 377:Source\azure_iot_sdk\c-utility\adapters/tlsio_mbedtls.c ****     mbedtls_ssl_set_hostname(&instance->ssl, host);
 279              		.loc 1 377 0
 280 00b0 0599     		ldr	r1, [sp, #20]
 281 00b2 2800     		movs	r0, r5
 282 00b4 FFF7FEFF 		bl	mbedtls_ssl_set_hostname
 283              	.LVL30:
 378:Source\azure_iot_sdk\c-utility\adapters/tlsio_mbedtls.c ****     mbedtls_ssl_set_session(&instance->ssl, &instance->ssn);
 284              		.loc 1 378 0
 285 00b8 0499     		ldr	r1, [sp, #16]
 286 00ba 2800     		movs	r0, r5
 287 00bc FFF7FEFF 		bl	mbedtls_ssl_set_session
 288              	.LVL31:
 379:Source\azure_iot_sdk\c-utility\adapters/tlsio_mbedtls.c **** 
 380:Source\azure_iot_sdk\c-utility\adapters/tlsio_mbedtls.c ****     // DEPRECATED: debug functions do not belong in the tree.
 381:Source\azure_iot_sdk\c-utility\adapters/tlsio_mbedtls.c **** #if defined (MBED_TLS_DEBUG_ENABLE)
 382:Source\azure_iot_sdk\c-utility\adapters/tlsio_mbedtls.c ****     mbedtls_ssl_conf_dbg(&instance->config, mbedtls_debug, stdout);
 383:Source\azure_iot_sdk\c-utility\adapters/tlsio_mbedtls.c ****     mbedtls_debug_set_threshold(1);
 384:Source\azure_iot_sdk\c-utility\adapters/tlsio_mbedtls.c **** #endif
 385:Source\azure_iot_sdk\c-utility\adapters/tlsio_mbedtls.c **** 
 386:Source\azure_iot_sdk\c-utility\adapters/tlsio_mbedtls.c ****     mbedtls_ssl_setup(&instance->ssl, &instance->config);
 289              		.loc 1 386 0
 290 00c0 2100     		movs	r1, r4
 291 00c2 2800     		movs	r0, r5
 292 00c4 FFF7FEFF 		bl	mbedtls_ssl_setup
 293              	.LVL32:
 387:Source\azure_iot_sdk\c-utility\adapters/tlsio_mbedtls.c **** }
 294              		.loc 1 387 0
 295 00c8 07B0     		add	sp, sp, #28
 296              		@ sp needed
 297              	.LVL33:
ARM GAS  C:\Users\Phuong\AppData\Local\Temp\ccP1LXIT.s 			page 13


 298 00ca F0BD     		pop	{r4, r5, r6, r7, pc}
 299              	.L12:
 300              		.align	2
 301              	.L11:
 302 00cc 0C070000 		.word	1804
 303 00d0 00000000 		.word	tlsio_entropy_poll
 304 00d4 5C000000 		.word	.LC6
 305 00d8 00000000 		.word	mbedtls_entropy_func
 306 00dc 00000000 		.word	mbedtls_ctr_drbg_random
 307 00e0 00000000 		.word	on_io_recv
 308 00e4 00000000 		.word	on_io_send
 309              		.cfi_endproc
 310              	.LFE28:
 311              		.size	mbedtls_init, .-mbedtls_init
 312              		.section	.text.tlsio_mbedtls_create,"ax",%progbits
 313              		.align	2
 314              		.global	tlsio_mbedtls_create
 315              		.code	16
 316              		.thumb_func
 317              		.type	tlsio_mbedtls_create, %function
 318              	tlsio_mbedtls_create:
 319              	.LFB29:
 388:Source\azure_iot_sdk\c-utility\adapters/tlsio_mbedtls.c **** 
 389:Source\azure_iot_sdk\c-utility\adapters/tlsio_mbedtls.c **** CONCRETE_IO_HANDLE tlsio_mbedtls_create(void* io_create_parameters)
 390:Source\azure_iot_sdk\c-utility\adapters/tlsio_mbedtls.c **** {
 320              		.loc 1 390 0
 321              		.cfi_startproc
 322              		@ args = 0, pretend = 0, frame = 16
 323              		@ frame_needed = 0, uses_anonymous_args = 0
 324              	.LVL34:
 325 0000 70B5     		push	{r4, r5, r6, lr}
 326              		.cfi_def_cfa_offset 16
 327              		.cfi_offset 4, -16
 328              		.cfi_offset 5, -12
 329              		.cfi_offset 6, -8
 330              		.cfi_offset 14, -4
 331 0002 86B0     		sub	sp, sp, #24
 332              		.cfi_def_cfa_offset 40
 333 0004 051E     		subs	r5, r0, #0
 334              	.LVL35:
 391:Source\azure_iot_sdk\c-utility\adapters/tlsio_mbedtls.c ****     TLSIO_CONFIG* tls_io_config = io_create_parameters;
 392:Source\azure_iot_sdk\c-utility\adapters/tlsio_mbedtls.c ****     TLS_IO_INSTANCE* result;
 393:Source\azure_iot_sdk\c-utility\adapters/tlsio_mbedtls.c **** 
 394:Source\azure_iot_sdk\c-utility\adapters/tlsio_mbedtls.c ****     if (tls_io_config == NULL)
 335              		.loc 1 394 0
 336 0006 10D1     		bne	.L14
 337              	.LBB4:
 395:Source\azure_iot_sdk\c-utility\adapters/tlsio_mbedtls.c ****     {
 396:Source\azure_iot_sdk\c-utility\adapters/tlsio_mbedtls.c ****         LogError("NULL tls_io_config");
 338              		.loc 1 396 0 discriminator 3
 339 0008 FFF7FEFF 		bl	xlogging_get_log_function
 340              	.LVL36:
 341 000c 041E     		subs	r4, r0, #0
 342              	.LVL37:
 343 000e 79D0     		beq	.L23
 344              		.loc 1 396 0 is_stmt 0 discriminator 4
 345 0010 3E4B     		ldr	r3, .L25
ARM GAS  C:\Users\Phuong\AppData\Local\Temp\ccP1LXIT.s 			page 14


 346 0012 0193     		str	r3, [sp, #4]
 347 0014 0123     		movs	r3, #1
 348 0016 0093     		str	r3, [sp]
 349 0018 8C33     		adds	r3, r3, #140
 350 001a FF33     		adds	r3, r3, #255
 351 001c 3C4A     		ldr	r2, .L25+4
 352 001e 3032     		adds	r2, r2, #48
 353 0020 3C49     		ldr	r1, .L25+8
 354 0022 0020     		movs	r0, #0
 355              	.LVL38:
 356 0024 A047     		blx	r4
 357              	.LVL39:
 358              	.LBE4:
 397:Source\azure_iot_sdk\c-utility\adapters/tlsio_mbedtls.c ****         result = NULL;
 359              		.loc 1 397 0 is_stmt 1 discriminator 4
 360 0026 0024     		movs	r4, #0
 361              	.LVL40:
 362 0028 6DE0     		b	.L15
 363              	.LVL41:
 364              	.L14:
 398:Source\azure_iot_sdk\c-utility\adapters/tlsio_mbedtls.c ****     }
 399:Source\azure_iot_sdk\c-utility\adapters/tlsio_mbedtls.c ****     else
 400:Source\azure_iot_sdk\c-utility\adapters/tlsio_mbedtls.c ****     {
 401:Source\azure_iot_sdk\c-utility\adapters/tlsio_mbedtls.c ****         result = malloc(sizeof(TLS_IO_INSTANCE));
 365              		.loc 1 401 0
 366 002a F220     		movs	r0, #242
 367              	.LVL42:
 368 002c C000     		lsls	r0, r0, #3
 369 002e FFF7FEFF 		bl	malloc
 370              	.LVL43:
 371 0032 041E     		subs	r4, r0, #0
 372              	.LVL44:
 402:Source\azure_iot_sdk\c-utility\adapters/tlsio_mbedtls.c ****         if (result != NULL)
 373              		.loc 1 402 0
 374 0034 56D0     		beq	.L16
 375              	.LBB5:
 403:Source\azure_iot_sdk\c-utility\adapters/tlsio_mbedtls.c ****         {
 404:Source\azure_iot_sdk\c-utility\adapters/tlsio_mbedtls.c ****             SOCKETIO_CONFIG socketio_config;
 405:Source\azure_iot_sdk\c-utility\adapters/tlsio_mbedtls.c ****             const IO_INTERFACE_DESCRIPTION* underlying_io_interface;
 406:Source\azure_iot_sdk\c-utility\adapters/tlsio_mbedtls.c ****             void* io_interface_parameters;
 407:Source\azure_iot_sdk\c-utility\adapters/tlsio_mbedtls.c **** 
 408:Source\azure_iot_sdk\c-utility\adapters/tlsio_mbedtls.c ****             if (tls_io_config->underlying_io_interface != NULL)
 376              		.loc 1 408 0
 377 0036 A868     		ldr	r0, [r5, #8]
 378              	.LVL45:
 379 0038 0028     		cmp	r0, #0
 380 003a 01D0     		beq	.L17
 381              	.LVL46:
 409:Source\azure_iot_sdk\c-utility\adapters/tlsio_mbedtls.c ****             {
 410:Source\azure_iot_sdk\c-utility\adapters/tlsio_mbedtls.c ****                 underlying_io_interface = tls_io_config->underlying_io_interface;
 411:Source\azure_iot_sdk\c-utility\adapters/tlsio_mbedtls.c ****                 io_interface_parameters = tls_io_config->underlying_io_parameters;
 382              		.loc 1 411 0
 383 003c E968     		ldr	r1, [r5, #12]
 384              	.LVL47:
 385 003e 08E0     		b	.L18
 386              	.LVL48:
 387              	.L17:
ARM GAS  C:\Users\Phuong\AppData\Local\Temp\ccP1LXIT.s 			page 15


 412:Source\azure_iot_sdk\c-utility\adapters/tlsio_mbedtls.c ****             }
 413:Source\azure_iot_sdk\c-utility\adapters/tlsio_mbedtls.c ****             else
 414:Source\azure_iot_sdk\c-utility\adapters/tlsio_mbedtls.c ****             {
 415:Source\azure_iot_sdk\c-utility\adapters/tlsio_mbedtls.c ****                 socketio_config.hostname = tls_io_config->hostname;
 388              		.loc 1 415 0
 389 0040 2B68     		ldr	r3, [r5]
 390 0042 0393     		str	r3, [sp, #12]
 416:Source\azure_iot_sdk\c-utility\adapters/tlsio_mbedtls.c ****                 socketio_config.port = tls_io_config->port;
 391              		.loc 1 416 0
 392 0044 6B68     		ldr	r3, [r5, #4]
 393 0046 0493     		str	r3, [sp, #16]
 417:Source\azure_iot_sdk\c-utility\adapters/tlsio_mbedtls.c ****                 socketio_config.accepted_socket = NULL;
 394              		.loc 1 417 0
 395 0048 0023     		movs	r3, #0
 396 004a 0593     		str	r3, [sp, #20]
 418:Source\azure_iot_sdk\c-utility\adapters/tlsio_mbedtls.c **** 
 419:Source\azure_iot_sdk\c-utility\adapters/tlsio_mbedtls.c ****                 underlying_io_interface = socketio_get_interface_description();
 397              		.loc 1 419 0
 398 004c FFF7FEFF 		bl	socketio_get_interface_description
 399              	.LVL49:
 420:Source\azure_iot_sdk\c-utility\adapters/tlsio_mbedtls.c ****                 io_interface_parameters = &socketio_config;
 400              		.loc 1 420 0
 401 0050 03A9     		add	r1, sp, #12
 402              	.LVL50:
 403              	.L18:
 421:Source\azure_iot_sdk\c-utility\adapters/tlsio_mbedtls.c ****             }
 422:Source\azure_iot_sdk\c-utility\adapters/tlsio_mbedtls.c **** 
 423:Source\azure_iot_sdk\c-utility\adapters/tlsio_mbedtls.c ****             if (underlying_io_interface == NULL)
 404              		.loc 1 423 0
 405 0052 0028     		cmp	r0, #0
 406 0054 13D1     		bne	.L19
 424:Source\azure_iot_sdk\c-utility\adapters/tlsio_mbedtls.c ****             {
 425:Source\azure_iot_sdk\c-utility\adapters/tlsio_mbedtls.c ****                 free(result);
 407              		.loc 1 425 0
 408 0056 2000     		movs	r0, r4
 409              	.LVL51:
 410 0058 FFF7FEFF 		bl	free
 411              	.LVL52:
 412              	.LBB6:
 426:Source\azure_iot_sdk\c-utility\adapters/tlsio_mbedtls.c ****                 result = NULL;
 427:Source\azure_iot_sdk\c-utility\adapters/tlsio_mbedtls.c ****                 LogError("Failed getting socket IO interface description.");
 413              		.loc 1 427 0
 414 005c FFF7FEFF 		bl	xlogging_get_log_function
 415              	.LVL53:
 416 0060 041E     		subs	r4, r0, #0
 417              	.LVL54:
 418 0062 3DD0     		beq	.L24
 419              		.loc 1 427 0 is_stmt 0 discriminator 4
 420 0064 2C4B     		ldr	r3, .L25+12
 421 0066 0193     		str	r3, [sp, #4]
 422 0068 0123     		movs	r3, #1
 423 006a 0093     		str	r3, [sp]
 424 006c AC23     		movs	r3, #172
 425 006e FF33     		adds	r3, r3, #255
 426 0070 274A     		ldr	r2, .L25+4
 427 0072 3032     		adds	r2, r2, #48
 428 0074 2749     		ldr	r1, .L25+8
ARM GAS  C:\Users\Phuong\AppData\Local\Temp\ccP1LXIT.s 			page 16


 429 0076 0020     		movs	r0, #0
 430              	.LVL55:
 431 0078 A047     		blx	r4
 432              	.LVL56:
 433              	.LBE6:
 426:Source\azure_iot_sdk\c-utility\adapters/tlsio_mbedtls.c ****                 result = NULL;
 434              		.loc 1 426 0 is_stmt 1 discriminator 4
 435 007a 0024     		movs	r4, #0
 436              	.LVL57:
 437 007c 43E0     		b	.L15
 438              	.LVL58:
 439              	.L19:
 428:Source\azure_iot_sdk\c-utility\adapters/tlsio_mbedtls.c ****             }
 429:Source\azure_iot_sdk\c-utility\adapters/tlsio_mbedtls.c ****             else
 430:Source\azure_iot_sdk\c-utility\adapters/tlsio_mbedtls.c ****             {
 431:Source\azure_iot_sdk\c-utility\adapters/tlsio_mbedtls.c ****                 result->on_bytes_received = NULL;
 440              		.loc 1 431 0
 441 007e 0023     		movs	r3, #0
 442 0080 6360     		str	r3, [r4, #4]
 432:Source\azure_iot_sdk\c-utility\adapters/tlsio_mbedtls.c ****                 result->on_bytes_received_context = NULL;
 443              		.loc 1 432 0
 444 0082 6361     		str	r3, [r4, #20]
 433:Source\azure_iot_sdk\c-utility\adapters/tlsio_mbedtls.c **** 
 434:Source\azure_iot_sdk\c-utility\adapters/tlsio_mbedtls.c ****                 result->on_io_open_complete = NULL;
 445              		.loc 1 434 0
 446 0084 A360     		str	r3, [r4, #8]
 435:Source\azure_iot_sdk\c-utility\adapters/tlsio_mbedtls.c ****                 result->on_io_open_complete_context = NULL;
 447              		.loc 1 435 0
 448 0086 A361     		str	r3, [r4, #24]
 436:Source\azure_iot_sdk\c-utility\adapters/tlsio_mbedtls.c **** 
 437:Source\azure_iot_sdk\c-utility\adapters/tlsio_mbedtls.c ****                 result->on_io_close_complete = NULL;
 449              		.loc 1 437 0
 450 0088 E360     		str	r3, [r4, #12]
 438:Source\azure_iot_sdk\c-utility\adapters/tlsio_mbedtls.c ****                 result->on_io_close_complete_context = NULL;
 451              		.loc 1 438 0
 452 008a E361     		str	r3, [r4, #28]
 439:Source\azure_iot_sdk\c-utility\adapters/tlsio_mbedtls.c **** 
 440:Source\azure_iot_sdk\c-utility\adapters/tlsio_mbedtls.c ****                 result->on_io_error = NULL;
 453              		.loc 1 440 0
 454 008c 2361     		str	r3, [r4, #16]
 441:Source\azure_iot_sdk\c-utility\adapters/tlsio_mbedtls.c ****                 result->on_io_error_context = NULL;
 455              		.loc 1 441 0
 456 008e 2362     		str	r3, [r4, #32]
 442:Source\azure_iot_sdk\c-utility\adapters/tlsio_mbedtls.c **** 
 443:Source\azure_iot_sdk\c-utility\adapters/tlsio_mbedtls.c ****                 result->trusted_certificates = NULL;
 457              		.loc 1 443 0
 458 0090 F122     		movs	r2, #241
 459 0092 D200     		lsls	r2, r2, #3
 460 0094 A350     		str	r3, [r4, r2]
 444:Source\azure_iot_sdk\c-utility\adapters/tlsio_mbedtls.c **** 
 445:Source\azure_iot_sdk\c-utility\adapters/tlsio_mbedtls.c ****                 result->socket_io = xio_create(underlying_io_interface, io_interface_parameters);
 461              		.loc 1 445 0
 462 0096 FFF7FEFF 		bl	xio_create
 463              	.LVL59:
 464 009a 2060     		str	r0, [r4]
 446:Source\azure_iot_sdk\c-utility\adapters/tlsio_mbedtls.c ****                 if (result->socket_io == NULL)
 465              		.loc 1 446 0
ARM GAS  C:\Users\Phuong\AppData\Local\Temp\ccP1LXIT.s 			page 17


 466 009c 0028     		cmp	r0, #0
 467 009e 13D1     		bne	.L21
 468              	.LBB7:
 447:Source\azure_iot_sdk\c-utility\adapters/tlsio_mbedtls.c ****                 {
 448:Source\azure_iot_sdk\c-utility\adapters/tlsio_mbedtls.c ****                     LogError("socket xio create failed");
 469              		.loc 1 448 0 discriminator 3
 470 00a0 FFF7FEFF 		bl	xlogging_get_log_function
 471              	.LVL60:
 472 00a4 051E     		subs	r5, r0, #0
 473              	.LVL61:
 474 00a6 0AD0     		beq	.L22
 475              		.loc 1 448 0 is_stmt 0 discriminator 4
 476 00a8 1C4B     		ldr	r3, .L25+16
 477 00aa 0193     		str	r3, [sp, #4]
 478 00ac 0123     		movs	r3, #1
 479 00ae 0093     		str	r3, [sp]
 480 00b0 C033     		adds	r3, r3, #192
 481 00b2 FF33     		adds	r3, r3, #255
 482 00b4 164A     		ldr	r2, .L25+4
 483 00b6 3032     		adds	r2, r2, #48
 484 00b8 1649     		ldr	r1, .L25+8
 485 00ba 0020     		movs	r0, #0
 486              	.LVL62:
 487 00bc A847     		blx	r5
 488              	.LVL63:
 489              	.L22:
 490              	.LBE7:
 449:Source\azure_iot_sdk\c-utility\adapters/tlsio_mbedtls.c ****                     free(result);
 491              		.loc 1 449 0 is_stmt 1
 492 00be 2000     		movs	r0, r4
 493 00c0 FFF7FEFF 		bl	free
 494              	.LVL64:
 450:Source\azure_iot_sdk\c-utility\adapters/tlsio_mbedtls.c ****                     result = NULL;
 495              		.loc 1 450 0
 496 00c4 0024     		movs	r4, #0
 497 00c6 1EE0     		b	.L15
 498              	.LVL65:
 499              	.L21:
 451:Source\azure_iot_sdk\c-utility\adapters/tlsio_mbedtls.c ****                 }
 452:Source\azure_iot_sdk\c-utility\adapters/tlsio_mbedtls.c ****                 else
 453:Source\azure_iot_sdk\c-utility\adapters/tlsio_mbedtls.c ****                 {
 454:Source\azure_iot_sdk\c-utility\adapters/tlsio_mbedtls.c ****                     result->socket_io_read_bytes = NULL;
 500              		.loc 1 454 0
 501 00c8 0026     		movs	r6, #0
 502 00ca A662     		str	r6, [r4, #40]
 455:Source\azure_iot_sdk\c-utility\adapters/tlsio_mbedtls.c ****                     result->socket_io_read_byte_count = 0;
 503              		.loc 1 455 0
 504 00cc E662     		str	r6, [r4, #44]
 456:Source\azure_iot_sdk\c-utility\adapters/tlsio_mbedtls.c ****                     result->on_send_complete = NULL;
 505              		.loc 1 456 0
 506 00ce 2663     		str	r6, [r4, #48]
 457:Source\azure_iot_sdk\c-utility\adapters/tlsio_mbedtls.c ****                     result->on_send_complete_callback_context = NULL;
 507              		.loc 1 457 0
 508 00d0 6663     		str	r6, [r4, #52]
 458:Source\azure_iot_sdk\c-utility\adapters/tlsio_mbedtls.c **** 
 459:Source\azure_iot_sdk\c-utility\adapters/tlsio_mbedtls.c ****                     // mbeTLS initialize
 460:Source\azure_iot_sdk\c-utility\adapters/tlsio_mbedtls.c ****                     mbedtls_init((void *)result, tls_io_config->hostname);
ARM GAS  C:\Users\Phuong\AppData\Local\Temp\ccP1LXIT.s 			page 18


 509              		.loc 1 460 0
 510 00d2 2968     		ldr	r1, [r5]
 511 00d4 2000     		movs	r0, r4
 512 00d6 FFF7FEFF 		bl	mbedtls_init
 513              	.LVL66:
 461:Source\azure_iot_sdk\c-utility\adapters/tlsio_mbedtls.c ****                     result->tlsio_state = TLSIO_STATE_NOT_OPEN;
 514              		.loc 1 461 0
 515 00da 2423     		movs	r3, #36
 516 00dc E654     		strb	r6, [r4, r3]
 517 00de 12E0     		b	.L15
 518              	.LVL67:
 519              	.L24:
 426:Source\azure_iot_sdk\c-utility\adapters/tlsio_mbedtls.c ****                 LogError("Failed getting socket IO interface description.");
 520              		.loc 1 426 0
 521 00e0 0024     		movs	r4, #0
 522 00e2 10E0     		b	.L15
 523              	.LVL68:
 524              	.L16:
 525              	.LBE5:
 526              	.LBB8:
 462:Source\azure_iot_sdk\c-utility\adapters/tlsio_mbedtls.c ****                 }
 463:Source\azure_iot_sdk\c-utility\adapters/tlsio_mbedtls.c ****             }
 464:Source\azure_iot_sdk\c-utility\adapters/tlsio_mbedtls.c ****         }
 465:Source\azure_iot_sdk\c-utility\adapters/tlsio_mbedtls.c ****         else
 466:Source\azure_iot_sdk\c-utility\adapters/tlsio_mbedtls.c ****         {
 467:Source\azure_iot_sdk\c-utility\adapters/tlsio_mbedtls.c ****             LogError("Failure allocating tlsio.");
 527              		.loc 1 467 0 discriminator 3
 528 00e4 FFF7FEFF 		bl	xlogging_get_log_function
 529              	.LVL69:
 530 00e8 051E     		subs	r5, r0, #0
 531              	.LVL70:
 532 00ea 0CD0     		beq	.L15
 533              		.loc 1 467 0 is_stmt 0 discriminator 4
 534 00ec 0C4B     		ldr	r3, .L25+20
 535 00ee 0193     		str	r3, [sp, #4]
 536 00f0 0123     		movs	r3, #1
 537 00f2 0093     		str	r3, [sp]
 538 00f4 D423     		movs	r3, #212
 539 00f6 FF33     		adds	r3, r3, #255
 540 00f8 054A     		ldr	r2, .L25+4
 541 00fa 3032     		adds	r2, r2, #48
 542 00fc 0549     		ldr	r1, .L25+8
 543 00fe 0020     		movs	r0, #0
 544              	.LVL71:
 545 0100 A847     		blx	r5
 546              	.LVL72:
 547 0102 00E0     		b	.L15
 548              	.LVL73:
 549              	.L23:
 550              	.LBE8:
 397:Source\azure_iot_sdk\c-utility\adapters/tlsio_mbedtls.c ****     }
 551              		.loc 1 397 0 is_stmt 1
 552 0104 0024     		movs	r4, #0
 553              	.LVL74:
 554              	.L15:
 468:Source\azure_iot_sdk\c-utility\adapters/tlsio_mbedtls.c ****         }
 469:Source\azure_iot_sdk\c-utility\adapters/tlsio_mbedtls.c ****     }
ARM GAS  C:\Users\Phuong\AppData\Local\Temp\ccP1LXIT.s 			page 19


 470:Source\azure_iot_sdk\c-utility\adapters/tlsio_mbedtls.c ****     return result;
 471:Source\azure_iot_sdk\c-utility\adapters/tlsio_mbedtls.c **** }
 555              		.loc 1 471 0
 556 0106 2000     		movs	r0, r4
 557 0108 06B0     		add	sp, sp, #24
 558              		@ sp needed
 559              	.LVL75:
 560 010a 70BD     		pop	{r4, r5, r6, pc}
 561              	.L26:
 562              		.align	2
 563              	.L25:
 564 010c 70000000 		.word	.LC14
 565 0110 00000000 		.word	.LANCHOR0
 566 0114 00000000 		.word	.LC1
 567 0118 84000000 		.word	.LC16
 568 011c B4000000 		.word	.LC18
 569 0120 D0000000 		.word	.LC20
 570              		.cfi_endproc
 571              	.LFE29:
 572              		.size	tlsio_mbedtls_create, .-tlsio_mbedtls_create
 573              		.section	.text.on_io_recv,"ax",%progbits
 574              		.align	2
 575              		.code	16
 576              		.thumb_func
 577              		.type	on_io_recv, %function
 578              	on_io_recv:
 579              	.LFB25:
 258:Source\azure_iot_sdk\c-utility\adapters/tlsio_mbedtls.c ****     int result;
 580              		.loc 1 258 0
 581              		.cfi_startproc
 582              		@ args = 0, pretend = 0, frame = 0
 583              		@ frame_needed = 0, uses_anonymous_args = 0
 584              	.LVL76:
 585 0000 F0B5     		push	{r4, r5, r6, r7, lr}
 586              		.cfi_def_cfa_offset 20
 587              		.cfi_offset 4, -20
 588              		.cfi_offset 5, -16
 589              		.cfi_offset 6, -12
 590              		.cfi_offset 7, -8
 591              		.cfi_offset 14, -4
 592 0002 83B0     		sub	sp, sp, #12
 593              		.cfi_def_cfa_offset 32
 594 0004 0400     		movs	r4, r0
 595 0006 0F00     		movs	r7, r1
 596 0008 1600     		movs	r6, r2
 260:Source\azure_iot_sdk\c-utility\adapters/tlsio_mbedtls.c ****     {
 597              		.loc 1 260 0
 598 000a 0028     		cmp	r0, #0
 599 000c 19D1     		bne	.L36
 600              	.LBB9:
 262:Source\azure_iot_sdk\c-utility\adapters/tlsio_mbedtls.c ****         result = MBEDTLS_ERR_SSL_BAD_INPUT_DATA;
 601              		.loc 1 262 0 discriminator 3
 602 000e FFF7FEFF 		bl	xlogging_get_log_function
 603              	.LVL77:
 604 0012 041E     		subs	r4, r0, #0
 605              	.LVL78:
 606 0014 45D0     		beq	.L37
ARM GAS  C:\Users\Phuong\AppData\Local\Temp\ccP1LXIT.s 			page 20


 262:Source\azure_iot_sdk\c-utility\adapters/tlsio_mbedtls.c ****         result = MBEDTLS_ERR_SSL_BAD_INPUT_DATA;
 607              		.loc 1 262 0 is_stmt 0 discriminator 4
 608 0016 254B     		ldr	r3, .L39
 609 0018 0193     		str	r3, [sp, #4]
 610 001a 0123     		movs	r3, #1
 611 001c 0093     		str	r3, [sp]
 612 001e 0633     		adds	r3, r3, #6
 613 0020 FF33     		adds	r3, r3, #255
 614 0022 234A     		ldr	r2, .L39+4
 615 0024 4832     		adds	r2, r2, #72
 616 0026 2349     		ldr	r1, .L39+8
 617 0028 0020     		movs	r0, #0
 618              	.LVL79:
 619 002a A047     		blx	r4
 620              	.LVL80:
 621              	.LBE9:
 263:Source\azure_iot_sdk\c-utility\adapters/tlsio_mbedtls.c ****     }
 622              		.loc 1 263 0 is_stmt 1 discriminator 4
 623 002c 2248     		ldr	r0, .L39+12
 624 002e 3BE0     		b	.L29
 625              	.LVL81:
 626              	.L31:
 627              	.LBB10:
 274:Source\azure_iot_sdk\c-utility\adapters/tlsio_mbedtls.c ****             if (tls_io_instance->tlsio_state == TLSIO_STATE_OPEN)
 628              		.loc 1 274 0
 629 0030 2068     		ldr	r0, [r4]
 630 0032 FFF7FEFF 		bl	xio_dowork
 631              	.LVL82:
 275:Source\azure_iot_sdk\c-utility\adapters/tlsio_mbedtls.c ****             {
 632              		.loc 1 275 0
 633 0036 2423     		movs	r3, #36
 634 0038 E35C     		ldrb	r3, [r4, r3]
 635 003a 032B     		cmp	r3, #3
 636 003c 07D0     		beq	.L30
 281:Source\azure_iot_sdk\c-utility\adapters/tlsio_mbedtls.c ****         }
 637              		.loc 1 281 0
 638 003e 0135     		adds	r5, r5, #1
 639              	.LVL83:
 640 0040 00E0     		b	.L28
 641              	.LVL84:
 642              	.L36:
 643              	.LBE10:
 644 0042 0025     		movs	r5, #0
 645              	.LVL85:
 646              	.L28:
 647              	.LBB11:
 272:Source\azure_iot_sdk\c-utility\adapters/tlsio_mbedtls.c ****         {
 648              		.loc 1 272 0
 649 0044 E36A     		ldr	r3, [r4, #44]
 650 0046 002B     		cmp	r3, #0
 651 0048 01D1     		bne	.L30
 272:Source\azure_iot_sdk\c-utility\adapters/tlsio_mbedtls.c ****         {
 652              		.loc 1 272 0 is_stmt 0 discriminator 1
 653 004a 042D     		cmp	r5, #4
 654 004c F0D9     		bls	.L31
 655              	.L30:
 284:Source\azure_iot_sdk\c-utility\adapters/tlsio_mbedtls.c ****         if (bytes_cnt > sz)
ARM GAS  C:\Users\Phuong\AppData\Local\Temp\ccP1LXIT.s 			page 21


 656              		.loc 1 284 0 is_stmt 1
 657 004e E36A     		ldr	r3, [r4, #44]
 658              	.LVL86:
 285:Source\azure_iot_sdk\c-utility\adapters/tlsio_mbedtls.c ****         {
 659              		.loc 1 285 0
 660 0050 B342     		cmp	r3, r6
 661 0052 00D8     		bhi	.L32
 284:Source\azure_iot_sdk\c-utility\adapters/tlsio_mbedtls.c ****         if (bytes_cnt > sz)
 662              		.loc 1 284 0
 663 0054 1E00     		movs	r6, r3
 664              	.LVL87:
 665              	.L32:
 290:Source\azure_iot_sdk\c-utility\adapters/tlsio_mbedtls.c ****         {
 666              		.loc 1 290 0
 667 0056 002E     		cmp	r6, #0
 668 0058 1BD0     		beq	.L33
 292:Source\azure_iot_sdk\c-utility\adapters/tlsio_mbedtls.c ****             (void)memmove(tls_io_instance->socket_io_read_bytes, tls_io_instance->socket_io_read_by
 669              		.loc 1 292 0
 670 005a 3200     		movs	r2, r6
 671 005c A16A     		ldr	r1, [r4, #40]
 672 005e 3800     		movs	r0, r7
 673 0060 FFF7FEFF 		bl	memcpy
 674              	.LVL88:
 293:Source\azure_iot_sdk\c-utility\adapters/tlsio_mbedtls.c ****             tls_io_instance->socket_io_read_byte_count -= bytes_cnt;
 675              		.loc 1 293 0
 676 0064 A36A     		ldr	r3, [r4, #40]
 677 0066 9919     		adds	r1, r3, r6
 678 0068 E36A     		ldr	r3, [r4, #44]
 679 006a 9A1B     		subs	r2, r3, r6
 680 006c A06A     		ldr	r0, [r4, #40]
 681 006e FFF7FEFF 		bl	memmove
 682              	.LVL89:
 294:Source\azure_iot_sdk\c-utility\adapters/tlsio_mbedtls.c ****             if (tls_io_instance->socket_io_read_byte_count > 0)
 683              		.loc 1 294 0
 684 0072 E36A     		ldr	r3, [r4, #44]
 685 0074 991B     		subs	r1, r3, r6
 686 0076 E162     		str	r1, [r4, #44]
 295:Source\azure_iot_sdk\c-utility\adapters/tlsio_mbedtls.c ****             {
 687              		.loc 1 295 0
 688 0078 06D0     		beq	.L34
 297:Source\azure_iot_sdk\c-utility\adapters/tlsio_mbedtls.c ****                 if (new_socket_io_read_bytes != NULL)
 689              		.loc 1 297 0
 690 007a A06A     		ldr	r0, [r4, #40]
 691 007c FFF7FEFF 		bl	realloc
 692              	.LVL90:
 298:Source\azure_iot_sdk\c-utility\adapters/tlsio_mbedtls.c ****                 {
 693              		.loc 1 298 0
 694 0080 0028     		cmp	r0, #0
 695 0082 06D0     		beq	.L33
 300:Source\azure_iot_sdk\c-utility\adapters/tlsio_mbedtls.c ****                 }
 696              		.loc 1 300 0
 697 0084 A062     		str	r0, [r4, #40]
 698 0086 04E0     		b	.L33
 699              	.LVL91:
 700              	.L34:
 305:Source\azure_iot_sdk\c-utility\adapters/tlsio_mbedtls.c ****                 tls_io_instance->socket_io_read_bytes = NULL;
 701              		.loc 1 305 0
ARM GAS  C:\Users\Phuong\AppData\Local\Temp\ccP1LXIT.s 			page 22


 702 0088 A06A     		ldr	r0, [r4, #40]
 703 008a FFF7FEFF 		bl	free
 704              	.LVL92:
 306:Source\azure_iot_sdk\c-utility\adapters/tlsio_mbedtls.c ****             }
 705              		.loc 1 306 0
 706 008e 0023     		movs	r3, #0
 707 0090 A362     		str	r3, [r4, #40]
 708              	.L33:
 310:Source\azure_iot_sdk\c-utility\adapters/tlsio_mbedtls.c ****         {
 709              		.loc 1 310 0
 710 0092 002E     		cmp	r6, #0
 711 0094 03D1     		bne	.L35
 310:Source\azure_iot_sdk\c-utility\adapters/tlsio_mbedtls.c ****         {
 712              		.loc 1 310 0 is_stmt 0 discriminator 1
 713 0096 2423     		movs	r3, #36
 714 0098 E35C     		ldrb	r3, [r4, r3]
 715 009a 032B     		cmp	r3, #3
 716 009c 03D0     		beq	.L38
 717              	.L35:
 316:Source\azure_iot_sdk\c-utility\adapters/tlsio_mbedtls.c ****         }
 718              		.loc 1 316 0 is_stmt 1
 719 009e 3000     		movs	r0, r6
 720              	.LVL93:
 721 00a0 02E0     		b	.L29
 722              	.LVL94:
 723              	.L37:
 724              	.LBE11:
 263:Source\azure_iot_sdk\c-utility\adapters/tlsio_mbedtls.c ****     }
 725              		.loc 1 263 0
 726 00a2 0548     		ldr	r0, .L39+12
 727              	.LVL95:
 728 00a4 00E0     		b	.L29
 729              	.LVL96:
 730              	.L38:
 731              	.LBB12:
 312:Source\azure_iot_sdk\c-utility\adapters/tlsio_mbedtls.c ****         }
 732              		.loc 1 312 0
 733 00a6 0548     		ldr	r0, .L39+16
 734              	.LVL97:
 735              	.L29:
 736              	.LBE12:
 320:Source\azure_iot_sdk\c-utility\adapters/tlsio_mbedtls.c **** 
 737              		.loc 1 320 0
 738 00a8 03B0     		add	sp, sp, #12
 739              		@ sp needed
 740              	.LVL98:
 741 00aa F0BD     		pop	{r4, r5, r6, r7, pc}
 742              	.L40:
 743              		.align	2
 744              	.L39:
 745 00ac 38000000 		.word	.LC3
 746 00b0 00000000 		.word	.LANCHOR0
 747 00b4 00000000 		.word	.LC1
 748 00b8 008FFFFF 		.word	-28928
 749 00bc 0097FFFF 		.word	-26880
 750              		.cfi_endproc
 751              	.LFE25:
ARM GAS  C:\Users\Phuong\AppData\Local\Temp\ccP1LXIT.s 			page 23


 752              		.size	on_io_recv, .-on_io_recv
 753              		.section	.text.on_underlying_io_bytes_received,"ax",%progbits
 754              		.align	2
 755              		.code	16
 756              		.thumb_func
 757              		.type	on_underlying_io_bytes_received, %function
 758              	on_underlying_io_bytes_received:
 759              	.LFB22:
 183:Source\azure_iot_sdk\c-utility\adapters/tlsio_mbedtls.c ****     if (context != NULL)
 760              		.loc 1 183 0
 761              		.cfi_startproc
 762              		@ args = 0, pretend = 0, frame = 0
 763              		@ frame_needed = 0, uses_anonymous_args = 0
 764              	.LVL99:
 765 0000 70B5     		push	{r4, r5, r6, lr}
 766              		.cfi_def_cfa_offset 16
 767              		.cfi_offset 4, -16
 768              		.cfi_offset 5, -12
 769              		.cfi_offset 6, -8
 770              		.cfi_offset 14, -4
 771 0002 82B0     		sub	sp, sp, #8
 772              		.cfi_def_cfa_offset 24
 773 0004 0400     		movs	r4, r0
 774 0006 0E00     		movs	r6, r1
 775 0008 1500     		movs	r5, r2
 184:Source\azure_iot_sdk\c-utility\adapters/tlsio_mbedtls.c ****     {
 776              		.loc 1 184 0
 777 000a 0028     		cmp	r0, #0
 778 000c 1AD0     		beq	.L42
 779              	.LVL100:
 780              	.LBB13:
 188:Source\azure_iot_sdk\c-utility\adapters/tlsio_mbedtls.c ****         if (new_socket_io_read_bytes == NULL)
 781              		.loc 1 188 0
 782 000e C36A     		ldr	r3, [r0, #44]
 783 0010 9918     		adds	r1, r3, r2
 784              	.LVL101:
 785 0012 806A     		ldr	r0, [r0, #40]
 786              	.LVL102:
 787 0014 FFF7FEFF 		bl	realloc
 788              	.LVL103:
 189:Source\azure_iot_sdk\c-utility\adapters/tlsio_mbedtls.c ****         {
 789              		.loc 1 189 0
 790 0018 0028     		cmp	r0, #0
 791 001a 06D1     		bne	.L43
 191:Source\azure_iot_sdk\c-utility\adapters/tlsio_mbedtls.c ****             indicate_error(tls_io_instance);
 792              		.loc 1 191 0
 793 001c 0522     		movs	r2, #5
 794 001e 2423     		movs	r3, #36
 795 0020 E254     		strb	r2, [r4, r3]
 192:Source\azure_iot_sdk\c-utility\adapters/tlsio_mbedtls.c ****         }
 796              		.loc 1 192 0
 797 0022 2000     		movs	r0, r4
 798              	.LVL104:
 799 0024 FFF7FEFF 		bl	indicate_error
 800              	.LVL105:
 801 0028 1AE0     		b	.L41
 802              	.LVL106:
ARM GAS  C:\Users\Phuong\AppData\Local\Temp\ccP1LXIT.s 			page 24


 803              	.L43:
 196:Source\azure_iot_sdk\c-utility\adapters/tlsio_mbedtls.c ****             (void)memcpy(tls_io_instance->socket_io_read_bytes + tls_io_instance->socket_io_read_by
 804              		.loc 1 196 0
 805 002a A062     		str	r0, [r4, #40]
 197:Source\azure_iot_sdk\c-utility\adapters/tlsio_mbedtls.c ****             tls_io_instance->socket_io_read_byte_count += size;
 806              		.loc 1 197 0
 807 002c E36A     		ldr	r3, [r4, #44]
 808 002e 9C46     		mov	ip, r3
 809 0030 6044     		add	r0, r0, ip
 810              	.LVL107:
 811 0032 2A00     		movs	r2, r5
 812 0034 3100     		movs	r1, r6
 813 0036 FFF7FEFF 		bl	memcpy
 814              	.LVL108:
 198:Source\azure_iot_sdk\c-utility\adapters/tlsio_mbedtls.c ****         }
 815              		.loc 1 198 0
 816 003a E36A     		ldr	r3, [r4, #44]
 817 003c 9C46     		mov	ip, r3
 818 003e 6544     		add	r5, r5, ip
 819              	.LVL109:
 820 0040 E562     		str	r5, [r4, #44]
 821 0042 0DE0     		b	.L41
 822              	.LVL110:
 823              	.L42:
 824              	.LBE13:
 825              	.LBB14:
 203:Source\azure_iot_sdk\c-utility\adapters/tlsio_mbedtls.c ****     }
 826              		.loc 1 203 0 discriminator 3
 827 0044 FFF7FEFF 		bl	xlogging_get_log_function
 828              	.LVL111:
 829 0048 041E     		subs	r4, r0, #0
 830              	.LVL112:
 831 004a 09D0     		beq	.L41
 203:Source\azure_iot_sdk\c-utility\adapters/tlsio_mbedtls.c ****     }
 832              		.loc 1 203 0 is_stmt 0 discriminator 4
 833 004c 054B     		ldr	r3, .L45
 834 004e 0193     		str	r3, [sp, #4]
 835 0050 0123     		movs	r3, #1
 836 0052 0093     		str	r3, [sp]
 837 0054 CA33     		adds	r3, r3, #202
 838 0056 044A     		ldr	r2, .L45+4
 839 0058 5432     		adds	r2, r2, #84
 840 005a 0449     		ldr	r1, .L45+8
 841 005c 0020     		movs	r0, #0
 842              	.LVL113:
 843 005e A047     		blx	r4
 844              	.LVL114:
 845              	.L41:
 846              	.LBE14:
 205:Source\azure_iot_sdk\c-utility\adapters/tlsio_mbedtls.c **** 
 847              		.loc 1 205 0 is_stmt 1
 848 0060 02B0     		add	sp, sp, #8
 849              		@ sp needed
 850              	.LVL115:
 851 0062 70BD     		pop	{r4, r5, r6, pc}
 852              	.L46:
 853              		.align	2
ARM GAS  C:\Users\Phuong\AppData\Local\Temp\ccP1LXIT.s 			page 25


 854              	.L45:
 855 0064 EC000000 		.word	.LC27
 856 0068 00000000 		.word	.LANCHOR0
 857 006c 00000000 		.word	.LC1
 858              		.cfi_endproc
 859              	.LFE22:
 860              		.size	on_underlying_io_bytes_received, .-on_underlying_io_bytes_received
 861              		.section	.text.on_io_send,"ax",%progbits
 862              		.align	2
 863              		.code	16
 864              		.thumb_func
 865              		.type	on_io_send, %function
 866              	on_io_send:
 867              	.LFB26:
 323:Source\azure_iot_sdk\c-utility\adapters/tlsio_mbedtls.c ****     int result;
 868              		.loc 1 323 0
 869              		.cfi_startproc
 870              		@ args = 0, pretend = 0, frame = 0
 871              		@ frame_needed = 0, uses_anonymous_args = 0
 872              	.LVL116:
 873 0000 30B5     		push	{r4, r5, lr}
 874              		.cfi_def_cfa_offset 12
 875              		.cfi_offset 4, -12
 876              		.cfi_offset 5, -8
 877              		.cfi_offset 14, -4
 878 0002 83B0     		sub	sp, sp, #12
 879              		.cfi_def_cfa_offset 24
 880 0004 0400     		movs	r4, r0
 881 0006 1500     		movs	r5, r2
 325:Source\azure_iot_sdk\c-utility\adapters/tlsio_mbedtls.c ****     {
 882              		.loc 1 325 0
 883 0008 0028     		cmp	r0, #0
 884 000a 10D1     		bne	.L48
 885              	.LBB15:
 327:Source\azure_iot_sdk\c-utility\adapters/tlsio_mbedtls.c ****         result = 0;
 886              		.loc 1 327 0 discriminator 3
 887 000c FFF7FEFF 		bl	xlogging_get_log_function
 888              	.LVL117:
 889 0010 041E     		subs	r4, r0, #0
 890              	.LVL118:
 891 0012 1ED0     		beq	.L51
 327:Source\azure_iot_sdk\c-utility\adapters/tlsio_mbedtls.c ****         result = 0;
 892              		.loc 1 327 0 is_stmt 0 discriminator 4
 893 0014 104B     		ldr	r3, .L52
 894 0016 0193     		str	r3, [sp, #4]
 895 0018 0123     		movs	r3, #1
 896 001a 0093     		str	r3, [sp]
 897 001c 4823     		movs	r3, #72
 898 001e FF33     		adds	r3, r3, #255
 899 0020 0E4A     		ldr	r2, .L52+4
 900 0022 7432     		adds	r2, r2, #116
 901 0024 0E49     		ldr	r1, .L52+8
 902 0026 0020     		movs	r0, #0
 903              	.LVL119:
 904 0028 A047     		blx	r4
 905              	.LVL120:
 906              	.LBE15:
ARM GAS  C:\Users\Phuong\AppData\Local\Temp\ccP1LXIT.s 			page 26


 328:Source\azure_iot_sdk\c-utility\adapters/tlsio_mbedtls.c ****     }
 907              		.loc 1 328 0 is_stmt 1 discriminator 4
 908 002a 0020     		movs	r0, #0
 909 002c 12E0     		b	.L49
 910              	.LVL121:
 911              	.L48:
 912              	.LBB16:
 333:Source\azure_iot_sdk\c-utility\adapters/tlsio_mbedtls.c ****         {
 913              		.loc 1 333 0
 914 002e 436B     		ldr	r3, [r0, #52]
 915 0030 0093     		str	r3, [sp]
 916 0032 036B     		ldr	r3, [r0, #48]
 917 0034 0068     		ldr	r0, [r0]
 918              	.LVL122:
 919 0036 FFF7FEFF 		bl	xio_send
 920              	.LVL123:
 921 003a 0028     		cmp	r0, #0
 922 003c 07D0     		beq	.L50
 335:Source\azure_iot_sdk\c-utility\adapters/tlsio_mbedtls.c ****             indicate_error(tls_io_instance);
 923              		.loc 1 335 0
 924 003e 0522     		movs	r2, #5
 925 0040 2423     		movs	r3, #36
 926 0042 E254     		strb	r2, [r4, r3]
 336:Source\azure_iot_sdk\c-utility\adapters/tlsio_mbedtls.c ****             result = 0;
 927              		.loc 1 336 0
 928 0044 2000     		movs	r0, r4
 929 0046 FFF7FEFF 		bl	indicate_error
 930              	.LVL124:
 337:Source\azure_iot_sdk\c-utility\adapters/tlsio_mbedtls.c ****         }
 931              		.loc 1 337 0
 932 004a 0020     		movs	r0, #0
 933 004c 02E0     		b	.L49
 934              	.LVL125:
 935              	.L50:
 341:Source\azure_iot_sdk\c-utility\adapters/tlsio_mbedtls.c ****         }
 936              		.loc 1 341 0
 937 004e 2800     		movs	r0, r5
 938              	.LVL126:
 939 0050 00E0     		b	.L49
 940              	.LVL127:
 941              	.L51:
 942              	.LBE16:
 328:Source\azure_iot_sdk\c-utility\adapters/tlsio_mbedtls.c ****     }
 943              		.loc 1 328 0
 944 0052 0020     		movs	r0, #0
 945              	.LVL128:
 946              	.L49:
 345:Source\azure_iot_sdk\c-utility\adapters/tlsio_mbedtls.c **** 
 947              		.loc 1 345 0
 948 0054 03B0     		add	sp, sp, #12
 949              		@ sp needed
 950              	.LVL129:
 951 0056 30BD     		pop	{r4, r5, pc}
 952              	.L53:
 953              		.align	2
 954              	.L52:
 955 0058 38000000 		.word	.LC3
ARM GAS  C:\Users\Phuong\AppData\Local\Temp\ccP1LXIT.s 			page 27


 956 005c 00000000 		.word	.LANCHOR0
 957 0060 00000000 		.word	.LC1
 958              		.cfi_endproc
 959              	.LFE26:
 960              		.size	on_io_send, .-on_io_send
 961              		.section	.text.tlsio_entropy_poll,"ax",%progbits
 962              		.align	2
 963              		.code	16
 964              		.thumb_func
 965              		.type	tlsio_entropy_poll, %function
 966              	tlsio_entropy_poll:
 967              	.LFB27:
 348:Source\azure_iot_sdk\c-utility\adapters/tlsio_mbedtls.c ****     (void)v;
 968              		.loc 1 348 0
 969              		.cfi_startproc
 970              		@ args = 0, pretend = 0, frame = 0
 971              		@ frame_needed = 0, uses_anonymous_args = 0
 972              	.LVL130:
 973 0000 F0B5     		push	{r4, r5, r6, r7, lr}
 974              		.cfi_def_cfa_offset 20
 975              		.cfi_offset 4, -20
 976              		.cfi_offset 5, -16
 977              		.cfi_offset 6, -12
 978              		.cfi_offset 7, -8
 979              		.cfi_offset 14, -4
 980 0002 4746     		mov	r7, r8
 981 0004 80B4     		push	{r7}
 982              		.cfi_def_cfa_offset 24
 983              		.cfi_offset 8, -24
 984 0006 0F00     		movs	r7, r1
 985 0008 1600     		movs	r6, r2
 986 000a 9846     		mov	r8, r3
 987              	.LVL131:
 351:Source\azure_iot_sdk\c-utility\adapters/tlsio_mbedtls.c ****     for (uint16_t i = 0; i < len; i++) {
 988              		.loc 1 351 0
 989 000c 0020     		movs	r0, #0
 990              	.LVL132:
 991 000e FFF7FEFF 		bl	time
 992              	.LVL133:
 993 0012 FFF7FEFF 		bl	srand
 994              	.LVL134:
 995              	.LBB17:
 352:Source\azure_iot_sdk\c-utility\adapters/tlsio_mbedtls.c ****         output[i] = rand() % 256;
 996              		.loc 1 352 0
 997 0016 0024     		movs	r4, #0
 998 0018 0BE0     		b	.L55
 999              	.LVL135:
 1000              	.L56:
 353:Source\azure_iot_sdk\c-utility\adapters/tlsio_mbedtls.c ****     }
 1001              		.loc 1 353 0 discriminator 3
 1002 001a 3D19     		adds	r5, r7, r4
 1003 001c FFF7FEFF 		bl	rand
 1004              	.LVL136:
 1005 0020 C317     		asrs	r3, r0, #31
 1006 0022 1B0E     		lsrs	r3, r3, #24
 1007 0024 C018     		adds	r0, r0, r3
 1008 0026 FF22     		movs	r2, #255
ARM GAS  C:\Users\Phuong\AppData\Local\Temp\ccP1LXIT.s 			page 28


 1009 0028 1040     		ands	r0, r2
 1010 002a C01A     		subs	r0, r0, r3
 1011 002c 2870     		strb	r0, [r5]
 352:Source\azure_iot_sdk\c-utility\adapters/tlsio_mbedtls.c ****         output[i] = rand() % 256;
 1012              		.loc 1 352 0 discriminator 3
 1013 002e 0134     		adds	r4, r4, #1
 1014              	.LVL137:
 1015 0030 A4B2     		uxth	r4, r4
 1016              	.LVL138:
 1017              	.L55:
 352:Source\azure_iot_sdk\c-utility\adapters/tlsio_mbedtls.c ****         output[i] = rand() % 256;
 1018              		.loc 1 352 0 is_stmt 0 discriminator 1
 1019 0032 B442     		cmp	r4, r6
 1020 0034 F1D3     		bcc	.L56
 1021              	.LBE17:
 355:Source\azure_iot_sdk\c-utility\adapters/tlsio_mbedtls.c ****     return result;
 1022              		.loc 1 355 0 is_stmt 1
 1023 0036 4346     		mov	r3, r8
 1024 0038 1E60     		str	r6, [r3]
 357:Source\azure_iot_sdk\c-utility\adapters/tlsio_mbedtls.c **** 
 1025              		.loc 1 357 0
 1026 003a 0020     		movs	r0, #0
 1027              		@ sp needed
 1028              	.LVL139:
 1029              	.LVL140:
 1030              	.LVL141:
 1031              	.LVL142:
 1032 003c 04BC     		pop	{r2}
 1033 003e 9046     		mov	r8, r2
 1034 0040 F0BD     		pop	{r4, r5, r6, r7, pc}
 1035              		.cfi_endproc
 1036              	.LFE27:
 1037              		.size	tlsio_entropy_poll, .-tlsio_entropy_poll
 1038 0042 C046     		.section	.text.tlsio_mbedtls_destroy,"ax",%progbits
 1039              		.align	2
 1040              		.global	tlsio_mbedtls_destroy
 1041              		.code	16
 1042              		.thumb_func
 1043              		.type	tlsio_mbedtls_destroy, %function
 1044              	tlsio_mbedtls_destroy:
 1045              	.LFB30:
 472:Source\azure_iot_sdk\c-utility\adapters/tlsio_mbedtls.c **** 
 473:Source\azure_iot_sdk\c-utility\adapters/tlsio_mbedtls.c **** void tlsio_mbedtls_destroy(CONCRETE_IO_HANDLE tls_io)
 474:Source\azure_iot_sdk\c-utility\adapters/tlsio_mbedtls.c **** {
 1046              		.loc 1 474 0
 1047              		.cfi_startproc
 1048              		@ args = 0, pretend = 0, frame = 0
 1049              		@ frame_needed = 0, uses_anonymous_args = 0
 1050              	.LVL143:
 1051 0000 10B5     		push	{r4, lr}
 1052              		.cfi_def_cfa_offset 8
 1053              		.cfi_offset 4, -8
 1054              		.cfi_offset 14, -4
 1055 0002 041E     		subs	r4, r0, #0
 475:Source\azure_iot_sdk\c-utility\adapters/tlsio_mbedtls.c ****     if (tls_io != NULL)
 1056              		.loc 1 475 0
 1057 0004 29D0     		beq	.L57
ARM GAS  C:\Users\Phuong\AppData\Local\Temp\ccP1LXIT.s 			page 29


 1058              	.LVL144:
 1059              	.LBB18:
 476:Source\azure_iot_sdk\c-utility\adapters/tlsio_mbedtls.c ****     {
 477:Source\azure_iot_sdk\c-utility\adapters/tlsio_mbedtls.c ****         TLS_IO_INSTANCE* tls_io_instance = (TLS_IO_INSTANCE*)tls_io;
 478:Source\azure_iot_sdk\c-utility\adapters/tlsio_mbedtls.c **** 
 479:Source\azure_iot_sdk\c-utility\adapters/tlsio_mbedtls.c ****         // mbedTLS cleanup...
 480:Source\azure_iot_sdk\c-utility\adapters/tlsio_mbedtls.c ****         mbedtls_ssl_free(&tls_io_instance->ssl);
 1060              		.loc 1 480 0
 1061 0006 FC23     		movs	r3, #252
 1062 0008 9B00     		lsls	r3, r3, #2
 1063 000a C018     		adds	r0, r0, r3
 1064              	.LVL145:
 1065 000c FFF7FEFF 		bl	mbedtls_ssl_free
 1066              	.LVL146:
 481:Source\azure_iot_sdk\c-utility\adapters/tlsio_mbedtls.c ****         mbedtls_ssl_config_free(&tls_io_instance->config);
 1067              		.loc 1 481 0
 1068 0010 A123     		movs	r3, #161
 1069 0012 DB00     		lsls	r3, r3, #3
 1070 0014 E018     		adds	r0, r4, r3
 1071 0016 FFF7FEFF 		bl	mbedtls_ssl_config_free
 1072              	.LVL147:
 482:Source\azure_iot_sdk\c-utility\adapters/tlsio_mbedtls.c ****         mbedtls_x509_crt_free(&tls_io_instance->trusted_certificates_parsed);
 1073              		.loc 1 482 0
 1074 001a BB23     		movs	r3, #187
 1075 001c DB00     		lsls	r3, r3, #3
 1076 001e E018     		adds	r0, r4, r3
 1077 0020 FFF7FEFF 		bl	mbedtls_x509_crt_free
 1078              	.LVL148:
 483:Source\azure_iot_sdk\c-utility\adapters/tlsio_mbedtls.c ****         mbedtls_ctr_drbg_free(&tls_io_instance->ctr_drbg);
 1079              		.loc 1 483 0
 1080 0024 AC23     		movs	r3, #172
 1081 0026 9B00     		lsls	r3, r3, #2
 1082 0028 E018     		adds	r0, r4, r3
 1083 002a FFF7FEFF 		bl	mbedtls_ctr_drbg_free
 1084              	.LVL149:
 484:Source\azure_iot_sdk\c-utility\adapters/tlsio_mbedtls.c ****         mbedtls_entropy_free(&tls_io_instance->entropy);
 1085              		.loc 1 484 0
 1086 002e 2000     		movs	r0, r4
 1087 0030 3830     		adds	r0, r0, #56
 1088 0032 FFF7FEFF 		bl	mbedtls_entropy_free
 1089              	.LVL150:
 485:Source\azure_iot_sdk\c-utility\adapters/tlsio_mbedtls.c **** 
 486:Source\azure_iot_sdk\c-utility\adapters/tlsio_mbedtls.c ****         if (tls_io_instance->socket_io_read_bytes != NULL)
 1090              		.loc 1 486 0
 1091 0036 A06A     		ldr	r0, [r4, #40]
 1092 0038 0028     		cmp	r0, #0
 1093 003a 01D0     		beq	.L59
 487:Source\azure_iot_sdk\c-utility\adapters/tlsio_mbedtls.c ****         {
 488:Source\azure_iot_sdk\c-utility\adapters/tlsio_mbedtls.c ****             free(tls_io_instance->socket_io_read_bytes);
 1094              		.loc 1 488 0
 1095 003c FFF7FEFF 		bl	free
 1096              	.LVL151:
 1097              	.L59:
 489:Source\azure_iot_sdk\c-utility\adapters/tlsio_mbedtls.c ****         }
 490:Source\azure_iot_sdk\c-utility\adapters/tlsio_mbedtls.c **** 
 491:Source\azure_iot_sdk\c-utility\adapters/tlsio_mbedtls.c ****         xio_destroy(tls_io_instance->socket_io);
 1098              		.loc 1 491 0
ARM GAS  C:\Users\Phuong\AppData\Local\Temp\ccP1LXIT.s 			page 30


 1099 0040 2068     		ldr	r0, [r4]
 1100 0042 FFF7FEFF 		bl	xio_destroy
 1101              	.LVL152:
 492:Source\azure_iot_sdk\c-utility\adapters/tlsio_mbedtls.c ****         if (tls_io_instance->trusted_certificates != NULL)
 1102              		.loc 1 492 0
 1103 0046 F123     		movs	r3, #241
 1104 0048 DB00     		lsls	r3, r3, #3
 1105 004a E058     		ldr	r0, [r4, r3]
 1106 004c 0028     		cmp	r0, #0
 1107 004e 01D0     		beq	.L60
 493:Source\azure_iot_sdk\c-utility\adapters/tlsio_mbedtls.c ****         {
 494:Source\azure_iot_sdk\c-utility\adapters/tlsio_mbedtls.c ****             free(tls_io_instance->trusted_certificates);
 1108              		.loc 1 494 0
 1109 0050 FFF7FEFF 		bl	free
 1110              	.LVL153:
 1111              	.L60:
 495:Source\azure_iot_sdk\c-utility\adapters/tlsio_mbedtls.c ****         }
 496:Source\azure_iot_sdk\c-utility\adapters/tlsio_mbedtls.c ****         free(tls_io);
 1112              		.loc 1 496 0
 1113 0054 2000     		movs	r0, r4
 1114 0056 FFF7FEFF 		bl	free
 1115              	.LVL154:
 1116              	.L57:
 1117              	.LBE18:
 497:Source\azure_iot_sdk\c-utility\adapters/tlsio_mbedtls.c ****     }
 498:Source\azure_iot_sdk\c-utility\adapters/tlsio_mbedtls.c **** }
 1118              		.loc 1 498 0
 1119              		@ sp needed
 1120              	.LVL155:
 1121 005a 10BD     		pop	{r4, pc}
 1122              		.cfi_endproc
 1123              	.LFE30:
 1124              		.size	tlsio_mbedtls_destroy, .-tlsio_mbedtls_destroy
 1125              		.section	.text.tlsio_mbedtls_open,"ax",%progbits
 1126              		.align	2
 1127              		.global	tlsio_mbedtls_open
 1128              		.code	16
 1129              		.thumb_func
 1130              		.type	tlsio_mbedtls_open, %function
 1131              	tlsio_mbedtls_open:
 1132              	.LFB31:
 499:Source\azure_iot_sdk\c-utility\adapters/tlsio_mbedtls.c **** 
 500:Source\azure_iot_sdk\c-utility\adapters/tlsio_mbedtls.c **** int tlsio_mbedtls_open(CONCRETE_IO_HANDLE tls_io, ON_IO_OPEN_COMPLETE on_io_open_complete, void* on
 501:Source\azure_iot_sdk\c-utility\adapters/tlsio_mbedtls.c **** {
 1133              		.loc 1 501 0
 1134              		.cfi_startproc
 1135              		@ args = 12, pretend = 0, frame = 0
 1136              		@ frame_needed = 0, uses_anonymous_args = 0
 1137              	.LVL156:
 1138 0000 30B5     		push	{r4, r5, lr}
 1139              		.cfi_def_cfa_offset 12
 1140              		.cfi_offset 4, -12
 1141              		.cfi_offset 5, -8
 1142              		.cfi_offset 14, -4
 1143 0002 85B0     		sub	sp, sp, #20
 1144              		.cfi_def_cfa_offset 32
 1145 0004 041E     		subs	r4, r0, #0
ARM GAS  C:\Users\Phuong\AppData\Local\Temp\ccP1LXIT.s 			page 31


 1146              	.LVL157:
 502:Source\azure_iot_sdk\c-utility\adapters/tlsio_mbedtls.c ****     int result = 0;
 503:Source\azure_iot_sdk\c-utility\adapters/tlsio_mbedtls.c **** 
 504:Source\azure_iot_sdk\c-utility\adapters/tlsio_mbedtls.c ****     if (tls_io == NULL)
 1147              		.loc 1 504 0
 1148 0006 10D1     		bne	.L62
 1149              	.LBB19:
 505:Source\azure_iot_sdk\c-utility\adapters/tlsio_mbedtls.c ****     {
 506:Source\azure_iot_sdk\c-utility\adapters/tlsio_mbedtls.c ****         LogError("NULL tls_io");
 1150              		.loc 1 506 0 discriminator 3
 1151 0008 FFF7FEFF 		bl	xlogging_get_log_function
 1152              	.LVL158:
 1153 000c 041E     		subs	r4, r0, #0
 1154              	.LVL159:
 1155 000e 4DD0     		beq	.L66
 1156              		.loc 1 506 0 is_stmt 0 discriminator 4
 1157 0010 2B4B     		ldr	r3, .L69
 1158 0012 0193     		str	r3, [sp, #4]
 1159 0014 0123     		movs	r3, #1
 1160 0016 0093     		str	r3, [sp]
 1161 0018 FA33     		adds	r3, r3, #250
 1162 001a FF33     		adds	r3, r3, #255
 1163 001c 294A     		ldr	r2, .L69+4
 1164 001e 2A49     		ldr	r1, .L69+8
 1165 0020 0020     		movs	r0, #0
 1166              	.LVL160:
 1167 0022 A047     		blx	r4
 1168              	.LVL161:
 1169              	.LBE19:
 507:Source\azure_iot_sdk\c-utility\adapters/tlsio_mbedtls.c ****         result = __FAILURE__;
 1170              		.loc 1 507 0 is_stmt 1 discriminator 4
 1171 0024 FC20     		movs	r0, #252
 1172 0026 FF30     		adds	r0, r0, #255
 1173 0028 47E0     		b	.L63
 1174              	.LVL162:
 1175              	.L62:
 1176              	.LBB20:
 508:Source\azure_iot_sdk\c-utility\adapters/tlsio_mbedtls.c ****     }
 509:Source\azure_iot_sdk\c-utility\adapters/tlsio_mbedtls.c ****     else
 510:Source\azure_iot_sdk\c-utility\adapters/tlsio_mbedtls.c ****     {
 511:Source\azure_iot_sdk\c-utility\adapters/tlsio_mbedtls.c ****         TLS_IO_INSTANCE* tls_io_instance = (TLS_IO_INSTANCE*)tls_io;
 512:Source\azure_iot_sdk\c-utility\adapters/tlsio_mbedtls.c **** 
 513:Source\azure_iot_sdk\c-utility\adapters/tlsio_mbedtls.c ****         if (tls_io_instance->tlsio_state != TLSIO_STATE_NOT_OPEN)
 1177              		.loc 1 513 0
 1178 002a 2420     		movs	r0, #36
 1179              	.LVL163:
 1180 002c 205C     		ldrb	r0, [r4, r0]
 1181 002e 0028     		cmp	r0, #0
 1182 0030 12D0     		beq	.L64
 1183              	.LBB21:
 514:Source\azure_iot_sdk\c-utility\adapters/tlsio_mbedtls.c ****         {
 515:Source\azure_iot_sdk\c-utility\adapters/tlsio_mbedtls.c ****             LogError("IO should not be open: %d\n", tls_io_instance->tlsio_state);
 1184              		.loc 1 515 0 discriminator 3
 1185 0032 FFF7FEFF 		bl	xlogging_get_log_function
 1186              	.LVL164:
 1187 0036 051E     		subs	r5, r0, #0
 1188              	.LVL165:
ARM GAS  C:\Users\Phuong\AppData\Local\Temp\ccP1LXIT.s 			page 32


 1189 0038 3BD0     		beq	.L67
 1190              		.loc 1 515 0 is_stmt 0 discriminator 4
 1191 003a 2423     		movs	r3, #36
 1192 003c E35C     		ldrb	r3, [r4, r3]
 1193 003e 0293     		str	r3, [sp, #8]
 1194 0040 224B     		ldr	r3, .L69+12
 1195 0042 0193     		str	r3, [sp, #4]
 1196 0044 0123     		movs	r3, #1
 1197 0046 0093     		str	r3, [sp]
 1198 0048 214B     		ldr	r3, .L69+16
 1199 004a 1E4A     		ldr	r2, .L69+4
 1200 004c 1E49     		ldr	r1, .L69+8
 1201 004e 0020     		movs	r0, #0
 1202              	.LVL166:
 1203 0050 A847     		blx	r5
 1204              	.LVL167:
 1205              	.LBE21:
 516:Source\azure_iot_sdk\c-utility\adapters/tlsio_mbedtls.c ****             result = __FAILURE__;
 1206              		.loc 1 516 0 is_stmt 1 discriminator 4
 1207 0052 8120     		movs	r0, #129
 1208 0054 8000     		lsls	r0, r0, #2
 1209 0056 30E0     		b	.L63
 1210              	.LVL168:
 1211              	.L64:
 517:Source\azure_iot_sdk\c-utility\adapters/tlsio_mbedtls.c ****         }
 518:Source\azure_iot_sdk\c-utility\adapters/tlsio_mbedtls.c ****         else
 519:Source\azure_iot_sdk\c-utility\adapters/tlsio_mbedtls.c ****         {
 520:Source\azure_iot_sdk\c-utility\adapters/tlsio_mbedtls.c ****             tls_io_instance->on_bytes_received = on_bytes_received;
 1212              		.loc 1 520 0
 1213 0058 6360     		str	r3, [r4, #4]
 521:Source\azure_iot_sdk\c-utility\adapters/tlsio_mbedtls.c ****             tls_io_instance->on_bytes_received_context = on_bytes_received_context;
 1214              		.loc 1 521 0
 1215 005a 089B     		ldr	r3, [sp, #32]
 1216              	.LVL169:
 1217 005c 6361     		str	r3, [r4, #20]
 522:Source\azure_iot_sdk\c-utility\adapters/tlsio_mbedtls.c **** 
 523:Source\azure_iot_sdk\c-utility\adapters/tlsio_mbedtls.c ****             tls_io_instance->on_io_open_complete = on_io_open_complete;
 1218              		.loc 1 523 0
 1219 005e A160     		str	r1, [r4, #8]
 524:Source\azure_iot_sdk\c-utility\adapters/tlsio_mbedtls.c ****             tls_io_instance->on_io_open_complete_context = on_io_open_complete_context;
 1220              		.loc 1 524 0
 1221 0060 A261     		str	r2, [r4, #24]
 525:Source\azure_iot_sdk\c-utility\adapters/tlsio_mbedtls.c **** 
 526:Source\azure_iot_sdk\c-utility\adapters/tlsio_mbedtls.c ****             tls_io_instance->on_io_error = on_io_error;
 1222              		.loc 1 526 0
 1223 0062 099B     		ldr	r3, [sp, #36]
 1224 0064 2361     		str	r3, [r4, #16]
 527:Source\azure_iot_sdk\c-utility\adapters/tlsio_mbedtls.c ****             tls_io_instance->on_io_error_context = on_io_error_context;
 1225              		.loc 1 527 0
 1226 0066 0A9B     		ldr	r3, [sp, #40]
 1227 0068 2362     		str	r3, [r4, #32]
 528:Source\azure_iot_sdk\c-utility\adapters/tlsio_mbedtls.c **** 
 529:Source\azure_iot_sdk\c-utility\adapters/tlsio_mbedtls.c ****             tls_io_instance->tlsio_state = TLSIO_STATE_OPENING_UNDERLYING_IO;
 1228              		.loc 1 529 0
 1229 006a 0122     		movs	r2, #1
 1230              	.LVL170:
 1231 006c 2423     		movs	r3, #36
ARM GAS  C:\Users\Phuong\AppData\Local\Temp\ccP1LXIT.s 			page 33


 1232 006e E254     		strb	r2, [r4, r3]
 1233              	.LVL171:
 530:Source\azure_iot_sdk\c-utility\adapters/tlsio_mbedtls.c **** 
 531:Source\azure_iot_sdk\c-utility\adapters/tlsio_mbedtls.c ****             if (xio_open(tls_io_instance->socket_io, on_underlying_io_open_complete, tls_io_instanc
 1234              		.loc 1 531 0
 1235 0070 0294     		str	r4, [sp, #8]
 1236 0072 184B     		ldr	r3, .L69+20
 1237 0074 0193     		str	r3, [sp, #4]
 1238 0076 0094     		str	r4, [sp]
 1239 0078 174B     		ldr	r3, .L69+24
 1240 007a 2200     		movs	r2, r4
 1241 007c 1749     		ldr	r1, .L69+28
 1242              	.LVL172:
 1243 007e 2068     		ldr	r0, [r4]
 1244 0080 FFF7FEFF 		bl	xio_open
 1245              	.LVL173:
 1246 0084 0028     		cmp	r0, #0
 1247 0086 17D0     		beq	.L68
 1248              	.LBB22:
 532:Source\azure_iot_sdk\c-utility\adapters/tlsio_mbedtls.c ****             {
 533:Source\azure_iot_sdk\c-utility\adapters/tlsio_mbedtls.c ****                 LogError("Underlying IO open failed");
 1249              		.loc 1 533 0 discriminator 3
 1250 0088 FFF7FEFF 		bl	xlogging_get_log_function
 1251              	.LVL174:
 1252 008c 051E     		subs	r5, r0, #0
 1253              	.LVL175:
 1254 008e 08D0     		beq	.L65
 1255              		.loc 1 533 0 is_stmt 0 discriminator 4
 1256 0090 134B     		ldr	r3, .L69+32
 1257 0092 0193     		str	r3, [sp, #4]
 1258 0094 0123     		movs	r3, #1
 1259 0096 0093     		str	r3, [sp]
 1260 0098 124B     		ldr	r3, .L69+36
 1261 009a 0A4A     		ldr	r2, .L69+4
 1262 009c 0A49     		ldr	r1, .L69+8
 1263 009e 0020     		movs	r0, #0
 1264              	.LVL176:
 1265 00a0 A847     		blx	r5
 1266              	.LVL177:
 1267              	.L65:
 1268              	.LBE22:
 534:Source\azure_iot_sdk\c-utility\adapters/tlsio_mbedtls.c ****                 tls_io_instance->tlsio_state = TLSIO_STATE_NOT_OPEN;
 1269              		.loc 1 534 0 is_stmt 1
 1270 00a2 0022     		movs	r2, #0
 1271 00a4 2423     		movs	r3, #36
 1272 00a6 E254     		strb	r2, [r4, r3]
 1273              	.LVL178:
 535:Source\azure_iot_sdk\c-utility\adapters/tlsio_mbedtls.c ****                 result = __FAILURE__;
 1274              		.loc 1 535 0
 1275 00a8 0F48     		ldr	r0, .L69+40
 1276 00aa 06E0     		b	.L63
 1277              	.LVL179:
 1278              	.L66:
 1279              	.LBE20:
 507:Source\azure_iot_sdk\c-utility\adapters/tlsio_mbedtls.c ****     }
 1280              		.loc 1 507 0
 1281 00ac FC20     		movs	r0, #252
ARM GAS  C:\Users\Phuong\AppData\Local\Temp\ccP1LXIT.s 			page 34


 1282              	.LVL180:
 1283 00ae FF30     		adds	r0, r0, #255
 1284 00b0 03E0     		b	.L63
 1285              	.LVL181:
 1286              	.L67:
 1287              	.LBB23:
 516:Source\azure_iot_sdk\c-utility\adapters/tlsio_mbedtls.c ****         }
 1288              		.loc 1 516 0
 1289 00b2 8120     		movs	r0, #129
 1290              	.LVL182:
 1291 00b4 8000     		lsls	r0, r0, #2
 1292 00b6 00E0     		b	.L63
 1293              	.LVL183:
 1294              	.L68:
 536:Source\azure_iot_sdk\c-utility\adapters/tlsio_mbedtls.c ****             }
 537:Source\azure_iot_sdk\c-utility\adapters/tlsio_mbedtls.c ****             else
 538:Source\azure_iot_sdk\c-utility\adapters/tlsio_mbedtls.c ****             {
 539:Source\azure_iot_sdk\c-utility\adapters/tlsio_mbedtls.c ****                 result = 0;
 1295              		.loc 1 539 0
 1296 00b8 0020     		movs	r0, #0
 1297              	.LVL184:
 1298              	.L63:
 1299              	.LBE23:
 540:Source\azure_iot_sdk\c-utility\adapters/tlsio_mbedtls.c ****             }
 541:Source\azure_iot_sdk\c-utility\adapters/tlsio_mbedtls.c ****         }
 542:Source\azure_iot_sdk\c-utility\adapters/tlsio_mbedtls.c ****     }
 543:Source\azure_iot_sdk\c-utility\adapters/tlsio_mbedtls.c **** 
 544:Source\azure_iot_sdk\c-utility\adapters/tlsio_mbedtls.c ****     return result;
 545:Source\azure_iot_sdk\c-utility\adapters/tlsio_mbedtls.c **** }
 1300              		.loc 1 545 0
 1301 00ba 05B0     		add	sp, sp, #20
 1302              		@ sp needed
 1303 00bc 30BD     		pop	{r4, r5, pc}
 1304              	.L70:
 1305 00be C046     		.align	2
 1306              	.L69:
 1307 00c0 0C010000 		.word	.LC34
 1308 00c4 80000000 		.word	.LANCHOR1
 1309 00c8 00000000 		.word	.LC1
 1310 00cc 18010000 		.word	.LC36
 1311 00d0 03020000 		.word	515
 1312 00d4 00000000 		.word	on_underlying_io_error
 1313 00d8 00000000 		.word	on_underlying_io_bytes_received
 1314 00dc 00000000 		.word	on_underlying_io_open_complete
 1315 00e0 34010000 		.word	.LC41
 1316 00e4 15020000 		.word	533
 1317 00e8 17020000 		.word	535
 1318              		.cfi_endproc
 1319              	.LFE31:
 1320              		.size	tlsio_mbedtls_open, .-tlsio_mbedtls_open
 1321              		.section	.text.on_underlying_io_error,"ax",%progbits
 1322              		.align	2
 1323              		.code	16
 1324              		.thumb_func
 1325              		.type	on_underlying_io_error, %function
 1326              	on_underlying_io_error:
 1327              	.LFB23:
ARM GAS  C:\Users\Phuong\AppData\Local\Temp\ccP1LXIT.s 			page 35


 208:Source\azure_iot_sdk\c-utility\adapters/tlsio_mbedtls.c ****     if (context == NULL)
 1328              		.loc 1 208 0
 1329              		.cfi_startproc
 1330              		@ args = 0, pretend = 0, frame = 0
 1331              		@ frame_needed = 0, uses_anonymous_args = 0
 1332              	.LVL185:
 1333 0000 10B5     		push	{r4, lr}
 1334              		.cfi_def_cfa_offset 8
 1335              		.cfi_offset 4, -8
 1336              		.cfi_offset 14, -4
 1337 0002 82B0     		sub	sp, sp, #8
 1338              		.cfi_def_cfa_offset 16
 1339 0004 041E     		subs	r4, r0, #0
 209:Source\azure_iot_sdk\c-utility\adapters/tlsio_mbedtls.c ****     {
 1340              		.loc 1 209 0
 1341 0006 0ED1     		bne	.L72
 1342              	.LBB24:
 211:Source\azure_iot_sdk\c-utility\adapters/tlsio_mbedtls.c ****     }
 1343              		.loc 1 211 0 discriminator 3
 1344 0008 FFF7FEFF 		bl	xlogging_get_log_function
 1345              	.LVL186:
 1346 000c 041E     		subs	r4, r0, #0
 1347              	.LVL187:
 1348 000e 25D0     		beq	.L71
 211:Source\azure_iot_sdk\c-utility\adapters/tlsio_mbedtls.c ****     }
 1349              		.loc 1 211 0 is_stmt 0 discriminator 4
 1350 0010 134B     		ldr	r3, .L76
 1351 0012 0193     		str	r3, [sp, #4]
 1352 0014 0123     		movs	r3, #1
 1353 0016 0093     		str	r3, [sp]
 1354 0018 D233     		adds	r3, r3, #210
 1355 001a 124A     		ldr	r2, .L76+4
 1356 001c 1432     		adds	r2, r2, #20
 1357 001e 1249     		ldr	r1, .L76+8
 1358 0020 0020     		movs	r0, #0
 1359              	.LVL188:
 1360 0022 A047     		blx	r4
 1361              	.LVL189:
 1362 0024 1AE0     		b	.L71
 1363              	.LVL190:
 1364              	.L72:
 1365              	.LBE24:
 1366              	.LBB25:
 216:Source\azure_iot_sdk\c-utility\adapters/tlsio_mbedtls.c ****         {
 1367              		.loc 1 216 0 is_stmt 1
 1368 0026 2423     		movs	r3, #36
 1369 0028 C35C     		ldrb	r3, [r0, r3]
 1370 002a 002B     		cmp	r3, #0
 1371 002c 16D0     		beq	.L71
 1372 002e 022B     		cmp	r3, #2
 1373 0030 02D9     		bls	.L74
 1374 0032 032B     		cmp	r3, #3
 1375 0034 0DD0     		beq	.L75
 1376 0036 11E0     		b	.L71
 1377              	.L74:
 227:Source\azure_iot_sdk\c-utility\adapters/tlsio_mbedtls.c ****                 tls_io_instance->tlsio_state = TLSIO_STATE_NOT_OPEN;
 1378              		.loc 1 227 0
ARM GAS  C:\Users\Phuong\AppData\Local\Temp\ccP1LXIT.s 			page 36


 1379 0038 0022     		movs	r2, #0
 1380 003a 0021     		movs	r1, #0
 1381 003c 0068     		ldr	r0, [r0]
 1382              	.LVL191:
 1383 003e FFF7FEFF 		bl	xio_close
 1384              	.LVL192:
 228:Source\azure_iot_sdk\c-utility\adapters/tlsio_mbedtls.c ****                 indicate_open_complete(tls_io_instance, IO_OPEN_ERROR);
 1385              		.loc 1 228 0
 1386 0042 0022     		movs	r2, #0
 1387 0044 2423     		movs	r3, #36
 1388 0046 E254     		strb	r2, [r4, r3]
 229:Source\azure_iot_sdk\c-utility\adapters/tlsio_mbedtls.c ****                 break;
 1389              		.loc 1 229 0
 1390 0048 0121     		movs	r1, #1
 1391 004a 2000     		movs	r0, r4
 1392 004c FFF7FEFF 		bl	indicate_open_complete
 1393              	.LVL193:
 230:Source\azure_iot_sdk\c-utility\adapters/tlsio_mbedtls.c **** 
 1394              		.loc 1 230 0
 1395 0050 04E0     		b	.L71
 1396              	.LVL194:
 1397              	.L75:
 233:Source\azure_iot_sdk\c-utility\adapters/tlsio_mbedtls.c ****                 indicate_error(tls_io_instance);
 1398              		.loc 1 233 0
 1399 0052 0522     		movs	r2, #5
 1400 0054 2423     		movs	r3, #36
 1401 0056 C254     		strb	r2, [r0, r3]
 234:Source\azure_iot_sdk\c-utility\adapters/tlsio_mbedtls.c ****                 break;
 1402              		.loc 1 234 0
 1403 0058 FFF7FEFF 		bl	indicate_error
 1404              	.LVL195:
 1405              	.L71:
 1406              	.LBE25:
 238:Source\azure_iot_sdk\c-utility\adapters/tlsio_mbedtls.c **** 
 1407              		.loc 1 238 0
 1408 005c 02B0     		add	sp, sp, #8
 1409              		@ sp needed
 1410 005e 10BD     		pop	{r4, pc}
 1411              	.L77:
 1412              		.align	2
 1413              	.L76:
 1414 0060 38000000 		.word	.LC3
 1415 0064 80000000 		.word	.LANCHOR1
 1416 0068 00000000 		.word	.LC1
 1417              		.cfi_endproc
 1418              	.LFE23:
 1419              		.size	on_underlying_io_error, .-on_underlying_io_error
 1420              		.section	.text.on_underlying_io_open_complete,"ax",%progbits
 1421              		.align	2
 1422              		.code	16
 1423              		.thumb_func
 1424              		.type	on_underlying_io_open_complete, %function
 1425              	on_underlying_io_open_complete:
 1426              	.LFB21:
 145:Source\azure_iot_sdk\c-utility\adapters/tlsio_mbedtls.c ****     if (context == NULL)
 1427              		.loc 1 145 0
 1428              		.cfi_startproc
ARM GAS  C:\Users\Phuong\AppData\Local\Temp\ccP1LXIT.s 			page 37


 1429              		@ args = 0, pretend = 0, frame = 0
 1430              		@ frame_needed = 0, uses_anonymous_args = 0
 1431              	.LVL196:
 1432 0000 10B5     		push	{r4, lr}
 1433              		.cfi_def_cfa_offset 8
 1434              		.cfi_offset 4, -8
 1435              		.cfi_offset 14, -4
 1436 0002 82B0     		sub	sp, sp, #8
 1437              		.cfi_def_cfa_offset 16
 1438 0004 041E     		subs	r4, r0, #0
 146:Source\azure_iot_sdk\c-utility\adapters/tlsio_mbedtls.c ****     {
 1439              		.loc 1 146 0
 1440 0006 0ED1     		bne	.L79
 1441              	.LBB26:
 148:Source\azure_iot_sdk\c-utility\adapters/tlsio_mbedtls.c ****     }
 1442              		.loc 1 148 0 discriminator 3
 1443 0008 FFF7FEFF 		bl	xlogging_get_log_function
 1444              	.LVL197:
 1445 000c 041E     		subs	r4, r0, #0
 1446              	.LVL198:
 1447 000e 32D0     		beq	.L78
 148:Source\azure_iot_sdk\c-utility\adapters/tlsio_mbedtls.c ****     }
 1448              		.loc 1 148 0 is_stmt 0 discriminator 4
 1449 0010 1A4B     		ldr	r3, .L84
 1450 0012 0193     		str	r3, [sp, #4]
 1451 0014 0123     		movs	r3, #1
 1452 0016 0093     		str	r3, [sp]
 1453 0018 9333     		adds	r3, r3, #147
 1454 001a 194A     		ldr	r2, .L84+4
 1455 001c 2C32     		adds	r2, r2, #44
 1456 001e 1949     		ldr	r1, .L84+8
 1457 0020 0020     		movs	r0, #0
 1458              	.LVL199:
 1459 0022 A047     		blx	r4
 1460              	.LVL200:
 1461 0024 27E0     		b	.L78
 1462              	.LVL201:
 1463              	.L79:
 1464              	.LBE26:
 1465              	.LBB27:
 155:Source\azure_iot_sdk\c-utility\adapters/tlsio_mbedtls.c ****         {
 1466              		.loc 1 155 0 is_stmt 1
 1467 0026 0029     		cmp	r1, #0
 1468 0028 06D0     		beq	.L81
 157:Source\azure_iot_sdk\c-utility\adapters/tlsio_mbedtls.c ****             indicate_open_complete(tls_io_instance, IO_OPEN_ERROR);
 1469              		.loc 1 157 0
 1470 002a 0022     		movs	r2, #0
 1471 002c 2423     		movs	r3, #36
 1472 002e C254     		strb	r2, [r0, r3]
 158:Source\azure_iot_sdk\c-utility\adapters/tlsio_mbedtls.c ****         }
 1473              		.loc 1 158 0
 1474 0030 0121     		movs	r1, #1
 1475              	.LVL202:
 1476 0032 FFF7FEFF 		bl	indicate_open_complete
 1477              	.LVL203:
 1478 0036 1EE0     		b	.L78
 1479              	.LVL204:
ARM GAS  C:\Users\Phuong\AppData\Local\Temp\ccP1LXIT.s 			page 38


 1480              	.L81:
 162:Source\azure_iot_sdk\c-utility\adapters/tlsio_mbedtls.c **** 
 1481              		.loc 1 162 0
 1482 0038 0222     		movs	r2, #2
 1483 003a 2423     		movs	r3, #36
 1484 003c C254     		strb	r2, [r0, r3]
 1485              	.LVL205:
 1486              	.L82:
 165:Source\azure_iot_sdk\c-utility\adapters/tlsio_mbedtls.c ****             } while (result == MBEDTLS_ERR_SSL_WANT_READ || result == MBEDTLS_ERR_SSL_WANT_WRITE);
 1487              		.loc 1 165 0 discriminator 3
 1488 003e FC23     		movs	r3, #252
 1489 0040 9B00     		lsls	r3, r3, #2
 1490 0042 E018     		adds	r0, r4, r3
 1491 0044 FFF7FEFF 		bl	mbedtls_ssl_handshake
 1492              	.LVL206:
 166:Source\azure_iot_sdk\c-utility\adapters/tlsio_mbedtls.c **** 
 1493              		.loc 1 166 0 discriminator 3
 1494 0048 0F4B     		ldr	r3, .L84+12
 1495 004a 9842     		cmp	r0, r3
 1496 004c F7D0     		beq	.L82
 166:Source\azure_iot_sdk\c-utility\adapters/tlsio_mbedtls.c **** 
 1497              		.loc 1 166 0 is_stmt 0 discriminator 2
 1498 004e 0F4B     		ldr	r3, .L84+16
 1499 0050 9842     		cmp	r0, r3
 1500 0052 F4D0     		beq	.L82
 168:Source\azure_iot_sdk\c-utility\adapters/tlsio_mbedtls.c ****             {
 1501              		.loc 1 168 0 is_stmt 1
 1502 0054 0028     		cmp	r0, #0
 1503 0056 07D1     		bne	.L83
 170:Source\azure_iot_sdk\c-utility\adapters/tlsio_mbedtls.c ****                 indicate_open_complete(tls_io_instance, IO_OPEN_OK);
 1504              		.loc 1 170 0
 1505 0058 0322     		movs	r2, #3
 1506 005a 2423     		movs	r3, #36
 1507 005c E254     		strb	r2, [r4, r3]
 171:Source\azure_iot_sdk\c-utility\adapters/tlsio_mbedtls.c ****             }
 1508              		.loc 1 171 0
 1509 005e 0021     		movs	r1, #0
 1510 0060 2000     		movs	r0, r4
 1511              	.LVL207:
 1512 0062 FFF7FEFF 		bl	indicate_open_complete
 1513              	.LVL208:
 1514 0066 06E0     		b	.L78
 1515              	.LVL209:
 1516              	.L83:
 175:Source\azure_iot_sdk\c-utility\adapters/tlsio_mbedtls.c ****                 indicate_open_complete(tls_io_instance, IO_OPEN_ERROR);
 1517              		.loc 1 175 0
 1518 0068 0022     		movs	r2, #0
 1519 006a 2423     		movs	r3, #36
 1520 006c E254     		strb	r2, [r4, r3]
 176:Source\azure_iot_sdk\c-utility\adapters/tlsio_mbedtls.c ****             }
 1521              		.loc 1 176 0
 1522 006e 0121     		movs	r1, #1
 1523 0070 2000     		movs	r0, r4
 1524              	.LVL210:
 1525 0072 FFF7FEFF 		bl	indicate_open_complete
 1526              	.LVL211:
 1527              	.L78:
ARM GAS  C:\Users\Phuong\AppData\Local\Temp\ccP1LXIT.s 			page 39


 1528              	.LBE27:
 180:Source\azure_iot_sdk\c-utility\adapters/tlsio_mbedtls.c **** 
 1529              		.loc 1 180 0
 1530 0076 02B0     		add	sp, sp, #8
 1531              		@ sp needed
 1532 0078 10BD     		pop	{r4, pc}
 1533              	.L85:
 1534 007a C046     		.align	2
 1535              	.L84:
 1536 007c 38000000 		.word	.LC3
 1537 0080 80000000 		.word	.LANCHOR1
 1538 0084 00000000 		.word	.LC1
 1539 0088 0097FFFF 		.word	-26880
 1540 008c 8097FFFF 		.word	-26752
 1541              		.cfi_endproc
 1542              	.LFE21:
 1543              		.size	on_underlying_io_open_complete, .-on_underlying_io_open_complete
 1544              		.section	.text.tlsio_mbedtls_close,"ax",%progbits
 1545              		.align	2
 1546              		.global	tlsio_mbedtls_close
 1547              		.code	16
 1548              		.thumb_func
 1549              		.type	tlsio_mbedtls_close, %function
 1550              	tlsio_mbedtls_close:
 1551              	.LFB32:
 546:Source\azure_iot_sdk\c-utility\adapters/tlsio_mbedtls.c **** 
 547:Source\azure_iot_sdk\c-utility\adapters/tlsio_mbedtls.c **** int tlsio_mbedtls_close(CONCRETE_IO_HANDLE tls_io, ON_IO_CLOSE_COMPLETE on_io_close_complete, void*
 548:Source\azure_iot_sdk\c-utility\adapters/tlsio_mbedtls.c **** {
 1552              		.loc 1 548 0
 1553              		.cfi_startproc
 1554              		@ args = 0, pretend = 0, frame = 0
 1555              		@ frame_needed = 0, uses_anonymous_args = 0
 1556              	.LVL212:
 1557 0000 10B5     		push	{r4, lr}
 1558              		.cfi_def_cfa_offset 8
 1559              		.cfi_offset 4, -8
 1560              		.cfi_offset 14, -4
 1561 0002 041E     		subs	r4, r0, #0
 1562              	.LVL213:
 549:Source\azure_iot_sdk\c-utility\adapters/tlsio_mbedtls.c ****     int result = 0;
 550:Source\azure_iot_sdk\c-utility\adapters/tlsio_mbedtls.c **** 
 551:Source\azure_iot_sdk\c-utility\adapters/tlsio_mbedtls.c ****     if (tls_io == NULL)
 1563              		.loc 1 551 0
 1564 0004 18D0     		beq	.L88
 1565              	.LVL214:
 1566              	.LBB28:
 552:Source\azure_iot_sdk\c-utility\adapters/tlsio_mbedtls.c ****     {
 553:Source\azure_iot_sdk\c-utility\adapters/tlsio_mbedtls.c ****         result = __FAILURE__;
 554:Source\azure_iot_sdk\c-utility\adapters/tlsio_mbedtls.c ****     }
 555:Source\azure_iot_sdk\c-utility\adapters/tlsio_mbedtls.c ****     else
 556:Source\azure_iot_sdk\c-utility\adapters/tlsio_mbedtls.c ****     {
 557:Source\azure_iot_sdk\c-utility\adapters/tlsio_mbedtls.c ****         TLS_IO_INSTANCE* tls_io_instance = (TLS_IO_INSTANCE*)tls_io;
 558:Source\azure_iot_sdk\c-utility\adapters/tlsio_mbedtls.c **** 
 559:Source\azure_iot_sdk\c-utility\adapters/tlsio_mbedtls.c ****         if ((tls_io_instance->tlsio_state == TLSIO_STATE_NOT_OPEN) ||
 1567              		.loc 1 559 0
 1568 0006 2423     		movs	r3, #36
 1569 0008 C35C     		ldrb	r3, [r0, r3]
ARM GAS  C:\Users\Phuong\AppData\Local\Temp\ccP1LXIT.s 			page 40


 1570 000a 002B     		cmp	r3, #0
 1571 000c 16D0     		beq	.L89
 1572              		.loc 1 559 0 is_stmt 0 discriminator 1
 1573 000e 042B     		cmp	r3, #4
 1574 0010 16D0     		beq	.L90
 560:Source\azure_iot_sdk\c-utility\adapters/tlsio_mbedtls.c ****             (tls_io_instance->tlsio_state == TLSIO_STATE_CLOSING))
 561:Source\azure_iot_sdk\c-utility\adapters/tlsio_mbedtls.c ****         {
 562:Source\azure_iot_sdk\c-utility\adapters/tlsio_mbedtls.c ****             result = __FAILURE__;
 563:Source\azure_iot_sdk\c-utility\adapters/tlsio_mbedtls.c ****         }
 564:Source\azure_iot_sdk\c-utility\adapters/tlsio_mbedtls.c ****         else
 565:Source\azure_iot_sdk\c-utility\adapters/tlsio_mbedtls.c ****         {
 566:Source\azure_iot_sdk\c-utility\adapters/tlsio_mbedtls.c ****             tls_io_instance->tlsio_state = TLSIO_STATE_CLOSING;
 1575              		.loc 1 566 0 is_stmt 1
 1576 0012 0420     		movs	r0, #4
 1577              	.LVL215:
 1578 0014 2423     		movs	r3, #36
 1579 0016 E054     		strb	r0, [r4, r3]
 567:Source\azure_iot_sdk\c-utility\adapters/tlsio_mbedtls.c ****             tls_io_instance->on_io_close_complete = on_io_close_complete;
 1580              		.loc 1 567 0
 1581 0018 E160     		str	r1, [r4, #12]
 568:Source\azure_iot_sdk\c-utility\adapters/tlsio_mbedtls.c ****             tls_io_instance->on_io_close_complete_context = callback_context;
 1582              		.loc 1 568 0
 1583 001a E261     		str	r2, [r4, #28]
 569:Source\azure_iot_sdk\c-utility\adapters/tlsio_mbedtls.c ****             mbedtls_ssl_close_notify(&tls_io_instance->ssl);
 1584              		.loc 1 569 0
 1585 001c FC23     		movs	r3, #252
 1586 001e 9B00     		lsls	r3, r3, #2
 1587 0020 E018     		adds	r0, r4, r3
 1588 0022 FFF7FEFF 		bl	mbedtls_ssl_close_notify
 1589              	.LVL216:
 570:Source\azure_iot_sdk\c-utility\adapters/tlsio_mbedtls.c **** 
 571:Source\azure_iot_sdk\c-utility\adapters/tlsio_mbedtls.c ****             if (xio_close(tls_io_instance->socket_io,
 1590              		.loc 1 571 0
 1591 0026 2068     		ldr	r0, [r4]
 1592 0028 2200     		movs	r2, r4
 1593 002a 0749     		ldr	r1, .L92
 1594 002c FFF7FEFF 		bl	xio_close
 1595              	.LVL217:
 1596 0030 0028     		cmp	r0, #0
 1597 0032 07D0     		beq	.L91
 572:Source\azure_iot_sdk\c-utility\adapters/tlsio_mbedtls.c ****                 on_underlying_io_close_complete_during_close, tls_io_instance) != 0)
 573:Source\azure_iot_sdk\c-utility\adapters/tlsio_mbedtls.c ****             {
 574:Source\azure_iot_sdk\c-utility\adapters/tlsio_mbedtls.c ****                 result = __FAILURE__;
 1598              		.loc 1 574 0
 1599 0034 0548     		ldr	r0, .L92+4
 1600 0036 06E0     		b	.L87
 1601              	.LVL218:
 1602              	.L88:
 1603              	.LBE28:
 553:Source\azure_iot_sdk\c-utility\adapters/tlsio_mbedtls.c ****     }
 1604              		.loc 1 553 0
 1605 0038 0548     		ldr	r0, .L92+8
 1606              	.LVL219:
 1607 003a 04E0     		b	.L87
 1608              	.LVL220:
 1609              	.L89:
 1610              	.LBB29:
ARM GAS  C:\Users\Phuong\AppData\Local\Temp\ccP1LXIT.s 			page 41


 562:Source\azure_iot_sdk\c-utility\adapters/tlsio_mbedtls.c ****         }
 1611              		.loc 1 562 0
 1612 003c 0548     		ldr	r0, .L92+12
 1613              	.LVL221:
 1614 003e 02E0     		b	.L87
 1615              	.LVL222:
 1616              	.L90:
 1617 0040 0448     		ldr	r0, .L92+12
 1618              	.LVL223:
 1619 0042 00E0     		b	.L87
 1620              	.LVL224:
 1621              	.L91:
 575:Source\azure_iot_sdk\c-utility\adapters/tlsio_mbedtls.c ****             }
 576:Source\azure_iot_sdk\c-utility\adapters/tlsio_mbedtls.c ****             else
 577:Source\azure_iot_sdk\c-utility\adapters/tlsio_mbedtls.c ****             {
 578:Source\azure_iot_sdk\c-utility\adapters/tlsio_mbedtls.c ****                 result = 0;
 1622              		.loc 1 578 0
 1623 0044 0020     		movs	r0, #0
 1624              	.LVL225:
 1625              	.L87:
 1626              	.LBE29:
 579:Source\azure_iot_sdk\c-utility\adapters/tlsio_mbedtls.c ****             }
 580:Source\azure_iot_sdk\c-utility\adapters/tlsio_mbedtls.c ****         }
 581:Source\azure_iot_sdk\c-utility\adapters/tlsio_mbedtls.c ****     }
 582:Source\azure_iot_sdk\c-utility\adapters/tlsio_mbedtls.c **** 
 583:Source\azure_iot_sdk\c-utility\adapters/tlsio_mbedtls.c ****     return result;
 584:Source\azure_iot_sdk\c-utility\adapters/tlsio_mbedtls.c **** }
 1627              		.loc 1 584 0
 1628              		@ sp needed
 1629              	.LVL226:
 1630 0046 10BD     		pop	{r4, pc}
 1631              	.L93:
 1632              		.align	2
 1633              	.L92:
 1634 0048 00000000 		.word	on_underlying_io_close_complete_during_close
 1635 004c 3E020000 		.word	574
 1636 0050 29020000 		.word	553
 1637 0054 32020000 		.word	562
 1638              		.cfi_endproc
 1639              	.LFE32:
 1640              		.size	tlsio_mbedtls_close, .-tlsio_mbedtls_close
 1641              		.section	.text.tlsio_mbedtls_send,"ax",%progbits
 1642              		.align	2
 1643              		.global	tlsio_mbedtls_send
 1644              		.code	16
 1645              		.thumb_func
 1646              		.type	tlsio_mbedtls_send, %function
 1647              	tlsio_mbedtls_send:
 1648              	.LFB33:
 585:Source\azure_iot_sdk\c-utility\adapters/tlsio_mbedtls.c **** 
 586:Source\azure_iot_sdk\c-utility\adapters/tlsio_mbedtls.c **** int tlsio_mbedtls_send(CONCRETE_IO_HANDLE tls_io, const void* buffer, size_t size, ON_SEND_COMPLETE
 587:Source\azure_iot_sdk\c-utility\adapters/tlsio_mbedtls.c **** {
 1649              		.loc 1 587 0
 1650              		.cfi_startproc
 1651              		@ args = 4, pretend = 0, frame = 0
 1652              		@ frame_needed = 0, uses_anonymous_args = 0
 1653              	.LVL227:
ARM GAS  C:\Users\Phuong\AppData\Local\Temp\ccP1LXIT.s 			page 42


 1654 0000 10B5     		push	{r4, lr}
 1655              		.cfi_def_cfa_offset 8
 1656              		.cfi_offset 4, -8
 1657              		.cfi_offset 14, -4
 1658 0002 1400     		movs	r4, r2
 588:Source\azure_iot_sdk\c-utility\adapters/tlsio_mbedtls.c ****     int result;
 589:Source\azure_iot_sdk\c-utility\adapters/tlsio_mbedtls.c **** 
 590:Source\azure_iot_sdk\c-utility\adapters/tlsio_mbedtls.c ****     if (tls_io == NULL)
 1659              		.loc 1 590 0
 1660 0004 0028     		cmp	r0, #0
 1661 0006 11D0     		beq	.L96
 1662              	.LVL228:
 1663              	.LBB30:
 591:Source\azure_iot_sdk\c-utility\adapters/tlsio_mbedtls.c ****     {
 592:Source\azure_iot_sdk\c-utility\adapters/tlsio_mbedtls.c ****         result = __FAILURE__;
 593:Source\azure_iot_sdk\c-utility\adapters/tlsio_mbedtls.c ****     }
 594:Source\azure_iot_sdk\c-utility\adapters/tlsio_mbedtls.c ****     else
 595:Source\azure_iot_sdk\c-utility\adapters/tlsio_mbedtls.c ****     {
 596:Source\azure_iot_sdk\c-utility\adapters/tlsio_mbedtls.c ****         TLS_IO_INSTANCE* tls_io_instance = (TLS_IO_INSTANCE*)tls_io;
 597:Source\azure_iot_sdk\c-utility\adapters/tlsio_mbedtls.c **** 
 598:Source\azure_iot_sdk\c-utility\adapters/tlsio_mbedtls.c ****         if (tls_io_instance->tlsio_state != TLSIO_STATE_OPEN)
 1664              		.loc 1 598 0
 1665 0008 2422     		movs	r2, #36
 1666              	.LVL229:
 1667 000a 825C     		ldrb	r2, [r0, r2]
 1668 000c 032A     		cmp	r2, #3
 1669 000e 10D1     		bne	.L97
 1670              	.LBB31:
 599:Source\azure_iot_sdk\c-utility\adapters/tlsio_mbedtls.c ****         {
 600:Source\azure_iot_sdk\c-utility\adapters/tlsio_mbedtls.c ****             result = __FAILURE__;
 601:Source\azure_iot_sdk\c-utility\adapters/tlsio_mbedtls.c ****         }
 602:Source\azure_iot_sdk\c-utility\adapters/tlsio_mbedtls.c ****         else
 603:Source\azure_iot_sdk\c-utility\adapters/tlsio_mbedtls.c ****         {
 604:Source\azure_iot_sdk\c-utility\adapters/tlsio_mbedtls.c ****             tls_io_instance->on_send_complete = on_send_complete;
 1671              		.loc 1 604 0
 1672 0010 0363     		str	r3, [r0, #48]
 605:Source\azure_iot_sdk\c-utility\adapters/tlsio_mbedtls.c ****             tls_io_instance->on_send_complete_callback_context = callback_context;
 1673              		.loc 1 605 0
 1674 0012 029B     		ldr	r3, [sp, #8]
 1675              	.LVL230:
 1676 0014 4363     		str	r3, [r0, #52]
 606:Source\azure_iot_sdk\c-utility\adapters/tlsio_mbedtls.c **** 
 607:Source\azure_iot_sdk\c-utility\adapters/tlsio_mbedtls.c ****             int res = mbedtls_ssl_write(&tls_io_instance->ssl, buffer, size);
 1677              		.loc 1 607 0
 1678 0016 FC23     		movs	r3, #252
 1679 0018 9B00     		lsls	r3, r3, #2
 1680 001a 9C46     		mov	ip, r3
 1681 001c 6044     		add	r0, r0, ip
 1682              	.LVL231:
 1683 001e 2200     		movs	r2, r4
 1684 0020 FFF7FEFF 		bl	mbedtls_ssl_write
 1685              	.LVL232:
 608:Source\azure_iot_sdk\c-utility\adapters/tlsio_mbedtls.c ****             if (res != (int)size)
 1686              		.loc 1 608 0
 1687 0024 A042     		cmp	r0, r4
 1688 0026 07D0     		beq	.L98
 609:Source\azure_iot_sdk\c-utility\adapters/tlsio_mbedtls.c ****             {
ARM GAS  C:\Users\Phuong\AppData\Local\Temp\ccP1LXIT.s 			page 43


 610:Source\azure_iot_sdk\c-utility\adapters/tlsio_mbedtls.c ****                 result = __FAILURE__;
 1689              		.loc 1 610 0
 1690 0028 0448     		ldr	r0, .L99
 1691              	.LVL233:
 1692 002a 06E0     		b	.L95
 1693              	.LVL234:
 1694              	.L96:
 1695              	.LBE31:
 1696              	.LBE30:
 592:Source\azure_iot_sdk\c-utility\adapters/tlsio_mbedtls.c ****     }
 1697              		.loc 1 592 0
 1698 002c 9420     		movs	r0, #148
 1699              	.LVL235:
 1700 002e 8000     		lsls	r0, r0, #2
 1701 0030 03E0     		b	.L95
 1702              	.LVL236:
 1703              	.L97:
 1704              	.LBB33:
 600:Source\azure_iot_sdk\c-utility\adapters/tlsio_mbedtls.c ****         }
 1705              		.loc 1 600 0
 1706 0032 9620     		movs	r0, #150
 1707              	.LVL237:
 1708 0034 8000     		lsls	r0, r0, #2
 1709 0036 00E0     		b	.L95
 1710              	.LVL238:
 1711              	.L98:
 1712              	.LBB32:
 611:Source\azure_iot_sdk\c-utility\adapters/tlsio_mbedtls.c ****             }
 612:Source\azure_iot_sdk\c-utility\adapters/tlsio_mbedtls.c ****             else
 613:Source\azure_iot_sdk\c-utility\adapters/tlsio_mbedtls.c ****             {
 614:Source\azure_iot_sdk\c-utility\adapters/tlsio_mbedtls.c ****                 result = 0;
 1713              		.loc 1 614 0
 1714 0038 0020     		movs	r0, #0
 1715              	.LVL239:
 1716              	.L95:
 1717              	.LBE32:
 1718              	.LBE33:
 615:Source\azure_iot_sdk\c-utility\adapters/tlsio_mbedtls.c ****             }
 616:Source\azure_iot_sdk\c-utility\adapters/tlsio_mbedtls.c ****         }
 617:Source\azure_iot_sdk\c-utility\adapters/tlsio_mbedtls.c ****     }
 618:Source\azure_iot_sdk\c-utility\adapters/tlsio_mbedtls.c ****     return result;
 619:Source\azure_iot_sdk\c-utility\adapters/tlsio_mbedtls.c **** }
 1719              		.loc 1 619 0
 1720              		@ sp needed
 1721              	.LVL240:
 1722 003a 10BD     		pop	{r4, pc}
 1723              	.L100:
 1724              		.align	2
 1725              	.L99:
 1726 003c 62020000 		.word	610
 1727              		.cfi_endproc
 1728              	.LFE33:
 1729              		.size	tlsio_mbedtls_send, .-tlsio_mbedtls_send
 1730              		.section	.text.decode_ssl_received_bytes,"ax",%progbits
 1731              		.align	2
 1732              		.code	16
 1733              		.thumb_func
ARM GAS  C:\Users\Phuong\AppData\Local\Temp\ccP1LXIT.s 			page 44


 1734              		.type	decode_ssl_received_bytes, %function
 1735              	decode_ssl_received_bytes:
 1736              	.LFB20:
 124:Source\azure_iot_sdk\c-utility\adapters/tlsio_mbedtls.c ****     int result = 0;
 1737              		.loc 1 124 0
 1738              		.cfi_startproc
 1739              		@ args = 0, pretend = 0, frame = 64
 1740              		@ frame_needed = 0, uses_anonymous_args = 0
 1741              	.LVL241:
 1742 0000 30B5     		push	{r4, r5, lr}
 1743              		.cfi_def_cfa_offset 12
 1744              		.cfi_offset 4, -12
 1745              		.cfi_offset 5, -8
 1746              		.cfi_offset 14, -4
 1747 0002 91B0     		sub	sp, sp, #68
 1748              		.cfi_def_cfa_offset 80
 1749 0004 0500     		movs	r5, r0
 1750              	.LVL242:
 127:Source\azure_iot_sdk\c-utility\adapters/tlsio_mbedtls.c **** 
 1751              		.loc 1 127 0
 1752 0006 0124     		movs	r4, #1
 129:Source\azure_iot_sdk\c-utility\adapters/tlsio_mbedtls.c ****     {
 1753              		.loc 1 129 0
 1754 0008 0FE0     		b	.L102
 1755              	.LVL243:
 1756              	.L104:
 131:Source\azure_iot_sdk\c-utility\adapters/tlsio_mbedtls.c ****         if (rcv_bytes > 0)
 1757              		.loc 1 131 0
 1758 000a FC23     		movs	r3, #252
 1759 000c 9B00     		lsls	r3, r3, #2
 1760 000e E818     		adds	r0, r5, r3
 1761 0010 4022     		movs	r2, #64
 1762 0012 6946     		mov	r1, sp
 1763 0014 FFF7FEFF 		bl	mbedtls_ssl_read
 1764              	.LVL244:
 1765 0018 041E     		subs	r4, r0, #0
 1766              	.LVL245:
 132:Source\azure_iot_sdk\c-utility\adapters/tlsio_mbedtls.c ****         {
 1767              		.loc 1 132 0
 1768 001a 06DD     		ble	.L102
 134:Source\azure_iot_sdk\c-utility\adapters/tlsio_mbedtls.c ****             {
 1769              		.loc 1 134 0
 1770 001c 6B68     		ldr	r3, [r5, #4]
 1771 001e 002B     		cmp	r3, #0
 1772 0020 03D0     		beq	.L102
 136:Source\azure_iot_sdk\c-utility\adapters/tlsio_mbedtls.c ****             }
 1773              		.loc 1 136 0
 1774 0022 0200     		movs	r2, r0
 1775 0024 6946     		mov	r1, sp
 1776 0026 6869     		ldr	r0, [r5, #20]
 1777              	.LVL246:
 1778 0028 9847     		blx	r3
 1779              	.LVL247:
 1780              	.L102:
 129:Source\azure_iot_sdk\c-utility\adapters/tlsio_mbedtls.c ****     {
 1781              		.loc 1 129 0
 1782 002a 002C     		cmp	r4, #0
ARM GAS  C:\Users\Phuong\AppData\Local\Temp\ccP1LXIT.s 			page 45


 1783 002c EDDC     		bgt	.L104
 142:Source\azure_iot_sdk\c-utility\adapters/tlsio_mbedtls.c **** 
 1784              		.loc 1 142 0
 1785 002e 0020     		movs	r0, #0
 1786 0030 11B0     		add	sp, sp, #68
 1787              		@ sp needed
 1788              	.LVL248:
 1789              	.LVL249:
 1790 0032 30BD     		pop	{r4, r5, pc}
 1791              		.cfi_endproc
 1792              	.LFE20:
 1793              		.size	decode_ssl_received_bytes, .-decode_ssl_received_bytes
 1794              		.section	.text.tlsio_mbedtls_dowork,"ax",%progbits
 1795              		.align	2
 1796              		.global	tlsio_mbedtls_dowork
 1797              		.code	16
 1798              		.thumb_func
 1799              		.type	tlsio_mbedtls_dowork, %function
 1800              	tlsio_mbedtls_dowork:
 1801              	.LFB34:
 620:Source\azure_iot_sdk\c-utility\adapters/tlsio_mbedtls.c **** 
 621:Source\azure_iot_sdk\c-utility\adapters/tlsio_mbedtls.c **** void tlsio_mbedtls_dowork(CONCRETE_IO_HANDLE tls_io)
 622:Source\azure_iot_sdk\c-utility\adapters/tlsio_mbedtls.c **** {
 1802              		.loc 1 622 0
 1803              		.cfi_startproc
 1804              		@ args = 0, pretend = 0, frame = 0
 1805              		@ frame_needed = 0, uses_anonymous_args = 0
 1806              	.LVL250:
 1807 0000 10B5     		push	{r4, lr}
 1808              		.cfi_def_cfa_offset 8
 1809              		.cfi_offset 4, -8
 1810              		.cfi_offset 14, -4
 1811 0002 041E     		subs	r4, r0, #0
 623:Source\azure_iot_sdk\c-utility\adapters/tlsio_mbedtls.c ****     if (tls_io != NULL)
 1812              		.loc 1 623 0
 1813 0004 0AD0     		beq	.L105
 1814              	.LVL251:
 1815              	.LBB34:
 624:Source\azure_iot_sdk\c-utility\adapters/tlsio_mbedtls.c ****     {
 625:Source\azure_iot_sdk\c-utility\adapters/tlsio_mbedtls.c ****         TLS_IO_INSTANCE* tls_io_instance = (TLS_IO_INSTANCE*)tls_io;
 626:Source\azure_iot_sdk\c-utility\adapters/tlsio_mbedtls.c **** 
 627:Source\azure_iot_sdk\c-utility\adapters/tlsio_mbedtls.c ****         if ((tls_io_instance->tlsio_state != TLSIO_STATE_NOT_OPEN) &&
 1816              		.loc 1 627 0
 1817 0006 2423     		movs	r3, #36
 1818 0008 C35C     		ldrb	r3, [r0, r3]
 1819 000a 002B     		cmp	r3, #0
 1820 000c 06D0     		beq	.L105
 1821              		.loc 1 627 0 is_stmt 0 discriminator 1
 1822 000e 052B     		cmp	r3, #5
 1823 0010 04D0     		beq	.L105
 628:Source\azure_iot_sdk\c-utility\adapters/tlsio_mbedtls.c ****             (tls_io_instance->tlsio_state != TLSIO_STATE_ERROR))
 629:Source\azure_iot_sdk\c-utility\adapters/tlsio_mbedtls.c ****         {
 630:Source\azure_iot_sdk\c-utility\adapters/tlsio_mbedtls.c ****             decode_ssl_received_bytes(tls_io_instance);
 1824              		.loc 1 630 0 is_stmt 1
 1825 0012 FFF7FEFF 		bl	decode_ssl_received_bytes
 1826              	.LVL252:
 631:Source\azure_iot_sdk\c-utility\adapters/tlsio_mbedtls.c ****             xio_dowork(tls_io_instance->socket_io);
ARM GAS  C:\Users\Phuong\AppData\Local\Temp\ccP1LXIT.s 			page 46


 1827              		.loc 1 631 0
 1828 0016 2068     		ldr	r0, [r4]
 1829 0018 FFF7FEFF 		bl	xio_dowork
 1830              	.LVL253:
 1831              	.L105:
 1832              	.LBE34:
 632:Source\azure_iot_sdk\c-utility\adapters/tlsio_mbedtls.c ****         }
 633:Source\azure_iot_sdk\c-utility\adapters/tlsio_mbedtls.c ****     }
 634:Source\azure_iot_sdk\c-utility\adapters/tlsio_mbedtls.c **** }
 1833              		.loc 1 634 0
 1834              		@ sp needed
 1835              	.LVL254:
 1836 001c 10BD     		pop	{r4, pc}
 1837              		.cfi_endproc
 1838              	.LFE34:
 1839              		.size	tlsio_mbedtls_dowork, .-tlsio_mbedtls_dowork
 1840 001e C046     		.section	.text.tlsio_mbedtls_retrieveoptions,"ax",%progbits
 1841              		.align	2
 1842              		.global	tlsio_mbedtls_retrieveoptions
 1843              		.code	16
 1844              		.thumb_func
 1845              		.type	tlsio_mbedtls_retrieveoptions, %function
 1846              	tlsio_mbedtls_retrieveoptions:
 1847              	.LFB38:
 635:Source\azure_iot_sdk\c-utility\adapters/tlsio_mbedtls.c **** 
 636:Source\azure_iot_sdk\c-utility\adapters/tlsio_mbedtls.c **** const IO_INTERFACE_DESCRIPTION* tlsio_mbedtls_get_interface_description(void)
 637:Source\azure_iot_sdk\c-utility\adapters/tlsio_mbedtls.c **** {
 638:Source\azure_iot_sdk\c-utility\adapters/tlsio_mbedtls.c ****     return &tlsio_mbedtls_interface_description;
 639:Source\azure_iot_sdk\c-utility\adapters/tlsio_mbedtls.c **** }
 640:Source\azure_iot_sdk\c-utility\adapters/tlsio_mbedtls.c **** 
 641:Source\azure_iot_sdk\c-utility\adapters/tlsio_mbedtls.c **** /*this function will clone an option given by name and value*/
 642:Source\azure_iot_sdk\c-utility\adapters/tlsio_mbedtls.c **** static void* tlsio_mbedtls_CloneOption(const char* name, const void* value)
 643:Source\azure_iot_sdk\c-utility\adapters/tlsio_mbedtls.c **** {
 644:Source\azure_iot_sdk\c-utility\adapters/tlsio_mbedtls.c ****     void* result;
 645:Source\azure_iot_sdk\c-utility\adapters/tlsio_mbedtls.c ****     if ((name == NULL) || (value == NULL))
 646:Source\azure_iot_sdk\c-utility\adapters/tlsio_mbedtls.c ****     {
 647:Source\azure_iot_sdk\c-utility\adapters/tlsio_mbedtls.c ****         LogError("invalid parameter detected: const char* name=%p, const void* value=%p", name, val
 648:Source\azure_iot_sdk\c-utility\adapters/tlsio_mbedtls.c ****         result = NULL;
 649:Source\azure_iot_sdk\c-utility\adapters/tlsio_mbedtls.c ****     }
 650:Source\azure_iot_sdk\c-utility\adapters/tlsio_mbedtls.c ****     else
 651:Source\azure_iot_sdk\c-utility\adapters/tlsio_mbedtls.c ****     {
 652:Source\azure_iot_sdk\c-utility\adapters/tlsio_mbedtls.c ****         if (strcmp(name, OPTION_UNDERLYING_IO_OPTIONS) == 0)
 653:Source\azure_iot_sdk\c-utility\adapters/tlsio_mbedtls.c ****         {
 654:Source\azure_iot_sdk\c-utility\adapters/tlsio_mbedtls.c ****             result = (void*)value;
 655:Source\azure_iot_sdk\c-utility\adapters/tlsio_mbedtls.c ****         }
 656:Source\azure_iot_sdk\c-utility\adapters/tlsio_mbedtls.c ****         else if (strcmp(name, OPTION_TRUSTED_CERT) == 0)
 657:Source\azure_iot_sdk\c-utility\adapters/tlsio_mbedtls.c ****         {
 658:Source\azure_iot_sdk\c-utility\adapters/tlsio_mbedtls.c ****             if (mallocAndStrcpy_s((char**)&result, value) != 0)
 659:Source\azure_iot_sdk\c-utility\adapters/tlsio_mbedtls.c ****             {
 660:Source\azure_iot_sdk\c-utility\adapters/tlsio_mbedtls.c ****                 LogError("unable to mallocAndStrcpy_s TrustedCerts value");
 661:Source\azure_iot_sdk\c-utility\adapters/tlsio_mbedtls.c ****                 result = NULL;
 662:Source\azure_iot_sdk\c-utility\adapters/tlsio_mbedtls.c ****             }
 663:Source\azure_iot_sdk\c-utility\adapters/tlsio_mbedtls.c ****             else
 664:Source\azure_iot_sdk\c-utility\adapters/tlsio_mbedtls.c ****             {
 665:Source\azure_iot_sdk\c-utility\adapters/tlsio_mbedtls.c ****                 /*return as is*/
 666:Source\azure_iot_sdk\c-utility\adapters/tlsio_mbedtls.c ****             }
 667:Source\azure_iot_sdk\c-utility\adapters/tlsio_mbedtls.c ****         }
ARM GAS  C:\Users\Phuong\AppData\Local\Temp\ccP1LXIT.s 			page 47


 668:Source\azure_iot_sdk\c-utility\adapters/tlsio_mbedtls.c ****         else
 669:Source\azure_iot_sdk\c-utility\adapters/tlsio_mbedtls.c ****         {
 670:Source\azure_iot_sdk\c-utility\adapters/tlsio_mbedtls.c ****             LogError("not handled option : %s", name);
 671:Source\azure_iot_sdk\c-utility\adapters/tlsio_mbedtls.c ****             result = NULL;
 672:Source\azure_iot_sdk\c-utility\adapters/tlsio_mbedtls.c ****         }
 673:Source\azure_iot_sdk\c-utility\adapters/tlsio_mbedtls.c ****     }
 674:Source\azure_iot_sdk\c-utility\adapters/tlsio_mbedtls.c ****     return result;
 675:Source\azure_iot_sdk\c-utility\adapters/tlsio_mbedtls.c **** }
 676:Source\azure_iot_sdk\c-utility\adapters/tlsio_mbedtls.c **** 
 677:Source\azure_iot_sdk\c-utility\adapters/tlsio_mbedtls.c **** /*this function destroys an option previously created*/
 678:Source\azure_iot_sdk\c-utility\adapters/tlsio_mbedtls.c **** static void tlsio_mbedtls_DestroyOption(const char* name, const void* value)
 679:Source\azure_iot_sdk\c-utility\adapters/tlsio_mbedtls.c **** {
 680:Source\azure_iot_sdk\c-utility\adapters/tlsio_mbedtls.c ****     /*since all options for this layer are actually string copies., disposing of one is just callin
 681:Source\azure_iot_sdk\c-utility\adapters/tlsio_mbedtls.c ****     if (name == NULL || value == NULL)
 682:Source\azure_iot_sdk\c-utility\adapters/tlsio_mbedtls.c ****     {
 683:Source\azure_iot_sdk\c-utility\adapters/tlsio_mbedtls.c ****         LogError("invalid parameter detected: const char* name=%p, const void* value=%p", name, val
 684:Source\azure_iot_sdk\c-utility\adapters/tlsio_mbedtls.c ****     }
 685:Source\azure_iot_sdk\c-utility\adapters/tlsio_mbedtls.c ****     else
 686:Source\azure_iot_sdk\c-utility\adapters/tlsio_mbedtls.c ****     {
 687:Source\azure_iot_sdk\c-utility\adapters/tlsio_mbedtls.c ****         if (strcmp(name, OPTION_TRUSTED_CERT) == 0)
 688:Source\azure_iot_sdk\c-utility\adapters/tlsio_mbedtls.c ****         {
 689:Source\azure_iot_sdk\c-utility\adapters/tlsio_mbedtls.c ****             free((void*)value);
 690:Source\azure_iot_sdk\c-utility\adapters/tlsio_mbedtls.c ****         }
 691:Source\azure_iot_sdk\c-utility\adapters/tlsio_mbedtls.c ****         else if (strcmp(name, OPTION_UNDERLYING_IO_OPTIONS) == 0)
 692:Source\azure_iot_sdk\c-utility\adapters/tlsio_mbedtls.c ****         {
 693:Source\azure_iot_sdk\c-utility\adapters/tlsio_mbedtls.c ****             OptionHandler_Destroy((OPTIONHANDLER_HANDLE)value);
 694:Source\azure_iot_sdk\c-utility\adapters/tlsio_mbedtls.c ****         }
 695:Source\azure_iot_sdk\c-utility\adapters/tlsio_mbedtls.c ****         else
 696:Source\azure_iot_sdk\c-utility\adapters/tlsio_mbedtls.c ****         {
 697:Source\azure_iot_sdk\c-utility\adapters/tlsio_mbedtls.c ****             LogError("not handled option : %s", name);
 698:Source\azure_iot_sdk\c-utility\adapters/tlsio_mbedtls.c ****         }
 699:Source\azure_iot_sdk\c-utility\adapters/tlsio_mbedtls.c ****     }
 700:Source\azure_iot_sdk\c-utility\adapters/tlsio_mbedtls.c **** }
 701:Source\azure_iot_sdk\c-utility\adapters/tlsio_mbedtls.c **** 
 702:Source\azure_iot_sdk\c-utility\adapters/tlsio_mbedtls.c **** OPTIONHANDLER_HANDLE tlsio_mbedtls_retrieveoptions(CONCRETE_IO_HANDLE handle)
 703:Source\azure_iot_sdk\c-utility\adapters/tlsio_mbedtls.c **** {
 1848              		.loc 1 703 0
 1849              		.cfi_startproc
 1850              		@ args = 0, pretend = 0, frame = 0
 1851              		@ frame_needed = 0, uses_anonymous_args = 0
 1852              	.LVL255:
 1853 0000 70B5     		push	{r4, r5, r6, lr}
 1854              		.cfi_def_cfa_offset 16
 1855              		.cfi_offset 4, -16
 1856              		.cfi_offset 5, -12
 1857              		.cfi_offset 6, -8
 1858              		.cfi_offset 14, -4
 1859 0002 84B0     		sub	sp, sp, #16
 1860              		.cfi_def_cfa_offset 32
 1861 0004 051E     		subs	r5, r0, #0
 704:Source\azure_iot_sdk\c-utility\adapters/tlsio_mbedtls.c ****     OPTIONHANDLER_HANDLE result;
 705:Source\azure_iot_sdk\c-utility\adapters/tlsio_mbedtls.c ****     if (handle == NULL)
 1862              		.loc 1 705 0
 1863 0006 10D1     		bne	.L108
 1864              	.LBB35:
 706:Source\azure_iot_sdk\c-utility\adapters/tlsio_mbedtls.c ****     {
 707:Source\azure_iot_sdk\c-utility\adapters/tlsio_mbedtls.c ****         LogError("invalid parameter detected: CONCRETE_IO_HANDLE handle=%p", handle);
ARM GAS  C:\Users\Phuong\AppData\Local\Temp\ccP1LXIT.s 			page 48


 1865              		.loc 1 707 0 discriminator 3
 1866 0008 FFF7FEFF 		bl	xlogging_get_log_function
 1867              	.LVL256:
 1868 000c 041E     		subs	r4, r0, #0
 1869              	.LVL257:
 1870 000e 62D0     		beq	.L115
 1871              		.loc 1 707 0 is_stmt 0 discriminator 4
 1872 0010 0295     		str	r5, [sp, #8]
 1873 0012 334B     		ldr	r3, .L116
 1874 0014 0193     		str	r3, [sp, #4]
 1875 0016 0123     		movs	r3, #1
 1876 0018 0093     		str	r3, [sp]
 1877 001a 324B     		ldr	r3, .L116+4
 1878 001c 324A     		ldr	r2, .L116+8
 1879 001e 4C32     		adds	r2, r2, #76
 1880 0020 3249     		ldr	r1, .L116+12
 1881 0022 0020     		movs	r0, #0
 1882              	.LVL258:
 1883 0024 A047     		blx	r4
 1884              	.LVL259:
 1885              	.LBE35:
 708:Source\azure_iot_sdk\c-utility\adapters/tlsio_mbedtls.c ****         result = NULL;
 1886              		.loc 1 708 0 is_stmt 1 discriminator 4
 1887 0026 0024     		movs	r4, #0
 1888              	.LVL260:
 1889 0028 56E0     		b	.L109
 1890              	.LVL261:
 1891              	.L108:
 709:Source\azure_iot_sdk\c-utility\adapters/tlsio_mbedtls.c ****     }
 710:Source\azure_iot_sdk\c-utility\adapters/tlsio_mbedtls.c ****     else
 711:Source\azure_iot_sdk\c-utility\adapters/tlsio_mbedtls.c ****     {
 712:Source\azure_iot_sdk\c-utility\adapters/tlsio_mbedtls.c ****         result = OptionHandler_Create(tlsio_mbedtls_CloneOption, tlsio_mbedtls_DestroyOption, tlsio
 1892              		.loc 1 712 0
 1893 002a 314A     		ldr	r2, .L116+16
 1894 002c 3149     		ldr	r1, .L116+20
 1895 002e 3248     		ldr	r0, .L116+24
 1896              	.LVL262:
 1897 0030 FFF7FEFF 		bl	OptionHandler_Create
 1898              	.LVL263:
 1899 0034 041E     		subs	r4, r0, #0
 1900              	.LVL264:
 713:Source\azure_iot_sdk\c-utility\adapters/tlsio_mbedtls.c ****         if (result == NULL)
 1901              		.loc 1 713 0
 1902 0036 0ED1     		bne	.L110
 1903              	.LBB36:
 714:Source\azure_iot_sdk\c-utility\adapters/tlsio_mbedtls.c ****         {
 715:Source\azure_iot_sdk\c-utility\adapters/tlsio_mbedtls.c ****             LogError("unable to OptionHandler_Create");
 1904              		.loc 1 715 0 discriminator 3
 1905 0038 FFF7FEFF 		bl	xlogging_get_log_function
 1906              	.LVL265:
 1907 003c 051E     		subs	r5, r0, #0
 1908              	.LVL266:
 1909 003e 4BD0     		beq	.L109
 1910              		.loc 1 715 0 is_stmt 0 discriminator 4
 1911 0040 2E4B     		ldr	r3, .L116+28
 1912 0042 0193     		str	r3, [sp, #4]
 1913 0044 0123     		movs	r3, #1
ARM GAS  C:\Users\Phuong\AppData\Local\Temp\ccP1LXIT.s 			page 49


 1914 0046 0093     		str	r3, [sp]
 1915 0048 2D4B     		ldr	r3, .L116+32
 1916 004a 274A     		ldr	r2, .L116+8
 1917 004c 4C32     		adds	r2, r2, #76
 1918 004e 2749     		ldr	r1, .L116+12
 1919 0050 0020     		movs	r0, #0
 1920              	.LVL267:
 1921 0052 A847     		blx	r5
 1922              	.LVL268:
 1923 0054 40E0     		b	.L109
 1924              	.LVL269:
 1925              	.L110:
 1926              	.LBE36:
 1927              	.LBB37:
 716:Source\azure_iot_sdk\c-utility\adapters/tlsio_mbedtls.c ****             /*return as is*/
 717:Source\azure_iot_sdk\c-utility\adapters/tlsio_mbedtls.c ****         }
 718:Source\azure_iot_sdk\c-utility\adapters/tlsio_mbedtls.c ****         else
 719:Source\azure_iot_sdk\c-utility\adapters/tlsio_mbedtls.c ****         {
 720:Source\azure_iot_sdk\c-utility\adapters/tlsio_mbedtls.c ****             /*this layer cares about the certificates*/
 721:Source\azure_iot_sdk\c-utility\adapters/tlsio_mbedtls.c ****             TLS_IO_INSTANCE* tls_io_instance = (TLS_IO_INSTANCE*)handle;
 722:Source\azure_iot_sdk\c-utility\adapters/tlsio_mbedtls.c ****             OPTIONHANDLER_HANDLE underlying_io_options;
 723:Source\azure_iot_sdk\c-utility\adapters/tlsio_mbedtls.c **** 
 724:Source\azure_iot_sdk\c-utility\adapters/tlsio_mbedtls.c ****             if ((underlying_io_options = xio_retrieveoptions(tls_io_instance->socket_io)) == NULL |
 1928              		.loc 1 724 0 is_stmt 1
 1929 0056 2868     		ldr	r0, [r5]
 1930              	.LVL270:
 1931 0058 FFF7FEFF 		bl	xio_retrieveoptions
 1932              	.LVL271:
 1933 005c 061E     		subs	r6, r0, #0
 1934              	.LVL272:
 1935 005e 06D0     		beq	.L111
 725:Source\azure_iot_sdk\c-utility\adapters/tlsio_mbedtls.c ****                 OptionHandler_AddOption(result, OPTION_UNDERLYING_IO_OPTIONS, underlying_io_options
 1936              		.loc 1 725 0 discriminator 1
 1937 0060 0200     		movs	r2, r0
 1938 0062 2849     		ldr	r1, .L116+36
 1939 0064 2000     		movs	r0, r4
 1940              	.LVL273:
 1941 0066 FFF7FEFF 		bl	OptionHandler_AddOption
 1942              	.LVL274:
 724:Source\azure_iot_sdk\c-utility\adapters/tlsio_mbedtls.c ****                 OptionHandler_AddOption(result, OPTION_UNDERLYING_IO_OPTIONS, underlying_io_options
 1943              		.loc 1 724 0 discriminator 1
 1944 006a 0028     		cmp	r0, #0
 1945 006c 15D0     		beq	.L112
 1946              	.L111:
 1947              	.LBB38:
 726:Source\azure_iot_sdk\c-utility\adapters/tlsio_mbedtls.c ****             {
 727:Source\azure_iot_sdk\c-utility\adapters/tlsio_mbedtls.c ****                 LogError("unable to save underlying_io options");
 1948              		.loc 1 727 0 discriminator 3
 1949 006e FFF7FEFF 		bl	xlogging_get_log_function
 1950              	.LVL275:
 1951 0072 051E     		subs	r5, r0, #0
 1952              	.LVL276:
 1953 0074 09D0     		beq	.L113
 1954              		.loc 1 727 0 is_stmt 0 discriminator 4
 1955 0076 244B     		ldr	r3, .L116+40
 1956 0078 0193     		str	r3, [sp, #4]
 1957 007a 0123     		movs	r3, #1
ARM GAS  C:\Users\Phuong\AppData\Local\Temp\ccP1LXIT.s 			page 50


 1958 007c 0093     		str	r3, [sp]
 1959 007e 234B     		ldr	r3, .L116+44
 1960 0080 194A     		ldr	r2, .L116+8
 1961 0082 4C32     		adds	r2, r2, #76
 1962 0084 1949     		ldr	r1, .L116+12
 1963 0086 0020     		movs	r0, #0
 1964              	.LVL277:
 1965 0088 A847     		blx	r5
 1966              	.LVL278:
 1967              	.L113:
 1968              	.LBE38:
 728:Source\azure_iot_sdk\c-utility\adapters/tlsio_mbedtls.c ****                 OptionHandler_Destroy(underlying_io_options);
 1969              		.loc 1 728 0 is_stmt 1
 1970 008a 3000     		movs	r0, r6
 1971 008c FFF7FEFF 		bl	OptionHandler_Destroy
 1972              	.LVL279:
 729:Source\azure_iot_sdk\c-utility\adapters/tlsio_mbedtls.c ****                 OptionHandler_Destroy(result);
 1973              		.loc 1 729 0
 1974 0090 2000     		movs	r0, r4
 1975 0092 FFF7FEFF 		bl	OptionHandler_Destroy
 1976              	.LVL280:
 730:Source\azure_iot_sdk\c-utility\adapters/tlsio_mbedtls.c ****                 result = NULL;
 1977              		.loc 1 730 0
 1978 0096 0024     		movs	r4, #0
 1979 0098 1EE0     		b	.L109
 1980              	.LVL281:
 1981              	.L112:
 731:Source\azure_iot_sdk\c-utility\adapters/tlsio_mbedtls.c ****             }
 732:Source\azure_iot_sdk\c-utility\adapters/tlsio_mbedtls.c ****             else if (tls_io_instance->trusted_certificates != NULL &&
 1982              		.loc 1 732 0
 1983 009a F123     		movs	r3, #241
 1984 009c DB00     		lsls	r3, r3, #3
 1985 009e EA58     		ldr	r2, [r5, r3]
 1986 00a0 002A     		cmp	r2, #0
 1987 00a2 19D0     		beq	.L109
 733:Source\azure_iot_sdk\c-utility\adapters/tlsio_mbedtls.c ****                 OptionHandler_AddOption(result, OPTION_TRUSTED_CERT, tls_io_instance->trusted_certi
 1988              		.loc 1 733 0 discriminator 1
 1989 00a4 1A49     		ldr	r1, .L116+48
 1990 00a6 2000     		movs	r0, r4
 1991 00a8 FFF7FEFF 		bl	OptionHandler_AddOption
 1992              	.LVL282:
 732:Source\azure_iot_sdk\c-utility\adapters/tlsio_mbedtls.c ****                 OptionHandler_AddOption(result, OPTION_TRUSTED_CERT, tls_io_instance->trusted_certi
 1993              		.loc 1 732 0 discriminator 1
 1994 00ac 0028     		cmp	r0, #0
 1995 00ae 13D0     		beq	.L109
 1996              	.LBB39:
 734:Source\azure_iot_sdk\c-utility\adapters/tlsio_mbedtls.c ****             {
 735:Source\azure_iot_sdk\c-utility\adapters/tlsio_mbedtls.c ****                 LogError("unable to save TrustedCerts option");
 1997              		.loc 1 735 0 discriminator 3
 1998 00b0 FFF7FEFF 		bl	xlogging_get_log_function
 1999              	.LVL283:
 2000 00b4 051E     		subs	r5, r0, #0
 2001              	.LVL284:
 2002 00b6 09D0     		beq	.L114
 2003              		.loc 1 735 0 is_stmt 0 discriminator 4
 2004 00b8 164B     		ldr	r3, .L116+52
 2005 00ba 0193     		str	r3, [sp, #4]
ARM GAS  C:\Users\Phuong\AppData\Local\Temp\ccP1LXIT.s 			page 51


 2006 00bc 0123     		movs	r3, #1
 2007 00be 0093     		str	r3, [sp]
 2008 00c0 154B     		ldr	r3, .L116+56
 2009 00c2 094A     		ldr	r2, .L116+8
 2010 00c4 4C32     		adds	r2, r2, #76
 2011 00c6 0949     		ldr	r1, .L116+12
 2012 00c8 0020     		movs	r0, #0
 2013              	.LVL285:
 2014 00ca A847     		blx	r5
 2015              	.LVL286:
 2016              	.L114:
 2017              	.LBE39:
 736:Source\azure_iot_sdk\c-utility\adapters/tlsio_mbedtls.c ****                 OptionHandler_Destroy(result);
 2018              		.loc 1 736 0 is_stmt 1
 2019 00cc 2000     		movs	r0, r4
 2020 00ce FFF7FEFF 		bl	OptionHandler_Destroy
 2021              	.LVL287:
 737:Source\azure_iot_sdk\c-utility\adapters/tlsio_mbedtls.c ****                 result = NULL;
 2022              		.loc 1 737 0
 2023 00d2 0024     		movs	r4, #0
 2024 00d4 00E0     		b	.L109
 2025              	.LVL288:
 2026              	.L115:
 2027              	.LBE37:
 708:Source\azure_iot_sdk\c-utility\adapters/tlsio_mbedtls.c ****     }
 2028              		.loc 1 708 0
 2029 00d6 0024     		movs	r4, #0
 2030              	.LVL289:
 2031              	.L109:
 738:Source\azure_iot_sdk\c-utility\adapters/tlsio_mbedtls.c ****             }
 739:Source\azure_iot_sdk\c-utility\adapters/tlsio_mbedtls.c ****             else
 740:Source\azure_iot_sdk\c-utility\adapters/tlsio_mbedtls.c ****             {
 741:Source\azure_iot_sdk\c-utility\adapters/tlsio_mbedtls.c ****                 /*all is fine, all interesting options have been saved*/
 742:Source\azure_iot_sdk\c-utility\adapters/tlsio_mbedtls.c ****                 /*return as is*/
 743:Source\azure_iot_sdk\c-utility\adapters/tlsio_mbedtls.c ****             }
 744:Source\azure_iot_sdk\c-utility\adapters/tlsio_mbedtls.c ****         }
 745:Source\azure_iot_sdk\c-utility\adapters/tlsio_mbedtls.c ****     }
 746:Source\azure_iot_sdk\c-utility\adapters/tlsio_mbedtls.c ****     return result;
 747:Source\azure_iot_sdk\c-utility\adapters/tlsio_mbedtls.c **** }
 2032              		.loc 1 747 0
 2033 00d8 2000     		movs	r0, r4
 2034 00da 04B0     		add	sp, sp, #16
 2035              		@ sp needed
 2036              	.LVL290:
 2037 00dc 70BD     		pop	{r4, r5, r6, pc}
 2038              	.L117:
 2039 00de C046     		.align	2
 2040              	.L116:
 2041 00e0 50010000 		.word	.LC52
 2042 00e4 C3020000 		.word	707
 2043 00e8 80000000 		.word	.LANCHOR1
 2044 00ec 00000000 		.word	.LC1
 2045 00f0 00000000 		.word	tlsio_mbedtls_setoption
 2046 00f4 00000000 		.word	tlsio_mbedtls_DestroyOption
 2047 00f8 00000000 		.word	tlsio_mbedtls_CloneOption
 2048 00fc 8C010000 		.word	.LC57
 2049 0100 CB020000 		.word	715
ARM GAS  C:\Users\Phuong\AppData\Local\Temp\ccP1LXIT.s 			page 52


 2050 0104 AC010000 		.word	.LC59
 2051 0108 C4010000 		.word	.LC61
 2052 010c D7020000 		.word	727
 2053 0110 EC010000 		.word	.LC63
 2054 0114 FC010000 		.word	.LC65
 2055 0118 DF020000 		.word	735
 2056              		.cfi_endproc
 2057              	.LFE38:
 2058              		.size	tlsio_mbedtls_retrieveoptions, .-tlsio_mbedtls_retrieveoptions
 2059              		.section	.text.tlsio_mbedtls_DestroyOption,"ax",%progbits
 2060              		.align	2
 2061              		.code	16
 2062              		.thumb_func
 2063              		.type	tlsio_mbedtls_DestroyOption, %function
 2064              	tlsio_mbedtls_DestroyOption:
 2065              	.LFB37:
 679:Source\azure_iot_sdk\c-utility\adapters/tlsio_mbedtls.c ****     /*since all options for this layer are actually string copies., disposing of one is just callin
 2066              		.loc 1 679 0
 2067              		.cfi_startproc
 2068              		@ args = 0, pretend = 0, frame = 0
 2069              		@ frame_needed = 0, uses_anonymous_args = 0
 2070              	.LVL291:
 2071 0000 70B5     		push	{r4, r5, r6, lr}
 2072              		.cfi_def_cfa_offset 16
 2073              		.cfi_offset 4, -16
 2074              		.cfi_offset 5, -12
 2075              		.cfi_offset 6, -8
 2076              		.cfi_offset 14, -4
 2077 0002 84B0     		sub	sp, sp, #16
 2078              		.cfi_def_cfa_offset 32
 2079 0004 0400     		movs	r4, r0
 2080 0006 0D00     		movs	r5, r1
 681:Source\azure_iot_sdk\c-utility\adapters/tlsio_mbedtls.c ****     {
 2081              		.loc 1 681 0
 2082 0008 0028     		cmp	r0, #0
 2083 000a 01D0     		beq	.L119
 681:Source\azure_iot_sdk\c-utility\adapters/tlsio_mbedtls.c ****     {
 2084              		.loc 1 681 0 is_stmt 0 discriminator 1
 2085 000c 0029     		cmp	r1, #0
 2086 000e 10D1     		bne	.L120
 2087              	.L119:
 2088              	.LBB40:
 683:Source\azure_iot_sdk\c-utility\adapters/tlsio_mbedtls.c ****     }
 2089              		.loc 1 683 0 is_stmt 1 discriminator 3
 2090 0010 FFF7FEFF 		bl	xlogging_get_log_function
 2091              	.LVL292:
 2092 0014 061E     		subs	r6, r0, #0
 2093              	.LVL293:
 2094 0016 2ED0     		beq	.L118
 683:Source\azure_iot_sdk\c-utility\adapters/tlsio_mbedtls.c ****     }
 2095              		.loc 1 683 0 is_stmt 0 discriminator 4
 2096 0018 0395     		str	r5, [sp, #12]
 2097 001a 0294     		str	r4, [sp, #8]
 2098 001c 174B     		ldr	r3, .L124
 2099 001e 0193     		str	r3, [sp, #4]
 2100 0020 0123     		movs	r3, #1
 2101 0022 0093     		str	r3, [sp]
ARM GAS  C:\Users\Phuong\AppData\Local\Temp\ccP1LXIT.s 			page 53


 2102 0024 164B     		ldr	r3, .L124+4
 2103 0026 174A     		ldr	r2, .L124+8
 2104 0028 6C32     		adds	r2, r2, #108
 2105 002a 1749     		ldr	r1, .L124+12
 2106 002c 0020     		movs	r0, #0
 2107              	.LVL294:
 2108 002e B047     		blx	r6
 2109              	.LVL295:
 2110 0030 21E0     		b	.L118
 2111              	.LVL296:
 2112              	.L120:
 2113              	.LBE40:
 687:Source\azure_iot_sdk\c-utility\adapters/tlsio_mbedtls.c ****         {
 2114              		.loc 1 687 0 is_stmt 1
 2115 0032 1649     		ldr	r1, .L124+16
 2116              	.LVL297:
 2117 0034 FFF7FEFF 		bl	strcmp
 2118              	.LVL298:
 2119 0038 0028     		cmp	r0, #0
 2120 003a 03D1     		bne	.L122
 689:Source\azure_iot_sdk\c-utility\adapters/tlsio_mbedtls.c ****         }
 2121              		.loc 1 689 0
 2122 003c 2800     		movs	r0, r5
 2123 003e FFF7FEFF 		bl	free
 2124              	.LVL299:
 2125 0042 18E0     		b	.L118
 2126              	.L122:
 691:Source\azure_iot_sdk\c-utility\adapters/tlsio_mbedtls.c ****         {
 2127              		.loc 1 691 0
 2128 0044 1249     		ldr	r1, .L124+20
 2129 0046 2000     		movs	r0, r4
 2130 0048 FFF7FEFF 		bl	strcmp
 2131              	.LVL300:
 2132 004c 0028     		cmp	r0, #0
 2133 004e 03D1     		bne	.L123
 693:Source\azure_iot_sdk\c-utility\adapters/tlsio_mbedtls.c ****         }
 2134              		.loc 1 693 0
 2135 0050 2800     		movs	r0, r5
 2136 0052 FFF7FEFF 		bl	OptionHandler_Destroy
 2137              	.LVL301:
 2138 0056 0EE0     		b	.L118
 2139              	.L123:
 2140              	.LBB41:
 697:Source\azure_iot_sdk\c-utility\adapters/tlsio_mbedtls.c ****         }
 2141              		.loc 1 697 0 discriminator 3
 2142 0058 FFF7FEFF 		bl	xlogging_get_log_function
 2143              	.LVL302:
 2144 005c 051E     		subs	r5, r0, #0
 2145              	.LVL303:
 2146 005e 0AD0     		beq	.L118
 697:Source\azure_iot_sdk\c-utility\adapters/tlsio_mbedtls.c ****         }
 2147              		.loc 1 697 0 is_stmt 0 discriminator 4
 2148 0060 0294     		str	r4, [sp, #8]
 2149 0062 0C4B     		ldr	r3, .L124+24
 2150 0064 0193     		str	r3, [sp, #4]
 2151 0066 0123     		movs	r3, #1
 2152 0068 0093     		str	r3, [sp]
ARM GAS  C:\Users\Phuong\AppData\Local\Temp\ccP1LXIT.s 			page 54


 2153 006a 0B4B     		ldr	r3, .L124+28
 2154 006c 054A     		ldr	r2, .L124+8
 2155 006e 6C32     		adds	r2, r2, #108
 2156 0070 0549     		ldr	r1, .L124+12
 2157 0072 0020     		movs	r0, #0
 2158              	.LVL304:
 2159 0074 A847     		blx	r5
 2160              	.LVL305:
 2161              	.L118:
 2162              	.LBE41:
 700:Source\azure_iot_sdk\c-utility\adapters/tlsio_mbedtls.c **** 
 2163              		.loc 1 700 0 is_stmt 1
 2164 0076 04B0     		add	sp, sp, #16
 2165              		@ sp needed
 2166              	.LVL306:
 2167 0078 70BD     		pop	{r4, r5, r6, pc}
 2168              	.L125:
 2169 007a C046     		.align	2
 2170              	.L124:
 2171 007c 20020000 		.word	.LC69
 2172 0080 AB020000 		.word	683
 2173 0084 80000000 		.word	.LANCHOR1
 2174 0088 00000000 		.word	.LC1
 2175 008c EC010000 		.word	.LC63
 2176 0090 AC010000 		.word	.LC59
 2177 0094 68020000 		.word	.LC73
 2178 0098 B9020000 		.word	697
 2179              		.cfi_endproc
 2180              	.LFE37:
 2181              		.size	tlsio_mbedtls_DestroyOption, .-tlsio_mbedtls_DestroyOption
 2182              		.section	.text.tlsio_mbedtls_CloneOption,"ax",%progbits
 2183              		.align	2
 2184              		.code	16
 2185              		.thumb_func
 2186              		.type	tlsio_mbedtls_CloneOption, %function
 2187              	tlsio_mbedtls_CloneOption:
 2188              	.LFB36:
 643:Source\azure_iot_sdk\c-utility\adapters/tlsio_mbedtls.c ****     void* result;
 2189              		.loc 1 643 0
 2190              		.cfi_startproc
 2191              		@ args = 0, pretend = 0, frame = 8
 2192              		@ frame_needed = 0, uses_anonymous_args = 0
 2193              	.LVL307:
 2194 0000 70B5     		push	{r4, r5, r6, lr}
 2195              		.cfi_def_cfa_offset 16
 2196              		.cfi_offset 4, -16
 2197              		.cfi_offset 5, -12
 2198              		.cfi_offset 6, -8
 2199              		.cfi_offset 14, -4
 2200 0002 86B0     		sub	sp, sp, #24
 2201              		.cfi_def_cfa_offset 40
 2202 0004 0400     		movs	r4, r0
 2203 0006 0D00     		movs	r5, r1
 645:Source\azure_iot_sdk\c-utility\adapters/tlsio_mbedtls.c ****     {
 2204              		.loc 1 645 0
 2205 0008 0028     		cmp	r0, #0
 2206 000a 01D0     		beq	.L127
ARM GAS  C:\Users\Phuong\AppData\Local\Temp\ccP1LXIT.s 			page 55


 645:Source\azure_iot_sdk\c-utility\adapters/tlsio_mbedtls.c ****     {
 2207              		.loc 1 645 0 is_stmt 0 discriminator 1
 2208 000c 0029     		cmp	r1, #0
 2209 000e 12D1     		bne	.L128
 2210              	.L127:
 2211              	.LBB42:
 647:Source\azure_iot_sdk\c-utility\adapters/tlsio_mbedtls.c ****         result = NULL;
 2212              		.loc 1 647 0 is_stmt 1 discriminator 3
 2213 0010 FFF7FEFF 		bl	xlogging_get_log_function
 2214              	.LVL308:
 2215 0014 061E     		subs	r6, r0, #0
 2216              	.LVL309:
 2217 0016 0BD0     		beq	.L129
 647:Source\azure_iot_sdk\c-utility\adapters/tlsio_mbedtls.c ****         result = NULL;
 2218              		.loc 1 647 0 is_stmt 0 discriminator 4
 2219 0018 0395     		str	r5, [sp, #12]
 2220 001a 0294     		str	r4, [sp, #8]
 2221 001c 224B     		ldr	r3, .L135
 2222 001e 0193     		str	r3, [sp, #4]
 2223 0020 0123     		movs	r3, #1
 2224 0022 0093     		str	r3, [sp]
 2225 0024 214B     		ldr	r3, .L135+4
 2226 0026 224A     		ldr	r2, .L135+8
 2227 0028 0832     		adds	r2, r2, #8
 2228 002a 2249     		ldr	r1, .L135+12
 2229 002c 0020     		movs	r0, #0
 2230              	.LVL310:
 2231 002e B047     		blx	r6
 2232              	.LVL311:
 2233              	.L129:
 2234              	.LBE42:
 648:Source\azure_iot_sdk\c-utility\adapters/tlsio_mbedtls.c ****     }
 2235              		.loc 1 648 0 is_stmt 1
 2236 0030 0023     		movs	r3, #0
 2237 0032 0593     		str	r3, [sp, #20]
 2238 0034 35E0     		b	.L130
 2239              	.LVL312:
 2240              	.L128:
 652:Source\azure_iot_sdk\c-utility\adapters/tlsio_mbedtls.c ****         {
 2241              		.loc 1 652 0
 2242 0036 2049     		ldr	r1, .L135+16
 2243              	.LVL313:
 2244 0038 FFF7FEFF 		bl	strcmp
 2245              	.LVL314:
 2246 003c 0028     		cmp	r0, #0
 2247 003e 01D1     		bne	.L131
 654:Source\azure_iot_sdk\c-utility\adapters/tlsio_mbedtls.c ****         }
 2248              		.loc 1 654 0
 2249 0040 0595     		str	r5, [sp, #20]
 2250 0042 2EE0     		b	.L130
 2251              	.L131:
 656:Source\azure_iot_sdk\c-utility\adapters/tlsio_mbedtls.c ****         {
 2252              		.loc 1 656 0
 2253 0044 1D49     		ldr	r1, .L135+20
 2254 0046 2000     		movs	r0, r4
 2255 0048 FFF7FEFF 		bl	strcmp
 2256              	.LVL315:
ARM GAS  C:\Users\Phuong\AppData\Local\Temp\ccP1LXIT.s 			page 56


 2257 004c 0028     		cmp	r0, #0
 2258 004e 17D1     		bne	.L132
 658:Source\azure_iot_sdk\c-utility\adapters/tlsio_mbedtls.c ****             {
 2259              		.loc 1 658 0
 2260 0050 2900     		movs	r1, r5
 2261 0052 05A8     		add	r0, sp, #20
 2262 0054 FFF7FEFF 		bl	mallocAndStrcpy_s
 2263              	.LVL316:
 2264 0058 0028     		cmp	r0, #0
 2265 005a 22D0     		beq	.L130
 2266              	.LBB43:
 660:Source\azure_iot_sdk\c-utility\adapters/tlsio_mbedtls.c ****                 result = NULL;
 2267              		.loc 1 660 0 discriminator 3
 2268 005c FFF7FEFF 		bl	xlogging_get_log_function
 2269              	.LVL317:
 2270 0060 041E     		subs	r4, r0, #0
 2271              	.LVL318:
 2272 0062 0AD0     		beq	.L133
 660:Source\azure_iot_sdk\c-utility\adapters/tlsio_mbedtls.c ****                 result = NULL;
 2273              		.loc 1 660 0 is_stmt 0 discriminator 4
 2274 0064 164B     		ldr	r3, .L135+24
 2275 0066 0193     		str	r3, [sp, #4]
 2276 0068 0123     		movs	r3, #1
 2277 006a 0093     		str	r3, [sp]
 2278 006c A523     		movs	r3, #165
 2279 006e 9B00     		lsls	r3, r3, #2
 2280 0070 0F4A     		ldr	r2, .L135+8
 2281 0072 0832     		adds	r2, r2, #8
 2282 0074 0F49     		ldr	r1, .L135+12
 2283 0076 0020     		movs	r0, #0
 2284              	.LVL319:
 2285 0078 A047     		blx	r4
 2286              	.LVL320:
 2287              	.L133:
 2288              	.LBE43:
 661:Source\azure_iot_sdk\c-utility\adapters/tlsio_mbedtls.c ****             }
 2289              		.loc 1 661 0 is_stmt 1
 2290 007a 0023     		movs	r3, #0
 2291 007c 0593     		str	r3, [sp, #20]
 2292 007e 10E0     		b	.L130
 2293              	.LVL321:
 2294              	.L132:
 2295              	.LBB44:
 670:Source\azure_iot_sdk\c-utility\adapters/tlsio_mbedtls.c ****             result = NULL;
 2296              		.loc 1 670 0 discriminator 3
 2297 0080 FFF7FEFF 		bl	xlogging_get_log_function
 2298              	.LVL322:
 2299 0084 051E     		subs	r5, r0, #0
 2300              	.LVL323:
 2301 0086 0AD0     		beq	.L134
 670:Source\azure_iot_sdk\c-utility\adapters/tlsio_mbedtls.c ****             result = NULL;
 2302              		.loc 1 670 0 is_stmt 0 discriminator 4
 2303 0088 0294     		str	r4, [sp, #8]
 2304 008a 0E4B     		ldr	r3, .L135+28
 2305 008c 0193     		str	r3, [sp, #4]
 2306 008e 0123     		movs	r3, #1
 2307 0090 0093     		str	r3, [sp]
ARM GAS  C:\Users\Phuong\AppData\Local\Temp\ccP1LXIT.s 			page 57


 2308 0092 0D4B     		ldr	r3, .L135+32
 2309 0094 064A     		ldr	r2, .L135+8
 2310 0096 0832     		adds	r2, r2, #8
 2311 0098 0649     		ldr	r1, .L135+12
 2312 009a 0020     		movs	r0, #0
 2313              	.LVL324:
 2314 009c A847     		blx	r5
 2315              	.LVL325:
 2316              	.L134:
 2317              	.LBE44:
 671:Source\azure_iot_sdk\c-utility\adapters/tlsio_mbedtls.c ****         }
 2318              		.loc 1 671 0 is_stmt 1
 2319 009e 0023     		movs	r3, #0
 2320 00a0 0593     		str	r3, [sp, #20]
 2321              	.LVL326:
 2322              	.L130:
 675:Source\azure_iot_sdk\c-utility\adapters/tlsio_mbedtls.c **** 
 2323              		.loc 1 675 0
 2324 00a2 0598     		ldr	r0, [sp, #20]
 2325 00a4 06B0     		add	sp, sp, #24
 2326              		@ sp needed
 2327 00a6 70BD     		pop	{r4, r5, r6, pc}
 2328              	.L136:
 2329              		.align	2
 2330              	.L135:
 2331 00a8 20020000 		.word	.LC69
 2332 00ac 87020000 		.word	647
 2333 00b0 00010000 		.word	.LANCHOR2
 2334 00b4 00000000 		.word	.LC1
 2335 00b8 AC010000 		.word	.LC59
 2336 00bc EC010000 		.word	.LC63
 2337 00c0 80020000 		.word	.LC80
 2338 00c4 68020000 		.word	.LC73
 2339 00c8 9E020000 		.word	670
 2340              		.cfi_endproc
 2341              	.LFE36:
 2342              		.size	tlsio_mbedtls_CloneOption, .-tlsio_mbedtls_CloneOption
 2343              		.section	.text.tlsio_mbedtls_setoption,"ax",%progbits
 2344              		.align	2
 2345              		.global	tlsio_mbedtls_setoption
 2346              		.code	16
 2347              		.thumb_func
 2348              		.type	tlsio_mbedtls_setoption, %function
 2349              	tlsio_mbedtls_setoption:
 2350              	.LFB39:
 748:Source\azure_iot_sdk\c-utility\adapters/tlsio_mbedtls.c **** 
 749:Source\azure_iot_sdk\c-utility\adapters/tlsio_mbedtls.c **** int tlsio_mbedtls_setoption(CONCRETE_IO_HANDLE tls_io, const char* optionName, const void* value)
 750:Source\azure_iot_sdk\c-utility\adapters/tlsio_mbedtls.c **** {
 2351              		.loc 1 750 0
 2352              		.cfi_startproc
 2353              		@ args = 0, pretend = 0, frame = 0
 2354              		@ frame_needed = 0, uses_anonymous_args = 0
 2355              	.LVL327:
 2356 0000 70B5     		push	{r4, r5, r6, lr}
 2357              		.cfi_def_cfa_offset 16
 2358              		.cfi_offset 4, -16
 2359              		.cfi_offset 5, -12
ARM GAS  C:\Users\Phuong\AppData\Local\Temp\ccP1LXIT.s 			page 58


 2360              		.cfi_offset 6, -8
 2361              		.cfi_offset 14, -4
 2362 0002 82B0     		sub	sp, sp, #8
 2363              		.cfi_def_cfa_offset 24
 2364 0004 0400     		movs	r4, r0
 2365 0006 0D00     		movs	r5, r1
 2366 0008 1600     		movs	r6, r2
 751:Source\azure_iot_sdk\c-utility\adapters/tlsio_mbedtls.c ****     int result;
 752:Source\azure_iot_sdk\c-utility\adapters/tlsio_mbedtls.c **** 
 753:Source\azure_iot_sdk\c-utility\adapters/tlsio_mbedtls.c ****     if (tls_io == NULL || optionName == NULL)
 2367              		.loc 1 753 0
 2368 000a 0028     		cmp	r0, #0
 2369 000c 57D0     		beq	.L143
 2370              		.loc 1 753 0 is_stmt 0 discriminator 1
 2371 000e 0029     		cmp	r1, #0
 2372 0010 57D0     		beq	.L144
 2373              	.LVL328:
 2374              	.LBB45:
 754:Source\azure_iot_sdk\c-utility\adapters/tlsio_mbedtls.c ****     {
 755:Source\azure_iot_sdk\c-utility\adapters/tlsio_mbedtls.c ****         result = __FAILURE__;
 756:Source\azure_iot_sdk\c-utility\adapters/tlsio_mbedtls.c ****     }
 757:Source\azure_iot_sdk\c-utility\adapters/tlsio_mbedtls.c ****     else
 758:Source\azure_iot_sdk\c-utility\adapters/tlsio_mbedtls.c ****     {
 759:Source\azure_iot_sdk\c-utility\adapters/tlsio_mbedtls.c ****         TLS_IO_INSTANCE* tls_io_instance = (TLS_IO_INSTANCE*)tls_io;
 760:Source\azure_iot_sdk\c-utility\adapters/tlsio_mbedtls.c **** 
 761:Source\azure_iot_sdk\c-utility\adapters/tlsio_mbedtls.c ****         if (strcmp(OPTION_TRUSTED_CERT, optionName) == 0)
 2375              		.loc 1 761 0 is_stmt 1
 2376 0012 3048     		ldr	r0, .L147
 2377              	.LVL329:
 2378 0014 FFF7FEFF 		bl	strcmp
 2379              	.LVL330:
 2380 0018 0028     		cmp	r0, #0
 2381 001a 4AD1     		bne	.L139
 762:Source\azure_iot_sdk\c-utility\adapters/tlsio_mbedtls.c ****         {
 763:Source\azure_iot_sdk\c-utility\adapters/tlsio_mbedtls.c ****             if (tls_io_instance->trusted_certificates != NULL)
 2382              		.loc 1 763 0
 2383 001c F123     		movs	r3, #241
 2384 001e DB00     		lsls	r3, r3, #3
 2385 0020 E058     		ldr	r0, [r4, r3]
 2386 0022 0028     		cmp	r0, #0
 2387 0024 05D0     		beq	.L140
 764:Source\azure_iot_sdk\c-utility\adapters/tlsio_mbedtls.c ****             {
 765:Source\azure_iot_sdk\c-utility\adapters/tlsio_mbedtls.c ****                 // Free the memory if it has been previously allocated
 766:Source\azure_iot_sdk\c-utility\adapters/tlsio_mbedtls.c ****                 free(tls_io_instance->trusted_certificates);
 2388              		.loc 1 766 0
 2389 0026 FFF7FEFF 		bl	free
 2390              	.LVL331:
 767:Source\azure_iot_sdk\c-utility\adapters/tlsio_mbedtls.c ****                 tls_io_instance->trusted_certificates = NULL;
 2391              		.loc 1 767 0
 2392 002a 0022     		movs	r2, #0
 2393 002c F123     		movs	r3, #241
 2394 002e DB00     		lsls	r3, r3, #3
 2395 0030 E250     		str	r2, [r4, r3]
 2396              	.L140:
 768:Source\azure_iot_sdk\c-utility\adapters/tlsio_mbedtls.c ****             }
 769:Source\azure_iot_sdk\c-utility\adapters/tlsio_mbedtls.c ****             if (mallocAndStrcpy_s(&tls_io_instance->trusted_certificates, (const char*)value) != 0)
 2397              		.loc 1 769 0
ARM GAS  C:\Users\Phuong\AppData\Local\Temp\ccP1LXIT.s 			page 59


 2398 0032 3100     		movs	r1, r6
 2399 0034 F123     		movs	r3, #241
 2400 0036 DB00     		lsls	r3, r3, #3
 2401 0038 E018     		adds	r0, r4, r3
 2402 003a FFF7FEFF 		bl	mallocAndStrcpy_s
 2403              	.LVL332:
 2404 003e 0028     		cmp	r0, #0
 2405 0040 10D0     		beq	.L141
 2406              	.LBB46:
 770:Source\azure_iot_sdk\c-utility\adapters/tlsio_mbedtls.c ****             {
 771:Source\azure_iot_sdk\c-utility\adapters/tlsio_mbedtls.c ****                 LogError("unable to mallocAndStrcpy_s");
 2407              		.loc 1 771 0 discriminator 3
 2408 0042 FFF7FEFF 		bl	xlogging_get_log_function
 2409              	.LVL333:
 2410 0046 041E     		subs	r4, r0, #0
 2411              	.LVL334:
 2412 0048 3DD0     		beq	.L145
 2413              		.loc 1 771 0 is_stmt 0 discriminator 4
 2414 004a 234B     		ldr	r3, .L147+4
 2415 004c 0193     		str	r3, [sp, #4]
 2416 004e 0123     		movs	r3, #1
 2417 0050 0093     		str	r3, [sp]
 2418 0052 224B     		ldr	r3, .L147+8
 2419 0054 224A     		ldr	r2, .L147+12
 2420 0056 2432     		adds	r2, r2, #36
 2421 0058 2249     		ldr	r1, .L147+16
 2422 005a 0020     		movs	r0, #0
 2423              	.LVL335:
 2424 005c A047     		blx	r4
 2425              	.LVL336:
 2426              	.LBE46:
 772:Source\azure_iot_sdk\c-utility\adapters/tlsio_mbedtls.c ****                 result = __FAILURE__;
 2427              		.loc 1 772 0 is_stmt 1 discriminator 4
 2428 005e C120     		movs	r0, #193
 2429 0060 8000     		lsls	r0, r0, #2
 2430 0062 35E0     		b	.L138
 2431              	.LVL337:
 2432              	.L141:
 2433              	.LBB47:
 773:Source\azure_iot_sdk\c-utility\adapters/tlsio_mbedtls.c ****             }
 774:Source\azure_iot_sdk\c-utility\adapters/tlsio_mbedtls.c ****             else
 775:Source\azure_iot_sdk\c-utility\adapters/tlsio_mbedtls.c ****             {
 776:Source\azure_iot_sdk\c-utility\adapters/tlsio_mbedtls.c ****                 int parse_result = mbedtls_x509_crt_parse(&tls_io_instance->trusted_certificates_pa
 2434              		.loc 1 776 0
 2435 0064 BB23     		movs	r3, #187
 2436 0066 DB00     		lsls	r3, r3, #3
 2437 0068 E518     		adds	r5, r4, r3
 2438              	.LVL338:
 2439 006a 3000     		movs	r0, r6
 2440 006c FFF7FEFF 		bl	strlen
 2441              	.LVL339:
 2442 0070 421C     		adds	r2, r0, #1
 2443 0072 3100     		movs	r1, r6
 2444 0074 2800     		movs	r0, r5
 2445 0076 FFF7FEFF 		bl	mbedtls_x509_crt_parse
 2446              	.LVL340:
 777:Source\azure_iot_sdk\c-utility\adapters/tlsio_mbedtls.c ****                 if (parse_result != 0)
ARM GAS  C:\Users\Phuong\AppData\Local\Temp\ccP1LXIT.s 			page 60


 2447              		.loc 1 777 0
 2448 007a 0028     		cmp	r0, #0
 2449 007c 10D0     		beq	.L142
 2450              	.LBB48:
 778:Source\azure_iot_sdk\c-utility\adapters/tlsio_mbedtls.c ****                 {
 779:Source\azure_iot_sdk\c-utility\adapters/tlsio_mbedtls.c ****                     LogInfo("Malformed pem certificate");
 2451              		.loc 1 779 0 discriminator 3
 2452 007e FFF7FEFF 		bl	xlogging_get_log_function
 2453              	.LVL341:
 2454 0082 041E     		subs	r4, r0, #0
 2455              	.LVL342:
 2456 0084 22D0     		beq	.L146
 2457              		.loc 1 779 0 is_stmt 0 discriminator 4
 2458 0086 184B     		ldr	r3, .L147+20
 2459 0088 0193     		str	r3, [sp, #4]
 2460 008a 0123     		movs	r3, #1
 2461 008c 0093     		str	r3, [sp]
 2462 008e 174B     		ldr	r3, .L147+24
 2463 0090 134A     		ldr	r2, .L147+12
 2464 0092 2432     		adds	r2, r2, #36
 2465 0094 1349     		ldr	r1, .L147+16
 2466 0096 0120     		movs	r0, #1
 2467              	.LVL343:
 2468 0098 A047     		blx	r4
 2469              	.LVL344:
 2470              	.LBE48:
 780:Source\azure_iot_sdk\c-utility\adapters/tlsio_mbedtls.c ****                     result = __FAILURE__;
 2471              		.loc 1 780 0 is_stmt 1 discriminator 4
 2472 009a C320     		movs	r0, #195
 2473 009c 8000     		lsls	r0, r0, #2
 2474 009e 17E0     		b	.L138
 2475              	.LVL345:
 2476              	.L142:
 781:Source\azure_iot_sdk\c-utility\adapters/tlsio_mbedtls.c ****                 }
 782:Source\azure_iot_sdk\c-utility\adapters/tlsio_mbedtls.c ****                 else
 783:Source\azure_iot_sdk\c-utility\adapters/tlsio_mbedtls.c ****                 {
 784:Source\azure_iot_sdk\c-utility\adapters/tlsio_mbedtls.c ****                     mbedtls_ssl_conf_ca_chain(&tls_io_instance->config, &tls_io_instance->trusted_c
 2477              		.loc 1 784 0
 2478 00a0 A123     		movs	r3, #161
 2479 00a2 DB00     		lsls	r3, r3, #3
 2480 00a4 E018     		adds	r0, r4, r3
 2481              	.LVL346:
 2482 00a6 0022     		movs	r2, #0
 2483 00a8 2900     		movs	r1, r5
 2484 00aa FFF7FEFF 		bl	mbedtls_ssl_conf_ca_chain
 2485              	.LVL347:
 785:Source\azure_iot_sdk\c-utility\adapters/tlsio_mbedtls.c ****                     result = 0;
 2486              		.loc 1 785 0
 2487 00ae 0020     		movs	r0, #0
 2488 00b0 0EE0     		b	.L138
 2489              	.LVL348:
 2490              	.L139:
 2491              	.LBE47:
 786:Source\azure_iot_sdk\c-utility\adapters/tlsio_mbedtls.c ****                 }
 787:Source\azure_iot_sdk\c-utility\adapters/tlsio_mbedtls.c ****             }
 788:Source\azure_iot_sdk\c-utility\adapters/tlsio_mbedtls.c ****         }
 789:Source\azure_iot_sdk\c-utility\adapters/tlsio_mbedtls.c ****         else
ARM GAS  C:\Users\Phuong\AppData\Local\Temp\ccP1LXIT.s 			page 61


 790:Source\azure_iot_sdk\c-utility\adapters/tlsio_mbedtls.c ****         {
 791:Source\azure_iot_sdk\c-utility\adapters/tlsio_mbedtls.c ****             // tls_io_instance->socket_io is never NULL
 792:Source\azure_iot_sdk\c-utility\adapters/tlsio_mbedtls.c ****             result = xio_setoption(tls_io_instance->socket_io, optionName, value);
 2492              		.loc 1 792 0
 2493 00b2 2068     		ldr	r0, [r4]
 2494 00b4 3200     		movs	r2, r6
 2495 00b6 2900     		movs	r1, r5
 2496 00b8 FFF7FEFF 		bl	xio_setoption
 2497              	.LVL349:
 2498 00bc 08E0     		b	.L138
 2499              	.LVL350:
 2500              	.L143:
 2501              	.LBE45:
 755:Source\azure_iot_sdk\c-utility\adapters/tlsio_mbedtls.c ****     }
 2502              		.loc 1 755 0
 2503 00be 0C48     		ldr	r0, .L147+28
 2504              	.LVL351:
 2505 00c0 06E0     		b	.L138
 2506              	.LVL352:
 2507              	.L144:
 2508 00c2 0B48     		ldr	r0, .L147+28
 2509              	.LVL353:
 2510 00c4 04E0     		b	.L138
 2511              	.LVL354:
 2512              	.L145:
 2513              	.LBB50:
 772:Source\azure_iot_sdk\c-utility\adapters/tlsio_mbedtls.c ****             }
 2514              		.loc 1 772 0
 2515 00c6 C120     		movs	r0, #193
 2516              	.LVL355:
 2517 00c8 8000     		lsls	r0, r0, #2
 2518 00ca 01E0     		b	.L138
 2519              	.LVL356:
 2520              	.L146:
 2521              	.LBB49:
 780:Source\azure_iot_sdk\c-utility\adapters/tlsio_mbedtls.c ****                 }
 2522              		.loc 1 780 0
 2523 00cc C320     		movs	r0, #195
 2524              	.LVL357:
 2525 00ce 8000     		lsls	r0, r0, #2
 2526              	.LVL358:
 2527              	.L138:
 2528              	.LBE49:
 2529              	.LBE50:
 793:Source\azure_iot_sdk\c-utility\adapters/tlsio_mbedtls.c ****         }
 794:Source\azure_iot_sdk\c-utility\adapters/tlsio_mbedtls.c ****     }
 795:Source\azure_iot_sdk\c-utility\adapters/tlsio_mbedtls.c ****     return result;
 796:Source\azure_iot_sdk\c-utility\adapters/tlsio_mbedtls.c **** }
 2530              		.loc 1 796 0
 2531 00d0 02B0     		add	sp, sp, #8
 2532              		@ sp needed
 2533              	.LVL359:
 2534 00d2 70BD     		pop	{r4, r5, r6, pc}
 2535              	.L148:
 2536              		.align	2
 2537              	.L147:
 2538 00d4 EC010000 		.word	.LC63
ARM GAS  C:\Users\Phuong\AppData\Local\Temp\ccP1LXIT.s 			page 62


 2539 00d8 B0020000 		.word	.LC86
 2540 00dc 03030000 		.word	771
 2541 00e0 00010000 		.word	.LANCHOR2
 2542 00e4 00000000 		.word	.LC1
 2543 00e8 CC020000 		.word	.LC88
 2544 00ec 0B030000 		.word	779
 2545 00f0 F3020000 		.word	755
 2546              		.cfi_endproc
 2547              	.LFE39:
 2548              		.size	tlsio_mbedtls_setoption, .-tlsio_mbedtls_setoption
 2549              		.section	.text.tlsio_mbedtls_get_interface_description,"ax",%progbits
 2550              		.align	2
 2551              		.global	tlsio_mbedtls_get_interface_description
 2552              		.code	16
 2553              		.thumb_func
 2554              		.type	tlsio_mbedtls_get_interface_description, %function
 2555              	tlsio_mbedtls_get_interface_description:
 2556              	.LFB35:
 637:Source\azure_iot_sdk\c-utility\adapters/tlsio_mbedtls.c ****     return &tlsio_mbedtls_interface_description;
 2557              		.loc 1 637 0
 2558              		.cfi_startproc
 2559              		@ args = 0, pretend = 0, frame = 0
 2560              		@ frame_needed = 0, uses_anonymous_args = 0
 2561              		@ link register save eliminated.
 638:Source\azure_iot_sdk\c-utility\adapters/tlsio_mbedtls.c **** }
 2562              		.loc 1 638 0
 2563 0000 0148     		ldr	r0, .L150
 639:Source\azure_iot_sdk\c-utility\adapters/tlsio_mbedtls.c **** 
 2564              		.loc 1 639 0
 2565 0002 3C30     		adds	r0, r0, #60
 2566              		@ sp needed
 2567 0004 7047     		bx	lr
 2568              	.L151:
 2569 0006 C046     		.align	2
 2570              	.L150:
 2571 0008 00010000 		.word	.LANCHOR2
 2572              		.cfi_endproc
 2573              	.LFE35:
 2574              		.size	tlsio_mbedtls_get_interface_description, .-tlsio_mbedtls_get_interface_description
 2575              		.section	.rodata
 2576              		.align	2
 2577              		.set	.LANCHOR0,. + 0
 2578              		.set	.LANCHOR1,. + 128
 2579              		.set	.LANCHOR2,. + 256
 2580              		.type	__func__.9063, %object
 2581              		.size	__func__.9063, 45
 2582              	__func__.9063:
 2583 0000 6F6E5F75 		.ascii	"on_underlying_io_close_complete_during_close\000"
 2583      6E646572 
 2583      6C79696E 
 2583      675F696F 
 2583      5F636C6F 
 2584 002d 000000   		.space	3
 2585              		.type	__func__.9117, %object
 2586              		.size	__func__.9117, 21
 2587              	__func__.9117:
 2588 0030 746C7369 		.ascii	"tlsio_mbedtls_create\000"
ARM GAS  C:\Users\Phuong\AppData\Local\Temp\ccP1LXIT.s 			page 63


 2588      6F5F6D62 
 2588      6564746C 
 2588      735F6372 
 2588      65617465 
 2589 0045 000000   		.space	3
 2590              		.type	__func__.9074, %object
 2591              		.size	__func__.9074, 11
 2592              	__func__.9074:
 2593 0048 6F6E5F69 		.ascii	"on_io_recv\000"
 2593      6F5F7265 
 2593      637600
 2594 0053 00       		.space	1
 2595              		.type	__func__.9041, %object
 2596              		.size	__func__.9041, 32
 2597              	__func__.9041:
 2598 0054 6F6E5F75 		.ascii	"on_underlying_io_bytes_received\000"
 2598      6E646572 
 2598      6C79696E 
 2598      675F696F 
 2598      5F627974 
 2599              		.type	__func__.9091, %object
 2600              		.size	__func__.9091, 11
 2601              	__func__.9091:
 2602 0074 6F6E5F69 		.ascii	"on_io_send\000"
 2602      6F5F7365 
 2602      6E6400
 2603 007f 00       		.space	1
 2604              		.type	__func__.9147, %object
 2605              		.size	__func__.9147, 19
 2606              	__func__.9147:
 2607 0080 746C7369 		.ascii	"tlsio_mbedtls_open\000"
 2607      6F5F6D62 
 2607      6564746C 
 2607      735F6F70 
 2607      656E00
 2608 0093 00       		.space	1
 2609              		.type	__func__.9048, %object
 2610              		.size	__func__.9048, 23
 2611              	__func__.9048:
 2612 0094 6F6E5F75 		.ascii	"on_underlying_io_error\000"
 2612      6E646572 
 2612      6C79696E 
 2612      675F696F 
 2612      5F657272 
 2613 00ab 00       		.space	1
 2614              		.type	__func__.9026, %object
 2615              		.size	__func__.9026, 31
 2616              	__func__.9026:
 2617 00ac 6F6E5F75 		.ascii	"on_underlying_io_open_complete\000"
 2617      6E646572 
 2617      6C79696E 
 2617      675F696F 
 2617      5F6F7065 
 2618 00cb 00       		.space	1
 2619              		.type	__func__.9212, %object
 2620              		.size	__func__.9212, 30
 2621              	__func__.9212:
ARM GAS  C:\Users\Phuong\AppData\Local\Temp\ccP1LXIT.s 			page 64


 2622 00cc 746C7369 		.ascii	"tlsio_mbedtls_retrieveoptions\000"
 2622      6F5F6D62 
 2622      6564746C 
 2622      735F7265 
 2622      74726965 
 2623 00ea 0000     		.space	2
 2624              		.type	__func__.9201, %object
 2625              		.size	__func__.9201, 28
 2626              	__func__.9201:
 2627 00ec 746C7369 		.ascii	"tlsio_mbedtls_DestroyOption\000"
 2627      6F5F6D62 
 2627      6564746C 
 2627      735F4465 
 2627      7374726F 
 2628              		.type	__func__.9187, %object
 2629              		.size	__func__.9187, 26
 2630              	__func__.9187:
 2631 0108 746C7369 		.ascii	"tlsio_mbedtls_CloneOption\000"
 2631      6F5F6D62 
 2631      6564746C 
 2631      735F436C 
 2631      6F6E654F 
 2632 0122 0000     		.space	2
 2633              		.type	__func__.9234, %object
 2634              		.size	__func__.9234, 24
 2635              	__func__.9234:
 2636 0124 746C7369 		.ascii	"tlsio_mbedtls_setoption\000"
 2636      6F5F6D62 
 2636      6564746C 
 2636      735F7365 
 2636      746F7074 
 2637              		.type	tlsio_mbedtls_interface_description, %object
 2638              		.size	tlsio_mbedtls_interface_description, 32
 2639              	tlsio_mbedtls_interface_description:
 2640 013c 00000000 		.word	tlsio_mbedtls_retrieveoptions
 2641 0140 00000000 		.word	tlsio_mbedtls_create
 2642 0144 00000000 		.word	tlsio_mbedtls_destroy
 2643 0148 00000000 		.word	tlsio_mbedtls_open
 2644 014c 00000000 		.word	tlsio_mbedtls_close
 2645 0150 00000000 		.word	tlsio_mbedtls_send
 2646 0154 00000000 		.word	tlsio_mbedtls_dowork
 2647 0158 00000000 		.word	tlsio_mbedtls_setoption
 2648              		.section	.rodata.str1.4,"aMS",%progbits,1
 2649              		.align	2
 2650              	.LC1:
 2651 0000 536F7572 		.ascii	"Source\\azure_iot_sdk\\c-utility\\adapters\\tlsio_m"
 2651      63655C61 
 2651      7A757265 
 2651      5F696F74 
 2651      5F73646B 
 2652 002f 62656474 		.ascii	"bedtls.c\000"
 2652      6C732E63 
 2652      00
 2653              	.LC3:
 2654 0038 496E7661 		.ascii	"Invalid context NULL value passed\000"
 2654      6C696420 
 2654      636F6E74 
ARM GAS  C:\Users\Phuong\AppData\Local\Temp\ccP1LXIT.s 			page 65


 2654      65787420 
 2654      4E554C4C 
 2655 005a 0000     		.space	2
 2656              	.LC6:
 2657 005c 617A7572 		.ascii	"azure_iot_client\000"
 2657      655F696F 
 2657      745F636C 
 2657      69656E74 
 2657      00
 2658 006d 000000   		.space	3
 2659              	.LC14:
 2660 0070 4E554C4C 		.ascii	"NULL tls_io_config\000"
 2660      20746C73 
 2660      5F696F5F 
 2660      636F6E66 
 2660      696700
 2661 0083 00       		.space	1
 2662              	.LC16:
 2663 0084 4661696C 		.ascii	"Failed getting socket IO interface description.\000"
 2663      65642067 
 2663      65747469 
 2663      6E672073 
 2663      6F636B65 
 2664              	.LC18:
 2665 00b4 736F636B 		.ascii	"socket xio create failed\000"
 2665      65742078 
 2665      696F2063 
 2665      72656174 
 2665      65206661 
 2666 00cd 000000   		.space	3
 2667              	.LC20:
 2668 00d0 4661696C 		.ascii	"Failure allocating tlsio.\000"
 2668      75726520 
 2668      616C6C6F 
 2668      63617469 
 2668      6E672074 
 2669 00ea 0000     		.space	2
 2670              	.LC27:
 2671 00ec 4E554C4C 		.ascii	"NULL value passed in context\000"
 2671      2076616C 
 2671      75652070 
 2671      61737365 
 2671      6420696E 
 2672 0109 000000   		.space	3
 2673              	.LC34:
 2674 010c 4E554C4C 		.ascii	"NULL tls_io\000"
 2674      20746C73 
 2674      5F696F00 
 2675              	.LC36:
 2676 0118 494F2073 		.ascii	"IO should not be open: %d\012\000"
 2676      686F756C 
 2676      64206E6F 
 2676      74206265 
 2676      206F7065 
 2677 0133 00       		.space	1
 2678              	.LC41:
 2679 0134 556E6465 		.ascii	"Underlying IO open failed\000"
ARM GAS  C:\Users\Phuong\AppData\Local\Temp\ccP1LXIT.s 			page 66


 2679      726C7969 
 2679      6E672049 
 2679      4F206F70 
 2679      656E2066 
 2680 014e 0000     		.space	2
 2681              	.LC52:
 2682 0150 696E7661 		.ascii	"invalid parameter detected: CONCRETE_IO_HANDLE hand"
 2682      6C696420 
 2682      70617261 
 2682      6D657465 
 2682      72206465 
 2683 0183 6C653D25 		.ascii	"le=%p\000"
 2683      7000
 2684 0189 000000   		.space	3
 2685              	.LC57:
 2686 018c 756E6162 		.ascii	"unable to OptionHandler_Create\000"
 2686      6C652074 
 2686      6F204F70 
 2686      74696F6E 
 2686      48616E64 
 2687 01ab 00       		.space	1
 2688              	.LC59:
 2689 01ac 756E6465 		.ascii	"underlying_io_options\000"
 2689      726C7969 
 2689      6E675F69 
 2689      6F5F6F70 
 2689      74696F6E 
 2690 01c2 0000     		.space	2
 2691              	.LC61:
 2692 01c4 756E6162 		.ascii	"unable to save underlying_io options\000"
 2692      6C652074 
 2692      6F207361 
 2692      76652075 
 2692      6E646572 
 2693 01e9 000000   		.space	3
 2694              	.LC63:
 2695 01ec 54727573 		.ascii	"TrustedCerts\000"
 2695      74656443 
 2695      65727473 
 2695      00
 2696 01f9 000000   		.space	3
 2697              	.LC65:
 2698 01fc 756E6162 		.ascii	"unable to save TrustedCerts option\000"
 2698      6C652074 
 2698      6F207361 
 2698      76652054 
 2698      72757374 
 2699 021f 00       		.space	1
 2700              	.LC69:
 2701 0220 696E7661 		.ascii	"invalid parameter detected: const char* name=%p, co"
 2701      6C696420 
 2701      70617261 
 2701      6D657465 
 2701      72206465 
 2702 0253 6E737420 		.ascii	"nst void* value=%p\000"
 2702      766F6964 
 2702      2A207661 
ARM GAS  C:\Users\Phuong\AppData\Local\Temp\ccP1LXIT.s 			page 67


 2702      6C75653D 
 2702      257000
 2703 0266 0000     		.space	2
 2704              	.LC73:
 2705 0268 6E6F7420 		.ascii	"not handled option : %s\000"
 2705      68616E64 
 2705      6C656420 
 2705      6F707469 
 2705      6F6E203A 
 2706              	.LC80:
 2707 0280 756E6162 		.ascii	"unable to mallocAndStrcpy_s TrustedCerts value\000"
 2707      6C652074 
 2707      6F206D61 
 2707      6C6C6F63 
 2707      416E6453 
 2708 02af 00       		.space	1
 2709              	.LC86:
 2710 02b0 756E6162 		.ascii	"unable to mallocAndStrcpy_s\000"
 2710      6C652074 
 2710      6F206D61 
 2710      6C6C6F63 
 2710      416E6453 
 2711              	.LC88:
 2712 02cc 4D616C66 		.ascii	"Malformed pem certificate\000"
 2712      6F726D65 
 2712      64207065 
 2712      6D206365 
 2712      72746966 
 2713              		.text
 2714              	.Letext0:
 2715              		.file 2 "c:\\program files (x86)\\cypress\\psoc creator\\4.2\\psoc creator\\import\\gnu\\arm\\5.4.
 2716              		.file 3 "c:\\program files (x86)\\cypress\\psoc creator\\4.2\\psoc creator\\import\\gnu\\arm\\5.4.
 2717              		.file 4 "c:\\program files (x86)\\cypress\\psoc creator\\4.2\\psoc creator\\import\\gnu\\arm\\5.4.
 2718              		.file 5 ".\\Source\\mbedtls_open\\include/mbedtls/bignum.h"
 2719              		.file 6 ".\\Source\\mbedtls_open\\include/mbedtls/ecp.h"
 2720              		.file 7 ".\\Source\\mbedtls_open\\include/mbedtls/md.h"
 2721              		.file 8 ".\\Source\\mbedtls_open\\include/mbedtls/pk.h"
 2722              		.file 9 ".\\Source\\mbedtls_open\\include/mbedtls/asn1.h"
 2723              		.file 10 ".\\Source\\mbedtls_open\\include/mbedtls/x509.h"
 2724              		.file 11 ".\\Source\\mbedtls_open\\include/mbedtls/x509_crl.h"
 2725              		.file 12 ".\\Source\\mbedtls_open\\include/mbedtls/x509_crt.h"
 2726              		.file 13 ".\\Source\\mbedtls_open\\include/mbedtls/ssl.h"
 2727              		.file 14 ".\\Source\\mbedtls_open\\include/mbedtls/sha512.h"
 2728              		.file 15 ".\\Source\\mbedtls_open\\include/mbedtls/entropy.h"
 2729              		.file 16 ".\\Source\\mbedtls_open\\include/mbedtls/aes.h"
 2730              		.file 17 ".\\Source\\mbedtls_open\\include/mbedtls/ctr_drbg.h"
 2731              		.file 18 ".\\Source\\azure_iot_sdk\\c-utility\\inc/azure_c_shared_utility/optionhandler.h"
 2732              		.file 19 ".\\Source\\azure_iot_sdk\\c-utility\\inc/azure_c_shared_utility/xio.h"
 2733              		.file 20 ".\\Source\\azure_iot_sdk\\c-utility\\inc/azure_c_shared_utility/tlsio.h"
 2734              		.file 21 ".\\Source\\azure_iot_sdk\\c-utility\\inc/azure_c_shared_utility/xlogging.h"
 2735              		.file 22 ".\\Source\\azure_iot_sdk\\c-utility\\inc/azure_c_shared_utility/socketio.h"
 2736              		.file 23 ".\\Source\\azure_iot_sdk\\c-utility\\inc/azure_c_shared_utility/shared_util_options.h"
 2737              		.file 24 "c:\\program files (x86)\\cypress\\psoc creator\\4.2\\psoc creator\\import\\gnu\\arm\\5.4
 2738              		.file 25 "c:\\program files (x86)\\cypress\\psoc creator\\4.2\\psoc creator\\import\\gnu\\arm\\5.4
 2739              		.file 26 "c:\\program files (x86)\\cypress\\psoc creator\\4.2\\psoc creator\\import\\gnu\\arm\\5.4
 2740              		.file 27 ".\\Source\\azure_iot_sdk\\c-utility\\inc/azure_c_shared_utility/crt_abstractions.h"