ARM GAS  C:\Users\Phuong\AppData\Local\Temp\cc08x83E.s 			page 1


   1              		.syntax unified
   2              		.cpu cortex-m0plus
   3              		.fpu softvfp
   4              		.eabi_attribute 20, 1
   5              		.eabi_attribute 21, 1
   6              		.eabi_attribute 23, 3
   7              		.eabi_attribute 24, 1
   8              		.eabi_attribute 25, 1
   9              		.eabi_attribute 26, 1
  10              		.eabi_attribute 30, 1
  11              		.eabi_attribute 34, 0
  12              		.eabi_attribute 18, 4
  13              		.thumb
  14              		.syntax unified
  15              		.file	"udp.c"
  16              		.text
  17              	.Ltext0:
  18              		.cfi_sections	.debug_frame
  19              		.section	.text.udp_new_port,"ax",%progbits
  20              		.align	2
  21              		.code	16
  22              		.thumb_func
  23              		.type	udp_new_port, %function
  24              	udp_new_port:
  25              	.LFB54:
  26              		.file 1 "Source\\LwIP\\src\\core\\udp.c"
   1:Source\LwIP\src\core/udp.c **** /**
   2:Source\LwIP\src\core/udp.c ****  * @file
   3:Source\LwIP\src\core/udp.c ****  * User Datagram Protocol module\n
   4:Source\LwIP\src\core/udp.c ****  * The code for the User Datagram Protocol UDP & UDPLite (RFC 3828).\n
   5:Source\LwIP\src\core/udp.c ****  * See also @ref udp_raw
   6:Source\LwIP\src\core/udp.c ****  * 
   7:Source\LwIP\src\core/udp.c ****  * @defgroup udp_raw UDP
   8:Source\LwIP\src\core/udp.c ****  * @ingroup callbackstyle_api
   9:Source\LwIP\src\core/udp.c ****  * User Datagram Protocol module\n
  10:Source\LwIP\src\core/udp.c ****  * @see @ref raw_api and @ref netconn
  11:Source\LwIP\src\core/udp.c ****  */
  12:Source\LwIP\src\core/udp.c **** 
  13:Source\LwIP\src\core/udp.c **** /*
  14:Source\LwIP\src\core/udp.c ****  * Copyright (c) 2001-2004 Swedish Institute of Computer Science.
  15:Source\LwIP\src\core/udp.c ****  * All rights reserved.
  16:Source\LwIP\src\core/udp.c ****  *
  17:Source\LwIP\src\core/udp.c ****  * Redistribution and use in source and binary forms, with or without modification,
  18:Source\LwIP\src\core/udp.c ****  * are permitted provided that the following conditions are met:
  19:Source\LwIP\src\core/udp.c ****  *
  20:Source\LwIP\src\core/udp.c ****  * 1. Redistributions of source code must retain the above copyright notice,
  21:Source\LwIP\src\core/udp.c ****  *    this list of conditions and the following disclaimer.
  22:Source\LwIP\src\core/udp.c ****  * 2. Redistributions in binary form must reproduce the above copyright notice,
  23:Source\LwIP\src\core/udp.c ****  *    this list of conditions and the following disclaimer in the documentation
  24:Source\LwIP\src\core/udp.c ****  *    and/or other materials provided with the distribution.
  25:Source\LwIP\src\core/udp.c ****  * 3. The name of the author may not be used to endorse or promote products
  26:Source\LwIP\src\core/udp.c ****  *    derived from this software without specific prior written permission.
  27:Source\LwIP\src\core/udp.c ****  *
  28:Source\LwIP\src\core/udp.c ****  * THIS SOFTWARE IS PROVIDED BY THE AUTHOR ``AS IS'' AND ANY EXPRESS OR IMPLIED
  29:Source\LwIP\src\core/udp.c ****  * WARRANTIES, INCLUDING, BUT NOT LIMITED TO, THE IMPLIED WARRANTIES OF
  30:Source\LwIP\src\core/udp.c ****  * MERCHANTABILITY AND FITNESS FOR A PARTICULAR PURPOSE ARE DISCLAIMED. IN NO EVENT
  31:Source\LwIP\src\core/udp.c ****  * SHALL THE AUTHOR BE LIABLE FOR ANY DIRECT, INDIRECT, INCIDENTAL, SPECIAL,
ARM GAS  C:\Users\Phuong\AppData\Local\Temp\cc08x83E.s 			page 2


  32:Source\LwIP\src\core/udp.c ****  * EXEMPLARY, OR CONSEQUENTIAL DAMAGES (INCLUDING, BUT NOT LIMITED TO, PROCUREMENT
  33:Source\LwIP\src\core/udp.c ****  * OF SUBSTITUTE GOODS OR SERVICES; LOSS OF USE, DATA, OR PROFITS; OR BUSINESS
  34:Source\LwIP\src\core/udp.c ****  * INTERRUPTION) HOWEVER CAUSED AND ON ANY THEORY OF LIABILITY, WHETHER IN
  35:Source\LwIP\src\core/udp.c ****  * CONTRACT, STRICT LIABILITY, OR TORT (INCLUDING NEGLIGENCE OR OTHERWISE) ARISING
  36:Source\LwIP\src\core/udp.c ****  * IN ANY WAY OUT OF THE USE OF THIS SOFTWARE, EVEN IF ADVISED OF THE POSSIBILITY
  37:Source\LwIP\src\core/udp.c ****  * OF SUCH DAMAGE.
  38:Source\LwIP\src\core/udp.c ****  *
  39:Source\LwIP\src\core/udp.c ****  * This file is part of the lwIP TCP/IP stack.
  40:Source\LwIP\src\core/udp.c ****  *
  41:Source\LwIP\src\core/udp.c ****  * Author: Adam Dunkels <adam@sics.se>
  42:Source\LwIP\src\core/udp.c ****  *
  43:Source\LwIP\src\core/udp.c ****  */
  44:Source\LwIP\src\core/udp.c **** 
  45:Source\LwIP\src\core/udp.c **** /* @todo Check the use of '(struct udp_pcb).chksum_len_rx'!
  46:Source\LwIP\src\core/udp.c ****  */
  47:Source\LwIP\src\core/udp.c **** 
  48:Source\LwIP\src\core/udp.c **** #include "lwip/opt.h"
  49:Source\LwIP\src\core/udp.c **** 
  50:Source\LwIP\src\core/udp.c **** #if LWIP_UDP /* don't build if not configured for use in lwipopts.h */
  51:Source\LwIP\src\core/udp.c **** 
  52:Source\LwIP\src\core/udp.c **** #include "lwip/udp.h"
  53:Source\LwIP\src\core/udp.c **** #include "lwip/def.h"
  54:Source\LwIP\src\core/udp.c **** #include "lwip/memp.h"
  55:Source\LwIP\src\core/udp.c **** #include "lwip/inet_chksum.h"
  56:Source\LwIP\src\core/udp.c **** #include "lwip/ip_addr.h"
  57:Source\LwIP\src\core/udp.c **** #include "lwip/ip6.h"
  58:Source\LwIP\src\core/udp.c **** #include "lwip/ip6_addr.h"
  59:Source\LwIP\src\core/udp.c **** #include "lwip/netif.h"
  60:Source\LwIP\src\core/udp.c **** #include "lwip/icmp.h"
  61:Source\LwIP\src\core/udp.c **** #include "lwip/icmp6.h"
  62:Source\LwIP\src\core/udp.c **** #include "lwip/stats.h"
  63:Source\LwIP\src\core/udp.c **** #include "lwip/snmp.h"
  64:Source\LwIP\src\core/udp.c **** #include "lwip/dhcp.h"
  65:Source\LwIP\src\core/udp.c **** 
  66:Source\LwIP\src\core/udp.c **** #include <string.h>
  67:Source\LwIP\src\core/udp.c **** 
  68:Source\LwIP\src\core/udp.c **** #ifndef UDP_LOCAL_PORT_RANGE_START
  69:Source\LwIP\src\core/udp.c **** /* From http://www.iana.org/assignments/port-numbers:
  70:Source\LwIP\src\core/udp.c ****    "The Dynamic and/or Private Ports are those from 49152 through 65535" */
  71:Source\LwIP\src\core/udp.c **** #define UDP_LOCAL_PORT_RANGE_START  0xc000
  72:Source\LwIP\src\core/udp.c **** #define UDP_LOCAL_PORT_RANGE_END    0xffff
  73:Source\LwIP\src\core/udp.c **** #define UDP_ENSURE_LOCAL_PORT_RANGE(port) ((u16_t)(((port) & ~UDP_LOCAL_PORT_RANGE_START) + UDP_LOC
  74:Source\LwIP\src\core/udp.c **** #endif
  75:Source\LwIP\src\core/udp.c **** 
  76:Source\LwIP\src\core/udp.c **** /* last local UDP port */
  77:Source\LwIP\src\core/udp.c **** static u16_t udp_port = UDP_LOCAL_PORT_RANGE_START;
  78:Source\LwIP\src\core/udp.c **** 
  79:Source\LwIP\src\core/udp.c **** /* The list of UDP PCBs */
  80:Source\LwIP\src\core/udp.c **** /* exported in udp.h (was static) */
  81:Source\LwIP\src\core/udp.c **** struct udp_pcb *udp_pcbs;
  82:Source\LwIP\src\core/udp.c **** 
  83:Source\LwIP\src\core/udp.c **** /**
  84:Source\LwIP\src\core/udp.c ****  * Initialize this module.
  85:Source\LwIP\src\core/udp.c ****  */
  86:Source\LwIP\src\core/udp.c **** void
  87:Source\LwIP\src\core/udp.c **** udp_init(void)
  88:Source\LwIP\src\core/udp.c **** {
ARM GAS  C:\Users\Phuong\AppData\Local\Temp\cc08x83E.s 			page 3


  89:Source\LwIP\src\core/udp.c **** #if LWIP_RANDOMIZE_INITIAL_LOCAL_PORTS && defined(LWIP_RAND)
  90:Source\LwIP\src\core/udp.c ****   udp_port = UDP_ENSURE_LOCAL_PORT_RANGE(LWIP_RAND());
  91:Source\LwIP\src\core/udp.c **** #endif /* LWIP_RANDOMIZE_INITIAL_LOCAL_PORTS && defined(LWIP_RAND) */
  92:Source\LwIP\src\core/udp.c **** }
  93:Source\LwIP\src\core/udp.c **** 
  94:Source\LwIP\src\core/udp.c **** /**
  95:Source\LwIP\src\core/udp.c ****  * Allocate a new local UDP port.
  96:Source\LwIP\src\core/udp.c ****  *
  97:Source\LwIP\src\core/udp.c ****  * @return a new (free) local UDP port number
  98:Source\LwIP\src\core/udp.c ****  */
  99:Source\LwIP\src\core/udp.c **** static u16_t
 100:Source\LwIP\src\core/udp.c **** udp_new_port(void)
 101:Source\LwIP\src\core/udp.c **** {
  27              		.loc 1 101 0
  28              		.cfi_startproc
  29              		@ args = 0, pretend = 0, frame = 0
  30              		@ frame_needed = 0, uses_anonymous_args = 0
  31              		@ link register save eliminated.
  32              	.LVL0:
 102:Source\LwIP\src\core/udp.c ****   u16_t n = 0;
  33              		.loc 1 102 0
  34 0000 0020     		movs	r0, #0
  35              	.LVL1:
  36              	.L2:
 103:Source\LwIP\src\core/udp.c ****   struct udp_pcb *pcb;
 104:Source\LwIP\src\core/udp.c **** 
 105:Source\LwIP\src\core/udp.c **** again:
 106:Source\LwIP\src\core/udp.c ****   if (udp_port++ == UDP_LOCAL_PORT_RANGE_END) {
  37              		.loc 1 106 0
  38 0002 104A     		ldr	r2, .L9
  39 0004 1388     		ldrh	r3, [r2]
  40 0006 591C     		adds	r1, r3, #1
  41 0008 1180     		strh	r1, [r2]
  42 000a 0F4A     		ldr	r2, .L9+4
  43 000c 9342     		cmp	r3, r2
  44 000e 02D1     		bne	.L3
 107:Source\LwIP\src\core/udp.c ****     udp_port = UDP_LOCAL_PORT_RANGE_START;
  45              		.loc 1 107 0
  46 0010 0E4A     		ldr	r2, .L9+8
  47 0012 0C4B     		ldr	r3, .L9
  48 0014 1A80     		strh	r2, [r3]
  49              	.L3:
 108:Source\LwIP\src\core/udp.c ****   }
 109:Source\LwIP\src\core/udp.c ****   /* Check all PCBs. */
 110:Source\LwIP\src\core/udp.c ****   for (pcb = udp_pcbs; pcb != NULL; pcb = pcb->next) {
  50              		.loc 1 110 0
  51 0016 0E4B     		ldr	r3, .L9+12
  52 0018 1B68     		ldr	r3, [r3]
  53              	.LVL2:
  54 001a 0BE0     		b	.L4
  55              	.L7:
 111:Source\LwIP\src\core/udp.c ****     if (pcb->local_port == udp_port) {
  56              		.loc 1 111 0
  57 001c 598A     		ldrh	r1, [r3, #18]
  58 001e 094A     		ldr	r2, .L9
  59 0020 1288     		ldrh	r2, [r2]
  60 0022 9142     		cmp	r1, r2
ARM GAS  C:\Users\Phuong\AppData\Local\Temp\cc08x83E.s 			page 4


  61 0024 05D1     		bne	.L5
 112:Source\LwIP\src\core/udp.c ****       if (++n > (UDP_LOCAL_PORT_RANGE_END - UDP_LOCAL_PORT_RANGE_START)) {
  62              		.loc 1 112 0
  63 0026 0130     		adds	r0, r0, #1
  64              	.LVL3:
  65 0028 80B2     		uxth	r0, r0
  66              	.LVL4:
  67 002a 0A4B     		ldr	r3, .L9+16
  68              	.LVL5:
  69 002c 9842     		cmp	r0, r3
  70 002e E8D9     		bls	.L2
  71 0030 05E0     		b	.L8
  72              	.LVL6:
  73              	.L5:
 110:Source\LwIP\src\core/udp.c ****     if (pcb->local_port == udp_port) {
  74              		.loc 1 110 0 discriminator 2
  75 0032 DB68     		ldr	r3, [r3, #12]
  76              	.LVL7:
  77              	.L4:
 110:Source\LwIP\src\core/udp.c ****     if (pcb->local_port == udp_port) {
  78              		.loc 1 110 0 is_stmt 0 discriminator 1
  79 0034 002B     		cmp	r3, #0
  80 0036 F1D1     		bne	.L7
 113:Source\LwIP\src\core/udp.c ****         return 0;
 114:Source\LwIP\src\core/udp.c ****       }
 115:Source\LwIP\src\core/udp.c ****       goto again;
 116:Source\LwIP\src\core/udp.c ****     }
 117:Source\LwIP\src\core/udp.c ****   }
 118:Source\LwIP\src\core/udp.c ****   return udp_port;
  81              		.loc 1 118 0 is_stmt 1
  82 0038 024B     		ldr	r3, .L9
  83              	.LVL8:
  84 003a 1888     		ldrh	r0, [r3]
  85              	.LVL9:
  86 003c 00E0     		b	.L6
  87              	.LVL10:
  88              	.L8:
 113:Source\LwIP\src\core/udp.c ****         return 0;
  89              		.loc 1 113 0
  90 003e 0020     		movs	r0, #0
  91              	.LVL11:
  92              	.L6:
 119:Source\LwIP\src\core/udp.c **** }
  93              		.loc 1 119 0
  94              		@ sp needed
  95 0040 7047     		bx	lr
  96              	.L10:
  97 0042 C046     		.align	2
  98              	.L9:
  99 0044 00000000 		.word	.LANCHOR0
 100 0048 FFFF0000 		.word	65535
 101 004c 00C0FFFF 		.word	-16384
 102 0050 00000000 		.word	udp_pcbs
 103 0054 FF3F0000 		.word	16383
 104              		.cfi_endproc
 105              	.LFE54:
 106              		.size	udp_new_port, .-udp_new_port
ARM GAS  C:\Users\Phuong\AppData\Local\Temp\cc08x83E.s 			page 5


 107              		.section	.text.udp_input_local_match,"ax",%progbits
 108              		.align	2
 109              		.code	16
 110              		.thumb_func
 111              		.type	udp_input_local_match, %function
 112              	udp_input_local_match:
 113              	.LFB55:
 120:Source\LwIP\src\core/udp.c **** 
 121:Source\LwIP\src\core/udp.c **** /** Common code to see if the current input packet matches the pcb
 122:Source\LwIP\src\core/udp.c ****  * (current input packet is accessed via ip(4/6)_current_* macros)
 123:Source\LwIP\src\core/udp.c ****  *
 124:Source\LwIP\src\core/udp.c ****  * @param pcb pcb to check
 125:Source\LwIP\src\core/udp.c ****  * @param inp network interface on which the datagram was received (only used for IPv4)
 126:Source\LwIP\src\core/udp.c ****  * @param broadcast 1 if his is an IPv4 broadcast (global or subnet-only), 0 otherwise (only used f
 127:Source\LwIP\src\core/udp.c ****  * @return 1 on match, 0 otherwise
 128:Source\LwIP\src\core/udp.c ****  */
 129:Source\LwIP\src\core/udp.c **** static u8_t
 130:Source\LwIP\src\core/udp.c **** udp_input_local_match(struct udp_pcb *pcb, struct netif *inp, u8_t broadcast)
 131:Source\LwIP\src\core/udp.c **** {
 114              		.loc 1 131 0
 115              		.cfi_startproc
 116              		@ args = 0, pretend = 0, frame = 0
 117              		@ frame_needed = 0, uses_anonymous_args = 0
 118              		@ link register save eliminated.
 119              	.LVL12:
 132:Source\LwIP\src\core/udp.c ****   LWIP_UNUSED_ARG(inp);       /* in IPv6 only case */
 133:Source\LwIP\src\core/udp.c ****   LWIP_UNUSED_ARG(broadcast); /* in IPv6 only case */
 134:Source\LwIP\src\core/udp.c **** 
 135:Source\LwIP\src\core/udp.c ****   /* Dual-stack: PCBs listening to any IP type also listen to any IP address */
 136:Source\LwIP\src\core/udp.c ****   if (IP_IS_ANY_TYPE_VAL(pcb->local_ip)) {
 137:Source\LwIP\src\core/udp.c **** #if LWIP_IPV4 && IP_SOF_BROADCAST_RECV
 138:Source\LwIP\src\core/udp.c ****     if ((broadcast != 0) && !ip_get_option(pcb, SOF_BROADCAST)) {
 139:Source\LwIP\src\core/udp.c ****       return 0;
 140:Source\LwIP\src\core/udp.c ****     }
 141:Source\LwIP\src\core/udp.c **** #endif /* LWIP_IPV4 && IP_SOF_BROADCAST_RECV */
 142:Source\LwIP\src\core/udp.c ****     return 1;
 143:Source\LwIP\src\core/udp.c ****   }
 144:Source\LwIP\src\core/udp.c **** 
 145:Source\LwIP\src\core/udp.c ****   /* Only need to check PCB if incoming IP version matches PCB IP version */
 146:Source\LwIP\src\core/udp.c ****   if (IP_ADDR_PCB_VERSION_MATCH_EXACT(pcb, ip_current_dest_addr())) {
 147:Source\LwIP\src\core/udp.c **** #if LWIP_IPV4
 148:Source\LwIP\src\core/udp.c ****     /* Special case: IPv4 broadcast: all or broadcasts in my subnet
 149:Source\LwIP\src\core/udp.c ****      * Note: broadcast variable can only be 1 if it is an IPv4 broadcast */
 150:Source\LwIP\src\core/udp.c ****     if (broadcast != 0) {
 120              		.loc 1 150 0
 121 0000 002A     		cmp	r2, #0
 122 0002 0ED0     		beq	.L12
 151:Source\LwIP\src\core/udp.c **** #if IP_SOF_BROADCAST_RECV
 152:Source\LwIP\src\core/udp.c ****       if (ip_get_option(pcb, SOF_BROADCAST))
 153:Source\LwIP\src\core/udp.c **** #endif /* IP_SOF_BROADCAST_RECV */
 154:Source\LwIP\src\core/udp.c ****       {
 155:Source\LwIP\src\core/udp.c ****         if (ip4_addr_isany(ip_2_ip4(&pcb->local_ip)) ||
 123              		.loc 1 155 0
 124 0004 0028     		cmp	r0, #0
 125 0006 17D0     		beq	.L14
 126              		.loc 1 155 0 is_stmt 0 discriminator 1
 127 0008 0268     		ldr	r2, [r0]
ARM GAS  C:\Users\Phuong\AppData\Local\Temp\cc08x83E.s 			page 6


 128              	.LVL13:
 129 000a 002A     		cmp	r2, #0
 130 000c 16D0     		beq	.L15
 156:Source\LwIP\src\core/udp.c ****           ((ip4_current_dest_addr()->addr == IPADDR_BROADCAST)) ||
 131              		.loc 1 156 0 is_stmt 1 discriminator 2
 132 000e 114B     		ldr	r3, .L21
 133 0010 5B69     		ldr	r3, [r3, #20]
 155:Source\LwIP\src\core/udp.c ****           ((ip4_current_dest_addr()->addr == IPADDR_BROADCAST)) ||
 134              		.loc 1 155 0 discriminator 2
 135 0012 581C     		adds	r0, r3, #1
 136 0014 14D0     		beq	.L16
 137              	.LVL14:
 157:Source\LwIP\src\core/udp.c ****            ip4_addr_netcmp(ip_2_ip4(&pcb->local_ip), ip4_current_dest_addr(), netif_ip4_netmask(inp
 138              		.loc 1 157 0
 139 0016 8968     		ldr	r1, [r1, #8]
 140              	.LVL15:
 141 0018 5340     		eors	r3, r2
 156:Source\LwIP\src\core/udp.c ****           ((ip4_current_dest_addr()->addr == IPADDR_BROADCAST)) ||
 142              		.loc 1 156 0
 143 001a 1942     		tst	r1, r3
 144 001c 12D0     		beq	.L17
 158:Source\LwIP\src\core/udp.c ****           return 1;
 159:Source\LwIP\src\core/udp.c ****         }
 160:Source\LwIP\src\core/udp.c ****       }
 161:Source\LwIP\src\core/udp.c ****     } else
 162:Source\LwIP\src\core/udp.c **** #endif /* LWIP_IPV4 */
 163:Source\LwIP\src\core/udp.c ****     /* Handle IPv4 and IPv6: all or exact match */
 164:Source\LwIP\src\core/udp.c ****     if (ip_addr_isany(&pcb->local_ip) || ip_addr_cmp(&pcb->local_ip, ip_current_dest_addr())) {
 165:Source\LwIP\src\core/udp.c ****       return 1;
 166:Source\LwIP\src\core/udp.c ****     }
 167:Source\LwIP\src\core/udp.c ****   }
 168:Source\LwIP\src\core/udp.c **** 
 169:Source\LwIP\src\core/udp.c ****   return 0;
 145              		.loc 1 169 0
 146 001e 0020     		movs	r0, #0
 147 0020 17E0     		b	.L13
 148              	.LVL16:
 149              	.L12:
 164:Source\LwIP\src\core/udp.c ****       return 1;
 150              		.loc 1 164 0
 151 0022 0028     		cmp	r0, #0
 152 0024 10D0     		beq	.L18
 164:Source\LwIP\src\core/udp.c ****       return 1;
 153              		.loc 1 164 0 is_stmt 0 discriminator 1
 154 0026 0368     		ldr	r3, [r0]
 155 0028 002B     		cmp	r3, #0
 156 002a 0FD0     		beq	.L19
 164:Source\LwIP\src\core/udp.c ****       return 1;
 157              		.loc 1 164 0 discriminator 2
 158 002c 094A     		ldr	r2, .L21
 159              	.LVL17:
 160 002e 5269     		ldr	r2, [r2, #20]
 161 0030 9342     		cmp	r3, r2
 162 0032 0DD0     		beq	.L20
 163              		.loc 1 169 0 is_stmt 1
 164 0034 0020     		movs	r0, #0
 165              	.LVL18:
ARM GAS  C:\Users\Phuong\AppData\Local\Temp\cc08x83E.s 			page 7


 166 0036 0CE0     		b	.L13
 167              	.LVL19:
 168              	.L14:
 158:Source\LwIP\src\core/udp.c ****           return 1;
 169              		.loc 1 158 0
 170 0038 0120     		movs	r0, #1
 171              	.LVL20:
 172 003a 0AE0     		b	.L13
 173              	.LVL21:
 174              	.L15:
 175 003c 0120     		movs	r0, #1
 176              	.LVL22:
 177 003e 08E0     		b	.L13
 178              	.L16:
 179 0040 0120     		movs	r0, #1
 180 0042 06E0     		b	.L13
 181              	.LVL23:
 182              	.L17:
 183 0044 0120     		movs	r0, #1
 184 0046 04E0     		b	.L13
 185              	.LVL24:
 186              	.L18:
 165:Source\LwIP\src\core/udp.c ****     }
 187              		.loc 1 165 0
 188 0048 0120     		movs	r0, #1
 189              	.LVL25:
 190 004a 02E0     		b	.L13
 191              	.LVL26:
 192              	.L19:
 193 004c 0120     		movs	r0, #1
 194              	.LVL27:
 195 004e 00E0     		b	.L13
 196              	.LVL28:
 197              	.L20:
 198 0050 0120     		movs	r0, #1
 199              	.LVL29:
 200              	.L13:
 170:Source\LwIP\src\core/udp.c **** }
 201              		.loc 1 170 0
 202              		@ sp needed
 203 0052 7047     		bx	lr
 204              	.L22:
 205              		.align	2
 206              	.L21:
 207 0054 00000000 		.word	ip_data
 208              		.cfi_endproc
 209              	.LFE55:
 210              		.size	udp_input_local_match, .-udp_input_local_match
 211              		.section	.text.udp_init,"ax",%progbits
 212              		.align	2
 213              		.global	udp_init
 214              		.code	16
 215              		.thumb_func
 216              		.type	udp_init, %function
 217              	udp_init:
 218              	.LFB53:
  88:Source\LwIP\src\core/udp.c **** #if LWIP_RANDOMIZE_INITIAL_LOCAL_PORTS && defined(LWIP_RAND)
ARM GAS  C:\Users\Phuong\AppData\Local\Temp\cc08x83E.s 			page 8


 219              		.loc 1 88 0
 220              		.cfi_startproc
 221              		@ args = 0, pretend = 0, frame = 0
 222              		@ frame_needed = 0, uses_anonymous_args = 0
 223 0000 10B5     		push	{r4, lr}
 224              		.cfi_def_cfa_offset 8
 225              		.cfi_offset 4, -8
 226              		.cfi_offset 14, -4
  90:Source\LwIP\src\core/udp.c **** #endif /* LWIP_RANDOMIZE_INITIAL_LOCAL_PORTS && defined(LWIP_RAND) */
 227              		.loc 1 90 0
 228 0002 FFF7FEFF 		bl	sys_rand16
 229              	.LVL30:
 230 0006 8004     		lsls	r0, r0, #18
 231 0008 800C     		lsrs	r0, r0, #18
 232 000a 034B     		ldr	r3, .L24
 233 000c 9C46     		mov	ip, r3
 234 000e 6044     		add	r0, r0, ip
 235 0010 024B     		ldr	r3, .L24+4
 236 0012 1880     		strh	r0, [r3]
  92:Source\LwIP\src\core/udp.c **** 
 237              		.loc 1 92 0
 238              		@ sp needed
 239 0014 10BD     		pop	{r4, pc}
 240              	.L25:
 241 0016 C046     		.align	2
 242              	.L24:
 243 0018 00C0FFFF 		.word	-16384
 244 001c 00000000 		.word	.LANCHOR0
 245              		.cfi_endproc
 246              	.LFE53:
 247              		.size	udp_init, .-udp_init
 248              		.section	.text.udp_input,"ax",%progbits
 249              		.align	2
 250              		.global	udp_input
 251              		.code	16
 252              		.thumb_func
 253              		.type	udp_input, %function
 254              	udp_input:
 255              	.LFB56:
 171:Source\LwIP\src\core/udp.c **** 
 172:Source\LwIP\src\core/udp.c **** /**
 173:Source\LwIP\src\core/udp.c ****  * Process an incoming UDP datagram.
 174:Source\LwIP\src\core/udp.c ****  *
 175:Source\LwIP\src\core/udp.c ****  * Given an incoming UDP datagram (as a chain of pbufs) this function
 176:Source\LwIP\src\core/udp.c ****  * finds a corresponding UDP PCB and hands over the pbuf to the pcbs
 177:Source\LwIP\src\core/udp.c ****  * recv function. If no pcb is found or the datagram is incorrect, the
 178:Source\LwIP\src\core/udp.c ****  * pbuf is freed.
 179:Source\LwIP\src\core/udp.c ****  *
 180:Source\LwIP\src\core/udp.c ****  * @param p pbuf to be demultiplexed to a UDP PCB (p->payload pointing to the UDP header)
 181:Source\LwIP\src\core/udp.c ****  * @param inp network interface on which the datagram was received.
 182:Source\LwIP\src\core/udp.c ****  *
 183:Source\LwIP\src\core/udp.c ****  */
 184:Source\LwIP\src\core/udp.c **** void
 185:Source\LwIP\src\core/udp.c **** udp_input(struct pbuf *p, struct netif *inp)
 186:Source\LwIP\src\core/udp.c **** {
 256              		.loc 1 186 0
 257              		.cfi_startproc
ARM GAS  C:\Users\Phuong\AppData\Local\Temp\cc08x83E.s 			page 9


 258              		@ args = 0, pretend = 0, frame = 16
 259              		@ frame_needed = 0, uses_anonymous_args = 0
 260              	.LVL31:
 261 0000 F0B5     		push	{r4, r5, r6, r7, lr}
 262              		.cfi_def_cfa_offset 20
 263              		.cfi_offset 4, -20
 264              		.cfi_offset 5, -16
 265              		.cfi_offset 6, -12
 266              		.cfi_offset 7, -8
 267              		.cfi_offset 14, -4
 268 0002 5F46     		mov	r7, fp
 269 0004 5646     		mov	r6, r10
 270 0006 4D46     		mov	r5, r9
 271 0008 4446     		mov	r4, r8
 272 000a F0B4     		push	{r4, r5, r6, r7}
 273              		.cfi_def_cfa_offset 36
 274              		.cfi_offset 8, -36
 275              		.cfi_offset 9, -32
 276              		.cfi_offset 10, -28
 277              		.cfi_offset 11, -24
 278 000c 87B0     		sub	sp, sp, #28
 279              		.cfi_def_cfa_offset 64
 280 000e 0700     		movs	r7, r0
 281 0010 0391     		str	r1, [sp, #12]
 282              	.LVL32:
 187:Source\LwIP\src\core/udp.c ****   struct udp_hdr *udphdr;
 188:Source\LwIP\src\core/udp.c ****   struct udp_pcb *pcb, *prev;
 189:Source\LwIP\src\core/udp.c ****   struct udp_pcb *uncon_pcb;
 190:Source\LwIP\src\core/udp.c ****   u16_t src, dest;
 191:Source\LwIP\src\core/udp.c ****   u8_t broadcast;
 192:Source\LwIP\src\core/udp.c ****   u8_t for_us = 0;
 193:Source\LwIP\src\core/udp.c **** 
 194:Source\LwIP\src\core/udp.c ****   LWIP_UNUSED_ARG(inp);
 195:Source\LwIP\src\core/udp.c **** 
 196:Source\LwIP\src\core/udp.c ****   PERF_START;
 197:Source\LwIP\src\core/udp.c **** 
 198:Source\LwIP\src\core/udp.c ****   UDP_STATS_INC(udp.recv);
 283              		.loc 1 198 0
 284 0012 7649     		ldr	r1, .L49
 285              	.LVL33:
 286 0014 9622     		movs	r2, #150
 287 0016 8B5A     		ldrh	r3, [r1, r2]
 288 0018 0133     		adds	r3, r3, #1
 289 001a 8B52     		strh	r3, [r1, r2]
 199:Source\LwIP\src\core/udp.c **** 
 200:Source\LwIP\src\core/udp.c ****   /* Check minimum length (UDP header) */
 201:Source\LwIP\src\core/udp.c ****   if (p->len < UDP_HLEN) {
 290              		.loc 1 201 0
 291 001c 4389     		ldrh	r3, [r0, #10]
 292 001e 072B     		cmp	r3, #7
 293 0020 0BD8     		bhi	.L27
 202:Source\LwIP\src\core/udp.c ****     /* drop short packets */
 203:Source\LwIP\src\core/udp.c ****     LWIP_DEBUGF(UDP_DEBUG,
 204:Source\LwIP\src\core/udp.c ****                 ("udp_input: short UDP datagram (%"U16_F" bytes) discarded\n", p->tot_len));
 205:Source\LwIP\src\core/udp.c ****     UDP_STATS_INC(udp.lenerr);
 294              		.loc 1 205 0
 295 0022 0B00     		movs	r3, r1
ARM GAS  C:\Users\Phuong\AppData\Local\Temp\cc08x83E.s 			page 10


 296 0024 9E21     		movs	r1, #158
 297 0026 5A5A     		ldrh	r2, [r3, r1]
 298 0028 0132     		adds	r2, r2, #1
 299 002a 5A52     		strh	r2, [r3, r1]
 206:Source\LwIP\src\core/udp.c ****     UDP_STATS_INC(udp.drop);
 300              		.loc 1 206 0
 301 002c 0439     		subs	r1, r1, #4
 302 002e 5A5A     		ldrh	r2, [r3, r1]
 303 0030 0132     		adds	r2, r2, #1
 304 0032 5A52     		strh	r2, [r3, r1]
 207:Source\LwIP\src\core/udp.c ****     MIB2_STATS_INC(mib2.udpinerrors);
 208:Source\LwIP\src\core/udp.c ****     pbuf_free(p);
 305              		.loc 1 208 0
 306 0034 FFF7FEFF 		bl	pbuf_free
 307              	.LVL34:
 209:Source\LwIP\src\core/udp.c ****     goto end;
 308              		.loc 1 209 0
 309 0038 D0E0     		b	.L26
 310              	.LVL35:
 311              	.L27:
 210:Source\LwIP\src\core/udp.c ****   }
 211:Source\LwIP\src\core/udp.c **** 
 212:Source\LwIP\src\core/udp.c ****   udphdr = (struct udp_hdr *)p->payload;
 312              		.loc 1 212 0
 313 003a 4368     		ldr	r3, [r0, #4]
 314 003c 9946     		mov	r9, r3
 315              	.LVL36:
 213:Source\LwIP\src\core/udp.c **** 
 214:Source\LwIP\src\core/udp.c ****   /* is broadcast packet ? */
 215:Source\LwIP\src\core/udp.c ****   broadcast = ip_addr_isbroadcast(ip_current_dest_addr(), ip_current_netif());
 316              		.loc 1 215 0
 317 003e 6C4B     		ldr	r3, .L49+4
 318              	.LVL37:
 319 0040 5869     		ldr	r0, [r3, #20]
 320              	.LVL38:
 321 0042 1968     		ldr	r1, [r3]
 322 0044 FFF7FEFF 		bl	ip4_addr_isbroadcast_u32
 323              	.LVL39:
 324 0048 0490     		str	r0, [sp, #16]
 325              	.LVL40:
 216:Source\LwIP\src\core/udp.c **** 
 217:Source\LwIP\src\core/udp.c ****   LWIP_DEBUGF(UDP_DEBUG, ("udp_input: received datagram of length %"U16_F"\n", p->tot_len));
 218:Source\LwIP\src\core/udp.c **** 
 219:Source\LwIP\src\core/udp.c ****   /* convert src and dest ports to host byte order */
 220:Source\LwIP\src\core/udp.c ****   src = lwip_ntohs(udphdr->src);
 326              		.loc 1 220 0
 327 004a 4B46     		mov	r3, r9
 328 004c 1B78     		ldrb	r3, [r3]
 329 004e 4A46     		mov	r2, r9
 330 0050 5078     		ldrb	r0, [r2, #1]
 331              	.LVL41:
 332 0052 0002     		lsls	r0, r0, #8
 333 0054 1843     		orrs	r0, r3
 334 0056 FFF7FEFF 		bl	lwip_htons
 335              	.LVL42:
 336 005a 0590     		str	r0, [sp, #20]
 337 005c 8246     		mov	r10, r0
ARM GAS  C:\Users\Phuong\AppData\Local\Temp\cc08x83E.s 			page 11


 338              	.LVL43:
 221:Source\LwIP\src\core/udp.c ****   dest = lwip_ntohs(udphdr->dest);
 339              		.loc 1 221 0
 340 005e 4B46     		mov	r3, r9
 341 0060 9B78     		ldrb	r3, [r3, #2]
 342 0062 4A46     		mov	r2, r9
 343 0064 D078     		ldrb	r0, [r2, #3]
 344 0066 0002     		lsls	r0, r0, #8
 345 0068 1843     		orrs	r0, r3
 346 006a FFF7FEFF 		bl	lwip_htons
 347              	.LVL44:
 348 006e 0500     		movs	r5, r0
 349              	.LVL45:
 222:Source\LwIP\src\core/udp.c **** 
 223:Source\LwIP\src\core/udp.c ****   udp_debug_print(udphdr);
 224:Source\LwIP\src\core/udp.c **** 
 225:Source\LwIP\src\core/udp.c ****   /* print the UDP source and destination */
 226:Source\LwIP\src\core/udp.c ****   LWIP_DEBUGF(UDP_DEBUG, ("udp ("));
 227:Source\LwIP\src\core/udp.c ****   ip_addr_debug_print(UDP_DEBUG, ip_current_dest_addr());
 228:Source\LwIP\src\core/udp.c ****   LWIP_DEBUGF(UDP_DEBUG, (", %"U16_F") <-- (", lwip_ntohs(udphdr->dest)));
 229:Source\LwIP\src\core/udp.c ****   ip_addr_debug_print(UDP_DEBUG, ip_current_src_addr());
 230:Source\LwIP\src\core/udp.c ****   LWIP_DEBUGF(UDP_DEBUG, (", %"U16_F")\n", lwip_ntohs(udphdr->src)));
 231:Source\LwIP\src\core/udp.c **** 
 232:Source\LwIP\src\core/udp.c ****   pcb = NULL;
 233:Source\LwIP\src\core/udp.c ****   prev = NULL;
 234:Source\LwIP\src\core/udp.c ****   uncon_pcb = NULL;
 235:Source\LwIP\src\core/udp.c ****   /* Iterate through the UDP pcb list for a matching pcb.
 236:Source\LwIP\src\core/udp.c ****    * 'Perfect match' pcbs (connected to the remote port & ip address) are
 237:Source\LwIP\src\core/udp.c ****    * preferred. If no perfect match is found, the first unconnected pcb that
 238:Source\LwIP\src\core/udp.c ****    * matches the local port and ip address gets the datagram. */
 239:Source\LwIP\src\core/udp.c ****   for (pcb = udp_pcbs; pcb != NULL; pcb = pcb->next) {
 350              		.loc 1 239 0
 351 0070 604B     		ldr	r3, .L49+8
 352 0072 1B68     		ldr	r3, [r3]
 353 0074 9846     		mov	r8, r3
 354              	.LVL46:
 355 0076 1C00     		movs	r4, r3
 234:Source\LwIP\src\core/udp.c ****   /* Iterate through the UDP pcb list for a matching pcb.
 356              		.loc 1 234 0
 357 0078 0023     		movs	r3, #0
 358              	.LVL47:
 359 007a 9B46     		mov	fp, r3
 233:Source\LwIP\src\core/udp.c ****   uncon_pcb = NULL;
 360              		.loc 1 233 0
 361 007c 0026     		movs	r6, #0
 362 007e 3B00     		movs	r3, r7
 363 0080 5746     		mov	r7, r10
 364              	.LVL48:
 365 0082 9A46     		mov	r10, r3
 366              		.loc 1 239 0
 367 0084 34E0     		b	.L29
 368              	.LVL49:
 369              	.L35:
 240:Source\LwIP\src\core/udp.c ****     /* print the PCB local and remote address */
 241:Source\LwIP\src\core/udp.c ****     LWIP_DEBUGF(UDP_DEBUG, ("pcb ("));
 242:Source\LwIP\src\core/udp.c ****     ip_addr_debug_print(UDP_DEBUG, &pcb->local_ip);
 243:Source\LwIP\src\core/udp.c ****     LWIP_DEBUGF(UDP_DEBUG, (", %"U16_F") <-- (", pcb->local_port));
ARM GAS  C:\Users\Phuong\AppData\Local\Temp\cc08x83E.s 			page 12


 244:Source\LwIP\src\core/udp.c ****     ip_addr_debug_print(UDP_DEBUG, &pcb->remote_ip);
 245:Source\LwIP\src\core/udp.c ****     LWIP_DEBUGF(UDP_DEBUG, (", %"U16_F")\n", pcb->remote_port));
 246:Source\LwIP\src\core/udp.c **** 
 247:Source\LwIP\src\core/udp.c ****     /* compare PCB local addr+port to UDP destination addr+port */
 248:Source\LwIP\src\core/udp.c ****     if ((pcb->local_port == dest) &&
 370              		.loc 1 248 0
 371 0086 638A     		ldrh	r3, [r4, #18]
 372 0088 9D42     		cmp	r5, r3
 373 008a 2FD1     		bne	.L30
 249:Source\LwIP\src\core/udp.c ****         (udp_input_local_match(pcb, inp, broadcast) != 0)) {
 374              		.loc 1 249 0 discriminator 1
 375 008c 049A     		ldr	r2, [sp, #16]
 376 008e 0399     		ldr	r1, [sp, #12]
 377 0090 2000     		movs	r0, r4
 378 0092 FFF7FEFF 		bl	udp_input_local_match
 379              	.LVL50:
 248:Source\LwIP\src\core/udp.c ****         (udp_input_local_match(pcb, inp, broadcast) != 0)) {
 380              		.loc 1 248 0 discriminator 1
 381 0096 0028     		cmp	r0, #0
 382 0098 28D0     		beq	.L30
 250:Source\LwIP\src\core/udp.c ****       if (((pcb->flags & UDP_FLAGS_CONNECTED) == 0) &&
 383              		.loc 1 250 0
 384 009a 237C     		ldrb	r3, [r4, #16]
 385 009c 5B07     		lsls	r3, r3, #29
 386 009e 0BD4     		bmi	.L31
 387              		.loc 1 250 0 is_stmt 0 discriminator 1
 388 00a0 5B46     		mov	r3, fp
 389 00a2 002B     		cmp	r3, #0
 390 00a4 05D0     		beq	.L45
 391              	.LVL51:
 251:Source\LwIP\src\core/udp.c ****           ((uncon_pcb == NULL)
 252:Source\LwIP\src\core/udp.c **** #if SO_REUSE
 253:Source\LwIP\src\core/udp.c ****           /* prefer specific IPs over cath-all */
 254:Source\LwIP\src\core/udp.c ****           || !ip_addr_isany(&pcb->local_ip)
 392              		.loc 1 254 0 is_stmt 1
 393 00a6 002C     		cmp	r4, #0
 394 00a8 06D0     		beq	.L31
 395              		.loc 1 254 0 is_stmt 0 discriminator 1
 396 00aa 2368     		ldr	r3, [r4]
 397              	.LVL52:
 398 00ac 002B     		cmp	r3, #0
 399 00ae 02D1     		bne	.L46
 400 00b0 02E0     		b	.L31
 401              	.LVL53:
 402              	.L45:
 255:Source\LwIP\src\core/udp.c **** #endif /* SO_REUSE */
 256:Source\LwIP\src\core/udp.c ****           )) {
 257:Source\LwIP\src\core/udp.c ****         /* the first unconnected matching PCB */
 258:Source\LwIP\src\core/udp.c ****         uncon_pcb = pcb;
 403              		.loc 1 258 0 is_stmt 1
 404 00b2 A346     		mov	fp, r4
 405 00b4 00E0     		b	.L31
 406              	.LVL54:
 407              	.L46:
 408 00b6 A346     		mov	fp, r4
 409              	.LVL55:
 410              	.L31:
ARM GAS  C:\Users\Phuong\AppData\Local\Temp\cc08x83E.s 			page 13


 259:Source\LwIP\src\core/udp.c ****       }
 260:Source\LwIP\src\core/udp.c **** 
 261:Source\LwIP\src\core/udp.c ****       /* compare PCB remote addr+port to UDP source addr+port */
 262:Source\LwIP\src\core/udp.c ****       if ((pcb->remote_port == src) &&
 411              		.loc 1 262 0
 412 00b8 A38A     		ldrh	r3, [r4, #20]
 413 00ba 9F42     		cmp	r7, r3
 414 00bc 16D1     		bne	.L30
 263:Source\LwIP\src\core/udp.c ****           (ip_addr_isany_val(pcb->remote_ip) ||
 415              		.loc 1 263 0 discriminator 1
 416 00be 6368     		ldr	r3, [r4, #4]
 262:Source\LwIP\src\core/udp.c ****           (ip_addr_isany_val(pcb->remote_ip) ||
 417              		.loc 1 262 0 discriminator 1
 418 00c0 002B     		cmp	r3, #0
 419 00c2 03D0     		beq	.L32
 264:Source\LwIP\src\core/udp.c ****           ip_addr_cmp(&pcb->remote_ip, ip_current_src_addr()))) {
 420              		.loc 1 264 0
 421 00c4 4A4A     		ldr	r2, .L49+4
 422 00c6 1269     		ldr	r2, [r2, #16]
 263:Source\LwIP\src\core/udp.c ****           (ip_addr_isany_val(pcb->remote_ip) ||
 423              		.loc 1 263 0
 424 00c8 9342     		cmp	r3, r2
 425 00ca 0FD1     		bne	.L30
 426              	.L32:
 427 00cc 5746     		mov	r7, r10
 265:Source\LwIP\src\core/udp.c ****         /* the first fully matching PCB */
 266:Source\LwIP\src\core/udp.c ****         if (prev != NULL) {
 428              		.loc 1 266 0
 429 00ce 002E     		cmp	r6, #0
 430 00d0 06D0     		beq	.L33
 431              	.LVL56:
 267:Source\LwIP\src\core/udp.c ****           /* move the pcb to the front of udp_pcbs so that is
 268:Source\LwIP\src\core/udp.c ****              found faster next time */
 269:Source\LwIP\src\core/udp.c ****           prev->next = pcb->next;
 432              		.loc 1 269 0
 433 00d2 E368     		ldr	r3, [r4, #12]
 434 00d4 F360     		str	r3, [r6, #12]
 270:Source\LwIP\src\core/udp.c ****           pcb->next = udp_pcbs;
 435              		.loc 1 270 0
 436 00d6 4346     		mov	r3, r8
 437 00d8 E360     		str	r3, [r4, #12]
 271:Source\LwIP\src\core/udp.c ****           udp_pcbs = pcb;
 438              		.loc 1 271 0
 439 00da 464B     		ldr	r3, .L49+8
 440 00dc 1C60     		str	r4, [r3]
 441 00de 0AE0     		b	.L34
 442              	.L33:
 272:Source\LwIP\src\core/udp.c ****         } else {
 273:Source\LwIP\src\core/udp.c ****           UDP_STATS_INC(udp.cachehit);
 443              		.loc 1 273 0
 444 00e0 4249     		ldr	r1, .L49
 445 00e2 AA22     		movs	r2, #170
 446 00e4 8B5A     		ldrh	r3, [r1, r2]
 447 00e6 0133     		adds	r3, r3, #1
 448 00e8 8B52     		strh	r3, [r1, r2]
 449 00ea 04E0     		b	.L34
 450              	.LVL57:
ARM GAS  C:\Users\Phuong\AppData\Local\Temp\cc08x83E.s 			page 14


 451              	.L30:
 274:Source\LwIP\src\core/udp.c ****         }
 275:Source\LwIP\src\core/udp.c ****         break;
 276:Source\LwIP\src\core/udp.c ****       }
 277:Source\LwIP\src\core/udp.c ****     }
 278:Source\LwIP\src\core/udp.c **** 
 279:Source\LwIP\src\core/udp.c ****     prev = pcb;
 452              		.loc 1 279 0 discriminator 2
 453 00ec 2600     		movs	r6, r4
 239:Source\LwIP\src\core/udp.c ****     /* print the PCB local and remote address */
 454              		.loc 1 239 0 discriminator 2
 455 00ee E468     		ldr	r4, [r4, #12]
 456              	.LVL58:
 457              	.L29:
 239:Source\LwIP\src\core/udp.c ****     /* print the PCB local and remote address */
 458              		.loc 1 239 0 is_stmt 0 discriminator 1
 459 00f0 002C     		cmp	r4, #0
 460 00f2 C8D1     		bne	.L35
 461 00f4 5746     		mov	r7, r10
 462              	.LVL59:
 463              	.L34:
 280:Source\LwIP\src\core/udp.c ****   }
 281:Source\LwIP\src\core/udp.c ****   /* no fully matching pcb found? then look for an unconnected pcb */
 282:Source\LwIP\src\core/udp.c ****   if (pcb == NULL) {
 464              		.loc 1 282 0 is_stmt 1
 465 00f6 002C     		cmp	r4, #0
 466 00f8 00D1     		bne	.L36
 283:Source\LwIP\src\core/udp.c ****     pcb = uncon_pcb;
 467              		.loc 1 283 0
 468 00fa 5C46     		mov	r4, fp
 469              	.LVL60:
 470              	.L36:
 284:Source\LwIP\src\core/udp.c ****   }
 285:Source\LwIP\src\core/udp.c **** 
 286:Source\LwIP\src\core/udp.c ****   /* Check checksum if this is a match or if it was directed at us. */
 287:Source\LwIP\src\core/udp.c ****   if (pcb != NULL) {
 471              		.loc 1 287 0
 472 00fc 002C     		cmp	r4, #0
 473 00fe 08D1     		bne	.L48
 288:Source\LwIP\src\core/udp.c ****     for_us = 1;
 289:Source\LwIP\src\core/udp.c ****   } else {
 290:Source\LwIP\src\core/udp.c **** #if LWIP_IPV6
 291:Source\LwIP\src\core/udp.c ****     if (ip_current_is_v6()) {
 292:Source\LwIP\src\core/udp.c ****       for_us = netif_get_ip6_addr_match(inp, ip6_current_dest_addr()) >= 0;
 293:Source\LwIP\src\core/udp.c ****     }
 294:Source\LwIP\src\core/udp.c **** #endif /* LWIP_IPV6 */
 295:Source\LwIP\src\core/udp.c **** #if LWIP_IPV4
 296:Source\LwIP\src\core/udp.c ****     if (!ip_current_is_v6()) {
 297:Source\LwIP\src\core/udp.c ****       for_us = ip4_addr_cmp(netif_ip4_addr(inp), ip4_current_dest_addr());
 474              		.loc 1 297 0
 475 0100 039B     		ldr	r3, [sp, #12]
 476 0102 5B68     		ldr	r3, [r3, #4]
 477 0104 3A4A     		ldr	r2, .L49+4
 478 0106 5269     		ldr	r2, [r2, #20]
 479 0108 9B1A     		subs	r3, r3, r2
 480 010a 5942     		rsbs	r1, r3, #0
 481 010c 5941     		adcs	r1, r1, r3
ARM GAS  C:\Users\Phuong\AppData\Local\Temp\cc08x83E.s 			page 15


 482 010e CBB2     		uxtb	r3, r1
 483              	.LVL61:
 484 0110 00E0     		b	.L37
 485              	.LVL62:
 486              	.L48:
 288:Source\LwIP\src\core/udp.c ****     for_us = 1;
 487              		.loc 1 288 0
 488 0112 0123     		movs	r3, #1
 489              	.LVL63:
 490              	.L37:
 298:Source\LwIP\src\core/udp.c ****     }
 299:Source\LwIP\src\core/udp.c **** #endif /* LWIP_IPV4 */
 300:Source\LwIP\src\core/udp.c ****   }
 301:Source\LwIP\src\core/udp.c **** 
 302:Source\LwIP\src\core/udp.c ****   if (for_us) {
 491              		.loc 1 302 0
 492 0114 002B     		cmp	r3, #0
 493 0116 51D0     		beq	.L38
 303:Source\LwIP\src\core/udp.c ****     LWIP_DEBUGF(UDP_DEBUG | LWIP_DBG_TRACE, ("udp_input: calculating checksum\n"));
 304:Source\LwIP\src\core/udp.c **** #if CHECKSUM_CHECK_UDP
 305:Source\LwIP\src\core/udp.c ****     IF__NETIF_CHECKSUM_ENABLED(inp, CHECKSUM_CHECK_UDP) {
 306:Source\LwIP\src\core/udp.c **** #if LWIP_UDPLITE
 307:Source\LwIP\src\core/udp.c ****       if (ip_current_header_proto() == IP_PROTO_UDPLITE) {
 308:Source\LwIP\src\core/udp.c ****         /* Do the UDP Lite checksum */
 309:Source\LwIP\src\core/udp.c ****         u16_t chklen = lwip_ntohs(udphdr->len);
 310:Source\LwIP\src\core/udp.c ****         if (chklen < sizeof(struct udp_hdr)) {
 311:Source\LwIP\src\core/udp.c ****           if (chklen == 0) {
 312:Source\LwIP\src\core/udp.c ****             /* For UDP-Lite, checksum length of 0 means checksum
 313:Source\LwIP\src\core/udp.c ****                over the complete packet (See RFC 3828 chap. 3.1) */
 314:Source\LwIP\src\core/udp.c ****             chklen = p->tot_len;
 315:Source\LwIP\src\core/udp.c ****           } else {
 316:Source\LwIP\src\core/udp.c ****             /* At least the UDP-Lite header must be covered by the
 317:Source\LwIP\src\core/udp.c ****                checksum! (Again, see RFC 3828 chap. 3.1) */
 318:Source\LwIP\src\core/udp.c ****             goto chkerr;
 319:Source\LwIP\src\core/udp.c ****           }
 320:Source\LwIP\src\core/udp.c ****         }
 321:Source\LwIP\src\core/udp.c ****         if (ip_chksum_pseudo_partial(p, IP_PROTO_UDPLITE,
 322:Source\LwIP\src\core/udp.c ****                      p->tot_len, chklen,
 323:Source\LwIP\src\core/udp.c ****                      ip_current_src_addr(), ip_current_dest_addr()) != 0) {
 324:Source\LwIP\src\core/udp.c ****           goto chkerr;
 325:Source\LwIP\src\core/udp.c ****         }
 326:Source\LwIP\src\core/udp.c ****       } else
 327:Source\LwIP\src\core/udp.c **** #endif /* LWIP_UDPLITE */
 328:Source\LwIP\src\core/udp.c ****       {
 329:Source\LwIP\src\core/udp.c ****         if (udphdr->chksum != 0) {
 494              		.loc 1 329 0
 495 0118 4B46     		mov	r3, r9
 496              	.LVL64:
 497 011a 9A79     		ldrb	r2, [r3, #6]
 498 011c DB79     		ldrb	r3, [r3, #7]
 499 011e 1B02     		lsls	r3, r3, #8
 500 0120 1343     		orrs	r3, r2
 501 0122 09D0     		beq	.L39
 330:Source\LwIP\src\core/udp.c ****           if (ip_chksum_pseudo(p, IP_PROTO_UDP, p->tot_len,
 502              		.loc 1 330 0
 503 0124 344B     		ldr	r3, .L49+12
 504 0126 3A89     		ldrh	r2, [r7, #8]
ARM GAS  C:\Users\Phuong\AppData\Local\Temp\cc08x83E.s 			page 16


 505 0128 191D     		adds	r1, r3, #4
 506 012a 0091     		str	r1, [sp]
 507 012c 1121     		movs	r1, #17
 508 012e 3800     		movs	r0, r7
 509 0130 FFF7FEFF 		bl	ip_chksum_pseudo
 510              	.LVL65:
 511 0134 0028     		cmp	r0, #0
 512 0136 45D1     		bne	.L40
 513              	.L39:
 331:Source\LwIP\src\core/udp.c ****                                ip_current_src_addr(),
 332:Source\LwIP\src\core/udp.c ****                                ip_current_dest_addr()) != 0) {
 333:Source\LwIP\src\core/udp.c ****             goto chkerr;
 334:Source\LwIP\src\core/udp.c ****           }
 335:Source\LwIP\src\core/udp.c ****         }
 336:Source\LwIP\src\core/udp.c ****       }
 337:Source\LwIP\src\core/udp.c ****     }
 338:Source\LwIP\src\core/udp.c **** #endif /* CHECKSUM_CHECK_UDP */
 339:Source\LwIP\src\core/udp.c ****     if (pbuf_header(p, -UDP_HLEN)) {
 514              		.loc 1 339 0
 515 0138 0821     		movs	r1, #8
 516 013a 4942     		rsbs	r1, r1, #0
 517 013c 3800     		movs	r0, r7
 518 013e FFF7FEFF 		bl	pbuf_header
 519              	.LVL66:
 520 0142 0028     		cmp	r0, #0
 521 0144 08D0     		beq	.L41
 340:Source\LwIP\src\core/udp.c ****       /* Can we cope with this failing? Just assert for now */
 341:Source\LwIP\src\core/udp.c ****       LWIP_ASSERT("pbuf_header failed\n", 0);
 342:Source\LwIP\src\core/udp.c ****       UDP_STATS_INC(udp.drop);
 522              		.loc 1 342 0
 523 0146 2949     		ldr	r1, .L49
 524 0148 9A22     		movs	r2, #154
 525 014a 8B5A     		ldrh	r3, [r1, r2]
 526 014c 0133     		adds	r3, r3, #1
 527 014e 8B52     		strh	r3, [r1, r2]
 343:Source\LwIP\src\core/udp.c ****       MIB2_STATS_INC(mib2.udpinerrors);
 344:Source\LwIP\src\core/udp.c ****       pbuf_free(p);
 528              		.loc 1 344 0
 529 0150 3800     		movs	r0, r7
 530 0152 FFF7FEFF 		bl	pbuf_free
 531              	.LVL67:
 345:Source\LwIP\src\core/udp.c ****       goto end;
 532              		.loc 1 345 0
 533 0156 41E0     		b	.L26
 534              	.L41:
 346:Source\LwIP\src\core/udp.c ****     }
 347:Source\LwIP\src\core/udp.c **** 
 348:Source\LwIP\src\core/udp.c ****     if (pcb != NULL) {
 535              		.loc 1 348 0
 536 0158 002C     		cmp	r4, #0
 537 015a 0ED0     		beq	.L42
 349:Source\LwIP\src\core/udp.c ****       MIB2_STATS_INC(mib2.udpindatagrams);
 350:Source\LwIP\src\core/udp.c **** #if SO_REUSE && SO_REUSE_RXTOALL
 351:Source\LwIP\src\core/udp.c ****       if (ip_get_option(pcb, SOF_REUSEADDR) &&
 352:Source\LwIP\src\core/udp.c ****           (broadcast || ip_addr_ismulticast(ip_current_dest_addr()))) {
 353:Source\LwIP\src\core/udp.c ****         /* pass broadcast- or multicast packets to all multicast pcbs
 354:Source\LwIP\src\core/udp.c ****            if SOF_REUSEADDR is set on the first match */
ARM GAS  C:\Users\Phuong\AppData\Local\Temp\cc08x83E.s 			page 17


 355:Source\LwIP\src\core/udp.c ****         struct udp_pcb *mpcb;
 356:Source\LwIP\src\core/udp.c ****         u8_t p_header_changed = 0;
 357:Source\LwIP\src\core/udp.c ****         s16_t hdrs_len = (s16_t)(ip_current_header_tot_len() + UDP_HLEN);
 358:Source\LwIP\src\core/udp.c ****         for (mpcb = udp_pcbs; mpcb != NULL; mpcb = mpcb->next) {
 359:Source\LwIP\src\core/udp.c ****           if (mpcb != pcb) {
 360:Source\LwIP\src\core/udp.c ****             /* compare PCB local addr+port to UDP destination addr+port */
 361:Source\LwIP\src\core/udp.c ****             if ((mpcb->local_port == dest) &&
 362:Source\LwIP\src\core/udp.c ****                 (udp_input_local_match(mpcb, inp, broadcast) != 0)) {
 363:Source\LwIP\src\core/udp.c ****               /* pass a copy of the packet to all local matches */
 364:Source\LwIP\src\core/udp.c ****               if (mpcb->recv != NULL) {
 365:Source\LwIP\src\core/udp.c ****                 struct pbuf *q;
 366:Source\LwIP\src\core/udp.c ****                 /* for that, move payload to IP header again */
 367:Source\LwIP\src\core/udp.c ****                 if (p_header_changed == 0) {
 368:Source\LwIP\src\core/udp.c ****                   pbuf_header_force(p, hdrs_len);
 369:Source\LwIP\src\core/udp.c ****                   p_header_changed = 1;
 370:Source\LwIP\src\core/udp.c ****                 }
 371:Source\LwIP\src\core/udp.c ****                 q = pbuf_alloc(PBUF_RAW, p->tot_len, PBUF_RAM);
 372:Source\LwIP\src\core/udp.c ****                 if (q != NULL) {
 373:Source\LwIP\src\core/udp.c ****                   err_t err = pbuf_copy(q, p);
 374:Source\LwIP\src\core/udp.c ****                   if (err == ERR_OK) {
 375:Source\LwIP\src\core/udp.c ****                     /* move payload to UDP data */
 376:Source\LwIP\src\core/udp.c ****                     pbuf_header(q, -hdrs_len);
 377:Source\LwIP\src\core/udp.c ****                     mpcb->recv(mpcb->recv_arg, mpcb, q, ip_current_src_addr(), src);
 378:Source\LwIP\src\core/udp.c ****                   }
 379:Source\LwIP\src\core/udp.c ****                 }
 380:Source\LwIP\src\core/udp.c ****               }
 381:Source\LwIP\src\core/udp.c ****             }
 382:Source\LwIP\src\core/udp.c ****           }
 383:Source\LwIP\src\core/udp.c ****         }
 384:Source\LwIP\src\core/udp.c ****         if (p_header_changed) {
 385:Source\LwIP\src\core/udp.c ****           /* and move payload to UDP data again */
 386:Source\LwIP\src\core/udp.c ****           pbuf_header(p, -hdrs_len);
 387:Source\LwIP\src\core/udp.c ****         }
 388:Source\LwIP\src\core/udp.c ****       }
 389:Source\LwIP\src\core/udp.c **** #endif /* SO_REUSE && SO_REUSE_RXTOALL */
 390:Source\LwIP\src\core/udp.c ****       /* callback */
 391:Source\LwIP\src\core/udp.c ****       if (pcb->recv != NULL) {
 538              		.loc 1 391 0
 539 015c 256A     		ldr	r5, [r4, #32]
 540              	.LVL68:
 541 015e 002D     		cmp	r5, #0
 542 0160 07D0     		beq	.L43
 392:Source\LwIP\src\core/udp.c ****         /* now the recv function is responsible for freeing p */
 393:Source\LwIP\src\core/udp.c ****         pcb->recv(pcb->recv_arg, pcb, p, ip_current_src_addr(), src);
 543              		.loc 1 393 0
 544 0162 606A     		ldr	r0, [r4, #36]
 545 0164 059B     		ldr	r3, [sp, #20]
 546 0166 0093     		str	r3, [sp]
 547 0168 234B     		ldr	r3, .L49+12
 548 016a 3A00     		movs	r2, r7
 549 016c 2100     		movs	r1, r4
 550 016e A847     		blx	r5
 551              	.LVL69:
 552 0170 34E0     		b	.L26
 553              	.L43:
 394:Source\LwIP\src\core/udp.c ****       } else {
 395:Source\LwIP\src\core/udp.c ****         /* no recv function registered? then we have to free the pbuf! */
ARM GAS  C:\Users\Phuong\AppData\Local\Temp\cc08x83E.s 			page 18


 396:Source\LwIP\src\core/udp.c ****         pbuf_free(p);
 554              		.loc 1 396 0
 555 0172 3800     		movs	r0, r7
 556 0174 FFF7FEFF 		bl	pbuf_free
 557              	.LVL70:
 397:Source\LwIP\src\core/udp.c ****         goto end;
 558              		.loc 1 397 0
 559 0178 30E0     		b	.L26
 560              	.LVL71:
 561              	.L42:
 398:Source\LwIP\src\core/udp.c ****       }
 399:Source\LwIP\src\core/udp.c ****     } else {
 400:Source\LwIP\src\core/udp.c ****       LWIP_DEBUGF(UDP_DEBUG | LWIP_DBG_TRACE, ("udp_input: not for us.\n"));
 401:Source\LwIP\src\core/udp.c **** 
 402:Source\LwIP\src\core/udp.c **** #if LWIP_ICMP || LWIP_ICMP6
 403:Source\LwIP\src\core/udp.c ****       /* No match was found, send ICMP destination port unreachable unless
 404:Source\LwIP\src\core/udp.c ****          destination address was broadcast/multicast. */
 405:Source\LwIP\src\core/udp.c ****       if (!broadcast && !ip_addr_ismulticast(ip_current_dest_addr())) {
 562              		.loc 1 405 0
 563 017a 049B     		ldr	r3, [sp, #16]
 564 017c 002B     		cmp	r3, #0
 565 017e 10D1     		bne	.L44
 566              		.loc 1 405 0 is_stmt 0 discriminator 1
 567 0180 1B4B     		ldr	r3, .L49+4
 568 0182 5B69     		ldr	r3, [r3, #20]
 569 0184 F022     		movs	r2, #240
 570 0186 1340     		ands	r3, r2
 571 0188 E02B     		cmp	r3, #224
 572 018a 0AD0     		beq	.L44
 406:Source\LwIP\src\core/udp.c ****         /* move payload pointer back to ip header */
 407:Source\LwIP\src\core/udp.c ****         pbuf_header_force(p, (s16_t)(ip_current_header_tot_len() + UDP_HLEN));
 573              		.loc 1 407 0 is_stmt 1
 574 018c 184B     		ldr	r3, .L49+4
 575 018e 9989     		ldrh	r1, [r3, #12]
 576 0190 0831     		adds	r1, r1, #8
 577 0192 09B2     		sxth	r1, r1
 578 0194 3800     		movs	r0, r7
 579 0196 FFF7FEFF 		bl	pbuf_header_force
 580              	.LVL72:
 408:Source\LwIP\src\core/udp.c ****         icmp_port_unreach(ip_current_is_v6(), p);
 581              		.loc 1 408 0
 582 019a 0321     		movs	r1, #3
 583 019c 3800     		movs	r0, r7
 584 019e FFF7FEFF 		bl	icmp_dest_unreach
 585              	.LVL73:
 586              	.L44:
 409:Source\LwIP\src\core/udp.c ****       }
 410:Source\LwIP\src\core/udp.c **** #endif /* LWIP_ICMP || LWIP_ICMP6 */
 411:Source\LwIP\src\core/udp.c ****       UDP_STATS_INC(udp.proterr);
 587              		.loc 1 411 0
 588 01a2 124B     		ldr	r3, .L49
 589 01a4 A421     		movs	r1, #164
 590 01a6 5A5A     		ldrh	r2, [r3, r1]
 591 01a8 0132     		adds	r2, r2, #1
 592 01aa 5A52     		strh	r2, [r3, r1]
 412:Source\LwIP\src\core/udp.c ****       UDP_STATS_INC(udp.drop);
 593              		.loc 1 412 0
ARM GAS  C:\Users\Phuong\AppData\Local\Temp\cc08x83E.s 			page 19


 594 01ac 0A39     		subs	r1, r1, #10
 595 01ae 5A5A     		ldrh	r2, [r3, r1]
 596 01b0 0132     		adds	r2, r2, #1
 597 01b2 5A52     		strh	r2, [r3, r1]
 413:Source\LwIP\src\core/udp.c ****       MIB2_STATS_INC(mib2.udpnoports);
 414:Source\LwIP\src\core/udp.c ****       pbuf_free(p);
 598              		.loc 1 414 0
 599 01b4 3800     		movs	r0, r7
 600 01b6 FFF7FEFF 		bl	pbuf_free
 601              	.LVL74:
 602 01ba 0FE0     		b	.L26
 603              	.LVL75:
 604              	.L38:
 415:Source\LwIP\src\core/udp.c ****     }
 416:Source\LwIP\src\core/udp.c ****   } else {
 417:Source\LwIP\src\core/udp.c ****     pbuf_free(p);
 605              		.loc 1 417 0
 606 01bc 3800     		movs	r0, r7
 607 01be FFF7FEFF 		bl	pbuf_free
 608              	.LVL76:
 609 01c2 0BE0     		b	.L26
 610              	.L40:
 418:Source\LwIP\src\core/udp.c ****   }
 419:Source\LwIP\src\core/udp.c **** end:
 420:Source\LwIP\src\core/udp.c ****   PERF_STOP("udp_input");
 421:Source\LwIP\src\core/udp.c ****   return;
 422:Source\LwIP\src\core/udp.c **** #if CHECKSUM_CHECK_UDP
 423:Source\LwIP\src\core/udp.c **** chkerr:
 424:Source\LwIP\src\core/udp.c ****   LWIP_DEBUGF(UDP_DEBUG | LWIP_DBG_LEVEL_SERIOUS,
 425:Source\LwIP\src\core/udp.c ****               ("udp_input: UDP (or UDP Lite) datagram discarded due to failing checksum\n"));
 426:Source\LwIP\src\core/udp.c ****   UDP_STATS_INC(udp.chkerr);
 611              		.loc 1 426 0
 612 01c4 094B     		ldr	r3, .L49
 613 01c6 9C21     		movs	r1, #156
 614 01c8 5A5A     		ldrh	r2, [r3, r1]
 615 01ca 0132     		adds	r2, r2, #1
 616 01cc 5A52     		strh	r2, [r3, r1]
 427:Source\LwIP\src\core/udp.c ****   UDP_STATS_INC(udp.drop);
 617              		.loc 1 427 0
 618 01ce 0239     		subs	r1, r1, #2
 619 01d0 5A5A     		ldrh	r2, [r3, r1]
 620 01d2 0132     		adds	r2, r2, #1
 621 01d4 5A52     		strh	r2, [r3, r1]
 428:Source\LwIP\src\core/udp.c ****   MIB2_STATS_INC(mib2.udpinerrors);
 429:Source\LwIP\src\core/udp.c ****   pbuf_free(p);
 622              		.loc 1 429 0
 623 01d6 3800     		movs	r0, r7
 624 01d8 FFF7FEFF 		bl	pbuf_free
 625              	.LVL77:
 626              	.L28:
 627              	.L26:
 430:Source\LwIP\src\core/udp.c ****   PERF_STOP("udp_input");
 431:Source\LwIP\src\core/udp.c **** #endif /* CHECKSUM_CHECK_UDP */
 432:Source\LwIP\src\core/udp.c **** }
 628              		.loc 1 432 0
 629 01dc 07B0     		add	sp, sp, #28
 630              		@ sp needed
ARM GAS  C:\Users\Phuong\AppData\Local\Temp\cc08x83E.s 			page 20


 631              	.LVL78:
 632 01de 3CBC     		pop	{r2, r3, r4, r5}
 633 01e0 9046     		mov	r8, r2
 634 01e2 9946     		mov	r9, r3
 635 01e4 A246     		mov	r10, r4
 636 01e6 AB46     		mov	fp, r5
 637 01e8 F0BD     		pop	{r4, r5, r6, r7, pc}
 638              	.L50:
 639 01ea C046     		.align	2
 640              	.L49:
 641 01ec 00000000 		.word	lwip_stats
 642 01f0 00000000 		.word	ip_data
 643 01f4 00000000 		.word	udp_pcbs
 644 01f8 10000000 		.word	ip_data+16
 645              		.cfi_endproc
 646              	.LFE56:
 647              		.size	udp_input, .-udp_input
 648              		.section	.text.udp_bind,"ax",%progbits
 649              		.align	2
 650              		.global	udp_bind
 651              		.code	16
 652              		.thumb_func
 653              		.type	udp_bind, %function
 654              	udp_bind:
 655              	.LFB61:
 433:Source\LwIP\src\core/udp.c **** 
 434:Source\LwIP\src\core/udp.c **** /**
 435:Source\LwIP\src\core/udp.c ****  * @ingroup udp_raw
 436:Source\LwIP\src\core/udp.c ****  * Send data using UDP.
 437:Source\LwIP\src\core/udp.c ****  *
 438:Source\LwIP\src\core/udp.c ****  * @param pcb UDP PCB used to send the data.
 439:Source\LwIP\src\core/udp.c ****  * @param p chain of pbuf's to be sent.
 440:Source\LwIP\src\core/udp.c ****  *
 441:Source\LwIP\src\core/udp.c ****  * The datagram will be sent to the current remote_ip & remote_port
 442:Source\LwIP\src\core/udp.c ****  * stored in pcb. If the pcb is not bound to a port, it will
 443:Source\LwIP\src\core/udp.c ****  * automatically be bound to a random port.
 444:Source\LwIP\src\core/udp.c ****  *
 445:Source\LwIP\src\core/udp.c ****  * @return lwIP error code.
 446:Source\LwIP\src\core/udp.c ****  * - ERR_OK. Successful. No error occurred.
 447:Source\LwIP\src\core/udp.c ****  * - ERR_MEM. Out of memory.
 448:Source\LwIP\src\core/udp.c ****  * - ERR_RTE. Could not find route to destination address.
 449:Source\LwIP\src\core/udp.c ****  * - ERR_VAL. No PCB or PCB is dual-stack
 450:Source\LwIP\src\core/udp.c ****  * - More errors could be returned by lower protocol layers.
 451:Source\LwIP\src\core/udp.c ****  *
 452:Source\LwIP\src\core/udp.c ****  * @see udp_disconnect() udp_sendto()
 453:Source\LwIP\src\core/udp.c ****  */
 454:Source\LwIP\src\core/udp.c **** err_t
 455:Source\LwIP\src\core/udp.c **** udp_send(struct udp_pcb *pcb, struct pbuf *p)
 456:Source\LwIP\src\core/udp.c **** {
 457:Source\LwIP\src\core/udp.c ****   if ((pcb == NULL) || IP_IS_ANY_TYPE_VAL(pcb->remote_ip)) {
 458:Source\LwIP\src\core/udp.c ****     return ERR_VAL;
 459:Source\LwIP\src\core/udp.c ****   }
 460:Source\LwIP\src\core/udp.c **** 
 461:Source\LwIP\src\core/udp.c ****   /* send to the packet using remote ip and port stored in the pcb */
 462:Source\LwIP\src\core/udp.c ****   return udp_sendto(pcb, p, &pcb->remote_ip, pcb->remote_port);
 463:Source\LwIP\src\core/udp.c **** }
 464:Source\LwIP\src\core/udp.c **** 
ARM GAS  C:\Users\Phuong\AppData\Local\Temp\cc08x83E.s 			page 21


 465:Source\LwIP\src\core/udp.c **** #if LWIP_CHECKSUM_ON_COPY && CHECKSUM_GEN_UDP
 466:Source\LwIP\src\core/udp.c **** /** @ingroup udp_raw
 467:Source\LwIP\src\core/udp.c ****  * Same as udp_send() but with checksum
 468:Source\LwIP\src\core/udp.c ****  */
 469:Source\LwIP\src\core/udp.c **** err_t
 470:Source\LwIP\src\core/udp.c **** udp_send_chksum(struct udp_pcb *pcb, struct pbuf *p,
 471:Source\LwIP\src\core/udp.c ****                 u8_t have_chksum, u16_t chksum)
 472:Source\LwIP\src\core/udp.c **** {
 473:Source\LwIP\src\core/udp.c ****   if ((pcb == NULL) || IP_IS_ANY_TYPE_VAL(pcb->remote_ip)) {
 474:Source\LwIP\src\core/udp.c ****     return ERR_VAL;
 475:Source\LwIP\src\core/udp.c ****   }
 476:Source\LwIP\src\core/udp.c **** 
 477:Source\LwIP\src\core/udp.c ****   /* send to the packet using remote ip and port stored in the pcb */
 478:Source\LwIP\src\core/udp.c ****   return udp_sendto_chksum(pcb, p, &pcb->remote_ip, pcb->remote_port,
 479:Source\LwIP\src\core/udp.c ****     have_chksum, chksum);
 480:Source\LwIP\src\core/udp.c **** }
 481:Source\LwIP\src\core/udp.c **** #endif /* LWIP_CHECKSUM_ON_COPY && CHECKSUM_GEN_UDP */
 482:Source\LwIP\src\core/udp.c **** 
 483:Source\LwIP\src\core/udp.c **** /**
 484:Source\LwIP\src\core/udp.c ****  * @ingroup udp_raw
 485:Source\LwIP\src\core/udp.c ****  * Send data to a specified address using UDP.
 486:Source\LwIP\src\core/udp.c ****  *
 487:Source\LwIP\src\core/udp.c ****  * @param pcb UDP PCB used to send the data.
 488:Source\LwIP\src\core/udp.c ****  * @param p chain of pbuf's to be sent.
 489:Source\LwIP\src\core/udp.c ****  * @param dst_ip Destination IP address.
 490:Source\LwIP\src\core/udp.c ****  * @param dst_port Destination UDP port.
 491:Source\LwIP\src\core/udp.c ****  *
 492:Source\LwIP\src\core/udp.c ****  * dst_ip & dst_port are expected to be in the same byte order as in the pcb.
 493:Source\LwIP\src\core/udp.c ****  *
 494:Source\LwIP\src\core/udp.c ****  * If the PCB already has a remote address association, it will
 495:Source\LwIP\src\core/udp.c ****  * be restored after the data is sent.
 496:Source\LwIP\src\core/udp.c ****  *
 497:Source\LwIP\src\core/udp.c ****  * @return lwIP error code (@see udp_send for possible error codes)
 498:Source\LwIP\src\core/udp.c ****  *
 499:Source\LwIP\src\core/udp.c ****  * @see udp_disconnect() udp_send()
 500:Source\LwIP\src\core/udp.c ****  */
 501:Source\LwIP\src\core/udp.c **** err_t
 502:Source\LwIP\src\core/udp.c **** udp_sendto(struct udp_pcb *pcb, struct pbuf *p,
 503:Source\LwIP\src\core/udp.c ****   const ip_addr_t *dst_ip, u16_t dst_port)
 504:Source\LwIP\src\core/udp.c **** {
 505:Source\LwIP\src\core/udp.c **** #if LWIP_CHECKSUM_ON_COPY && CHECKSUM_GEN_UDP
 506:Source\LwIP\src\core/udp.c ****   return udp_sendto_chksum(pcb, p, dst_ip, dst_port, 0, 0);
 507:Source\LwIP\src\core/udp.c **** }
 508:Source\LwIP\src\core/udp.c **** 
 509:Source\LwIP\src\core/udp.c **** /** @ingroup udp_raw
 510:Source\LwIP\src\core/udp.c ****  * Same as udp_sendto(), but with checksum */
 511:Source\LwIP\src\core/udp.c **** err_t
 512:Source\LwIP\src\core/udp.c **** udp_sendto_chksum(struct udp_pcb *pcb, struct pbuf *p, const ip_addr_t *dst_ip,
 513:Source\LwIP\src\core/udp.c ****                   u16_t dst_port, u8_t have_chksum, u16_t chksum)
 514:Source\LwIP\src\core/udp.c **** {
 515:Source\LwIP\src\core/udp.c **** #endif /* LWIP_CHECKSUM_ON_COPY && CHECKSUM_GEN_UDP */
 516:Source\LwIP\src\core/udp.c ****   struct netif *netif;
 517:Source\LwIP\src\core/udp.c ****   const ip_addr_t *dst_ip_route = dst_ip;
 518:Source\LwIP\src\core/udp.c **** 
 519:Source\LwIP\src\core/udp.c ****   if ((pcb == NULL) || (dst_ip == NULL) || !IP_ADDR_PCB_VERSION_MATCH(pcb, dst_ip)) {
 520:Source\LwIP\src\core/udp.c ****     return ERR_VAL;
 521:Source\LwIP\src\core/udp.c ****   }
ARM GAS  C:\Users\Phuong\AppData\Local\Temp\cc08x83E.s 			page 22


 522:Source\LwIP\src\core/udp.c **** 
 523:Source\LwIP\src\core/udp.c ****   LWIP_DEBUGF(UDP_DEBUG | LWIP_DBG_TRACE, ("udp_send\n"));
 524:Source\LwIP\src\core/udp.c **** 
 525:Source\LwIP\src\core/udp.c **** #if LWIP_IPV6 || (LWIP_IPV4 && LWIP_MULTICAST_TX_OPTIONS)
 526:Source\LwIP\src\core/udp.c ****   if (ip_addr_ismulticast(dst_ip_route)) {
 527:Source\LwIP\src\core/udp.c **** #if LWIP_IPV6
 528:Source\LwIP\src\core/udp.c ****     if (IP_IS_V6(dst_ip)) {
 529:Source\LwIP\src\core/udp.c ****       /* For multicast, find a netif based on source address. */
 530:Source\LwIP\src\core/udp.c ****       dst_ip_route = &pcb->local_ip;
 531:Source\LwIP\src\core/udp.c ****     } else
 532:Source\LwIP\src\core/udp.c **** #endif /* LWIP_IPV6 */
 533:Source\LwIP\src\core/udp.c ****     {
 534:Source\LwIP\src\core/udp.c **** #if LWIP_IPV4 && LWIP_MULTICAST_TX_OPTIONS
 535:Source\LwIP\src\core/udp.c ****       /* IPv4 does not use source-based routing by default, so we use an
 536:Source\LwIP\src\core/udp.c ****          administratively selected interface for multicast by default.
 537:Source\LwIP\src\core/udp.c ****          However, this can be overridden by setting an interface address
 538:Source\LwIP\src\core/udp.c ****          in pcb->multicast_ip that is used for routing. */
 539:Source\LwIP\src\core/udp.c ****       if (!ip_addr_isany_val(pcb->multicast_ip) &&
 540:Source\LwIP\src\core/udp.c ****           !ip4_addr_cmp(ip_2_ip4(&pcb->multicast_ip), IP4_ADDR_BROADCAST)) {
 541:Source\LwIP\src\core/udp.c ****         dst_ip_route = &pcb->multicast_ip;
 542:Source\LwIP\src\core/udp.c ****       }
 543:Source\LwIP\src\core/udp.c **** #endif /* LWIP_IPV4 && LWIP_MULTICAST_TX_OPTIONS */
 544:Source\LwIP\src\core/udp.c ****     }
 545:Source\LwIP\src\core/udp.c ****   }
 546:Source\LwIP\src\core/udp.c **** #endif /* LWIP_IPV6 || (LWIP_IPV4 && LWIP_MULTICAST_TX_OPTIONS) */
 547:Source\LwIP\src\core/udp.c **** 
 548:Source\LwIP\src\core/udp.c ****   /* find the outgoing network interface for this packet */
 549:Source\LwIP\src\core/udp.c ****   if(IP_IS_ANY_TYPE_VAL(pcb->local_ip)) {
 550:Source\LwIP\src\core/udp.c ****     /* Don't call ip_route() with IP_ANY_TYPE */
 551:Source\LwIP\src\core/udp.c ****     netif = ip_route(IP46_ADDR_ANY(IP_GET_TYPE(dst_ip_route)), dst_ip_route);
 552:Source\LwIP\src\core/udp.c ****   } else {
 553:Source\LwIP\src\core/udp.c ****     netif = ip_route(&pcb->local_ip, dst_ip_route);
 554:Source\LwIP\src\core/udp.c ****   }
 555:Source\LwIP\src\core/udp.c **** 
 556:Source\LwIP\src\core/udp.c ****   /* no outgoing network interface could be found? */
 557:Source\LwIP\src\core/udp.c ****   if (netif == NULL) {
 558:Source\LwIP\src\core/udp.c ****     LWIP_DEBUGF(UDP_DEBUG | LWIP_DBG_LEVEL_SERIOUS, ("udp_send: No route to "));
 559:Source\LwIP\src\core/udp.c ****     ip_addr_debug_print(UDP_DEBUG | LWIP_DBG_LEVEL_SERIOUS, dst_ip);
 560:Source\LwIP\src\core/udp.c ****     LWIP_DEBUGF(UDP_DEBUG, ("\n"));
 561:Source\LwIP\src\core/udp.c ****     UDP_STATS_INC(udp.rterr);
 562:Source\LwIP\src\core/udp.c ****     return ERR_RTE;
 563:Source\LwIP\src\core/udp.c ****   }
 564:Source\LwIP\src\core/udp.c **** #if LWIP_CHECKSUM_ON_COPY && CHECKSUM_GEN_UDP
 565:Source\LwIP\src\core/udp.c ****   return udp_sendto_if_chksum(pcb, p, dst_ip, dst_port, netif, have_chksum, chksum);
 566:Source\LwIP\src\core/udp.c **** #else /* LWIP_CHECKSUM_ON_COPY && CHECKSUM_GEN_UDP */
 567:Source\LwIP\src\core/udp.c ****   return udp_sendto_if(pcb, p, dst_ip, dst_port, netif);
 568:Source\LwIP\src\core/udp.c **** #endif /* LWIP_CHECKSUM_ON_COPY && CHECKSUM_GEN_UDP */
 569:Source\LwIP\src\core/udp.c **** }
 570:Source\LwIP\src\core/udp.c **** 
 571:Source\LwIP\src\core/udp.c **** /**
 572:Source\LwIP\src\core/udp.c ****  * @ingroup udp_raw
 573:Source\LwIP\src\core/udp.c ****  * Send data to a specified address using UDP.
 574:Source\LwIP\src\core/udp.c ****  * The netif used for sending can be specified.
 575:Source\LwIP\src\core/udp.c ****  *
 576:Source\LwIP\src\core/udp.c ****  * This function exists mainly for DHCP, to be able to send UDP packets
 577:Source\LwIP\src\core/udp.c ****  * on a netif that is still down.
 578:Source\LwIP\src\core/udp.c ****  *
ARM GAS  C:\Users\Phuong\AppData\Local\Temp\cc08x83E.s 			page 23


 579:Source\LwIP\src\core/udp.c ****  * @param pcb UDP PCB used to send the data.
 580:Source\LwIP\src\core/udp.c ****  * @param p chain of pbuf's to be sent.
 581:Source\LwIP\src\core/udp.c ****  * @param dst_ip Destination IP address.
 582:Source\LwIP\src\core/udp.c ****  * @param dst_port Destination UDP port.
 583:Source\LwIP\src\core/udp.c ****  * @param netif the netif used for sending.
 584:Source\LwIP\src\core/udp.c ****  *
 585:Source\LwIP\src\core/udp.c ****  * dst_ip & dst_port are expected to be in the same byte order as in the pcb.
 586:Source\LwIP\src\core/udp.c ****  *
 587:Source\LwIP\src\core/udp.c ****  * @return lwIP error code (@see udp_send for possible error codes)
 588:Source\LwIP\src\core/udp.c ****  *
 589:Source\LwIP\src\core/udp.c ****  * @see udp_disconnect() udp_send()
 590:Source\LwIP\src\core/udp.c ****  */
 591:Source\LwIP\src\core/udp.c **** err_t
 592:Source\LwIP\src\core/udp.c **** udp_sendto_if(struct udp_pcb *pcb, struct pbuf *p,
 593:Source\LwIP\src\core/udp.c ****   const ip_addr_t *dst_ip, u16_t dst_port, struct netif *netif)
 594:Source\LwIP\src\core/udp.c **** {
 595:Source\LwIP\src\core/udp.c **** #if LWIP_CHECKSUM_ON_COPY && CHECKSUM_GEN_UDP
 596:Source\LwIP\src\core/udp.c ****   return udp_sendto_if_chksum(pcb, p, dst_ip, dst_port, netif, 0, 0);
 597:Source\LwIP\src\core/udp.c **** }
 598:Source\LwIP\src\core/udp.c **** 
 599:Source\LwIP\src\core/udp.c **** /** Same as udp_sendto_if(), but with checksum */
 600:Source\LwIP\src\core/udp.c **** err_t
 601:Source\LwIP\src\core/udp.c **** udp_sendto_if_chksum(struct udp_pcb *pcb, struct pbuf *p, const ip_addr_t *dst_ip,
 602:Source\LwIP\src\core/udp.c ****                      u16_t dst_port, struct netif *netif, u8_t have_chksum,
 603:Source\LwIP\src\core/udp.c ****                      u16_t chksum)
 604:Source\LwIP\src\core/udp.c **** {
 605:Source\LwIP\src\core/udp.c **** #endif /* LWIP_CHECKSUM_ON_COPY && CHECKSUM_GEN_UDP */
 606:Source\LwIP\src\core/udp.c ****   const ip_addr_t *src_ip;
 607:Source\LwIP\src\core/udp.c **** 
 608:Source\LwIP\src\core/udp.c ****   if ((pcb == NULL) || (dst_ip == NULL) || !IP_ADDR_PCB_VERSION_MATCH(pcb, dst_ip)) {
 609:Source\LwIP\src\core/udp.c ****     return ERR_VAL;
 610:Source\LwIP\src\core/udp.c ****   }
 611:Source\LwIP\src\core/udp.c **** 
 612:Source\LwIP\src\core/udp.c ****   /* PCB local address is IP_ANY_ADDR? */
 613:Source\LwIP\src\core/udp.c **** #if LWIP_IPV6
 614:Source\LwIP\src\core/udp.c ****   if (IP_IS_V6(dst_ip)) {
 615:Source\LwIP\src\core/udp.c ****     if (ip6_addr_isany(ip_2_ip6(&pcb->local_ip))) {
 616:Source\LwIP\src\core/udp.c ****       src_ip = ip6_select_source_address(netif, ip_2_ip6(dst_ip));
 617:Source\LwIP\src\core/udp.c ****       if (src_ip == NULL) {
 618:Source\LwIP\src\core/udp.c ****         /* No suitable source address was found. */
 619:Source\LwIP\src\core/udp.c ****         return ERR_RTE;
 620:Source\LwIP\src\core/udp.c ****       }
 621:Source\LwIP\src\core/udp.c ****     } else {
 622:Source\LwIP\src\core/udp.c ****       /* use UDP PCB local IPv6 address as source address, if still valid. */
 623:Source\LwIP\src\core/udp.c ****       if (netif_get_ip6_addr_match(netif, ip_2_ip6(&pcb->local_ip)) < 0) {
 624:Source\LwIP\src\core/udp.c ****         /* Address isn't valid anymore. */
 625:Source\LwIP\src\core/udp.c ****         return ERR_RTE;
 626:Source\LwIP\src\core/udp.c ****       }
 627:Source\LwIP\src\core/udp.c ****       src_ip = &pcb->local_ip;
 628:Source\LwIP\src\core/udp.c ****     }
 629:Source\LwIP\src\core/udp.c ****   }
 630:Source\LwIP\src\core/udp.c **** #endif /* LWIP_IPV6 */
 631:Source\LwIP\src\core/udp.c **** #if LWIP_IPV4 && LWIP_IPV6
 632:Source\LwIP\src\core/udp.c ****   else
 633:Source\LwIP\src\core/udp.c **** #endif /* LWIP_IPV4 && LWIP_IPV6 */
 634:Source\LwIP\src\core/udp.c **** #if LWIP_IPV4
 635:Source\LwIP\src\core/udp.c ****   if (ip4_addr_isany(ip_2_ip4(&pcb->local_ip)) ||
ARM GAS  C:\Users\Phuong\AppData\Local\Temp\cc08x83E.s 			page 24


 636:Source\LwIP\src\core/udp.c ****       ip4_addr_ismulticast(ip_2_ip4(&pcb->local_ip))) {
 637:Source\LwIP\src\core/udp.c ****     /* if the local_ip is any or multicast
 638:Source\LwIP\src\core/udp.c ****      * use the outgoing network interface IP address as source address */
 639:Source\LwIP\src\core/udp.c ****     src_ip = netif_ip_addr4(netif);
 640:Source\LwIP\src\core/udp.c ****   } else {
 641:Source\LwIP\src\core/udp.c ****     /* check if UDP PCB local IP address is correct
 642:Source\LwIP\src\core/udp.c ****      * this could be an old address if netif->ip_addr has changed */
 643:Source\LwIP\src\core/udp.c ****     if (!ip4_addr_cmp(ip_2_ip4(&(pcb->local_ip)), netif_ip4_addr(netif))) {
 644:Source\LwIP\src\core/udp.c ****       /* local_ip doesn't match, drop the packet */
 645:Source\LwIP\src\core/udp.c ****       return ERR_RTE;
 646:Source\LwIP\src\core/udp.c ****     }
 647:Source\LwIP\src\core/udp.c ****     /* use UDP PCB local IP address as source address */
 648:Source\LwIP\src\core/udp.c ****     src_ip = &pcb->local_ip;
 649:Source\LwIP\src\core/udp.c ****   }
 650:Source\LwIP\src\core/udp.c **** #endif /* LWIP_IPV4 */
 651:Source\LwIP\src\core/udp.c **** #if LWIP_CHECKSUM_ON_COPY && CHECKSUM_GEN_UDP
 652:Source\LwIP\src\core/udp.c ****   return udp_sendto_if_src_chksum(pcb, p, dst_ip, dst_port, netif, have_chksum, chksum, src_ip);
 653:Source\LwIP\src\core/udp.c **** #else /* LWIP_CHECKSUM_ON_COPY && CHECKSUM_GEN_UDP */
 654:Source\LwIP\src\core/udp.c ****   return udp_sendto_if_src(pcb, p, dst_ip, dst_port, netif, src_ip);
 655:Source\LwIP\src\core/udp.c **** #endif /* LWIP_CHECKSUM_ON_COPY && CHECKSUM_GEN_UDP */
 656:Source\LwIP\src\core/udp.c **** }
 657:Source\LwIP\src\core/udp.c **** 
 658:Source\LwIP\src\core/udp.c **** /** @ingroup udp_raw
 659:Source\LwIP\src\core/udp.c ****  * Same as @ref udp_sendto_if, but with source address */
 660:Source\LwIP\src\core/udp.c **** err_t
 661:Source\LwIP\src\core/udp.c **** udp_sendto_if_src(struct udp_pcb *pcb, struct pbuf *p,
 662:Source\LwIP\src\core/udp.c ****   const ip_addr_t *dst_ip, u16_t dst_port, struct netif *netif, const ip_addr_t *src_ip)
 663:Source\LwIP\src\core/udp.c **** {
 664:Source\LwIP\src\core/udp.c **** #if LWIP_CHECKSUM_ON_COPY && CHECKSUM_GEN_UDP
 665:Source\LwIP\src\core/udp.c ****   return udp_sendto_if_src_chksum(pcb, p, dst_ip, dst_port, netif, 0, 0, src_ip);
 666:Source\LwIP\src\core/udp.c **** }
 667:Source\LwIP\src\core/udp.c **** 
 668:Source\LwIP\src\core/udp.c **** /** Same as udp_sendto_if_src(), but with checksum */
 669:Source\LwIP\src\core/udp.c **** err_t
 670:Source\LwIP\src\core/udp.c **** udp_sendto_if_src_chksum(struct udp_pcb *pcb, struct pbuf *p, const ip_addr_t *dst_ip,
 671:Source\LwIP\src\core/udp.c ****                      u16_t dst_port, struct netif *netif, u8_t have_chksum,
 672:Source\LwIP\src\core/udp.c ****                      u16_t chksum, const ip_addr_t *src_ip)
 673:Source\LwIP\src\core/udp.c **** {
 674:Source\LwIP\src\core/udp.c **** #endif /* LWIP_CHECKSUM_ON_COPY && CHECKSUM_GEN_UDP */
 675:Source\LwIP\src\core/udp.c ****   struct udp_hdr *udphdr;
 676:Source\LwIP\src\core/udp.c ****   err_t err;
 677:Source\LwIP\src\core/udp.c ****   struct pbuf *q; /* q will be sent down the stack */
 678:Source\LwIP\src\core/udp.c ****   u8_t ip_proto;
 679:Source\LwIP\src\core/udp.c ****   u8_t ttl;
 680:Source\LwIP\src\core/udp.c **** 
 681:Source\LwIP\src\core/udp.c ****   if ((pcb == NULL) || (dst_ip == NULL) || !IP_ADDR_PCB_VERSION_MATCH(pcb, src_ip) ||
 682:Source\LwIP\src\core/udp.c ****       !IP_ADDR_PCB_VERSION_MATCH(pcb, dst_ip)) {
 683:Source\LwIP\src\core/udp.c ****     return ERR_VAL;
 684:Source\LwIP\src\core/udp.c ****   }
 685:Source\LwIP\src\core/udp.c **** 
 686:Source\LwIP\src\core/udp.c **** #if LWIP_IPV4 && IP_SOF_BROADCAST
 687:Source\LwIP\src\core/udp.c ****   /* broadcast filter? */
 688:Source\LwIP\src\core/udp.c ****   if (!ip_get_option(pcb, SOF_BROADCAST) &&
 689:Source\LwIP\src\core/udp.c **** #if LWIP_IPV6
 690:Source\LwIP\src\core/udp.c ****       IP_IS_V4(dst_ip) &&
 691:Source\LwIP\src\core/udp.c **** #endif /* LWIP_IPV6 */
 692:Source\LwIP\src\core/udp.c ****       ip_addr_isbroadcast(dst_ip, netif)) {
ARM GAS  C:\Users\Phuong\AppData\Local\Temp\cc08x83E.s 			page 25


 693:Source\LwIP\src\core/udp.c ****     LWIP_DEBUGF(UDP_DEBUG | LWIP_DBG_LEVEL_SERIOUS,
 694:Source\LwIP\src\core/udp.c ****       ("udp_sendto_if: SOF_BROADCAST not enabled on pcb %p\n", (void *)pcb));
 695:Source\LwIP\src\core/udp.c ****     return ERR_VAL;
 696:Source\LwIP\src\core/udp.c ****   }
 697:Source\LwIP\src\core/udp.c **** #endif /* LWIP_IPV4 && IP_SOF_BROADCAST */
 698:Source\LwIP\src\core/udp.c **** 
 699:Source\LwIP\src\core/udp.c ****   /* if the PCB is not yet bound to a port, bind it here */
 700:Source\LwIP\src\core/udp.c ****   if (pcb->local_port == 0) {
 701:Source\LwIP\src\core/udp.c ****     LWIP_DEBUGF(UDP_DEBUG | LWIP_DBG_TRACE, ("udp_send: not yet bound to a port, binding now\n"));
 702:Source\LwIP\src\core/udp.c ****     err = udp_bind(pcb, &pcb->local_ip, pcb->local_port);
 703:Source\LwIP\src\core/udp.c ****     if (err != ERR_OK) {
 704:Source\LwIP\src\core/udp.c ****       LWIP_DEBUGF(UDP_DEBUG | LWIP_DBG_TRACE | LWIP_DBG_LEVEL_SERIOUS, ("udp_send: forced port bind
 705:Source\LwIP\src\core/udp.c ****       return err;
 706:Source\LwIP\src\core/udp.c ****     }
 707:Source\LwIP\src\core/udp.c ****   }
 708:Source\LwIP\src\core/udp.c **** 
 709:Source\LwIP\src\core/udp.c ****   /* not enough space to add an UDP header to first pbuf in given p chain? */
 710:Source\LwIP\src\core/udp.c ****   if (pbuf_header(p, UDP_HLEN)) {
 711:Source\LwIP\src\core/udp.c ****     /* allocate header in a separate new pbuf */
 712:Source\LwIP\src\core/udp.c ****     q = pbuf_alloc(PBUF_IP, UDP_HLEN, PBUF_RAM);
 713:Source\LwIP\src\core/udp.c ****     /* new header pbuf could not be allocated? */
 714:Source\LwIP\src\core/udp.c ****     if (q == NULL) {
 715:Source\LwIP\src\core/udp.c ****       LWIP_DEBUGF(UDP_DEBUG | LWIP_DBG_TRACE | LWIP_DBG_LEVEL_SERIOUS, ("udp_send: could not alloca
 716:Source\LwIP\src\core/udp.c ****       return ERR_MEM;
 717:Source\LwIP\src\core/udp.c ****     }
 718:Source\LwIP\src\core/udp.c ****     if (p->tot_len != 0) {
 719:Source\LwIP\src\core/udp.c ****       /* chain header q in front of given pbuf p (only if p contains data) */
 720:Source\LwIP\src\core/udp.c ****       pbuf_chain(q, p);
 721:Source\LwIP\src\core/udp.c ****     }
 722:Source\LwIP\src\core/udp.c ****     /* first pbuf q points to header pbuf */
 723:Source\LwIP\src\core/udp.c ****     LWIP_DEBUGF(UDP_DEBUG,
 724:Source\LwIP\src\core/udp.c ****                 ("udp_send: added header pbuf %p before given pbuf %p\n", (void *)q, (void *)p));
 725:Source\LwIP\src\core/udp.c ****   } else {
 726:Source\LwIP\src\core/udp.c ****     /* adding space for header within p succeeded */
 727:Source\LwIP\src\core/udp.c ****     /* first pbuf q equals given pbuf */
 728:Source\LwIP\src\core/udp.c ****     q = p;
 729:Source\LwIP\src\core/udp.c ****     LWIP_DEBUGF(UDP_DEBUG, ("udp_send: added header in given pbuf %p\n", (void *)p));
 730:Source\LwIP\src\core/udp.c ****   }
 731:Source\LwIP\src\core/udp.c ****   LWIP_ASSERT("check that first pbuf can hold struct udp_hdr",
 732:Source\LwIP\src\core/udp.c ****               (q->len >= sizeof(struct udp_hdr)));
 733:Source\LwIP\src\core/udp.c ****   /* q now represents the packet to be sent */
 734:Source\LwIP\src\core/udp.c ****   udphdr = (struct udp_hdr *)q->payload;
 735:Source\LwIP\src\core/udp.c ****   udphdr->src = lwip_htons(pcb->local_port);
 736:Source\LwIP\src\core/udp.c ****   udphdr->dest = lwip_htons(dst_port);
 737:Source\LwIP\src\core/udp.c ****   /* in UDP, 0 checksum means 'no checksum' */
 738:Source\LwIP\src\core/udp.c ****   udphdr->chksum = 0x0000;
 739:Source\LwIP\src\core/udp.c **** 
 740:Source\LwIP\src\core/udp.c ****   /* Multicast Loop? */
 741:Source\LwIP\src\core/udp.c **** #if (LWIP_IPV4 && LWIP_MULTICAST_TX_OPTIONS) || (LWIP_IPV6 && LWIP_IPV6_MLD)
 742:Source\LwIP\src\core/udp.c ****   if (((pcb->flags & UDP_FLAGS_MULTICAST_LOOP) != 0) && ip_addr_ismulticast(dst_ip)) {
 743:Source\LwIP\src\core/udp.c ****     q->flags |= PBUF_FLAG_MCASTLOOP;
 744:Source\LwIP\src\core/udp.c ****   }
 745:Source\LwIP\src\core/udp.c **** #endif /* (LWIP_IPV4 && LWIP_MULTICAST_TX_OPTIONS) || (LWIP_IPV6 && LWIP_IPV6_MLD) */
 746:Source\LwIP\src\core/udp.c **** 
 747:Source\LwIP\src\core/udp.c ****   LWIP_DEBUGF(UDP_DEBUG, ("udp_send: sending datagram of length %"U16_F"\n", q->tot_len));
 748:Source\LwIP\src\core/udp.c **** 
 749:Source\LwIP\src\core/udp.c **** #if LWIP_UDPLITE
ARM GAS  C:\Users\Phuong\AppData\Local\Temp\cc08x83E.s 			page 26


 750:Source\LwIP\src\core/udp.c ****   /* UDP Lite protocol? */
 751:Source\LwIP\src\core/udp.c ****   if (pcb->flags & UDP_FLAGS_UDPLITE) {
 752:Source\LwIP\src\core/udp.c ****     u16_t chklen, chklen_hdr;
 753:Source\LwIP\src\core/udp.c ****     LWIP_DEBUGF(UDP_DEBUG, ("udp_send: UDP LITE packet length %"U16_F"\n", q->tot_len));
 754:Source\LwIP\src\core/udp.c ****     /* set UDP message length in UDP header */
 755:Source\LwIP\src\core/udp.c ****     chklen_hdr = chklen = pcb->chksum_len_tx;
 756:Source\LwIP\src\core/udp.c ****     if ((chklen < sizeof(struct udp_hdr)) || (chklen > q->tot_len)) {
 757:Source\LwIP\src\core/udp.c ****       if (chklen != 0) {
 758:Source\LwIP\src\core/udp.c ****         LWIP_DEBUGF(UDP_DEBUG, ("udp_send: UDP LITE pcb->chksum_len is illegal: %"U16_F"\n", chklen
 759:Source\LwIP\src\core/udp.c ****       }
 760:Source\LwIP\src\core/udp.c ****       /* For UDP-Lite, checksum length of 0 means checksum
 761:Source\LwIP\src\core/udp.c ****          over the complete packet. (See RFC 3828 chap. 3.1)
 762:Source\LwIP\src\core/udp.c ****          At least the UDP-Lite header must be covered by the
 763:Source\LwIP\src\core/udp.c ****          checksum, therefore, if chksum_len has an illegal
 764:Source\LwIP\src\core/udp.c ****          value, we generate the checksum over the complete
 765:Source\LwIP\src\core/udp.c ****          packet to be safe. */
 766:Source\LwIP\src\core/udp.c ****       chklen_hdr = 0;
 767:Source\LwIP\src\core/udp.c ****       chklen = q->tot_len;
 768:Source\LwIP\src\core/udp.c ****     }
 769:Source\LwIP\src\core/udp.c ****     udphdr->len = lwip_htons(chklen_hdr);
 770:Source\LwIP\src\core/udp.c ****     /* calculate checksum */
 771:Source\LwIP\src\core/udp.c **** #if CHECKSUM_GEN_UDP
 772:Source\LwIP\src\core/udp.c ****     IF__NETIF_CHECKSUM_ENABLED(netif, NETIF_CHECKSUM_GEN_UDP) {
 773:Source\LwIP\src\core/udp.c **** #if LWIP_CHECKSUM_ON_COPY
 774:Source\LwIP\src\core/udp.c ****       if (have_chksum) {
 775:Source\LwIP\src\core/udp.c ****         chklen = UDP_HLEN;
 776:Source\LwIP\src\core/udp.c ****       }
 777:Source\LwIP\src\core/udp.c **** #endif /* LWIP_CHECKSUM_ON_COPY */
 778:Source\LwIP\src\core/udp.c ****       udphdr->chksum = ip_chksum_pseudo_partial(q, IP_PROTO_UDPLITE,
 779:Source\LwIP\src\core/udp.c ****         q->tot_len, chklen, src_ip, dst_ip);
 780:Source\LwIP\src\core/udp.c **** #if LWIP_CHECKSUM_ON_COPY
 781:Source\LwIP\src\core/udp.c ****       if (have_chksum) {
 782:Source\LwIP\src\core/udp.c ****         u32_t acc;
 783:Source\LwIP\src\core/udp.c ****         acc = udphdr->chksum + (u16_t)~(chksum);
 784:Source\LwIP\src\core/udp.c ****         udphdr->chksum = FOLD_U32T(acc);
 785:Source\LwIP\src\core/udp.c ****       }
 786:Source\LwIP\src\core/udp.c **** #endif /* LWIP_CHECKSUM_ON_COPY */
 787:Source\LwIP\src\core/udp.c **** 
 788:Source\LwIP\src\core/udp.c ****       /* chksum zero must become 0xffff, as zero means 'no checksum' */
 789:Source\LwIP\src\core/udp.c ****       if (udphdr->chksum == 0x0000) {
 790:Source\LwIP\src\core/udp.c ****         udphdr->chksum = 0xffff;
 791:Source\LwIP\src\core/udp.c ****       }
 792:Source\LwIP\src\core/udp.c ****     }
 793:Source\LwIP\src\core/udp.c **** #endif /* CHECKSUM_GEN_UDP */
 794:Source\LwIP\src\core/udp.c **** 
 795:Source\LwIP\src\core/udp.c ****     ip_proto = IP_PROTO_UDPLITE;
 796:Source\LwIP\src\core/udp.c ****   } else
 797:Source\LwIP\src\core/udp.c **** #endif /* LWIP_UDPLITE */
 798:Source\LwIP\src\core/udp.c ****   {      /* UDP */
 799:Source\LwIP\src\core/udp.c ****     LWIP_DEBUGF(UDP_DEBUG, ("udp_send: UDP packet length %"U16_F"\n", q->tot_len));
 800:Source\LwIP\src\core/udp.c ****     udphdr->len = lwip_htons(q->tot_len);
 801:Source\LwIP\src\core/udp.c ****     /* calculate checksum */
 802:Source\LwIP\src\core/udp.c **** #if CHECKSUM_GEN_UDP
 803:Source\LwIP\src\core/udp.c ****     IF__NETIF_CHECKSUM_ENABLED(netif, NETIF_CHECKSUM_GEN_UDP) {
 804:Source\LwIP\src\core/udp.c ****       /* Checksum is mandatory over IPv6. */
 805:Source\LwIP\src\core/udp.c ****       if (IP_IS_V6(dst_ip) || (pcb->flags & UDP_FLAGS_NOCHKSUM) == 0) {
 806:Source\LwIP\src\core/udp.c ****         u16_t udpchksum;
ARM GAS  C:\Users\Phuong\AppData\Local\Temp\cc08x83E.s 			page 27


 807:Source\LwIP\src\core/udp.c **** #if LWIP_CHECKSUM_ON_COPY
 808:Source\LwIP\src\core/udp.c ****         if (have_chksum) {
 809:Source\LwIP\src\core/udp.c ****           u32_t acc;
 810:Source\LwIP\src\core/udp.c ****           udpchksum = ip_chksum_pseudo_partial(q, IP_PROTO_UDP,
 811:Source\LwIP\src\core/udp.c ****             q->tot_len, UDP_HLEN, src_ip, dst_ip);
 812:Source\LwIP\src\core/udp.c ****           acc = udpchksum + (u16_t)~(chksum);
 813:Source\LwIP\src\core/udp.c ****           udpchksum = FOLD_U32T(acc);
 814:Source\LwIP\src\core/udp.c ****         } else
 815:Source\LwIP\src\core/udp.c **** #endif /* LWIP_CHECKSUM_ON_COPY */
 816:Source\LwIP\src\core/udp.c ****         {
 817:Source\LwIP\src\core/udp.c ****           udpchksum = ip_chksum_pseudo(q, IP_PROTO_UDP, q->tot_len,
 818:Source\LwIP\src\core/udp.c ****             src_ip, dst_ip);
 819:Source\LwIP\src\core/udp.c ****         }
 820:Source\LwIP\src\core/udp.c **** 
 821:Source\LwIP\src\core/udp.c ****         /* chksum zero must become 0xffff, as zero means 'no checksum' */
 822:Source\LwIP\src\core/udp.c ****         if (udpchksum == 0x0000) {
 823:Source\LwIP\src\core/udp.c ****           udpchksum = 0xffff;
 824:Source\LwIP\src\core/udp.c ****         }
 825:Source\LwIP\src\core/udp.c ****         udphdr->chksum = udpchksum;
 826:Source\LwIP\src\core/udp.c ****       }
 827:Source\LwIP\src\core/udp.c ****     }
 828:Source\LwIP\src\core/udp.c **** #endif /* CHECKSUM_GEN_UDP */
 829:Source\LwIP\src\core/udp.c ****     ip_proto = IP_PROTO_UDP;
 830:Source\LwIP\src\core/udp.c ****   }
 831:Source\LwIP\src\core/udp.c **** 
 832:Source\LwIP\src\core/udp.c ****   /* Determine TTL to use */
 833:Source\LwIP\src\core/udp.c **** #if LWIP_MULTICAST_TX_OPTIONS
 834:Source\LwIP\src\core/udp.c ****   ttl = (ip_addr_ismulticast(dst_ip) ? udp_get_multicast_ttl(pcb) : pcb->ttl);
 835:Source\LwIP\src\core/udp.c **** #else /* LWIP_MULTICAST_TX_OPTIONS */
 836:Source\LwIP\src\core/udp.c ****   ttl = pcb->ttl;
 837:Source\LwIP\src\core/udp.c **** #endif /* LWIP_MULTICAST_TX_OPTIONS */
 838:Source\LwIP\src\core/udp.c **** 
 839:Source\LwIP\src\core/udp.c ****   LWIP_DEBUGF(UDP_DEBUG, ("udp_send: UDP checksum 0x%04"X16_F"\n", udphdr->chksum));
 840:Source\LwIP\src\core/udp.c ****   LWIP_DEBUGF(UDP_DEBUG, ("udp_send: ip_output_if (,,,,0x%02"X16_F",)\n", (u16_t)ip_proto));
 841:Source\LwIP\src\core/udp.c ****   /* output to IP */
 842:Source\LwIP\src\core/udp.c ****   NETIF_SET_HWADDRHINT(netif, &(pcb->addr_hint));
 843:Source\LwIP\src\core/udp.c ****   err = ip_output_if_src(q, src_ip, dst_ip, ttl, pcb->tos, ip_proto, netif);
 844:Source\LwIP\src\core/udp.c ****   NETIF_SET_HWADDRHINT(netif, NULL);
 845:Source\LwIP\src\core/udp.c **** 
 846:Source\LwIP\src\core/udp.c ****   /* @todo: must this be increased even if error occurred? */
 847:Source\LwIP\src\core/udp.c ****   MIB2_STATS_INC(mib2.udpoutdatagrams);
 848:Source\LwIP\src\core/udp.c **** 
 849:Source\LwIP\src\core/udp.c ****   /* did we chain a separate header pbuf earlier? */
 850:Source\LwIP\src\core/udp.c ****   if (q != p) {
 851:Source\LwIP\src\core/udp.c ****     /* free the header pbuf */
 852:Source\LwIP\src\core/udp.c ****     pbuf_free(q);
 853:Source\LwIP\src\core/udp.c ****     q = NULL;
 854:Source\LwIP\src\core/udp.c ****     /* p is still referenced by the caller, and will live on */
 855:Source\LwIP\src\core/udp.c ****   }
 856:Source\LwIP\src\core/udp.c **** 
 857:Source\LwIP\src\core/udp.c ****   UDP_STATS_INC(udp.xmit);
 858:Source\LwIP\src\core/udp.c ****   return err;
 859:Source\LwIP\src\core/udp.c **** }
 860:Source\LwIP\src\core/udp.c **** 
 861:Source\LwIP\src\core/udp.c **** /**
 862:Source\LwIP\src\core/udp.c ****  * @ingroup udp_raw
 863:Source\LwIP\src\core/udp.c ****  * Bind an UDP PCB.
ARM GAS  C:\Users\Phuong\AppData\Local\Temp\cc08x83E.s 			page 28


 864:Source\LwIP\src\core/udp.c ****  *
 865:Source\LwIP\src\core/udp.c ****  * @param pcb UDP PCB to be bound with a local address ipaddr and port.
 866:Source\LwIP\src\core/udp.c ****  * @param ipaddr local IP address to bind with. Use IP4_ADDR_ANY to
 867:Source\LwIP\src\core/udp.c ****  * bind to all local interfaces.
 868:Source\LwIP\src\core/udp.c ****  * @param port local UDP port to bind with. Use 0 to automatically bind
 869:Source\LwIP\src\core/udp.c ****  * to a random port between UDP_LOCAL_PORT_RANGE_START and
 870:Source\LwIP\src\core/udp.c ****  * UDP_LOCAL_PORT_RANGE_END.
 871:Source\LwIP\src\core/udp.c ****  *
 872:Source\LwIP\src\core/udp.c ****  * ipaddr & port are expected to be in the same byte order as in the pcb.
 873:Source\LwIP\src\core/udp.c ****  *
 874:Source\LwIP\src\core/udp.c ****  * @return lwIP error code.
 875:Source\LwIP\src\core/udp.c ****  * - ERR_OK. Successful. No error occurred.
 876:Source\LwIP\src\core/udp.c ****  * - ERR_USE. The specified ipaddr and port are already bound to by
 877:Source\LwIP\src\core/udp.c ****  * another UDP PCB.
 878:Source\LwIP\src\core/udp.c ****  *
 879:Source\LwIP\src\core/udp.c ****  * @see udp_disconnect()
 880:Source\LwIP\src\core/udp.c ****  */
 881:Source\LwIP\src\core/udp.c **** err_t
 882:Source\LwIP\src\core/udp.c **** udp_bind(struct udp_pcb *pcb, const ip_addr_t *ipaddr, u16_t port)
 883:Source\LwIP\src\core/udp.c **** {
 656              		.loc 1 883 0
 657              		.cfi_startproc
 658              		@ args = 0, pretend = 0, frame = 0
 659              		@ frame_needed = 0, uses_anonymous_args = 0
 660              	.LVL79:
 661 0000 70B5     		push	{r4, r5, r6, lr}
 662              		.cfi_def_cfa_offset 16
 663              		.cfi_offset 4, -16
 664              		.cfi_offset 5, -12
 665              		.cfi_offset 6, -8
 666              		.cfi_offset 14, -4
 667 0002 0400     		movs	r4, r0
 668 0004 0D1E     		subs	r5, r1, #0
 884:Source\LwIP\src\core/udp.c ****   struct udp_pcb *ipcb;
 885:Source\LwIP\src\core/udp.c ****   u8_t rebind;
 886:Source\LwIP\src\core/udp.c **** 
 887:Source\LwIP\src\core/udp.c **** #if LWIP_IPV4
 888:Source\LwIP\src\core/udp.c ****   /* Don't propagate NULL pointer (IPv4 ANY) to subsequent functions */
 889:Source\LwIP\src\core/udp.c ****   if (ipaddr == NULL) {
 669              		.loc 1 889 0
 670 0006 00D1     		bne	.L52
 890:Source\LwIP\src\core/udp.c ****     ipaddr = IP4_ADDR_ANY;
 671              		.loc 1 890 0
 672 0008 234D     		ldr	r5, .L71
 673              	.L52:
 674              	.LVL80:
 891:Source\LwIP\src\core/udp.c ****   }
 892:Source\LwIP\src\core/udp.c **** #endif /* LWIP_IPV4 */
 893:Source\LwIP\src\core/udp.c **** 
 894:Source\LwIP\src\core/udp.c ****   /* still need to check for ipaddr == NULL in IPv6 only case */
 895:Source\LwIP\src\core/udp.c ****   if ((pcb == NULL) || (ipaddr == NULL)) {
 675              		.loc 1 895 0
 676 000a 002C     		cmp	r4, #0
 677 000c 35D0     		beq	.L64
 678              		.loc 1 895 0 is_stmt 0 discriminator 1
 679 000e 002D     		cmp	r5, #0
 680 0010 36D0     		beq	.L65
ARM GAS  C:\Users\Phuong\AppData\Local\Temp\cc08x83E.s 			page 29


 681              	.LVL81:
 896:Source\LwIP\src\core/udp.c ****     return ERR_VAL;
 897:Source\LwIP\src\core/udp.c ****   }
 898:Source\LwIP\src\core/udp.c **** 
 899:Source\LwIP\src\core/udp.c ****   LWIP_DEBUGF(UDP_DEBUG | LWIP_DBG_TRACE, ("udp_bind(ipaddr = "));
 900:Source\LwIP\src\core/udp.c ****   ip_addr_debug_print(UDP_DEBUG | LWIP_DBG_TRACE, ipaddr);
 901:Source\LwIP\src\core/udp.c ****   LWIP_DEBUGF(UDP_DEBUG | LWIP_DBG_TRACE, (", port = %"U16_F")\n", port));
 902:Source\LwIP\src\core/udp.c **** 
 903:Source\LwIP\src\core/udp.c ****   rebind = 0;
 904:Source\LwIP\src\core/udp.c ****   /* Check for double bind and rebind of the same pcb */
 905:Source\LwIP\src\core/udp.c ****   for (ipcb = udp_pcbs; ipcb != NULL; ipcb = ipcb->next) {
 682              		.loc 1 905 0 is_stmt 1
 683 0012 224B     		ldr	r3, .L71+4
 684 0014 1B68     		ldr	r3, [r3]
 685              	.LVL82:
 686 0016 1900     		movs	r1, r3
 687 0018 02E0     		b	.L54
 688              	.LVL83:
 689              	.L56:
 906:Source\LwIP\src\core/udp.c ****     /* is this UDP PCB already on active list? */
 907:Source\LwIP\src\core/udp.c ****     if (pcb == ipcb) {
 690              		.loc 1 907 0
 691 001a A142     		cmp	r1, r4
 692 001c 04D0     		beq	.L66
 905:Source\LwIP\src\core/udp.c ****     /* is this UDP PCB already on active list? */
 693              		.loc 1 905 0 discriminator 2
 694 001e C968     		ldr	r1, [r1, #12]
 695              	.LVL84:
 696              	.L54:
 905:Source\LwIP\src\core/udp.c ****     /* is this UDP PCB already on active list? */
 697              		.loc 1 905 0 is_stmt 0 discriminator 1
 698 0020 0029     		cmp	r1, #0
 699 0022 FAD1     		bne	.L56
 903:Source\LwIP\src\core/udp.c ****   /* Check for double bind and rebind of the same pcb */
 700              		.loc 1 903 0 is_stmt 1
 701 0024 0026     		movs	r6, #0
 702 0026 00E0     		b	.L55
 703              	.L66:
 908:Source\LwIP\src\core/udp.c ****       rebind = 1;
 704              		.loc 1 908 0
 705 0028 0126     		movs	r6, #1
 706              	.L55:
 707              	.LVL85:
 909:Source\LwIP\src\core/udp.c ****       break;
 910:Source\LwIP\src\core/udp.c ****     }
 911:Source\LwIP\src\core/udp.c ****   }
 912:Source\LwIP\src\core/udp.c **** 
 913:Source\LwIP\src\core/udp.c ****   /* no port specified? */
 914:Source\LwIP\src\core/udp.c ****   if (port == 0) {
 708              		.loc 1 914 0
 709 002a 002A     		cmp	r2, #0
 710 002c 14D1     		bne	.L57
 915:Source\LwIP\src\core/udp.c ****     port = udp_new_port();
 711              		.loc 1 915 0
 712 002e FFF7FEFF 		bl	udp_new_port
 713              	.LVL86:
 714 0032 021E     		subs	r2, r0, #0
ARM GAS  C:\Users\Phuong\AppData\Local\Temp\cc08x83E.s 			page 30


 715              	.LVL87:
 916:Source\LwIP\src\core/udp.c ****     if (port == 0) {
 716              		.loc 1 916 0
 717 0034 12D1     		bne	.L58
 718 0036 26E0     		b	.L67
 719              	.LVL88:
 720              	.L61:
 917:Source\LwIP\src\core/udp.c ****       /* no more ports available in local range */
 918:Source\LwIP\src\core/udp.c ****       LWIP_DEBUGF(UDP_DEBUG, ("udp_bind: out of free UDP ports\n"));
 919:Source\LwIP\src\core/udp.c ****       return ERR_USE;
 920:Source\LwIP\src\core/udp.c ****     }
 921:Source\LwIP\src\core/udp.c ****   } else {
 922:Source\LwIP\src\core/udp.c ****     for (ipcb = udp_pcbs; ipcb != NULL; ipcb = ipcb->next) {
 923:Source\LwIP\src\core/udp.c ****       if (pcb != ipcb) {
 721              		.loc 1 923 0
 722 0038 A342     		cmp	r3, r4
 723 003a 0CD0     		beq	.L59
 924:Source\LwIP\src\core/udp.c ****       /* By default, we don't allow to bind to a port that any other udp
 925:Source\LwIP\src\core/udp.c ****          PCB is already bound to, unless *all* PCBs with that port have tha
 926:Source\LwIP\src\core/udp.c ****          REUSEADDR flag set. */
 927:Source\LwIP\src\core/udp.c **** #if SO_REUSE
 928:Source\LwIP\src\core/udp.c ****         if (!ip_get_option(pcb, SOF_REUSEADDR) ||
 724              		.loc 1 928 0
 725 003c 217A     		ldrb	r1, [r4, #8]
 726 003e 4907     		lsls	r1, r1, #29
 727 0040 02D5     		bpl	.L60
 929:Source\LwIP\src\core/udp.c ****             !ip_get_option(ipcb, SOF_REUSEADDR))
 728              		.loc 1 929 0 discriminator 1
 729 0042 197A     		ldrb	r1, [r3, #8]
 928:Source\LwIP\src\core/udp.c ****             !ip_get_option(ipcb, SOF_REUSEADDR))
 730              		.loc 1 928 0 discriminator 1
 731 0044 4907     		lsls	r1, r1, #29
 732 0046 06D4     		bmi	.L59
 733              	.L60:
 930:Source\LwIP\src\core/udp.c **** #endif /* SO_REUSE */
 931:Source\LwIP\src\core/udp.c ****         {
 932:Source\LwIP\src\core/udp.c ****           /* port matches that of PCB in list and REUSEADDR not set -> reject */
 933:Source\LwIP\src\core/udp.c ****           if ((ipcb->local_port == port) &&
 734              		.loc 1 933 0
 735 0048 598A     		ldrh	r1, [r3, #18]
 736 004a 8A42     		cmp	r2, r1
 737 004c 03D1     		bne	.L59
 738              		.loc 1 933 0 is_stmt 0 discriminator 1
 739 004e 1968     		ldr	r1, [r3]
 740 0050 2868     		ldr	r0, [r5]
 741 0052 8142     		cmp	r1, r0
 742 0054 1AD0     		beq	.L68
 743              	.L59:
 922:Source\LwIP\src\core/udp.c ****       if (pcb != ipcb) {
 744              		.loc 1 922 0 is_stmt 1 discriminator 2
 745 0056 DB68     		ldr	r3, [r3, #12]
 746              	.LVL89:
 747              	.L57:
 922:Source\LwIP\src\core/udp.c ****       if (pcb != ipcb) {
 748              		.loc 1 922 0 is_stmt 0 discriminator 1
 749 0058 002B     		cmp	r3, #0
 750 005a EDD1     		bne	.L61
ARM GAS  C:\Users\Phuong\AppData\Local\Temp\cc08x83E.s 			page 31


 751              	.LVL90:
 752              	.L58:
 934:Source\LwIP\src\core/udp.c ****               /* IP address matches? */
 935:Source\LwIP\src\core/udp.c ****               ip_addr_cmp(&ipcb->local_ip, ipaddr)) {
 936:Source\LwIP\src\core/udp.c ****             /* other PCB already binds to this local IP and port */
 937:Source\LwIP\src\core/udp.c ****             LWIP_DEBUGF(UDP_DEBUG,
 938:Source\LwIP\src\core/udp.c ****                         ("udp_bind: local port %"U16_F" already bound by another pcb\n", port));
 939:Source\LwIP\src\core/udp.c ****             return ERR_USE;
 940:Source\LwIP\src\core/udp.c ****           }
 941:Source\LwIP\src\core/udp.c ****         }
 942:Source\LwIP\src\core/udp.c ****       }
 943:Source\LwIP\src\core/udp.c ****     }
 944:Source\LwIP\src\core/udp.c ****   }
 945:Source\LwIP\src\core/udp.c **** 
 946:Source\LwIP\src\core/udp.c ****   ip_addr_set_ipaddr(&pcb->local_ip, ipaddr);
 753              		.loc 1 946 0 is_stmt 1
 754 005c 002D     		cmp	r5, #0
 755 005e 01D0     		beq	.L69
 756              		.loc 1 946 0 is_stmt 0 discriminator 1
 757 0060 2B68     		ldr	r3, [r5]
 758 0062 00E0     		b	.L62
 759              	.L69:
 760              		.loc 1 946 0
 761 0064 0023     		movs	r3, #0
 762              	.L62:
 763              		.loc 1 946 0 discriminator 4
 764 0066 2360     		str	r3, [r4]
 947:Source\LwIP\src\core/udp.c **** 
 948:Source\LwIP\src\core/udp.c ****   pcb->local_port = port;
 765              		.loc 1 948 0 is_stmt 1 discriminator 4
 766 0068 6282     		strh	r2, [r4, #18]
 949:Source\LwIP\src\core/udp.c ****   mib2_udp_bind(pcb);
 950:Source\LwIP\src\core/udp.c ****   /* pcb not active yet? */
 951:Source\LwIP\src\core/udp.c ****   if (rebind == 0) {
 767              		.loc 1 951 0 discriminator 4
 768 006a 002E     		cmp	r6, #0
 769 006c 11D1     		bne	.L70
 952:Source\LwIP\src\core/udp.c ****     /* place the PCB on the active list if not already there */
 953:Source\LwIP\src\core/udp.c ****     pcb->next = udp_pcbs;
 770              		.loc 1 953 0
 771 006e 0B4B     		ldr	r3, .L71+4
 772 0070 1A68     		ldr	r2, [r3]
 773              	.LVL91:
 774 0072 E260     		str	r2, [r4, #12]
 954:Source\LwIP\src\core/udp.c ****     udp_pcbs = pcb;
 775              		.loc 1 954 0
 776 0074 1C60     		str	r4, [r3]
 955:Source\LwIP\src\core/udp.c ****   }
 956:Source\LwIP\src\core/udp.c ****   LWIP_DEBUGF(UDP_DEBUG | LWIP_DBG_TRACE | LWIP_DBG_STATE, ("udp_bind: bound to "));
 957:Source\LwIP\src\core/udp.c ****   ip_addr_debug_print(UDP_DEBUG | LWIP_DBG_TRACE | LWIP_DBG_STATE, &pcb->local_ip);
 958:Source\LwIP\src\core/udp.c ****   LWIP_DEBUGF(UDP_DEBUG | LWIP_DBG_TRACE | LWIP_DBG_STATE, (", port %"U16_F")\n", pcb->local_port))
 959:Source\LwIP\src\core/udp.c ****   return ERR_OK;
 777              		.loc 1 959 0
 778 0076 0020     		movs	r0, #0
 779 0078 0CE0     		b	.L53
 780              	.LVL92:
 781              	.L64:
ARM GAS  C:\Users\Phuong\AppData\Local\Temp\cc08x83E.s 			page 32


 896:Source\LwIP\src\core/udp.c ****   }
 782              		.loc 1 896 0
 783 007a 0620     		movs	r0, #6
 784              	.LVL93:
 785 007c 4042     		rsbs	r0, r0, #0
 786 007e 09E0     		b	.L53
 787              	.LVL94:
 788              	.L65:
 789 0080 0620     		movs	r0, #6
 790              	.LVL95:
 791 0082 4042     		rsbs	r0, r0, #0
 792 0084 06E0     		b	.L53
 793              	.LVL96:
 794              	.L67:
 919:Source\LwIP\src\core/udp.c ****     }
 795              		.loc 1 919 0
 796 0086 0820     		movs	r0, #8
 797              	.LVL97:
 798 0088 4042     		rsbs	r0, r0, #0
 799 008a 03E0     		b	.L53
 800              	.LVL98:
 801              	.L68:
 939:Source\LwIP\src\core/udp.c ****           }
 802              		.loc 1 939 0
 803 008c 0820     		movs	r0, #8
 804 008e 4042     		rsbs	r0, r0, #0
 805 0090 00E0     		b	.L53
 806              	.LVL99:
 807              	.L70:
 808              		.loc 1 959 0
 809 0092 0020     		movs	r0, #0
 810              	.LVL100:
 811              	.L53:
 960:Source\LwIP\src\core/udp.c **** }
 812              		.loc 1 960 0
 813              		@ sp needed
 814              	.LVL101:
 815              	.LVL102:
 816 0094 70BD     		pop	{r4, r5, r6, pc}
 817              	.L72:
 818 0096 C046     		.align	2
 819              	.L71:
 820 0098 00000000 		.word	ip_addr_any
 821 009c 00000000 		.word	udp_pcbs
 822              		.cfi_endproc
 823              	.LFE61:
 824              		.size	udp_bind, .-udp_bind
 825              		.section	.text.udp_sendto_if_src,"ax",%progbits
 826              		.align	2
 827              		.global	udp_sendto_if_src
 828              		.code	16
 829              		.thumb_func
 830              		.type	udp_sendto_if_src, %function
 831              	udp_sendto_if_src:
 832              	.LFB60:
 663:Source\LwIP\src\core/udp.c **** #if LWIP_CHECKSUM_ON_COPY && CHECKSUM_GEN_UDP
 833              		.loc 1 663 0
ARM GAS  C:\Users\Phuong\AppData\Local\Temp\cc08x83E.s 			page 33


 834              		.cfi_startproc
 835              		@ args = 8, pretend = 0, frame = 8
 836              		@ frame_needed = 0, uses_anonymous_args = 0
 837              	.LVL103:
 838 0000 F0B5     		push	{r4, r5, r6, r7, lr}
 839              		.cfi_def_cfa_offset 20
 840              		.cfi_offset 4, -20
 841              		.cfi_offset 5, -16
 842              		.cfi_offset 6, -12
 843              		.cfi_offset 7, -8
 844              		.cfi_offset 14, -4
 845 0002 87B0     		sub	sp, sp, #28
 846              		.cfi_def_cfa_offset 48
 847 0004 0400     		movs	r4, r0
 848 0006 0491     		str	r1, [sp, #16]
 849 0008 1600     		movs	r6, r2
 850 000a 0593     		str	r3, [sp, #20]
 681:Source\LwIP\src\core/udp.c ****       !IP_ADDR_PCB_VERSION_MATCH(pcb, dst_ip)) {
 851              		.loc 1 681 0
 852 000c 0028     		cmp	r0, #0
 853 000e 72D0     		beq	.L83
 681:Source\LwIP\src\core/udp.c ****       !IP_ADDR_PCB_VERSION_MATCH(pcb, dst_ip)) {
 854              		.loc 1 681 0 is_stmt 0 discriminator 1
 855 0010 002A     		cmp	r2, #0
 856 0012 73D0     		beq	.L84
 700:Source\LwIP\src\core/udp.c ****     LWIP_DEBUGF(UDP_DEBUG | LWIP_DBG_TRACE, ("udp_send: not yet bound to a port, binding now\n"));
 857              		.loc 1 700 0 is_stmt 1
 858 0014 428A     		ldrh	r2, [r0, #18]
 859              	.LVL104:
 860 0016 002A     		cmp	r2, #0
 861 0018 04D1     		bne	.L75
 702:Source\LwIP\src\core/udp.c ****     if (err != ERR_OK) {
 862              		.loc 1 702 0
 863 001a 0100     		movs	r1, r0
 864              	.LVL105:
 865 001c FFF7FEFF 		bl	udp_bind
 866              	.LVL106:
 703:Source\LwIP\src\core/udp.c ****       LWIP_DEBUGF(UDP_DEBUG | LWIP_DBG_TRACE | LWIP_DBG_LEVEL_SERIOUS, ("udp_send: forced port bind
 867              		.loc 1 703 0
 868 0020 0028     		cmp	r0, #0
 869 0022 70D1     		bne	.L74
 870              	.LVL107:
 871              	.L75:
 710:Source\LwIP\src\core/udp.c ****     /* allocate header in a separate new pbuf */
 872              		.loc 1 710 0
 873 0024 0821     		movs	r1, #8
 874 0026 049D     		ldr	r5, [sp, #16]
 875 0028 2800     		movs	r0, r5
 876 002a FFF7FEFF 		bl	pbuf_header
 877              	.LVL108:
 878 002e 0028     		cmp	r0, #0
 879 0030 0DD0     		beq	.L86
 712:Source\LwIP\src\core/udp.c ****     /* new header pbuf could not be allocated? */
 880              		.loc 1 712 0
 881 0032 0022     		movs	r2, #0
 882 0034 0821     		movs	r1, #8
 883 0036 0120     		movs	r0, #1
ARM GAS  C:\Users\Phuong\AppData\Local\Temp\cc08x83E.s 			page 34


 884 0038 FFF7FEFF 		bl	pbuf_alloc
 885              	.LVL109:
 886 003c 071E     		subs	r7, r0, #0
 887              	.LVL110:
 714:Source\LwIP\src\core/udp.c ****       LWIP_DEBUGF(UDP_DEBUG | LWIP_DBG_TRACE | LWIP_DBG_LEVEL_SERIOUS, ("udp_send: could not alloca
 888              		.loc 1 714 0
 889 003e 60D0     		beq	.L87
 718:Source\LwIP\src\core/udp.c ****       /* chain header q in front of given pbuf p (only if p contains data) */
 890              		.loc 1 718 0
 891 0040 2B89     		ldrh	r3, [r5, #8]
 892 0042 002B     		cmp	r3, #0
 893 0044 04D0     		beq	.L76
 720:Source\LwIP\src\core/udp.c ****     }
 894              		.loc 1 720 0
 895 0046 0499     		ldr	r1, [sp, #16]
 896 0048 FFF7FEFF 		bl	pbuf_chain
 897              	.LVL111:
 898 004c 00E0     		b	.L76
 899              	.LVL112:
 900              	.L86:
 728:Source\LwIP\src\core/udp.c ****     LWIP_DEBUGF(UDP_DEBUG, ("udp_send: added header in given pbuf %p\n", (void *)p));
 901              		.loc 1 728 0
 902 004e 049F     		ldr	r7, [sp, #16]
 903              	.L76:
 904              	.LVL113:
 734:Source\LwIP\src\core/udp.c ****   udphdr->src = lwip_htons(pcb->local_port);
 905              		.loc 1 734 0
 906 0050 7D68     		ldr	r5, [r7, #4]
 907              	.LVL114:
 735:Source\LwIP\src\core/udp.c ****   udphdr->dest = lwip_htons(dst_port);
 908              		.loc 1 735 0
 909 0052 608A     		ldrh	r0, [r4, #18]
 910 0054 FFF7FEFF 		bl	lwip_htons
 911              	.LVL115:
 912 0058 2870     		strb	r0, [r5]
 913 005a 000A     		lsrs	r0, r0, #8
 914 005c 6870     		strb	r0, [r5, #1]
 736:Source\LwIP\src\core/udp.c ****   /* in UDP, 0 checksum means 'no checksum' */
 915              		.loc 1 736 0
 916 005e 0598     		ldr	r0, [sp, #20]
 917 0060 FFF7FEFF 		bl	lwip_htons
 918              	.LVL116:
 919 0064 A870     		strb	r0, [r5, #2]
 920 0066 000A     		lsrs	r0, r0, #8
 921 0068 E870     		strb	r0, [r5, #3]
 738:Source\LwIP\src\core/udp.c **** 
 922              		.loc 1 738 0
 923 006a 0023     		movs	r3, #0
 924 006c AB71     		strb	r3, [r5, #6]
 925 006e EB71     		strb	r3, [r5, #7]
 742:Source\LwIP\src\core/udp.c ****     q->flags |= PBUF_FLAG_MCASTLOOP;
 926              		.loc 1 742 0
 927 0070 237C     		ldrb	r3, [r4, #16]
 928 0072 1B07     		lsls	r3, r3, #28
 929 0074 08D5     		bpl	.L77
 742:Source\LwIP\src\core/udp.c ****     q->flags |= PBUF_FLAG_MCASTLOOP;
 930              		.loc 1 742 0 is_stmt 0 discriminator 1
ARM GAS  C:\Users\Phuong\AppData\Local\Temp\cc08x83E.s 			page 35


 931 0076 F023     		movs	r3, #240
 932 0078 3268     		ldr	r2, [r6]
 933 007a 1340     		ands	r3, r2
 934 007c E02B     		cmp	r3, #224
 935 007e 03D1     		bne	.L77
 743:Source\LwIP\src\core/udp.c ****   }
 936              		.loc 1 743 0 is_stmt 1
 937 0080 7A7B     		ldrb	r2, [r7, #13]
 938 0082 0423     		movs	r3, #4
 939 0084 1343     		orrs	r3, r2
 940 0086 7B73     		strb	r3, [r7, #13]
 941              	.L77:
 800:Source\LwIP\src\core/udp.c ****     /* calculate checksum */
 942              		.loc 1 800 0
 943 0088 3889     		ldrh	r0, [r7, #8]
 944 008a FFF7FEFF 		bl	lwip_htons
 945              	.LVL117:
 946 008e 2871     		strb	r0, [r5, #4]
 947 0090 000A     		lsrs	r0, r0, #8
 948 0092 6871     		strb	r0, [r5, #5]
 805:Source\LwIP\src\core/udp.c ****         u16_t udpchksum;
 949              		.loc 1 805 0
 950 0094 237C     		ldrb	r3, [r4, #16]
 951 0096 DB07     		lsls	r3, r3, #31
 952 0098 0CD4     		bmi	.L78
 953              	.LBB2:
 817:Source\LwIP\src\core/udp.c ****             src_ip, dst_ip);
 954              		.loc 1 817 0
 955 009a 3A89     		ldrh	r2, [r7, #8]
 956 009c 0096     		str	r6, [sp]
 957 009e 0D9B     		ldr	r3, [sp, #52]
 958 00a0 1121     		movs	r1, #17
 959 00a2 3800     		movs	r0, r7
 960 00a4 FFF7FEFF 		bl	ip_chksum_pseudo
 961              	.LVL118:
 822:Source\LwIP\src\core/udp.c ****           udpchksum = 0xffff;
 962              		.loc 1 822 0
 963 00a8 0028     		cmp	r0, #0
 964 00aa 00D1     		bne	.L79
 823:Source\LwIP\src\core/udp.c ****         }
 965              		.loc 1 823 0
 966 00ac 1748     		ldr	r0, .L89
 967              	.LVL119:
 968              	.L79:
 825:Source\LwIP\src\core/udp.c ****       }
 969              		.loc 1 825 0
 970 00ae A871     		strb	r0, [r5, #6]
 971 00b0 000A     		lsrs	r0, r0, #8
 972              	.LVL120:
 973 00b2 E871     		strb	r0, [r5, #7]
 974              	.L78:
 975              	.LVL121:
 976              	.LBE2:
 834:Source\LwIP\src\core/udp.c **** #else /* LWIP_MULTICAST_TX_OPTIONS */
 977              		.loc 1 834 0
 978 00b4 F023     		movs	r3, #240
 979 00b6 3268     		ldr	r2, [r6]
ARM GAS  C:\Users\Phuong\AppData\Local\Temp\cc08x83E.s 			page 36


 980 00b8 1340     		ands	r3, r2
 981 00ba E02B     		cmp	r3, #224
 982 00bc 01D1     		bne	.L80
 834:Source\LwIP\src\core/udp.c **** #else /* LWIP_MULTICAST_TX_OPTIONS */
 983              		.loc 1 834 0 is_stmt 0 discriminator 1
 984 00be 237F     		ldrb	r3, [r4, #28]
 985 00c0 00E0     		b	.L81
 986              	.L80:
 834:Source\LwIP\src\core/udp.c **** #else /* LWIP_MULTICAST_TX_OPTIONS */
 987              		.loc 1 834 0 discriminator 2
 988 00c2 A37A     		ldrb	r3, [r4, #10]
 989              	.L81:
 990              	.LVL122:
 843:Source\LwIP\src\core/udp.c ****   NETIF_SET_HWADDRHINT(netif, NULL);
 991              		.loc 1 843 0 is_stmt 1 discriminator 4
 992 00c4 627A     		ldrb	r2, [r4, #9]
 993 00c6 0C99     		ldr	r1, [sp, #48]
 994 00c8 0291     		str	r1, [sp, #8]
 995 00ca 1121     		movs	r1, #17
 996 00cc 0191     		str	r1, [sp, #4]
 997 00ce 0092     		str	r2, [sp]
 998 00d0 3200     		movs	r2, r6
 999 00d2 0D99     		ldr	r1, [sp, #52]
 1000 00d4 3800     		movs	r0, r7
 1001 00d6 FFF7FEFF 		bl	ip4_output_if_src
 1002              	.LVL123:
 1003 00da 0400     		movs	r4, r0
 1004              	.LVL124:
 850:Source\LwIP\src\core/udp.c ****     /* free the header pbuf */
 1005              		.loc 1 850 0 discriminator 4
 1006 00dc 049B     		ldr	r3, [sp, #16]
 1007 00de 9F42     		cmp	r7, r3
 1008 00e0 02D0     		beq	.L82
 852:Source\LwIP\src\core/udp.c ****     q = NULL;
 1009              		.loc 1 852 0
 1010 00e2 3800     		movs	r0, r7
 1011 00e4 FFF7FEFF 		bl	pbuf_free
 1012              	.LVL125:
 1013              	.L82:
 857:Source\LwIP\src\core/udp.c ****   return err;
 1014              		.loc 1 857 0
 1015 00e8 0949     		ldr	r1, .L89+4
 1016 00ea 9422     		movs	r2, #148
 1017 00ec 8B5A     		ldrh	r3, [r1, r2]
 1018 00ee 0133     		adds	r3, r3, #1
 1019 00f0 8B52     		strh	r3, [r1, r2]
 858:Source\LwIP\src\core/udp.c **** }
 1020              		.loc 1 858 0
 1021 00f2 2000     		movs	r0, r4
 1022 00f4 07E0     		b	.L74
 1023              	.LVL126:
 1024              	.L83:
 683:Source\LwIP\src\core/udp.c ****   }
 1025              		.loc 1 683 0
 1026 00f6 0620     		movs	r0, #6
 1027              	.LVL127:
 1028 00f8 4042     		rsbs	r0, r0, #0
ARM GAS  C:\Users\Phuong\AppData\Local\Temp\cc08x83E.s 			page 37


 1029 00fa 04E0     		b	.L74
 1030              	.LVL128:
 1031              	.L84:
 1032 00fc 0620     		movs	r0, #6
 1033              	.LVL129:
 1034 00fe 4042     		rsbs	r0, r0, #0
 1035 0100 01E0     		b	.L74
 1036              	.LVL130:
 1037              	.L87:
 716:Source\LwIP\src\core/udp.c ****     }
 1038              		.loc 1 716 0
 1039 0102 0120     		movs	r0, #1
 1040              	.LVL131:
 1041 0104 4042     		rsbs	r0, r0, #0
 1042              	.LVL132:
 1043              	.L74:
 859:Source\LwIP\src\core/udp.c **** 
 1044              		.loc 1 859 0
 1045 0106 07B0     		add	sp, sp, #28
 1046              		@ sp needed
 1047              	.LVL133:
 1048 0108 F0BD     		pop	{r4, r5, r6, r7, pc}
 1049              	.L90:
 1050 010a C046     		.align	2
 1051              	.L89:
 1052 010c FFFF0000 		.word	65535
 1053 0110 00000000 		.word	lwip_stats
 1054              		.cfi_endproc
 1055              	.LFE60:
 1056              		.size	udp_sendto_if_src, .-udp_sendto_if_src
 1057              		.section	.text.udp_sendto_if,"ax",%progbits
 1058              		.align	2
 1059              		.global	udp_sendto_if
 1060              		.code	16
 1061              		.thumb_func
 1062              		.type	udp_sendto_if, %function
 1063              	udp_sendto_if:
 1064              	.LFB59:
 594:Source\LwIP\src\core/udp.c **** #if LWIP_CHECKSUM_ON_COPY && CHECKSUM_GEN_UDP
 1065              		.loc 1 594 0
 1066              		.cfi_startproc
 1067              		@ args = 4, pretend = 0, frame = 0
 1068              		@ frame_needed = 0, uses_anonymous_args = 0
 1069              	.LVL134:
 1070 0000 F0B5     		push	{r4, r5, r6, r7, lr}
 1071              		.cfi_def_cfa_offset 20
 1072              		.cfi_offset 4, -20
 1073              		.cfi_offset 5, -16
 1074              		.cfi_offset 6, -12
 1075              		.cfi_offset 7, -8
 1076              		.cfi_offset 14, -4
 1077 0002 83B0     		sub	sp, sp, #12
 1078              		.cfi_def_cfa_offset 32
 1079 0004 089C     		ldr	r4, [sp, #32]
 608:Source\LwIP\src\core/udp.c ****     return ERR_VAL;
 1080              		.loc 1 608 0
 1081 0006 0028     		cmp	r0, #0
ARM GAS  C:\Users\Phuong\AppData\Local\Temp\cc08x83E.s 			page 38


 1082 0008 14D0     		beq	.L96
 608:Source\LwIP\src\core/udp.c ****     return ERR_VAL;
 1083              		.loc 1 608 0 is_stmt 0 discriminator 1
 1084 000a 002A     		cmp	r2, #0
 1085 000c 15D0     		beq	.L97
 635:Source\LwIP\src\core/udp.c ****       ip4_addr_ismulticast(ip_2_ip4(&pcb->local_ip))) {
 1086              		.loc 1 635 0 is_stmt 1
 1087 000e 051E     		subs	r5, r0, #0
 1088 0010 06D0     		beq	.L93
 635:Source\LwIP\src\core/udp.c ****       ip4_addr_ismulticast(ip_2_ip4(&pcb->local_ip))) {
 1089              		.loc 1 635 0 is_stmt 0 discriminator 1
 1090 0012 0668     		ldr	r6, [r0]
 1091 0014 002E     		cmp	r6, #0
 1092 0016 03D0     		beq	.L93
 636:Source\LwIP\src\core/udp.c ****     /* if the local_ip is any or multicast
 1093              		.loc 1 636 0 is_stmt 1 discriminator 2
 1094 0018 F027     		movs	r7, #240
 1095 001a 3740     		ands	r7, r6
 635:Source\LwIP\src\core/udp.c ****       ip4_addr_ismulticast(ip_2_ip4(&pcb->local_ip))) {
 1096              		.loc 1 635 0 discriminator 2
 1097 001c E02F     		cmp	r7, #224
 1098 001e 01D1     		bne	.L94
 1099              	.L93:
 639:Source\LwIP\src\core/udp.c ****   } else {
 1100              		.loc 1 639 0
 1101 0020 251D     		adds	r5, r4, #4
 1102              	.LVL135:
 1103 0022 02E0     		b	.L95
 1104              	.LVL136:
 1105              	.L94:
 643:Source\LwIP\src\core/udp.c ****       /* local_ip doesn't match, drop the packet */
 1106              		.loc 1 643 0
 1107 0024 6768     		ldr	r7, [r4, #4]
 1108 0026 BE42     		cmp	r6, r7
 1109 0028 0AD1     		bne	.L98
 1110              	.L95:
 1111              	.LVL137:
 654:Source\LwIP\src\core/udp.c **** #endif /* LWIP_CHECKSUM_ON_COPY && CHECKSUM_GEN_UDP */
 1112              		.loc 1 654 0
 1113 002a 0195     		str	r5, [sp, #4]
 1114 002c 0094     		str	r4, [sp]
 1115 002e FFF7FEFF 		bl	udp_sendto_if_src
 1116              	.LVL138:
 1117 0032 07E0     		b	.L92
 1118              	.LVL139:
 1119              	.L96:
 609:Source\LwIP\src\core/udp.c ****   }
 1120              		.loc 1 609 0
 1121 0034 0620     		movs	r0, #6
 1122              	.LVL140:
 1123 0036 4042     		rsbs	r0, r0, #0
 1124 0038 04E0     		b	.L92
 1125              	.LVL141:
 1126              	.L97:
 1127 003a 0620     		movs	r0, #6
 1128              	.LVL142:
 1129 003c 4042     		rsbs	r0, r0, #0
ARM GAS  C:\Users\Phuong\AppData\Local\Temp\cc08x83E.s 			page 39


 1130 003e 01E0     		b	.L92
 1131              	.LVL143:
 1132              	.L98:
 645:Source\LwIP\src\core/udp.c ****     }
 1133              		.loc 1 645 0
 1134 0040 0420     		movs	r0, #4
 1135              	.LVL144:
 1136 0042 4042     		rsbs	r0, r0, #0
 1137              	.LVL145:
 1138              	.L92:
 656:Source\LwIP\src\core/udp.c **** 
 1139              		.loc 1 656 0
 1140 0044 03B0     		add	sp, sp, #12
 1141              		@ sp needed
 1142 0046 F0BD     		pop	{r4, r5, r6, r7, pc}
 1143              		.cfi_endproc
 1144              	.LFE59:
 1145              		.size	udp_sendto_if, .-udp_sendto_if
 1146              		.section	.text.udp_sendto,"ax",%progbits
 1147              		.align	2
 1148              		.global	udp_sendto
 1149              		.code	16
 1150              		.thumb_func
 1151              		.type	udp_sendto, %function
 1152              	udp_sendto:
 1153              	.LFB58:
 504:Source\LwIP\src\core/udp.c **** #if LWIP_CHECKSUM_ON_COPY && CHECKSUM_GEN_UDP
 1154              		.loc 1 504 0
 1155              		.cfi_startproc
 1156              		@ args = 0, pretend = 0, frame = 0
 1157              		@ frame_needed = 0, uses_anonymous_args = 0
 1158              	.LVL146:
 1159 0000 F0B5     		push	{r4, r5, r6, r7, lr}
 1160              		.cfi_def_cfa_offset 20
 1161              		.cfi_offset 4, -20
 1162              		.cfi_offset 5, -16
 1163              		.cfi_offset 6, -12
 1164              		.cfi_offset 7, -8
 1165              		.cfi_offset 14, -4
 1166 0002 83B0     		sub	sp, sp, #12
 1167              		.cfi_def_cfa_offset 32
 1168 0004 0700     		movs	r7, r0
 1169 0006 0D00     		movs	r5, r1
 1170 0008 1400     		movs	r4, r2
 1171 000a 1E00     		movs	r6, r3
 1172              	.LVL147:
 519:Source\LwIP\src\core/udp.c ****     return ERR_VAL;
 1173              		.loc 1 519 0
 1174 000c 0028     		cmp	r0, #0
 1175 000e 27D0     		beq	.L103
 519:Source\LwIP\src\core/udp.c ****     return ERR_VAL;
 1176              		.loc 1 519 0 is_stmt 0 discriminator 1
 1177 0010 002A     		cmp	r2, #0
 1178 0012 28D0     		beq	.L104
 526:Source\LwIP\src\core/udp.c **** #if LWIP_IPV6
 1179              		.loc 1 526 0 is_stmt 1
 1180 0014 F023     		movs	r3, #240
ARM GAS  C:\Users\Phuong\AppData\Local\Temp\cc08x83E.s 			page 40


 1181              	.LVL148:
 1182 0016 1268     		ldr	r2, [r2]
 1183              	.LVL149:
 1184 0018 1340     		ands	r3, r2
 1185 001a E02B     		cmp	r3, #224
 1186 001c 08D1     		bne	.L105
 539:Source\LwIP\src\core/udp.c ****           !ip4_addr_cmp(ip_2_ip4(&pcb->multicast_ip), IP4_ADDR_BROADCAST)) {
 1187              		.loc 1 539 0
 1188 001e 8369     		ldr	r3, [r0, #24]
 1189 0020 002B     		cmp	r3, #0
 1190 0022 07D0     		beq	.L106
 540:Source\LwIP\src\core/udp.c ****         dst_ip_route = &pcb->multicast_ip;
 1191              		.loc 1 540 0 discriminator 1
 1192 0024 124A     		ldr	r2, .L108
 1193 0026 1268     		ldr	r2, [r2]
 539:Source\LwIP\src\core/udp.c ****           !ip4_addr_cmp(ip_2_ip4(&pcb->multicast_ip), IP4_ADDR_BROADCAST)) {
 1194              		.loc 1 539 0 discriminator 1
 1195 0028 9342     		cmp	r3, r2
 1196 002a 05D0     		beq	.L107
 541:Source\LwIP\src\core/udp.c ****       }
 1197              		.loc 1 541 0
 1198 002c 1830     		adds	r0, r0, #24
 1199              	.LVL150:
 1200 002e 04E0     		b	.L101
 1201              	.LVL151:
 1202              	.L105:
 517:Source\LwIP\src\core/udp.c **** 
 1203              		.loc 1 517 0
 1204 0030 2000     		movs	r0, r4
 1205              	.LVL152:
 1206 0032 02E0     		b	.L101
 1207              	.LVL153:
 1208              	.L106:
 1209 0034 2000     		movs	r0, r4
 1210              	.LVL154:
 1211 0036 00E0     		b	.L101
 1212              	.LVL155:
 1213              	.L107:
 1214 0038 2000     		movs	r0, r4
 1215              	.LVL156:
 1216              	.L101:
 553:Source\LwIP\src\core/udp.c ****   }
 1217              		.loc 1 553 0
 1218 003a FFF7FEFF 		bl	ip4_route
 1219              	.LVL157:
 557:Source\LwIP\src\core/udp.c ****     LWIP_DEBUGF(UDP_DEBUG | LWIP_DBG_LEVEL_SERIOUS, ("udp_send: No route to "));
 1220              		.loc 1 557 0
 1221 003e 0028     		cmp	r0, #0
 1222 0040 06D1     		bne	.L102
 561:Source\LwIP\src\core/udp.c ****     return ERR_RTE;
 1223              		.loc 1 561 0
 1224 0042 0C49     		ldr	r1, .L108+4
 1225 0044 A222     		movs	r2, #162
 1226 0046 8B5A     		ldrh	r3, [r1, r2]
 1227 0048 0133     		adds	r3, r3, #1
 1228 004a 8B52     		strh	r3, [r1, r2]
 562:Source\LwIP\src\core/udp.c ****   }
ARM GAS  C:\Users\Phuong\AppData\Local\Temp\cc08x83E.s 			page 41


 1229              		.loc 1 562 0
 1230 004c 0438     		subs	r0, r0, #4
 1231              	.LVL158:
 1232 004e 0CE0     		b	.L100
 1233              	.LVL159:
 1234              	.L102:
 567:Source\LwIP\src\core/udp.c **** #endif /* LWIP_CHECKSUM_ON_COPY && CHECKSUM_GEN_UDP */
 1235              		.loc 1 567 0
 1236 0050 0090     		str	r0, [sp]
 1237 0052 3300     		movs	r3, r6
 1238 0054 2200     		movs	r2, r4
 1239 0056 2900     		movs	r1, r5
 1240 0058 3800     		movs	r0, r7
 1241              	.LVL160:
 1242 005a FFF7FEFF 		bl	udp_sendto_if
 1243              	.LVL161:
 1244 005e 04E0     		b	.L100
 1245              	.LVL162:
 1246              	.L103:
 520:Source\LwIP\src\core/udp.c ****   }
 1247              		.loc 1 520 0
 1248 0060 0620     		movs	r0, #6
 1249              	.LVL163:
 1250 0062 4042     		rsbs	r0, r0, #0
 1251 0064 01E0     		b	.L100
 1252              	.LVL164:
 1253              	.L104:
 1254 0066 0620     		movs	r0, #6
 1255              	.LVL165:
 1256 0068 4042     		rsbs	r0, r0, #0
 1257              	.LVL166:
 1258              	.L100:
 569:Source\LwIP\src\core/udp.c **** 
 1259              		.loc 1 569 0
 1260 006a 03B0     		add	sp, sp, #12
 1261              		@ sp needed
 1262              	.LVL167:
 1263              	.LVL168:
 1264              	.LVL169:
 1265 006c F0BD     		pop	{r4, r5, r6, r7, pc}
 1266              	.L109:
 1267 006e C046     		.align	2
 1268              	.L108:
 1269 0070 00000000 		.word	ip_addr_broadcast
 1270 0074 00000000 		.word	lwip_stats
 1271              		.cfi_endproc
 1272              	.LFE58:
 1273              		.size	udp_sendto, .-udp_sendto
 1274              		.section	.text.udp_send,"ax",%progbits
 1275              		.align	2
 1276              		.global	udp_send
 1277              		.code	16
 1278              		.thumb_func
 1279              		.type	udp_send, %function
 1280              	udp_send:
 1281              	.LFB57:
 456:Source\LwIP\src\core/udp.c ****   if ((pcb == NULL) || IP_IS_ANY_TYPE_VAL(pcb->remote_ip)) {
ARM GAS  C:\Users\Phuong\AppData\Local\Temp\cc08x83E.s 			page 42


 1282              		.loc 1 456 0
 1283              		.cfi_startproc
 1284              		@ args = 0, pretend = 0, frame = 0
 1285              		@ frame_needed = 0, uses_anonymous_args = 0
 1286              	.LVL170:
 1287 0000 10B5     		push	{r4, lr}
 1288              		.cfi_def_cfa_offset 8
 1289              		.cfi_offset 4, -8
 1290              		.cfi_offset 14, -4
 457:Source\LwIP\src\core/udp.c ****     return ERR_VAL;
 1291              		.loc 1 457 0
 1292 0002 0028     		cmp	r0, #0
 1293 0004 04D0     		beq	.L112
 462:Source\LwIP\src\core/udp.c **** }
 1294              		.loc 1 462 0
 1295 0006 021D     		adds	r2, r0, #4
 1296 0008 838A     		ldrh	r3, [r0, #20]
 1297 000a FFF7FEFF 		bl	udp_sendto
 1298              	.LVL171:
 1299 000e 01E0     		b	.L111
 1300              	.LVL172:
 1301              	.L112:
 458:Source\LwIP\src\core/udp.c ****   }
 1302              		.loc 1 458 0
 1303 0010 0620     		movs	r0, #6
 1304              	.LVL173:
 1305 0012 4042     		rsbs	r0, r0, #0
 1306              	.LVL174:
 1307              	.L111:
 463:Source\LwIP\src\core/udp.c **** 
 1308              		.loc 1 463 0
 1309              		@ sp needed
 1310 0014 10BD     		pop	{r4, pc}
 1311              		.cfi_endproc
 1312              	.LFE57:
 1313              		.size	udp_send, .-udp_send
 1314 0016 C046     		.section	.text.udp_connect,"ax",%progbits
 1315              		.align	2
 1316              		.global	udp_connect
 1317              		.code	16
 1318              		.thumb_func
 1319              		.type	udp_connect, %function
 1320              	udp_connect:
 1321              	.LFB62:
 961:Source\LwIP\src\core/udp.c **** 
 962:Source\LwIP\src\core/udp.c **** /**
 963:Source\LwIP\src\core/udp.c ****  * @ingroup udp_raw
 964:Source\LwIP\src\core/udp.c ****  * Connect an UDP PCB.
 965:Source\LwIP\src\core/udp.c ****  *
 966:Source\LwIP\src\core/udp.c ****  * This will associate the UDP PCB with the remote address.
 967:Source\LwIP\src\core/udp.c ****  *
 968:Source\LwIP\src\core/udp.c ****  * @param pcb UDP PCB to be connected with remote address ipaddr and port.
 969:Source\LwIP\src\core/udp.c ****  * @param ipaddr remote IP address to connect with.
 970:Source\LwIP\src\core/udp.c ****  * @param port remote UDP port to connect with.
 971:Source\LwIP\src\core/udp.c ****  *
 972:Source\LwIP\src\core/udp.c ****  * @return lwIP error code
 973:Source\LwIP\src\core/udp.c ****  *
ARM GAS  C:\Users\Phuong\AppData\Local\Temp\cc08x83E.s 			page 43


 974:Source\LwIP\src\core/udp.c ****  * ipaddr & port are expected to be in the same byte order as in the pcb.
 975:Source\LwIP\src\core/udp.c ****  *
 976:Source\LwIP\src\core/udp.c ****  * The udp pcb is bound to a random local port if not already bound.
 977:Source\LwIP\src\core/udp.c ****  *
 978:Source\LwIP\src\core/udp.c ****  * @see udp_disconnect()
 979:Source\LwIP\src\core/udp.c ****  */
 980:Source\LwIP\src\core/udp.c **** err_t
 981:Source\LwIP\src\core/udp.c **** udp_connect(struct udp_pcb *pcb, const ip_addr_t *ipaddr, u16_t port)
 982:Source\LwIP\src\core/udp.c **** {
 1322              		.loc 1 982 0
 1323              		.cfi_startproc
 1324              		@ args = 0, pretend = 0, frame = 0
 1325              		@ frame_needed = 0, uses_anonymous_args = 0
 1326              	.LVL175:
 1327 0000 70B5     		push	{r4, r5, r6, lr}
 1328              		.cfi_def_cfa_offset 16
 1329              		.cfi_offset 4, -16
 1330              		.cfi_offset 5, -12
 1331              		.cfi_offset 6, -8
 1332              		.cfi_offset 14, -4
 1333 0002 0400     		movs	r4, r0
 1334 0004 0D00     		movs	r5, r1
 1335 0006 1600     		movs	r6, r2
 983:Source\LwIP\src\core/udp.c ****   struct udp_pcb *ipcb;
 984:Source\LwIP\src\core/udp.c **** 
 985:Source\LwIP\src\core/udp.c ****   if ((pcb == NULL) || (ipaddr == NULL)) {
 1336              		.loc 1 985 0
 1337 0008 0028     		cmp	r0, #0
 1338 000a 22D0     		beq	.L119
 1339              		.loc 1 985 0 is_stmt 0 discriminator 1
 1340 000c 0029     		cmp	r1, #0
 1341 000e 23D0     		beq	.L120
 986:Source\LwIP\src\core/udp.c ****     return ERR_VAL;
 987:Source\LwIP\src\core/udp.c ****   }
 988:Source\LwIP\src\core/udp.c **** 
 989:Source\LwIP\src\core/udp.c ****   if (pcb->local_port == 0) {
 1342              		.loc 1 989 0 is_stmt 1
 1343 0010 428A     		ldrh	r2, [r0, #18]
 1344              	.LVL176:
 1345 0012 002A     		cmp	r2, #0
 1346 0014 04D1     		bne	.L115
 1347              	.LBB3:
 990:Source\LwIP\src\core/udp.c ****     err_t err = udp_bind(pcb, &pcb->local_ip, pcb->local_port);
 1348              		.loc 1 990 0
 1349 0016 0100     		movs	r1, r0
 1350              	.LVL177:
 1351 0018 FFF7FEFF 		bl	udp_bind
 1352              	.LVL178:
 991:Source\LwIP\src\core/udp.c ****     if (err != ERR_OK) {
 1353              		.loc 1 991 0
 1354 001c 0028     		cmp	r0, #0
 1355 001e 1FD1     		bne	.L114
 1356              	.LVL179:
 1357              	.L115:
 1358              	.LBE3:
 992:Source\LwIP\src\core/udp.c ****       return err;
 993:Source\LwIP\src\core/udp.c ****     }
ARM GAS  C:\Users\Phuong\AppData\Local\Temp\cc08x83E.s 			page 44


 994:Source\LwIP\src\core/udp.c ****   }
 995:Source\LwIP\src\core/udp.c **** 
 996:Source\LwIP\src\core/udp.c ****   ip_addr_set_ipaddr(&pcb->remote_ip, ipaddr);
 1359              		.loc 1 996 0
 1360 0020 002D     		cmp	r5, #0
 1361 0022 01D0     		beq	.L122
 1362              		.loc 1 996 0 is_stmt 0 discriminator 1
 1363 0024 2B68     		ldr	r3, [r5]
 1364 0026 00E0     		b	.L116
 1365              	.L122:
 1366              		.loc 1 996 0
 1367 0028 0023     		movs	r3, #0
 1368              	.L116:
 1369              		.loc 1 996 0 discriminator 4
 1370 002a 6360     		str	r3, [r4, #4]
 997:Source\LwIP\src\core/udp.c ****   pcb->remote_port = port;
 1371              		.loc 1 997 0 is_stmt 1 discriminator 4
 1372 002c A682     		strh	r6, [r4, #20]
 998:Source\LwIP\src\core/udp.c ****   pcb->flags |= UDP_FLAGS_CONNECTED;
 1373              		.loc 1 998 0 discriminator 4
 1374 002e 227C     		ldrb	r2, [r4, #16]
 1375 0030 0423     		movs	r3, #4
 1376 0032 1343     		orrs	r3, r2
 1377 0034 2374     		strb	r3, [r4, #16]
 999:Source\LwIP\src\core/udp.c **** 
1000:Source\LwIP\src\core/udp.c ****   LWIP_DEBUGF(UDP_DEBUG | LWIP_DBG_TRACE | LWIP_DBG_STATE, ("udp_connect: connected to "));
1001:Source\LwIP\src\core/udp.c ****   ip_addr_debug_print(UDP_DEBUG | LWIP_DBG_TRACE | LWIP_DBG_STATE,
1002:Source\LwIP\src\core/udp.c ****                       &pcb->remote_ip);
1003:Source\LwIP\src\core/udp.c ****   LWIP_DEBUGF(UDP_DEBUG | LWIP_DBG_TRACE | LWIP_DBG_STATE, (", port %"U16_F")\n", pcb->remote_port)
1004:Source\LwIP\src\core/udp.c **** 
1005:Source\LwIP\src\core/udp.c ****   /* Insert UDP PCB into the list of active UDP PCBs. */
1006:Source\LwIP\src\core/udp.c ****   for (ipcb = udp_pcbs; ipcb != NULL; ipcb = ipcb->next) {
 1378              		.loc 1 1006 0 discriminator 4
 1379 0036 0B4B     		ldr	r3, .L124
 1380 0038 1A68     		ldr	r2, [r3]
 1381              	.LVL180:
 1382 003a 1300     		movs	r3, r2
 1383 003c 02E0     		b	.L117
 1384              	.LVL181:
 1385              	.L118:
1007:Source\LwIP\src\core/udp.c ****     if (pcb == ipcb) {
 1386              		.loc 1 1007 0
 1387 003e A342     		cmp	r3, r4
 1388 0040 0DD0     		beq	.L123
1006:Source\LwIP\src\core/udp.c ****     if (pcb == ipcb) {
 1389              		.loc 1 1006 0 discriminator 2
 1390 0042 DB68     		ldr	r3, [r3, #12]
 1391              	.LVL182:
 1392              	.L117:
1006:Source\LwIP\src\core/udp.c ****     if (pcb == ipcb) {
 1393              		.loc 1 1006 0 is_stmt 0 discriminator 1
 1394 0044 002B     		cmp	r3, #0
 1395 0046 FAD1     		bne	.L118
1008:Source\LwIP\src\core/udp.c ****       /* already on the list, just return */
1009:Source\LwIP\src\core/udp.c ****       return ERR_OK;
1010:Source\LwIP\src\core/udp.c ****     }
1011:Source\LwIP\src\core/udp.c ****   }
ARM GAS  C:\Users\Phuong\AppData\Local\Temp\cc08x83E.s 			page 45


1012:Source\LwIP\src\core/udp.c ****   /* PCB not yet on the list, add PCB now */
1013:Source\LwIP\src\core/udp.c ****   pcb->next = udp_pcbs;
 1396              		.loc 1 1013 0 is_stmt 1
 1397 0048 E260     		str	r2, [r4, #12]
1014:Source\LwIP\src\core/udp.c ****   udp_pcbs = pcb;
 1398              		.loc 1 1014 0
 1399 004a 064B     		ldr	r3, .L124
 1400              	.LVL183:
 1401 004c 1C60     		str	r4, [r3]
1015:Source\LwIP\src\core/udp.c ****   return ERR_OK;
 1402              		.loc 1 1015 0
 1403 004e 0020     		movs	r0, #0
 1404 0050 06E0     		b	.L114
 1405              	.LVL184:
 1406              	.L119:
 986:Source\LwIP\src\core/udp.c ****   }
 1407              		.loc 1 986 0
 1408 0052 0620     		movs	r0, #6
 1409              	.LVL185:
 1410 0054 4042     		rsbs	r0, r0, #0
 1411 0056 03E0     		b	.L114
 1412              	.LVL186:
 1413              	.L120:
 1414 0058 0620     		movs	r0, #6
 1415              	.LVL187:
 1416 005a 4042     		rsbs	r0, r0, #0
 1417 005c 00E0     		b	.L114
 1418              	.LVL188:
 1419              	.L123:
1009:Source\LwIP\src\core/udp.c ****     }
 1420              		.loc 1 1009 0
 1421 005e 0020     		movs	r0, #0
 1422              	.LVL189:
 1423              	.L114:
1016:Source\LwIP\src\core/udp.c **** }
 1424              		.loc 1 1016 0
 1425              		@ sp needed
 1426              	.LVL190:
 1427              	.LVL191:
 1428 0060 70BD     		pop	{r4, r5, r6, pc}
 1429              	.L125:
 1430 0062 C046     		.align	2
 1431              	.L124:
 1432 0064 00000000 		.word	udp_pcbs
 1433              		.cfi_endproc
 1434              	.LFE62:
 1435              		.size	udp_connect, .-udp_connect
 1436              		.section	.text.udp_disconnect,"ax",%progbits
 1437              		.align	2
 1438              		.global	udp_disconnect
 1439              		.code	16
 1440              		.thumb_func
 1441              		.type	udp_disconnect, %function
 1442              	udp_disconnect:
 1443              	.LFB63:
1017:Source\LwIP\src\core/udp.c **** 
1018:Source\LwIP\src\core/udp.c **** /**
ARM GAS  C:\Users\Phuong\AppData\Local\Temp\cc08x83E.s 			page 46


1019:Source\LwIP\src\core/udp.c ****  * @ingroup udp_raw
1020:Source\LwIP\src\core/udp.c ****  * Disconnect a UDP PCB
1021:Source\LwIP\src\core/udp.c ****  *
1022:Source\LwIP\src\core/udp.c ****  * @param pcb the udp pcb to disconnect.
1023:Source\LwIP\src\core/udp.c ****  */
1024:Source\LwIP\src\core/udp.c **** void
1025:Source\LwIP\src\core/udp.c **** udp_disconnect(struct udp_pcb *pcb)
1026:Source\LwIP\src\core/udp.c **** {
 1444              		.loc 1 1026 0
 1445              		.cfi_startproc
 1446              		@ args = 0, pretend = 0, frame = 0
 1447              		@ frame_needed = 0, uses_anonymous_args = 0
 1448              		@ link register save eliminated.
 1449              	.LVL192:
1027:Source\LwIP\src\core/udp.c ****   /* reset remote address association */
1028:Source\LwIP\src\core/udp.c **** #if LWIP_IPV4 && LWIP_IPV6
1029:Source\LwIP\src\core/udp.c ****   if (IP_IS_ANY_TYPE_VAL(pcb->local_ip)) {
1030:Source\LwIP\src\core/udp.c ****     ip_addr_copy(pcb->remote_ip, *IP_ANY_TYPE);
1031:Source\LwIP\src\core/udp.c ****   } else {
1032:Source\LwIP\src\core/udp.c **** #endif
1033:Source\LwIP\src\core/udp.c ****     ip_addr_set_any(IP_IS_V6_VAL(pcb->remote_ip), &pcb->remote_ip);
 1450              		.loc 1 1033 0
 1451 0000 0023     		movs	r3, #0
 1452 0002 4360     		str	r3, [r0, #4]
1034:Source\LwIP\src\core/udp.c **** #if LWIP_IPV4 && LWIP_IPV6
1035:Source\LwIP\src\core/udp.c ****   }
1036:Source\LwIP\src\core/udp.c **** #endif
1037:Source\LwIP\src\core/udp.c ****   pcb->remote_port = 0;
 1453              		.loc 1 1037 0
 1454 0004 8382     		strh	r3, [r0, #20]
1038:Source\LwIP\src\core/udp.c ****   /* mark PCB as unconnected */
1039:Source\LwIP\src\core/udp.c ****   pcb->flags &= ~UDP_FLAGS_CONNECTED;
 1455              		.loc 1 1039 0
 1456 0006 037C     		ldrb	r3, [r0, #16]
 1457 0008 0422     		movs	r2, #4
 1458 000a 9343     		bics	r3, r2
 1459 000c 0374     		strb	r3, [r0, #16]
1040:Source\LwIP\src\core/udp.c **** }
 1460              		.loc 1 1040 0
 1461              		@ sp needed
 1462 000e 7047     		bx	lr
 1463              		.cfi_endproc
 1464              	.LFE63:
 1465              		.size	udp_disconnect, .-udp_disconnect
 1466              		.section	.text.udp_recv,"ax",%progbits
 1467              		.align	2
 1468              		.global	udp_recv
 1469              		.code	16
 1470              		.thumb_func
 1471              		.type	udp_recv, %function
 1472              	udp_recv:
 1473              	.LFB64:
1041:Source\LwIP\src\core/udp.c **** 
1042:Source\LwIP\src\core/udp.c **** /**
1043:Source\LwIP\src\core/udp.c ****  * @ingroup udp_raw
1044:Source\LwIP\src\core/udp.c ****  * Set a receive callback for a UDP PCB
1045:Source\LwIP\src\core/udp.c ****  *
ARM GAS  C:\Users\Phuong\AppData\Local\Temp\cc08x83E.s 			page 47


1046:Source\LwIP\src\core/udp.c ****  * This callback will be called when receiving a datagram for the pcb.
1047:Source\LwIP\src\core/udp.c ****  *
1048:Source\LwIP\src\core/udp.c ****  * @param pcb the pcb for which to set the recv callback
1049:Source\LwIP\src\core/udp.c ****  * @param recv function pointer of the callback function
1050:Source\LwIP\src\core/udp.c ****  * @param recv_arg additional argument to pass to the callback function
1051:Source\LwIP\src\core/udp.c ****  */
1052:Source\LwIP\src\core/udp.c **** void
1053:Source\LwIP\src\core/udp.c **** udp_recv(struct udp_pcb *pcb, udp_recv_fn recv, void *recv_arg)
1054:Source\LwIP\src\core/udp.c **** {
 1474              		.loc 1 1054 0
 1475              		.cfi_startproc
 1476              		@ args = 0, pretend = 0, frame = 0
 1477              		@ frame_needed = 0, uses_anonymous_args = 0
 1478              		@ link register save eliminated.
 1479              	.LVL193:
1055:Source\LwIP\src\core/udp.c ****   /* remember recv() callback and user data */
1056:Source\LwIP\src\core/udp.c ****   pcb->recv = recv;
 1480              		.loc 1 1056 0
 1481 0000 0162     		str	r1, [r0, #32]
1057:Source\LwIP\src\core/udp.c ****   pcb->recv_arg = recv_arg;
 1482              		.loc 1 1057 0
 1483 0002 4262     		str	r2, [r0, #36]
1058:Source\LwIP\src\core/udp.c **** }
 1484              		.loc 1 1058 0
 1485              		@ sp needed
 1486 0004 7047     		bx	lr
 1487              		.cfi_endproc
 1488              	.LFE64:
 1489              		.size	udp_recv, .-udp_recv
 1490              		.section	.text.udp_remove,"ax",%progbits
 1491              		.align	2
 1492              		.global	udp_remove
 1493              		.code	16
 1494              		.thumb_func
 1495              		.type	udp_remove, %function
 1496              	udp_remove:
 1497              	.LFB65:
1059:Source\LwIP\src\core/udp.c **** 
1060:Source\LwIP\src\core/udp.c **** /**
1061:Source\LwIP\src\core/udp.c ****  * @ingroup udp_raw
1062:Source\LwIP\src\core/udp.c ****  * Remove an UDP PCB.
1063:Source\LwIP\src\core/udp.c ****  *
1064:Source\LwIP\src\core/udp.c ****  * @param pcb UDP PCB to be removed. The PCB is removed from the list of
1065:Source\LwIP\src\core/udp.c ****  * UDP PCB's and the data structure is freed from memory.
1066:Source\LwIP\src\core/udp.c ****  *
1067:Source\LwIP\src\core/udp.c ****  * @see udp_new()
1068:Source\LwIP\src\core/udp.c ****  */
1069:Source\LwIP\src\core/udp.c **** void
1070:Source\LwIP\src\core/udp.c **** udp_remove(struct udp_pcb *pcb)
1071:Source\LwIP\src\core/udp.c **** {
 1498              		.loc 1 1071 0
 1499              		.cfi_startproc
 1500              		@ args = 0, pretend = 0, frame = 0
 1501              		@ frame_needed = 0, uses_anonymous_args = 0
 1502              	.LVL194:
 1503 0000 10B5     		push	{r4, lr}
 1504              		.cfi_def_cfa_offset 8
ARM GAS  C:\Users\Phuong\AppData\Local\Temp\cc08x83E.s 			page 48


 1505              		.cfi_offset 4, -8
 1506              		.cfi_offset 14, -4
 1507 0002 0100     		movs	r1, r0
1072:Source\LwIP\src\core/udp.c ****   struct udp_pcb *pcb2;
1073:Source\LwIP\src\core/udp.c **** 
1074:Source\LwIP\src\core/udp.c ****   mib2_udp_unbind(pcb);
1075:Source\LwIP\src\core/udp.c ****   /* pcb to be removed is first in list? */
1076:Source\LwIP\src\core/udp.c ****   if (udp_pcbs == pcb) {
 1508              		.loc 1 1076 0
 1509 0004 0B4B     		ldr	r3, .L134
 1510 0006 1A68     		ldr	r2, [r3]
 1511 0008 8242     		cmp	r2, r0
 1512 000a 0DD1     		bne	.L129
1077:Source\LwIP\src\core/udp.c ****     /* make list start at 2nd pcb */
1078:Source\LwIP\src\core/udp.c ****     udp_pcbs = udp_pcbs->next;
 1513              		.loc 1 1078 0
 1514 000c D268     		ldr	r2, [r2, #12]
 1515 000e 1A60     		str	r2, [r3]
 1516 0010 0CE0     		b	.L130
 1517              	.LVL195:
 1518              	.L131:
1079:Source\LwIP\src\core/udp.c ****     /* pcb not 1st in list */
1080:Source\LwIP\src\core/udp.c ****   } else {
1081:Source\LwIP\src\core/udp.c ****     for (pcb2 = udp_pcbs; pcb2 != NULL; pcb2 = pcb2->next) {
1082:Source\LwIP\src\core/udp.c ****       /* find pcb in udp_pcbs list */
1083:Source\LwIP\src\core/udp.c ****       if (pcb2->next != NULL && pcb2->next == pcb) {
 1519              		.loc 1 1083 0
 1520 0012 D368     		ldr	r3, [r2, #12]
 1521 0014 002B     		cmp	r3, #0
 1522 0016 04D0     		beq	.L132
 1523              		.loc 1 1083 0 is_stmt 0 discriminator 1
 1524 0018 9942     		cmp	r1, r3
 1525 001a 04D1     		bne	.L133
1084:Source\LwIP\src\core/udp.c ****         /* remove pcb from list */
1085:Source\LwIP\src\core/udp.c ****         pcb2->next = pcb->next;
 1526              		.loc 1 1085 0 is_stmt 1
 1527 001c CB68     		ldr	r3, [r1, #12]
 1528 001e D360     		str	r3, [r2, #12]
1086:Source\LwIP\src\core/udp.c ****         break;
 1529              		.loc 1 1086 0
 1530 0020 04E0     		b	.L130
 1531              	.L132:
 1532 0022 1A00     		movs	r2, r3
 1533              	.LVL196:
 1534 0024 00E0     		b	.L129
 1535              	.LVL197:
 1536              	.L133:
 1537 0026 1A00     		movs	r2, r3
 1538              	.LVL198:
 1539              	.L129:
1081:Source\LwIP\src\core/udp.c ****       /* find pcb in udp_pcbs list */
 1540              		.loc 1 1081 0 discriminator 1
 1541 0028 002A     		cmp	r2, #0
 1542 002a F2D1     		bne	.L131
 1543              	.LVL199:
 1544              	.L130:
1087:Source\LwIP\src\core/udp.c ****       }
ARM GAS  C:\Users\Phuong\AppData\Local\Temp\cc08x83E.s 			page 49


1088:Source\LwIP\src\core/udp.c ****     }
1089:Source\LwIP\src\core/udp.c ****   }
1090:Source\LwIP\src\core/udp.c ****   memp_free(MEMP_UDP_PCB, pcb);
 1545              		.loc 1 1090 0
 1546 002c 0120     		movs	r0, #1
 1547              	.LVL200:
 1548 002e FFF7FEFF 		bl	memp_free
 1549              	.LVL201:
1091:Source\LwIP\src\core/udp.c **** }
 1550              		.loc 1 1091 0
 1551              		@ sp needed
 1552 0032 10BD     		pop	{r4, pc}
 1553              	.L135:
 1554              		.align	2
 1555              	.L134:
 1556 0034 00000000 		.word	udp_pcbs
 1557              		.cfi_endproc
 1558              	.LFE65:
 1559              		.size	udp_remove, .-udp_remove
 1560              		.section	.text.udp_new,"ax",%progbits
 1561              		.align	2
 1562              		.global	udp_new
 1563              		.code	16
 1564              		.thumb_func
 1565              		.type	udp_new, %function
 1566              	udp_new:
 1567              	.LFB66:
1092:Source\LwIP\src\core/udp.c **** 
1093:Source\LwIP\src\core/udp.c **** /**
1094:Source\LwIP\src\core/udp.c ****  * @ingroup udp_raw
1095:Source\LwIP\src\core/udp.c ****  * Create a UDP PCB.
1096:Source\LwIP\src\core/udp.c ****  *
1097:Source\LwIP\src\core/udp.c ****  * @return The UDP PCB which was created. NULL if the PCB data structure
1098:Source\LwIP\src\core/udp.c ****  * could not be allocated.
1099:Source\LwIP\src\core/udp.c ****  *
1100:Source\LwIP\src\core/udp.c ****  * @see udp_remove()
1101:Source\LwIP\src\core/udp.c ****  */
1102:Source\LwIP\src\core/udp.c **** struct udp_pcb *
1103:Source\LwIP\src\core/udp.c **** udp_new(void)
1104:Source\LwIP\src\core/udp.c **** {
 1568              		.loc 1 1104 0
 1569              		.cfi_startproc
 1570              		@ args = 0, pretend = 0, frame = 0
 1571              		@ frame_needed = 0, uses_anonymous_args = 0
 1572 0000 10B5     		push	{r4, lr}
 1573              		.cfi_def_cfa_offset 8
 1574              		.cfi_offset 4, -8
 1575              		.cfi_offset 14, -4
1105:Source\LwIP\src\core/udp.c ****   struct udp_pcb *pcb;
1106:Source\LwIP\src\core/udp.c ****   pcb = (struct udp_pcb *)memp_malloc(MEMP_UDP_PCB);
 1576              		.loc 1 1106 0
 1577 0002 084A     		ldr	r2, .L138
 1578 0004 0849     		ldr	r1, .L138+4
 1579 0006 0120     		movs	r0, #1
 1580 0008 FFF7FEFF 		bl	memp_malloc_fn
 1581              	.LVL202:
 1582 000c 041E     		subs	r4, r0, #0
ARM GAS  C:\Users\Phuong\AppData\Local\Temp\cc08x83E.s 			page 50


 1583              	.LVL203:
1107:Source\LwIP\src\core/udp.c ****   /* could allocate UDP PCB? */
1108:Source\LwIP\src\core/udp.c ****   if (pcb != NULL) {
 1584              		.loc 1 1108 0
 1585 000e 06D0     		beq	.L137
1109:Source\LwIP\src\core/udp.c ****     /* UDP Lite: by initializing to all zeroes, chksum_len is set to 0
1110:Source\LwIP\src\core/udp.c ****      * which means checksum is generated over the whole datagram per default
1111:Source\LwIP\src\core/udp.c ****      * (recommended as default by RFC 3828). */
1112:Source\LwIP\src\core/udp.c ****     /* initialize PCB to all zeroes */
1113:Source\LwIP\src\core/udp.c ****     memset(pcb, 0, sizeof(struct udp_pcb));
 1586              		.loc 1 1113 0
 1587 0010 2822     		movs	r2, #40
 1588 0012 0021     		movs	r1, #0
 1589 0014 FFF7FEFF 		bl	memset
 1590              	.LVL204:
1114:Source\LwIP\src\core/udp.c ****     pcb->ttl = UDP_TTL;
 1591              		.loc 1 1114 0
 1592 0018 FF23     		movs	r3, #255
 1593 001a A372     		strb	r3, [r4, #10]
1115:Source\LwIP\src\core/udp.c **** #if LWIP_MULTICAST_TX_OPTIONS
1116:Source\LwIP\src\core/udp.c ****     udp_set_multicast_ttl(pcb, UDP_TTL);
 1594              		.loc 1 1116 0
 1595 001c 2377     		strb	r3, [r4, #28]
 1596              	.L137:
1117:Source\LwIP\src\core/udp.c **** #endif /* LWIP_MULTICAST_TX_OPTIONS */
1118:Source\LwIP\src\core/udp.c ****   }
1119:Source\LwIP\src\core/udp.c ****   return pcb;
1120:Source\LwIP\src\core/udp.c **** }
 1597              		.loc 1 1120 0
 1598 001e 2000     		movs	r0, r4
 1599              		@ sp needed
 1600              	.LVL205:
 1601 0020 10BD     		pop	{r4, pc}
 1602              	.L139:
 1603 0022 C046     		.align	2
 1604              	.L138:
 1605 0024 52040000 		.word	1106
 1606 0028 00000000 		.word	.LC16
 1607              		.cfi_endproc
 1608              	.LFE66:
 1609              		.size	udp_new, .-udp_new
 1610              		.section	.text.udp_new_ip_type,"ax",%progbits
 1611              		.align	2
 1612              		.global	udp_new_ip_type
 1613              		.code	16
 1614              		.thumb_func
 1615              		.type	udp_new_ip_type, %function
 1616              	udp_new_ip_type:
 1617              	.LFB67:
1121:Source\LwIP\src\core/udp.c **** 
1122:Source\LwIP\src\core/udp.c **** /**
1123:Source\LwIP\src\core/udp.c ****  * @ingroup udp_raw
1124:Source\LwIP\src\core/udp.c ****  * Create a UDP PCB for specific IP type.
1125:Source\LwIP\src\core/udp.c ****  *
1126:Source\LwIP\src\core/udp.c ****  * @param type IP address type, see @ref lwip_ip_addr_type definitions.
1127:Source\LwIP\src\core/udp.c ****  * If you want to listen to IPv4 and IPv6 (dual-stack) packets,
1128:Source\LwIP\src\core/udp.c ****  * supply @ref IPADDR_TYPE_ANY as argument and bind to @ref IP_ANY_TYPE.
ARM GAS  C:\Users\Phuong\AppData\Local\Temp\cc08x83E.s 			page 51


1129:Source\LwIP\src\core/udp.c ****  * @return The UDP PCB which was created. NULL if the PCB data structure
1130:Source\LwIP\src\core/udp.c ****  * could not be allocated.
1131:Source\LwIP\src\core/udp.c ****  *
1132:Source\LwIP\src\core/udp.c ****  * @see udp_remove()
1133:Source\LwIP\src\core/udp.c ****  */
1134:Source\LwIP\src\core/udp.c **** struct udp_pcb *
1135:Source\LwIP\src\core/udp.c **** udp_new_ip_type(u8_t type)
1136:Source\LwIP\src\core/udp.c **** {
 1618              		.loc 1 1136 0
 1619              		.cfi_startproc
 1620              		@ args = 0, pretend = 0, frame = 0
 1621              		@ frame_needed = 0, uses_anonymous_args = 0
 1622              	.LVL206:
 1623 0000 10B5     		push	{r4, lr}
 1624              		.cfi_def_cfa_offset 8
 1625              		.cfi_offset 4, -8
 1626              		.cfi_offset 14, -4
1137:Source\LwIP\src\core/udp.c ****   struct udp_pcb *pcb;
1138:Source\LwIP\src\core/udp.c ****   pcb = udp_new();
 1627              		.loc 1 1138 0
 1628 0002 FFF7FEFF 		bl	udp_new
 1629              	.LVL207:
1139:Source\LwIP\src\core/udp.c **** #if LWIP_IPV4 && LWIP_IPV6
1140:Source\LwIP\src\core/udp.c ****   if (pcb != NULL) {
1141:Source\LwIP\src\core/udp.c ****     IP_SET_TYPE_VAL(pcb->local_ip,  type);
1142:Source\LwIP\src\core/udp.c ****     IP_SET_TYPE_VAL(pcb->remote_ip, type);
1143:Source\LwIP\src\core/udp.c ****   }
1144:Source\LwIP\src\core/udp.c **** #else
1145:Source\LwIP\src\core/udp.c ****   LWIP_UNUSED_ARG(type);
1146:Source\LwIP\src\core/udp.c **** #endif /* LWIP_IPV4 && LWIP_IPV6 */
1147:Source\LwIP\src\core/udp.c ****   return pcb;
1148:Source\LwIP\src\core/udp.c **** }
 1630              		.loc 1 1148 0
 1631              		@ sp needed
 1632 0006 10BD     		pop	{r4, pc}
 1633              		.cfi_endproc
 1634              	.LFE67:
 1635              		.size	udp_new_ip_type, .-udp_new_ip_type
 1636              		.section	.text.udp_netif_ip_addr_changed,"ax",%progbits
 1637              		.align	2
 1638              		.global	udp_netif_ip_addr_changed
 1639              		.code	16
 1640              		.thumb_func
 1641              		.type	udp_netif_ip_addr_changed, %function
 1642              	udp_netif_ip_addr_changed:
 1643              	.LFB68:
1149:Source\LwIP\src\core/udp.c **** 
1150:Source\LwIP\src\core/udp.c **** /** This function is called from netif.c when address is changed
1151:Source\LwIP\src\core/udp.c ****  *
1152:Source\LwIP\src\core/udp.c ****  * @param old_addr IP address of the netif before change
1153:Source\LwIP\src\core/udp.c ****  * @param new_addr IP address of the netif after change
1154:Source\LwIP\src\core/udp.c ****  */
1155:Source\LwIP\src\core/udp.c **** void udp_netif_ip_addr_changed(const ip_addr_t* old_addr, const ip_addr_t* new_addr)
1156:Source\LwIP\src\core/udp.c **** {
 1644              		.loc 1 1156 0
 1645              		.cfi_startproc
 1646              		@ args = 0, pretend = 0, frame = 0
ARM GAS  C:\Users\Phuong\AppData\Local\Temp\cc08x83E.s 			page 52


 1647              		@ frame_needed = 0, uses_anonymous_args = 0
 1648              	.LVL208:
 1649 0000 10B5     		push	{r4, lr}
 1650              		.cfi_def_cfa_offset 8
 1651              		.cfi_offset 4, -8
 1652              		.cfi_offset 14, -4
1157:Source\LwIP\src\core/udp.c ****   struct udp_pcb* upcb;
1158:Source\LwIP\src\core/udp.c **** 
1159:Source\LwIP\src\core/udp.c ****   if (!ip_addr_isany(old_addr) && !ip_addr_isany(new_addr)) {
 1653              		.loc 1 1159 0
 1654 0002 0028     		cmp	r0, #0
 1655 0004 13D0     		beq	.L141
 1656              		.loc 1 1159 0 is_stmt 0 discriminator 1
 1657 0006 0368     		ldr	r3, [r0]
 1658 0008 002B     		cmp	r3, #0
 1659 000a 10D0     		beq	.L141
 1660              		.loc 1 1159 0 discriminator 2
 1661 000c 0029     		cmp	r1, #0
 1662 000e 0ED0     		beq	.L141
 1663              		.loc 1 1159 0 discriminator 3
 1664 0010 0B68     		ldr	r3, [r1]
 1665 0012 002B     		cmp	r3, #0
 1666 0014 0BD0     		beq	.L141
1160:Source\LwIP\src\core/udp.c ****     for (upcb = udp_pcbs; upcb != NULL; upcb = upcb->next) {
 1667              		.loc 1 1160 0 is_stmt 1
 1668 0016 064B     		ldr	r3, .L146
 1669 0018 1B68     		ldr	r3, [r3]
 1670              	.LVL209:
 1671 001a 06E0     		b	.L143
 1672              	.L145:
1161:Source\LwIP\src\core/udp.c ****       /* PCB bound to current local interface address? */
1162:Source\LwIP\src\core/udp.c ****       if (ip_addr_cmp(&upcb->local_ip, old_addr)) {
 1673              		.loc 1 1162 0
 1674 001c 1A68     		ldr	r2, [r3]
 1675 001e 0468     		ldr	r4, [r0]
 1676 0020 A242     		cmp	r2, r4
 1677 0022 01D1     		bne	.L144
1163:Source\LwIP\src\core/udp.c ****         /* The PCB is bound to the old ipaddr and
1164:Source\LwIP\src\core/udp.c ****          * is set to bound to the new one instead */
1165:Source\LwIP\src\core/udp.c ****         ip_addr_copy(upcb->local_ip, *new_addr);
 1678              		.loc 1 1165 0
 1679 0024 0A68     		ldr	r2, [r1]
 1680 0026 1A60     		str	r2, [r3]
 1681              	.L144:
1160:Source\LwIP\src\core/udp.c ****       /* PCB bound to current local interface address? */
 1682              		.loc 1 1160 0 discriminator 2
 1683 0028 DB68     		ldr	r3, [r3, #12]
 1684              	.LVL210:
 1685              	.L143:
1160:Source\LwIP\src\core/udp.c ****       /* PCB bound to current local interface address? */
 1686              		.loc 1 1160 0 is_stmt 0 discriminator 1
 1687 002a 002B     		cmp	r3, #0
 1688 002c F6D1     		bne	.L145
 1689              	.LVL211:
 1690              	.L141:
1166:Source\LwIP\src\core/udp.c ****       }
1167:Source\LwIP\src\core/udp.c ****     }
ARM GAS  C:\Users\Phuong\AppData\Local\Temp\cc08x83E.s 			page 53


1168:Source\LwIP\src\core/udp.c ****   }
1169:Source\LwIP\src\core/udp.c **** }
 1691              		.loc 1 1169 0 is_stmt 1
 1692              		@ sp needed
 1693 002e 10BD     		pop	{r4, pc}
 1694              	.L147:
 1695              		.align	2
 1696              	.L146:
 1697 0030 00000000 		.word	udp_pcbs
 1698              		.cfi_endproc
 1699              	.LFE68:
 1700              		.size	udp_netif_ip_addr_changed, .-udp_netif_ip_addr_changed
 1701              		.comm	udp_pcbs,4,4
 1702              		.data
 1703              		.align	1
 1704              		.set	.LANCHOR0,. + 0
 1705              		.type	udp_port, %object
 1706              		.size	udp_port, 2
 1707              	udp_port:
 1708 0000 00C0     		.short	-16384
 1709              		.section	.rodata.str1.4,"aMS",%progbits,1
 1710              		.align	2
 1711              	.LC16:
 1712 0000 536F7572 		.ascii	"Source\\LwIP\\src\\core\\udp.c\000"
 1712      63655C4C 
 1712      7749505C 
 1712      7372635C 
 1712      636F7265 
 1713              		.text
 1714              	.Letext0:
 1715              		.file 2 "c:\\program files (x86)\\cypress\\psoc creator\\4.2\\psoc creator\\import\\gnu\\arm\\5.4.
 1716              		.file 3 "c:\\program files (x86)\\cypress\\psoc creator\\4.2\\psoc creator\\import\\gnu\\arm\\5.4.
 1717              		.file 4 "c:\\program files (x86)\\cypress\\psoc creator\\4.2\\psoc creator\\import\\gnu\\arm\\5.4.
 1718              		.file 5 ".\\Source\\LwIP\\src\\include/arch/cc.h"
 1719              		.file 6 ".\\Source\\LwIP\\src\\include/lwip/err.h"
 1720              		.file 7 ".\\Source\\LwIP\\src\\include/lwip/pbuf.h"
 1721              		.file 8 ".\\Source\\LwIP\\src\\include/lwip/ip4_addr.h"
 1722              		.file 9 ".\\Source\\LwIP\\src\\include/lwip/ip_addr.h"
 1723              		.file 10 ".\\Source\\LwIP\\src\\include/lwip/mem.h"
 1724              		.file 11 ".\\Source\\LwIP\\src\\include/lwip/memp.h"
 1725              		.file 12 ".\\Source\\LwIP\\src\\include/lwip/stats.h"
 1726              		.file 13 ".\\Source\\LwIP\\src\\include/lwip/netif.h"
 1727              		.file 14 ".\\Source\\LwIP\\src\\include/lwip/prot/ip4.h"
 1728              		.file 15 ".\\Source\\LwIP\\src\\include/lwip/ip.h"
 1729              		.file 16 ".\\Source\\LwIP\\src\\include/lwip/prot/udp.h"
 1730              		.file 17 ".\\Source\\LwIP\\src\\include/lwip/udp.h"
 1731              		.file 18 ".\\Source\\LwIP\\src\\include/lwip/icmp.h"
 1732              		.file 19 ".\\Source\\LwIP\\src\\include/arch/sys_arch.h"
 1733              		.file 20 ".\\Source\\LwIP\\src\\include/lwip/def.h"
 1734              		.file 21 ".\\Source\\LwIP\\src\\include/lwip/inet_chksum.h"
 1735              		.file 22 ".\\Source\\LwIP\\src\\include/lwip/ip4.h"
 1736              		.section	.debug_info,"",%progbits
 1737              	.Ldebug_info0:
 1738 0000 A7130000 		.4byte	0x13a7
 1739 0004 0400     		.2byte	0x4
 1740 0006 00000000 		.4byte	.Ldebug_abbrev0
 1741 000a 04       		.byte	0x4
ARM GAS  C:\Users\Phuong\AppData\Local\Temp\cc08x83E.s 			page 54


 1742 000b 01       		.uleb128 0x1
 1743 000c BE020000 		.4byte	.LASF231
 1744 0010 0C       		.byte	0xc
 1745 0011 70000000 		.4byte	.LASF232
 1746 0015 26040000 		.4byte	.LASF233
 1747 0019 00000000 		.4byte	.Ldebug_ranges0+0
 1748 001d 00000000 		.4byte	0
 1749 0021 00000000 		.4byte	.Ldebug_line0
 1750 0025 02       		.uleb128 0x2
 1751 0026 01       		.byte	0x1
 1752 0027 06       		.byte	0x6
 1753 0028 700A0000 		.4byte	.LASF0
 1754 002c 02       		.uleb128 0x2
 1755 002d 01       		.byte	0x1
 1756 002e 08       		.byte	0x8
 1757 002f 82070000 		.4byte	.LASF1
 1758 0033 02       		.uleb128 0x2
 1759 0034 02       		.byte	0x2
 1760 0035 05       		.byte	0x5
 1761 0036 C5070000 		.4byte	.LASF2
 1762 003a 02       		.uleb128 0x2
 1763 003b 02       		.byte	0x2
 1764 003c 07       		.byte	0x7
 1765 003d 7C0A0000 		.4byte	.LASF3
 1766 0041 02       		.uleb128 0x2
 1767 0042 04       		.byte	0x4
 1768 0043 05       		.byte	0x5
 1769 0044 D4070000 		.4byte	.LASF4
 1770 0048 03       		.uleb128 0x3
 1771 0049 03060000 		.4byte	.LASF9
 1772 004d 02       		.byte	0x2
 1773 004e 41       		.byte	0x41
 1774 004f 53000000 		.4byte	0x53
 1775 0053 02       		.uleb128 0x2
 1776 0054 04       		.byte	0x4
 1777 0055 07       		.byte	0x7
 1778 0056 BE080000 		.4byte	.LASF5
 1779 005a 02       		.uleb128 0x2
 1780 005b 08       		.byte	0x8
 1781 005c 05       		.byte	0x5
 1782 005d 54060000 		.4byte	.LASF6
 1783 0061 02       		.uleb128 0x2
 1784 0062 08       		.byte	0x8
 1785 0063 07       		.byte	0x7
 1786 0064 67030000 		.4byte	.LASF7
 1787 0068 04       		.uleb128 0x4
 1788 0069 04       		.byte	0x4
 1789 006a 05       		.byte	0x5
 1790 006b 696E7400 		.ascii	"int\000"
 1791 006f 02       		.uleb128 0x2
 1792 0070 04       		.byte	0x4
 1793 0071 07       		.byte	0x7
 1794 0072 28010000 		.4byte	.LASF8
 1795 0076 03       		.uleb128 0x3
 1796 0077 FE040000 		.4byte	.LASF10
 1797 007b 03       		.byte	0x3
 1798 007c D8       		.byte	0xd8
ARM GAS  C:\Users\Phuong\AppData\Local\Temp\cc08x83E.s 			page 55


 1799 007d 6F000000 		.4byte	0x6f
 1800 0081 02       		.uleb128 0x2
 1801 0082 08       		.byte	0x8
 1802 0083 04       		.byte	0x4
 1803 0084 63070000 		.4byte	.LASF11
 1804 0088 05       		.uleb128 0x5
 1805 0089 04       		.byte	0x4
 1806 008a 02       		.uleb128 0x2
 1807 008b 04       		.byte	0x4
 1808 008c 07       		.byte	0x7
 1809 008d AE080000 		.4byte	.LASF12
 1810 0091 02       		.uleb128 0x2
 1811 0092 01       		.byte	0x1
 1812 0093 08       		.byte	0x8
 1813 0094 3E000000 		.4byte	.LASF13
 1814 0098 06       		.uleb128 0x6
 1815 0099 04       		.byte	0x4
 1816 009a 9E000000 		.4byte	0x9e
 1817 009e 07       		.uleb128 0x7
 1818 009f 91000000 		.4byte	0x91
 1819 00a3 03       		.uleb128 0x3
 1820 00a4 5F020000 		.4byte	.LASF14
 1821 00a8 04       		.byte	0x4
 1822 00a9 30       		.byte	0x30
 1823 00aa 48000000 		.4byte	0x48
 1824 00ae 02       		.uleb128 0x2
 1825 00af 04       		.byte	0x4
 1826 00b0 04       		.byte	0x4
 1827 00b1 A7060000 		.4byte	.LASF15
 1828 00b5 02       		.uleb128 0x2
 1829 00b6 08       		.byte	0x8
 1830 00b7 04       		.byte	0x4
 1831 00b8 D00A0000 		.4byte	.LASF16
 1832 00bc 08       		.uleb128 0x8
 1833 00bd 88000000 		.4byte	0x88
 1834 00c1 CC000000 		.4byte	0xcc
 1835 00c5 09       		.uleb128 0x9
 1836 00c6 8A000000 		.4byte	0x8a
 1837 00ca 01       		.byte	0x1
 1838 00cb 00       		.byte	0
 1839 00cc 03       		.uleb128 0x3
 1840 00cd 86060000 		.4byte	.LASF17
 1841 00d1 05       		.byte	0x5
 1842 00d2 31       		.byte	0x31
 1843 00d3 2C000000 		.4byte	0x2c
 1844 00d7 03       		.uleb128 0x3
 1845 00d8 2F050000 		.4byte	.LASF18
 1846 00dc 05       		.byte	0x5
 1847 00dd 32       		.byte	0x32
 1848 00de 25000000 		.4byte	0x25
 1849 00e2 03       		.uleb128 0x3
 1850 00e3 6F070000 		.4byte	.LASF19
 1851 00e7 05       		.byte	0x5
 1852 00e8 33       		.byte	0x33
 1853 00e9 3A000000 		.4byte	0x3a
 1854 00ed 03       		.uleb128 0x3
 1855 00ee FA080000 		.4byte	.LASF20
ARM GAS  C:\Users\Phuong\AppData\Local\Temp\cc08x83E.s 			page 56


 1856 00f2 05       		.byte	0x5
 1857 00f3 34       		.byte	0x34
 1858 00f4 33000000 		.4byte	0x33
 1859 00f8 03       		.uleb128 0x3
 1860 00f9 BF070000 		.4byte	.LASF21
 1861 00fd 05       		.byte	0x5
 1862 00fe 35       		.byte	0x35
 1863 00ff 53000000 		.4byte	0x53
 1864 0103 03       		.uleb128 0x3
 1865 0104 47010000 		.4byte	.LASF22
 1866 0108 06       		.byte	0x6
 1867 0109 39       		.byte	0x39
 1868 010a D7000000 		.4byte	0xd7
 1869 010e 0A       		.uleb128 0xa
 1870 010f 01       		.byte	0x1
 1871 0110 25000000 		.4byte	0x25
 1872 0114 06       		.byte	0x6
 1873 0115 3D       		.byte	0x3d
 1874 0116 81010000 		.4byte	0x181
 1875 011a 0B       		.uleb128 0xb
 1876 011b 380A0000 		.4byte	.LASF23
 1877 011f 00       		.byte	0
 1878 0120 0C       		.uleb128 0xc
 1879 0121 2E0B0000 		.4byte	.LASF24
 1880 0125 7F       		.sleb128 -1
 1881 0126 0C       		.uleb128 0xc
 1882 0127 90070000 		.4byte	.LASF25
 1883 012b 7E       		.sleb128 -2
 1884 012c 0C       		.uleb128 0xc
 1885 012d 7C050000 		.4byte	.LASF26
 1886 0131 7D       		.sleb128 -3
 1887 0132 0C       		.uleb128 0xc
 1888 0133 C80A0000 		.4byte	.LASF27
 1889 0137 7C       		.sleb128 -4
 1890 0138 0C       		.uleb128 0xc
 1891 0139 2D080000 		.4byte	.LASF28
 1892 013d 7B       		.sleb128 -5
 1893 013e 0C       		.uleb128 0xc
 1894 013f 0A040000 		.4byte	.LASF29
 1895 0143 7A       		.sleb128 -6
 1896 0144 0C       		.uleb128 0xc
 1897 0145 6D050000 		.4byte	.LASF30
 1898 0149 79       		.sleb128 -7
 1899 014a 0C       		.uleb128 0xc
 1900 014b D9000000 		.4byte	.LASF31
 1901 014f 78       		.sleb128 -8
 1902 0150 0C       		.uleb128 0xc
 1903 0151 2F020000 		.4byte	.LASF32
 1904 0155 77       		.sleb128 -9
 1905 0156 0C       		.uleb128 0xc
 1906 0157 4F080000 		.4byte	.LASF33
 1907 015b 76       		.sleb128 -10
 1908 015c 0C       		.uleb128 0xc
 1909 015d A20A0000 		.4byte	.LASF34
 1910 0161 75       		.sleb128 -11
 1911 0162 0C       		.uleb128 0xc
 1912 0163 62060000 		.4byte	.LASF35
ARM GAS  C:\Users\Phuong\AppData\Local\Temp\cc08x83E.s 			page 57


 1913 0167 74       		.sleb128 -12
 1914 0168 0C       		.uleb128 0xc
 1915 0169 49000000 		.4byte	.LASF36
 1916 016d 73       		.sleb128 -13
 1917 016e 0C       		.uleb128 0xc
 1918 016f 0C0A0000 		.4byte	.LASF37
 1919 0173 72       		.sleb128 -14
 1920 0174 0C       		.uleb128 0xc
 1921 0175 D0000000 		.4byte	.LASF38
 1922 0179 71       		.sleb128 -15
 1923 017a 0C       		.uleb128 0xc
 1924 017b F0000000 		.4byte	.LASF39
 1925 017f 70       		.sleb128 -16
 1926 0180 00       		.byte	0
 1927 0181 0A       		.uleb128 0xa
 1928 0182 01       		.byte	0x1
 1929 0183 2C000000 		.4byte	0x2c
 1930 0187 07       		.byte	0x7
 1931 0188 48       		.byte	0x48
 1932 0189 AC010000 		.4byte	0x1ac
 1933 018d 0B       		.uleb128 0xb
 1934 018e 52000000 		.4byte	.LASF40
 1935 0192 00       		.byte	0
 1936 0193 0B       		.uleb128 0xb
 1937 0194 0D050000 		.4byte	.LASF41
 1938 0198 01       		.byte	0x1
 1939 0199 0B       		.uleb128 0xb
 1940 019a 19070000 		.4byte	.LASF42
 1941 019e 02       		.byte	0x2
 1942 019f 0B       		.uleb128 0xb
 1943 01a0 FB0A0000 		.4byte	.LASF43
 1944 01a4 03       		.byte	0x3
 1945 01a5 0B       		.uleb128 0xb
 1946 01a6 C1000000 		.4byte	.LASF44
 1947 01aa 04       		.byte	0x4
 1948 01ab 00       		.byte	0
 1949 01ac 0A       		.uleb128 0xa
 1950 01ad 01       		.byte	0x1
 1951 01ae 2C000000 		.4byte	0x2c
 1952 01b2 07       		.byte	0x7
 1953 01b3 65       		.byte	0x65
 1954 01b4 D1010000 		.4byte	0x1d1
 1955 01b8 0B       		.uleb128 0xb
 1956 01b9 67000000 		.4byte	.LASF45
 1957 01bd 00       		.byte	0
 1958 01be 0B       		.uleb128 0xb
 1959 01bf 070B0000 		.4byte	.LASF46
 1960 01c3 01       		.byte	0x1
 1961 01c4 0B       		.uleb128 0xb
 1962 01c5 E0040000 		.4byte	.LASF47
 1963 01c9 02       		.byte	0x2
 1964 01ca 0B       		.uleb128 0xb
 1965 01cb 1C050000 		.4byte	.LASF48
 1966 01cf 03       		.byte	0x3
 1967 01d0 00       		.byte	0
 1968 01d1 0D       		.uleb128 0xd
 1969 01d2 3D090000 		.4byte	.LASF54
ARM GAS  C:\Users\Phuong\AppData\Local\Temp\cc08x83E.s 			page 58


 1970 01d6 10       		.byte	0x10
 1971 01d7 07       		.byte	0x7
 1972 01d8 8E       		.byte	0x8e
 1973 01d9 32020000 		.4byte	0x232
 1974 01dd 0E       		.uleb128 0xe
 1975 01de 35010000 		.4byte	.LASF49
 1976 01e2 07       		.byte	0x7
 1977 01e3 90       		.byte	0x90
 1978 01e4 32020000 		.4byte	0x232
 1979 01e8 00       		.byte	0
 1980 01e9 0E       		.uleb128 0xe
 1981 01ea 05050000 		.4byte	.LASF50
 1982 01ee 07       		.byte	0x7
 1983 01ef 93       		.byte	0x93
 1984 01f0 88000000 		.4byte	0x88
 1985 01f4 04       		.byte	0x4
 1986 01f5 0E       		.uleb128 0xe
 1987 01f6 D4090000 		.4byte	.LASF51
 1988 01fa 07       		.byte	0x7
 1989 01fb 9C       		.byte	0x9c
 1990 01fc E2000000 		.4byte	0xe2
 1991 0200 08       		.byte	0x8
 1992 0201 0F       		.uleb128 0xf
 1993 0202 6C656E00 		.ascii	"len\000"
 1994 0206 07       		.byte	0x7
 1995 0207 9F       		.byte	0x9f
 1996 0208 E2000000 		.4byte	0xe2
 1997 020c 0A       		.byte	0xa
 1998 020d 0E       		.uleb128 0xe
 1999 020e 2E090000 		.4byte	.LASF52
 2000 0212 07       		.byte	0x7
 2001 0213 A2       		.byte	0xa2
 2002 0214 CC000000 		.4byte	0xcc
 2003 0218 0C       		.byte	0xc
 2004 0219 0E       		.uleb128 0xe
 2005 021a CA000000 		.4byte	.LASF53
 2006 021e 07       		.byte	0x7
 2007 021f A5       		.byte	0xa5
 2008 0220 CC000000 		.4byte	0xcc
 2009 0224 0D       		.byte	0xd
 2010 0225 0F       		.uleb128 0xf
 2011 0226 72656600 		.ascii	"ref\000"
 2012 022a 07       		.byte	0x7
 2013 022b AC       		.byte	0xac
 2014 022c E2000000 		.4byte	0xe2
 2015 0230 0E       		.byte	0xe
 2016 0231 00       		.byte	0
 2017 0232 06       		.uleb128 0x6
 2018 0233 04       		.byte	0x4
 2019 0234 D1010000 		.4byte	0x1d1
 2020 0238 0D       		.uleb128 0xd
 2021 0239 3C080000 		.4byte	.LASF55
 2022 023d 04       		.byte	0x4
 2023 023e 08       		.byte	0x8
 2024 023f 33       		.byte	0x33
 2025 0240 51020000 		.4byte	0x251
 2026 0244 0E       		.uleb128 0xe
ARM GAS  C:\Users\Phuong\AppData\Local\Temp\cc08x83E.s 			page 59


 2027 0245 A9090000 		.4byte	.LASF56
 2028 0249 08       		.byte	0x8
 2029 024a 34       		.byte	0x34
 2030 024b F8000000 		.4byte	0xf8
 2031 024f 00       		.byte	0
 2032 0250 00       		.byte	0
 2033 0251 03       		.uleb128 0x3
 2034 0252 E4030000 		.4byte	.LASF57
 2035 0256 08       		.byte	0x8
 2036 0257 39       		.byte	0x39
 2037 0258 38020000 		.4byte	0x238
 2038 025c 03       		.uleb128 0x3
 2039 025d DC0A0000 		.4byte	.LASF58
 2040 0261 09       		.byte	0x9
 2041 0262 F4       		.byte	0xf4
 2042 0263 51020000 		.4byte	0x251
 2043 0267 03       		.uleb128 0x3
 2044 0268 C7050000 		.4byte	.LASF59
 2045 026c 0A       		.byte	0xa
 2046 026d 32       		.byte	0x32
 2047 026e 76000000 		.4byte	0x76
 2048 0272 0A       		.uleb128 0xa
 2049 0273 01       		.byte	0x1
 2050 0274 2C000000 		.4byte	0x2c
 2051 0278 0B       		.byte	0xb
 2052 0279 34       		.byte	0x34
 2053 027a E5020000 		.4byte	0x2e5
 2054 027e 0B       		.uleb128 0xb
 2055 027f A6070000 		.4byte	.LASF60
 2056 0283 00       		.byte	0
 2057 0284 0B       		.uleb128 0xb
 2058 0285 03080000 		.4byte	.LASF61
 2059 0289 01       		.byte	0x1
 2060 028a 0B       		.uleb128 0xb
 2061 028b 79060000 		.4byte	.LASF62
 2062 028f 02       		.byte	0x2
 2063 0290 0B       		.uleb128 0xb
 2064 0291 11000000 		.4byte	.LASF63
 2065 0295 03       		.byte	0x3
 2066 0296 0B       		.uleb128 0xb
 2067 0297 6F090000 		.4byte	.LASF64
 2068 029b 04       		.byte	0x4
 2069 029c 0B       		.uleb128 0xb
 2070 029d E1000000 		.4byte	.LASF65
 2071 02a1 05       		.byte	0x5
 2072 02a2 0B       		.uleb128 0xb
 2073 02a3 40060000 		.4byte	.LASF66
 2074 02a7 06       		.byte	0x6
 2075 02a8 0B       		.uleb128 0xb
 2076 02a9 56050000 		.4byte	.LASF67
 2077 02ad 07       		.byte	0x7
 2078 02ae 0B       		.uleb128 0xb
 2079 02af 93020000 		.4byte	.LASF68
 2080 02b3 08       		.byte	0x8
 2081 02b4 0B       		.uleb128 0xb
 2082 02b5 CB040000 		.4byte	.LASF69
 2083 02b9 09       		.byte	0x9
ARM GAS  C:\Users\Phuong\AppData\Local\Temp\cc08x83E.s 			page 60


 2084 02ba 0B       		.uleb128 0xb
 2085 02bb 58030000 		.4byte	.LASF70
 2086 02bf 0A       		.byte	0xa
 2087 02c0 0B       		.uleb128 0xb
 2088 02c1 83020000 		.4byte	.LASF71
 2089 02c5 0B       		.byte	0xb
 2090 02c6 0B       		.uleb128 0xb
 2091 02c7 F2070000 		.4byte	.LASF72
 2092 02cb 0C       		.byte	0xc
 2093 02cc 0B       		.uleb128 0xb
 2094 02cd E60A0000 		.4byte	.LASF73
 2095 02d1 0D       		.byte	0xd
 2096 02d2 0B       		.uleb128 0xb
 2097 02d3 A9050000 		.4byte	.LASF74
 2098 02d7 0E       		.byte	0xe
 2099 02d8 0B       		.uleb128 0xb
 2100 02d9 EE010000 		.4byte	.LASF75
 2101 02dd 0F       		.byte	0xf
 2102 02de 0B       		.uleb128 0xb
 2103 02df 26050000 		.4byte	.LASF76
 2104 02e3 10       		.byte	0x10
 2105 02e4 00       		.byte	0
 2106 02e5 0D       		.uleb128 0xd
 2107 02e6 AD010000 		.4byte	.LASF77
 2108 02ea 18       		.byte	0x18
 2109 02eb 0C       		.byte	0xc
 2110 02ec 62       		.byte	0x62
 2111 02ed 3A030000 		.4byte	0x33a
 2112 02f1 0E       		.uleb128 0xe
 2113 02f2 72080000 		.4byte	.LASF78
 2114 02f6 0C       		.byte	0xc
 2115 02f7 64       		.byte	0x64
 2116 02f8 98000000 		.4byte	0x98
 2117 02fc 00       		.byte	0
 2118 02fd 0F       		.uleb128 0xf
 2119 02fe 65727200 		.ascii	"err\000"
 2120 0302 0C       		.byte	0xc
 2121 0303 66       		.byte	0x66
 2122 0304 E2000000 		.4byte	0xe2
 2123 0308 04       		.byte	0x4
 2124 0309 0E       		.uleb128 0xe
 2125 030a E3070000 		.4byte	.LASF79
 2126 030e 0C       		.byte	0xc
 2127 030f 67       		.byte	0x67
 2128 0310 67020000 		.4byte	0x267
 2129 0314 08       		.byte	0x8
 2130 0315 0E       		.uleb128 0xe
 2131 0316 C0060000 		.4byte	.LASF80
 2132 031a 0C       		.byte	0xc
 2133 031b 68       		.byte	0x68
 2134 031c 67020000 		.4byte	0x267
 2135 0320 0C       		.byte	0xc
 2136 0321 0F       		.uleb128 0xf
 2137 0322 6D617800 		.ascii	"max\000"
 2138 0326 0C       		.byte	0xc
 2139 0327 69       		.byte	0x69
 2140 0328 67020000 		.4byte	0x267
ARM GAS  C:\Users\Phuong\AppData\Local\Temp\cc08x83E.s 			page 61


 2141 032c 10       		.byte	0x10
 2142 032d 0E       		.uleb128 0xe
 2143 032e BF050000 		.4byte	.LASF81
 2144 0332 0C       		.byte	0xc
 2145 0333 6A       		.byte	0x6a
 2146 0334 E2000000 		.4byte	0xe2
 2147 0338 14       		.byte	0x14
 2148 0339 00       		.byte	0
 2149 033a 06       		.uleb128 0x6
 2150 033b 04       		.byte	0x4
 2151 033c E5020000 		.4byte	0x2e5
 2152 0340 0D       		.uleb128 0xd
 2153 0341 E2050000 		.4byte	.LASF82
 2154 0345 18       		.byte	0x18
 2155 0346 0C       		.byte	0xc
 2156 0347 40       		.byte	0x40
 2157 0348 DC030000 		.4byte	0x3dc
 2158 034c 0E       		.uleb128 0xe
 2159 034d C4090000 		.4byte	.LASF83
 2160 0351 0C       		.byte	0xc
 2161 0352 41       		.byte	0x41
 2162 0353 E2000000 		.4byte	0xe2
 2163 0357 00       		.byte	0
 2164 0358 0E       		.uleb128 0xe
 2165 0359 490A0000 		.4byte	.LASF84
 2166 035d 0C       		.byte	0xc
 2167 035e 42       		.byte	0x42
 2168 035f E2000000 		.4byte	0xe2
 2169 0363 02       		.byte	0x2
 2170 0364 0F       		.uleb128 0xf
 2171 0365 667700   		.ascii	"fw\000"
 2172 0368 0C       		.byte	0xc
 2173 0369 43       		.byte	0x43
 2174 036a E2000000 		.4byte	0xe2
 2175 036e 04       		.byte	0x4
 2176 036f 0E       		.uleb128 0xe
 2177 0370 C9090000 		.4byte	.LASF85
 2178 0374 0C       		.byte	0xc
 2179 0375 44       		.byte	0x44
 2180 0376 E2000000 		.4byte	0xe2
 2181 037a 06       		.byte	0x6
 2182 037b 0E       		.uleb128 0xe
 2183 037c CD060000 		.4byte	.LASF86
 2184 0380 0C       		.byte	0xc
 2185 0381 45       		.byte	0x45
 2186 0382 E2000000 		.4byte	0xe2
 2187 0386 08       		.byte	0x8
 2188 0387 0E       		.uleb128 0xe
 2189 0388 A2080000 		.4byte	.LASF87
 2190 038c 0C       		.byte	0xc
 2191 038d 46       		.byte	0x46
 2192 038e E2000000 		.4byte	0xe2
 2193 0392 0A       		.byte	0xa
 2194 0393 0E       		.uleb128 0xe
 2195 0394 68090000 		.4byte	.LASF88
 2196 0398 0C       		.byte	0xc
 2197 0399 47       		.byte	0x47
ARM GAS  C:\Users\Phuong\AppData\Local\Temp\cc08x83E.s 			page 62


 2198 039a E2000000 		.4byte	0xe2
 2199 039e 0C       		.byte	0xc
 2200 039f 0E       		.uleb128 0xe
 2201 03a0 DD070000 		.4byte	.LASF89
 2202 03a4 0C       		.byte	0xc
 2203 03a5 48       		.byte	0x48
 2204 03a6 E2000000 		.4byte	0xe2
 2205 03aa 0E       		.byte	0xe
 2206 03ab 0E       		.uleb128 0xe
 2207 03ac 05090000 		.4byte	.LASF90
 2208 03b0 0C       		.byte	0xc
 2209 03b1 49       		.byte	0x49
 2210 03b2 E2000000 		.4byte	0xe2
 2211 03b6 10       		.byte	0x10
 2212 03b7 0E       		.uleb128 0xe
 2213 03b8 A6020000 		.4byte	.LASF91
 2214 03bc 0C       		.byte	0xc
 2215 03bd 4A       		.byte	0x4a
 2216 03be E2000000 		.4byte	0xe2
 2217 03c2 12       		.byte	0x12
 2218 03c3 0F       		.uleb128 0xf
 2219 03c4 65727200 		.ascii	"err\000"
 2220 03c8 0C       		.byte	0xc
 2221 03c9 4B       		.byte	0x4b
 2222 03ca E2000000 		.4byte	0xe2
 2223 03ce 14       		.byte	0x14
 2224 03cf 0E       		.uleb128 0xe
 2225 03d0 5A080000 		.4byte	.LASF92
 2226 03d4 0C       		.byte	0xc
 2227 03d5 4C       		.byte	0x4c
 2228 03d6 E2000000 		.4byte	0xe2
 2229 03da 16       		.byte	0x16
 2230 03db 00       		.byte	0
 2231 03dc 0D       		.uleb128 0xd
 2232 03dd 970A0000 		.4byte	.LASF93
 2233 03e1 1C       		.byte	0x1c
 2234 03e2 0C       		.byte	0xc
 2235 03e3 50       		.byte	0x50
 2236 03e4 91040000 		.4byte	0x491
 2237 03e8 0E       		.uleb128 0xe
 2238 03e9 C4090000 		.4byte	.LASF83
 2239 03ed 0C       		.byte	0xc
 2240 03ee 51       		.byte	0x51
 2241 03ef E2000000 		.4byte	0xe2
 2242 03f3 00       		.byte	0
 2243 03f4 0E       		.uleb128 0xe
 2244 03f5 490A0000 		.4byte	.LASF84
 2245 03f9 0C       		.byte	0xc
 2246 03fa 52       		.byte	0x52
 2247 03fb E2000000 		.4byte	0xe2
 2248 03ff 02       		.byte	0x2
 2249 0400 0E       		.uleb128 0xe
 2250 0401 C9090000 		.4byte	.LASF85
 2251 0405 0C       		.byte	0xc
 2252 0406 53       		.byte	0x53
 2253 0407 E2000000 		.4byte	0xe2
 2254 040b 04       		.byte	0x4
ARM GAS  C:\Users\Phuong\AppData\Local\Temp\cc08x83E.s 			page 63


 2255 040c 0E       		.uleb128 0xe
 2256 040d CD060000 		.4byte	.LASF86
 2257 0411 0C       		.byte	0xc
 2258 0412 54       		.byte	0x54
 2259 0413 E2000000 		.4byte	0xe2
 2260 0417 06       		.byte	0x6
 2261 0418 0E       		.uleb128 0xe
 2262 0419 A2080000 		.4byte	.LASF87
 2263 041d 0C       		.byte	0xc
 2264 041e 55       		.byte	0x55
 2265 041f E2000000 		.4byte	0xe2
 2266 0423 08       		.byte	0x8
 2267 0424 0E       		.uleb128 0xe
 2268 0425 68090000 		.4byte	.LASF88
 2269 0429 0C       		.byte	0xc
 2270 042a 56       		.byte	0x56
 2271 042b E2000000 		.4byte	0xe2
 2272 042f 0A       		.byte	0xa
 2273 0430 0E       		.uleb128 0xe
 2274 0431 05090000 		.4byte	.LASF90
 2275 0435 0C       		.byte	0xc
 2276 0436 57       		.byte	0x57
 2277 0437 E2000000 		.4byte	0xe2
 2278 043b 0C       		.byte	0xc
 2279 043c 0E       		.uleb128 0xe
 2280 043d 16090000 		.4byte	.LASF94
 2281 0441 0C       		.byte	0xc
 2282 0442 58       		.byte	0x58
 2283 0443 E2000000 		.4byte	0xe2
 2284 0447 0E       		.byte	0xe
 2285 0448 0E       		.uleb128 0xe
 2286 0449 5A0B0000 		.4byte	.LASF95
 2287 044d 0C       		.byte	0xc
 2288 044e 59       		.byte	0x59
 2289 044f E2000000 		.4byte	0xe2
 2290 0453 10       		.byte	0x10
 2291 0454 0E       		.uleb128 0xe
 2292 0455 23070000 		.4byte	.LASF96
 2293 0459 0C       		.byte	0xc
 2294 045a 5A       		.byte	0x5a
 2295 045b E2000000 		.4byte	0xe2
 2296 045f 12       		.byte	0x12
 2297 0460 0E       		.uleb128 0xe
 2298 0461 63050000 		.4byte	.LASF97
 2299 0465 0C       		.byte	0xc
 2300 0466 5B       		.byte	0x5b
 2301 0467 E2000000 		.4byte	0xe2
 2302 046b 14       		.byte	0x14
 2303 046c 0E       		.uleb128 0xe
 2304 046d AE090000 		.4byte	.LASF98
 2305 0471 0C       		.byte	0xc
 2306 0472 5C       		.byte	0x5c
 2307 0473 E2000000 		.4byte	0xe2
 2308 0477 16       		.byte	0x16
 2309 0478 0E       		.uleb128 0xe
 2310 0479 94030000 		.4byte	.LASF99
 2311 047d 0C       		.byte	0xc
ARM GAS  C:\Users\Phuong\AppData\Local\Temp\cc08x83E.s 			page 64


 2312 047e 5D       		.byte	0x5d
 2313 047f E2000000 		.4byte	0xe2
 2314 0483 18       		.byte	0x18
 2315 0484 0E       		.uleb128 0xe
 2316 0485 F10A0000 		.4byte	.LASF100
 2317 0489 0C       		.byte	0xc
 2318 048a 5E       		.byte	0x5e
 2319 048b E2000000 		.4byte	0xe2
 2320 048f 1A       		.byte	0x1a
 2321 0490 00       		.byte	0
 2322 0491 0D       		.uleb128 0xd
 2323 0492 3B020000 		.4byte	.LASF101
 2324 0496 06       		.byte	0x6
 2325 0497 0C       		.byte	0xc
 2326 0498 6E       		.byte	0x6e
 2327 0499 C2040000 		.4byte	0x4c2
 2328 049d 0E       		.uleb128 0xe
 2329 049e C0060000 		.4byte	.LASF80
 2330 04a2 0C       		.byte	0xc
 2331 04a3 6F       		.byte	0x6f
 2332 04a4 E2000000 		.4byte	0xe2
 2333 04a8 00       		.byte	0
 2334 04a9 0F       		.uleb128 0xf
 2335 04aa 6D617800 		.ascii	"max\000"
 2336 04ae 0C       		.byte	0xc
 2337 04af 70       		.byte	0x70
 2338 04b0 E2000000 		.4byte	0xe2
 2339 04b4 02       		.byte	0x2
 2340 04b5 0F       		.uleb128 0xf
 2341 04b6 65727200 		.ascii	"err\000"
 2342 04ba 0C       		.byte	0xc
 2343 04bb 71       		.byte	0x71
 2344 04bc E2000000 		.4byte	0xe2
 2345 04c0 04       		.byte	0x4
 2346 04c1 00       		.byte	0
 2347 04c2 0D       		.uleb128 0xd
 2348 04c3 33090000 		.4byte	.LASF102
 2349 04c7 12       		.byte	0x12
 2350 04c8 0C       		.byte	0xc
 2351 04c9 75       		.byte	0x75
 2352 04ca F3040000 		.4byte	0x4f3
 2353 04ce 0F       		.uleb128 0xf
 2354 04cf 73656D00 		.ascii	"sem\000"
 2355 04d3 0C       		.byte	0xc
 2356 04d4 76       		.byte	0x76
 2357 04d5 91040000 		.4byte	0x491
 2358 04d9 00       		.byte	0
 2359 04da 0E       		.uleb128 0xe
 2360 04db B8020000 		.4byte	.LASF103
 2361 04df 0C       		.byte	0xc
 2362 04e0 77       		.byte	0x77
 2363 04e1 91040000 		.4byte	0x491
 2364 04e5 06       		.byte	0x6
 2365 04e6 0E       		.uleb128 0xe
 2366 04e7 19080000 		.4byte	.LASF104
 2367 04eb 0C       		.byte	0xc
 2368 04ec 78       		.byte	0x78
ARM GAS  C:\Users\Phuong\AppData\Local\Temp\cc08x83E.s 			page 65


 2369 04ed 91040000 		.4byte	0x491
 2370 04f1 0C       		.byte	0xc
 2371 04f2 00       		.byte	0
 2372 04f3 10       		.uleb128 0x10
 2373 04f4 E9040000 		.4byte	.LASF105
 2374 04f8 1801     		.2byte	0x118
 2375 04fa 0C       		.byte	0xc
 2376 04fb E8       		.byte	0xe8
 2377 04fc 7D050000 		.4byte	0x57d
 2378 0500 0E       		.uleb128 0xe
 2379 0501 95090000 		.4byte	.LASF106
 2380 0505 0C       		.byte	0xc
 2381 0506 EB       		.byte	0xeb
 2382 0507 40030000 		.4byte	0x340
 2383 050b 00       		.byte	0
 2384 050c 0E       		.uleb128 0xe
 2385 050d A4030000 		.4byte	.LASF107
 2386 0511 0C       		.byte	0xc
 2387 0512 EF       		.byte	0xef
 2388 0513 40030000 		.4byte	0x340
 2389 0517 18       		.byte	0x18
 2390 0518 0E       		.uleb128 0xe
 2391 0519 50030000 		.4byte	.LASF108
 2392 051d 0C       		.byte	0xc
 2393 051e F3       		.byte	0xf3
 2394 051f 40030000 		.4byte	0x340
 2395 0523 30       		.byte	0x30
 2396 0524 0F       		.uleb128 0xf
 2397 0525 697000   		.ascii	"ip\000"
 2398 0528 0C       		.byte	0xc
 2399 0529 F7       		.byte	0xf7
 2400 052a 40030000 		.4byte	0x340
 2401 052e 48       		.byte	0x48
 2402 052f 0E       		.uleb128 0xe
 2403 0530 CF070000 		.4byte	.LASF109
 2404 0534 0C       		.byte	0xc
 2405 0535 FB       		.byte	0xfb
 2406 0536 40030000 		.4byte	0x340
 2407 053a 60       		.byte	0x60
 2408 053b 0E       		.uleb128 0xe
 2409 053c CD030000 		.4byte	.LASF110
 2410 0540 0C       		.byte	0xc
 2411 0541 FF       		.byte	0xff
 2412 0542 DC030000 		.4byte	0x3dc
 2413 0546 78       		.byte	0x78
 2414 0547 11       		.uleb128 0x11
 2415 0548 75647000 		.ascii	"udp\000"
 2416 054c 0C       		.byte	0xc
 2417 054d 0301     		.2byte	0x103
 2418 054f 40030000 		.4byte	0x340
 2419 0553 94       		.byte	0x94
 2420 0554 11       		.uleb128 0x11
 2421 0555 74637000 		.ascii	"tcp\000"
 2422 0559 0C       		.byte	0xc
 2423 055a 0701     		.2byte	0x107
 2424 055c 40030000 		.4byte	0x340
 2425 0560 AC       		.byte	0xac
ARM GAS  C:\Users\Phuong\AppData\Local\Temp\cc08x83E.s 			page 66


 2426 0561 12       		.uleb128 0x12
 2427 0562 94080000 		.4byte	.LASF111
 2428 0566 0C       		.byte	0xc
 2429 0567 0F01     		.2byte	0x10f
 2430 0569 7D050000 		.4byte	0x57d
 2431 056d C4       		.byte	0xc4
 2432 056e 13       		.uleb128 0x13
 2433 056f 73797300 		.ascii	"sys\000"
 2434 0573 0C       		.byte	0xc
 2435 0574 1301     		.2byte	0x113
 2436 0576 C2040000 		.4byte	0x4c2
 2437 057a 0401     		.2byte	0x104
 2438 057c 00       		.byte	0
 2439 057d 08       		.uleb128 0x8
 2440 057e 3A030000 		.4byte	0x33a
 2441 0582 8D050000 		.4byte	0x58d
 2442 0586 09       		.uleb128 0x9
 2443 0587 8A000000 		.4byte	0x8a
 2444 058b 0F       		.byte	0xf
 2445 058c 00       		.byte	0
 2446 058d 14       		.uleb128 0x14
 2447 058e 42090000 		.4byte	.LASF115
 2448 0592 01       		.byte	0x1
 2449 0593 2C000000 		.4byte	0x2c
 2450 0597 0D       		.byte	0xd
 2451 0598 6B       		.byte	0x6b
 2452 0599 B0050000 		.4byte	0x5b0
 2453 059d 0B       		.uleb128 0xb
 2454 059e 4E0A0000 		.4byte	.LASF112
 2455 05a2 00       		.byte	0
 2456 05a3 0B       		.uleb128 0xb
 2457 05a4 8B000000 		.4byte	.LASF113
 2458 05a8 01       		.byte	0x1
 2459 05a9 0B       		.uleb128 0xb
 2460 05aa E5090000 		.4byte	.LASF114
 2461 05ae 02       		.byte	0x2
 2462 05af 00       		.byte	0
 2463 05b0 14       		.uleb128 0x14
 2464 05b1 D0080000 		.4byte	.LASF116
 2465 05b5 01       		.byte	0x1
 2466 05b6 2C000000 		.4byte	0x2c
 2467 05ba 0D       		.byte	0xd
 2468 05bb 8F       		.byte	0x8f
 2469 05bc CD050000 		.4byte	0x5cd
 2470 05c0 0B       		.uleb128 0xb
 2471 05c1 38070000 		.4byte	.LASF117
 2472 05c5 00       		.byte	0
 2473 05c6 0B       		.uleb128 0xb
 2474 05c7 EE050000 		.4byte	.LASF118
 2475 05cb 01       		.byte	0x1
 2476 05cc 00       		.byte	0
 2477 05cd 06       		.uleb128 0x6
 2478 05ce 04       		.byte	0x4
 2479 05cf D3050000 		.4byte	0x5d3
 2480 05d3 0D       		.uleb128 0xd
 2481 05d4 060A0000 		.4byte	.LASF119
 2482 05d8 48       		.byte	0x48
ARM GAS  C:\Users\Phuong\AppData\Local\Temp\cc08x83E.s 			page 67


 2483 05d9 0D       		.byte	0xd
 2484 05da E1       		.byte	0xe1
 2485 05db CF060000 		.4byte	0x6cf
 2486 05df 0E       		.uleb128 0xe
 2487 05e0 35010000 		.4byte	.LASF49
 2488 05e4 0D       		.byte	0xd
 2489 05e5 E3       		.byte	0xe3
 2490 05e6 CD050000 		.4byte	0x5cd
 2491 05ea 00       		.byte	0
 2492 05eb 0E       		.uleb128 0xe
 2493 05ec 1E040000 		.4byte	.LASF120
 2494 05f0 0D       		.byte	0xd
 2495 05f1 E7       		.byte	0xe7
 2496 05f2 5C020000 		.4byte	0x25c
 2497 05f6 04       		.byte	0x4
 2498 05f7 0E       		.uleb128 0xe
 2499 05f8 4C060000 		.4byte	.LASF121
 2500 05fc 0D       		.byte	0xd
 2501 05fd E8       		.byte	0xe8
 2502 05fe 5C020000 		.4byte	0x25c
 2503 0602 08       		.byte	0x8
 2504 0603 0F       		.uleb128 0xf
 2505 0604 677700   		.ascii	"gw\000"
 2506 0607 0D       		.byte	0xd
 2507 0608 E9       		.byte	0xe9
 2508 0609 5C020000 		.4byte	0x25c
 2509 060d 0C       		.byte	0xc
 2510 060e 0E       		.uleb128 0xe
 2511 060f 43000000 		.4byte	.LASF122
 2512 0613 0D       		.byte	0xd
 2513 0614 F4       		.byte	0xf4
 2514 0615 CF060000 		.4byte	0x6cf
 2515 0619 10       		.byte	0x10
 2516 061a 0E       		.uleb128 0xe
 2517 061b 15050000 		.4byte	.LASF123
 2518 061f 0D       		.byte	0xd
 2519 0620 FA       		.byte	0xfa
 2520 0621 F4060000 		.4byte	0x6f4
 2521 0625 14       		.byte	0x14
 2522 0626 0E       		.uleb128 0xe
 2523 0627 5E010000 		.4byte	.LASF124
 2524 062b 0D       		.byte	0xd
 2525 062c FF       		.byte	0xff
 2526 062d 29070000 		.4byte	0x729
 2527 0631 18       		.byte	0x18
 2528 0632 12       		.uleb128 0x12
 2529 0633 69060000 		.4byte	.LASF125
 2530 0637 0D       		.byte	0xd
 2531 0638 0A01     		.2byte	0x10a
 2532 063a 4E070000 		.4byte	0x74e
 2533 063e 1C       		.byte	0x1c
 2534 063f 12       		.uleb128 0x12
 2535 0640 CE090000 		.4byte	.LASF126
 2536 0644 0D       		.byte	0xd
 2537 0645 1701     		.2byte	0x117
 2538 0647 88000000 		.4byte	0x88
 2539 064b 20       		.byte	0x20
ARM GAS  C:\Users\Phuong\AppData\Local\Temp\cc08x83E.s 			page 68


 2540 064c 12       		.uleb128 0x12
 2541 064d B3050000 		.4byte	.LASF127
 2542 0651 0D       		.byte	0xd
 2543 0652 1901     		.2byte	0x119
 2544 0654 BC000000 		.4byte	0xbc
 2545 0658 24       		.byte	0x24
 2546 0659 12       		.uleb128 0x12
 2547 065a 8B080000 		.4byte	.LASF128
 2548 065e 0D       		.byte	0xd
 2549 065f 2101     		.2byte	0x121
 2550 0661 CC000000 		.4byte	0xcc
 2551 0665 2C       		.byte	0x2c
 2552 0666 12       		.uleb128 0x12
 2553 0667 72010000 		.4byte	.LASF129
 2554 066b 0D       		.byte	0xd
 2555 066c 2501     		.2byte	0x125
 2556 066e 98000000 		.4byte	0x98
 2557 0672 30       		.byte	0x30
 2558 0673 11       		.uleb128 0x11
 2559 0674 6D747500 		.ascii	"mtu\000"
 2560 0678 0D       		.byte	0xd
 2561 0679 2B01     		.2byte	0x12b
 2562 067b E2000000 		.4byte	0xe2
 2563 067f 34       		.byte	0x34
 2564 0680 12       		.uleb128 0x12
 2565 0681 F7030000 		.4byte	.LASF130
 2566 0685 0D       		.byte	0xd
 2567 0686 2D01     		.2byte	0x12d
 2568 0688 CC000000 		.4byte	0xcc
 2569 068c 36       		.byte	0x36
 2570 068d 12       		.uleb128 0x12
 2571 068e 9D030000 		.4byte	.LASF131
 2572 0692 0D       		.byte	0xd
 2573 0693 2F01     		.2byte	0x12f
 2574 0695 94070000 		.4byte	0x794
 2575 0699 37       		.byte	0x37
 2576 069a 12       		.uleb128 0x12
 2577 069b CA000000 		.4byte	.LASF53
 2578 069f 0D       		.byte	0xd
 2579 06a0 3101     		.2byte	0x131
 2580 06a2 CC000000 		.4byte	0xcc
 2581 06a6 3D       		.byte	0x3d
 2582 06a7 12       		.uleb128 0x12
 2583 06a8 72080000 		.4byte	.LASF78
 2584 06ac 0D       		.byte	0xd
 2585 06ad 3301     		.2byte	0x133
 2586 06af A4070000 		.4byte	0x7a4
 2587 06b3 3E       		.byte	0x3e
 2588 06b4 11       		.uleb128 0x11
 2589 06b5 6E756D00 		.ascii	"num\000"
 2590 06b9 0D       		.byte	0xd
 2591 06ba 3501     		.2byte	0x135
 2592 06bc CC000000 		.4byte	0xcc
 2593 06c0 40       		.byte	0x40
 2594 06c1 12       		.uleb128 0x12
 2595 06c2 D2050000 		.4byte	.LASF132
 2596 06c6 0D       		.byte	0xd
ARM GAS  C:\Users\Phuong\AppData\Local\Temp\cc08x83E.s 			page 69


 2597 06c7 4301     		.2byte	0x143
 2598 06c9 6A070000 		.4byte	0x76a
 2599 06cd 44       		.byte	0x44
 2600 06ce 00       		.byte	0
 2601 06cf 03       		.uleb128 0x3
 2602 06d0 50020000 		.4byte	.LASF133
 2603 06d4 0D       		.byte	0xd
 2604 06d5 A2       		.byte	0xa2
 2605 06d6 DA060000 		.4byte	0x6da
 2606 06da 06       		.uleb128 0x6
 2607 06db 04       		.byte	0x4
 2608 06dc E0060000 		.4byte	0x6e0
 2609 06e0 15       		.uleb128 0x15
 2610 06e1 03010000 		.4byte	0x103
 2611 06e5 F4060000 		.4byte	0x6f4
 2612 06e9 16       		.uleb128 0x16
 2613 06ea 32020000 		.4byte	0x232
 2614 06ee 16       		.uleb128 0x16
 2615 06ef CD050000 		.4byte	0x5cd
 2616 06f3 00       		.byte	0
 2617 06f4 03       		.uleb128 0x3
 2618 06f5 D3010000 		.4byte	.LASF134
 2619 06f9 0D       		.byte	0xd
 2620 06fa AD       		.byte	0xad
 2621 06fb FF060000 		.4byte	0x6ff
 2622 06ff 06       		.uleb128 0x6
 2623 0700 04       		.byte	0x4
 2624 0701 05070000 		.4byte	0x705
 2625 0705 15       		.uleb128 0x15
 2626 0706 03010000 		.4byte	0x103
 2627 070a 1E070000 		.4byte	0x71e
 2628 070e 16       		.uleb128 0x16
 2629 070f CD050000 		.4byte	0x5cd
 2630 0713 16       		.uleb128 0x16
 2631 0714 32020000 		.4byte	0x232
 2632 0718 16       		.uleb128 0x16
 2633 0719 1E070000 		.4byte	0x71e
 2634 071d 00       		.byte	0
 2635 071e 06       		.uleb128 0x6
 2636 071f 04       		.byte	0x4
 2637 0720 24070000 		.4byte	0x724
 2638 0724 07       		.uleb128 0x7
 2639 0725 51020000 		.4byte	0x251
 2640 0729 03       		.uleb128 0x3
 2641 072a 77080000 		.4byte	.LASF135
 2642 072e 0D       		.byte	0xd
 2643 072f C4       		.byte	0xc4
 2644 0730 34070000 		.4byte	0x734
 2645 0734 06       		.uleb128 0x6
 2646 0735 04       		.byte	0x4
 2647 0736 3A070000 		.4byte	0x73a
 2648 073a 15       		.uleb128 0x15
 2649 073b 03010000 		.4byte	0x103
 2650 073f 4E070000 		.4byte	0x74e
 2651 0743 16       		.uleb128 0x16
 2652 0744 CD050000 		.4byte	0x5cd
 2653 0748 16       		.uleb128 0x16
ARM GAS  C:\Users\Phuong\AppData\Local\Temp\cc08x83E.s 			page 70


 2654 0749 32020000 		.4byte	0x232
 2655 074d 00       		.byte	0
 2656 074e 03       		.uleb128 0x3
 2657 074f 7C090000 		.4byte	.LASF136
 2658 0753 0D       		.byte	0xd
 2659 0754 C6       		.byte	0xc6
 2660 0755 59070000 		.4byte	0x759
 2661 0759 06       		.uleb128 0x6
 2662 075a 04       		.byte	0x4
 2663 075b 5F070000 		.4byte	0x75f
 2664 075f 17       		.uleb128 0x17
 2665 0760 6A070000 		.4byte	0x76a
 2666 0764 16       		.uleb128 0x16
 2667 0765 CD050000 		.4byte	0x5cd
 2668 0769 00       		.byte	0
 2669 076a 03       		.uleb128 0x3
 2670 076b 1F0A0000 		.4byte	.LASF137
 2671 076f 0D       		.byte	0xd
 2672 0770 C9       		.byte	0xc9
 2673 0771 75070000 		.4byte	0x775
 2674 0775 06       		.uleb128 0x6
 2675 0776 04       		.byte	0x4
 2676 0777 7B070000 		.4byte	0x77b
 2677 077b 15       		.uleb128 0x15
 2678 077c 03010000 		.4byte	0x103
 2679 0780 94070000 		.4byte	0x794
 2680 0784 16       		.uleb128 0x16
 2681 0785 CD050000 		.4byte	0x5cd
 2682 0789 16       		.uleb128 0x16
 2683 078a 1E070000 		.4byte	0x71e
 2684 078e 16       		.uleb128 0x16
 2685 078f B0050000 		.4byte	0x5b0
 2686 0793 00       		.byte	0
 2687 0794 08       		.uleb128 0x8
 2688 0795 CC000000 		.4byte	0xcc
 2689 0799 A4070000 		.4byte	0x7a4
 2690 079d 09       		.uleb128 0x9
 2691 079e 8A000000 		.4byte	0x8a
 2692 07a2 05       		.byte	0x5
 2693 07a3 00       		.byte	0
 2694 07a4 08       		.uleb128 0x8
 2695 07a5 91000000 		.4byte	0x91
 2696 07a9 B4070000 		.4byte	0x7b4
 2697 07ad 09       		.uleb128 0x9
 2698 07ae 8A000000 		.4byte	0x8a
 2699 07b2 01       		.byte	0x1
 2700 07b3 00       		.byte	0
 2701 07b4 0D       		.uleb128 0xd
 2702 07b5 100B0000 		.4byte	.LASF138
 2703 07b9 04       		.byte	0x4
 2704 07ba 0E       		.byte	0xe
 2705 07bb 35       		.byte	0x35
 2706 07bc CD070000 		.4byte	0x7cd
 2707 07c0 0E       		.uleb128 0xe
 2708 07c1 A9090000 		.4byte	.LASF56
 2709 07c5 0E       		.byte	0xe
 2710 07c6 36       		.byte	0x36
ARM GAS  C:\Users\Phuong\AppData\Local\Temp\cc08x83E.s 			page 71


 2711 07c7 F8000000 		.4byte	0xf8
 2712 07cb 00       		.byte	0
 2713 07cc 00       		.byte	0
 2714 07cd 03       		.uleb128 0x3
 2715 07ce 75070000 		.4byte	.LASF139
 2716 07d2 0E       		.byte	0xe
 2717 07d3 3D       		.byte	0x3d
 2718 07d4 B4070000 		.4byte	0x7b4
 2719 07d8 0D       		.uleb128 0xd
 2720 07d9 AB030000 		.4byte	.LASF140
 2721 07dd 14       		.byte	0x14
 2722 07de 0E       		.byte	0xe
 2723 07df 47       		.byte	0x47
 2724 07e0 5D080000 		.4byte	0x85d
 2725 07e4 0E       		.uleb128 0xe
 2726 07e5 A1060000 		.4byte	.LASF141
 2727 07e9 0E       		.byte	0xe
 2728 07ea 49       		.byte	0x49
 2729 07eb CC000000 		.4byte	0xcc
 2730 07ef 00       		.byte	0
 2731 07f0 0E       		.uleb128 0xe
 2732 07f1 A9080000 		.4byte	.LASF142
 2733 07f5 0E       		.byte	0xe
 2734 07f6 4B       		.byte	0x4b
 2735 07f7 CC000000 		.4byte	0xcc
 2736 07fb 01       		.byte	0x1
 2737 07fc 0E       		.uleb128 0xe
 2738 07fd D70A0000 		.4byte	.LASF143
 2739 0801 0E       		.byte	0xe
 2740 0802 4D       		.byte	0x4d
 2741 0803 E2000000 		.4byte	0xe2
 2742 0807 02       		.byte	0x2
 2743 0808 0F       		.uleb128 0xf
 2744 0809 5F696400 		.ascii	"_id\000"
 2745 080d 0E       		.byte	0xe
 2746 080e 4F       		.byte	0x4f
 2747 080f E2000000 		.4byte	0xe2
 2748 0813 04       		.byte	0x4
 2749 0814 0E       		.uleb128 0xe
 2750 0815 02040000 		.4byte	.LASF144
 2751 0819 0E       		.byte	0xe
 2752 081a 51       		.byte	0x51
 2753 081b E2000000 		.4byte	0xe2
 2754 081f 06       		.byte	0x6
 2755 0820 0E       		.uleb128 0xe
 2756 0821 80010000 		.4byte	.LASF145
 2757 0825 0E       		.byte	0xe
 2758 0826 57       		.byte	0x57
 2759 0827 CC000000 		.4byte	0xcc
 2760 082b 08       		.byte	0x8
 2761 082c 0E       		.uleb128 0xe
 2762 082d 0E060000 		.4byte	.LASF146
 2763 0831 0E       		.byte	0xe
 2764 0832 59       		.byte	0x59
 2765 0833 CC000000 		.4byte	0xcc
 2766 0837 09       		.byte	0x9
 2767 0838 0E       		.uleb128 0xe
ARM GAS  C:\Users\Phuong\AppData\Local\Temp\cc08x83E.s 			page 72


 2768 0839 EF030000 		.4byte	.LASF147
 2769 083d 0E       		.byte	0xe
 2770 083e 5B       		.byte	0x5b
 2771 083f E2000000 		.4byte	0xe2
 2772 0843 0A       		.byte	0xa
 2773 0844 0F       		.uleb128 0xf
 2774 0845 73726300 		.ascii	"src\000"
 2775 0849 0E       		.byte	0xe
 2776 084a 5D       		.byte	0x5d
 2777 084b CD070000 		.4byte	0x7cd
 2778 084f 0C       		.byte	0xc
 2779 0850 0E       		.uleb128 0xe
 2780 0851 360B0000 		.4byte	.LASF148
 2781 0855 0E       		.byte	0xe
 2782 0856 5E       		.byte	0x5e
 2783 0857 CD070000 		.4byte	0x7cd
 2784 085b 10       		.byte	0x10
 2785 085c 00       		.byte	0
 2786 085d 0D       		.uleb128 0xd
 2787 085e 9E050000 		.4byte	.LASF149
 2788 0862 18       		.byte	0x18
 2789 0863 0F       		.byte	0xf
 2790 0864 69       		.byte	0x69
 2791 0865 B2080000 		.4byte	0x8b2
 2792 0869 0E       		.uleb128 0xe
 2793 086a 98070000 		.4byte	.LASF150
 2794 086e 0F       		.byte	0xf
 2795 086f 6C       		.byte	0x6c
 2796 0870 CD050000 		.4byte	0x5cd
 2797 0874 00       		.byte	0
 2798 0875 0E       		.uleb128 0xe
 2799 0876 AD000000 		.4byte	.LASF151
 2800 087a 0F       		.byte	0xf
 2801 087b 6E       		.byte	0x6e
 2802 087c CD050000 		.4byte	0x5cd
 2803 0880 04       		.byte	0x4
 2804 0881 0E       		.uleb128 0xe
 2805 0882 B7010000 		.4byte	.LASF152
 2806 0886 0F       		.byte	0xf
 2807 0887 71       		.byte	0x71
 2808 0888 B2080000 		.4byte	0x8b2
 2809 088c 08       		.byte	0x8
 2810 088d 0E       		.uleb128 0xe
 2811 088e F8060000 		.4byte	.LASF153
 2812 0892 0F       		.byte	0xf
 2813 0893 78       		.byte	0x78
 2814 0894 E2000000 		.4byte	0xe2
 2815 0898 0C       		.byte	0xc
 2816 0899 0E       		.uleb128 0xe
 2817 089a D2030000 		.4byte	.LASF154
 2818 089e 0F       		.byte	0xf
 2819 089f 7A       		.byte	0x7a
 2820 08a0 5C020000 		.4byte	0x25c
 2821 08a4 10       		.byte	0x10
 2822 08a5 0E       		.uleb128 0xe
 2823 08a6 AB0A0000 		.4byte	.LASF155
 2824 08aa 0F       		.byte	0xf
ARM GAS  C:\Users\Phuong\AppData\Local\Temp\cc08x83E.s 			page 73


 2825 08ab 7C       		.byte	0x7c
 2826 08ac 5C020000 		.4byte	0x25c
 2827 08b0 14       		.byte	0x14
 2828 08b1 00       		.byte	0
 2829 08b2 06       		.uleb128 0x6
 2830 08b3 04       		.byte	0x4
 2831 08b4 D8070000 		.4byte	0x7d8
 2832 08b8 0D       		.uleb128 0xd
 2833 08b9 8F0A0000 		.4byte	.LASF156
 2834 08bd 08       		.byte	0x8
 2835 08be 10       		.byte	0x10
 2836 08bf 35       		.byte	0x35
 2837 08c0 F5080000 		.4byte	0x8f5
 2838 08c4 0F       		.uleb128 0xf
 2839 08c5 73726300 		.ascii	"src\000"
 2840 08c9 10       		.byte	0x10
 2841 08ca 36       		.byte	0x36
 2842 08cb E2000000 		.4byte	0xe2
 2843 08cf 00       		.byte	0
 2844 08d0 0E       		.uleb128 0xe
 2845 08d1 360B0000 		.4byte	.LASF148
 2846 08d5 10       		.byte	0x10
 2847 08d6 37       		.byte	0x37
 2848 08d7 E2000000 		.4byte	0xe2
 2849 08db 02       		.byte	0x2
 2850 08dc 0F       		.uleb128 0xf
 2851 08dd 6C656E00 		.ascii	"len\000"
 2852 08e1 10       		.byte	0x10
 2853 08e2 38       		.byte	0x38
 2854 08e3 E2000000 		.4byte	0xe2
 2855 08e7 04       		.byte	0x4
 2856 08e8 0E       		.uleb128 0xe
 2857 08e9 F0040000 		.4byte	.LASF157
 2858 08ed 10       		.byte	0x10
 2859 08ee 39       		.byte	0x39
 2860 08ef E2000000 		.4byte	0xe2
 2861 08f3 06       		.byte	0x6
 2862 08f4 00       		.byte	0
 2863 08f5 03       		.uleb128 0x3
 2864 08f6 B3070000 		.4byte	.LASF158
 2865 08fa 11       		.byte	0x11
 2866 08fb 4D       		.byte	0x4d
 2867 08fc 00090000 		.4byte	0x900
 2868 0900 06       		.uleb128 0x6
 2869 0901 04       		.byte	0x4
 2870 0902 06090000 		.4byte	0x906
 2871 0906 17       		.uleb128 0x17
 2872 0907 25090000 		.4byte	0x925
 2873 090b 16       		.uleb128 0x16
 2874 090c 88000000 		.4byte	0x88
 2875 0910 16       		.uleb128 0x16
 2876 0911 25090000 		.4byte	0x925
 2877 0915 16       		.uleb128 0x16
 2878 0916 32020000 		.4byte	0x232
 2879 091a 16       		.uleb128 0x16
 2880 091b D4090000 		.4byte	0x9d4
 2881 091f 16       		.uleb128 0x16
ARM GAS  C:\Users\Phuong\AppData\Local\Temp\cc08x83E.s 			page 74


 2882 0920 E2000000 		.4byte	0xe2
 2883 0924 00       		.byte	0
 2884 0925 06       		.uleb128 0x6
 2885 0926 04       		.byte	0x4
 2886 0927 2B090000 		.4byte	0x92b
 2887 092b 0D       		.uleb128 0xd
 2888 092c 09000000 		.4byte	.LASF159
 2889 0930 28       		.byte	0x28
 2890 0931 11       		.byte	0x11
 2891 0932 51       		.byte	0x51
 2892 0933 D4090000 		.4byte	0x9d4
 2893 0937 0E       		.uleb128 0xe
 2894 0938 10080000 		.4byte	.LASF160
 2895 093c 11       		.byte	0x11
 2896 093d 53       		.byte	0x53
 2897 093e 5C020000 		.4byte	0x25c
 2898 0942 00       		.byte	0
 2899 0943 0E       		.uleb128 0xe
 2900 0944 BE0A0000 		.4byte	.LASF161
 2901 0948 11       		.byte	0x11
 2902 0949 53       		.byte	0x53
 2903 094a 5C020000 		.4byte	0x25c
 2904 094e 04       		.byte	0x4
 2905 094f 0E       		.uleb128 0xe
 2906 0950 33000000 		.4byte	.LASF162
 2907 0954 11       		.byte	0x11
 2908 0955 53       		.byte	0x53
 2909 0956 CC000000 		.4byte	0xcc
 2910 095a 08       		.byte	0x8
 2911 095b 0F       		.uleb128 0xf
 2912 095c 746F7300 		.ascii	"tos\000"
 2913 0960 11       		.byte	0x11
 2914 0961 53       		.byte	0x53
 2915 0962 CC000000 		.4byte	0xcc
 2916 0966 09       		.byte	0x9
 2917 0967 0F       		.uleb128 0xf
 2918 0968 74746C00 		.ascii	"ttl\000"
 2919 096c 11       		.byte	0x11
 2920 096d 53       		.byte	0x53
 2921 096e CC000000 		.4byte	0xcc
 2922 0972 0A       		.byte	0xa
 2923 0973 0E       		.uleb128 0xe
 2924 0974 35010000 		.4byte	.LASF49
 2925 0978 11       		.byte	0x11
 2926 0979 57       		.byte	0x57
 2927 097a 25090000 		.4byte	0x925
 2928 097e 0C       		.byte	0xc
 2929 097f 0E       		.uleb128 0xe
 2930 0980 CA000000 		.4byte	.LASF53
 2931 0984 11       		.byte	0x11
 2932 0985 59       		.byte	0x59
 2933 0986 CC000000 		.4byte	0xcc
 2934 098a 10       		.byte	0x10
 2935 098b 0E       		.uleb128 0xe
 2936 098c AD020000 		.4byte	.LASF163
 2937 0990 11       		.byte	0x11
 2938 0991 5B       		.byte	0x5b
ARM GAS  C:\Users\Phuong\AppData\Local\Temp\cc08x83E.s 			page 75


 2939 0992 E2000000 		.4byte	0xe2
 2940 0996 12       		.byte	0x12
 2941 0997 0E       		.uleb128 0xe
 2942 0998 B4060000 		.4byte	.LASF164
 2943 099c 11       		.byte	0x11
 2944 099d 5B       		.byte	0x5b
 2945 099e E2000000 		.4byte	0xe2
 2946 09a2 14       		.byte	0x14
 2947 09a3 0E       		.uleb128 0xe
 2948 09a4 56070000 		.4byte	.LASF165
 2949 09a8 11       		.byte	0x11
 2950 09a9 5F       		.byte	0x5f
 2951 09aa 5C020000 		.4byte	0x25c
 2952 09ae 18       		.byte	0x18
 2953 09af 0E       		.uleb128 0xe
 2954 09b0 91010000 		.4byte	.LASF166
 2955 09b4 11       		.byte	0x11
 2956 09b5 61       		.byte	0x61
 2957 09b6 CC000000 		.4byte	0xcc
 2958 09ba 1C       		.byte	0x1c
 2959 09bb 0E       		.uleb128 0xe
 2960 09bc 490A0000 		.4byte	.LASF84
 2961 09c0 11       		.byte	0x11
 2962 09c1 6A       		.byte	0x6a
 2963 09c2 F5080000 		.4byte	0x8f5
 2964 09c6 20       		.byte	0x20
 2965 09c7 0E       		.uleb128 0xe
 2966 09c8 99080000 		.4byte	.LASF167
 2967 09cc 11       		.byte	0x11
 2968 09cd 6C       		.byte	0x6c
 2969 09ce 88000000 		.4byte	0x88
 2970 09d2 24       		.byte	0x24
 2971 09d3 00       		.byte	0
 2972 09d4 06       		.uleb128 0x6
 2973 09d5 04       		.byte	0x4
 2974 09d6 DA090000 		.4byte	0x9da
 2975 09da 07       		.uleb128 0x7
 2976 09db 5C020000 		.4byte	0x25c
 2977 09df 14       		.uleb128 0x14
 2978 09e0 4C0B0000 		.4byte	.LASF168
 2979 09e4 01       		.byte	0x1
 2980 09e5 2C000000 		.4byte	0x2c
 2981 09e9 12       		.byte	0x12
 2982 09ea 37       		.byte	0x37
 2983 09eb 140A0000 		.4byte	0xa14
 2984 09ef 0B       		.uleb128 0xb
 2985 09f0 3A010000 		.4byte	.LASF169
 2986 09f4 00       		.byte	0
 2987 09f5 0B       		.uleb128 0xb
 2988 09f6 25000000 		.4byte	.LASF170
 2989 09fa 01       		.byte	0x1
 2990 09fb 0B       		.uleb128 0xb
 2991 09fc 9A090000 		.4byte	.LASF171
 2992 0a00 02       		.byte	0x2
 2993 0a01 0B       		.uleb128 0xb
 2994 0a02 D4060000 		.4byte	.LASF172
 2995 0a06 03       		.byte	0x3
ARM GAS  C:\Users\Phuong\AppData\Local\Temp\cc08x83E.s 			page 76


 2996 0a07 0B       		.uleb128 0xb
 2997 0a08 B6090000 		.4byte	.LASF173
 2998 0a0c 04       		.byte	0x4
 2999 0a0d 0B       		.uleb128 0xb
 3000 0a0e 12040000 		.4byte	.LASF174
 3001 0a12 05       		.byte	0x5
 3002 0a13 00       		.byte	0
 3003 0a14 18       		.uleb128 0x18
 3004 0a15 68020000 		.4byte	.LASF175
 3005 0a19 01       		.byte	0x1
 3006 0a1a 64       		.byte	0x64
 3007 0a1b E2000000 		.4byte	0xe2
 3008 0a1f 00000000 		.4byte	.LFB54
 3009 0a23 58000000 		.4byte	.LFE54-.LFB54
 3010 0a27 01       		.uleb128 0x1
 3011 0a28 9C       		.byte	0x9c
 3012 0a29 550A0000 		.4byte	0xa55
 3013 0a2d 19       		.uleb128 0x19
 3014 0a2e 6E00     		.ascii	"n\000"
 3015 0a30 01       		.byte	0x1
 3016 0a31 66       		.byte	0x66
 3017 0a32 E2000000 		.4byte	0xe2
 3018 0a36 00000000 		.4byte	.LLST0
 3019 0a3a 19       		.uleb128 0x19
 3020 0a3b 70636200 		.ascii	"pcb\000"
 3021 0a3f 01       		.byte	0x1
 3022 0a40 67       		.byte	0x67
 3023 0a41 25090000 		.4byte	0x925
 3024 0a45 35000000 		.4byte	.LLST1
 3025 0a49 1A       		.uleb128 0x1a
 3026 0a4a 61000000 		.4byte	.LASF184
 3027 0a4e 01       		.byte	0x1
 3028 0a4f 69       		.byte	0x69
 3029 0a50 02000000 		.4byte	.L2
 3030 0a54 00       		.byte	0
 3031 0a55 18       		.uleb128 0x18
 3032 0a56 2A060000 		.4byte	.LASF176
 3033 0a5a 01       		.byte	0x1
 3034 0a5b 82       		.byte	0x82
 3035 0a5c CC000000 		.4byte	0xcc
 3036 0a60 00000000 		.4byte	.LFB55
 3037 0a64 58000000 		.4byte	.LFE55-.LFB55
 3038 0a68 01       		.uleb128 0x1
 3039 0a69 9C       		.byte	0x9c
 3040 0a6a 9C0A0000 		.4byte	0xa9c
 3041 0a6e 1B       		.uleb128 0x1b
 3042 0a6f 70636200 		.ascii	"pcb\000"
 3043 0a73 01       		.byte	0x1
 3044 0a74 82       		.byte	0x82
 3045 0a75 25090000 		.4byte	0x925
 3046 0a79 53000000 		.4byte	.LLST2
 3047 0a7d 1B       		.uleb128 0x1b
 3048 0a7e 696E7000 		.ascii	"inp\000"
 3049 0a82 01       		.byte	0x1
 3050 0a83 82       		.byte	0x82
 3051 0a84 CD050000 		.4byte	0x5cd
 3052 0a88 0A010000 		.4byte	.LLST3
ARM GAS  C:\Users\Phuong\AppData\Local\Temp\cc08x83E.s 			page 77


 3053 0a8c 1C       		.uleb128 0x1c
 3054 0a8d 2E070000 		.4byte	.LASF177
 3055 0a91 01       		.byte	0x1
 3056 0a92 82       		.byte	0x82
 3057 0a93 CC000000 		.4byte	0xcc
 3058 0a97 5D010000 		.4byte	.LLST4
 3059 0a9b 00       		.byte	0
 3060 0a9c 1D       		.uleb128 0x1d
 3061 0a9d E2060000 		.4byte	.LASF178
 3062 0aa1 01       		.byte	0x1
 3063 0aa2 57       		.byte	0x57
 3064 0aa3 00000000 		.4byte	.LFB53
 3065 0aa7 20000000 		.4byte	.LFE53-.LFB53
 3066 0aab 01       		.uleb128 0x1
 3067 0aac 9C       		.byte	0x9c
 3068 0aad BB0A0000 		.4byte	0xabb
 3069 0ab1 1E       		.uleb128 0x1e
 3070 0ab2 06000000 		.4byte	.LVL30
 3071 0ab6 07130000 		.4byte	0x1307
 3072 0aba 00       		.byte	0
 3073 0abb 1D       		.uleb128 0x1d
 3074 0abc 420B0000 		.4byte	.LASF179
 3075 0ac0 01       		.byte	0x1
 3076 0ac1 B9       		.byte	0xb9
 3077 0ac2 00000000 		.4byte	.LFB56
 3078 0ac6 FC010000 		.4byte	.LFE56-.LFB56
 3079 0aca 01       		.uleb128 0x1
 3080 0acb 9C       		.byte	0x9c
 3081 0acc B10C0000 		.4byte	0xcb1
 3082 0ad0 1B       		.uleb128 0x1b
 3083 0ad1 7000     		.ascii	"p\000"
 3084 0ad3 01       		.byte	0x1
 3085 0ad4 B9       		.byte	0xb9
 3086 0ad5 32020000 		.4byte	0x232
 3087 0ad9 C9010000 		.4byte	.LLST5
 3088 0add 1B       		.uleb128 0x1b
 3089 0ade 696E7000 		.ascii	"inp\000"
 3090 0ae2 01       		.byte	0x1
 3091 0ae3 B9       		.byte	0xb9
 3092 0ae4 CD050000 		.4byte	0x5cd
 3093 0ae8 42020000 		.4byte	.LLST6
 3094 0aec 1F       		.uleb128 0x1f
 3095 0aed 3B0B0000 		.4byte	.LASF180
 3096 0af1 01       		.byte	0x1
 3097 0af2 BB       		.byte	0xbb
 3098 0af3 B10C0000 		.4byte	0xcb1
 3099 0af7 61020000 		.4byte	.LLST7
 3100 0afb 19       		.uleb128 0x19
 3101 0afc 70636200 		.ascii	"pcb\000"
 3102 0b00 01       		.byte	0x1
 3103 0b01 BC       		.byte	0xbc
 3104 0b02 25090000 		.4byte	0x925
 3105 0b06 7F020000 		.4byte	.LLST8
 3106 0b0a 1F       		.uleb128 0x1f
 3107 0b0b 7B010000 		.4byte	.LASF181
 3108 0b0f 01       		.byte	0x1
 3109 0b10 BC       		.byte	0xbc
ARM GAS  C:\Users\Phuong\AppData\Local\Temp\cc08x83E.s 			page 78


 3110 0b11 25090000 		.4byte	0x925
 3111 0b15 C0020000 		.4byte	.LLST9
 3112 0b19 1F       		.uleb128 0x1f
 3113 0b1a 88050000 		.4byte	.LASF182
 3114 0b1e 01       		.byte	0x1
 3115 0b1f BD       		.byte	0xbd
 3116 0b20 25090000 		.4byte	0x925
 3117 0b24 F5020000 		.4byte	.LLST10
 3118 0b28 19       		.uleb128 0x19
 3119 0b29 73726300 		.ascii	"src\000"
 3120 0b2d 01       		.byte	0x1
 3121 0b2e BE       		.byte	0xbe
 3122 0b2f E2000000 		.4byte	0xe2
 3123 0b33 40030000 		.4byte	.LLST11
 3124 0b37 1F       		.uleb128 0x1f
 3125 0b38 360B0000 		.4byte	.LASF148
 3126 0b3c 01       		.byte	0x1
 3127 0b3d BE       		.byte	0xbe
 3128 0b3e E2000000 		.4byte	0xe2
 3129 0b42 54030000 		.4byte	.LLST12
 3130 0b46 1F       		.uleb128 0x1f
 3131 0b47 2E070000 		.4byte	.LASF177
 3132 0b4b 01       		.byte	0x1
 3133 0b4c BF       		.byte	0xbf
 3134 0b4d CC000000 		.4byte	0xcc
 3135 0b51 7D030000 		.4byte	.LLST13
 3136 0b55 1F       		.uleb128 0x1f
 3137 0b56 F3080000 		.4byte	.LASF183
 3138 0b5a 01       		.byte	0x1
 3139 0b5b C0       		.byte	0xc0
 3140 0b5c CC000000 		.4byte	0xcc
 3141 0b60 9C030000 		.4byte	.LLST14
 3142 0b64 20       		.uleb128 0x20
 3143 0b65 656E6400 		.ascii	"end\000"
 3144 0b69 01       		.byte	0x1
 3145 0b6a A301     		.2byte	0x1a3
 3146 0b6c DC010000 		.4byte	.L28
 3147 0b70 21       		.uleb128 0x21
 3148 0b71 CD060000 		.4byte	.LASF86
 3149 0b75 01       		.byte	0x1
 3150 0b76 A701     		.2byte	0x1a7
 3151 0b78 C4010000 		.4byte	.L40
 3152 0b7c 22       		.uleb128 0x22
 3153 0b7d 38000000 		.4byte	.LVL34
 3154 0b81 12130000 		.4byte	0x1312
 3155 0b85 900B0000 		.4byte	0xb90
 3156 0b89 23       		.uleb128 0x23
 3157 0b8a 01       		.uleb128 0x1
 3158 0b8b 50       		.byte	0x50
 3159 0b8c 02       		.uleb128 0x2
 3160 0b8d 77       		.byte	0x77
 3161 0b8e 00       		.sleb128 0
 3162 0b8f 00       		.byte	0
 3163 0b90 1E       		.uleb128 0x1e
 3164 0b91 48000000 		.4byte	.LVL39
 3165 0b95 1D130000 		.4byte	0x131d
 3166 0b99 1E       		.uleb128 0x1e
ARM GAS  C:\Users\Phuong\AppData\Local\Temp\cc08x83E.s 			page 79


 3167 0b9a 5A000000 		.4byte	.LVL42
 3168 0b9e 28130000 		.4byte	0x1328
 3169 0ba2 1E       		.uleb128 0x1e
 3170 0ba3 6E000000 		.4byte	.LVL44
 3171 0ba7 28130000 		.4byte	0x1328
 3172 0bab 22       		.uleb128 0x22
 3173 0bac 96000000 		.4byte	.LVL50
 3174 0bb0 550A0000 		.4byte	0xa55
 3175 0bb4 CE0B0000 		.4byte	0xbce
 3176 0bb8 23       		.uleb128 0x23
 3177 0bb9 01       		.uleb128 0x1
 3178 0bba 50       		.byte	0x50
 3179 0bbb 02       		.uleb128 0x2
 3180 0bbc 74       		.byte	0x74
 3181 0bbd 00       		.sleb128 0
 3182 0bbe 23       		.uleb128 0x23
 3183 0bbf 01       		.uleb128 0x1
 3184 0bc0 51       		.byte	0x51
 3185 0bc1 03       		.uleb128 0x3
 3186 0bc2 91       		.byte	0x91
 3187 0bc3 4C       		.sleb128 -52
 3188 0bc4 06       		.byte	0x6
 3189 0bc5 23       		.uleb128 0x23
 3190 0bc6 01       		.uleb128 0x1
 3191 0bc7 52       		.byte	0x52
 3192 0bc8 04       		.uleb128 0x4
 3193 0bc9 91       		.byte	0x91
 3194 0bca 50       		.sleb128 -48
 3195 0bcb 94       		.byte	0x94
 3196 0bcc 01       		.byte	0x1
 3197 0bcd 00       		.byte	0
 3198 0bce 22       		.uleb128 0x22
 3199 0bcf 34010000 		.4byte	.LVL65
 3200 0bd3 33130000 		.4byte	0x1333
 3201 0bd7 E70B0000 		.4byte	0xbe7
 3202 0bdb 23       		.uleb128 0x23
 3203 0bdc 01       		.uleb128 0x1
 3204 0bdd 50       		.byte	0x50
 3205 0bde 02       		.uleb128 0x2
 3206 0bdf 77       		.byte	0x77
 3207 0be0 00       		.sleb128 0
 3208 0be1 23       		.uleb128 0x23
 3209 0be2 01       		.uleb128 0x1
 3210 0be3 51       		.byte	0x51
 3211 0be4 01       		.uleb128 0x1
 3212 0be5 41       		.byte	0x41
 3213 0be6 00       		.byte	0
 3214 0be7 22       		.uleb128 0x22
 3215 0be8 42010000 		.4byte	.LVL66
 3216 0bec 3E130000 		.4byte	0x133e
 3217 0bf0 010C0000 		.4byte	0xc01
 3218 0bf4 23       		.uleb128 0x23
 3219 0bf5 01       		.uleb128 0x1
 3220 0bf6 50       		.byte	0x50
 3221 0bf7 02       		.uleb128 0x2
 3222 0bf8 77       		.byte	0x77
 3223 0bf9 00       		.sleb128 0
ARM GAS  C:\Users\Phuong\AppData\Local\Temp\cc08x83E.s 			page 80


 3224 0bfa 23       		.uleb128 0x23
 3225 0bfb 01       		.uleb128 0x1
 3226 0bfc 51       		.byte	0x51
 3227 0bfd 02       		.uleb128 0x2
 3228 0bfe 09       		.byte	0x9
 3229 0bff F8       		.byte	0xf8
 3230 0c00 00       		.byte	0
 3231 0c01 22       		.uleb128 0x22
 3232 0c02 56010000 		.4byte	.LVL67
 3233 0c06 12130000 		.4byte	0x1312
 3234 0c0a 150C0000 		.4byte	0xc15
 3235 0c0e 23       		.uleb128 0x23
 3236 0c0f 01       		.uleb128 0x1
 3237 0c10 50       		.byte	0x50
 3238 0c11 02       		.uleb128 0x2
 3239 0c12 77       		.byte	0x77
 3240 0c13 00       		.sleb128 0
 3241 0c14 00       		.byte	0
 3242 0c15 24       		.uleb128 0x24
 3243 0c16 70010000 		.4byte	.LVL69
 3244 0c1a 02       		.uleb128 0x2
 3245 0c1b 75       		.byte	0x75
 3246 0c1c 00       		.sleb128 0
 3247 0c1d 370C0000 		.4byte	0xc37
 3248 0c21 23       		.uleb128 0x23
 3249 0c22 01       		.uleb128 0x1
 3250 0c23 51       		.byte	0x51
 3251 0c24 02       		.uleb128 0x2
 3252 0c25 74       		.byte	0x74
 3253 0c26 00       		.sleb128 0
 3254 0c27 23       		.uleb128 0x23
 3255 0c28 01       		.uleb128 0x1
 3256 0c29 52       		.byte	0x52
 3257 0c2a 02       		.uleb128 0x2
 3258 0c2b 77       		.byte	0x77
 3259 0c2c 00       		.sleb128 0
 3260 0c2d 23       		.uleb128 0x23
 3261 0c2e 02       		.uleb128 0x2
 3262 0c2f 7D       		.byte	0x7d
 3263 0c30 00       		.sleb128 0
 3264 0c31 04       		.uleb128 0x4
 3265 0c32 91       		.byte	0x91
 3266 0c33 54       		.sleb128 -44
 3267 0c34 94       		.byte	0x94
 3268 0c35 02       		.byte	0x2
 3269 0c36 00       		.byte	0
 3270 0c37 22       		.uleb128 0x22
 3271 0c38 78010000 		.4byte	.LVL70
 3272 0c3c 12130000 		.4byte	0x1312
 3273 0c40 4B0C0000 		.4byte	0xc4b
 3274 0c44 23       		.uleb128 0x23
 3275 0c45 01       		.uleb128 0x1
 3276 0c46 50       		.byte	0x50
 3277 0c47 02       		.uleb128 0x2
 3278 0c48 77       		.byte	0x77
 3279 0c49 00       		.sleb128 0
 3280 0c4a 00       		.byte	0
ARM GAS  C:\Users\Phuong\AppData\Local\Temp\cc08x83E.s 			page 81


 3281 0c4b 22       		.uleb128 0x22
 3282 0c4c 9A010000 		.4byte	.LVL72
 3283 0c50 49130000 		.4byte	0x1349
 3284 0c54 5F0C0000 		.4byte	0xc5f
 3285 0c58 23       		.uleb128 0x23
 3286 0c59 01       		.uleb128 0x1
 3287 0c5a 50       		.byte	0x50
 3288 0c5b 02       		.uleb128 0x2
 3289 0c5c 77       		.byte	0x77
 3290 0c5d 00       		.sleb128 0
 3291 0c5e 00       		.byte	0
 3292 0c5f 22       		.uleb128 0x22
 3293 0c60 A2010000 		.4byte	.LVL73
 3294 0c64 54130000 		.4byte	0x1354
 3295 0c68 780C0000 		.4byte	0xc78
 3296 0c6c 23       		.uleb128 0x23
 3297 0c6d 01       		.uleb128 0x1
 3298 0c6e 50       		.byte	0x50
 3299 0c6f 02       		.uleb128 0x2
 3300 0c70 77       		.byte	0x77
 3301 0c71 00       		.sleb128 0
 3302 0c72 23       		.uleb128 0x23
 3303 0c73 01       		.uleb128 0x1
 3304 0c74 51       		.byte	0x51
 3305 0c75 01       		.uleb128 0x1
 3306 0c76 33       		.byte	0x33
 3307 0c77 00       		.byte	0
 3308 0c78 22       		.uleb128 0x22
 3309 0c79 BA010000 		.4byte	.LVL74
 3310 0c7d 12130000 		.4byte	0x1312
 3311 0c81 8C0C0000 		.4byte	0xc8c
 3312 0c85 23       		.uleb128 0x23
 3313 0c86 01       		.uleb128 0x1
 3314 0c87 50       		.byte	0x50
 3315 0c88 02       		.uleb128 0x2
 3316 0c89 77       		.byte	0x77
 3317 0c8a 00       		.sleb128 0
 3318 0c8b 00       		.byte	0
 3319 0c8c 22       		.uleb128 0x22
 3320 0c8d C2010000 		.4byte	.LVL76
 3321 0c91 12130000 		.4byte	0x1312
 3322 0c95 A00C0000 		.4byte	0xca0
 3323 0c99 23       		.uleb128 0x23
 3324 0c9a 01       		.uleb128 0x1
 3325 0c9b 50       		.byte	0x50
 3326 0c9c 02       		.uleb128 0x2
 3327 0c9d 77       		.byte	0x77
 3328 0c9e 00       		.sleb128 0
 3329 0c9f 00       		.byte	0
 3330 0ca0 25       		.uleb128 0x25
 3331 0ca1 DC010000 		.4byte	.LVL77
 3332 0ca5 12130000 		.4byte	0x1312
 3333 0ca9 23       		.uleb128 0x23
 3334 0caa 01       		.uleb128 0x1
 3335 0cab 50       		.byte	0x50
 3336 0cac 02       		.uleb128 0x2
 3337 0cad 77       		.byte	0x77
ARM GAS  C:\Users\Phuong\AppData\Local\Temp\cc08x83E.s 			page 82


 3338 0cae 00       		.sleb128 0
 3339 0caf 00       		.byte	0
 3340 0cb0 00       		.byte	0
 3341 0cb1 06       		.uleb128 0x6
 3342 0cb2 04       		.byte	0x4
 3343 0cb3 B8080000 		.4byte	0x8b8
 3344 0cb7 26       		.uleb128 0x26
 3345 0cb8 DC090000 		.4byte	.LASF189
 3346 0cbc 01       		.byte	0x1
 3347 0cbd 7203     		.2byte	0x372
 3348 0cbf 03010000 		.4byte	0x103
 3349 0cc3 00000000 		.4byte	.LFB61
 3350 0cc7 A0000000 		.4byte	.LFE61-.LFB61
 3351 0ccb 01       		.uleb128 0x1
 3352 0ccc 9C       		.byte	0x9c
 3353 0ccd 2B0D0000 		.4byte	0xd2b
 3354 0cd1 27       		.uleb128 0x27
 3355 0cd2 70636200 		.ascii	"pcb\000"
 3356 0cd6 01       		.byte	0x1
 3357 0cd7 7203     		.2byte	0x372
 3358 0cd9 25090000 		.4byte	0x925
 3359 0cdd DD030000 		.4byte	.LLST15
 3360 0ce1 28       		.uleb128 0x28
 3361 0ce2 F7040000 		.4byte	.LASF185
 3362 0ce6 01       		.byte	0x1
 3363 0ce7 7203     		.2byte	0x372
 3364 0ce9 D4090000 		.4byte	0x9d4
 3365 0ced 35040000 		.4byte	.LLST16
 3366 0cf1 28       		.uleb128 0x28
 3367 0cf2 00090000 		.4byte	.LASF186
 3368 0cf6 01       		.byte	0x1
 3369 0cf7 7203     		.2byte	0x372
 3370 0cf9 E2000000 		.4byte	0xe2
 3371 0cfd 53040000 		.4byte	.LLST17
 3372 0d01 29       		.uleb128 0x29
 3373 0d02 F8000000 		.4byte	.LASF187
 3374 0d06 01       		.byte	0x1
 3375 0d07 7403     		.2byte	0x374
 3376 0d09 25090000 		.4byte	0x925
 3377 0d0d B7040000 		.4byte	.LLST18
 3378 0d11 29       		.uleb128 0x29
 3379 0d12 B7080000 		.4byte	.LASF188
 3380 0d16 01       		.byte	0x1
 3381 0d17 7503     		.2byte	0x375
 3382 0d19 CC000000 		.4byte	0xcc
 3383 0d1d EB040000 		.4byte	.LLST19
 3384 0d21 1E       		.uleb128 0x1e
 3385 0d22 32000000 		.4byte	.LVL86
 3386 0d26 140A0000 		.4byte	0xa14
 3387 0d2a 00       		.byte	0
 3388 0d2b 26       		.uleb128 0x26
 3389 0d2c 16010000 		.4byte	.LASF190
 3390 0d30 01       		.byte	0x1
 3391 0d31 9502     		.2byte	0x295
 3392 0d33 03010000 		.4byte	0x103
 3393 0d37 00000000 		.4byte	.LFB60
 3394 0d3b 14010000 		.4byte	.LFE60-.LFB60
ARM GAS  C:\Users\Phuong\AppData\Local\Temp\cc08x83E.s 			page 83


 3395 0d3f 01       		.uleb128 0x1
 3396 0d40 9C       		.byte	0x9c
 3397 0d41 030F0000 		.4byte	0xf03
 3398 0d45 27       		.uleb128 0x27
 3399 0d46 70636200 		.ascii	"pcb\000"
 3400 0d4a 01       		.byte	0x1
 3401 0d4b 9502     		.2byte	0x295
 3402 0d4d 25090000 		.4byte	0x925
 3403 0d51 15050000 		.4byte	.LLST20
 3404 0d55 27       		.uleb128 0x27
 3405 0d56 7000     		.ascii	"p\000"
 3406 0d58 01       		.byte	0x1
 3407 0d59 9502     		.2byte	0x295
 3408 0d5b 32020000 		.4byte	0x232
 3409 0d5f 7B050000 		.4byte	.LLST21
 3410 0d63 28       		.uleb128 0x28
 3411 0d64 12070000 		.4byte	.LASF191
 3412 0d68 01       		.byte	0x1
 3413 0d69 9602     		.2byte	0x296
 3414 0d6b D4090000 		.4byte	0x9d4
 3415 0d6f B1050000 		.4byte	.LLST22
 3416 0d73 28       		.uleb128 0x28
 3417 0d74 B2030000 		.4byte	.LASF192
 3418 0d78 01       		.byte	0x1
 3419 0d79 9602     		.2byte	0x296
 3420 0d7b E2000000 		.4byte	0xe2
 3421 0d7f F3050000 		.4byte	.LLST23
 3422 0d83 2A       		.uleb128 0x2a
 3423 0d84 060A0000 		.4byte	.LASF119
 3424 0d88 01       		.byte	0x1
 3425 0d89 9602     		.2byte	0x296
 3426 0d8b CD050000 		.4byte	0x5cd
 3427 0d8f 02       		.uleb128 0x2
 3428 0d90 91       		.byte	0x91
 3429 0d91 00       		.sleb128 0
 3430 0d92 2A       		.uleb128 0x2a
 3431 0d93 49020000 		.4byte	.LASF193
 3432 0d97 01       		.byte	0x1
 3433 0d98 9602     		.2byte	0x296
 3434 0d9a D4090000 		.4byte	0x9d4
 3435 0d9e 02       		.uleb128 0x2
 3436 0d9f 91       		.byte	0x91
 3437 0da0 04       		.sleb128 4
 3438 0da1 29       		.uleb128 0x29
 3439 0da2 3B0B0000 		.4byte	.LASF180
 3440 0da6 01       		.byte	0x1
 3441 0da7 A302     		.2byte	0x2a3
 3442 0da9 B10C0000 		.4byte	0xcb1
 3443 0dad 2D060000 		.4byte	.LLST24
 3444 0db1 2B       		.uleb128 0x2b
 3445 0db2 65727200 		.ascii	"err\000"
 3446 0db6 01       		.byte	0x1
 3447 0db7 A402     		.2byte	0x2a4
 3448 0db9 03010000 		.4byte	0x103
 3449 0dbd 40060000 		.4byte	.LLST25
 3450 0dc1 2B       		.uleb128 0x2b
 3451 0dc2 7100     		.ascii	"q\000"
ARM GAS  C:\Users\Phuong\AppData\Local\Temp\cc08x83E.s 			page 84


 3452 0dc4 01       		.byte	0x1
 3453 0dc5 A502     		.2byte	0x2a5
 3454 0dc7 32020000 		.4byte	0x232
 3455 0dcb 5E060000 		.4byte	.LLST26
 3456 0dcf 29       		.uleb128 0x29
 3457 0dd0 00000000 		.4byte	.LASF194
 3458 0dd4 01       		.byte	0x1
 3459 0dd5 A602     		.2byte	0x2a6
 3460 0dd7 CC000000 		.4byte	0xcc
 3461 0ddb 9D060000 		.4byte	.LLST27
 3462 0ddf 2B       		.uleb128 0x2b
 3463 0de0 74746C00 		.ascii	"ttl\000"
 3464 0de4 01       		.byte	0x1
 3465 0de5 A702     		.2byte	0x2a7
 3466 0de7 CC000000 		.4byte	0xcc
 3467 0deb B1060000 		.4byte	.LLST28
 3468 0def 2C       		.uleb128 0x2c
 3469 0df0 9A000000 		.4byte	.LBB2
 3470 0df4 1A000000 		.4byte	.LBE2-.LBB2
 3471 0df8 300E0000 		.4byte	0xe30
 3472 0dfc 29       		.uleb128 0x29
 3473 0dfd 8A030000 		.4byte	.LASF195
 3474 0e01 01       		.byte	0x1
 3475 0e02 2603     		.2byte	0x326
 3476 0e04 E2000000 		.4byte	0xe2
 3477 0e08 C4060000 		.4byte	.LLST29
 3478 0e0c 25       		.uleb128 0x25
 3479 0e0d A8000000 		.4byte	.LVL118
 3480 0e11 33130000 		.4byte	0x1333
 3481 0e15 23       		.uleb128 0x23
 3482 0e16 01       		.uleb128 0x1
 3483 0e17 50       		.byte	0x50
 3484 0e18 02       		.uleb128 0x2
 3485 0e19 77       		.byte	0x77
 3486 0e1a 00       		.sleb128 0
 3487 0e1b 23       		.uleb128 0x23
 3488 0e1c 01       		.uleb128 0x1
 3489 0e1d 51       		.byte	0x51
 3490 0e1e 01       		.uleb128 0x1
 3491 0e1f 41       		.byte	0x41
 3492 0e20 23       		.uleb128 0x23
 3493 0e21 01       		.uleb128 0x1
 3494 0e22 53       		.byte	0x53
 3495 0e23 03       		.uleb128 0x3
 3496 0e24 91       		.byte	0x91
 3497 0e25 04       		.sleb128 4
 3498 0e26 06       		.byte	0x6
 3499 0e27 23       		.uleb128 0x23
 3500 0e28 02       		.uleb128 0x2
 3501 0e29 7D       		.byte	0x7d
 3502 0e2a 00       		.sleb128 0
 3503 0e2b 02       		.uleb128 0x2
 3504 0e2c 76       		.byte	0x76
 3505 0e2d 00       		.sleb128 0
 3506 0e2e 00       		.byte	0
 3507 0e2f 00       		.byte	0
 3508 0e30 22       		.uleb128 0x22
ARM GAS  C:\Users\Phuong\AppData\Local\Temp\cc08x83E.s 			page 85


 3509 0e31 20000000 		.4byte	.LVL106
 3510 0e35 B70C0000 		.4byte	0xcb7
 3511 0e39 4A0E0000 		.4byte	0xe4a
 3512 0e3d 23       		.uleb128 0x23
 3513 0e3e 01       		.uleb128 0x1
 3514 0e3f 50       		.byte	0x50
 3515 0e40 02       		.uleb128 0x2
 3516 0e41 74       		.byte	0x74
 3517 0e42 00       		.sleb128 0
 3518 0e43 23       		.uleb128 0x23
 3519 0e44 01       		.uleb128 0x1
 3520 0e45 51       		.byte	0x51
 3521 0e46 02       		.uleb128 0x2
 3522 0e47 74       		.byte	0x74
 3523 0e48 00       		.sleb128 0
 3524 0e49 00       		.byte	0
 3525 0e4a 22       		.uleb128 0x22
 3526 0e4b 2E000000 		.4byte	.LVL108
 3527 0e4f 3E130000 		.4byte	0x133e
 3528 0e53 630E0000 		.4byte	0xe63
 3529 0e57 23       		.uleb128 0x23
 3530 0e58 01       		.uleb128 0x1
 3531 0e59 50       		.byte	0x50
 3532 0e5a 02       		.uleb128 0x2
 3533 0e5b 75       		.byte	0x75
 3534 0e5c 00       		.sleb128 0
 3535 0e5d 23       		.uleb128 0x23
 3536 0e5e 01       		.uleb128 0x1
 3537 0e5f 51       		.byte	0x51
 3538 0e60 01       		.uleb128 0x1
 3539 0e61 38       		.byte	0x38
 3540 0e62 00       		.byte	0
 3541 0e63 22       		.uleb128 0x22
 3542 0e64 3C000000 		.4byte	.LVL109
 3543 0e68 5F130000 		.4byte	0x135f
 3544 0e6c 800E0000 		.4byte	0xe80
 3545 0e70 23       		.uleb128 0x23
 3546 0e71 01       		.uleb128 0x1
 3547 0e72 50       		.byte	0x50
 3548 0e73 01       		.uleb128 0x1
 3549 0e74 31       		.byte	0x31
 3550 0e75 23       		.uleb128 0x23
 3551 0e76 01       		.uleb128 0x1
 3552 0e77 51       		.byte	0x51
 3553 0e78 01       		.uleb128 0x1
 3554 0e79 38       		.byte	0x38
 3555 0e7a 23       		.uleb128 0x23
 3556 0e7b 01       		.uleb128 0x1
 3557 0e7c 52       		.byte	0x52
 3558 0e7d 01       		.uleb128 0x1
 3559 0e7e 30       		.byte	0x30
 3560 0e7f 00       		.byte	0
 3561 0e80 22       		.uleb128 0x22
 3562 0e81 4C000000 		.4byte	.LVL111
 3563 0e85 6A130000 		.4byte	0x136a
 3564 0e89 9B0E0000 		.4byte	0xe9b
 3565 0e8d 23       		.uleb128 0x23
ARM GAS  C:\Users\Phuong\AppData\Local\Temp\cc08x83E.s 			page 86


 3566 0e8e 01       		.uleb128 0x1
 3567 0e8f 50       		.byte	0x50
 3568 0e90 02       		.uleb128 0x2
 3569 0e91 77       		.byte	0x77
 3570 0e92 00       		.sleb128 0
 3571 0e93 23       		.uleb128 0x23
 3572 0e94 01       		.uleb128 0x1
 3573 0e95 51       		.byte	0x51
 3574 0e96 03       		.uleb128 0x3
 3575 0e97 91       		.byte	0x91
 3576 0e98 60       		.sleb128 -32
 3577 0e99 06       		.byte	0x6
 3578 0e9a 00       		.byte	0
 3579 0e9b 1E       		.uleb128 0x1e
 3580 0e9c 58000000 		.4byte	.LVL115
 3581 0ea0 28130000 		.4byte	0x1328
 3582 0ea4 22       		.uleb128 0x22
 3583 0ea5 64000000 		.4byte	.LVL116
 3584 0ea9 28130000 		.4byte	0x1328
 3585 0ead BA0E0000 		.4byte	0xeba
 3586 0eb1 23       		.uleb128 0x23
 3587 0eb2 01       		.uleb128 0x1
 3588 0eb3 50       		.byte	0x50
 3589 0eb4 04       		.uleb128 0x4
 3590 0eb5 91       		.byte	0x91
 3591 0eb6 64       		.sleb128 -28
 3592 0eb7 94       		.byte	0x94
 3593 0eb8 02       		.byte	0x2
 3594 0eb9 00       		.byte	0
 3595 0eba 1E       		.uleb128 0x1e
 3596 0ebb 8E000000 		.4byte	.LVL117
 3597 0ebf 28130000 		.4byte	0x1328
 3598 0ec3 22       		.uleb128 0x22
 3599 0ec4 DA000000 		.4byte	.LVL123
 3600 0ec8 75130000 		.4byte	0x1375
 3601 0ecc F20E0000 		.4byte	0xef2
 3602 0ed0 23       		.uleb128 0x23
 3603 0ed1 01       		.uleb128 0x1
 3604 0ed2 50       		.byte	0x50
 3605 0ed3 02       		.uleb128 0x2
 3606 0ed4 77       		.byte	0x77
 3607 0ed5 00       		.sleb128 0
 3608 0ed6 23       		.uleb128 0x23
 3609 0ed7 01       		.uleb128 0x1
 3610 0ed8 51       		.byte	0x51
 3611 0ed9 03       		.uleb128 0x3
 3612 0eda 91       		.byte	0x91
 3613 0edb 04       		.sleb128 4
 3614 0edc 06       		.byte	0x6
 3615 0edd 23       		.uleb128 0x23
 3616 0ede 01       		.uleb128 0x1
 3617 0edf 52       		.byte	0x52
 3618 0ee0 02       		.uleb128 0x2
 3619 0ee1 76       		.byte	0x76
 3620 0ee2 00       		.sleb128 0
 3621 0ee3 23       		.uleb128 0x23
 3622 0ee4 02       		.uleb128 0x2
ARM GAS  C:\Users\Phuong\AppData\Local\Temp\cc08x83E.s 			page 87


 3623 0ee5 7D       		.byte	0x7d
 3624 0ee6 04       		.sleb128 4
 3625 0ee7 01       		.uleb128 0x1
 3626 0ee8 41       		.byte	0x41
 3627 0ee9 23       		.uleb128 0x23
 3628 0eea 02       		.uleb128 0x2
 3629 0eeb 7D       		.byte	0x7d
 3630 0eec 08       		.sleb128 8
 3631 0eed 03       		.uleb128 0x3
 3632 0eee 91       		.byte	0x91
 3633 0eef 00       		.sleb128 0
 3634 0ef0 06       		.byte	0x6
 3635 0ef1 00       		.byte	0
 3636 0ef2 25       		.uleb128 0x25
 3637 0ef3 E8000000 		.4byte	.LVL125
 3638 0ef7 12130000 		.4byte	0x1312
 3639 0efb 23       		.uleb128 0x23
 3640 0efc 01       		.uleb128 0x1
 3641 0efd 50       		.byte	0x50
 3642 0efe 02       		.uleb128 0x2
 3643 0eff 77       		.byte	0x77
 3644 0f00 00       		.sleb128 0
 3645 0f01 00       		.byte	0
 3646 0f02 00       		.byte	0
 3647 0f03 26       		.uleb128 0x26
 3648 0f04 75020000 		.4byte	.LASF196
 3649 0f08 01       		.byte	0x1
 3650 0f09 5002     		.2byte	0x250
 3651 0f0b 03010000 		.4byte	0x103
 3652 0f0f 00000000 		.4byte	.LFB59
 3653 0f13 48000000 		.4byte	.LFE59-.LFB59
 3654 0f17 01       		.uleb128 0x1
 3655 0f18 9C       		.byte	0x9c
 3656 0f19 930F0000 		.4byte	0xf93
 3657 0f1d 27       		.uleb128 0x27
 3658 0f1e 70636200 		.ascii	"pcb\000"
 3659 0f22 01       		.byte	0x1
 3660 0f23 5002     		.2byte	0x250
 3661 0f25 25090000 		.4byte	0x925
 3662 0f29 D7060000 		.4byte	.LLST30
 3663 0f2d 27       		.uleb128 0x27
 3664 0f2e 7000     		.ascii	"p\000"
 3665 0f30 01       		.byte	0x1
 3666 0f31 5002     		.2byte	0x250
 3667 0f33 32020000 		.4byte	0x232
 3668 0f37 4E070000 		.4byte	.LLST31
 3669 0f3b 28       		.uleb128 0x28
 3670 0f3c 12070000 		.4byte	.LASF191
 3671 0f40 01       		.byte	0x1
 3672 0f41 5102     		.2byte	0x251
 3673 0f43 D4090000 		.4byte	0x9d4
 3674 0f47 88070000 		.4byte	.LLST32
 3675 0f4b 28       		.uleb128 0x28
 3676 0f4c B2030000 		.4byte	.LASF192
 3677 0f50 01       		.byte	0x1
 3678 0f51 5102     		.2byte	0x251
 3679 0f53 E2000000 		.4byte	0xe2
ARM GAS  C:\Users\Phuong\AppData\Local\Temp\cc08x83E.s 			page 88


 3680 0f57 C2070000 		.4byte	.LLST33
 3681 0f5b 2A       		.uleb128 0x2a
 3682 0f5c 060A0000 		.4byte	.LASF119
 3683 0f60 01       		.byte	0x1
 3684 0f61 5102     		.2byte	0x251
 3685 0f63 CD050000 		.4byte	0x5cd
 3686 0f67 02       		.uleb128 0x2
 3687 0f68 91       		.byte	0x91
 3688 0f69 00       		.sleb128 0
 3689 0f6a 29       		.uleb128 0x29
 3690 0f6b 49020000 		.4byte	.LASF193
 3691 0f6f 01       		.byte	0x1
 3692 0f70 5E02     		.2byte	0x25e
 3693 0f72 D4090000 		.4byte	0x9d4
 3694 0f76 FC070000 		.4byte	.LLST34
 3695 0f7a 25       		.uleb128 0x25
 3696 0f7b 32000000 		.4byte	.LVL138
 3697 0f7f 2B0D0000 		.4byte	0xd2b
 3698 0f83 23       		.uleb128 0x23
 3699 0f84 02       		.uleb128 0x2
 3700 0f85 7D       		.byte	0x7d
 3701 0f86 00       		.sleb128 0
 3702 0f87 02       		.uleb128 0x2
 3703 0f88 74       		.byte	0x74
 3704 0f89 00       		.sleb128 0
 3705 0f8a 23       		.uleb128 0x23
 3706 0f8b 02       		.uleb128 0x2
 3707 0f8c 7D       		.byte	0x7d
 3708 0f8d 04       		.sleb128 4
 3709 0f8e 02       		.uleb128 0x2
 3710 0f8f 75       		.byte	0x75
 3711 0f90 00       		.sleb128 0
 3712 0f91 00       		.byte	0
 3713 0f92 00       		.byte	0
 3714 0f93 26       		.uleb128 0x26
 3715 0f94 8B060000 		.4byte	.LASF197
 3716 0f98 01       		.byte	0x1
 3717 0f99 F601     		.2byte	0x1f6
 3718 0f9b 03010000 		.4byte	0x103
 3719 0f9f 00000000 		.4byte	.LFB58
 3720 0fa3 78000000 		.4byte	.LFE58-.LFB58
 3721 0fa7 01       		.uleb128 0x1
 3722 0fa8 9C       		.byte	0x9c
 3723 0fa9 37100000 		.4byte	0x1037
 3724 0fad 27       		.uleb128 0x27
 3725 0fae 70636200 		.ascii	"pcb\000"
 3726 0fb2 01       		.byte	0x1
 3727 0fb3 F601     		.2byte	0x1f6
 3728 0fb5 25090000 		.4byte	0x925
 3729 0fb9 1A080000 		.4byte	.LLST35
 3730 0fbd 27       		.uleb128 0x27
 3731 0fbe 7000     		.ascii	"p\000"
 3732 0fc0 01       		.byte	0x1
 3733 0fc1 F601     		.2byte	0x1f6
 3734 0fc3 32020000 		.4byte	0x232
 3735 0fc7 B4080000 		.4byte	.LLST36
 3736 0fcb 28       		.uleb128 0x28
ARM GAS  C:\Users\Phuong\AppData\Local\Temp\cc08x83E.s 			page 89


 3737 0fcc 12070000 		.4byte	.LASF191
 3738 0fd0 01       		.byte	0x1
 3739 0fd1 F701     		.2byte	0x1f7
 3740 0fd3 D4090000 		.4byte	0x9d4
 3741 0fd7 F6080000 		.4byte	.LLST37
 3742 0fdb 28       		.uleb128 0x28
 3743 0fdc B2030000 		.4byte	.LASF192
 3744 0fe0 01       		.byte	0x1
 3745 0fe1 F701     		.2byte	0x1f7
 3746 0fe3 E2000000 		.4byte	0xe2
 3747 0fe7 38090000 		.4byte	.LLST38
 3748 0feb 29       		.uleb128 0x29
 3749 0fec 060A0000 		.4byte	.LASF119
 3750 0ff0 01       		.byte	0x1
 3751 0ff1 0402     		.2byte	0x204
 3752 0ff3 CD050000 		.4byte	0x5cd
 3753 0ff7 72090000 		.4byte	.LLST39
 3754 0ffb 29       		.uleb128 0x29
 3755 0ffc EB060000 		.4byte	.LASF198
 3756 1000 01       		.byte	0x1
 3757 1001 0502     		.2byte	0x205
 3758 1003 D4090000 		.4byte	0x9d4
 3759 1007 A9090000 		.4byte	.LLST40
 3760 100b 1E       		.uleb128 0x1e
 3761 100c 3E000000 		.4byte	.LVL157
 3762 1010 80130000 		.4byte	0x1380
 3763 1014 25       		.uleb128 0x25
 3764 1015 5E000000 		.4byte	.LVL161
 3765 1019 030F0000 		.4byte	0xf03
 3766 101d 23       		.uleb128 0x23
 3767 101e 01       		.uleb128 0x1
 3768 101f 50       		.byte	0x50
 3769 1020 02       		.uleb128 0x2
 3770 1021 77       		.byte	0x77
 3771 1022 00       		.sleb128 0
 3772 1023 23       		.uleb128 0x23
 3773 1024 01       		.uleb128 0x1
 3774 1025 51       		.byte	0x51
 3775 1026 02       		.uleb128 0x2
 3776 1027 75       		.byte	0x75
 3777 1028 00       		.sleb128 0
 3778 1029 23       		.uleb128 0x23
 3779 102a 01       		.uleb128 0x1
 3780 102b 52       		.byte	0x52
 3781 102c 02       		.uleb128 0x2
 3782 102d 74       		.byte	0x74
 3783 102e 00       		.sleb128 0
 3784 102f 23       		.uleb128 0x23
 3785 1030 01       		.uleb128 0x1
 3786 1031 53       		.byte	0x53
 3787 1032 02       		.uleb128 0x2
 3788 1033 76       		.byte	0x76
 3789 1034 00       		.sleb128 0
 3790 1035 00       		.byte	0
 3791 1036 00       		.byte	0
 3792 1037 26       		.uleb128 0x26
 3793 1038 69010000 		.4byte	.LASF199
ARM GAS  C:\Users\Phuong\AppData\Local\Temp\cc08x83E.s 			page 90


 3794 103c 01       		.byte	0x1
 3795 103d C701     		.2byte	0x1c7
 3796 103f 03010000 		.4byte	0x103
 3797 1043 00000000 		.4byte	.LFB57
 3798 1047 16000000 		.4byte	.LFE57-.LFB57
 3799 104b 01       		.uleb128 0x1
 3800 104c 9C       		.byte	0x9c
 3801 104d 91100000 		.4byte	0x1091
 3802 1051 27       		.uleb128 0x27
 3803 1052 70636200 		.ascii	"pcb\000"
 3804 1056 01       		.byte	0x1
 3805 1057 C701     		.2byte	0x1c7
 3806 1059 25090000 		.4byte	0x925
 3807 105d F3090000 		.4byte	.LLST41
 3808 1061 27       		.uleb128 0x27
 3809 1062 7000     		.ascii	"p\000"
 3810 1064 01       		.byte	0x1
 3811 1065 C701     		.2byte	0x1c7
 3812 1067 32020000 		.4byte	0x232
 3813 106b 2D0A0000 		.4byte	.LLST42
 3814 106f 25       		.uleb128 0x25
 3815 1070 0E000000 		.4byte	.LVL171
 3816 1074 930F0000 		.4byte	0xf93
 3817 1078 23       		.uleb128 0x23
 3818 1079 01       		.uleb128 0x1
 3819 107a 50       		.byte	0x50
 3820 107b 03       		.uleb128 0x3
 3821 107c F3       		.byte	0xf3
 3822 107d 01       		.uleb128 0x1
 3823 107e 50       		.byte	0x50
 3824 107f 23       		.uleb128 0x23
 3825 1080 01       		.uleb128 0x1
 3826 1081 51       		.byte	0x51
 3827 1082 03       		.uleb128 0x3
 3828 1083 F3       		.byte	0xf3
 3829 1084 01       		.uleb128 0x1
 3830 1085 51       		.byte	0x51
 3831 1086 23       		.uleb128 0x23
 3832 1087 01       		.uleb128 0x1
 3833 1088 52       		.byte	0x52
 3834 1089 05       		.uleb128 0x5
 3835 108a F3       		.byte	0xf3
 3836 108b 01       		.uleb128 0x1
 3837 108c 50       		.byte	0x50
 3838 108d 23       		.byte	0x23
 3839 108e 04       		.uleb128 0x4
 3840 108f 00       		.byte	0
 3841 1090 00       		.byte	0
 3842 1091 26       		.uleb128 0x26
 3843 1092 85010000 		.4byte	.LASF200
 3844 1096 01       		.byte	0x1
 3845 1097 D503     		.2byte	0x3d5
 3846 1099 03010000 		.4byte	0x103
 3847 109d 00000000 		.4byte	.LFB62
 3848 10a1 68000000 		.4byte	.LFE62-.LFB62
 3849 10a5 01       		.uleb128 0x1
 3850 10a6 9C       		.byte	0x9c
ARM GAS  C:\Users\Phuong\AppData\Local\Temp\cc08x83E.s 			page 91


 3851 10a7 1C110000 		.4byte	0x111c
 3852 10ab 27       		.uleb128 0x27
 3853 10ac 70636200 		.ascii	"pcb\000"
 3854 10b0 01       		.byte	0x1
 3855 10b1 D503     		.2byte	0x3d5
 3856 10b3 25090000 		.4byte	0x925
 3857 10b7 670A0000 		.4byte	.LLST43
 3858 10bb 28       		.uleb128 0x28
 3859 10bc F7040000 		.4byte	.LASF185
 3860 10c0 01       		.byte	0x1
 3861 10c1 D503     		.2byte	0x3d5
 3862 10c3 D4090000 		.4byte	0x9d4
 3863 10c7 BF0A0000 		.4byte	.LLST44
 3864 10cb 28       		.uleb128 0x28
 3865 10cc 00090000 		.4byte	.LASF186
 3866 10d0 01       		.byte	0x1
 3867 10d1 D503     		.2byte	0x3d5
 3868 10d3 E2000000 		.4byte	0xe2
 3869 10d7 010B0000 		.4byte	.LLST45
 3870 10db 29       		.uleb128 0x29
 3871 10dc F8000000 		.4byte	.LASF187
 3872 10e0 01       		.byte	0x1
 3873 10e1 D703     		.2byte	0x3d7
 3874 10e3 25090000 		.4byte	0x925
 3875 10e7 3B0B0000 		.4byte	.LLST46
 3876 10eb 2D       		.uleb128 0x2d
 3877 10ec 16000000 		.4byte	.LBB3
 3878 10f0 0A000000 		.4byte	.LBE3-.LBB3
 3879 10f4 2B       		.uleb128 0x2b
 3880 10f5 65727200 		.ascii	"err\000"
 3881 10f9 01       		.byte	0x1
 3882 10fa DE03     		.2byte	0x3de
 3883 10fc 03010000 		.4byte	0x103
 3884 1100 640B0000 		.4byte	.LLST47
 3885 1104 25       		.uleb128 0x25
 3886 1105 1C000000 		.4byte	.LVL178
 3887 1109 B70C0000 		.4byte	0xcb7
 3888 110d 23       		.uleb128 0x23
 3889 110e 01       		.uleb128 0x1
 3890 110f 50       		.byte	0x50
 3891 1110 02       		.uleb128 0x2
 3892 1111 74       		.byte	0x74
 3893 1112 00       		.sleb128 0
 3894 1113 23       		.uleb128 0x23
 3895 1114 01       		.uleb128 0x1
 3896 1115 51       		.byte	0x51
 3897 1116 02       		.uleb128 0x2
 3898 1117 74       		.byte	0x74
 3899 1118 00       		.sleb128 0
 3900 1119 00       		.byte	0
 3901 111a 00       		.byte	0
 3902 111b 00       		.byte	0
 3903 111c 2E       		.uleb128 0x2e
 3904 111d 1E080000 		.4byte	.LASF201
 3905 1121 01       		.byte	0x1
 3906 1122 0104     		.2byte	0x401
 3907 1124 00000000 		.4byte	.LFB63
ARM GAS  C:\Users\Phuong\AppData\Local\Temp\cc08x83E.s 			page 92


 3908 1128 10000000 		.4byte	.LFE63-.LFB63
 3909 112c 01       		.uleb128 0x1
 3910 112d 9C       		.byte	0x9c
 3911 112e 41110000 		.4byte	0x1141
 3912 1132 2F       		.uleb128 0x2f
 3913 1133 70636200 		.ascii	"pcb\000"
 3914 1137 01       		.byte	0x1
 3915 1138 0104     		.2byte	0x401
 3916 113a 25090000 		.4byte	0x925
 3917 113e 01       		.uleb128 0x1
 3918 113f 50       		.byte	0x50
 3919 1140 00       		.byte	0
 3920 1141 2E       		.uleb128 0x2e
 3921 1142 0D090000 		.4byte	.LASF202
 3922 1146 01       		.byte	0x1
 3923 1147 1D04     		.2byte	0x41d
 3924 1149 00000000 		.4byte	.LFB64
 3925 114d 06000000 		.4byte	.LFE64-.LFB64
 3926 1151 01       		.uleb128 0x1
 3927 1152 9C       		.byte	0x9c
 3928 1153 82110000 		.4byte	0x1182
 3929 1157 2F       		.uleb128 0x2f
 3930 1158 70636200 		.ascii	"pcb\000"
 3931 115c 01       		.byte	0x1
 3932 115d 1D04     		.2byte	0x41d
 3933 115f 25090000 		.4byte	0x925
 3934 1163 01       		.uleb128 0x1
 3935 1164 50       		.byte	0x50
 3936 1165 2A       		.uleb128 0x2a
 3937 1166 490A0000 		.4byte	.LASF84
 3938 116a 01       		.byte	0x1
 3939 116b 1D04     		.2byte	0x41d
 3940 116d F5080000 		.4byte	0x8f5
 3941 1171 01       		.uleb128 0x1
 3942 1172 51       		.byte	0x51
 3943 1173 2A       		.uleb128 0x2a
 3944 1174 99080000 		.4byte	.LASF167
 3945 1178 01       		.byte	0x1
 3946 1179 1D04     		.2byte	0x41d
 3947 117b 88000000 		.4byte	0x88
 3948 117f 01       		.uleb128 0x1
 3949 1180 52       		.byte	0x52
 3950 1181 00       		.byte	0
 3951 1182 2E       		.uleb128 0x2e
 3952 1183 140A0000 		.4byte	.LASF203
 3953 1187 01       		.byte	0x1
 3954 1188 2E04     		.2byte	0x42e
 3955 118a 00000000 		.4byte	.LFB65
 3956 118e 38000000 		.4byte	.LFE65-.LFB65
 3957 1192 01       		.uleb128 0x1
 3958 1193 9C       		.byte	0x9c
 3959 1194 C8110000 		.4byte	0x11c8
 3960 1198 27       		.uleb128 0x27
 3961 1199 70636200 		.ascii	"pcb\000"
 3962 119d 01       		.byte	0x1
 3963 119e 2E04     		.2byte	0x42e
 3964 11a0 25090000 		.4byte	0x925
ARM GAS  C:\Users\Phuong\AppData\Local\Temp\cc08x83E.s 			page 93


 3965 11a4 770B0000 		.4byte	.LLST48
 3966 11a8 29       		.uleb128 0x29
 3967 11a9 08020000 		.4byte	.LASF204
 3968 11ad 01       		.byte	0x1
 3969 11ae 3004     		.2byte	0x430
 3970 11b0 25090000 		.4byte	0x925
 3971 11b4 A30B0000 		.4byte	.LLST49
 3972 11b8 25       		.uleb128 0x25
 3973 11b9 32000000 		.4byte	.LVL201
 3974 11bd 8B130000 		.4byte	0x138b
 3975 11c1 23       		.uleb128 0x23
 3976 11c2 01       		.uleb128 0x1
 3977 11c3 50       		.byte	0x50
 3978 11c4 01       		.uleb128 0x1
 3979 11c5 31       		.byte	0x31
 3980 11c6 00       		.byte	0
 3981 11c7 00       		.byte	0
 3982 11c8 26       		.uleb128 0x26
 3983 11c9 4E050000 		.4byte	.LASF205
 3984 11cd 01       		.byte	0x1
 3985 11ce 4F04     		.2byte	0x44f
 3986 11d0 25090000 		.4byte	0x925
 3987 11d4 00000000 		.4byte	.LFB66
 3988 11d8 2C000000 		.4byte	.LFE66-.LFB66
 3989 11dc 01       		.uleb128 0x1
 3990 11dd 9C       		.byte	0x9c
 3991 11de 31120000 		.4byte	0x1231
 3992 11e2 2B       		.uleb128 0x2b
 3993 11e3 70636200 		.ascii	"pcb\000"
 3994 11e7 01       		.byte	0x1
 3995 11e8 5104     		.2byte	0x451
 3996 11ea 25090000 		.4byte	0x925
 3997 11ee C10B0000 		.4byte	.LLST50
 3998 11f2 22       		.uleb128 0x22
 3999 11f3 0C000000 		.4byte	.LVL202
 4000 11f7 96130000 		.4byte	0x1396
 4001 11fb 15120000 		.4byte	0x1215
 4002 11ff 23       		.uleb128 0x23
 4003 1200 01       		.uleb128 0x1
 4004 1201 50       		.byte	0x50
 4005 1202 01       		.uleb128 0x1
 4006 1203 31       		.byte	0x31
 4007 1204 23       		.uleb128 0x23
 4008 1205 01       		.uleb128 0x1
 4009 1206 51       		.byte	0x51
 4010 1207 05       		.uleb128 0x5
 4011 1208 03       		.byte	0x3
 4012 1209 00000000 		.4byte	.LC16
 4013 120d 23       		.uleb128 0x23
 4014 120e 01       		.uleb128 0x1
 4015 120f 52       		.byte	0x52
 4016 1210 03       		.uleb128 0x3
 4017 1211 0A       		.byte	0xa
 4018 1212 5204     		.2byte	0x452
 4019 1214 00       		.byte	0
 4020 1215 25       		.uleb128 0x25
 4021 1216 18000000 		.4byte	.LVL204
ARM GAS  C:\Users\Phuong\AppData\Local\Temp\cc08x83E.s 			page 94


 4022 121a A1130000 		.4byte	0x13a1
 4023 121e 23       		.uleb128 0x23
 4024 121f 01       		.uleb128 0x1
 4025 1220 50       		.byte	0x50
 4026 1221 02       		.uleb128 0x2
 4027 1222 74       		.byte	0x74
 4028 1223 00       		.sleb128 0
 4029 1224 23       		.uleb128 0x23
 4030 1225 01       		.uleb128 0x1
 4031 1226 51       		.byte	0x51
 4032 1227 01       		.uleb128 0x1
 4033 1228 30       		.byte	0x30
 4034 1229 23       		.uleb128 0x23
 4035 122a 01       		.uleb128 0x1
 4036 122b 52       		.byte	0x52
 4037 122c 02       		.uleb128 0x2
 4038 122d 08       		.byte	0x8
 4039 122e 28       		.byte	0x28
 4040 122f 00       		.byte	0
 4041 1230 00       		.byte	0
 4042 1231 26       		.uleb128 0x26
 4043 1232 1F020000 		.4byte	.LASF206
 4044 1236 01       		.byte	0x1
 4045 1237 6F04     		.2byte	0x46f
 4046 1239 25090000 		.4byte	0x925
 4047 123d 00000000 		.4byte	.LFB67
 4048 1241 08000000 		.4byte	.LFE67-.LFB67
 4049 1245 01       		.uleb128 0x1
 4050 1246 9C       		.byte	0x9c
 4051 1247 73120000 		.4byte	0x1273
 4052 124b 28       		.uleb128 0x28
 4053 124c 2E090000 		.4byte	.LASF52
 4054 1250 01       		.byte	0x1
 4055 1251 6F04     		.2byte	0x46f
 4056 1253 CC000000 		.4byte	0xcc
 4057 1257 EA0B0000 		.4byte	.LLST51
 4058 125b 30       		.uleb128 0x30
 4059 125c 70636200 		.ascii	"pcb\000"
 4060 1260 01       		.byte	0x1
 4061 1261 7104     		.2byte	0x471
 4062 1263 25090000 		.4byte	0x925
 4063 1267 01       		.uleb128 0x1
 4064 1268 50       		.byte	0x50
 4065 1269 1E       		.uleb128 0x1e
 4066 126a 06000000 		.4byte	.LVL207
 4067 126e C8110000 		.4byte	0x11c8
 4068 1272 00       		.byte	0
 4069 1273 2E       		.uleb128 0x2e
 4070 1274 34050000 		.4byte	.LASF207
 4071 1278 01       		.byte	0x1
 4072 1279 8304     		.2byte	0x483
 4073 127b 00000000 		.4byte	.LFB68
 4074 127f 34000000 		.4byte	.LFE68-.LFB68
 4075 1283 01       		.uleb128 0x1
 4076 1284 9C       		.byte	0x9c
 4077 1285 B6120000 		.4byte	0x12b6
 4078 1289 2A       		.uleb128 0x2a
ARM GAS  C:\Users\Phuong\AppData\Local\Temp\cc08x83E.s 			page 95


 4079 128a E9070000 		.4byte	.LASF208
 4080 128e 01       		.byte	0x1
 4081 128f 8304     		.2byte	0x483
 4082 1291 D4090000 		.4byte	0x9d4
 4083 1295 01       		.uleb128 0x1
 4084 1296 50       		.byte	0x50
 4085 1297 2A       		.uleb128 0x2a
 4086 1298 200B0000 		.4byte	.LASF209
 4087 129c 01       		.byte	0x1
 4088 129d 8304     		.2byte	0x483
 4089 129f D4090000 		.4byte	0x9d4
 4090 12a3 01       		.uleb128 0x1
 4091 12a4 51       		.byte	0x51
 4092 12a5 29       		.uleb128 0x29
 4093 12a6 290B0000 		.4byte	.LASF210
 4094 12aa 01       		.byte	0x1
 4095 12ab 8504     		.2byte	0x485
 4096 12ad 25090000 		.4byte	0x925
 4097 12b1 0B0C0000 		.4byte	.LLST52
 4098 12b5 00       		.byte	0
 4099 12b6 31       		.uleb128 0x31
 4100 12b7 4D070000 		.4byte	.LASF211
 4101 12bb 01       		.byte	0x1
 4102 12bc 4D       		.byte	0x4d
 4103 12bd E2000000 		.4byte	0xe2
 4104 12c1 05       		.uleb128 0x5
 4105 12c2 03       		.byte	0x3
 4106 12c3 00000000 		.4byte	udp_port
 4107 12c7 32       		.uleb128 0x32
 4108 12c8 7E030000 		.4byte	.LASF212
 4109 12cc 09       		.byte	0x9
 4110 12cd 5201     		.2byte	0x152
 4111 12cf DA090000 		.4byte	0x9da
 4112 12d3 32       		.uleb128 0x32
 4113 12d4 0D020000 		.4byte	.LASF213
 4114 12d8 09       		.byte	0x9
 4115 12d9 5301     		.2byte	0x153
 4116 12db DA090000 		.4byte	0x9da
 4117 12df 32       		.uleb128 0x32
 4118 12e0 FD010000 		.4byte	.LASF214
 4119 12e4 0C       		.byte	0xc
 4120 12e5 3001     		.2byte	0x130
 4121 12e7 F3040000 		.4byte	0x4f3
 4122 12eb 33       		.uleb128 0x33
 4123 12ec C5060000 		.4byte	.LASF215
 4124 12f0 0F       		.byte	0xf
 4125 12f1 7E       		.byte	0x7e
 4126 12f2 5D080000 		.4byte	0x85d
 4127 12f6 34       		.uleb128 0x34
 4128 12f7 CA010000 		.4byte	.LASF216
 4129 12fb 01       		.byte	0x1
 4130 12fc 51       		.byte	0x51
 4131 12fd 25090000 		.4byte	0x925
 4132 1301 05       		.uleb128 0x5
 4133 1302 03       		.byte	0x3
 4134 1303 00000000 		.4byte	udp_pcbs
 4135 1307 35       		.uleb128 0x35
ARM GAS  C:\Users\Phuong\AppData\Local\Temp\cc08x83E.s 			page 96


 4136 1308 96060000 		.4byte	.LASF217
 4137 130c 96060000 		.4byte	.LASF217
 4138 1310 13       		.byte	0x13
 4139 1311 36       		.byte	0x36
 4140 1312 35       		.uleb128 0x35
 4141 1313 20060000 		.4byte	.LASF218
 4142 1317 20060000 		.4byte	.LASF218
 4143 131b 07       		.byte	0x7
 4144 131c E9       		.byte	0xe9
 4145 131d 35       		.uleb128 0x35
 4146 131e FD000000 		.4byte	.LASF219
 4147 1322 FD000000 		.4byte	.LASF219
 4148 1326 08       		.byte	0x8
 4149 1327 AE       		.byte	0xae
 4150 1328 35       		.uleb128 0x35
 4151 1329 E3010000 		.4byte	.LASF220
 4152 132d E3010000 		.4byte	.LASF220
 4153 1331 14       		.byte	0x14
 4154 1332 55       		.byte	0x55
 4155 1333 35       		.uleb128 0x35
 4156 1334 4D010000 		.4byte	.LASF221
 4157 1338 4D010000 		.4byte	.LASF221
 4158 133c 15       		.byte	0x15
 4159 133d 5F       		.byte	0x5f
 4160 133e 35       		.uleb128 0x35
 4161 133f 92050000 		.4byte	.LASF222
 4162 1343 92050000 		.4byte	.LASF222
 4163 1347 07       		.byte	0x7
 4164 1348 E6       		.byte	0xe6
 4165 1349 35       		.uleb128 0x35
 4166 134a 9B010000 		.4byte	.LASF223
 4167 134e 9B010000 		.4byte	.LASF223
 4168 1352 07       		.byte	0x7
 4169 1353 E7       		.byte	0xe7
 4170 1354 35       		.uleb128 0x35
 4171 1355 BB030000 		.4byte	.LASF224
 4172 1359 BB030000 		.4byte	.LASF224
 4173 135d 12       		.byte	0x12
 4174 135e 51       		.byte	0x51
 4175 135f 35       		.uleb128 0x35
 4176 1360 15060000 		.4byte	.LASF225
 4177 1364 15060000 		.4byte	.LASF225
 4178 1368 07       		.byte	0x7
 4179 1369 DF       		.byte	0xdf
 4180 136a 35       		.uleb128 0x35
 4181 136b E8080000 		.4byte	.LASF226
 4182 136f E8080000 		.4byte	.LASF226
 4183 1373 07       		.byte	0x7
 4184 1374 EC       		.byte	0xec
 4185 1375 35       		.uleb128 0x35
 4186 1376 1C090000 		.4byte	.LASF227
 4187 137a 1C090000 		.4byte	.LASF227
 4188 137e 16       		.byte	0x16
 4189 137f 4C       		.byte	0x4c
 4190 1380 35       		.uleb128 0x35
 4191 1381 45080000 		.4byte	.LASF228
 4192 1385 45080000 		.4byte	.LASF228
ARM GAS  C:\Users\Phuong\AppData\Local\Temp\cc08x83E.s 			page 97


 4193 1389 16       		.byte	0x16
 4194 138a 41       		.byte	0x41
 4195 138b 35       		.uleb128 0x35
 4196 138c 3F0A0000 		.4byte	.LASF229
 4197 1390 3F0A0000 		.4byte	.LASF229
 4198 1394 0B       		.byte	0xb
 4199 1395 95       		.byte	0x95
 4200 1396 35       		.uleb128 0x35
 4201 1397 63080000 		.4byte	.LASF230
 4202 139b 63080000 		.4byte	.LASF230
 4203 139f 0B       		.byte	0xb
 4204 13a0 90       		.byte	0x90
 4205 13a1 36       		.uleb128 0x36
 4206 13a2 AD060000 		.4byte	.LASF234
 4207 13a6 AD060000 		.4byte	.LASF234
 4208 13aa 00       		.byte	0
 4209              		.section	.debug_abbrev,"",%progbits
 4210              	.Ldebug_abbrev0:
 4211 0000 01       		.uleb128 0x1
 4212 0001 11       		.uleb128 0x11
 4213 0002 01       		.byte	0x1
 4214 0003 25       		.uleb128 0x25
 4215 0004 0E       		.uleb128 0xe
 4216 0005 13       		.uleb128 0x13
 4217 0006 0B       		.uleb128 0xb
 4218 0007 03       		.uleb128 0x3
 4219 0008 0E       		.uleb128 0xe
 4220 0009 1B       		.uleb128 0x1b
 4221 000a 0E       		.uleb128 0xe
 4222 000b 55       		.uleb128 0x55
 4223 000c 17       		.uleb128 0x17
 4224 000d 11       		.uleb128 0x11
 4225 000e 01       		.uleb128 0x1
 4226 000f 10       		.uleb128 0x10
 4227 0010 17       		.uleb128 0x17
 4228 0011 00       		.byte	0
 4229 0012 00       		.byte	0
 4230 0013 02       		.uleb128 0x2
 4231 0014 24       		.uleb128 0x24
 4232 0015 00       		.byte	0
 4233 0016 0B       		.uleb128 0xb
 4234 0017 0B       		.uleb128 0xb
 4235 0018 3E       		.uleb128 0x3e
 4236 0019 0B       		.uleb128 0xb
 4237 001a 03       		.uleb128 0x3
 4238 001b 0E       		.uleb128 0xe
 4239 001c 00       		.byte	0
 4240 001d 00       		.byte	0
 4241 001e 03       		.uleb128 0x3
 4242 001f 16       		.uleb128 0x16
 4243 0020 00       		.byte	0
 4244 0021 03       		.uleb128 0x3
 4245 0022 0E       		.uleb128 0xe
 4246 0023 3A       		.uleb128 0x3a
 4247 0024 0B       		.uleb128 0xb
 4248 0025 3B       		.uleb128 0x3b
 4249 0026 0B       		.uleb128 0xb
ARM GAS  C:\Users\Phuong\AppData\Local\Temp\cc08x83E.s 			page 98


 4250 0027 49       		.uleb128 0x49
 4251 0028 13       		.uleb128 0x13
 4252 0029 00       		.byte	0
 4253 002a 00       		.byte	0
 4254 002b 04       		.uleb128 0x4
 4255 002c 24       		.uleb128 0x24
 4256 002d 00       		.byte	0
 4257 002e 0B       		.uleb128 0xb
 4258 002f 0B       		.uleb128 0xb
 4259 0030 3E       		.uleb128 0x3e
 4260 0031 0B       		.uleb128 0xb
 4261 0032 03       		.uleb128 0x3
 4262 0033 08       		.uleb128 0x8
 4263 0034 00       		.byte	0
 4264 0035 00       		.byte	0
 4265 0036 05       		.uleb128 0x5
 4266 0037 0F       		.uleb128 0xf
 4267 0038 00       		.byte	0
 4268 0039 0B       		.uleb128 0xb
 4269 003a 0B       		.uleb128 0xb
 4270 003b 00       		.byte	0
 4271 003c 00       		.byte	0
 4272 003d 06       		.uleb128 0x6
 4273 003e 0F       		.uleb128 0xf
 4274 003f 00       		.byte	0
 4275 0040 0B       		.uleb128 0xb
 4276 0041 0B       		.uleb128 0xb
 4277 0042 49       		.uleb128 0x49
 4278 0043 13       		.uleb128 0x13
 4279 0044 00       		.byte	0
 4280 0045 00       		.byte	0
 4281 0046 07       		.uleb128 0x7
 4282 0047 26       		.uleb128 0x26
 4283 0048 00       		.byte	0
 4284 0049 49       		.uleb128 0x49
 4285 004a 13       		.uleb128 0x13
 4286 004b 00       		.byte	0
 4287 004c 00       		.byte	0
 4288 004d 08       		.uleb128 0x8
 4289 004e 01       		.uleb128 0x1
 4290 004f 01       		.byte	0x1
 4291 0050 49       		.uleb128 0x49
 4292 0051 13       		.uleb128 0x13
 4293 0052 01       		.uleb128 0x1
 4294 0053 13       		.uleb128 0x13
 4295 0054 00       		.byte	0
 4296 0055 00       		.byte	0
 4297 0056 09       		.uleb128 0x9
 4298 0057 21       		.uleb128 0x21
 4299 0058 00       		.byte	0
 4300 0059 49       		.uleb128 0x49
 4301 005a 13       		.uleb128 0x13
 4302 005b 2F       		.uleb128 0x2f
 4303 005c 0B       		.uleb128 0xb
 4304 005d 00       		.byte	0
 4305 005e 00       		.byte	0
 4306 005f 0A       		.uleb128 0xa
ARM GAS  C:\Users\Phuong\AppData\Local\Temp\cc08x83E.s 			page 99


 4307 0060 04       		.uleb128 0x4
 4308 0061 01       		.byte	0x1
 4309 0062 0B       		.uleb128 0xb
 4310 0063 0B       		.uleb128 0xb
 4311 0064 49       		.uleb128 0x49
 4312 0065 13       		.uleb128 0x13
 4313 0066 3A       		.uleb128 0x3a
 4314 0067 0B       		.uleb128 0xb
 4315 0068 3B       		.uleb128 0x3b
 4316 0069 0B       		.uleb128 0xb
 4317 006a 01       		.uleb128 0x1
 4318 006b 13       		.uleb128 0x13
 4319 006c 00       		.byte	0
 4320 006d 00       		.byte	0
 4321 006e 0B       		.uleb128 0xb
 4322 006f 28       		.uleb128 0x28
 4323 0070 00       		.byte	0
 4324 0071 03       		.uleb128 0x3
 4325 0072 0E       		.uleb128 0xe
 4326 0073 1C       		.uleb128 0x1c
 4327 0074 0B       		.uleb128 0xb
 4328 0075 00       		.byte	0
 4329 0076 00       		.byte	0
 4330 0077 0C       		.uleb128 0xc
 4331 0078 28       		.uleb128 0x28
 4332 0079 00       		.byte	0
 4333 007a 03       		.uleb128 0x3
 4334 007b 0E       		.uleb128 0xe
 4335 007c 1C       		.uleb128 0x1c
 4336 007d 0D       		.uleb128 0xd
 4337 007e 00       		.byte	0
 4338 007f 00       		.byte	0
 4339 0080 0D       		.uleb128 0xd
 4340 0081 13       		.uleb128 0x13
 4341 0082 01       		.byte	0x1
 4342 0083 03       		.uleb128 0x3
 4343 0084 0E       		.uleb128 0xe
 4344 0085 0B       		.uleb128 0xb
 4345 0086 0B       		.uleb128 0xb
 4346 0087 3A       		.uleb128 0x3a
 4347 0088 0B       		.uleb128 0xb
 4348 0089 3B       		.uleb128 0x3b
 4349 008a 0B       		.uleb128 0xb
 4350 008b 01       		.uleb128 0x1
 4351 008c 13       		.uleb128 0x13
 4352 008d 00       		.byte	0
 4353 008e 00       		.byte	0
 4354 008f 0E       		.uleb128 0xe
 4355 0090 0D       		.uleb128 0xd
 4356 0091 00       		.byte	0
 4357 0092 03       		.uleb128 0x3
 4358 0093 0E       		.uleb128 0xe
 4359 0094 3A       		.uleb128 0x3a
 4360 0095 0B       		.uleb128 0xb
 4361 0096 3B       		.uleb128 0x3b
 4362 0097 0B       		.uleb128 0xb
 4363 0098 49       		.uleb128 0x49
ARM GAS  C:\Users\Phuong\AppData\Local\Temp\cc08x83E.s 			page 100


 4364 0099 13       		.uleb128 0x13
 4365 009a 38       		.uleb128 0x38
 4366 009b 0B       		.uleb128 0xb
 4367 009c 00       		.byte	0
 4368 009d 00       		.byte	0
 4369 009e 0F       		.uleb128 0xf
 4370 009f 0D       		.uleb128 0xd
 4371 00a0 00       		.byte	0
 4372 00a1 03       		.uleb128 0x3
 4373 00a2 08       		.uleb128 0x8
 4374 00a3 3A       		.uleb128 0x3a
 4375 00a4 0B       		.uleb128 0xb
 4376 00a5 3B       		.uleb128 0x3b
 4377 00a6 0B       		.uleb128 0xb
 4378 00a7 49       		.uleb128 0x49
 4379 00a8 13       		.uleb128 0x13
 4380 00a9 38       		.uleb128 0x38
 4381 00aa 0B       		.uleb128 0xb
 4382 00ab 00       		.byte	0
 4383 00ac 00       		.byte	0
 4384 00ad 10       		.uleb128 0x10
 4385 00ae 13       		.uleb128 0x13
 4386 00af 01       		.byte	0x1
 4387 00b0 03       		.uleb128 0x3
 4388 00b1 0E       		.uleb128 0xe
 4389 00b2 0B       		.uleb128 0xb
 4390 00b3 05       		.uleb128 0x5
 4391 00b4 3A       		.uleb128 0x3a
 4392 00b5 0B       		.uleb128 0xb
 4393 00b6 3B       		.uleb128 0x3b
 4394 00b7 0B       		.uleb128 0xb
 4395 00b8 01       		.uleb128 0x1
 4396 00b9 13       		.uleb128 0x13
 4397 00ba 00       		.byte	0
 4398 00bb 00       		.byte	0
 4399 00bc 11       		.uleb128 0x11
 4400 00bd 0D       		.uleb128 0xd
 4401 00be 00       		.byte	0
 4402 00bf 03       		.uleb128 0x3
 4403 00c0 08       		.uleb128 0x8
 4404 00c1 3A       		.uleb128 0x3a
 4405 00c2 0B       		.uleb128 0xb
 4406 00c3 3B       		.uleb128 0x3b
 4407 00c4 05       		.uleb128 0x5
 4408 00c5 49       		.uleb128 0x49
 4409 00c6 13       		.uleb128 0x13
 4410 00c7 38       		.uleb128 0x38
 4411 00c8 0B       		.uleb128 0xb
 4412 00c9 00       		.byte	0
 4413 00ca 00       		.byte	0
 4414 00cb 12       		.uleb128 0x12
 4415 00cc 0D       		.uleb128 0xd
 4416 00cd 00       		.byte	0
 4417 00ce 03       		.uleb128 0x3
 4418 00cf 0E       		.uleb128 0xe
 4419 00d0 3A       		.uleb128 0x3a
 4420 00d1 0B       		.uleb128 0xb
ARM GAS  C:\Users\Phuong\AppData\Local\Temp\cc08x83E.s 			page 101


 4421 00d2 3B       		.uleb128 0x3b
 4422 00d3 05       		.uleb128 0x5
 4423 00d4 49       		.uleb128 0x49
 4424 00d5 13       		.uleb128 0x13
 4425 00d6 38       		.uleb128 0x38
 4426 00d7 0B       		.uleb128 0xb
 4427 00d8 00       		.byte	0
 4428 00d9 00       		.byte	0
 4429 00da 13       		.uleb128 0x13
 4430 00db 0D       		.uleb128 0xd
 4431 00dc 00       		.byte	0
 4432 00dd 03       		.uleb128 0x3
 4433 00de 08       		.uleb128 0x8
 4434 00df 3A       		.uleb128 0x3a
 4435 00e0 0B       		.uleb128 0xb
 4436 00e1 3B       		.uleb128 0x3b
 4437 00e2 05       		.uleb128 0x5
 4438 00e3 49       		.uleb128 0x49
 4439 00e4 13       		.uleb128 0x13
 4440 00e5 38       		.uleb128 0x38
 4441 00e6 05       		.uleb128 0x5
 4442 00e7 00       		.byte	0
 4443 00e8 00       		.byte	0
 4444 00e9 14       		.uleb128 0x14
 4445 00ea 04       		.uleb128 0x4
 4446 00eb 01       		.byte	0x1
 4447 00ec 03       		.uleb128 0x3
 4448 00ed 0E       		.uleb128 0xe
 4449 00ee 0B       		.uleb128 0xb
 4450 00ef 0B       		.uleb128 0xb
 4451 00f0 49       		.uleb128 0x49
 4452 00f1 13       		.uleb128 0x13
 4453 00f2 3A       		.uleb128 0x3a
 4454 00f3 0B       		.uleb128 0xb
 4455 00f4 3B       		.uleb128 0x3b
 4456 00f5 0B       		.uleb128 0xb
 4457 00f6 01       		.uleb128 0x1
 4458 00f7 13       		.uleb128 0x13
 4459 00f8 00       		.byte	0
 4460 00f9 00       		.byte	0
 4461 00fa 15       		.uleb128 0x15
 4462 00fb 15       		.uleb128 0x15
 4463 00fc 01       		.byte	0x1
 4464 00fd 27       		.uleb128 0x27
 4465 00fe 19       		.uleb128 0x19
 4466 00ff 49       		.uleb128 0x49
 4467 0100 13       		.uleb128 0x13
 4468 0101 01       		.uleb128 0x1
 4469 0102 13       		.uleb128 0x13
 4470 0103 00       		.byte	0
 4471 0104 00       		.byte	0
 4472 0105 16       		.uleb128 0x16
 4473 0106 05       		.uleb128 0x5
 4474 0107 00       		.byte	0
 4475 0108 49       		.uleb128 0x49
 4476 0109 13       		.uleb128 0x13
 4477 010a 00       		.byte	0
ARM GAS  C:\Users\Phuong\AppData\Local\Temp\cc08x83E.s 			page 102


 4478 010b 00       		.byte	0
 4479 010c 17       		.uleb128 0x17
 4480 010d 15       		.uleb128 0x15
 4481 010e 01       		.byte	0x1
 4482 010f 27       		.uleb128 0x27
 4483 0110 19       		.uleb128 0x19
 4484 0111 01       		.uleb128 0x1
 4485 0112 13       		.uleb128 0x13
 4486 0113 00       		.byte	0
 4487 0114 00       		.byte	0
 4488 0115 18       		.uleb128 0x18
 4489 0116 2E       		.uleb128 0x2e
 4490 0117 01       		.byte	0x1
 4491 0118 03       		.uleb128 0x3
 4492 0119 0E       		.uleb128 0xe
 4493 011a 3A       		.uleb128 0x3a
 4494 011b 0B       		.uleb128 0xb
 4495 011c 3B       		.uleb128 0x3b
 4496 011d 0B       		.uleb128 0xb
 4497 011e 27       		.uleb128 0x27
 4498 011f 19       		.uleb128 0x19
 4499 0120 49       		.uleb128 0x49
 4500 0121 13       		.uleb128 0x13
 4501 0122 11       		.uleb128 0x11
 4502 0123 01       		.uleb128 0x1
 4503 0124 12       		.uleb128 0x12
 4504 0125 06       		.uleb128 0x6
 4505 0126 40       		.uleb128 0x40
 4506 0127 18       		.uleb128 0x18
 4507 0128 9742     		.uleb128 0x2117
 4508 012a 19       		.uleb128 0x19
 4509 012b 01       		.uleb128 0x1
 4510 012c 13       		.uleb128 0x13
 4511 012d 00       		.byte	0
 4512 012e 00       		.byte	0
 4513 012f 19       		.uleb128 0x19
 4514 0130 34       		.uleb128 0x34
 4515 0131 00       		.byte	0
 4516 0132 03       		.uleb128 0x3
 4517 0133 08       		.uleb128 0x8
 4518 0134 3A       		.uleb128 0x3a
 4519 0135 0B       		.uleb128 0xb
 4520 0136 3B       		.uleb128 0x3b
 4521 0137 0B       		.uleb128 0xb
 4522 0138 49       		.uleb128 0x49
 4523 0139 13       		.uleb128 0x13
 4524 013a 02       		.uleb128 0x2
 4525 013b 17       		.uleb128 0x17
 4526 013c 00       		.byte	0
 4527 013d 00       		.byte	0
 4528 013e 1A       		.uleb128 0x1a
 4529 013f 0A       		.uleb128 0xa
 4530 0140 00       		.byte	0
 4531 0141 03       		.uleb128 0x3
 4532 0142 0E       		.uleb128 0xe
 4533 0143 3A       		.uleb128 0x3a
 4534 0144 0B       		.uleb128 0xb
ARM GAS  C:\Users\Phuong\AppData\Local\Temp\cc08x83E.s 			page 103


 4535 0145 3B       		.uleb128 0x3b
 4536 0146 0B       		.uleb128 0xb
 4537 0147 11       		.uleb128 0x11
 4538 0148 01       		.uleb128 0x1
 4539 0149 00       		.byte	0
 4540 014a 00       		.byte	0
 4541 014b 1B       		.uleb128 0x1b
 4542 014c 05       		.uleb128 0x5
 4543 014d 00       		.byte	0
 4544 014e 03       		.uleb128 0x3
 4545 014f 08       		.uleb128 0x8
 4546 0150 3A       		.uleb128 0x3a
 4547 0151 0B       		.uleb128 0xb
 4548 0152 3B       		.uleb128 0x3b
 4549 0153 0B       		.uleb128 0xb
 4550 0154 49       		.uleb128 0x49
 4551 0155 13       		.uleb128 0x13
 4552 0156 02       		.uleb128 0x2
 4553 0157 17       		.uleb128 0x17
 4554 0158 00       		.byte	0
 4555 0159 00       		.byte	0
 4556 015a 1C       		.uleb128 0x1c
 4557 015b 05       		.uleb128 0x5
 4558 015c 00       		.byte	0
 4559 015d 03       		.uleb128 0x3
 4560 015e 0E       		.uleb128 0xe
 4561 015f 3A       		.uleb128 0x3a
 4562 0160 0B       		.uleb128 0xb
 4563 0161 3B       		.uleb128 0x3b
 4564 0162 0B       		.uleb128 0xb
 4565 0163 49       		.uleb128 0x49
 4566 0164 13       		.uleb128 0x13
 4567 0165 02       		.uleb128 0x2
 4568 0166 17       		.uleb128 0x17
 4569 0167 00       		.byte	0
 4570 0168 00       		.byte	0
 4571 0169 1D       		.uleb128 0x1d
 4572 016a 2E       		.uleb128 0x2e
 4573 016b 01       		.byte	0x1
 4574 016c 3F       		.uleb128 0x3f
 4575 016d 19       		.uleb128 0x19
 4576 016e 03       		.uleb128 0x3
 4577 016f 0E       		.uleb128 0xe
 4578 0170 3A       		.uleb128 0x3a
 4579 0171 0B       		.uleb128 0xb
 4580 0172 3B       		.uleb128 0x3b
 4581 0173 0B       		.uleb128 0xb
 4582 0174 27       		.uleb128 0x27
 4583 0175 19       		.uleb128 0x19
 4584 0176 11       		.uleb128 0x11
 4585 0177 01       		.uleb128 0x1
 4586 0178 12       		.uleb128 0x12
 4587 0179 06       		.uleb128 0x6
 4588 017a 40       		.uleb128 0x40
 4589 017b 18       		.uleb128 0x18
 4590 017c 9742     		.uleb128 0x2117
 4591 017e 19       		.uleb128 0x19
ARM GAS  C:\Users\Phuong\AppData\Local\Temp\cc08x83E.s 			page 104


 4592 017f 01       		.uleb128 0x1
 4593 0180 13       		.uleb128 0x13
 4594 0181 00       		.byte	0
 4595 0182 00       		.byte	0
 4596 0183 1E       		.uleb128 0x1e
 4597 0184 898201   		.uleb128 0x4109
 4598 0187 00       		.byte	0
 4599 0188 11       		.uleb128 0x11
 4600 0189 01       		.uleb128 0x1
 4601 018a 31       		.uleb128 0x31
 4602 018b 13       		.uleb128 0x13
 4603 018c 00       		.byte	0
 4604 018d 00       		.byte	0
 4605 018e 1F       		.uleb128 0x1f
 4606 018f 34       		.uleb128 0x34
 4607 0190 00       		.byte	0
 4608 0191 03       		.uleb128 0x3
 4609 0192 0E       		.uleb128 0xe
 4610 0193 3A       		.uleb128 0x3a
 4611 0194 0B       		.uleb128 0xb
 4612 0195 3B       		.uleb128 0x3b
 4613 0196 0B       		.uleb128 0xb
 4614 0197 49       		.uleb128 0x49
 4615 0198 13       		.uleb128 0x13
 4616 0199 02       		.uleb128 0x2
 4617 019a 17       		.uleb128 0x17
 4618 019b 00       		.byte	0
 4619 019c 00       		.byte	0
 4620 019d 20       		.uleb128 0x20
 4621 019e 0A       		.uleb128 0xa
 4622 019f 00       		.byte	0
 4623 01a0 03       		.uleb128 0x3
 4624 01a1 08       		.uleb128 0x8
 4625 01a2 3A       		.uleb128 0x3a
 4626 01a3 0B       		.uleb128 0xb
 4627 01a4 3B       		.uleb128 0x3b
 4628 01a5 05       		.uleb128 0x5
 4629 01a6 11       		.uleb128 0x11
 4630 01a7 01       		.uleb128 0x1
 4631 01a8 00       		.byte	0
 4632 01a9 00       		.byte	0
 4633 01aa 21       		.uleb128 0x21
 4634 01ab 0A       		.uleb128 0xa
 4635 01ac 00       		.byte	0
 4636 01ad 03       		.uleb128 0x3
 4637 01ae 0E       		.uleb128 0xe
 4638 01af 3A       		.uleb128 0x3a
 4639 01b0 0B       		.uleb128 0xb
 4640 01b1 3B       		.uleb128 0x3b
 4641 01b2 05       		.uleb128 0x5
 4642 01b3 11       		.uleb128 0x11
 4643 01b4 01       		.uleb128 0x1
 4644 01b5 00       		.byte	0
 4645 01b6 00       		.byte	0
 4646 01b7 22       		.uleb128 0x22
 4647 01b8 898201   		.uleb128 0x4109
 4648 01bb 01       		.byte	0x1
ARM GAS  C:\Users\Phuong\AppData\Local\Temp\cc08x83E.s 			page 105


 4649 01bc 11       		.uleb128 0x11
 4650 01bd 01       		.uleb128 0x1
 4651 01be 31       		.uleb128 0x31
 4652 01bf 13       		.uleb128 0x13
 4653 01c0 01       		.uleb128 0x1
 4654 01c1 13       		.uleb128 0x13
 4655 01c2 00       		.byte	0
 4656 01c3 00       		.byte	0
 4657 01c4 23       		.uleb128 0x23
 4658 01c5 8A8201   		.uleb128 0x410a
 4659 01c8 00       		.byte	0
 4660 01c9 02       		.uleb128 0x2
 4661 01ca 18       		.uleb128 0x18
 4662 01cb 9142     		.uleb128 0x2111
 4663 01cd 18       		.uleb128 0x18
 4664 01ce 00       		.byte	0
 4665 01cf 00       		.byte	0
 4666 01d0 24       		.uleb128 0x24
 4667 01d1 898201   		.uleb128 0x4109
 4668 01d4 01       		.byte	0x1
 4669 01d5 11       		.uleb128 0x11
 4670 01d6 01       		.uleb128 0x1
 4671 01d7 9342     		.uleb128 0x2113
 4672 01d9 18       		.uleb128 0x18
 4673 01da 01       		.uleb128 0x1
 4674 01db 13       		.uleb128 0x13
 4675 01dc 00       		.byte	0
 4676 01dd 00       		.byte	0
 4677 01de 25       		.uleb128 0x25
 4678 01df 898201   		.uleb128 0x4109
 4679 01e2 01       		.byte	0x1
 4680 01e3 11       		.uleb128 0x11
 4681 01e4 01       		.uleb128 0x1
 4682 01e5 31       		.uleb128 0x31
 4683 01e6 13       		.uleb128 0x13
 4684 01e7 00       		.byte	0
 4685 01e8 00       		.byte	0
 4686 01e9 26       		.uleb128 0x26
 4687 01ea 2E       		.uleb128 0x2e
 4688 01eb 01       		.byte	0x1
 4689 01ec 3F       		.uleb128 0x3f
 4690 01ed 19       		.uleb128 0x19
 4691 01ee 03       		.uleb128 0x3
 4692 01ef 0E       		.uleb128 0xe
 4693 01f0 3A       		.uleb128 0x3a
 4694 01f1 0B       		.uleb128 0xb
 4695 01f2 3B       		.uleb128 0x3b
 4696 01f3 05       		.uleb128 0x5
 4697 01f4 27       		.uleb128 0x27
 4698 01f5 19       		.uleb128 0x19
 4699 01f6 49       		.uleb128 0x49
 4700 01f7 13       		.uleb128 0x13
 4701 01f8 11       		.uleb128 0x11
 4702 01f9 01       		.uleb128 0x1
 4703 01fa 12       		.uleb128 0x12
 4704 01fb 06       		.uleb128 0x6
 4705 01fc 40       		.uleb128 0x40
ARM GAS  C:\Users\Phuong\AppData\Local\Temp\cc08x83E.s 			page 106


 4706 01fd 18       		.uleb128 0x18
 4707 01fe 9742     		.uleb128 0x2117
 4708 0200 19       		.uleb128 0x19
 4709 0201 01       		.uleb128 0x1
 4710 0202 13       		.uleb128 0x13
 4711 0203 00       		.byte	0
 4712 0204 00       		.byte	0
 4713 0205 27       		.uleb128 0x27
 4714 0206 05       		.uleb128 0x5
 4715 0207 00       		.byte	0
 4716 0208 03       		.uleb128 0x3
 4717 0209 08       		.uleb128 0x8
 4718 020a 3A       		.uleb128 0x3a
 4719 020b 0B       		.uleb128 0xb
 4720 020c 3B       		.uleb128 0x3b
 4721 020d 05       		.uleb128 0x5
 4722 020e 49       		.uleb128 0x49
 4723 020f 13       		.uleb128 0x13
 4724 0210 02       		.uleb128 0x2
 4725 0211 17       		.uleb128 0x17
 4726 0212 00       		.byte	0
 4727 0213 00       		.byte	0
 4728 0214 28       		.uleb128 0x28
 4729 0215 05       		.uleb128 0x5
 4730 0216 00       		.byte	0
 4731 0217 03       		.uleb128 0x3
 4732 0218 0E       		.uleb128 0xe
 4733 0219 3A       		.uleb128 0x3a
 4734 021a 0B       		.uleb128 0xb
 4735 021b 3B       		.uleb128 0x3b
 4736 021c 05       		.uleb128 0x5
 4737 021d 49       		.uleb128 0x49
 4738 021e 13       		.uleb128 0x13
 4739 021f 02       		.uleb128 0x2
 4740 0220 17       		.uleb128 0x17
 4741 0221 00       		.byte	0
 4742 0222 00       		.byte	0
 4743 0223 29       		.uleb128 0x29
 4744 0224 34       		.uleb128 0x34
 4745 0225 00       		.byte	0
 4746 0226 03       		.uleb128 0x3
 4747 0227 0E       		.uleb128 0xe
 4748 0228 3A       		.uleb128 0x3a
 4749 0229 0B       		.uleb128 0xb
 4750 022a 3B       		.uleb128 0x3b
 4751 022b 05       		.uleb128 0x5
 4752 022c 49       		.uleb128 0x49
 4753 022d 13       		.uleb128 0x13
 4754 022e 02       		.uleb128 0x2
 4755 022f 17       		.uleb128 0x17
 4756 0230 00       		.byte	0
 4757 0231 00       		.byte	0
 4758 0232 2A       		.uleb128 0x2a
 4759 0233 05       		.uleb128 0x5
 4760 0234 00       		.byte	0
 4761 0235 03       		.uleb128 0x3
 4762 0236 0E       		.uleb128 0xe
ARM GAS  C:\Users\Phuong\AppData\Local\Temp\cc08x83E.s 			page 107


 4763 0237 3A       		.uleb128 0x3a
 4764 0238 0B       		.uleb128 0xb
 4765 0239 3B       		.uleb128 0x3b
 4766 023a 05       		.uleb128 0x5
 4767 023b 49       		.uleb128 0x49
 4768 023c 13       		.uleb128 0x13
 4769 023d 02       		.uleb128 0x2
 4770 023e 18       		.uleb128 0x18
 4771 023f 00       		.byte	0
 4772 0240 00       		.byte	0
 4773 0241 2B       		.uleb128 0x2b
 4774 0242 34       		.uleb128 0x34
 4775 0243 00       		.byte	0
 4776 0244 03       		.uleb128 0x3
 4777 0245 08       		.uleb128 0x8
 4778 0246 3A       		.uleb128 0x3a
 4779 0247 0B       		.uleb128 0xb
 4780 0248 3B       		.uleb128 0x3b
 4781 0249 05       		.uleb128 0x5
 4782 024a 49       		.uleb128 0x49
 4783 024b 13       		.uleb128 0x13
 4784 024c 02       		.uleb128 0x2
 4785 024d 17       		.uleb128 0x17
 4786 024e 00       		.byte	0
 4787 024f 00       		.byte	0
 4788 0250 2C       		.uleb128 0x2c
 4789 0251 0B       		.uleb128 0xb
 4790 0252 01       		.byte	0x1
 4791 0253 11       		.uleb128 0x11
 4792 0254 01       		.uleb128 0x1
 4793 0255 12       		.uleb128 0x12
 4794 0256 06       		.uleb128 0x6
 4795 0257 01       		.uleb128 0x1
 4796 0258 13       		.uleb128 0x13
 4797 0259 00       		.byte	0
 4798 025a 00       		.byte	0
 4799 025b 2D       		.uleb128 0x2d
 4800 025c 0B       		.uleb128 0xb
 4801 025d 01       		.byte	0x1
 4802 025e 11       		.uleb128 0x11
 4803 025f 01       		.uleb128 0x1
 4804 0260 12       		.uleb128 0x12
 4805 0261 06       		.uleb128 0x6
 4806 0262 00       		.byte	0
 4807 0263 00       		.byte	0
 4808 0264 2E       		.uleb128 0x2e
 4809 0265 2E       		.uleb128 0x2e
 4810 0266 01       		.byte	0x1
 4811 0267 3F       		.uleb128 0x3f
 4812 0268 19       		.uleb128 0x19
 4813 0269 03       		.uleb128 0x3
 4814 026a 0E       		.uleb128 0xe
 4815 026b 3A       		.uleb128 0x3a
 4816 026c 0B       		.uleb128 0xb
 4817 026d 3B       		.uleb128 0x3b
 4818 026e 05       		.uleb128 0x5
 4819 026f 27       		.uleb128 0x27
ARM GAS  C:\Users\Phuong\AppData\Local\Temp\cc08x83E.s 			page 108


 4820 0270 19       		.uleb128 0x19
 4821 0271 11       		.uleb128 0x11
 4822 0272 01       		.uleb128 0x1
 4823 0273 12       		.uleb128 0x12
 4824 0274 06       		.uleb128 0x6
 4825 0275 40       		.uleb128 0x40
 4826 0276 18       		.uleb128 0x18
 4827 0277 9742     		.uleb128 0x2117
 4828 0279 19       		.uleb128 0x19
 4829 027a 01       		.uleb128 0x1
 4830 027b 13       		.uleb128 0x13
 4831 027c 00       		.byte	0
 4832 027d 00       		.byte	0
 4833 027e 2F       		.uleb128 0x2f
 4834 027f 05       		.uleb128 0x5
 4835 0280 00       		.byte	0
 4836 0281 03       		.uleb128 0x3
 4837 0282 08       		.uleb128 0x8
 4838 0283 3A       		.uleb128 0x3a
 4839 0284 0B       		.uleb128 0xb
 4840 0285 3B       		.uleb128 0x3b
 4841 0286 05       		.uleb128 0x5
 4842 0287 49       		.uleb128 0x49
 4843 0288 13       		.uleb128 0x13
 4844 0289 02       		.uleb128 0x2
 4845 028a 18       		.uleb128 0x18
 4846 028b 00       		.byte	0
 4847 028c 00       		.byte	0
 4848 028d 30       		.uleb128 0x30
 4849 028e 34       		.uleb128 0x34
 4850 028f 00       		.byte	0
 4851 0290 03       		.uleb128 0x3
 4852 0291 08       		.uleb128 0x8
 4853 0292 3A       		.uleb128 0x3a
 4854 0293 0B       		.uleb128 0xb
 4855 0294 3B       		.uleb128 0x3b
 4856 0295 05       		.uleb128 0x5
 4857 0296 49       		.uleb128 0x49
 4858 0297 13       		.uleb128 0x13
 4859 0298 02       		.uleb128 0x2
 4860 0299 18       		.uleb128 0x18
 4861 029a 00       		.byte	0
 4862 029b 00       		.byte	0
 4863 029c 31       		.uleb128 0x31
 4864 029d 34       		.uleb128 0x34
 4865 029e 00       		.byte	0
 4866 029f 03       		.uleb128 0x3
 4867 02a0 0E       		.uleb128 0xe
 4868 02a1 3A       		.uleb128 0x3a
 4869 02a2 0B       		.uleb128 0xb
 4870 02a3 3B       		.uleb128 0x3b
 4871 02a4 0B       		.uleb128 0xb
 4872 02a5 49       		.uleb128 0x49
 4873 02a6 13       		.uleb128 0x13
 4874 02a7 02       		.uleb128 0x2
 4875 02a8 18       		.uleb128 0x18
 4876 02a9 00       		.byte	0
ARM GAS  C:\Users\Phuong\AppData\Local\Temp\cc08x83E.s 			page 109


 4877 02aa 00       		.byte	0
 4878 02ab 32       		.uleb128 0x32
 4879 02ac 34       		.uleb128 0x34
 4880 02ad 00       		.byte	0
 4881 02ae 03       		.uleb128 0x3
 4882 02af 0E       		.uleb128 0xe
 4883 02b0 3A       		.uleb128 0x3a
 4884 02b1 0B       		.uleb128 0xb
 4885 02b2 3B       		.uleb128 0x3b
 4886 02b3 05       		.uleb128 0x5
 4887 02b4 49       		.uleb128 0x49
 4888 02b5 13       		.uleb128 0x13
 4889 02b6 3F       		.uleb128 0x3f
 4890 02b7 19       		.uleb128 0x19
 4891 02b8 3C       		.uleb128 0x3c
 4892 02b9 19       		.uleb128 0x19
 4893 02ba 00       		.byte	0
 4894 02bb 00       		.byte	0
 4895 02bc 33       		.uleb128 0x33
 4896 02bd 34       		.uleb128 0x34
 4897 02be 00       		.byte	0
 4898 02bf 03       		.uleb128 0x3
 4899 02c0 0E       		.uleb128 0xe
 4900 02c1 3A       		.uleb128 0x3a
 4901 02c2 0B       		.uleb128 0xb
 4902 02c3 3B       		.uleb128 0x3b
 4903 02c4 0B       		.uleb128 0xb
 4904 02c5 49       		.uleb128 0x49
 4905 02c6 13       		.uleb128 0x13
 4906 02c7 3F       		.uleb128 0x3f
 4907 02c8 19       		.uleb128 0x19
 4908 02c9 3C       		.uleb128 0x3c
 4909 02ca 19       		.uleb128 0x19
 4910 02cb 00       		.byte	0
 4911 02cc 00       		.byte	0
 4912 02cd 34       		.uleb128 0x34
 4913 02ce 34       		.uleb128 0x34
 4914 02cf 00       		.byte	0
 4915 02d0 03       		.uleb128 0x3
 4916 02d1 0E       		.uleb128 0xe
 4917 02d2 3A       		.uleb128 0x3a
 4918 02d3 0B       		.uleb128 0xb
 4919 02d4 3B       		.uleb128 0x3b
 4920 02d5 0B       		.uleb128 0xb
 4921 02d6 49       		.uleb128 0x49
 4922 02d7 13       		.uleb128 0x13
 4923 02d8 3F       		.uleb128 0x3f
 4924 02d9 19       		.uleb128 0x19
 4925 02da 02       		.uleb128 0x2
 4926 02db 18       		.uleb128 0x18
 4927 02dc 00       		.byte	0
 4928 02dd 00       		.byte	0
 4929 02de 35       		.uleb128 0x35
 4930 02df 2E       		.uleb128 0x2e
 4931 02e0 00       		.byte	0
 4932 02e1 3F       		.uleb128 0x3f
 4933 02e2 19       		.uleb128 0x19
ARM GAS  C:\Users\Phuong\AppData\Local\Temp\cc08x83E.s 			page 110


 4934 02e3 3C       		.uleb128 0x3c
 4935 02e4 19       		.uleb128 0x19
 4936 02e5 6E       		.uleb128 0x6e
 4937 02e6 0E       		.uleb128 0xe
 4938 02e7 03       		.uleb128 0x3
 4939 02e8 0E       		.uleb128 0xe
 4940 02e9 3A       		.uleb128 0x3a
 4941 02ea 0B       		.uleb128 0xb
 4942 02eb 3B       		.uleb128 0x3b
 4943 02ec 0B       		.uleb128 0xb
 4944 02ed 00       		.byte	0
 4945 02ee 00       		.byte	0
 4946 02ef 36       		.uleb128 0x36
 4947 02f0 2E       		.uleb128 0x2e
 4948 02f1 00       		.byte	0
 4949 02f2 3F       		.uleb128 0x3f
 4950 02f3 19       		.uleb128 0x19
 4951 02f4 3C       		.uleb128 0x3c
 4952 02f5 19       		.uleb128 0x19
 4953 02f6 6E       		.uleb128 0x6e
 4954 02f7 0E       		.uleb128 0xe
 4955 02f8 03       		.uleb128 0x3
 4956 02f9 0E       		.uleb128 0xe
 4957 02fa 00       		.byte	0
 4958 02fb 00       		.byte	0
 4959 02fc 00       		.byte	0
 4960              		.section	.debug_loc,"",%progbits
 4961              	.Ldebug_loc0:
 4962              	.LLST0:
 4963 0000 00000000 		.4byte	.LVL0
 4964 0004 02000000 		.4byte	.LVL1
 4965 0008 0200     		.2byte	0x2
 4966 000a 30       		.byte	0x30
 4967 000b 9F       		.byte	0x9f
 4968 000c 02000000 		.4byte	.LVL1
 4969 0010 28000000 		.4byte	.LVL3
 4970 0014 0100     		.2byte	0x1
 4971 0016 50       		.byte	0x50
 4972 0017 2A000000 		.4byte	.LVL4
 4973 001b 3C000000 		.4byte	.LVL9
 4974 001f 0100     		.2byte	0x1
 4975 0021 50       		.byte	0x50
 4976 0022 3E000000 		.4byte	.LVL10
 4977 0026 40000000 		.4byte	.LVL11
 4978 002a 0100     		.2byte	0x1
 4979 002c 50       		.byte	0x50
 4980 002d 00000000 		.4byte	0
 4981 0031 00000000 		.4byte	0
 4982              	.LLST1:
 4983 0035 1A000000 		.4byte	.LVL2
 4984 0039 2C000000 		.4byte	.LVL5
 4985 003d 0100     		.2byte	0x1
 4986 003f 53       		.byte	0x53
 4987 0040 32000000 		.4byte	.LVL6
 4988 0044 3A000000 		.4byte	.LVL8
 4989 0048 0100     		.2byte	0x1
 4990 004a 53       		.byte	0x53
ARM GAS  C:\Users\Phuong\AppData\Local\Temp\cc08x83E.s 			page 111


 4991 004b 00000000 		.4byte	0
 4992 004f 00000000 		.4byte	0
 4993              	.LLST2:
 4994 0053 00000000 		.4byte	.LVL12
 4995 0057 16000000 		.4byte	.LVL14
 4996 005b 0100     		.2byte	0x1
 4997 005d 50       		.byte	0x50
 4998 005e 16000000 		.4byte	.LVL14
 4999 0062 22000000 		.4byte	.LVL16
 5000 0066 0400     		.2byte	0x4
 5001 0068 F3       		.byte	0xf3
 5002 0069 01       		.uleb128 0x1
 5003 006a 50       		.byte	0x50
 5004 006b 9F       		.byte	0x9f
 5005 006c 22000000 		.4byte	.LVL16
 5006 0070 36000000 		.4byte	.LVL18
 5007 0074 0100     		.2byte	0x1
 5008 0076 50       		.byte	0x50
 5009 0077 36000000 		.4byte	.LVL18
 5010 007b 38000000 		.4byte	.LVL19
 5011 007f 0400     		.2byte	0x4
 5012 0081 F3       		.byte	0xf3
 5013 0082 01       		.uleb128 0x1
 5014 0083 50       		.byte	0x50
 5015 0084 9F       		.byte	0x9f
 5016 0085 38000000 		.4byte	.LVL19
 5017 0089 3A000000 		.4byte	.LVL20
 5018 008d 0100     		.2byte	0x1
 5019 008f 50       		.byte	0x50
 5020 0090 3A000000 		.4byte	.LVL20
 5021 0094 3C000000 		.4byte	.LVL21
 5022 0098 0400     		.2byte	0x4
 5023 009a F3       		.byte	0xf3
 5024 009b 01       		.uleb128 0x1
 5025 009c 50       		.byte	0x50
 5026 009d 9F       		.byte	0x9f
 5027 009e 3C000000 		.4byte	.LVL21
 5028 00a2 3E000000 		.4byte	.LVL22
 5029 00a6 0100     		.2byte	0x1
 5030 00a8 50       		.byte	0x50
 5031 00a9 3E000000 		.4byte	.LVL22
 5032 00ad 48000000 		.4byte	.LVL24
 5033 00b1 0400     		.2byte	0x4
 5034 00b3 F3       		.byte	0xf3
 5035 00b4 01       		.uleb128 0x1
 5036 00b5 50       		.byte	0x50
 5037 00b6 9F       		.byte	0x9f
 5038 00b7 48000000 		.4byte	.LVL24
 5039 00bb 4A000000 		.4byte	.LVL25
 5040 00bf 0100     		.2byte	0x1
 5041 00c1 50       		.byte	0x50
 5042 00c2 4A000000 		.4byte	.LVL25
 5043 00c6 4C000000 		.4byte	.LVL26
 5044 00ca 0400     		.2byte	0x4
 5045 00cc F3       		.byte	0xf3
 5046 00cd 01       		.uleb128 0x1
 5047 00ce 50       		.byte	0x50
ARM GAS  C:\Users\Phuong\AppData\Local\Temp\cc08x83E.s 			page 112


 5048 00cf 9F       		.byte	0x9f
 5049 00d0 4C000000 		.4byte	.LVL26
 5050 00d4 4E000000 		.4byte	.LVL27
 5051 00d8 0100     		.2byte	0x1
 5052 00da 50       		.byte	0x50
 5053 00db 4E000000 		.4byte	.LVL27
 5054 00df 50000000 		.4byte	.LVL28
 5055 00e3 0400     		.2byte	0x4
 5056 00e5 F3       		.byte	0xf3
 5057 00e6 01       		.uleb128 0x1
 5058 00e7 50       		.byte	0x50
 5059 00e8 9F       		.byte	0x9f
 5060 00e9 50000000 		.4byte	.LVL28
 5061 00ed 52000000 		.4byte	.LVL29
 5062 00f1 0100     		.2byte	0x1
 5063 00f3 50       		.byte	0x50
 5064 00f4 52000000 		.4byte	.LVL29
 5065 00f8 58000000 		.4byte	.LFE55
 5066 00fc 0400     		.2byte	0x4
 5067 00fe F3       		.byte	0xf3
 5068 00ff 01       		.uleb128 0x1
 5069 0100 50       		.byte	0x50
 5070 0101 9F       		.byte	0x9f
 5071 0102 00000000 		.4byte	0
 5072 0106 00000000 		.4byte	0
 5073              	.LLST3:
 5074 010a 00000000 		.4byte	.LVL12
 5075 010e 18000000 		.4byte	.LVL15
 5076 0112 0100     		.2byte	0x1
 5077 0114 51       		.byte	0x51
 5078 0115 18000000 		.4byte	.LVL15
 5079 0119 22000000 		.4byte	.LVL16
 5080 011d 0400     		.2byte	0x4
 5081 011f F3       		.byte	0xf3
 5082 0120 01       		.uleb128 0x1
 5083 0121 51       		.byte	0x51
 5084 0122 9F       		.byte	0x9f
 5085 0123 22000000 		.4byte	.LVL16
 5086 0127 44000000 		.4byte	.LVL23
 5087 012b 0100     		.2byte	0x1
 5088 012d 51       		.byte	0x51
 5089 012e 44000000 		.4byte	.LVL23
 5090 0132 48000000 		.4byte	.LVL24
 5091 0136 0400     		.2byte	0x4
 5092 0138 F3       		.byte	0xf3
 5093 0139 01       		.uleb128 0x1
 5094 013a 51       		.byte	0x51
 5095 013b 9F       		.byte	0x9f
 5096 013c 48000000 		.4byte	.LVL24
 5097 0140 52000000 		.4byte	.LVL29
 5098 0144 0100     		.2byte	0x1
 5099 0146 51       		.byte	0x51
 5100 0147 52000000 		.4byte	.LVL29
 5101 014b 58000000 		.4byte	.LFE55
 5102 014f 0400     		.2byte	0x4
 5103 0151 F3       		.byte	0xf3
 5104 0152 01       		.uleb128 0x1
ARM GAS  C:\Users\Phuong\AppData\Local\Temp\cc08x83E.s 			page 113


 5105 0153 51       		.byte	0x51
 5106 0154 9F       		.byte	0x9f
 5107 0155 00000000 		.4byte	0
 5108 0159 00000000 		.4byte	0
 5109              	.LLST4:
 5110 015d 00000000 		.4byte	.LVL12
 5111 0161 0A000000 		.4byte	.LVL13
 5112 0165 0100     		.2byte	0x1
 5113 0167 52       		.byte	0x52
 5114 0168 0A000000 		.4byte	.LVL13
 5115 016c 22000000 		.4byte	.LVL16
 5116 0170 0400     		.2byte	0x4
 5117 0172 F3       		.byte	0xf3
 5118 0173 01       		.uleb128 0x1
 5119 0174 52       		.byte	0x52
 5120 0175 9F       		.byte	0x9f
 5121 0176 22000000 		.4byte	.LVL16
 5122 017a 2E000000 		.4byte	.LVL17
 5123 017e 0100     		.2byte	0x1
 5124 0180 52       		.byte	0x52
 5125 0181 2E000000 		.4byte	.LVL17
 5126 0185 38000000 		.4byte	.LVL19
 5127 0189 0400     		.2byte	0x4
 5128 018b F3       		.byte	0xf3
 5129 018c 01       		.uleb128 0x1
 5130 018d 52       		.byte	0x52
 5131 018e 9F       		.byte	0x9f
 5132 018f 38000000 		.4byte	.LVL19
 5133 0193 3C000000 		.4byte	.LVL21
 5134 0197 0100     		.2byte	0x1
 5135 0199 52       		.byte	0x52
 5136 019a 3C000000 		.4byte	.LVL21
 5137 019e 48000000 		.4byte	.LVL24
 5138 01a2 0400     		.2byte	0x4
 5139 01a4 F3       		.byte	0xf3
 5140 01a5 01       		.uleb128 0x1
 5141 01a6 52       		.byte	0x52
 5142 01a7 9F       		.byte	0x9f
 5143 01a8 48000000 		.4byte	.LVL24
 5144 01ac 50000000 		.4byte	.LVL28
 5145 01b0 0100     		.2byte	0x1
 5146 01b2 52       		.byte	0x52
 5147 01b3 50000000 		.4byte	.LVL28
 5148 01b7 58000000 		.4byte	.LFE55
 5149 01bb 0400     		.2byte	0x4
 5150 01bd F3       		.byte	0xf3
 5151 01be 01       		.uleb128 0x1
 5152 01bf 52       		.byte	0x52
 5153 01c0 9F       		.byte	0x9f
 5154 01c1 00000000 		.4byte	0
 5155 01c5 00000000 		.4byte	0
 5156              	.LLST5:
 5157 01c9 00000000 		.4byte	.LVL31
 5158 01cd 37000000 		.4byte	.LVL34-1
 5159 01d1 0100     		.2byte	0x1
 5160 01d3 50       		.byte	0x50
 5161 01d4 37000000 		.4byte	.LVL34-1
ARM GAS  C:\Users\Phuong\AppData\Local\Temp\cc08x83E.s 			page 114


 5162 01d8 3A000000 		.4byte	.LVL35
 5163 01dc 0100     		.2byte	0x1
 5164 01de 57       		.byte	0x57
 5165 01df 3A000000 		.4byte	.LVL35
 5166 01e3 42000000 		.4byte	.LVL38
 5167 01e7 0100     		.2byte	0x1
 5168 01e9 50       		.byte	0x50
 5169 01ea 42000000 		.4byte	.LVL38
 5170 01ee 82000000 		.4byte	.LVL48
 5171 01f2 0100     		.2byte	0x1
 5172 01f4 57       		.byte	0x57
 5173 01f5 82000000 		.4byte	.LVL48
 5174 01f9 86000000 		.4byte	.LVL49
 5175 01fd 0100     		.2byte	0x1
 5176 01ff 53       		.byte	0x53
 5177 0200 86000000 		.4byte	.LVL49
 5178 0204 D2000000 		.4byte	.LVL56
 5179 0208 0100     		.2byte	0x1
 5180 020a 5A       		.byte	0x5a
 5181 020b D2000000 		.4byte	.LVL56
 5182 020f EC000000 		.4byte	.LVL57
 5183 0213 0100     		.2byte	0x1
 5184 0215 57       		.byte	0x57
 5185 0216 EC000000 		.4byte	.LVL57
 5186 021a F6000000 		.4byte	.LVL59
 5187 021e 0100     		.2byte	0x1
 5188 0220 5A       		.byte	0x5a
 5189 0221 F6000000 		.4byte	.LVL59
 5190 0225 DE010000 		.4byte	.LVL78
 5191 0229 0100     		.2byte	0x1
 5192 022b 57       		.byte	0x57
 5193 022c DE010000 		.4byte	.LVL78
 5194 0230 FC010000 		.4byte	.LFE56
 5195 0234 0400     		.2byte	0x4
 5196 0236 F3       		.byte	0xf3
 5197 0237 01       		.uleb128 0x1
 5198 0238 50       		.byte	0x50
 5199 0239 9F       		.byte	0x9f
 5200 023a 00000000 		.4byte	0
 5201 023e 00000000 		.4byte	0
 5202              	.LLST6:
 5203 0242 00000000 		.4byte	.LVL31
 5204 0246 14000000 		.4byte	.LVL33
 5205 024a 0100     		.2byte	0x1
 5206 024c 51       		.byte	0x51
 5207 024d 14000000 		.4byte	.LVL33
 5208 0251 FC010000 		.4byte	.LFE56
 5209 0255 0200     		.2byte	0x2
 5210 0257 91       		.byte	0x91
 5211 0258 4C       		.sleb128 -52
 5212 0259 00000000 		.4byte	0
 5213 025d 00000000 		.4byte	0
 5214              	.LLST7:
 5215 0261 3E000000 		.4byte	.LVL36
 5216 0265 40000000 		.4byte	.LVL37
 5217 0269 0100     		.2byte	0x1
 5218 026b 53       		.byte	0x53
ARM GAS  C:\Users\Phuong\AppData\Local\Temp\cc08x83E.s 			page 115


 5219 026c 40000000 		.4byte	.LVL37
 5220 0270 DC010000 		.4byte	.LVL77
 5221 0274 0100     		.2byte	0x1
 5222 0276 59       		.byte	0x59
 5223 0277 00000000 		.4byte	0
 5224 027b 00000000 		.4byte	0
 5225              	.LLST8:
 5226 027f 70000000 		.4byte	.LVL45
 5227 0283 76000000 		.4byte	.LVL46
 5228 0287 0200     		.2byte	0x2
 5229 0289 30       		.byte	0x30
 5230 028a 9F       		.byte	0x9f
 5231 028b 76000000 		.4byte	.LVL46
 5232 028f 7A000000 		.4byte	.LVL47
 5233 0293 0100     		.2byte	0x1
 5234 0295 53       		.byte	0x53
 5235 0296 7A000000 		.4byte	.LVL47
 5236 029a EC000000 		.4byte	.LVL57
 5237 029e 0100     		.2byte	0x1
 5238 02a0 54       		.byte	0x54
 5239 02a1 EC000000 		.4byte	.LVL57
 5240 02a5 F0000000 		.4byte	.LVL58
 5241 02a9 0200     		.2byte	0x2
 5242 02ab 74       		.byte	0x74
 5243 02ac 0C       		.sleb128 12
 5244 02ad F0000000 		.4byte	.LVL58
 5245 02b1 DC010000 		.4byte	.LVL77
 5246 02b5 0100     		.2byte	0x1
 5247 02b7 54       		.byte	0x54
 5248 02b8 00000000 		.4byte	0
 5249 02bc 00000000 		.4byte	0
 5250              	.LLST9:
 5251 02c0 70000000 		.4byte	.LVL45
 5252 02c4 86000000 		.4byte	.LVL49
 5253 02c8 0200     		.2byte	0x2
 5254 02ca 30       		.byte	0x30
 5255 02cb 9F       		.byte	0x9f
 5256 02cc 86000000 		.4byte	.LVL49
 5257 02d0 EC000000 		.4byte	.LVL57
 5258 02d4 0100     		.2byte	0x1
 5259 02d6 56       		.byte	0x56
 5260 02d7 EC000000 		.4byte	.LVL57
 5261 02db F0000000 		.4byte	.LVL58
 5262 02df 0100     		.2byte	0x1
 5263 02e1 54       		.byte	0x54
 5264 02e2 F0000000 		.4byte	.LVL58
 5265 02e6 DC010000 		.4byte	.LVL77
 5266 02ea 0100     		.2byte	0x1
 5267 02ec 56       		.byte	0x56
 5268 02ed 00000000 		.4byte	0
 5269 02f1 00000000 		.4byte	0
 5270              	.LLST10:
 5271 02f5 70000000 		.4byte	.LVL45
 5272 02f9 86000000 		.4byte	.LVL49
 5273 02fd 0200     		.2byte	0x2
 5274 02ff 30       		.byte	0x30
 5275 0300 9F       		.byte	0x9f
ARM GAS  C:\Users\Phuong\AppData\Local\Temp\cc08x83E.s 			page 116


 5276 0301 86000000 		.4byte	.LVL49
 5277 0305 A6000000 		.4byte	.LVL51
 5278 0309 0100     		.2byte	0x1
 5279 030b 5B       		.byte	0x5b
 5280 030c A6000000 		.4byte	.LVL51
 5281 0310 AC000000 		.4byte	.LVL52
 5282 0314 0100     		.2byte	0x1
 5283 0316 53       		.byte	0x53
 5284 0317 AC000000 		.4byte	.LVL52
 5285 031b B2000000 		.4byte	.LVL53
 5286 031f 0100     		.2byte	0x1
 5287 0321 5B       		.byte	0x5b
 5288 0322 B2000000 		.4byte	.LVL53
 5289 0326 B6000000 		.4byte	.LVL54
 5290 032a 0100     		.2byte	0x1
 5291 032c 53       		.byte	0x53
 5292 032d B6000000 		.4byte	.LVL54
 5293 0331 DC010000 		.4byte	.LVL77
 5294 0335 0100     		.2byte	0x1
 5295 0337 5B       		.byte	0x5b
 5296 0338 00000000 		.4byte	0
 5297 033c 00000000 		.4byte	0
 5298              	.LLST11:
 5299 0340 5E000000 		.4byte	.LVL43
 5300 0344 DC010000 		.4byte	.LVL77
 5301 0348 0200     		.2byte	0x2
 5302 034a 91       		.byte	0x91
 5303 034b 54       		.sleb128 -44
 5304 034c 00000000 		.4byte	0
 5305 0350 00000000 		.4byte	0
 5306              	.LLST12:
 5307 0354 70000000 		.4byte	.LVL45
 5308 0358 86000000 		.4byte	.LVL49
 5309 035c 0100     		.2byte	0x1
 5310 035e 50       		.byte	0x50
 5311 035f 86000000 		.4byte	.LVL49
 5312 0363 5E010000 		.4byte	.LVL68
 5313 0367 0100     		.2byte	0x1
 5314 0369 55       		.byte	0x55
 5315 036a 7A010000 		.4byte	.LVL71
 5316 036e DC010000 		.4byte	.LVL77
 5317 0372 0100     		.2byte	0x1
 5318 0374 55       		.byte	0x55
 5319 0375 00000000 		.4byte	0
 5320 0379 00000000 		.4byte	0
 5321              	.LLST13:
 5322 037d 4A000000 		.4byte	.LVL40
 5323 0381 52000000 		.4byte	.LVL41
 5324 0385 0100     		.2byte	0x1
 5325 0387 50       		.byte	0x50
 5326 0388 52000000 		.4byte	.LVL41
 5327 038c DC010000 		.4byte	.LVL77
 5328 0390 0200     		.2byte	0x2
 5329 0392 91       		.byte	0x91
 5330 0393 50       		.sleb128 -48
 5331 0394 00000000 		.4byte	0
 5332 0398 00000000 		.4byte	0
ARM GAS  C:\Users\Phuong\AppData\Local\Temp\cc08x83E.s 			page 117


 5333              	.LLST14:
 5334 039c 12000000 		.4byte	.LVL32
 5335 03a0 10010000 		.4byte	.LVL61
 5336 03a4 0200     		.2byte	0x2
 5337 03a6 30       		.byte	0x30
 5338 03a7 9F       		.byte	0x9f
 5339 03a8 10010000 		.4byte	.LVL61
 5340 03ac 12010000 		.4byte	.LVL62
 5341 03b0 0100     		.2byte	0x1
 5342 03b2 53       		.byte	0x53
 5343 03b3 12010000 		.4byte	.LVL62
 5344 03b7 14010000 		.4byte	.LVL63
 5345 03bb 0200     		.2byte	0x2
 5346 03bd 30       		.byte	0x30
 5347 03be 9F       		.byte	0x9f
 5348 03bf 14010000 		.4byte	.LVL63
 5349 03c3 1A010000 		.4byte	.LVL64
 5350 03c7 0100     		.2byte	0x1
 5351 03c9 53       		.byte	0x53
 5352 03ca BC010000 		.4byte	.LVL75
 5353 03ce C1010000 		.4byte	.LVL76-1
 5354 03d2 0100     		.2byte	0x1
 5355 03d4 53       		.byte	0x53
 5356 03d5 00000000 		.4byte	0
 5357 03d9 00000000 		.4byte	0
 5358              	.LLST15:
 5359 03dd 00000000 		.4byte	.LVL79
 5360 03e1 31000000 		.4byte	.LVL86-1
 5361 03e5 0100     		.2byte	0x1
 5362 03e7 50       		.byte	0x50
 5363 03e8 31000000 		.4byte	.LVL86-1
 5364 03ec 7A000000 		.4byte	.LVL92
 5365 03f0 0100     		.2byte	0x1
 5366 03f2 54       		.byte	0x54
 5367 03f3 7A000000 		.4byte	.LVL92
 5368 03f7 7C000000 		.4byte	.LVL93
 5369 03fb 0100     		.2byte	0x1
 5370 03fd 50       		.byte	0x50
 5371 03fe 7C000000 		.4byte	.LVL93
 5372 0402 80000000 		.4byte	.LVL94
 5373 0406 0100     		.2byte	0x1
 5374 0408 54       		.byte	0x54
 5375 0409 80000000 		.4byte	.LVL94
 5376 040d 82000000 		.4byte	.LVL95
 5377 0411 0100     		.2byte	0x1
 5378 0413 50       		.byte	0x50
 5379 0414 82000000 		.4byte	.LVL95
 5380 0418 94000000 		.4byte	.LVL101
 5381 041c 0100     		.2byte	0x1
 5382 041e 54       		.byte	0x54
 5383 041f 94000000 		.4byte	.LVL101
 5384 0423 A0000000 		.4byte	.LFE61
 5385 0427 0400     		.2byte	0x4
 5386 0429 F3       		.byte	0xf3
 5387 042a 01       		.uleb128 0x1
 5388 042b 50       		.byte	0x50
 5389 042c 9F       		.byte	0x9f
ARM GAS  C:\Users\Phuong\AppData\Local\Temp\cc08x83E.s 			page 118


 5390 042d 00000000 		.4byte	0
 5391 0431 00000000 		.4byte	0
 5392              	.LLST16:
 5393 0435 00000000 		.4byte	.LVL79
 5394 0439 0A000000 		.4byte	.LVL80
 5395 043d 0100     		.2byte	0x1
 5396 043f 51       		.byte	0x51
 5397 0440 0A000000 		.4byte	.LVL80
 5398 0444 94000000 		.4byte	.LVL102
 5399 0448 0100     		.2byte	0x1
 5400 044a 55       		.byte	0x55
 5401 044b 00000000 		.4byte	0
 5402 044f 00000000 		.4byte	0
 5403              	.LLST17:
 5404 0453 00000000 		.4byte	.LVL79
 5405 0457 31000000 		.4byte	.LVL86-1
 5406 045b 0100     		.2byte	0x1
 5407 045d 52       		.byte	0x52
 5408 045e 31000000 		.4byte	.LVL86-1
 5409 0462 34000000 		.4byte	.LVL87
 5410 0466 0400     		.2byte	0x4
 5411 0468 F3       		.byte	0xf3
 5412 0469 01       		.uleb128 0x1
 5413 046a 52       		.byte	0x52
 5414 046b 9F       		.byte	0x9f
 5415 046c 34000000 		.4byte	.LVL87
 5416 0470 38000000 		.4byte	.LVL88
 5417 0474 0100     		.2byte	0x1
 5418 0476 50       		.byte	0x50
 5419 0477 38000000 		.4byte	.LVL88
 5420 047b 72000000 		.4byte	.LVL91
 5421 047f 0100     		.2byte	0x1
 5422 0481 52       		.byte	0x52
 5423 0482 72000000 		.4byte	.LVL91
 5424 0486 7A000000 		.4byte	.LVL92
 5425 048a 0200     		.2byte	0x2
 5426 048c 74       		.byte	0x74
 5427 048d 12       		.sleb128 18
 5428 048e 7A000000 		.4byte	.LVL92
 5429 0492 86000000 		.4byte	.LVL96
 5430 0496 0100     		.2byte	0x1
 5431 0498 52       		.byte	0x52
 5432 0499 86000000 		.4byte	.LVL96
 5433 049d 88000000 		.4byte	.LVL97
 5434 04a1 0100     		.2byte	0x1
 5435 04a3 50       		.byte	0x50
 5436 04a4 88000000 		.4byte	.LVL97
 5437 04a8 94000000 		.4byte	.LVL100
 5438 04ac 0100     		.2byte	0x1
 5439 04ae 52       		.byte	0x52
 5440 04af 00000000 		.4byte	0
 5441 04b3 00000000 		.4byte	0
 5442              	.LLST18:
 5443 04b7 16000000 		.4byte	.LVL82
 5444 04bb 1A000000 		.4byte	.LVL83
 5445 04bf 0100     		.2byte	0x1
 5446 04c1 53       		.byte	0x53
ARM GAS  C:\Users\Phuong\AppData\Local\Temp\cc08x83E.s 			page 119


 5447 04c2 1A000000 		.4byte	.LVL83
 5448 04c6 31000000 		.4byte	.LVL86-1
 5449 04ca 0100     		.2byte	0x1
 5450 04cc 51       		.byte	0x51
 5451 04cd 38000000 		.4byte	.LVL88
 5452 04d1 5C000000 		.4byte	.LVL90
 5453 04d5 0100     		.2byte	0x1
 5454 04d7 53       		.byte	0x53
 5455 04d8 8C000000 		.4byte	.LVL98
 5456 04dc 92000000 		.4byte	.LVL99
 5457 04e0 0100     		.2byte	0x1
 5458 04e2 53       		.byte	0x53
 5459 04e3 00000000 		.4byte	0
 5460 04e7 00000000 		.4byte	0
 5461              	.LLST19:
 5462 04eb 12000000 		.4byte	.LVL81
 5463 04ef 2A000000 		.4byte	.LVL85
 5464 04f3 0200     		.2byte	0x2
 5465 04f5 30       		.byte	0x30
 5466 04f6 9F       		.byte	0x9f
 5467 04f7 2A000000 		.4byte	.LVL85
 5468 04fb 7A000000 		.4byte	.LVL92
 5469 04ff 0100     		.2byte	0x1
 5470 0501 56       		.byte	0x56
 5471 0502 86000000 		.4byte	.LVL96
 5472 0506 94000000 		.4byte	.LVL100
 5473 050a 0100     		.2byte	0x1
 5474 050c 56       		.byte	0x56
 5475 050d 00000000 		.4byte	0
 5476 0511 00000000 		.4byte	0
 5477              	.LLST20:
 5478 0515 00000000 		.4byte	.LVL103
 5479 0519 1F000000 		.4byte	.LVL106-1
 5480 051d 0100     		.2byte	0x1
 5481 051f 50       		.byte	0x50
 5482 0520 1F000000 		.4byte	.LVL106-1
 5483 0524 DC000000 		.4byte	.LVL124
 5484 0528 0100     		.2byte	0x1
 5485 052a 54       		.byte	0x54
 5486 052b DC000000 		.4byte	.LVL124
 5487 052f F6000000 		.4byte	.LVL126
 5488 0533 0400     		.2byte	0x4
 5489 0535 F3       		.byte	0xf3
 5490 0536 01       		.uleb128 0x1
 5491 0537 50       		.byte	0x50
 5492 0538 9F       		.byte	0x9f
 5493 0539 F6000000 		.4byte	.LVL126
 5494 053d F8000000 		.4byte	.LVL127
 5495 0541 0100     		.2byte	0x1
 5496 0543 50       		.byte	0x50
 5497 0544 F8000000 		.4byte	.LVL127
 5498 0548 FC000000 		.4byte	.LVL128
 5499 054c 0100     		.2byte	0x1
 5500 054e 54       		.byte	0x54
 5501 054f FC000000 		.4byte	.LVL128
 5502 0553 FE000000 		.4byte	.LVL129
 5503 0557 0100     		.2byte	0x1
ARM GAS  C:\Users\Phuong\AppData\Local\Temp\cc08x83E.s 			page 120


 5504 0559 50       		.byte	0x50
 5505 055a FE000000 		.4byte	.LVL129
 5506 055e 06010000 		.4byte	.LVL132
 5507 0562 0100     		.2byte	0x1
 5508 0564 54       		.byte	0x54
 5509 0565 06010000 		.4byte	.LVL132
 5510 0569 14010000 		.4byte	.LFE60
 5511 056d 0400     		.2byte	0x4
 5512 056f F3       		.byte	0xf3
 5513 0570 01       		.uleb128 0x1
 5514 0571 50       		.byte	0x50
 5515 0572 9F       		.byte	0x9f
 5516 0573 00000000 		.4byte	0
 5517 0577 00000000 		.4byte	0
 5518              	.LLST21:
 5519 057b 00000000 		.4byte	.LVL103
 5520 057f 1C000000 		.4byte	.LVL105
 5521 0583 0100     		.2byte	0x1
 5522 0585 51       		.byte	0x51
 5523 0586 1C000000 		.4byte	.LVL105
 5524 058a F6000000 		.4byte	.LVL126
 5525 058e 0200     		.2byte	0x2
 5526 0590 91       		.byte	0x91
 5527 0591 60       		.sleb128 -32
 5528 0592 F6000000 		.4byte	.LVL126
 5529 0596 02010000 		.4byte	.LVL130
 5530 059a 0100     		.2byte	0x1
 5531 059c 51       		.byte	0x51
 5532 059d 02010000 		.4byte	.LVL130
 5533 05a1 14010000 		.4byte	.LFE60
 5534 05a5 0200     		.2byte	0x2
 5535 05a7 91       		.byte	0x91
 5536 05a8 60       		.sleb128 -32
 5537 05a9 00000000 		.4byte	0
 5538 05ad 00000000 		.4byte	0
 5539              	.LLST22:
 5540 05b1 00000000 		.4byte	.LVL103
 5541 05b5 16000000 		.4byte	.LVL104
 5542 05b9 0100     		.2byte	0x1
 5543 05bb 52       		.byte	0x52
 5544 05bc 16000000 		.4byte	.LVL104
 5545 05c0 F6000000 		.4byte	.LVL126
 5546 05c4 0100     		.2byte	0x1
 5547 05c6 56       		.byte	0x56
 5548 05c7 F6000000 		.4byte	.LVL126
 5549 05cb 02010000 		.4byte	.LVL130
 5550 05cf 0100     		.2byte	0x1
 5551 05d1 52       		.byte	0x52
 5552 05d2 02010000 		.4byte	.LVL130
 5553 05d6 08010000 		.4byte	.LVL133
 5554 05da 0100     		.2byte	0x1
 5555 05dc 56       		.byte	0x56
 5556 05dd 08010000 		.4byte	.LVL133
 5557 05e1 14010000 		.4byte	.LFE60
 5558 05e5 0400     		.2byte	0x4
 5559 05e7 F3       		.byte	0xf3
 5560 05e8 01       		.uleb128 0x1
ARM GAS  C:\Users\Phuong\AppData\Local\Temp\cc08x83E.s 			page 121


 5561 05e9 52       		.byte	0x52
 5562 05ea 9F       		.byte	0x9f
 5563 05eb 00000000 		.4byte	0
 5564 05ef 00000000 		.4byte	0
 5565              	.LLST23:
 5566 05f3 00000000 		.4byte	.LVL103
 5567 05f7 1F000000 		.4byte	.LVL106-1
 5568 05fb 0100     		.2byte	0x1
 5569 05fd 53       		.byte	0x53
 5570 05fe 1F000000 		.4byte	.LVL106-1
 5571 0602 F6000000 		.4byte	.LVL126
 5572 0606 0400     		.2byte	0x4
 5573 0608 F3       		.byte	0xf3
 5574 0609 01       		.uleb128 0x1
 5575 060a 53       		.byte	0x53
 5576 060b 9F       		.byte	0x9f
 5577 060c F6000000 		.4byte	.LVL126
 5578 0610 02010000 		.4byte	.LVL130
 5579 0614 0100     		.2byte	0x1
 5580 0616 53       		.byte	0x53
 5581 0617 02010000 		.4byte	.LVL130
 5582 061b 14010000 		.4byte	.LFE60
 5583 061f 0400     		.2byte	0x4
 5584 0621 F3       		.byte	0xf3
 5585 0622 01       		.uleb128 0x1
 5586 0623 53       		.byte	0x53
 5587 0624 9F       		.byte	0x9f
 5588 0625 00000000 		.4byte	0
 5589 0629 00000000 		.4byte	0
 5590              	.LLST24:
 5591 062d 52000000 		.4byte	.LVL114
 5592 0631 F6000000 		.4byte	.LVL126
 5593 0635 0100     		.2byte	0x1
 5594 0637 55       		.byte	0x55
 5595 0638 00000000 		.4byte	0
 5596 063c 00000000 		.4byte	0
 5597              	.LLST25:
 5598 0640 20000000 		.4byte	.LVL106
 5599 0644 24000000 		.4byte	.LVL107
 5600 0648 0100     		.2byte	0x1
 5601 064a 50       		.byte	0x50
 5602 064b DC000000 		.4byte	.LVL124
 5603 064f F6000000 		.4byte	.LVL126
 5604 0653 0100     		.2byte	0x1
 5605 0655 54       		.byte	0x54
 5606 0656 00000000 		.4byte	0
 5607 065a 00000000 		.4byte	0
 5608              	.LLST26:
 5609 065e 3E000000 		.4byte	.LVL110
 5610 0662 4B000000 		.4byte	.LVL111-1
 5611 0666 0100     		.2byte	0x1
 5612 0668 50       		.byte	0x50
 5613 0669 4B000000 		.4byte	.LVL111-1
 5614 066d 4E000000 		.4byte	.LVL112
 5615 0671 0100     		.2byte	0x1
 5616 0673 57       		.byte	0x57
 5617 0674 50000000 		.4byte	.LVL113
ARM GAS  C:\Users\Phuong\AppData\Local\Temp\cc08x83E.s 			page 122


 5618 0678 E8000000 		.4byte	.LVL125
 5619 067c 0100     		.2byte	0x1
 5620 067e 57       		.byte	0x57
 5621 067f 02010000 		.4byte	.LVL130
 5622 0683 04010000 		.4byte	.LVL131
 5623 0687 0100     		.2byte	0x1
 5624 0689 50       		.byte	0x50
 5625 068a 04010000 		.4byte	.LVL131
 5626 068e 06010000 		.4byte	.LVL132
 5627 0692 0100     		.2byte	0x1
 5628 0694 57       		.byte	0x57
 5629 0695 00000000 		.4byte	0
 5630 0699 00000000 		.4byte	0
 5631              	.LLST27:
 5632 069d B4000000 		.4byte	.LVL121
 5633 06a1 F6000000 		.4byte	.LVL126
 5634 06a5 0200     		.2byte	0x2
 5635 06a7 41       		.byte	0x41
 5636 06a8 9F       		.byte	0x9f
 5637 06a9 00000000 		.4byte	0
 5638 06ad 00000000 		.4byte	0
 5639              	.LLST28:
 5640 06b1 C4000000 		.4byte	.LVL122
 5641 06b5 D9000000 		.4byte	.LVL123-1
 5642 06b9 0100     		.2byte	0x1
 5643 06bb 53       		.byte	0x53
 5644 06bc 00000000 		.4byte	0
 5645 06c0 00000000 		.4byte	0
 5646              	.LLST29:
 5647 06c4 A8000000 		.4byte	.LVL118
 5648 06c8 B2000000 		.4byte	.LVL120
 5649 06cc 0100     		.2byte	0x1
 5650 06ce 50       		.byte	0x50
 5651 06cf 00000000 		.4byte	0
 5652 06d3 00000000 		.4byte	0
 5653              	.LLST30:
 5654 06d7 00000000 		.4byte	.LVL134
 5655 06db 31000000 		.4byte	.LVL138-1
 5656 06df 0100     		.2byte	0x1
 5657 06e1 50       		.byte	0x50
 5658 06e2 31000000 		.4byte	.LVL138-1
 5659 06e6 34000000 		.4byte	.LVL139
 5660 06ea 0400     		.2byte	0x4
 5661 06ec F3       		.byte	0xf3
 5662 06ed 01       		.uleb128 0x1
 5663 06ee 50       		.byte	0x50
 5664 06ef 9F       		.byte	0x9f
 5665 06f0 34000000 		.4byte	.LVL139
 5666 06f4 36000000 		.4byte	.LVL140
 5667 06f8 0100     		.2byte	0x1
 5668 06fa 50       		.byte	0x50
 5669 06fb 36000000 		.4byte	.LVL140
 5670 06ff 3A000000 		.4byte	.LVL141
 5671 0703 0400     		.2byte	0x4
 5672 0705 F3       		.byte	0xf3
 5673 0706 01       		.uleb128 0x1
 5674 0707 50       		.byte	0x50
ARM GAS  C:\Users\Phuong\AppData\Local\Temp\cc08x83E.s 			page 123


 5675 0708 9F       		.byte	0x9f
 5676 0709 3A000000 		.4byte	.LVL141
 5677 070d 3C000000 		.4byte	.LVL142
 5678 0711 0100     		.2byte	0x1
 5679 0713 50       		.byte	0x50
 5680 0714 3C000000 		.4byte	.LVL142
 5681 0718 40000000 		.4byte	.LVL143
 5682 071c 0400     		.2byte	0x4
 5683 071e F3       		.byte	0xf3
 5684 071f 01       		.uleb128 0x1
 5685 0720 50       		.byte	0x50
 5686 0721 9F       		.byte	0x9f
 5687 0722 40000000 		.4byte	.LVL143
 5688 0726 42000000 		.4byte	.LVL144
 5689 072a 0100     		.2byte	0x1
 5690 072c 50       		.byte	0x50
 5691 072d 42000000 		.4byte	.LVL144
 5692 0731 44000000 		.4byte	.LVL145
 5693 0735 0100     		.2byte	0x1
 5694 0737 55       		.byte	0x55
 5695 0738 44000000 		.4byte	.LVL145
 5696 073c 48000000 		.4byte	.LFE59
 5697 0740 0400     		.2byte	0x4
 5698 0742 F3       		.byte	0xf3
 5699 0743 01       		.uleb128 0x1
 5700 0744 50       		.byte	0x50
 5701 0745 9F       		.byte	0x9f
 5702 0746 00000000 		.4byte	0
 5703 074a 00000000 		.4byte	0
 5704              	.LLST31:
 5705 074e 00000000 		.4byte	.LVL134
 5706 0752 31000000 		.4byte	.LVL138-1
 5707 0756 0100     		.2byte	0x1
 5708 0758 51       		.byte	0x51
 5709 0759 31000000 		.4byte	.LVL138-1
 5710 075d 34000000 		.4byte	.LVL139
 5711 0761 0400     		.2byte	0x4
 5712 0763 F3       		.byte	0xf3
 5713 0764 01       		.uleb128 0x1
 5714 0765 51       		.byte	0x51
 5715 0766 9F       		.byte	0x9f
 5716 0767 34000000 		.4byte	.LVL139
 5717 076b 44000000 		.4byte	.LVL145
 5718 076f 0100     		.2byte	0x1
 5719 0771 51       		.byte	0x51
 5720 0772 44000000 		.4byte	.LVL145
 5721 0776 48000000 		.4byte	.LFE59
 5722 077a 0400     		.2byte	0x4
 5723 077c F3       		.byte	0xf3
 5724 077d 01       		.uleb128 0x1
 5725 077e 51       		.byte	0x51
 5726 077f 9F       		.byte	0x9f
 5727 0780 00000000 		.4byte	0
 5728 0784 00000000 		.4byte	0
 5729              	.LLST32:
 5730 0788 00000000 		.4byte	.LVL134
 5731 078c 31000000 		.4byte	.LVL138-1
ARM GAS  C:\Users\Phuong\AppData\Local\Temp\cc08x83E.s 			page 124


 5732 0790 0100     		.2byte	0x1
 5733 0792 52       		.byte	0x52
 5734 0793 31000000 		.4byte	.LVL138-1
 5735 0797 34000000 		.4byte	.LVL139
 5736 079b 0400     		.2byte	0x4
 5737 079d F3       		.byte	0xf3
 5738 079e 01       		.uleb128 0x1
 5739 079f 52       		.byte	0x52
 5740 07a0 9F       		.byte	0x9f
 5741 07a1 34000000 		.4byte	.LVL139
 5742 07a5 44000000 		.4byte	.LVL145
 5743 07a9 0100     		.2byte	0x1
 5744 07ab 52       		.byte	0x52
 5745 07ac 44000000 		.4byte	.LVL145
 5746 07b0 48000000 		.4byte	.LFE59
 5747 07b4 0400     		.2byte	0x4
 5748 07b6 F3       		.byte	0xf3
 5749 07b7 01       		.uleb128 0x1
 5750 07b8 52       		.byte	0x52
 5751 07b9 9F       		.byte	0x9f
 5752 07ba 00000000 		.4byte	0
 5753 07be 00000000 		.4byte	0
 5754              	.LLST33:
 5755 07c2 00000000 		.4byte	.LVL134
 5756 07c6 31000000 		.4byte	.LVL138-1
 5757 07ca 0100     		.2byte	0x1
 5758 07cc 53       		.byte	0x53
 5759 07cd 31000000 		.4byte	.LVL138-1
 5760 07d1 34000000 		.4byte	.LVL139
 5761 07d5 0400     		.2byte	0x4
 5762 07d7 F3       		.byte	0xf3
 5763 07d8 01       		.uleb128 0x1
 5764 07d9 53       		.byte	0x53
 5765 07da 9F       		.byte	0x9f
 5766 07db 34000000 		.4byte	.LVL139
 5767 07df 44000000 		.4byte	.LVL145
 5768 07e3 0100     		.2byte	0x1
 5769 07e5 53       		.byte	0x53
 5770 07e6 44000000 		.4byte	.LVL145
 5771 07ea 48000000 		.4byte	.LFE59
 5772 07ee 0400     		.2byte	0x4
 5773 07f0 F3       		.byte	0xf3
 5774 07f1 01       		.uleb128 0x1
 5775 07f2 53       		.byte	0x53
 5776 07f3 9F       		.byte	0x9f
 5777 07f4 00000000 		.4byte	0
 5778 07f8 00000000 		.4byte	0
 5779              	.LLST34:
 5780 07fc 22000000 		.4byte	.LVL135
 5781 0800 24000000 		.4byte	.LVL136
 5782 0804 0100     		.2byte	0x1
 5783 0806 55       		.byte	0x55
 5784 0807 2A000000 		.4byte	.LVL137
 5785 080b 34000000 		.4byte	.LVL139
 5786 080f 0100     		.2byte	0x1
 5787 0811 55       		.byte	0x55
 5788 0812 00000000 		.4byte	0
ARM GAS  C:\Users\Phuong\AppData\Local\Temp\cc08x83E.s 			page 125


 5789 0816 00000000 		.4byte	0
 5790              	.LLST35:
 5791 081a 00000000 		.4byte	.LVL146
 5792 081e 2E000000 		.4byte	.LVL150
 5793 0822 0100     		.2byte	0x1
 5794 0824 50       		.byte	0x50
 5795 0825 2E000000 		.4byte	.LVL150
 5796 0829 30000000 		.4byte	.LVL151
 5797 082d 0100     		.2byte	0x1
 5798 082f 57       		.byte	0x57
 5799 0830 30000000 		.4byte	.LVL151
 5800 0834 32000000 		.4byte	.LVL152
 5801 0838 0100     		.2byte	0x1
 5802 083a 50       		.byte	0x50
 5803 083b 32000000 		.4byte	.LVL152
 5804 083f 34000000 		.4byte	.LVL153
 5805 0843 0100     		.2byte	0x1
 5806 0845 57       		.byte	0x57
 5807 0846 34000000 		.4byte	.LVL153
 5808 084a 36000000 		.4byte	.LVL154
 5809 084e 0100     		.2byte	0x1
 5810 0850 50       		.byte	0x50
 5811 0851 36000000 		.4byte	.LVL154
 5812 0855 38000000 		.4byte	.LVL155
 5813 0859 0100     		.2byte	0x1
 5814 085b 57       		.byte	0x57
 5815 085c 38000000 		.4byte	.LVL155
 5816 0860 3A000000 		.4byte	.LVL156
 5817 0864 0100     		.2byte	0x1
 5818 0866 50       		.byte	0x50
 5819 0867 3A000000 		.4byte	.LVL156
 5820 086b 60000000 		.4byte	.LVL162
 5821 086f 0100     		.2byte	0x1
 5822 0871 57       		.byte	0x57
 5823 0872 60000000 		.4byte	.LVL162
 5824 0876 62000000 		.4byte	.LVL163
 5825 087a 0100     		.2byte	0x1
 5826 087c 50       		.byte	0x50
 5827 087d 62000000 		.4byte	.LVL163
 5828 0881 66000000 		.4byte	.LVL164
 5829 0885 0100     		.2byte	0x1
 5830 0887 57       		.byte	0x57
 5831 0888 66000000 		.4byte	.LVL164
 5832 088c 68000000 		.4byte	.LVL165
 5833 0890 0100     		.2byte	0x1
 5834 0892 50       		.byte	0x50
 5835 0893 68000000 		.4byte	.LVL165
 5836 0897 6C000000 		.4byte	.LVL169
 5837 089b 0100     		.2byte	0x1
 5838 089d 57       		.byte	0x57
 5839 089e 6C000000 		.4byte	.LVL169
 5840 08a2 78000000 		.4byte	.LFE58
 5841 08a6 0400     		.2byte	0x4
 5842 08a8 F3       		.byte	0xf3
 5843 08a9 01       		.uleb128 0x1
 5844 08aa 50       		.byte	0x50
 5845 08ab 9F       		.byte	0x9f
ARM GAS  C:\Users\Phuong\AppData\Local\Temp\cc08x83E.s 			page 126


 5846 08ac 00000000 		.4byte	0
 5847 08b0 00000000 		.4byte	0
 5848              	.LLST36:
 5849 08b4 00000000 		.4byte	.LVL146
 5850 08b8 3D000000 		.4byte	.LVL157-1
 5851 08bc 0100     		.2byte	0x1
 5852 08be 51       		.byte	0x51
 5853 08bf 3D000000 		.4byte	.LVL157-1
 5854 08c3 60000000 		.4byte	.LVL162
 5855 08c7 0100     		.2byte	0x1
 5856 08c9 55       		.byte	0x55
 5857 08ca 60000000 		.4byte	.LVL162
 5858 08ce 6A000000 		.4byte	.LVL166
 5859 08d2 0100     		.2byte	0x1
 5860 08d4 51       		.byte	0x51
 5861 08d5 6A000000 		.4byte	.LVL166
 5862 08d9 6C000000 		.4byte	.LVL168
 5863 08dd 0100     		.2byte	0x1
 5864 08df 55       		.byte	0x55
 5865 08e0 6C000000 		.4byte	.LVL168
 5866 08e4 78000000 		.4byte	.LFE58
 5867 08e8 0400     		.2byte	0x4
 5868 08ea F3       		.byte	0xf3
 5869 08eb 01       		.uleb128 0x1
 5870 08ec 51       		.byte	0x51
 5871 08ed 9F       		.byte	0x9f
 5872 08ee 00000000 		.4byte	0
 5873 08f2 00000000 		.4byte	0
 5874              	.LLST37:
 5875 08f6 00000000 		.4byte	.LVL146
 5876 08fa 18000000 		.4byte	.LVL149
 5877 08fe 0100     		.2byte	0x1
 5878 0900 52       		.byte	0x52
 5879 0901 18000000 		.4byte	.LVL149
 5880 0905 60000000 		.4byte	.LVL162
 5881 0909 0100     		.2byte	0x1
 5882 090b 54       		.byte	0x54
 5883 090c 60000000 		.4byte	.LVL162
 5884 0910 6A000000 		.4byte	.LVL166
 5885 0914 0100     		.2byte	0x1
 5886 0916 52       		.byte	0x52
 5887 0917 6A000000 		.4byte	.LVL166
 5888 091b 6C000000 		.4byte	.LVL167
 5889 091f 0100     		.2byte	0x1
 5890 0921 54       		.byte	0x54
 5891 0922 6C000000 		.4byte	.LVL167
 5892 0926 78000000 		.4byte	.LFE58
 5893 092a 0400     		.2byte	0x4
 5894 092c F3       		.byte	0xf3
 5895 092d 01       		.uleb128 0x1
 5896 092e 52       		.byte	0x52
 5897 092f 9F       		.byte	0x9f
 5898 0930 00000000 		.4byte	0
 5899 0934 00000000 		.4byte	0
 5900              	.LLST38:
 5901 0938 00000000 		.4byte	.LVL146
 5902 093c 16000000 		.4byte	.LVL148
ARM GAS  C:\Users\Phuong\AppData\Local\Temp\cc08x83E.s 			page 127


 5903 0940 0100     		.2byte	0x1
 5904 0942 53       		.byte	0x53
 5905 0943 16000000 		.4byte	.LVL148
 5906 0947 60000000 		.4byte	.LVL162
 5907 094b 0400     		.2byte	0x4
 5908 094d F3       		.byte	0xf3
 5909 094e 01       		.uleb128 0x1
 5910 094f 53       		.byte	0x53
 5911 0950 9F       		.byte	0x9f
 5912 0951 60000000 		.4byte	.LVL162
 5913 0955 6A000000 		.4byte	.LVL166
 5914 0959 0100     		.2byte	0x1
 5915 095b 53       		.byte	0x53
 5916 095c 6A000000 		.4byte	.LVL166
 5917 0960 78000000 		.4byte	.LFE58
 5918 0964 0400     		.2byte	0x4
 5919 0966 F3       		.byte	0xf3
 5920 0967 01       		.uleb128 0x1
 5921 0968 53       		.byte	0x53
 5922 0969 9F       		.byte	0x9f
 5923 096a 00000000 		.4byte	0
 5924 096e 00000000 		.4byte	0
 5925              	.LLST39:
 5926 0972 3E000000 		.4byte	.LVL157
 5927 0976 4E000000 		.4byte	.LVL158
 5928 097a 0100     		.2byte	0x1
 5929 097c 50       		.byte	0x50
 5930 097d 4E000000 		.4byte	.LVL158
 5931 0981 50000000 		.4byte	.LVL159
 5932 0985 0300     		.2byte	0x3
 5933 0987 70       		.byte	0x70
 5934 0988 04       		.sleb128 4
 5935 0989 9F       		.byte	0x9f
 5936 098a 50000000 		.4byte	.LVL159
 5937 098e 5A000000 		.4byte	.LVL160
 5938 0992 0100     		.2byte	0x1
 5939 0994 50       		.byte	0x50
 5940 0995 5A000000 		.4byte	.LVL160
 5941 0999 5D000000 		.4byte	.LVL161-1
 5942 099d 0200     		.2byte	0x2
 5943 099f 7D       		.byte	0x7d
 5944 09a0 00       		.sleb128 0
 5945 09a1 00000000 		.4byte	0
 5946 09a5 00000000 		.4byte	0
 5947              	.LLST40:
 5948 09a9 0C000000 		.4byte	.LVL147
 5949 09ad 18000000 		.4byte	.LVL149
 5950 09b1 0100     		.2byte	0x1
 5951 09b3 52       		.byte	0x52
 5952 09b4 18000000 		.4byte	.LVL149
 5953 09b8 2E000000 		.4byte	.LVL150
 5954 09bc 0100     		.2byte	0x1
 5955 09be 54       		.byte	0x54
 5956 09bf 2E000000 		.4byte	.LVL150
 5957 09c3 30000000 		.4byte	.LVL151
 5958 09c7 0100     		.2byte	0x1
 5959 09c9 50       		.byte	0x50
ARM GAS  C:\Users\Phuong\AppData\Local\Temp\cc08x83E.s 			page 128


 5960 09ca 30000000 		.4byte	.LVL151
 5961 09ce 3A000000 		.4byte	.LVL156
 5962 09d2 0100     		.2byte	0x1
 5963 09d4 54       		.byte	0x54
 5964 09d5 3A000000 		.4byte	.LVL156
 5965 09d9 3D000000 		.4byte	.LVL157-1
 5966 09dd 0100     		.2byte	0x1
 5967 09df 50       		.byte	0x50
 5968 09e0 60000000 		.4byte	.LVL162
 5969 09e4 6A000000 		.4byte	.LVL166
 5970 09e8 0100     		.2byte	0x1
 5971 09ea 52       		.byte	0x52
 5972 09eb 00000000 		.4byte	0
 5973 09ef 00000000 		.4byte	0
 5974              	.LLST41:
 5975 09f3 00000000 		.4byte	.LVL170
 5976 09f7 0D000000 		.4byte	.LVL171-1
 5977 09fb 0100     		.2byte	0x1
 5978 09fd 50       		.byte	0x50
 5979 09fe 0D000000 		.4byte	.LVL171-1
 5980 0a02 10000000 		.4byte	.LVL172
 5981 0a06 0400     		.2byte	0x4
 5982 0a08 F3       		.byte	0xf3
 5983 0a09 01       		.uleb128 0x1
 5984 0a0a 50       		.byte	0x50
 5985 0a0b 9F       		.byte	0x9f
 5986 0a0c 10000000 		.4byte	.LVL172
 5987 0a10 12000000 		.4byte	.LVL173
 5988 0a14 0100     		.2byte	0x1
 5989 0a16 50       		.byte	0x50
 5990 0a17 12000000 		.4byte	.LVL173
 5991 0a1b 16000000 		.4byte	.LFE57
 5992 0a1f 0400     		.2byte	0x4
 5993 0a21 F3       		.byte	0xf3
 5994 0a22 01       		.uleb128 0x1
 5995 0a23 50       		.byte	0x50
 5996 0a24 9F       		.byte	0x9f
 5997 0a25 00000000 		.4byte	0
 5998 0a29 00000000 		.4byte	0
 5999              	.LLST42:
 6000 0a2d 00000000 		.4byte	.LVL170
 6001 0a31 0D000000 		.4byte	.LVL171-1
 6002 0a35 0100     		.2byte	0x1
 6003 0a37 51       		.byte	0x51
 6004 0a38 0D000000 		.4byte	.LVL171-1
 6005 0a3c 10000000 		.4byte	.LVL172
 6006 0a40 0400     		.2byte	0x4
 6007 0a42 F3       		.byte	0xf3
 6008 0a43 01       		.uleb128 0x1
 6009 0a44 51       		.byte	0x51
 6010 0a45 9F       		.byte	0x9f
 6011 0a46 10000000 		.4byte	.LVL172
 6012 0a4a 14000000 		.4byte	.LVL174
 6013 0a4e 0100     		.2byte	0x1
 6014 0a50 51       		.byte	0x51
 6015 0a51 14000000 		.4byte	.LVL174
 6016 0a55 16000000 		.4byte	.LFE57
ARM GAS  C:\Users\Phuong\AppData\Local\Temp\cc08x83E.s 			page 129


 6017 0a59 0400     		.2byte	0x4
 6018 0a5b F3       		.byte	0xf3
 6019 0a5c 01       		.uleb128 0x1
 6020 0a5d 51       		.byte	0x51
 6021 0a5e 9F       		.byte	0x9f
 6022 0a5f 00000000 		.4byte	0
 6023 0a63 00000000 		.4byte	0
 6024              	.LLST43:
 6025 0a67 00000000 		.4byte	.LVL175
 6026 0a6b 1B000000 		.4byte	.LVL178-1
 6027 0a6f 0100     		.2byte	0x1
 6028 0a71 50       		.byte	0x50
 6029 0a72 1B000000 		.4byte	.LVL178-1
 6030 0a76 52000000 		.4byte	.LVL184
 6031 0a7a 0100     		.2byte	0x1
 6032 0a7c 54       		.byte	0x54
 6033 0a7d 52000000 		.4byte	.LVL184
 6034 0a81 54000000 		.4byte	.LVL185
 6035 0a85 0100     		.2byte	0x1
 6036 0a87 50       		.byte	0x50
 6037 0a88 54000000 		.4byte	.LVL185
 6038 0a8c 58000000 		.4byte	.LVL186
 6039 0a90 0100     		.2byte	0x1
 6040 0a92 54       		.byte	0x54
 6041 0a93 58000000 		.4byte	.LVL186
 6042 0a97 5A000000 		.4byte	.LVL187
 6043 0a9b 0100     		.2byte	0x1
 6044 0a9d 50       		.byte	0x50
 6045 0a9e 5A000000 		.4byte	.LVL187
 6046 0aa2 60000000 		.4byte	.LVL190
 6047 0aa6 0100     		.2byte	0x1
 6048 0aa8 54       		.byte	0x54
 6049 0aa9 60000000 		.4byte	.LVL190
 6050 0aad 68000000 		.4byte	.LFE62
 6051 0ab1 0400     		.2byte	0x4
 6052 0ab3 F3       		.byte	0xf3
 6053 0ab4 01       		.uleb128 0x1
 6054 0ab5 50       		.byte	0x50
 6055 0ab6 9F       		.byte	0x9f
 6056 0ab7 00000000 		.4byte	0
 6057 0abb 00000000 		.4byte	0
 6058              	.LLST44:
 6059 0abf 00000000 		.4byte	.LVL175
 6060 0ac3 18000000 		.4byte	.LVL177
 6061 0ac7 0100     		.2byte	0x1
 6062 0ac9 51       		.byte	0x51
 6063 0aca 18000000 		.4byte	.LVL177
 6064 0ace 52000000 		.4byte	.LVL184
 6065 0ad2 0100     		.2byte	0x1
 6066 0ad4 55       		.byte	0x55
 6067 0ad5 52000000 		.4byte	.LVL184
 6068 0ad9 5E000000 		.4byte	.LVL188
 6069 0add 0100     		.2byte	0x1
 6070 0adf 51       		.byte	0x51
 6071 0ae0 5E000000 		.4byte	.LVL188
 6072 0ae4 60000000 		.4byte	.LVL191
 6073 0ae8 0100     		.2byte	0x1
ARM GAS  C:\Users\Phuong\AppData\Local\Temp\cc08x83E.s 			page 130


 6074 0aea 55       		.byte	0x55
 6075 0aeb 60000000 		.4byte	.LVL191
 6076 0aef 68000000 		.4byte	.LFE62
 6077 0af3 0400     		.2byte	0x4
 6078 0af5 F3       		.byte	0xf3
 6079 0af6 01       		.uleb128 0x1
 6080 0af7 51       		.byte	0x51
 6081 0af8 9F       		.byte	0x9f
 6082 0af9 00000000 		.4byte	0
 6083 0afd 00000000 		.4byte	0
 6084              	.LLST45:
 6085 0b01 00000000 		.4byte	.LVL175
 6086 0b05 12000000 		.4byte	.LVL176
 6087 0b09 0100     		.2byte	0x1
 6088 0b0b 52       		.byte	0x52
 6089 0b0c 12000000 		.4byte	.LVL176
 6090 0b10 52000000 		.4byte	.LVL184
 6091 0b14 0400     		.2byte	0x4
 6092 0b16 F3       		.byte	0xf3
 6093 0b17 01       		.uleb128 0x1
 6094 0b18 52       		.byte	0x52
 6095 0b19 9F       		.byte	0x9f
 6096 0b1a 52000000 		.4byte	.LVL184
 6097 0b1e 5E000000 		.4byte	.LVL188
 6098 0b22 0100     		.2byte	0x1
 6099 0b24 52       		.byte	0x52
 6100 0b25 5E000000 		.4byte	.LVL188
 6101 0b29 68000000 		.4byte	.LFE62
 6102 0b2d 0400     		.2byte	0x4
 6103 0b2f F3       		.byte	0xf3
 6104 0b30 01       		.uleb128 0x1
 6105 0b31 52       		.byte	0x52
 6106 0b32 9F       		.byte	0x9f
 6107 0b33 00000000 		.4byte	0
 6108 0b37 00000000 		.4byte	0
 6109              	.LLST46:
 6110 0b3b 3A000000 		.4byte	.LVL180
 6111 0b3f 3E000000 		.4byte	.LVL181
 6112 0b43 0100     		.2byte	0x1
 6113 0b45 52       		.byte	0x52
 6114 0b46 3E000000 		.4byte	.LVL181
 6115 0b4a 4C000000 		.4byte	.LVL183
 6116 0b4e 0100     		.2byte	0x1
 6117 0b50 53       		.byte	0x53
 6118 0b51 5E000000 		.4byte	.LVL188
 6119 0b55 60000000 		.4byte	.LVL189
 6120 0b59 0100     		.2byte	0x1
 6121 0b5b 53       		.byte	0x53
 6122 0b5c 00000000 		.4byte	0
 6123 0b60 00000000 		.4byte	0
 6124              	.LLST47:
 6125 0b64 1C000000 		.4byte	.LVL178
 6126 0b68 20000000 		.4byte	.LVL179
 6127 0b6c 0100     		.2byte	0x1
 6128 0b6e 50       		.byte	0x50
 6129 0b6f 00000000 		.4byte	0
 6130 0b73 00000000 		.4byte	0
ARM GAS  C:\Users\Phuong\AppData\Local\Temp\cc08x83E.s 			page 131


 6131              	.LLST48:
 6132 0b77 00000000 		.4byte	.LVL194
 6133 0b7b 2E000000 		.4byte	.LVL200
 6134 0b7f 0100     		.2byte	0x1
 6135 0b81 50       		.byte	0x50
 6136 0b82 2E000000 		.4byte	.LVL200
 6137 0b86 31000000 		.4byte	.LVL201-1
 6138 0b8a 0100     		.2byte	0x1
 6139 0b8c 51       		.byte	0x51
 6140 0b8d 31000000 		.4byte	.LVL201-1
 6141 0b91 38000000 		.4byte	.LFE65
 6142 0b95 0400     		.2byte	0x4
 6143 0b97 F3       		.byte	0xf3
 6144 0b98 01       		.uleb128 0x1
 6145 0b99 50       		.byte	0x50
 6146 0b9a 9F       		.byte	0x9f
 6147 0b9b 00000000 		.4byte	0
 6148 0b9f 00000000 		.4byte	0
 6149              	.LLST49:
 6150 0ba3 12000000 		.4byte	.LVL195
 6151 0ba7 24000000 		.4byte	.LVL196
 6152 0bab 0100     		.2byte	0x1
 6153 0bad 52       		.byte	0x52
 6154 0bae 26000000 		.4byte	.LVL197
 6155 0bb2 2C000000 		.4byte	.LVL199
 6156 0bb6 0100     		.2byte	0x1
 6157 0bb8 52       		.byte	0x52
 6158 0bb9 00000000 		.4byte	0
 6159 0bbd 00000000 		.4byte	0
 6160              	.LLST50:
 6161 0bc1 0E000000 		.4byte	.LVL203
 6162 0bc5 17000000 		.4byte	.LVL204-1
 6163 0bc9 0100     		.2byte	0x1
 6164 0bcb 50       		.byte	0x50
 6165 0bcc 17000000 		.4byte	.LVL204-1
 6166 0bd0 20000000 		.4byte	.LVL205
 6167 0bd4 0100     		.2byte	0x1
 6168 0bd6 54       		.byte	0x54
 6169 0bd7 20000000 		.4byte	.LVL205
 6170 0bdb 2C000000 		.4byte	.LFE66
 6171 0bdf 0100     		.2byte	0x1
 6172 0be1 50       		.byte	0x50
 6173 0be2 00000000 		.4byte	0
 6174 0be6 00000000 		.4byte	0
 6175              	.LLST51:
 6176 0bea 00000000 		.4byte	.LVL206
 6177 0bee 05000000 		.4byte	.LVL207-1
 6178 0bf2 0100     		.2byte	0x1
 6179 0bf4 50       		.byte	0x50
 6180 0bf5 05000000 		.4byte	.LVL207-1
 6181 0bf9 08000000 		.4byte	.LFE67
 6182 0bfd 0400     		.2byte	0x4
 6183 0bff F3       		.byte	0xf3
 6184 0c00 01       		.uleb128 0x1
 6185 0c01 50       		.byte	0x50
 6186 0c02 9F       		.byte	0x9f
 6187 0c03 00000000 		.4byte	0
ARM GAS  C:\Users\Phuong\AppData\Local\Temp\cc08x83E.s 			page 132


 6188 0c07 00000000 		.4byte	0
 6189              	.LLST52:
 6190 0c0b 1A000000 		.4byte	.LVL209
 6191 0c0f 2E000000 		.4byte	.LVL211
 6192 0c13 0100     		.2byte	0x1
 6193 0c15 53       		.byte	0x53
 6194 0c16 00000000 		.4byte	0
 6195 0c1a 00000000 		.4byte	0
 6196              		.section	.debug_aranges,"",%progbits
 6197 0000 94000000 		.4byte	0x94
 6198 0004 0200     		.2byte	0x2
 6199 0006 00000000 		.4byte	.Ldebug_info0
 6200 000a 04       		.byte	0x4
 6201 000b 00       		.byte	0
 6202 000c 0000     		.2byte	0
 6203 000e 0000     		.2byte	0
 6204 0010 00000000 		.4byte	.LFB54
 6205 0014 58000000 		.4byte	.LFE54-.LFB54
 6206 0018 00000000 		.4byte	.LFB55
 6207 001c 58000000 		.4byte	.LFE55-.LFB55
 6208 0020 00000000 		.4byte	.LFB53
 6209 0024 20000000 		.4byte	.LFE53-.LFB53
 6210 0028 00000000 		.4byte	.LFB56
 6211 002c FC010000 		.4byte	.LFE56-.LFB56
 6212 0030 00000000 		.4byte	.LFB61
 6213 0034 A0000000 		.4byte	.LFE61-.LFB61
 6214 0038 00000000 		.4byte	.LFB60
 6215 003c 14010000 		.4byte	.LFE60-.LFB60
 6216 0040 00000000 		.4byte	.LFB59
 6217 0044 48000000 		.4byte	.LFE59-.LFB59
 6218 0048 00000000 		.4byte	.LFB58
 6219 004c 78000000 		.4byte	.LFE58-.LFB58
 6220 0050 00000000 		.4byte	.LFB57
 6221 0054 16000000 		.4byte	.LFE57-.LFB57
 6222 0058 00000000 		.4byte	.LFB62
 6223 005c 68000000 		.4byte	.LFE62-.LFB62
 6224 0060 00000000 		.4byte	.LFB63
 6225 0064 10000000 		.4byte	.LFE63-.LFB63
 6226 0068 00000000 		.4byte	.LFB64
 6227 006c 06000000 		.4byte	.LFE64-.LFB64
 6228 0070 00000000 		.4byte	.LFB65
 6229 0074 38000000 		.4byte	.LFE65-.LFB65
 6230 0078 00000000 		.4byte	.LFB66
 6231 007c 2C000000 		.4byte	.LFE66-.LFB66
 6232 0080 00000000 		.4byte	.LFB67
 6233 0084 08000000 		.4byte	.LFE67-.LFB67
 6234 0088 00000000 		.4byte	.LFB68
 6235 008c 34000000 		.4byte	.LFE68-.LFB68
 6236 0090 00000000 		.4byte	0
 6237 0094 00000000 		.4byte	0
 6238              		.section	.debug_ranges,"",%progbits
 6239              	.Ldebug_ranges0:
 6240 0000 00000000 		.4byte	.LFB54
 6241 0004 58000000 		.4byte	.LFE54
 6242 0008 00000000 		.4byte	.LFB55
 6243 000c 58000000 		.4byte	.LFE55
 6244 0010 00000000 		.4byte	.LFB53
ARM GAS  C:\Users\Phuong\AppData\Local\Temp\cc08x83E.s 			page 133


 6245 0014 20000000 		.4byte	.LFE53
 6246 0018 00000000 		.4byte	.LFB56
 6247 001c FC010000 		.4byte	.LFE56
 6248 0020 00000000 		.4byte	.LFB61
 6249 0024 A0000000 		.4byte	.LFE61
 6250 0028 00000000 		.4byte	.LFB60
 6251 002c 14010000 		.4byte	.LFE60
 6252 0030 00000000 		.4byte	.LFB59
 6253 0034 48000000 		.4byte	.LFE59
 6254 0038 00000000 		.4byte	.LFB58
 6255 003c 78000000 		.4byte	.LFE58
 6256 0040 00000000 		.4byte	.LFB57
 6257 0044 16000000 		.4byte	.LFE57
 6258 0048 00000000 		.4byte	.LFB62
 6259 004c 68000000 		.4byte	.LFE62
 6260 0050 00000000 		.4byte	.LFB63
 6261 0054 10000000 		.4byte	.LFE63
 6262 0058 00000000 		.4byte	.LFB64
 6263 005c 06000000 		.4byte	.LFE64
 6264 0060 00000000 		.4byte	.LFB65
 6265 0064 38000000 		.4byte	.LFE65
 6266 0068 00000000 		.4byte	.LFB66
 6267 006c 2C000000 		.4byte	.LFE66
 6268 0070 00000000 		.4byte	.LFB67
 6269 0074 08000000 		.4byte	.LFE67
 6270 0078 00000000 		.4byte	.LFB68
 6271 007c 34000000 		.4byte	.LFE68
 6272 0080 00000000 		.4byte	0
 6273 0084 00000000 		.4byte	0
 6274              		.section	.debug_line,"",%progbits
 6275              	.Ldebug_line0:
 6276 0000 43060000 		.section	.debug_str,"MS",%progbits,1
 6276      0200CF02 
 6276      00000201 
 6276      FB0E0D00 
 6276      01010101 
 6277              	.LASF194:
 6278 0000 69705F70 		.ascii	"ip_proto\000"
 6278      726F746F 
 6278      00
 6279              	.LASF159:
 6280 0009 7564705F 		.ascii	"udp_pcb\000"
 6280      70636200 
 6281              	.LASF63:
 6282 0011 4D454D50 		.ascii	"MEMP_TCP_PCB_LISTEN\000"
 6282      5F544350 
 6282      5F504342 
 6282      5F4C4953 
 6282      54454E00 
 6283              	.LASF170:
 6284 0025 49434D50 		.ascii	"ICMP_DUR_HOST\000"
 6284      5F445552 
 6284      5F484F53 
 6284      5400
 6285              	.LASF162:
 6286 0033 736F5F6F 		.ascii	"so_options\000"
 6286      7074696F 
ARM GAS  C:\Users\Phuong\AppData\Local\Temp\cc08x83E.s 			page 134


 6286      6E7300
 6287              	.LASF13:
 6288 003e 63686172 		.ascii	"char\000"
 6288      00
 6289              	.LASF122:
 6290 0043 696E7075 		.ascii	"input\000"
 6290      7400
 6291              	.LASF36:
 6292 0049 4552525F 		.ascii	"ERR_ABRT\000"
 6292      41425254 
 6292      00
 6293              	.LASF40:
 6294 0052 50425546 		.ascii	"PBUF_TRANSPORT\000"
 6294      5F545241 
 6294      4E53504F 
 6294      525400
 6295              	.LASF184:
 6296 0061 61676169 		.ascii	"again\000"
 6296      6E00
 6297              	.LASF45:
 6298 0067 50425546 		.ascii	"PBUF_RAM\000"
 6298      5F52414D 
 6298      00
 6299              	.LASF232:
 6300 0070 536F7572 		.ascii	"Source\\LwIP\\src\\core\\udp.c\000"
 6300      63655C4C 
 6300      7749505C 
 6300      7372635C 
 6300      636F7265 
 6301              	.LASF113:
 6302 008b 4C574950 		.ascii	"LWIP_NETIF_CLIENT_DATA_INDEX_IGMP\000"
 6302      5F4E4554 
 6302      49465F43 
 6302      4C49454E 
 6302      545F4441 
 6303              	.LASF151:
 6304 00ad 63757272 		.ascii	"current_input_netif\000"
 6304      656E745F 
 6304      696E7075 
 6304      745F6E65 
 6304      74696600 
 6305              	.LASF44:
 6306 00c1 50425546 		.ascii	"PBUF_RAW\000"
 6306      5F524157 
 6306      00
 6307              	.LASF53:
 6308 00ca 666C6167 		.ascii	"flags\000"
 6308      7300
 6309              	.LASF38:
 6310 00d0 4552525F 		.ascii	"ERR_CLSD\000"
 6310      434C5344 
 6310      00
 6311              	.LASF31:
 6312 00d9 4552525F 		.ascii	"ERR_USE\000"
 6312      55534500 
 6313              	.LASF65:
 6314 00e1 4D454D50 		.ascii	"MEMP_REASSDATA\000"
ARM GAS  C:\Users\Phuong\AppData\Local\Temp\cc08x83E.s 			page 135


 6314      5F524541 
 6314      53534441 
 6314      544100
 6315              	.LASF39:
 6316 00f0 4552525F 		.ascii	"ERR_ARG\000"
 6316      41524700 
 6317              	.LASF187:
 6318 00f8 69706362 		.ascii	"ipcb\000"
 6318      00
 6319              	.LASF219:
 6320 00fd 6970345F 		.ascii	"ip4_addr_isbroadcast_u32\000"
 6320      61646472 
 6320      5F697362 
 6320      726F6164 
 6320      63617374 
 6321              	.LASF190:
 6322 0116 7564705F 		.ascii	"udp_sendto_if_src\000"
 6322      73656E64 
 6322      746F5F69 
 6322      665F7372 
 6322      6300
 6323              	.LASF8:
 6324 0128 756E7369 		.ascii	"unsigned int\000"
 6324      676E6564 
 6324      20696E74 
 6324      00
 6325              	.LASF49:
 6326 0135 6E657874 		.ascii	"next\000"
 6326      00
 6327              	.LASF169:
 6328 013a 49434D50 		.ascii	"ICMP_DUR_NET\000"
 6328      5F445552 
 6328      5F4E4554 
 6328      00
 6329              	.LASF22:
 6330 0147 6572725F 		.ascii	"err_t\000"
 6330      7400
 6331              	.LASF221:
 6332 014d 69705F63 		.ascii	"ip_chksum_pseudo\000"
 6332      686B7375 
 6332      6D5F7073 
 6332      6575646F 
 6332      00
 6333              	.LASF124:
 6334 015e 6C696E6B 		.ascii	"linkoutput\000"
 6334      6F757470 
 6334      757400
 6335              	.LASF199:
 6336 0169 7564705F 		.ascii	"udp_send\000"
 6336      73656E64 
 6336      00
 6337              	.LASF129:
 6338 0172 686F7374 		.ascii	"hostname\000"
 6338      6E616D65 
 6338      00
 6339              	.LASF181:
 6340 017b 70726576 		.ascii	"prev\000"
ARM GAS  C:\Users\Phuong\AppData\Local\Temp\cc08x83E.s 			page 136


 6340      00
 6341              	.LASF145:
 6342 0180 5F74746C 		.ascii	"_ttl\000"
 6342      00
 6343              	.LASF200:
 6344 0185 7564705F 		.ascii	"udp_connect\000"
 6344      636F6E6E 
 6344      65637400 
 6345              	.LASF166:
 6346 0191 6D636173 		.ascii	"mcast_ttl\000"
 6346      745F7474 
 6346      6C00
 6347              	.LASF223:
 6348 019b 70627566 		.ascii	"pbuf_header_force\000"
 6348      5F686561 
 6348      6465725F 
 6348      666F7263 
 6348      6500
 6349              	.LASF77:
 6350 01ad 73746174 		.ascii	"stats_mem\000"
 6350      735F6D65 
 6350      6D00
 6351              	.LASF152:
 6352 01b7 63757272 		.ascii	"current_ip4_header\000"
 6352      656E745F 
 6352      6970345F 
 6352      68656164 
 6352      657200
 6353              	.LASF216:
 6354 01ca 7564705F 		.ascii	"udp_pcbs\000"
 6354      70636273 
 6354      00
 6355              	.LASF134:
 6356 01d3 6E657469 		.ascii	"netif_output_fn\000"
 6356      665F6F75 
 6356      74707574 
 6356      5F666E00 
 6357              	.LASF220:
 6358 01e3 6C776970 		.ascii	"lwip_htons\000"
 6358      5F68746F 
 6358      6E7300
 6359              	.LASF75:
 6360 01ee 4D454D50 		.ascii	"MEMP_PBUF_POOL\000"
 6360      5F504255 
 6360      465F504F 
 6360      4F4C00
 6361              	.LASF214:
 6362 01fd 6C776970 		.ascii	"lwip_stats\000"
 6362      5F737461 
 6362      747300
 6363              	.LASF204:
 6364 0208 70636232 		.ascii	"pcb2\000"
 6364      00
 6365              	.LASF213:
 6366 020d 69705F61 		.ascii	"ip_addr_broadcast\000"
 6366      6464725F 
 6366      62726F61 
ARM GAS  C:\Users\Phuong\AppData\Local\Temp\cc08x83E.s 			page 137


 6366      64636173 
 6366      7400
 6367              	.LASF206:
 6368 021f 7564705F 		.ascii	"udp_new_ip_type\000"
 6368      6E65775F 
 6368      69705F74 
 6368      79706500 
 6369              	.LASF32:
 6370 022f 4552525F 		.ascii	"ERR_ALREADY\000"
 6370      414C5245 
 6370      41445900 
 6371              	.LASF101:
 6372 023b 73746174 		.ascii	"stats_syselem\000"
 6372      735F7379 
 6372      73656C65 
 6372      6D00
 6373              	.LASF193:
 6374 0249 7372635F 		.ascii	"src_ip\000"
 6374      697000
 6375              	.LASF133:
 6376 0250 6E657469 		.ascii	"netif_input_fn\000"
 6376      665F696E 
 6376      7075745F 
 6376      666E00
 6377              	.LASF14:
 6378 025f 75696E74 		.ascii	"uint32_t\000"
 6378      33325F74 
 6378      00
 6379              	.LASF175:
 6380 0268 7564705F 		.ascii	"udp_new_port\000"
 6380      6E65775F 
 6380      706F7274 
 6380      00
 6381              	.LASF196:
 6382 0275 7564705F 		.ascii	"udp_sendto_if\000"
 6382      73656E64 
 6382      746F5F69 
 6382      6600
 6383              	.LASF71:
 6384 0283 4D454D50 		.ascii	"MEMP_IGMP_GROUP\000"
 6384      5F49474D 
 6384      505F4752 
 6384      4F555000 
 6385              	.LASF68:
 6386 0293 4D454D50 		.ascii	"MEMP_TCPIP_MSG_API\000"
 6386      5F544350 
 6386      49505F4D 
 6386      53475F41 
 6386      504900
 6387              	.LASF91:
 6388 02a6 6F707465 		.ascii	"opterr\000"
 6388      727200
 6389              	.LASF163:
 6390 02ad 6C6F6361 		.ascii	"local_port\000"
 6390      6C5F706F 
 6390      727400
 6391              	.LASF103:
ARM GAS  C:\Users\Phuong\AppData\Local\Temp\cc08x83E.s 			page 138


 6392 02b8 6D757465 		.ascii	"mutex\000"
 6392      7800
 6393              	.LASF231:
 6394 02be 474E5520 		.ascii	"GNU C11 5.4.1 20160609 (release) [ARM/embedded-5-br"
 6394      43313120 
 6394      352E342E 
 6394      31203230 
 6394      31363036 
 6395 02f1 616E6368 		.ascii	"anch revision 237715] -mcpu=cortex-m0plus -mthumb -"
 6395      20726576 
 6395      6973696F 
 6395      6E203233 
 6395      37373135 
 6396 0324 67202D4F 		.ascii	"g -Og -ffunction-sections -ffat-lto-objects\000"
 6396      67202D66 
 6396      66756E63 
 6396      74696F6E 
 6396      2D736563 
 6397              	.LASF108:
 6398 0350 69705F66 		.ascii	"ip_frag\000"
 6398      72616700 
 6399              	.LASF70:
 6400 0358 4D454D50 		.ascii	"MEMP_ARP_QUEUE\000"
 6400      5F415250 
 6400      5F515545 
 6400      554500
 6401              	.LASF7:
 6402 0367 6C6F6E67 		.ascii	"long long unsigned int\000"
 6402      206C6F6E 
 6402      6720756E 
 6402      7369676E 
 6402      65642069 
 6403              	.LASF212:
 6404 037e 69705F61 		.ascii	"ip_addr_any\000"
 6404      6464725F 
 6404      616E7900 
 6405              	.LASF195:
 6406 038a 75647063 		.ascii	"udpchksum\000"
 6406      686B7375 
 6406      6D00
 6407              	.LASF99:
 6408 0394 74785F6C 		.ascii	"tx_leave\000"
 6408      65617665 
 6408      00
 6409              	.LASF131:
 6410 039d 68776164 		.ascii	"hwaddr\000"
 6410      647200
 6411              	.LASF107:
 6412 03a4 65746861 		.ascii	"etharp\000"
 6412      727000
 6413              	.LASF140:
 6414 03ab 69705F68 		.ascii	"ip_hdr\000"
 6414      647200
 6415              	.LASF192:
 6416 03b2 6473745F 		.ascii	"dst_port\000"
 6416      706F7274 
 6416      00
ARM GAS  C:\Users\Phuong\AppData\Local\Temp\cc08x83E.s 			page 139


 6417              	.LASF224:
 6418 03bb 69636D70 		.ascii	"icmp_dest_unreach\000"
 6418      5F646573 
 6418      745F756E 
 6418      72656163 
 6418      6800
 6419              	.LASF110:
 6420 03cd 69676D70 		.ascii	"igmp\000"
 6420      00
 6421              	.LASF154:
 6422 03d2 63757272 		.ascii	"current_iphdr_src\000"
 6422      656E745F 
 6422      69706864 
 6422      725F7372 
 6422      6300
 6423              	.LASF57:
 6424 03e4 6970345F 		.ascii	"ip4_addr_t\000"
 6424      61646472 
 6424      5F7400
 6425              	.LASF147:
 6426 03ef 5F63686B 		.ascii	"_chksum\000"
 6426      73756D00 
 6427              	.LASF130:
 6428 03f7 68776164 		.ascii	"hwaddr_len\000"
 6428      64725F6C 
 6428      656E00
 6429              	.LASF144:
 6430 0402 5F6F6666 		.ascii	"_offset\000"
 6430      73657400 
 6431              	.LASF29:
 6432 040a 4552525F 		.ascii	"ERR_VAL\000"
 6432      56414C00 
 6433              	.LASF174:
 6434 0412 49434D50 		.ascii	"ICMP_DUR_SR\000"
 6434      5F445552 
 6434      5F535200 
 6435              	.LASF120:
 6436 041e 69705F61 		.ascii	"ip_addr\000"
 6436      64647200 
 6437              	.LASF233:
 6438 0426 433A5C55 		.ascii	"C:\\Users\\Phuong\\Documents\\PSoC Creator\\Dec0820"
 6438      73657273 
 6438      5C506875 
 6438      6F6E675C 
 6438      446F6375 
 6439 0454 31385C69 		.ascii	"18\\iot-sdk-iot-dev\\PSOC6_FreeRTOS+LwIP+MbedTLS_Az"
 6439      6F742D73 
 6439      646B2D69 
 6439      6F742D64 
 6439      65765C50 
 6440 0485 7572652D 		.ascii	"ure-IOT-Hub-Demo\\PSOC6_FreeRTOS+LwIP+MbedTLS_Azure"
 6440      494F542D 
 6440      4875622D 
 6440      44656D6F 
 6440      5C50534F 
 6441 04b7 2D494F54 		.ascii	"-IOT-Hub-Demo.cydsn\000"
 6441      2D487562 
ARM GAS  C:\Users\Phuong\AppData\Local\Temp\cc08x83E.s 			page 140


 6441      2D44656D 
 6441      6F2E6379 
 6441      64736E00 
 6442              	.LASF69:
 6443 04cb 4D454D50 		.ascii	"MEMP_TCPIP_MSG_INPKT\000"
 6443      5F544350 
 6443      49505F4D 
 6443      53475F49 
 6443      4E504B54 
 6444              	.LASF47:
 6445 04e0 50425546 		.ascii	"PBUF_REF\000"
 6445      5F524546 
 6445      00
 6446              	.LASF105:
 6447 04e9 73746174 		.ascii	"stats_\000"
 6447      735F00
 6448              	.LASF157:
 6449 04f0 63686B73 		.ascii	"chksum\000"
 6449      756D00
 6450              	.LASF185:
 6451 04f7 69706164 		.ascii	"ipaddr\000"
 6451      647200
 6452              	.LASF10:
 6453 04fe 73697A65 		.ascii	"size_t\000"
 6453      5F7400
 6454              	.LASF50:
 6455 0505 7061796C 		.ascii	"payload\000"
 6455      6F616400 
 6456              	.LASF41:
 6457 050d 50425546 		.ascii	"PBUF_IP\000"
 6457      5F495000 
 6458              	.LASF123:
 6459 0515 6F757470 		.ascii	"output\000"
 6459      757400
 6460              	.LASF48:
 6461 051c 50425546 		.ascii	"PBUF_POOL\000"
 6461      5F504F4F 
 6461      4C00
 6462              	.LASF76:
 6463 0526 4D454D50 		.ascii	"MEMP_MAX\000"
 6463      5F4D4158 
 6463      00
 6464              	.LASF18:
 6465 052f 73385F74 		.ascii	"s8_t\000"
 6465      00
 6466              	.LASF207:
 6467 0534 7564705F 		.ascii	"udp_netif_ip_addr_changed\000"
 6467      6E657469 
 6467      665F6970 
 6467      5F616464 
 6467      725F6368 
 6468              	.LASF205:
 6469 054e 7564705F 		.ascii	"udp_new\000"
 6469      6E657700 
 6470              	.LASF67:
 6471 0556 4D454D50 		.ascii	"MEMP_NETCONN\000"
 6471      5F4E4554 
ARM GAS  C:\Users\Phuong\AppData\Local\Temp\cc08x83E.s 			page 141


 6471      434F4E4E 
 6471      00
 6472              	.LASF97:
 6473 0563 72785F72 		.ascii	"rx_report\000"
 6473      65706F72 
 6473      7400
 6474              	.LASF30:
 6475 056d 4552525F 		.ascii	"ERR_WOULDBLOCK\000"
 6475      574F554C 
 6475      44424C4F 
 6475      434B00
 6476              	.LASF26:
 6477 057c 4552525F 		.ascii	"ERR_TIMEOUT\000"
 6477      54494D45 
 6477      4F555400 
 6478              	.LASF182:
 6479 0588 756E636F 		.ascii	"uncon_pcb\000"
 6479      6E5F7063 
 6479      6200
 6480              	.LASF222:
 6481 0592 70627566 		.ascii	"pbuf_header\000"
 6481      5F686561 
 6481      64657200 
 6482              	.LASF149:
 6483 059e 69705F67 		.ascii	"ip_globals\000"
 6483      6C6F6261 
 6483      6C7300
 6484              	.LASF74:
 6485 05a9 4D454D50 		.ascii	"MEMP_PBUF\000"
 6485      5F504255 
 6485      4600
 6486              	.LASF127:
 6487 05b3 636C6965 		.ascii	"client_data\000"
 6487      6E745F64 
 6487      61746100 
 6488              	.LASF81:
 6489 05bf 696C6C65 		.ascii	"illegal\000"
 6489      67616C00 
 6490              	.LASF59:
 6491 05c7 6D656D5F 		.ascii	"mem_size_t\000"
 6491      73697A65 
 6491      5F7400
 6492              	.LASF132:
 6493 05d2 69676D70 		.ascii	"igmp_mac_filter\000"
 6493      5F6D6163 
 6493      5F66696C 
 6493      74657200 
 6494              	.LASF82:
 6495 05e2 73746174 		.ascii	"stats_proto\000"
 6495      735F7072 
 6495      6F746F00 
 6496              	.LASF118:
 6497 05ee 4E455449 		.ascii	"NETIF_ADD_MAC_FILTER\000"
 6497      465F4144 
 6497      445F4D41 
 6497      435F4649 
 6497      4C544552 
ARM GAS  C:\Users\Phuong\AppData\Local\Temp\cc08x83E.s 			page 142


 6498              	.LASF9:
 6499 0603 5F5F7569 		.ascii	"__uint32_t\000"
 6499      6E743332 
 6499      5F7400
 6500              	.LASF146:
 6501 060e 5F70726F 		.ascii	"_proto\000"
 6501      746F00
 6502              	.LASF225:
 6503 0615 70627566 		.ascii	"pbuf_alloc\000"
 6503      5F616C6C 
 6503      6F6300
 6504              	.LASF218:
 6505 0620 70627566 		.ascii	"pbuf_free\000"
 6505      5F667265 
 6505      6500
 6506              	.LASF176:
 6507 062a 7564705F 		.ascii	"udp_input_local_match\000"
 6507      696E7075 
 6507      745F6C6F 
 6507      63616C5F 
 6507      6D617463 
 6508              	.LASF66:
 6509 0640 4D454D50 		.ascii	"MEMP_NETBUF\000"
 6509      5F4E4554 
 6509      42554600 
 6510              	.LASF121:
 6511 064c 6E65746D 		.ascii	"netmask\000"
 6511      61736B00 
 6512              	.LASF6:
 6513 0654 6C6F6E67 		.ascii	"long long int\000"
 6513      206C6F6E 
 6513      6720696E 
 6513      7400
 6514              	.LASF35:
 6515 0662 4552525F 		.ascii	"ERR_IF\000"
 6515      494600
 6516              	.LASF125:
 6517 0669 73746174 		.ascii	"status_callback\000"
 6517      75735F63 
 6517      616C6C62 
 6517      61636B00 
 6518              	.LASF62:
 6519 0679 4D454D50 		.ascii	"MEMP_TCP_PCB\000"
 6519      5F544350 
 6519      5F504342 
 6519      00
 6520              	.LASF17:
 6521 0686 75385F74 		.ascii	"u8_t\000"
 6521      00
 6522              	.LASF197:
 6523 068b 7564705F 		.ascii	"udp_sendto\000"
 6523      73656E64 
 6523      746F00
 6524              	.LASF217:
 6525 0696 7379735F 		.ascii	"sys_rand16\000"
 6525      72616E64 
 6525      313600
ARM GAS  C:\Users\Phuong\AppData\Local\Temp\cc08x83E.s 			page 143


 6526              	.LASF141:
 6527 06a1 5F765F68 		.ascii	"_v_hl\000"
 6527      6C00
 6528              	.LASF15:
 6529 06a7 666C6F61 		.ascii	"float\000"
 6529      7400
 6530              	.LASF234:
 6531 06ad 6D656D73 		.ascii	"memset\000"
 6531      657400
 6532              	.LASF164:
 6533 06b4 72656D6F 		.ascii	"remote_port\000"
 6533      74655F70 
 6533      6F727400 
 6534              	.LASF80:
 6535 06c0 75736564 		.ascii	"used\000"
 6535      00
 6536              	.LASF215:
 6537 06c5 69705F64 		.ascii	"ip_data\000"
 6537      61746100 
 6538              	.LASF86:
 6539 06cd 63686B65 		.ascii	"chkerr\000"
 6539      727200
 6540              	.LASF172:
 6541 06d4 49434D50 		.ascii	"ICMP_DUR_PORT\000"
 6541      5F445552 
 6541      5F504F52 
 6541      5400
 6542              	.LASF178:
 6543 06e2 7564705F 		.ascii	"udp_init\000"
 6543      696E6974 
 6543      00
 6544              	.LASF198:
 6545 06eb 6473745F 		.ascii	"dst_ip_route\000"
 6545      69705F72 
 6545      6F757465 
 6545      00
 6546              	.LASF153:
 6547 06f8 63757272 		.ascii	"current_ip_header_tot_len\000"
 6547      656E745F 
 6547      69705F68 
 6547      65616465 
 6547      725F746F 
 6548              	.LASF191:
 6549 0712 6473745F 		.ascii	"dst_ip\000"
 6549      697000
 6550              	.LASF42:
 6551 0719 50425546 		.ascii	"PBUF_LINK\000"
 6551      5F4C494E 
 6551      4B00
 6552              	.LASF96:
 6553 0723 72785F67 		.ascii	"rx_general\000"
 6553      656E6572 
 6553      616C00
 6554              	.LASF177:
 6555 072e 62726F61 		.ascii	"broadcast\000"
 6555      64636173 
 6555      7400
ARM GAS  C:\Users\Phuong\AppData\Local\Temp\cc08x83E.s 			page 144


 6556              	.LASF117:
 6557 0738 4E455449 		.ascii	"NETIF_DEL_MAC_FILTER\000"
 6557      465F4445 
 6557      4C5F4D41 
 6557      435F4649 
 6557      4C544552 
 6558              	.LASF211:
 6559 074d 7564705F 		.ascii	"udp_port\000"
 6559      706F7274 
 6559      00
 6560              	.LASF165:
 6561 0756 6D756C74 		.ascii	"multicast_ip\000"
 6561      69636173 
 6561      745F6970 
 6561      00
 6562              	.LASF11:
 6563 0763 6C6F6E67 		.ascii	"long double\000"
 6563      20646F75 
 6563      626C6500 
 6564              	.LASF19:
 6565 076f 7531365F 		.ascii	"u16_t\000"
 6565      7400
 6566              	.LASF139:
 6567 0775 6970345F 		.ascii	"ip4_addr_p_t\000"
 6567      61646472 
 6567      5F705F74 
 6567      00
 6568              	.LASF1:
 6569 0782 756E7369 		.ascii	"unsigned char\000"
 6569      676E6564 
 6569      20636861 
 6569      7200
 6570              	.LASF25:
 6571 0790 4552525F 		.ascii	"ERR_BUF\000"
 6571      42554600 
 6572              	.LASF150:
 6573 0798 63757272 		.ascii	"current_netif\000"
 6573      656E745F 
 6573      6E657469 
 6573      6600
 6574              	.LASF60:
 6575 07a6 4D454D50 		.ascii	"MEMP_RAW_PCB\000"
 6575      5F524157 
 6575      5F504342 
 6575      00
 6576              	.LASF158:
 6577 07b3 7564705F 		.ascii	"udp_recv_fn\000"
 6577      72656376 
 6577      5F666E00 
 6578              	.LASF21:
 6579 07bf 7533325F 		.ascii	"u32_t\000"
 6579      7400
 6580              	.LASF2:
 6581 07c5 73686F72 		.ascii	"short int\000"
 6581      7420696E 
 6581      7400
 6582              	.LASF109:
ARM GAS  C:\Users\Phuong\AppData\Local\Temp\cc08x83E.s 			page 145


 6583 07cf 69636D70 		.ascii	"icmp\000"
 6583      00
 6584              	.LASF4:
 6585 07d4 6C6F6E67 		.ascii	"long int\000"
 6585      20696E74 
 6585      00
 6586              	.LASF89:
 6587 07dd 72746572 		.ascii	"rterr\000"
 6587      7200
 6588              	.LASF79:
 6589 07e3 61766169 		.ascii	"avail\000"
 6589      6C00
 6590              	.LASF208:
 6591 07e9 6F6C645F 		.ascii	"old_addr\000"
 6591      61646472 
 6591      00
 6592              	.LASF72:
 6593 07f2 4D454D50 		.ascii	"MEMP_SYS_TIMEOUT\000"
 6593      5F535953 
 6593      5F54494D 
 6593      454F5554 
 6593      00
 6594              	.LASF61:
 6595 0803 4D454D50 		.ascii	"MEMP_UDP_PCB\000"
 6595      5F554450 
 6595      5F504342 
 6595      00
 6596              	.LASF160:
 6597 0810 6C6F6361 		.ascii	"local_ip\000"
 6597      6C5F6970 
 6597      00
 6598              	.LASF104:
 6599 0819 6D626F78 		.ascii	"mbox\000"
 6599      00
 6600              	.LASF201:
 6601 081e 7564705F 		.ascii	"udp_disconnect\000"
 6601      64697363 
 6601      6F6E6E65 
 6601      637400
 6602              	.LASF28:
 6603 082d 4552525F 		.ascii	"ERR_INPROGRESS\000"
 6603      494E5052 
 6603      4F475245 
 6603      535300
 6604              	.LASF55:
 6605 083c 6970345F 		.ascii	"ip4_addr\000"
 6605      61646472 
 6605      00
 6606              	.LASF228:
 6607 0845 6970345F 		.ascii	"ip4_route\000"
 6607      726F7574 
 6607      6500
 6608              	.LASF33:
 6609 084f 4552525F 		.ascii	"ERR_ISCONN\000"
 6609      4953434F 
 6609      4E4E00
 6610              	.LASF92:
ARM GAS  C:\Users\Phuong\AppData\Local\Temp\cc08x83E.s 			page 146


 6611 085a 63616368 		.ascii	"cachehit\000"
 6611      65686974 
 6611      00
 6612              	.LASF230:
 6613 0863 6D656D70 		.ascii	"memp_malloc_fn\000"
 6613      5F6D616C 
 6613      6C6F635F 
 6613      666E00
 6614              	.LASF78:
 6615 0872 6E616D65 		.ascii	"name\000"
 6615      00
 6616              	.LASF135:
 6617 0877 6E657469 		.ascii	"netif_linkoutput_fn\000"
 6617      665F6C69 
 6617      6E6B6F75 
 6617      74707574 
 6617      5F666E00 
 6618              	.LASF128:
 6619 088b 72735F63 		.ascii	"rs_count\000"
 6619      6F756E74 
 6619      00
 6620              	.LASF111:
 6621 0894 6D656D70 		.ascii	"memp\000"
 6621      00
 6622              	.LASF167:
 6623 0899 72656376 		.ascii	"recv_arg\000"
 6623      5F617267 
 6623      00
 6624              	.LASF87:
 6625 08a2 6C656E65 		.ascii	"lenerr\000"
 6625      727200
 6626              	.LASF142:
 6627 08a9 5F746F73 		.ascii	"_tos\000"
 6627      00
 6628              	.LASF12:
 6629 08ae 73697A65 		.ascii	"sizetype\000"
 6629      74797065 
 6629      00
 6630              	.LASF188:
 6631 08b7 72656269 		.ascii	"rebind\000"
 6631      6E6400
 6632              	.LASF5:
 6633 08be 6C6F6E67 		.ascii	"long unsigned int\000"
 6633      20756E73 
 6633      69676E65 
 6633      6420696E 
 6633      7400
 6634              	.LASF116:
 6635 08d0 6E657469 		.ascii	"netif_mac_filter_action\000"
 6635      665F6D61 
 6635      635F6669 
 6635      6C746572 
 6635      5F616374 
 6636              	.LASF226:
 6637 08e8 70627566 		.ascii	"pbuf_chain\000"
 6637      5F636861 
 6637      696E00
ARM GAS  C:\Users\Phuong\AppData\Local\Temp\cc08x83E.s 			page 147


 6638              	.LASF183:
 6639 08f3 666F725F 		.ascii	"for_us\000"
 6639      757300
 6640              	.LASF20:
 6641 08fa 7331365F 		.ascii	"s16_t\000"
 6641      7400
 6642              	.LASF186:
 6643 0900 706F7274 		.ascii	"port\000"
 6643      00
 6644              	.LASF90:
 6645 0905 70726F74 		.ascii	"proterr\000"
 6645      65727200 
 6646              	.LASF202:
 6647 090d 7564705F 		.ascii	"udp_recv\000"
 6647      72656376 
 6647      00
 6648              	.LASF94:
 6649 0916 72785F76 		.ascii	"rx_v1\000"
 6649      3100
 6650              	.LASF227:
 6651 091c 6970345F 		.ascii	"ip4_output_if_src\000"
 6651      6F757470 
 6651      75745F69 
 6651      665F7372 
 6651      6300
 6652              	.LASF52:
 6653 092e 74797065 		.ascii	"type\000"
 6653      00
 6654              	.LASF102:
 6655 0933 73746174 		.ascii	"stats_sys\000"
 6655      735F7379 
 6655      7300
 6656              	.LASF54:
 6657 093d 70627566 		.ascii	"pbuf\000"
 6657      00
 6658              	.LASF115:
 6659 0942 6C776970 		.ascii	"lwip_internal_netif_client_data_index\000"
 6659      5F696E74 
 6659      65726E61 
 6659      6C5F6E65 
 6659      7469665F 
 6660              	.LASF88:
 6661 0968 6D656D65 		.ascii	"memerr\000"
 6661      727200
 6662              	.LASF64:
 6663 096f 4D454D50 		.ascii	"MEMP_TCP_SEG\000"
 6663      5F544350 
 6663      5F534547 
 6663      00
 6664              	.LASF136:
 6665 097c 6E657469 		.ascii	"netif_status_callback_fn\000"
 6665      665F7374 
 6665      61747573 
 6665      5F63616C 
 6665      6C626163 
 6666              	.LASF106:
 6667 0995 6C696E6B 		.ascii	"link\000"
ARM GAS  C:\Users\Phuong\AppData\Local\Temp\cc08x83E.s 			page 148


 6667      00
 6668              	.LASF171:
 6669 099a 49434D50 		.ascii	"ICMP_DUR_PROTO\000"
 6669      5F445552 
 6669      5F50524F 
 6669      544F00
 6670              	.LASF56:
 6671 09a9 61646472 		.ascii	"addr\000"
 6671      00
 6672              	.LASF98:
 6673 09ae 74785F6A 		.ascii	"tx_join\000"
 6673      6F696E00 
 6674              	.LASF173:
 6675 09b6 49434D50 		.ascii	"ICMP_DUR_FRAG\000"
 6675      5F445552 
 6675      5F465241 
 6675      4700
 6676              	.LASF83:
 6677 09c4 786D6974 		.ascii	"xmit\000"
 6677      00
 6678              	.LASF85:
 6679 09c9 64726F70 		.ascii	"drop\000"
 6679      00
 6680              	.LASF126:
 6681 09ce 73746174 		.ascii	"state\000"
 6681      6500
 6682              	.LASF51:
 6683 09d4 746F745F 		.ascii	"tot_len\000"
 6683      6C656E00 
 6684              	.LASF189:
 6685 09dc 7564705F 		.ascii	"udp_bind\000"
 6685      62696E64 
 6685      00
 6686              	.LASF114:
 6687 09e5 4C574950 		.ascii	"LWIP_NETIF_CLIENT_DATA_INDEX_MAX\000"
 6687      5F4E4554 
 6687      49465F43 
 6687      4C49454E 
 6687      545F4441 
 6688              	.LASF119:
 6689 0a06 6E657469 		.ascii	"netif\000"
 6689      6600
 6690              	.LASF37:
 6691 0a0c 4552525F 		.ascii	"ERR_RST\000"
 6691      52535400 
 6692              	.LASF203:
 6693 0a14 7564705F 		.ascii	"udp_remove\000"
 6693      72656D6F 
 6693      766500
 6694              	.LASF137:
 6695 0a1f 6E657469 		.ascii	"netif_igmp_mac_filter_fn\000"
 6695      665F6967 
 6695      6D705F6D 
 6695      61635F66 
 6695      696C7465 
 6696              	.LASF23:
 6697 0a38 4552525F 		.ascii	"ERR_OK\000"
ARM GAS  C:\Users\Phuong\AppData\Local\Temp\cc08x83E.s 			page 149


 6697      4F4B00
 6698              	.LASF229:
 6699 0a3f 6D656D70 		.ascii	"memp_free\000"
 6699      5F667265 
 6699      6500
 6700              	.LASF84:
 6701 0a49 72656376 		.ascii	"recv\000"
 6701      00
 6702              	.LASF112:
 6703 0a4e 4C574950 		.ascii	"LWIP_NETIF_CLIENT_DATA_INDEX_DHCP\000"
 6703      5F4E4554 
 6703      49465F43 
 6703      4C49454E 
 6703      545F4441 
 6704              	.LASF0:
 6705 0a70 7369676E 		.ascii	"signed char\000"
 6705      65642063 
 6705      68617200 
 6706              	.LASF3:
 6707 0a7c 73686F72 		.ascii	"short unsigned int\000"
 6707      7420756E 
 6707      7369676E 
 6707      65642069 
 6707      6E7400
 6708              	.LASF156:
 6709 0a8f 7564705F 		.ascii	"udp_hdr\000"
 6709      68647200 
 6710              	.LASF93:
 6711 0a97 73746174 		.ascii	"stats_igmp\000"
 6711      735F6967 
 6711      6D7000
 6712              	.LASF34:
 6713 0aa2 4552525F 		.ascii	"ERR_CONN\000"
 6713      434F4E4E 
 6713      00
 6714              	.LASF155:
 6715 0aab 63757272 		.ascii	"current_iphdr_dest\000"
 6715      656E745F 
 6715      69706864 
 6715      725F6465 
 6715      737400
 6716              	.LASF161:
 6717 0abe 72656D6F 		.ascii	"remote_ip\000"
 6717      74655F69 
 6717      7000
 6718              	.LASF27:
 6719 0ac8 4552525F 		.ascii	"ERR_RTE\000"
 6719      52544500 
 6720              	.LASF16:
 6721 0ad0 646F7562 		.ascii	"double\000"
 6721      6C6500
 6722              	.LASF143:
 6723 0ad7 5F6C656E 		.ascii	"_len\000"
 6723      00
 6724              	.LASF58:
 6725 0adc 69705F61 		.ascii	"ip_addr_t\000"
 6725      6464725F 
ARM GAS  C:\Users\Phuong\AppData\Local\Temp\cc08x83E.s 			page 150


 6725      7400
 6726              	.LASF73:
 6727 0ae6 4D454D50 		.ascii	"MEMP_NETDB\000"
 6727      5F4E4554 
 6727      444200
 6728              	.LASF100:
 6729 0af1 74785F72 		.ascii	"tx_report\000"
 6729      65706F72 
 6729      7400
 6730              	.LASF43:
 6731 0afb 50425546 		.ascii	"PBUF_RAW_TX\000"
 6731      5F524157 
 6731      5F545800 
 6732              	.LASF46:
 6733 0b07 50425546 		.ascii	"PBUF_ROM\000"
 6733      5F524F4D 
 6733      00
 6734              	.LASF138:
 6735 0b10 6970345F 		.ascii	"ip4_addr_packed\000"
 6735      61646472 
 6735      5F706163 
 6735      6B656400 
 6736              	.LASF209:
 6737 0b20 6E65775F 		.ascii	"new_addr\000"
 6737      61646472 
 6737      00
 6738              	.LASF210:
 6739 0b29 75706362 		.ascii	"upcb\000"
 6739      00
 6740              	.LASF24:
 6741 0b2e 4552525F 		.ascii	"ERR_MEM\000"
 6741      4D454D00 
 6742              	.LASF148:
 6743 0b36 64657374 		.ascii	"dest\000"
 6743      00
 6744              	.LASF180:
 6745 0b3b 75647068 		.ascii	"udphdr\000"
 6745      647200
 6746              	.LASF179:
 6747 0b42 7564705F 		.ascii	"udp_input\000"
 6747      696E7075 
 6747      7400
 6748              	.LASF168:
 6749 0b4c 69636D70 		.ascii	"icmp_dur_type\000"
 6749      5F647572 
 6749      5F747970 
 6749      6500
 6750              	.LASF95:
 6751 0b5a 72785F67 		.ascii	"rx_group\000"
 6751      726F7570 
 6751      00
 6752              		.ident	"GCC: (GNU Tools for ARM Embedded Processors) 5.4.1 20160609 (release) [ARM/embedded-5-bran
