ARM GAS  C:\Users\Phuong\AppData\Local\Temp\cc08x83E.s 			page 1


   1              		.syntax unified
   2              		.cpu cortex-m0plus
   3              		.fpu softvfp
   4              		.eabi_attribute 20, 1
   5              		.eabi_attribute 21, 1
   6              		.eabi_attribute 23, 3
   7              		.eabi_attribute 24, 1
   8              		.eabi_attribute 25, 1
   9              		.eabi_attribute 26, 1
  10              		.eabi_attribute 30, 1
  11              		.eabi_attribute 34, 0
  12              		.eabi_attribute 18, 4
  13              		.thumb
  14              		.syntax unified
  15              		.file	"udp.c"
  16              		.text
  17              	.Ltext0:
  18              		.cfi_sections	.debug_frame
  19              		.section	.text.udp_new_port,"ax",%progbits
  20              		.align	2
  21              		.code	16
  22              		.thumb_func
  23              		.type	udp_new_port, %function
  24              	udp_new_port:
  25              	.LFB54:
  26              		.file 1 "Source\\LwIP\\src\\core\\udp.c"
   1:Source\LwIP\src\core/udp.c **** /**
   2:Source\LwIP\src\core/udp.c ****  * @file
   3:Source\LwIP\src\core/udp.c ****  * User Datagram Protocol module\n
   4:Source\LwIP\src\core/udp.c ****  * The code for the User Datagram Protocol UDP & UDPLite (RFC 3828).\n
   5:Source\LwIP\src\core/udp.c ****  * See also @ref udp_raw
   6:Source\LwIP\src\core/udp.c ****  * 
   7:Source\LwIP\src\core/udp.c ****  * @defgroup udp_raw UDP
   8:Source\LwIP\src\core/udp.c ****  * @ingroup callbackstyle_api
   9:Source\LwIP\src\core/udp.c ****  * User Datagram Protocol module\n
  10:Source\LwIP\src\core/udp.c ****  * @see @ref raw_api and @ref netconn
  11:Source\LwIP\src\core/udp.c ****  */
  12:Source\LwIP\src\core/udp.c **** 
  13:Source\LwIP\src\core/udp.c **** /*
  14:Source\LwIP\src\core/udp.c ****  * Copyright (c) 2001-2004 Swedish Institute of Computer Science.
  15:Source\LwIP\src\core/udp.c ****  * All rights reserved.
  16:Source\LwIP\src\core/udp.c ****  *
  17:Source\LwIP\src\core/udp.c ****  * Redistribution and use in source and binary forms, with or without modification,
  18:Source\LwIP\src\core/udp.c ****  * are permitted provided that the following conditions are met:
  19:Source\LwIP\src\core/udp.c ****  *
  20:Source\LwIP\src\core/udp.c ****  * 1. Redistributions of source code must retain the above copyright notice,
  21:Source\LwIP\src\core/udp.c ****  *    this list of conditions and the following disclaimer.
  22:Source\LwIP\src\core/udp.c ****  * 2. Redistributions in binary form must reproduce the above copyright notice,
  23:Source\LwIP\src\core/udp.c ****  *    this list of conditions and the following disclaimer in the documentation
  24:Source\LwIP\src\core/udp.c ****  *    and/or other materials provided with the distribution.
  25:Source\LwIP\src\core/udp.c ****  * 3. The name of the author may not be used to endorse or promote products
  26:Source\LwIP\src\core/udp.c ****  *    derived from this software without specific prior written permission.
  27:Source\LwIP\src\core/udp.c ****  *
  28:Source\LwIP\src\core/udp.c ****  * THIS SOFTWARE IS PROVIDED BY THE AUTHOR ``AS IS'' AND ANY EXPRESS OR IMPLIED
  29:Source\LwIP\src\core/udp.c ****  * WARRANTIES, INCLUDING, BUT NOT LIMITED TO, THE IMPLIED WARRANTIES OF
  30:Source\LwIP\src\core/udp.c ****  * MERCHANTABILITY AND FITNESS FOR A PARTICULAR PURPOSE ARE DISCLAIMED. IN NO EVENT
  31:Source\LwIP\src\core/udp.c ****  * SHALL THE AUTHOR BE LIABLE FOR ANY DIRECT, INDIRECT, INCIDENTAL, SPECIAL,
ARM GAS  C:\Users\Phuong\AppData\Local\Temp\cc08x83E.s 			page 2


  32:Source\LwIP\src\core/udp.c ****  * EXEMPLARY, OR CONSEQUENTIAL DAMAGES (INCLUDING, BUT NOT LIMITED TO, PROCUREMENT
  33:Source\LwIP\src\core/udp.c ****  * OF SUBSTITUTE GOODS OR SERVICES; LOSS OF USE, DATA, OR PROFITS; OR BUSINESS
  34:Source\LwIP\src\core/udp.c ****  * INTERRUPTION) HOWEVER CAUSED AND ON ANY THEORY OF LIABILITY, WHETHER IN
  35:Source\LwIP\src\core/udp.c ****  * CONTRACT, STRICT LIABILITY, OR TORT (INCLUDING NEGLIGENCE OR OTHERWISE) ARISING
  36:Source\LwIP\src\core/udp.c ****  * IN ANY WAY OUT OF THE USE OF THIS SOFTWARE, EVEN IF ADVISED OF THE POSSIBILITY
  37:Source\LwIP\src\core/udp.c ****  * OF SUCH DAMAGE.
  38:Source\LwIP\src\core/udp.c ****  *
  39:Source\LwIP\src\core/udp.c ****  * This file is part of the lwIP TCP/IP stack.
  40:Source\LwIP\src\core/udp.c ****  *
  41:Source\LwIP\src\core/udp.c ****  * Author: Adam Dunkels <adam@sics.se>
  42:Source\LwIP\src\core/udp.c ****  *
  43:Source\LwIP\src\core/udp.c ****  */
  44:Source\LwIP\src\core/udp.c **** 
  45:Source\LwIP\src\core/udp.c **** /* @todo Check the use of '(struct udp_pcb).chksum_len_rx'!
  46:Source\LwIP\src\core/udp.c ****  */
  47:Source\LwIP\src\core/udp.c **** 
  48:Source\LwIP\src\core/udp.c **** #include "lwip/opt.h"
  49:Source\LwIP\src\core/udp.c **** 
  50:Source\LwIP\src\core/udp.c **** #if LWIP_UDP /* don't build if not configured for use in lwipopts.h */
  51:Source\LwIP\src\core/udp.c **** 
  52:Source\LwIP\src\core/udp.c **** #include "lwip/udp.h"
  53:Source\LwIP\src\core/udp.c **** #include "lwip/def.h"
  54:Source\LwIP\src\core/udp.c **** #include "lwip/memp.h"
  55:Source\LwIP\src\core/udp.c **** #include "lwip/inet_chksum.h"
  56:Source\LwIP\src\core/udp.c **** #include "lwip/ip_addr.h"
  57:Source\LwIP\src\core/udp.c **** #include "lwip/ip6.h"
  58:Source\LwIP\src\core/udp.c **** #include "lwip/ip6_addr.h"
  59:Source\LwIP\src\core/udp.c **** #include "lwip/netif.h"
  60:Source\LwIP\src\core/udp.c **** #include "lwip/icmp.h"
  61:Source\LwIP\src\core/udp.c **** #include "lwip/icmp6.h"
  62:Source\LwIP\src\core/udp.c **** #include "lwip/stats.h"
  63:Source\LwIP\src\core/udp.c **** #include "lwip/snmp.h"
  64:Source\LwIP\src\core/udp.c **** #include "lwip/dhcp.h"
  65:Source\LwIP\src\core/udp.c **** 
  66:Source\LwIP\src\core/udp.c **** #include <string.h>
  67:Source\LwIP\src\core/udp.c **** 
  68:Source\LwIP\src\core/udp.c **** #ifndef UDP_LOCAL_PORT_RANGE_START
  69:Source\LwIP\src\core/udp.c **** /* From http://www.iana.org/assignments/port-numbers:
  70:Source\LwIP\src\core/udp.c ****    "The Dynamic and/or Private Ports are those from 49152 through 65535" */
  71:Source\LwIP\src\core/udp.c **** #define UDP_LOCAL_PORT_RANGE_START  0xc000
  72:Source\LwIP\src\core/udp.c **** #define UDP_LOCAL_PORT_RANGE_END    0xffff
  73:Source\LwIP\src\core/udp.c **** #define UDP_ENSURE_LOCAL_PORT_RANGE(port) ((u16_t)(((port) & ~UDP_LOCAL_PORT_RANGE_START) + UDP_LOC
  74:Source\LwIP\src\core/udp.c **** #endif
  75:Source\LwIP\src\core/udp.c **** 
  76:Source\LwIP\src\core/udp.c **** /* last local UDP port */
  77:Source\LwIP\src\core/udp.c **** static u16_t udp_port = UDP_LOCAL_PORT_RANGE_START;
  78:Source\LwIP\src\core/udp.c **** 
  79:Source\LwIP\src\core/udp.c **** /* The list of UDP PCBs */
  80:Source\LwIP\src\core/udp.c **** /* exported in udp.h (was static) */
  81:Source\LwIP\src\core/udp.c **** struct udp_pcb *udp_pcbs;
  82:Source\LwIP\src\core/udp.c **** 
  83:Source\LwIP\src\core/udp.c **** /**
  84:Source\LwIP\src\core/udp.c ****  * Initialize this module.
  85:Source\LwIP\src\core/udp.c ****  */
  86:Source\LwIP\src\core/udp.c **** void
  87:Source\LwIP\src\core/udp.c **** udp_init(void)
  88:Source\LwIP\src\core/udp.c **** {
ARM GAS  C:\Users\Phuong\AppData\Local\Temp\cc08x83E.s 			page 3


  89:Source\LwIP\src\core/udp.c **** #if LWIP_RANDOMIZE_INITIAL_LOCAL_PORTS && defined(LWIP_RAND)
  90:Source\LwIP\src\core/udp.c ****   udp_port = UDP_ENSURE_LOCAL_PORT_RANGE(LWIP_RAND());
  91:Source\LwIP\src\core/udp.c **** #endif /* LWIP_RANDOMIZE_INITIAL_LOCAL_PORTS && defined(LWIP_RAND) */
  92:Source\LwIP\src\core/udp.c **** }
  93:Source\LwIP\src\core/udp.c **** 
  94:Source\LwIP\src\core/udp.c **** /**
  95:Source\LwIP\src\core/udp.c ****  * Allocate a new local UDP port.
  96:Source\LwIP\src\core/udp.c ****  *
  97:Source\LwIP\src\core/udp.c ****  * @return a new (free) local UDP port number
  98:Source\LwIP\src\core/udp.c ****  */
  99:Source\LwIP\src\core/udp.c **** static u16_t
 100:Source\LwIP\src\core/udp.c **** udp_new_port(void)
 101:Source\LwIP\src\core/udp.c **** {
  27              		.loc 1 101 0
  28              		.cfi_startproc
  29              		@ args = 0, pretend = 0, frame = 0
  30              		@ frame_needed = 0, uses_anonymous_args = 0
  31              		@ link register save eliminated.
  32              	.LVL0:
 102:Source\LwIP\src\core/udp.c ****   u16_t n = 0;
  33              		.loc 1 102 0
  34 0000 0020     		movs	r0, #0
  35              	.LVL1:
  36              	.L2:
 103:Source\LwIP\src\core/udp.c ****   struct udp_pcb *pcb;
 104:Source\LwIP\src\core/udp.c **** 
 105:Source\LwIP\src\core/udp.c **** again:
 106:Source\LwIP\src\core/udp.c ****   if (udp_port++ == UDP_LOCAL_PORT_RANGE_END) {
  37              		.loc 1 106 0
  38 0002 104A     		ldr	r2, .L9
  39 0004 1388     		ldrh	r3, [r2]
  40 0006 591C     		adds	r1, r3, #1
  41 0008 1180     		strh	r1, [r2]
  42 000a 0F4A     		ldr	r2, .L9+4
  43 000c 9342     		cmp	r3, r2
  44 000e 02D1     		bne	.L3
 107:Source\LwIP\src\core/udp.c ****     udp_port = UDP_LOCAL_PORT_RANGE_START;
  45              		.loc 1 107 0
  46 0010 0E4A     		ldr	r2, .L9+8
  47 0012 0C4B     		ldr	r3, .L9
  48 0014 1A80     		strh	r2, [r3]
  49              	.L3:
 108:Source\LwIP\src\core/udp.c ****   }
 109:Source\LwIP\src\core/udp.c ****   /* Check all PCBs. */
 110:Source\LwIP\src\core/udp.c ****   for (pcb = udp_pcbs; pcb != NULL; pcb = pcb->next) {
  50              		.loc 1 110 0
  51 0016 0E4B     		ldr	r3, .L9+12
  52 0018 1B68     		ldr	r3, [r3]
  53              	.LVL2:
  54 001a 0BE0     		b	.L4
  55              	.L7:
 111:Source\LwIP\src\core/udp.c ****     if (pcb->local_port == udp_port) {
  56              		.loc 1 111 0
  57 001c 598A     		ldrh	r1, [r3, #18]
  58 001e 094A     		ldr	r2, .L9
  59 0020 1288     		ldrh	r2, [r2]
  60 0022 9142     		cmp	r1, r2
ARM GAS  C:\Users\Phuong\AppData\Local\Temp\cc08x83E.s 			page 4


  61 0024 05D1     		bne	.L5
 112:Source\LwIP\src\core/udp.c ****       if (++n > (UDP_LOCAL_PORT_RANGE_END - UDP_LOCAL_PORT_RANGE_START)) {
  62              		.loc 1 112 0
  63 0026 0130     		adds	r0, r0, #1
  64              	.LVL3:
  65 0028 80B2     		uxth	r0, r0
  66              	.LVL4:
  67 002a 0A4B     		ldr	r3, .L9+16
  68              	.LVL5:
  69 002c 9842     		cmp	r0, r3
  70 002e E8D9     		bls	.L2
  71 0030 05E0     		b	.L8
  72              	.LVL6:
  73              	.L5:
 110:Source\LwIP\src\core/udp.c ****     if (pcb->local_port == udp_port) {
  74              		.loc 1 110 0 discriminator 2
  75 0032 DB68     		ldr	r3, [r3, #12]
  76              	.LVL7:
  77              	.L4:
 110:Source\LwIP\src\core/udp.c ****     if (pcb->local_port == udp_port) {
  78              		.loc 1 110 0 is_stmt 0 discriminator 1
  79 0034 002B     		cmp	r3, #0
  80 0036 F1D1     		bne	.L7
 113:Source\LwIP\src\core/udp.c ****         return 0;
 114:Source\LwIP\src\core/udp.c ****       }
 115:Source\LwIP\src\core/udp.c ****       goto again;
 116:Source\LwIP\src\core/udp.c ****     }
 117:Source\LwIP\src\core/udp.c ****   }
 118:Source\LwIP\src\core/udp.c ****   return udp_port;
  81              		.loc 1 118 0 is_stmt 1
  82 0038 024B     		ldr	r3, .L9
  83              	.LVL8:
  84 003a 1888     		ldrh	r0, [r3]
  85              	.LVL9:
  86 003c 00E0     		b	.L6
  87              	.LVL10:
  88              	.L8:
 113:Source\LwIP\src\core/udp.c ****         return 0;
  89              		.loc 1 113 0
  90 003e 0020     		movs	r0, #0
  91              	.LVL11:
  92              	.L6:
 119:Source\LwIP\src\core/udp.c **** }
  93              		.loc 1 119 0
  94              		@ sp needed
  95 0040 7047     		bx	lr
  96              	.L10:
  97 0042 C046     		.align	2
  98              	.L9:
  99 0044 00000000 		.word	.LANCHOR0
 100 0048 FFFF0000 		.word	65535
 101 004c 00C0FFFF 		.word	-16384
 102 0050 00000000 		.word	udp_pcbs
 103 0054 FF3F0000 		.word	16383
 104              		.cfi_endproc
 105              	.LFE54:
 106              		.size	udp_new_port, .-udp_new_port
ARM GAS  C:\Users\Phuong\AppData\Local\Temp\cc08x83E.s 			page 5


 107              		.section	.text.udp_input_local_match,"ax",%progbits
 108              		.align	2
 109              		.code	16
 110              		.thumb_func
 111              		.type	udp_input_local_match, %function
 112              	udp_input_local_match:
 113              	.LFB55:
 120:Source\LwIP\src\core/udp.c **** 
 121:Source\LwIP\src\core/udp.c **** /** Common code to see if the current input packet matches the pcb
 122:Source\LwIP\src\core/udp.c ****  * (current input packet is accessed via ip(4/6)_current_* macros)
 123:Source\LwIP\src\core/udp.c ****  *
 124:Source\LwIP\src\core/udp.c ****  * @param pcb pcb to check
 125:Source\LwIP\src\core/udp.c ****  * @param inp network interface on which the datagram was received (only used for IPv4)
 126:Source\LwIP\src\core/udp.c ****  * @param broadcast 1 if his is an IPv4 broadcast (global or subnet-only), 0 otherwise (only used f
 127:Source\LwIP\src\core/udp.c ****  * @return 1 on match, 0 otherwise
 128:Source\LwIP\src\core/udp.c ****  */
 129:Source\LwIP\src\core/udp.c **** static u8_t
 130:Source\LwIP\src\core/udp.c **** udp_input_local_match(struct udp_pcb *pcb, struct netif *inp, u8_t broadcast)
 131:Source\LwIP\src\core/udp.c **** {
 114              		.loc 1 131 0
 115              		.cfi_startproc
 116              		@ args = 0, pretend = 0, frame = 0
 117              		@ frame_needed = 0, uses_anonymous_args = 0
 118              		@ link register save eliminated.
 119              	.LVL12:
 132:Source\LwIP\src\core/udp.c ****   LWIP_UNUSED_ARG(inp);       /* in IPv6 only case */
 133:Source\LwIP\src\core/udp.c ****   LWIP_UNUSED_ARG(broadcast); /* in IPv6 only case */
 134:Source\LwIP\src\core/udp.c **** 
 135:Source\LwIP\src\core/udp.c ****   /* Dual-stack: PCBs listening to any IP type also listen to any IP address */
 136:Source\LwIP\src\core/udp.c ****   if (IP_IS_ANY_TYPE_VAL(pcb->local_ip)) {
 137:Source\LwIP\src\core/udp.c **** #if LWIP_IPV4 && IP_SOF_BROADCAST_RECV
 138:Source\LwIP\src\core/udp.c ****     if ((broadcast != 0) && !ip_get_option(pcb, SOF_BROADCAST)) {
 139:Source\LwIP\src\core/udp.c ****       return 0;
 140:Source\LwIP\src\core/udp.c ****     }
 141:Source\LwIP\src\core/udp.c **** #endif /* LWIP_IPV4 && IP_SOF_BROADCAST_RECV */
 142:Source\LwIP\src\core/udp.c ****     return 1;
 143:Source\LwIP\src\core/udp.c ****   }
 144:Source\LwIP\src\core/udp.c **** 
 145:Source\LwIP\src\core/udp.c ****   /* Only need to check PCB if incoming IP version matches PCB IP version */
 146:Source\LwIP\src\core/udp.c ****   if (IP_ADDR_PCB_VERSION_MATCH_EXACT(pcb, ip_current_dest_addr())) {
 147:Source\LwIP\src\core/udp.c **** #if LWIP_IPV4
 148:Source\LwIP\src\core/udp.c ****     /* Special case: IPv4 broadcast: all or broadcasts in my subnet
 149:Source\LwIP\src\core/udp.c ****      * Note: broadcast variable can only be 1 if it is an IPv4 broadcast */
 150:Source\LwIP\src\core/udp.c ****     if (broadcast != 0) {
 120              		.loc 1 150 0
 121 0000 002A     		cmp	r2, #0
 122 0002 0ED0     		beq	.L12
 151:Source\LwIP\src\core/udp.c **** #if IP_SOF_BROADCAST_RECV
 152:Source\LwIP\src\core/udp.c ****       if (ip_get_option(pcb, SOF_BROADCAST))
 153:Source\LwIP\src\core/udp.c **** #endif /* IP_SOF_BROADCAST_RECV */
 154:Source\LwIP\src\core/udp.c ****       {
 155:Source\LwIP\src\core/udp.c ****         if (ip4_addr_isany(ip_2_ip4(&pcb->local_ip)) ||
 123              		.loc 1 155 0
 124 0004 0028     		cmp	r0, #0
 125 0006 17D0     		beq	.L14
 126              		.loc 1 155 0 is_stmt 0 discriminator 1
 127 0008 0268     		ldr	r2, [r0]
ARM GAS  C:\Users\Phuong\AppData\Local\Temp\cc08x83E.s 			page 6


 128              	.LVL13:
 129 000a 002A     		cmp	r2, #0
 130 000c 16D0     		beq	.L15
 156:Source\LwIP\src\core/udp.c ****           ((ip4_current_dest_addr()->addr == IPADDR_BROADCAST)) ||
 131              		.loc 1 156 0 is_stmt 1 discriminator 2
 132 000e 114B     		ldr	r3, .L21
 133 0010 5B69     		ldr	r3, [r3, #20]
 155:Source\LwIP\src\core/udp.c ****           ((ip4_current_dest_addr()->addr == IPADDR_BROADCAST)) ||
 134              		.loc 1 155 0 discriminator 2
 135 0012 581C     		adds	r0, r3, #1
 136 0014 14D0     		beq	.L16
 137              	.LVL14:
 157:Source\LwIP\src\core/udp.c ****            ip4_addr_netcmp(ip_2_ip4(&pcb->local_ip), ip4_current_dest_addr(), netif_ip4_netmask(inp
 138              		.loc 1 157 0
 139 0016 8968     		ldr	r1, [r1, #8]
 140              	.LVL15:
 141 0018 5340     		eors	r3, r2
 156:Source\LwIP\src\core/udp.c ****           ((ip4_current_dest_addr()->addr == IPADDR_BROADCAST)) ||
 142              		.loc 1 156 0
 143 001a 1942     		tst	r1, r3
 144 001c 12D0     		beq	.L17
 158:Source\LwIP\src\core/udp.c ****           return 1;
 159:Source\LwIP\src\core/udp.c ****         }
 160:Source\LwIP\src\core/udp.c ****       }
 161:Source\LwIP\src\core/udp.c ****     } else
 162:Source\LwIP\src\core/udp.c **** #endif /* LWIP_IPV4 */
 163:Source\LwIP\src\core/udp.c ****     /* Handle IPv4 and IPv6: all or exact match */
 164:Source\LwIP\src\core/udp.c ****     if (ip_addr_isany(&pcb->local_ip) || ip_addr_cmp(&pcb->local_ip, ip_current_dest_addr())) {
 165:Source\LwIP\src\core/udp.c ****       return 1;
 166:Source\LwIP\src\core/udp.c ****     }
 167:Source\LwIP\src\core/udp.c ****   }
 168:Source\LwIP\src\core/udp.c **** 
 169:Source\LwIP\src\core/udp.c ****   return 0;
 145              		.loc 1 169 0
 146 001e 0020     		movs	r0, #0
 147 0020 17E0     		b	.L13
 148              	.LVL16:
 149              	.L12:
 164:Source\LwIP\src\core/udp.c ****       return 1;
 150              		.loc 1 164 0
 151 0022 0028     		cmp	r0, #0
 152 0024 10D0     		beq	.L18
 164:Source\LwIP\src\core/udp.c ****       return 1;
 153              		.loc 1 164 0 is_stmt 0 discriminator 1
 154 0026 0368     		ldr	r3, [r0]
 155 0028 002B     		cmp	r3, #0
 156 002a 0FD0     		beq	.L19
 164:Source\LwIP\src\core/udp.c ****       return 1;
 157              		.loc 1 164 0 discriminator 2
 158 002c 094A     		ldr	r2, .L21
 159              	.LVL17:
 160 002e 5269     		ldr	r2, [r2, #20]
 161 0030 9342     		cmp	r3, r2
 162 0032 0DD0     		beq	.L20
 163              		.loc 1 169 0 is_stmt 1
 164 0034 0020     		movs	r0, #0
 165              	.LVL18:
ARM GAS  C:\Users\Phuong\AppData\Local\Temp\cc08x83E.s 			page 7


 166 0036 0CE0     		b	.L13
 167              	.LVL19:
 168              	.L14:
 158:Source\LwIP\src\core/udp.c ****           return 1;
 169              		.loc 1 158 0
 170 0038 0120     		movs	r0, #1
 171              	.LVL20:
 172 003a 0AE0     		b	.L13
 173              	.LVL21:
 174              	.L15:
 175 003c 0120     		movs	r0, #1
 176              	.LVL22:
 177 003e 08E0     		b	.L13
 178              	.L16:
 179 0040 0120     		movs	r0, #1
 180 0042 06E0     		b	.L13
 181              	.LVL23:
 182              	.L17:
 183 0044 0120     		movs	r0, #1
 184 0046 04E0     		b	.L13
 185              	.LVL24:
 186              	.L18:
 165:Source\LwIP\src\core/udp.c ****     }
 187              		.loc 1 165 0
 188 0048 0120     		movs	r0, #1
 189              	.LVL25:
 190 004a 02E0     		b	.L13
 191              	.LVL26:
 192              	.L19:
 193 004c 0120     		movs	r0, #1
 194              	.LVL27:
 195 004e 00E0     		b	.L13
 196              	.LVL28:
 197              	.L20:
 198 0050 0120     		movs	r0, #1
 199              	.LVL29:
 200              	.L13:
 170:Source\LwIP\src\core/udp.c **** }
 201              		.loc 1 170 0
 202              		@ sp needed
 203 0052 7047     		bx	lr
 204              	.L22:
 205              		.align	2
 206              	.L21:
 207 0054 00000000 		.word	ip_data
 208              		.cfi_endproc
 209              	.LFE55:
 210              		.size	udp_input_local_match, .-udp_input_local_match
 211              		.section	.text.udp_init,"ax",%progbits
 212              		.align	2
 213              		.global	udp_init
 214              		.code	16
 215              		.thumb_func
 216              		.type	udp_init, %function
 217              	udp_init:
 218              	.LFB53:
  88:Source\LwIP\src\core/udp.c **** #if LWIP_RANDOMIZE_INITIAL_LOCAL_PORTS && defined(LWIP_RAND)
ARM GAS  C:\Users\Phuong\AppData\Local\Temp\cc08x83E.s 			page 8


 219              		.loc 1 88 0
 220              		.cfi_startproc
 221              		@ args = 0, pretend = 0, frame = 0
 222              		@ frame_needed = 0, uses_anonymous_args = 0
 223 0000 10B5     		push	{r4, lr}
 224              		.cfi_def_cfa_offset 8
 225              		.cfi_offset 4, -8
 226              		.cfi_offset 14, -4
  90:Source\LwIP\src\core/udp.c **** #endif /* LWIP_RANDOMIZE_INITIAL_LOCAL_PORTS && defined(LWIP_RAND) */
 227              		.loc 1 90 0
 228 0002 FFF7FEFF 		bl	sys_rand16
 229              	.LVL30:
 230 0006 8004     		lsls	r0, r0, #18
 231 0008 800C     		lsrs	r0, r0, #18
 232 000a 034B     		ldr	r3, .L24
 233 000c 9C46     		mov	ip, r3
 234 000e 6044     		add	r0, r0, ip
 235 0010 024B     		ldr	r3, .L24+4
 236 0012 1880     		strh	r0, [r3]
  92:Source\LwIP\src\core/udp.c **** 
 237              		.loc 1 92 0
 238              		@ sp needed
 239 0014 10BD     		pop	{r4, pc}
 240              	.L25:
 241 0016 C046     		.align	2
 242              	.L24:
 243 0018 00C0FFFF 		.word	-16384
 244 001c 00000000 		.word	.LANCHOR0
 245              		.cfi_endproc
 246              	.LFE53:
 247              		.size	udp_init, .-udp_init
 248              		.section	.text.udp_input,"ax",%progbits
 249              		.align	2
 250              		.global	udp_input
 251              		.code	16
 252              		.thumb_func
 253              		.type	udp_input, %function
 254              	udp_input:
 255              	.LFB56:
 171:Source\LwIP\src\core/udp.c **** 
 172:Source\LwIP\src\core/udp.c **** /**
 173:Source\LwIP\src\core/udp.c ****  * Process an incoming UDP datagram.
 174:Source\LwIP\src\core/udp.c ****  *
 175:Source\LwIP\src\core/udp.c ****  * Given an incoming UDP datagram (as a chain of pbufs) this function
 176:Source\LwIP\src\core/udp.c ****  * finds a corresponding UDP PCB and hands over the pbuf to the pcbs
 177:Source\LwIP\src\core/udp.c ****  * recv function. If no pcb is found or the datagram is incorrect, the
 178:Source\LwIP\src\core/udp.c ****  * pbuf is freed.
 179:Source\LwIP\src\core/udp.c ****  *
 180:Source\LwIP\src\core/udp.c ****  * @param p pbuf to be demultiplexed to a UDP PCB (p->payload pointing to the UDP header)
 181:Source\LwIP\src\core/udp.c ****  * @param inp network interface on which the datagram was received.
 182:Source\LwIP\src\core/udp.c ****  *
 183:Source\LwIP\src\core/udp.c ****  */
 184:Source\LwIP\src\core/udp.c **** void
 185:Source\LwIP\src\core/udp.c **** udp_input(struct pbuf *p, struct netif *inp)
 186:Source\LwIP\src\core/udp.c **** {
 256              		.loc 1 186 0
 257              		.cfi_startproc
ARM GAS  C:\Users\Phuong\AppData\Local\Temp\cc08x83E.s 			page 9


 258              		@ args = 0, pretend = 0, frame = 16
 259              		@ frame_needed = 0, uses_anonymous_args = 0
 260              	.LVL31:
 261 0000 F0B5     		push	{r4, r5, r6, r7, lr}
 262              		.cfi_def_cfa_offset 20
 263              		.cfi_offset 4, -20
 264              		.cfi_offset 5, -16
 265              		.cfi_offset 6, -12
 266              		.cfi_offset 7, -8
 267              		.cfi_offset 14, -4
 268 0002 5F46     		mov	r7, fp
 269 0004 5646     		mov	r6, r10
 270 0006 4D46     		mov	r5, r9
 271 0008 4446     		mov	r4, r8
 272 000a F0B4     		push	{r4, r5, r6, r7}
 273              		.cfi_def_cfa_offset 36
 274              		.cfi_offset 8, -36
 275              		.cfi_offset 9, -32
 276              		.cfi_offset 10, -28
 277              		.cfi_offset 11, -24
 278 000c 87B0     		sub	sp, sp, #28
 279              		.cfi_def_cfa_offset 64
 280 000e 0700     		movs	r7, r0
 281 0010 0391     		str	r1, [sp, #12]
 282              	.LVL32:
 187:Source\LwIP\src\core/udp.c ****   struct udp_hdr *udphdr;
 188:Source\LwIP\src\core/udp.c ****   struct udp_pcb *pcb, *prev;
 189:Source\LwIP\src\core/udp.c ****   struct udp_pcb *uncon_pcb;
 190:Source\LwIP\src\core/udp.c ****   u16_t src, dest;
 191:Source\LwIP\src\core/udp.c ****   u8_t broadcast;
 192:Source\LwIP\src\core/udp.c ****   u8_t for_us = 0;
 193:Source\LwIP\src\core/udp.c **** 
 194:Source\LwIP\src\core/udp.c ****   LWIP_UNUSED_ARG(inp);
 195:Source\LwIP\src\core/udp.c **** 
 196:Source\LwIP\src\core/udp.c ****   PERF_START;
 197:Source\LwIP\src\core/udp.c **** 
 198:Source\LwIP\src\core/udp.c ****   UDP_STATS_INC(udp.recv);
 283              		.loc 1 198 0
 284 0012 7649     		ldr	r1, .L49
 285              	.LVL33:
 286 0014 9622     		movs	r2, #150
 287 0016 8B5A     		ldrh	r3, [r1, r2]
 288 0018 0133     		adds	r3, r3, #1
 289 001a 8B52     		strh	r3, [r1, r2]
 199:Source\LwIP\src\core/udp.c **** 
 200:Source\LwIP\src\core/udp.c ****   /* Check minimum length (UDP header) */
 201:Source\LwIP\src\core/udp.c ****   if (p->len < UDP_HLEN) {
 290              		.loc 1 201 0
 291 001c 4389     		ldrh	r3, [r0, #10]
 292 001e 072B     		cmp	r3, #7
 293 0020 0BD8     		bhi	.L27
 202:Source\LwIP\src\core/udp.c ****     /* drop short packets */
 203:Source\LwIP\src\core/udp.c ****     LWIP_DEBUGF(UDP_DEBUG,
 204:Source\LwIP\src\core/udp.c ****                 ("udp_input: short UDP datagram (%"U16_F" bytes) discarded\n", p->tot_len));
 205:Source\LwIP\src\core/udp.c ****     UDP_STATS_INC(udp.lenerr);
 294              		.loc 1 205 0
 295 0022 0B00     		movs	r3, r1
ARM GAS  C:\Users\Phuong\AppData\Local\Temp\cc08x83E.s 			page 10


 296 0024 9E21     		movs	r1, #158
 297 0026 5A5A     		ldrh	r2, [r3, r1]
 298 0028 0132     		adds	r2, r2, #1
 299 002a 5A52     		strh	r2, [r3, r1]
 206:Source\LwIP\src\core/udp.c ****     UDP_STATS_INC(udp.drop);
 300              		.loc 1 206 0
 301 002c 0439     		subs	r1, r1, #4
 302 002e 5A5A     		ldrh	r2, [r3, r1]
 303 0030 0132     		adds	r2, r2, #1
 304 0032 5A52     		strh	r2, [r3, r1]
 207:Source\LwIP\src\core/udp.c ****     MIB2_STATS_INC(mib2.udpinerrors);
 208:Source\LwIP\src\core/udp.c ****     pbuf_free(p);
 305              		.loc 1 208 0
 306 0034 FFF7FEFF 		bl	pbuf_free
 307              	.LVL34:
 209:Source\LwIP\src\core/udp.c ****     goto end;
 308              		.loc 1 209 0
 309 0038 D0E0     		b	.L26
 310              	.LVL35:
 311              	.L27:
 210:Source\LwIP\src\core/udp.c ****   }
 211:Source\LwIP\src\core/udp.c **** 
 212:Source\LwIP\src\core/udp.c ****   udphdr = (struct udp_hdr *)p->payload;
 312              		.loc 1 212 0
 313 003a 4368     		ldr	r3, [r0, #4]
 314 003c 9946     		mov	r9, r3
 315              	.LVL36:
 213:Source\LwIP\src\core/udp.c **** 
 214:Source\LwIP\src\core/udp.c ****   /* is broadcast packet ? */
 215:Source\LwIP\src\core/udp.c ****   broadcast = ip_addr_isbroadcast(ip_current_dest_addr(), ip_current_netif());
 316              		.loc 1 215 0
 317 003e 6C4B     		ldr	r3, .L49+4
 318              	.LVL37:
 319 0040 5869     		ldr	r0, [r3, #20]
 320              	.LVL38:
 321 0042 1968     		ldr	r1, [r3]
 322 0044 FFF7FEFF 		bl	ip4_addr_isbroadcast_u32
 323              	.LVL39:
 324 0048 0490     		str	r0, [sp, #16]
 325              	.LVL40:
 216:Source\LwIP\src\core/udp.c **** 
 217:Source\LwIP\src\core/udp.c ****   LWIP_DEBUGF(UDP_DEBUG, ("udp_input: received datagram of length %"U16_F"\n", p->tot_len));
 218:Source\LwIP\src\core/udp.c **** 
 219:Source\LwIP\src\core/udp.c ****   /* convert src and dest ports to host byte order */
 220:Source\LwIP\src\core/udp.c ****   src = lwip_ntohs(udphdr->src);
 326              		.loc 1 220 0
 327 004a 4B46     		mov	r3, r9
 328 004c 1B78     		ldrb	r3, [r3]
 329 004e 4A46     		mov	r2, r9
 330 0050 5078     		ldrb	r0, [r2, #1]
 331              	.LVL41:
 332 0052 0002     		lsls	r0, r0, #8
 333 0054 1843     		orrs	r0, r3
 334 0056 FFF7FEFF 		bl	lwip_htons
 335              	.LVL42:
 336 005a 0590     		str	r0, [sp, #20]
 337 005c 8246     		mov	r10, r0
ARM GAS  C:\Users\Phuong\AppData\Local\Temp\cc08x83E.s 			page 11


 338              	.LVL43:
 221:Source\LwIP\src\core/udp.c ****   dest = lwip_ntohs(udphdr->dest);
 339              		.loc 1 221 0
 340 005e 4B46     		mov	r3, r9
 341 0060 9B78     		ldrb	r3, [r3, #2]
 342 0062 4A46     		mov	r2, r9
 343 0064 D078     		ldrb	r0, [r2, #3]
 344 0066 0002     		lsls	r0, r0, #8
 345 0068 1843     		orrs	r0, r3
 346 006a FFF7FEFF 		bl	lwip_htons
 347              	.LVL44:
 348 006e 0500     		movs	r5, r0
 349              	.LVL45:
 222:Source\LwIP\src\core/udp.c **** 
 223:Source\LwIP\src\core/udp.c ****   udp_debug_print(udphdr);
 224:Source\LwIP\src\core/udp.c **** 
 225:Source\LwIP\src\core/udp.c ****   /* print the UDP source and destination */
 226:Source\LwIP\src\core/udp.c ****   LWIP_DEBUGF(UDP_DEBUG, ("udp ("));
 227:Source\LwIP\src\core/udp.c ****   ip_addr_debug_print(UDP_DEBUG, ip_current_dest_addr());
 228:Source\LwIP\src\core/udp.c ****   LWIP_DEBUGF(UDP_DEBUG, (", %"U16_F") <-- (", lwip_ntohs(udphdr->dest)));
 229:Source\LwIP\src\core/udp.c ****   ip_addr_debug_print(UDP_DEBUG, ip_current_src_addr());
 230:Source\LwIP\src\core/udp.c ****   LWIP_DEBUGF(UDP_DEBUG, (", %"U16_F")\n", lwip_ntohs(udphdr->src)));
 231:Source\LwIP\src\core/udp.c **** 
 232:Source\LwIP\src\core/udp.c ****   pcb = NULL;
 233:Source\LwIP\src\core/udp.c ****   prev = NULL;
 234:Source\LwIP\src\core/udp.c ****   uncon_pcb = NULL;
 235:Source\LwIP\src\core/udp.c ****   /* Iterate through the UDP pcb list for a matching pcb.
 236:Source\LwIP\src\core/udp.c ****    * 'Perfect match' pcbs (connected to the remote port & ip address) are
 237:Source\LwIP\src\core/udp.c ****    * preferred. If no perfect match is found, the first unconnected pcb that
 238:Source\LwIP\src\core/udp.c ****    * matches the local port and ip address gets the datagram. */
 239:Source\LwIP\src\core/udp.c ****   for (pcb = udp_pcbs; pcb != NULL; pcb = pcb->next) {
 350              		.loc 1 239 0
 351 0070 604B     		ldr	r3, .L49+8
 352 0072 1B68     		ldr	r3, [r3]
 353 0074 9846     		mov	r8, r3
 354              	.LVL46:
 355 0076 1C00     		movs	r4, r3
 234:Source\LwIP\src\core/udp.c ****   /* Iterate through the UDP pcb list for a matching pcb.
 356              		.loc 1 234 0
 357 0078 0023     		movs	r3, #0
 358              	.LVL47:
 359 007a 9B46     		mov	fp, r3
 233:Source\LwIP\src\core/udp.c ****   uncon_pcb = NULL;
 360              		.loc 1 233 0
 361 007c 0026     		movs	r6, #0
 362 007e 3B00     		movs	r3, r7
 363 0080 5746     		mov	r7, r10
 364              	.LVL48:
 365 0082 9A46     		mov	r10, r3
 366              		.loc 1 239 0
 367 0084 34E0     		b	.L29
 368              	.LVL49:
 369              	.L35:
 240:Source\LwIP\src\core/udp.c ****     /* print the PCB local and remote address */
 241:Source\LwIP\src\core/udp.c ****     LWIP_DEBUGF(UDP_DEBUG, ("pcb ("));
 242:Source\LwIP\src\core/udp.c ****     ip_addr_debug_print(UDP_DEBUG, &pcb->local_ip);
 243:Source\LwIP\src\core/udp.c ****     LWIP_DEBUGF(UDP_DEBUG, (", %"U16_F") <-- (", pcb->local_port));
ARM GAS  C:\Users\Phuong\AppData\Local\Temp\cc08x83E.s 			page 12


 244:Source\LwIP\src\core/udp.c ****     ip_addr_debug_print(UDP_DEBUG, &pcb->remote_ip);
 245:Source\LwIP\src\core/udp.c ****     LWIP_DEBUGF(UDP_DEBUG, (", %"U16_F")\n", pcb->remote_port));
 246:Source\LwIP\src\core/udp.c **** 
 247:Source\LwIP\src\core/udp.c ****     /* compare PCB local addr+port to UDP destination addr+port */
 248:Source\LwIP\src\core/udp.c ****     if ((pcb->local_port == dest) &&
 370              		.loc 1 248 0
 371 0086 638A     		ldrh	r3, [r4, #18]
 372 0088 9D42     		cmp	r5, r3
 373 008a 2FD1     		bne	.L30
 249:Source\LwIP\src\core/udp.c ****         (udp_input_local_match(pcb, inp, broadcast) != 0)) {
 374              		.loc 1 249 0 discriminator 1
 375 008c 049A     		ldr	r2, [sp, #16]
 376 008e 0399     		ldr	r1, [sp, #12]
 377 0090 2000     		movs	r0, r4
 378 0092 FFF7FEFF 		bl	udp_input_local_match
 379              	.LVL50:
 248:Source\LwIP\src\core/udp.c ****         (udp_input_local_match(pcb, inp, broadcast) != 0)) {
 380              		.loc 1 248 0 discriminator 1
 381 0096 0028     		cmp	r0, #0
 382 0098 28D0     		beq	.L30
 250:Source\LwIP\src\core/udp.c ****       if (((pcb->flags & UDP_FLAGS_CONNECTED) == 0) &&
 383              		.loc 1 250 0
 384 009a 237C     		ldrb	r3, [r4, #16]
 385 009c 5B07     		lsls	r3, r3, #29
 386 009e 0BD4     		bmi	.L31
 387              		.loc 1 250 0 is_stmt 0 discriminator 1
 388 00a0 5B46     		mov	r3, fp
 389 00a2 002B     		cmp	r3, #0
 390 00a4 05D0     		beq	.L45
 391              	.LVL51:
 251:Source\LwIP\src\core/udp.c ****           ((uncon_pcb == NULL)
 252:Source\LwIP\src\core/udp.c **** #if SO_REUSE
 253:Source\LwIP\src\core/udp.c ****           /* prefer specific IPs over cath-all */
 254:Source\LwIP\src\core/udp.c ****           || !ip_addr_isany(&pcb->local_ip)
 392              		.loc 1 254 0 is_stmt 1
 393 00a6 002C     		cmp	r4, #0
 394 00a8 06D0     		beq	.L31
 395              		.loc 1 254 0 is_stmt 0 discriminator 1
 396 00aa 2368     		ldr	r3, [r4]
 397              	.LVL52:
 398 00ac 002B     		cmp	r3, #0
 399 00ae 02D1     		bne	.L46
 400 00b0 02E0     		b	.L31
 401              	.LVL53:
 402              	.L45:
 255:Source\LwIP\src\core/udp.c **** #endif /* SO_REUSE */
 256:Source\LwIP\src\core/udp.c ****           )) {
 257:Source\LwIP\src\core/udp.c ****         /* the first unconnected matching PCB */
 258:Source\LwIP\src\core/udp.c ****         uncon_pcb = pcb;
 403              		.loc 1 258 0 is_stmt 1
 404 00b2 A346     		mov	fp, r4
 405 00b4 00E0     		b	.L31
 406              	.LVL54:
 407              	.L46:
 408 00b6 A346     		mov	fp, r4
 409              	.LVL55:
 410              	.L31:
ARM GAS  C:\Users\Phuong\AppData\Local\Temp\cc08x83E.s 			page 13


 259:Source\LwIP\src\core/udp.c ****       }
 260:Source\LwIP\src\core/udp.c **** 
 261:Source\LwIP\src\core/udp.c ****       /* compare PCB remote addr+port to UDP source addr+port */
 262:Source\LwIP\src\core/udp.c ****       if ((pcb->remote_port == src) &&
 411              		.loc 1 262 0
 412 00b8 A38A     		ldrh	r3, [r4, #20]
 413 00ba 9F42     		cmp	r7, r3
 414 00bc 16D1     		bne	.L30
 263:Source\LwIP\src\core/udp.c ****           (ip_addr_isany_val(pcb->remote_ip) ||
 415              		.loc 1 263 0 discriminator 1
 416 00be 6368     		ldr	r3, [r4, #4]
 262:Source\LwIP\src\core/udp.c ****           (ip_addr_isany_val(pcb->remote_ip) ||
 417              		.loc 1 262 0 discriminator 1
 418 00c0 002B     		cmp	r3, #0
 419 00c2 03D0     		beq	.L32
 264:Source\LwIP\src\core/udp.c ****           ip_addr_cmp(&pcb->remote_ip, ip_current_src_addr()))) {
 420              		.loc 1 264 0
 421 00c4 4A4A     		ldr	r2, .L49+4
 422 00c6 1269     		ldr	r2, [r2, #16]
 263:Source\LwIP\src\core/udp.c ****           (ip_addr_isany_val(pcb->remote_ip) ||
 423              		.loc 1 263 0
 424 00c8 9342     		cmp	r3, r2
 425 00ca 0FD1     		bne	.L30
 426              	.L32:
 427 00cc 5746     		mov	r7, r10
 265:Source\LwIP\src\core/udp.c ****         /* the first fully matching PCB */
 266:Source\LwIP\src\core/udp.c ****         if (prev != NULL) {
 428              		.loc 1 266 0
 429 00ce 002E     		cmp	r6, #0
 430 00d0 06D0     		beq	.L33
 431              	.LVL56:
 267:Source\LwIP\src\core/udp.c ****           /* move the pcb to the front of udp_pcbs so that is
 268:Source\LwIP\src\core/udp.c ****              found faster next time */
 269:Source\LwIP\src\core/udp.c ****           prev->next = pcb->next;
 432              		.loc 1 269 0
 433 00d2 E368     		ldr	r3, [r4, #12]
 434 00d4 F360     		str	r3, [r6, #12]
 270:Source\LwIP\src\core/udp.c ****           pcb->next = udp_pcbs;
 435              		.loc 1 270 0
 436 00d6 4346     		mov	r3, r8
 437 00d8 E360     		str	r3, [r4, #12]
 271:Source\LwIP\src\core/udp.c ****           udp_pcbs = pcb;
 438              		.loc 1 271 0
 439 00da 464B     		ldr	r3, .L49+8
 440 00dc 1C60     		str	r4, [r3]
 441 00de 0AE0     		b	.L34
 442              	.L33:
 272:Source\LwIP\src\core/udp.c ****         } else {
 273:Source\LwIP\src\core/udp.c ****           UDP_STATS_INC(udp.cachehit);
 443              		.loc 1 273 0
 444 00e0 4249     		ldr	r1, .L49
 445 00e2 AA22     		movs	r2, #170
 446 00e4 8B5A     		ldrh	r3, [r1, r2]
 447 00e6 0133     		adds	r3, r3, #1
 448 00e8 8B52     		strh	r3, [r1, r2]
 449 00ea 04E0     		b	.L34
 450              	.LVL57:
ARM GAS  C:\Users\Phuong\AppData\Local\Temp\cc08x83E.s 			page 14


 451              	.L30:
 274:Source\LwIP\src\core/udp.c ****         }
 275:Source\LwIP\src\core/udp.c ****         break;
 276:Source\LwIP\src\core/udp.c ****       }
 277:Source\LwIP\src\core/udp.c ****     }
 278:Source\LwIP\src\core/udp.c **** 
 279:Source\LwIP\src\core/udp.c ****     prev = pcb;
 452              		.loc 1 279 0 discriminator 2
 453 00ec 2600     		movs	r6, r4
 239:Source\LwIP\src\core/udp.c ****     /* print the PCB local and remote address */
 454              		.loc 1 239 0 discriminator 2
 455 00ee E468     		ldr	r4, [r4, #12]
 456              	.LVL58:
 457              	.L29:
 239:Source\LwIP\src\core/udp.c ****     /* print the PCB local and remote address */
 458              		.loc 1 239 0 is_stmt 0 discriminator 1
 459 00f0 002C     		cmp	r4, #0
 460 00f2 C8D1     		bne	.L35
 461 00f4 5746     		mov	r7, r10
 462              	.LVL59:
 463              	.L34:
 280:Source\LwIP\src\core/udp.c ****   }
 281:Source\LwIP\src\core/udp.c ****   /* no fully matching pcb found? then look for an unconnected pcb */
 282:Source\LwIP\src\core/udp.c ****   if (pcb == NULL) {
 464              		.loc 1 282 0 is_stmt 1
 465 00f6 002C     		cmp	r4, #0
 466 00f8 00D1     		bne	.L36
 283:Source\LwIP\src\core/udp.c ****     pcb = uncon_pcb;
 467              		.loc 1 283 0
 468 00fa 5C46     		mov	r4, fp
 469              	.LVL60:
 470              	.L36:
 284:Source\LwIP\src\core/udp.c ****   }
 285:Source\LwIP\src\core/udp.c **** 
 286:Source\LwIP\src\core/udp.c ****   /* Check checksum if this is a match or if it was directed at us. */
 287:Source\LwIP\src\core/udp.c ****   if (pcb != NULL) {
 471              		.loc 1 287 0
 472 00fc 002C     		cmp	r4, #0
 473 00fe 08D1     		bne	.L48
 288:Source\LwIP\src\core/udp.c ****     for_us = 1;
 289:Source\LwIP\src\core/udp.c ****   } else {
 290:Source\LwIP\src\core/udp.c **** #if LWIP_IPV6
 291:Source\LwIP\src\core/udp.c ****     if (ip_current_is_v6()) {
 292:Source\LwIP\src\core/udp.c ****       for_us = netif_get_ip6_addr_match(inp, ip6_current_dest_addr()) >= 0;
 293:Source\LwIP\src\core/udp.c ****     }
 294:Source\LwIP\src\core/udp.c **** #endif /* LWIP_IPV6 */
 295:Source\LwIP\src\core/udp.c **** #if LWIP_IPV4
 296:Source\LwIP\src\core/udp.c ****     if (!ip_current_is_v6()) {
 297:Source\LwIP\src\core/udp.c ****       for_us = ip4_addr_cmp(netif_ip4_addr(inp), ip4_current_dest_addr());
 474              		.loc 1 297 0
 475 0100 039B     		ldr	r3, [sp, #12]
 476 0102 5B68     		ldr	r3, [r3, #4]
 477 0104 3A4A     		ldr	r2, .L49+4
 478 0106 5269     		ldr	r2, [r2, #20]
 479 0108 9B1A     		subs	r3, r3, r2
 480 010a 5942     		rsbs	r1, r3, #0
 481 010c 5941     		adcs	r1, r1, r3
ARM GAS  C:\Users\Phuong\AppData\Local\Temp\cc08x83E.s 			page 15


 482 010e CBB2     		uxtb	r3, r1
 483              	.LVL61:
 484 0110 00E0     		b	.L37
 485              	.LVL62:
 486              	.L48:
 288:Source\LwIP\src\core/udp.c ****     for_us = 1;
 487              		.loc 1 288 0
 488 0112 0123     		movs	r3, #1
 489              	.LVL63:
 490              	.L37:
 298:Source\LwIP\src\core/udp.c ****     }
 299:Source\LwIP\src\core/udp.c **** #endif /* LWIP_IPV4 */
 300:Source\LwIP\src\core/udp.c ****   }
 301:Source\LwIP\src\core/udp.c **** 
 302:Source\LwIP\src\core/udp.c ****   if (for_us) {
 491              		.loc 1 302 0
 492 0114 002B     		cmp	r3, #0
 493 0116 51D0     		beq	.L38
 303:Source\LwIP\src\core/udp.c ****     LWIP_DEBUGF(UDP_DEBUG | LWIP_DBG_TRACE, ("udp_input: calculating checksum\n"));
 304:Source\LwIP\src\core/udp.c **** #if CHECKSUM_CHECK_UDP
 305:Source\LwIP\src\core/udp.c ****     IF__NETIF_CHECKSUM_ENABLED(inp, CHECKSUM_CHECK_UDP) {
 306:Source\LwIP\src\core/udp.c **** #if LWIP_UDPLITE
 307:Source\LwIP\src\core/udp.c ****       if (ip_current_header_proto() == IP_PROTO_UDPLITE) {
 308:Source\LwIP\src\core/udp.c ****         /* Do the UDP Lite checksum */
 309:Source\LwIP\src\core/udp.c ****         u16_t chklen = lwip_ntohs(udphdr->len);
 310:Source\LwIP\src\core/udp.c ****         if (chklen < sizeof(struct udp_hdr)) {
 311:Source\LwIP\src\core/udp.c ****           if (chklen == 0) {
 312:Source\LwIP\src\core/udp.c ****             /* For UDP-Lite, checksum length of 0 means checksum
 313:Source\LwIP\src\core/udp.c ****                over the complete packet (See RFC 3828 chap. 3.1) */
 314:Source\LwIP\src\core/udp.c ****             chklen = p->tot_len;
 315:Source\LwIP\src\core/udp.c ****           } else {
 316:Source\LwIP\src\core/udp.c ****             /* At least the UDP-Lite header must be covered by the
 317:Source\LwIP\src\core/udp.c ****                checksum! (Again, see RFC 3828 chap. 3.1) */
 318:Source\LwIP\src\core/udp.c ****             goto chkerr;
 319:Source\LwIP\src\core/udp.c ****           }
 320:Source\LwIP\src\core/udp.c ****         }
 321:Source\LwIP\src\core/udp.c ****         if (ip_chksum_pseudo_partial(p, IP_PROTO_UDPLITE,
 322:Source\LwIP\src\core/udp.c ****                      p->tot_len, chklen,
 323:Source\LwIP\src\core/udp.c ****                      ip_current_src_addr(), ip_current_dest_addr()) != 0) {
 324:Source\LwIP\src\core/udp.c ****           goto chkerr;
 325:Source\LwIP\src\core/udp.c ****         }
 326:Source\LwIP\src\core/udp.c ****       } else
 327:Source\LwIP\src\core/udp.c **** #endif /* LWIP_UDPLITE */
 328:Source\LwIP\src\core/udp.c ****       {
 329:Source\LwIP\src\core/udp.c ****         if (udphdr->chksum != 0) {
 494              		.loc 1 329 0
 495 0118 4B46     		mov	r3, r9
 496              	.LVL64:
 497 011a 9A79     		ldrb	r2, [r3, #6]
 498 011c DB79     		ldrb	r3, [r3, #7]
 499 011e 1B02     		lsls	r3, r3, #8
 500 0120 1343     		orrs	r3, r2
 501 0122 09D0     		beq	.L39
 330:Source\LwIP\src\core/udp.c ****           if (ip_chksum_pseudo(p, IP_PROTO_UDP, p->tot_len,
 502              		.loc 1 330 0
 503 0124 344B     		ldr	r3, .L49+12
 504 0126 3A89     		ldrh	r2, [r7, #8]
ARM GAS  C:\Users\Phuong\AppData\Local\Temp\cc08x83E.s 			page 16


 505 0128 191D     		adds	r1, r3, #4
 506 012a 0091     		str	r1, [sp]
 507 012c 1121     		movs	r1, #17
 508 012e 3800     		movs	r0, r7
 509 0130 FFF7FEFF 		bl	ip_chksum_pseudo
 510              	.LVL65:
 511 0134 0028     		cmp	r0, #0
 512 0136 45D1     		bne	.L40
 513              	.L39:
 331:Source\LwIP\src\core/udp.c ****                                ip_current_src_addr(),
 332:Source\LwIP\src\core/udp.c ****                                ip_current_dest_addr()) != 0) {
 333:Source\LwIP\src\core/udp.c ****             goto chkerr;
 334:Source\LwIP\src\core/udp.c ****           }
 335:Source\LwIP\src\core/udp.c ****         }
 336:Source\LwIP\src\core/udp.c ****       }
 337:Source\LwIP\src\core/udp.c ****     }
 338:Source\LwIP\src\core/udp.c **** #endif /* CHECKSUM_CHECK_UDP */
 339:Source\LwIP\src\core/udp.c ****     if (pbuf_header(p, -UDP_HLEN)) {
 514              		.loc 1 339 0
 515 0138 0821     		movs	r1, #8
 516 013a 4942     		rsbs	r1, r1, #0
 517 013c 3800     		movs	r0, r7
 518 013e FFF7FEFF 		bl	pbuf_header
 519              	.LVL66:
 520 0142 0028     		cmp	r0, #0
 521 0144 08D0     		beq	.L41
 340:Source\LwIP\src\core/udp.c ****       /* Can we cope with this failing? Just assert for now */
 341:Source\LwIP\src\core/udp.c ****       LWIP_ASSERT("pbuf_header failed\n", 0);
 342:Source\LwIP\src\core/udp.c ****       UDP_STATS_INC(udp.drop);
 522              		.loc 1 342 0
 523 0146 2949     		ldr	r1, .L49
 524 0148 9A22     		movs	r2, #154
 525 014a 8B5A     		ldrh	r3, [r1, r2]
 526 014c 0133     		adds	r3, r3, #1
 527 014e 8B52     		strh	r3, [r1, r2]
 343:Source\LwIP\src\core/udp.c ****       MIB2_STATS_INC(mib2.udpinerrors);
 344:Source\LwIP\src\core/udp.c ****       pbuf_free(p);
 528              		.loc 1 344 0
 529 0150 3800     		movs	r0, r7
 530 0152 FFF7FEFF 		bl	pbuf_free
 531              	.LVL67:
 345:Source\LwIP\src\core/udp.c ****       goto end;
 532              		.loc 1 345 0
 533 0156 41E0     		b	.L26
 534              	.L41:
 346:Source\LwIP\src\core/udp.c ****     }
 347:Source\LwIP\src\core/udp.c **** 
 348:Source\LwIP\src\core/udp.c ****     if (pcb != NULL) {
 535              		.loc 1 348 0
 536 0158 002C     		cmp	r4, #0
 537 015a 0ED0     		beq	.L42
 349:Source\LwIP\src\core/udp.c ****       MIB2_STATS_INC(mib2.udpindatagrams);
 350:Source\LwIP\src\core/udp.c **** #if SO_REUSE && SO_REUSE_RXTOALL
 351:Source\LwIP\src\core/udp.c ****       if (ip_get_option(pcb, SOF_REUSEADDR) &&
 352:Source\LwIP\src\core/udp.c ****           (broadcast || ip_addr_ismulticast(ip_current_dest_addr()))) {
 353:Source\LwIP\src\core/udp.c ****         /* pass broadcast- or multicast packets to all multicast pcbs
 354:Source\LwIP\src\core/udp.c ****            if SOF_REUSEADDR is set on the first match */
ARM GAS  C:\Users\Phuong\AppData\Local\Temp\cc08x83E.s 			page 17


 355:Source\LwIP\src\core/udp.c ****         struct udp_pcb *mpcb;
 356:Source\LwIP\src\core/udp.c ****         u8_t p_header_changed = 0;
 357:Source\LwIP\src\core/udp.c ****         s16_t hdrs_len = (s16_t)(ip_current_header_tot_len() + UDP_HLEN);
 358:Source\LwIP\src\core/udp.c ****         for (mpcb = udp_pcbs; mpcb != NULL; mpcb = mpcb->next) {
 359:Source\LwIP\src\core/udp.c ****           if (mpcb != pcb) {
 360:Source\LwIP\src\core/udp.c ****             /* compare PCB local addr+port to UDP destination addr+port */
 361:Source\LwIP\src\core/udp.c ****             if ((mpcb->local_port == dest) &&
 362:Source\LwIP\src\core/udp.c ****                 (udp_input_local_match(mpcb, inp, broadcast) != 0)) {
 363:Source\LwIP\src\core/udp.c ****               /* pass a copy of the packet to all local matches */
 364:Source\LwIP\src\core/udp.c ****               if (mpcb->recv != NULL) {
 365:Source\LwIP\src\core/udp.c ****                 struct pbuf *q;
 366:Source\LwIP\src\core/udp.c ****                 /* for that, move payload to IP header again */
 367:Source\LwIP\src\core/udp.c ****                 if (p_header_changed == 0) {
 368:Source\LwIP\src\core/udp.c ****                   pbuf_header_force(p, hdrs_len);
 369:Source\LwIP\src\core/udp.c ****                   p_header_changed = 1;
 370:Source\LwIP\src\core/udp.c ****                 }
 371:Source\LwIP\src\core/udp.c ****                 q = pbuf_alloc(PBUF_RAW, p->tot_len, PBUF_RAM);
 372:Source\LwIP\src\core/udp.c ****                 if (q != NULL) {
 373:Source\LwIP\src\core/udp.c ****                   err_t err = pbuf_copy(q, p);
 374:Source\LwIP\src\core/udp.c ****                   if (err == ERR_OK) {
 375:Source\LwIP\src\core/udp.c ****                     /* move payload to UDP data */
 376:Source\LwIP\src\core/udp.c ****                     pbuf_header(q, -hdrs_len);
 377:Source\LwIP\src\core/udp.c ****                     mpcb->recv(mpcb->recv_arg, mpcb, q, ip_current_src_addr(), src);
 378:Source\LwIP\src\core/udp.c ****                   }
 379:Source\LwIP\src\core/udp.c ****                 }
 380:Source\LwIP\src\core/udp.c ****               }
 381:Source\LwIP\src\core/udp.c ****             }
 382:Source\LwIP\src\core/udp.c ****           }
 383:Source\LwIP\src\core/udp.c ****         }
 384:Source\LwIP\src\core/udp.c ****         if (p_header_changed) {
 385:Source\LwIP\src\core/udp.c ****           /* and move payload to UDP data again */
 386:Source\LwIP\src\core/udp.c ****           pbuf_header(p, -hdrs_len);
 387:Source\LwIP\src\core/udp.c ****         }
 388:Source\LwIP\src\core/udp.c ****       }
 389:Source\LwIP\src\core/udp.c **** #endif /* SO_REUSE && SO_REUSE_RXTOALL */
 390:Source\LwIP\src\core/udp.c ****       /* callback */
 391:Source\LwIP\src\core/udp.c ****       if (pcb->recv != NULL) {
 538              		.loc 1 391 0
 539 015c 256A     		ldr	r5, [r4, #32]
 540              	.LVL68:
 541 015e 002D     		cmp	r5, #0
 542 0160 07D0     		beq	.L43
 392:Source\LwIP\src\core/udp.c ****         /* now the recv function is responsible for freeing p */
 393:Source\LwIP\src\core/udp.c ****         pcb->recv(pcb->recv_arg, pcb, p, ip_current_src_addr(), src);
 543              		.loc 1 393 0
 544 0162 606A     		ldr	r0, [r4, #36]
 545 0164 059B     		ldr	r3, [sp, #20]
 546 0166 0093     		str	r3, [sp]
 547 0168 234B     		ldr	r3, .L49+12
 548 016a 3A00     		movs	r2, r7
 549 016c 2100     		movs	r1, r4
 550 016e A847     		blx	r5
 551              	.LVL69:
 552 0170 34E0     		b	.L26
 553              	.L43:
 394:Source\LwIP\src\core/udp.c ****       } else {
 395:Source\LwIP\src\core/udp.c ****         /* no recv function registered? then we have to free the pbuf! */
ARM GAS  C:\Users\Phuong\AppData\Local\Temp\cc08x83E.s 			page 18


 396:Source\LwIP\src\core/udp.c ****         pbuf_free(p);
 554              		.loc 1 396 0
 555 0172 3800     		movs	r0, r7
 556 0174 FFF7FEFF 		bl	pbuf_free
 557              	.LVL70:
 397:Source\LwIP\src\core/udp.c ****         goto end;
 558              		.loc 1 397 0
 559 0178 30E0     		b	.L26
 560              	.LVL71:
 561              	.L42:
 398:Source\LwIP\src\core/udp.c ****       }
 399:Source\LwIP\src\core/udp.c ****     } else {
 400:Source\LwIP\src\core/udp.c ****       LWIP_DEBUGF(UDP_DEBUG | LWIP_DBG_TRACE, ("udp_input: not for us.\n"));
 401:Source\LwIP\src\core/udp.c **** 
 402:Source\LwIP\src\core/udp.c **** #if LWIP_ICMP || LWIP_ICMP6
 403:Source\LwIP\src\core/udp.c ****       /* No match was found, send ICMP destination port unreachable unless
 404:Source\LwIP\src\core/udp.c ****          destination address was broadcast/multicast. */
 405:Source\LwIP\src\core/udp.c ****       if (!broadcast && !ip_addr_ismulticast(ip_current_dest_addr())) {
 562              		.loc 1 405 0
 563 017a 049B     		ldr	r3, [sp, #16]
 564 017c 002B     		cmp	r3, #0
 565 017e 10D1     		bne	.L44
 566              		.loc 1 405 0 is_stmt 0 discriminator 1
 567 0180 1B4B     		ldr	r3, .L49+4
 568 0182 5B69     		ldr	r3, [r3, #20]
 569 0184 F022     		movs	r2, #240
 570 0186 1340     		ands	r3, r2
 571 0188 E02B     		cmp	r3, #224
 572 018a 0AD0     		beq	.L44
 406:Source\LwIP\src\core/udp.c ****         /* move payload pointer back to ip header */
 407:Source\LwIP\src\core/udp.c ****         pbuf_header_force(p, (s16_t)(ip_current_header_tot_len() + UDP_HLEN));
 573              		.loc 1 407 0 is_stmt 1
 574 018c 184B     		ldr	r3, .L49+4
 575 018e 9989     		ldrh	r1, [r3, #12]
 576 0190 0831     		adds	r1, r1, #8
 577 0192 09B2     		sxth	r1, r1
 578 0194 3800     		movs	r0, r7
 579 0196 FFF7FEFF 		bl	pbuf_header_force
 580              	.LVL72:
 408:Source\LwIP\src\core/udp.c ****         icmp_port_unreach(ip_current_is_v6(), p);
 581              		.loc 1 408 0
 582 019a 0321     		movs	r1, #3
 583 019c 3800     		movs	r0, r7
 584 019e FFF7FEFF 		bl	icmp_dest_unreach
 585              	.LVL73:
 586              	.L44:
 409:Source\LwIP\src\core/udp.c ****       }
 410:Source\LwIP\src\core/udp.c **** #endif /* LWIP_ICMP || LWIP_ICMP6 */
 411:Source\LwIP\src\core/udp.c ****       UDP_STATS_INC(udp.proterr);
 587              		.loc 1 411 0
 588 01a2 124B     		ldr	r3, .L49
 589 01a4 A421     		movs	r1, #164
 590 01a6 5A5A     		ldrh	r2, [r3, r1]
 591 01a8 0132     		adds	r2, r2, #1
 592 01aa 5A52     		strh	r2, [r3, r1]
 412:Source\LwIP\src\core/udp.c ****       UDP_STATS_INC(udp.drop);
 593              		.loc 1 412 0
ARM GAS  C:\Users\Phuong\AppData\Local\Temp\cc08x83E.s 			page 19


 594 01ac 0A39     		subs	r1, r1, #10
 595 01ae 5A5A     		ldrh	r2, [r3, r1]
 596 01b0 0132     		adds	r2, r2, #1
 597 01b2 5A52     		strh	r2, [r3, r1]
 413:Source\LwIP\src\core/udp.c ****       MIB2_STATS_INC(mib2.udpnoports);
 414:Source\LwIP\src\core/udp.c ****       pbuf_free(p);
 598              		.loc 1 414 0
 599 01b4 3800     		movs	r0, r7
 600 01b6 FFF7FEFF 		bl	pbuf_free
 601              	.LVL74:
 602 01ba 0FE0     		b	.L26
 603              	.LVL75:
 604              	.L38:
 415:Source\LwIP\src\core/udp.c ****     }
 416:Source\LwIP\src\core/udp.c ****   } else {
 417:Source\LwIP\src\core/udp.c ****     pbuf_free(p);
 605              		.loc 1 417 0
 606 01bc 3800     		movs	r0, r7
 607 01be FFF7FEFF 		bl	pbuf_free
 608              	.LVL76:
 609 01c2 0BE0     		b	.L26
 610              	.L40:
 418:Source\LwIP\src\core/udp.c ****   }
 419:Source\LwIP\src\core/udp.c **** end:
 420:Source\LwIP\src\core/udp.c ****   PERF_STOP("udp_input");
 421:Source\LwIP\src\core/udp.c ****   return;
 422:Source\LwIP\src\core/udp.c **** #if CHECKSUM_CHECK_UDP
 423:Source\LwIP\src\core/udp.c **** chkerr:
 424:Source\LwIP\src\core/udp.c ****   LWIP_DEBUGF(UDP_DEBUG | LWIP_DBG_LEVEL_SERIOUS,
 425:Source\LwIP\src\core/udp.c ****               ("udp_input: UDP (or UDP Lite) datagram discarded due to failing checksum\n"));
 426:Source\LwIP\src\core/udp.c ****   UDP_STATS_INC(udp.chkerr);
 611              		.loc 1 426 0
 612 01c4 094B     		ldr	r3, .L49
 613 01c6 9C21     		movs	r1, #156
 614 01c8 5A5A     		ldrh	r2, [r3, r1]
 615 01ca 0132     		adds	r2, r2, #1
 616 01cc 5A52     		strh	r2, [r3, r1]
 427:Source\LwIP\src\core/udp.c ****   UDP_STATS_INC(udp.drop);
 617              		.loc 1 427 0
 618 01ce 0239     		subs	r1, r1, #2
 619 01d0 5A5A     		ldrh	r2, [r3, r1]
 620 01d2 0132     		adds	r2, r2, #1
 621 01d4 5A52     		strh	r2, [r3, r1]
 428:Source\LwIP\src\core/udp.c ****   MIB2_STATS_INC(mib2.udpinerrors);
 429:Source\LwIP\src\core/udp.c ****   pbuf_free(p);
 622              		.loc 1 429 0
 623 01d6 3800     		movs	r0, r7
 624 01d8 FFF7FEFF 		bl	pbuf_free
 625              	.LVL77:
 626              	.L28:
 627              	.L26:
 430:Source\LwIP\src\core/udp.c ****   PERF_STOP("udp_input");
 431:Source\LwIP\src\core/udp.c **** #endif /* CHECKSUM_CHECK_UDP */
 432:Source\LwIP\src\core/udp.c **** }
 628              		.loc 1 432 0
 629 01dc 07B0     		add	sp, sp, #28
 630              		@ sp needed
ARM GAS  C:\Users\Phuong\AppData\Local\Temp\cc08x83E.s 			page 20


 631              	.LVL78:
 632 01de 3CBC     		pop	{r2, r3, r4, r5}
 633 01e0 9046     		mov	r8, r2
 634 01e2 9946     		mov	r9, r3
 635 01e4 A246     		mov	r10, r4
 636 01e6 AB46     		mov	fp, r5
 637 01e8 F0BD     		pop	{r4, r5, r6, r7, pc}
 638              	.L50:
 639 01ea C046     		.align	2
 640              	.L49:
 641 01ec 00000000 		.word	lwip_stats
 642 01f0 00000000 		.word	ip_data
 643 01f4 00000000 		.word	udp_pcbs
 644 01f8 10000000 		.word	ip_data+16
 645              		.cfi_endproc
 646              	.LFE56:
 647              		.size	udp_input, .-udp_input
 648              		.section	.text.udp_bind,"ax",%progbits
 649              		.align	2
 650              		.global	udp_bind
 651              		.code	16
 652              		.thumb_func
 653              		.type	udp_bind, %function
 654              	udp_bind:
 655              	.LFB61:
 433:Source\LwIP\src\core/udp.c **** 
 434:Source\LwIP\src\core/udp.c **** /**
 435:Source\LwIP\src\core/udp.c ****  * @ingroup udp_raw
 436:Source\LwIP\src\core/udp.c ****  * Send data using UDP.
 437:Source\LwIP\src\core/udp.c ****  *
 438:Source\LwIP\src\core/udp.c ****  * @param pcb UDP PCB used to send the data.
 439:Source\LwIP\src\core/udp.c ****  * @param p chain of pbuf's to be sent.
 440:Source\LwIP\src\core/udp.c ****  *
 441:Source\LwIP\src\core/udp.c ****  * The datagram will be sent to the current remote_ip & remote_port
 442:Source\LwIP\src\core/udp.c ****  * stored in pcb. If the pcb is not bound to a port, it will
 443:Source\LwIP\src\core/udp.c ****  * automatically be bound to a random port.
 444:Source\LwIP\src\core/udp.c ****  *
 445:Source\LwIP\src\core/udp.c ****  * @return lwIP error code.
 446:Source\LwIP\src\core/udp.c ****  * - ERR_OK. Successful. No error occurred.
 447:Source\LwIP\src\core/udp.c ****  * - ERR_MEM. Out of memory.
 448:Source\LwIP\src\core/udp.c ****  * - ERR_RTE. Could not find route to destination address.
 449:Source\LwIP\src\core/udp.c ****  * - ERR_VAL. No PCB or PCB is dual-stack
 450:Source\LwIP\src\core/udp.c ****  * - More errors could be returned by lower protocol layers.
 451:Source\LwIP\src\core/udp.c ****  *
 452:Source\LwIP\src\core/udp.c ****  * @see udp_disconnect() udp_sendto()
 453:Source\LwIP\src\core/udp.c ****  */
 454:Source\LwIP\src\core/udp.c **** err_t
 455:Source\LwIP\src\core/udp.c **** udp_send(struct udp_pcb *pcb, struct pbuf *p)
 456:Source\LwIP\src\core/udp.c **** {
 457:Source\LwIP\src\core/udp.c ****   if ((pcb == NULL) || IP_IS_ANY_TYPE_VAL(pcb->remote_ip)) {
 458:Source\LwIP\src\core/udp.c ****     return ERR_VAL;
 459:Source\LwIP\src\core/udp.c ****   }
 460:Source\LwIP\src\core/udp.c **** 
 461:Source\LwIP\src\core/udp.c ****   /* send to the packet using remote ip and port stored in the pcb */
 462:Source\LwIP\src\core/udp.c ****   return udp_sendto(pcb, p, &pcb->remote_ip, pcb->remote_port);
 463:Source\LwIP\src\core/udp.c **** }
 464:Source\LwIP\src\core/udp.c **** 
ARM GAS  C:\Users\Phuong\AppData\Local\Temp\cc08x83E.s 			page 21


 465:Source\LwIP\src\core/udp.c **** #if LWIP_CHECKSUM_ON_COPY && CHECKSUM_GEN_UDP
 466:Source\LwIP\src\core/udp.c **** /** @ingroup udp_raw
 467:Source\LwIP\src\core/udp.c ****  * Same as udp_send() but with checksum
 468:Source\LwIP\src\core/udp.c ****  */
 469:Source\LwIP\src\core/udp.c **** err_t
 470:Source\LwIP\src\core/udp.c **** udp_send_chksum(struct udp_pcb *pcb, struct pbuf *p,
 471:Source\LwIP\src\core/udp.c ****                 u8_t have_chksum, u16_t chksum)
 472:Source\LwIP\src\core/udp.c **** {
 473:Source\LwIP\src\core/udp.c ****   if ((pcb == NULL) || IP_IS_ANY_TYPE_VAL(pcb->remote_ip)) {
 474:Source\LwIP\src\core/udp.c ****     return ERR_VAL;
 475:Source\LwIP\src\core/udp.c ****   }
 476:Source\LwIP\src\core/udp.c **** 
 477:Source\LwIP\src\core/udp.c ****   /* send to the packet using remote ip and port stored in the pcb */
 478:Source\LwIP\src\core/udp.c ****   return udp_sendto_chksum(pcb, p, &pcb->remote_ip, pcb->remote_port,
 479:Source\LwIP\src\core/udp.c ****     have_chksum, chksum);
 480:Source\LwIP\src\core/udp.c **** }
 481:Source\LwIP\src\core/udp.c **** #endif /* LWIP_CHECKSUM_ON_COPY && CHECKSUM_GEN_UDP */
 482:Source\LwIP\src\core/udp.c **** 
 483:Source\LwIP\src\core/udp.c **** /**
 484:Source\LwIP\src\core/udp.c ****  * @ingroup udp_raw
 485:Source\LwIP\src\core/udp.c ****  * Send data to a specified address using UDP.
 486:Source\LwIP\src\core/udp.c ****  *
 487:Source\LwIP\src\core/udp.c ****  * @param pcb UDP PCB used to send the data.
 488:Source\LwIP\src\core/udp.c ****  * @param p chain of pbuf's to be sent.
 489:Source\LwIP\src\core/udp.c ****  * @param dst_ip Destination IP address.
 490:Source\LwIP\src\core/udp.c ****  * @param dst_port Destination UDP port.
 491:Source\LwIP\src\core/udp.c ****  *
 492:Source\LwIP\src\core/udp.c ****  * dst_ip & dst_port are expected to be in the same byte order as in the pcb.
 493:Source\LwIP\src\core/udp.c ****  *
 494:Source\LwIP\src\core/udp.c ****  * If the PCB already has a remote address association, it will
 495:Source\LwIP\src\core/udp.c ****  * be restored after the data is sent.
 496:Source\LwIP\src\core/udp.c ****  *
 497:Source\LwIP\src\core/udp.c ****  * @return lwIP error code (@see udp_send for possible error codes)
 498:Source\LwIP\src\core/udp.c ****  *
 499:Source\LwIP\src\core/udp.c ****  * @see udp_disconnect() udp_send()
 500:Source\LwIP\src\core/udp.c ****  */
 501:Source\LwIP\src\core/udp.c **** err_t
 502:Source\LwIP\src\core/udp.c **** udp_sendto(struct udp_pcb *pcb, struct pbuf *p,
 503:Source\LwIP\src\core/udp.c ****   const ip_addr_t *dst_ip, u16_t dst_port)
 504:Source\LwIP\src\core/udp.c **** {
 505:Source\LwIP\src\core/udp.c **** #if LWIP_CHECKSUM_ON_COPY && CHECKSUM_GEN_UDP
 506:Source\LwIP\src\core/udp.c ****   return udp_sendto_chksum(pcb, p, dst_ip, dst_port, 0, 0);
 507:Source\LwIP\src\core/udp.c **** }
 508:Source\LwIP\src\core/udp.c **** 
 509:Source\LwIP\src\core/udp.c **** /** @ingroup udp_raw
 510:Source\LwIP\src\core/udp.c ****  * Same as udp_sendto(), but with checksum */
 511:Source\LwIP\src\core/udp.c **** err_t
 512:Source\LwIP\src\core/udp.c **** udp_sendto_chksum(struct udp_pcb *pcb, struct pbuf *p, const ip_addr_t *dst_ip,
 513:Source\LwIP\src\core/udp.c ****                   u16_t dst_port, u8_t have_chksum, u16_t chksum)
 514:Source\LwIP\src\core/udp.c **** {
 515:Source\LwIP\src\core/udp.c **** #endif /* LWIP_CHECKSUM_ON_COPY && CHECKSUM_GEN_UDP */
 516:Source\LwIP\src\core/udp.c ****   struct netif *netif;
 517:Source\LwIP\src\core/udp.c ****   const ip_addr_t *dst_ip_route = dst_ip;
 518:Source\LwIP\src\core/udp.c **** 
 519:Source\LwIP\src\core/udp.c ****   if ((pcb == NULL) || (dst_ip == NULL) || !IP_ADDR_PCB_VERSION_MATCH(pcb, dst_ip)) {
 520:Source\LwIP\src\core/udp.c ****     return ERR_VAL;
 521:Source\LwIP\src\core/udp.c ****   }
ARM GAS  C:\Users\Phuong\AppData\Local\Temp\cc08x83E.s 			page 22


 522:Source\LwIP\src\core/udp.c **** 
 523:Source\LwIP\src\core/udp.c ****   LWIP_DEBUGF(UDP_DEBUG | LWIP_DBG_TRACE, ("udp_send\n"));
 524:Source\LwIP\src\core/udp.c **** 
 525:Source\LwIP\src\core/udp.c **** #if LWIP_IPV6 || (LWIP_IPV4 && LWIP_MULTICAST_TX_OPTIONS)
 526:Source\LwIP\src\core/udp.c ****   if (ip_addr_ismulticast(dst_ip_route)) {
 527:Source\LwIP\src\core/udp.c **** #if LWIP_IPV6
 528:Source\LwIP\src\core/udp.c ****     if (IP_IS_V6(dst_ip)) {
 529:Source\LwIP\src\core/udp.c ****       /* For multicast, find a netif based on source address. */
 530:Source\LwIP\src\core/udp.c ****       dst_ip_route = &pcb->local_ip;
 531:Source\LwIP\src\core/udp.c ****     } else
 532:Source\LwIP\src\core/udp.c **** #endif /* LWIP_IPV6 */
 533:Source\LwIP\src\core/udp.c ****     {
 534:Source\LwIP\src\core/udp.c **** #if LWIP_IPV4 && LWIP_MULTICAST_TX_OPTIONS
 535:Source\LwIP\src\core/udp.c ****       /* IPv4 does not use source-based routing by default, so we use an
 536:Source\LwIP\src\core/udp.c ****          administratively selected interface for multicast by default.
 537:Source\LwIP\src\core/udp.c ****          However, this can be overridden by setting an interface address
 538:Source\LwIP\src\core/udp.c ****          in pcb->multicast_ip that is used for routing. */
 539:Source\LwIP\src\core/udp.c ****       if (!ip_addr_isany_val(pcb->multicast_ip) &&
 540:Source\LwIP\src\core/udp.c ****           !ip4_addr_cmp(ip_2_ip4(&pcb->multicast_ip), IP4_ADDR_BROADCAST)) {
 541:Source\LwIP\src\core/udp.c ****         dst_ip_route = &pcb->multicast_ip;
 542:Source\LwIP\src\core/udp.c ****       }
 543:Source\LwIP\src\core/udp.c **** #endif /* LWIP_IPV4 && LWIP_MULTICAST_TX_OPTIONS */
 544:Source\LwIP\src\core/udp.c ****     }
 545:Source\LwIP\src\core/udp.c ****   }
 546:Source\LwIP\src\core/udp.c **** #endif /* LWIP_IPV6 || (LWIP_IPV4 && LWIP_MULTICAST_TX_OPTIONS) */
 547:Source\LwIP\src\core/udp.c **** 
 548:Source\LwIP\src\core/udp.c ****   /* find the outgoing network interface for this packet */
 549:Source\LwIP\src\core/udp.c ****   if(IP_IS_ANY_TYPE_VAL(pcb->local_ip)) {
 550:Source\LwIP\src\core/udp.c ****     /* Don't call ip_route() with IP_ANY_TYPE */
 551:Source\LwIP\src\core/udp.c ****     netif = ip_route(IP46_ADDR_ANY(IP_GET_TYPE(dst_ip_route)), dst_ip_route);
 552:Source\LwIP\src\core/udp.c ****   } else {
 553:Source\LwIP\src\core/udp.c ****     netif = ip_route(&pcb->local_ip, dst_ip_route);
 554:Source\LwIP\src\core/udp.c ****   }
 555:Source\LwIP\src\core/udp.c **** 
 556:Source\LwIP\src\core/udp.c ****   /* no outgoing network interface could be found? */
 557:Source\LwIP\src\core/udp.c ****   if (netif == NULL) {
 558:Source\LwIP\src\core/udp.c ****     LWIP_DEBUGF(UDP_DEBUG | LWIP_DBG_LEVEL_SERIOUS, ("udp_send: No route to "));
 559:Source\LwIP\src\core/udp.c ****     ip_addr_debug_print(UDP_DEBUG | LWIP_DBG_LEVEL_SERIOUS, dst_ip);
 560:Source\LwIP\src\core/udp.c ****     LWIP_DEBUGF(UDP_DEBUG, ("\n"));
 561:Source\LwIP\src\core/udp.c ****     UDP_STATS_INC(udp.rterr);
 562:Source\LwIP\src\core/udp.c ****     return ERR_RTE;
 563:Source\LwIP\src\core/udp.c ****   }
 564:Source\LwIP\src\core/udp.c **** #if LWIP_CHECKSUM_ON_COPY && CHECKSUM_GEN_UDP
 565:Source\LwIP\src\core/udp.c ****   return udp_sendto_if_chksum(pcb, p, dst_ip, dst_port, netif, have_chksum, chksum);
 566:Source\LwIP\src\core/udp.c **** #else /* LWIP_CHECKSUM_ON_COPY && CHECKSUM_GEN_UDP */
 567:Source\LwIP\src\core/udp.c ****   return udp_sendto_if(pcb, p, dst_ip, dst_port, netif);
 568:Source\LwIP\src\core/udp.c **** #endif /* LWIP_CHECKSUM_ON_COPY && CHECKSUM_GEN_UDP */
 569:Source\LwIP\src\core/udp.c **** }
 570:Source\LwIP\src\core/udp.c **** 
 571:Source\LwIP\src\core/udp.c **** /**
 572:Source\LwIP\src\core/udp.c ****  * @ingroup udp_raw
 573:Source\LwIP\src\core/udp.c ****  * Send data to a specified address using UDP.
 574:Source\LwIP\src\core/udp.c ****  * The netif used for sending can be specified.
 575:Source\LwIP\src\core/udp.c ****  *
 576:Source\LwIP\src\core/udp.c ****  * This function exists mainly for DHCP, to be able to send UDP packets
 577:Source\LwIP\src\core/udp.c ****  * on a netif that is still down.
 578:Source\LwIP\src\core/udp.c ****  *
ARM GAS  C:\Users\Phuong\AppData\Local\Temp\cc08x83E.s 			page 23


 579:Source\LwIP\src\core/udp.c ****  * @param pcb UDP PCB used to send the data.
 580:Source\LwIP\src\core/udp.c ****  * @param p chain of pbuf's to be sent.
 581:Source\LwIP\src\core/udp.c ****  * @param dst_ip Destination IP address.
 582:Source\LwIP\src\core/udp.c ****  * @param dst_port Destination UDP port.
 583:Source\LwIP\src\core/udp.c ****  * @param netif the netif used for sending.
 584:Source\LwIP\src\core/udp.c ****  *
 585:Source\LwIP\src\core/udp.c ****  * dst_ip & dst_port are expected to be in the same byte order as in the pcb.
 586:Source\LwIP\src\core/udp.c ****  *
 587:Source\LwIP\src\core/udp.c ****  * @return lwIP error code (@see udp_send for possible error codes)
 588:Source\LwIP\src\core/udp.c ****  *
 589:Source\LwIP\src\core/udp.c ****  * @see udp_disconnect() udp_send()
 590:Source\LwIP\src\core/udp.c ****  */
 591:Source\LwIP\src\core/udp.c **** err_t
 592:Source\LwIP\src\core/udp.c **** udp_sendto_if(struct udp_pcb *pcb, struct pbuf *p,
 593:Source\LwIP\src\core/udp.c ****   const ip_addr_t *dst_ip, u16_t dst_port, struct netif *netif)
 594:Source\LwIP\src\core/udp.c **** {
 595:Source\LwIP\src\core/udp.c **** #if LWIP_CHECKSUM_ON_COPY && CHECKSUM_GEN_UDP
 596:Source\LwIP\src\core/udp.c ****   return udp_sendto_if_chksum(pcb, p, dst_ip, dst_port, netif, 0, 0);
 597:Source\LwIP\src\core/udp.c **** }
 598:Source\LwIP\src\core/udp.c **** 
 599:Source\LwIP\src\core/udp.c **** /** Same as udp_sendto_if(), but with checksum */
 600:Source\LwIP\src\core/udp.c **** err_t
 601:Source\LwIP\src\core/udp.c **** udp_sendto_if_chksum(struct udp_pcb *pcb, struct pbuf *p, const ip_addr_t *dst_ip,
 602:Source\LwIP\src\core/udp.c ****                      u16_t dst_port, struct netif *netif, u8_t have_chksum,
 603:Source\LwIP\src\core/udp.c ****                      u16_t chksum)
 604:Source\LwIP\src\core/udp.c **** {
 605:Source\LwIP\src\core/udp.c **** #endif /* LWIP_CHECKSUM_ON_COPY && CHECKSUM_GEN_UDP */
 606:Source\LwIP\src\core/udp.c ****   const ip_addr_t *src_ip;
 607:Source\LwIP\src\core/udp.c **** 
 608:Source\LwIP\src\core/udp.c ****   if ((pcb == NULL) || (dst_ip == NULL) || !IP_ADDR_PCB_VERSION_MATCH(pcb, dst_ip)) {
 609:Source\LwIP\src\core/udp.c ****     return ERR_VAL;
 610:Source\LwIP\src\core/udp.c ****   }
 611:Source\LwIP\src\core/udp.c **** 
 612:Source\LwIP\src\core/udp.c ****   /* PCB local address is IP_ANY_ADDR? */
 613:Source\LwIP\src\core/udp.c **** #if LWIP_IPV6
 614:Source\LwIP\src\core/udp.c ****   if (IP_IS_V6(dst_ip)) {
 615:Source\LwIP\src\core/udp.c ****     if (ip6_addr_isany(ip_2_ip6(&pcb->local_ip))) {
 616:Source\LwIP\src\core/udp.c ****       src_ip = ip6_select_source_address(netif, ip_2_ip6(dst_ip));
 617:Source\LwIP\src\core/udp.c ****       if (src_ip == NULL) {
 618:Source\LwIP\src\core/udp.c ****         /* No suitable source address was found. */
 619:Source\LwIP\src\core/udp.c ****         return ERR_RTE;
 620:Source\LwIP\src\core/udp.c ****       }
 621:Source\LwIP\src\core/udp.c ****     } else {
 622:Source\LwIP\src\core/udp.c ****       /* use UDP PCB local IPv6 address as source address, if still valid. */
 623:Source\LwIP\src\core/udp.c ****       if (netif_get_ip6_addr_match(netif, ip_2_ip6(&pcb->local_ip)) < 0) {
 624:Source\LwIP\src\core/udp.c ****         /* Address isn't valid anymore. */
 625:Source\LwIP\src\core/udp.c ****         return ERR_RTE;
 626:Source\LwIP\src\core/udp.c ****       }
 627:Source\LwIP\src\core/udp.c ****       src_ip = &pcb->local_ip;
 628:Source\LwIP\src\core/udp.c ****     }
 629:Source\LwIP\src\core/udp.c ****   }
 630:Source\LwIP\src\core/udp.c **** #endif /* LWIP_IPV6 */
 631:Source\LwIP\src\core/udp.c **** #if LWIP_IPV4 && LWIP_IPV6
 632:Source\LwIP\src\core/udp.c ****   else
 633:Source\LwIP\src\core/udp.c **** #endif /* LWIP_IPV4 && LWIP_IPV6 */
 634:Source\LwIP\src\core/udp.c **** #if LWIP_IPV4
 635:Source\LwIP\src\core/udp.c ****   if (ip4_addr_isany(ip_2_ip4(&pcb->local_ip)) ||
ARM GAS  C:\Users\Phuong\AppData\Local\Temp\cc08x83E.s 			page 24


 636:Source\LwIP\src\core/udp.c ****       ip4_addr_ismulticast(ip_2_ip4(&pcb->local_ip))) {
 637:Source\LwIP\src\core/udp.c ****     /* if the local_ip is any or multicast
 638:Source\LwIP\src\core/udp.c ****      * use the outgoing network interface IP address as source address */
 639:Source\LwIP\src\core/udp.c ****     src_ip = netif_ip_addr4(netif);
 640:Source\LwIP\src\core/udp.c ****   } else {
 641:Source\LwIP\src\core/udp.c ****     /* check if UDP PCB local IP address is correct
 642:Source\LwIP\src\core/udp.c ****      * this could be an old address if netif->ip_addr has changed */
 643:Source\LwIP\src\core/udp.c ****     if (!ip4_addr_cmp(ip_2_ip4(&(pcb->local_ip)), netif_ip4_addr(netif))) {
 644:Source\LwIP\src\core/udp.c ****       /* local_ip doesn't match, drop the packet */
 645:Source\LwIP\src\core/udp.c ****       return ERR_RTE;
 646:Source\LwIP\src\core/udp.c ****     }
 647:Source\LwIP\src\core/udp.c ****     /* use UDP PCB local IP address as source address */
 648:Source\LwIP\src\core/udp.c ****     src_ip = &pcb->local_ip;
 649:Source\LwIP\src\core/udp.c ****   }
 650:Source\LwIP\src\core/udp.c **** #endif /* LWIP_IPV4 */
 651:Source\LwIP\src\core/udp.c **** #if LWIP_CHECKSUM_ON_COPY && CHECKSUM_GEN_UDP
 652:Source\LwIP\src\core/udp.c ****   return udp_sendto_if_src_chksum(pcb, p, dst_ip, dst_port, netif, have_chksum, chksum, src_ip);
 653:Source\LwIP\src\core/udp.c **** #else /* LWIP_CHECKSUM_ON_COPY && CHECKSUM_GEN_UDP */
 654:Source\LwIP\src\core/udp.c ****   return udp_sendto_if_src(pcb, p, dst_ip, dst_port, netif, src_ip);
 655:Source\LwIP\src\core/udp.c **** #endif /* LWIP_CHECKSUM_ON_COPY && CHECKSUM_GEN_UDP */
 656:Source\LwIP\src\core/udp.c **** }
 657:Source\LwIP\src\core/udp.c **** 
 658:Source\LwIP\src\core/udp.c **** /** @ingroup udp_raw
 659:Source\LwIP\src\core/udp.c ****  * Same as @ref udp_sendto_if, but with source address */
 660:Source\LwIP\src\core/udp.c **** err_t
 661:Source\LwIP\src\core/udp.c **** udp_sendto_if_src(struct udp_pcb *pcb, struct pbuf *p,
 662:Source\LwIP\src\core/udp.c ****   const ip_addr_t *dst_ip, u16_t dst_port, struct netif *netif, const ip_addr_t *src_ip)
 663:Source\LwIP\src\core/udp.c **** {
 664:Source\LwIP\src\core/udp.c **** #if LWIP_CHECKSUM_ON_COPY && CHECKSUM_GEN_UDP
 665:Source\LwIP\src\core/udp.c ****   return udp_sendto_if_src_chksum(pcb, p, dst_ip, dst_port, netif, 0, 0, src_ip);
 666:Source\LwIP\src\core/udp.c **** }
 667:Source\LwIP\src\core/udp.c **** 
 668:Source\LwIP\src\core/udp.c **** /** Same as udp_sendto_if_src(), but with checksum */
 669:Source\LwIP\src\core/udp.c **** err_t
 670:Source\LwIP\src\core/udp.c **** udp_sendto_if_src_chksum(struct udp_pcb *pcb, struct pbuf *p, const ip_addr_t *dst_ip,
 671:Source\LwIP\src\core/udp.c ****                      u16_t dst_port, struct netif *netif, u8_t have_chksum,
 672:Source\LwIP\src\core/udp.c ****                      u16_t chksum, const ip_addr_t *src_ip)
 673:Source\LwIP\src\core/udp.c **** {
 674:Source\LwIP\src\core/udp.c **** #endif /* LWIP_CHECKSUM_ON_COPY && CHECKSUM_GEN_UDP */
 675:Source\LwIP\src\core/udp.c ****   struct udp_hdr *udphdr;
 676:Source\LwIP\src\core/udp.c ****   err_t err;
 677:Source\LwIP\src\core/udp.c ****   struct pbuf *q; /* q will be sent down the stack */
 678:Source\LwIP\src\core/udp.c ****   u8_t ip_proto;
 679:Source\LwIP\src\core/udp.c ****   u8_t ttl;
 680:Source\LwIP\src\core/udp.c **** 
 681:Source\LwIP\src\core/udp.c ****   if ((pcb == NULL) || (dst_ip == NULL) || !IP_ADDR_PCB_VERSION_MATCH(pcb, src_ip) ||
 682:Source\LwIP\src\core/udp.c ****       !IP_ADDR_PCB_VERSION_MATCH(pcb, dst_ip)) {
 683:Source\LwIP\src\core/udp.c ****     return ERR_VAL;
 684:Source\LwIP\src\core/udp.c ****   }
 685:Source\LwIP\src\core/udp.c **** 
 686:Source\LwIP\src\core/udp.c **** #if LWIP_IPV4 && IP_SOF_BROADCAST
 687:Source\LwIP\src\core/udp.c ****   /* broadcast filter? */
 688:Source\LwIP\src\core/udp.c ****   if (!ip_get_option(pcb, SOF_BROADCAST) &&
 689:Source\LwIP\src\core/udp.c **** #if LWIP_IPV6
 690:Source\LwIP\src\core/udp.c ****       IP_IS_V4(dst_ip) &&
 691:Source\LwIP\src\core/udp.c **** #endif /* LWIP_IPV6 */
 692:Source\LwIP\src\core/udp.c ****       ip_addr_isbroadcast(dst_ip, netif)) {
ARM GAS  C:\Users\Phuong\AppData\Local\Temp\cc08x83E.s 			page 25


 693:Source\LwIP\src\core/udp.c ****     LWIP_DEBUGF(UDP_DEBUG | LWIP_DBG_LEVEL_SERIOUS,
 694:Source\LwIP\src\core/udp.c ****       ("udp_sendto_if: SOF_BROADCAST not enabled on pcb %p\n", (void *)pcb));
 695:Source\LwIP\src\core/udp.c ****     return ERR_VAL;
 696:Source\LwIP\src\core/udp.c ****   }
 697:Source\LwIP\src\core/udp.c **** #endif /* LWIP_IPV4 && IP_SOF_BROADCAST */
 698:Source\LwIP\src\core/udp.c **** 
 699:Source\LwIP\src\core/udp.c ****   /* if the PCB is not yet bound to a port, bind it here */
 700:Source\LwIP\src\core/udp.c ****   if (pcb->local_port == 0) {
 701:Source\LwIP\src\core/udp.c ****     LWIP_DEBUGF(UDP_DEBUG | LWIP_DBG_TRACE, ("udp_send: not yet bound to a port, binding now\n"));
 702:Source\LwIP\src\core/udp.c ****     err = udp_bind(pcb, &pcb->local_ip, pcb->local_port);
 703:Source\LwIP\src\core/udp.c ****     if (err != ERR_OK) {
 704:Source\LwIP\src\core/udp.c ****       LWIP_DEBUGF(UDP_DEBUG | LWIP_DBG_TRACE | LWIP_DBG_LEVEL_SERIOUS, ("udp_send: forced port bind
 705:Source\LwIP\src\core/udp.c ****       return err;
 706:Source\LwIP\src\core/udp.c ****     }
 707:Source\LwIP\src\core/udp.c ****   }
 708:Source\LwIP\src\core/udp.c **** 
 709:Source\LwIP\src\core/udp.c ****   /* not enough space to add an UDP header to first pbuf in given p chain? */
 710:Source\LwIP\src\core/udp.c ****   if (pbuf_header(p, UDP_HLEN)) {
 711:Source\LwIP\src\core/udp.c ****     /* allocate header in a separate new pbuf */
 712:Source\LwIP\src\core/udp.c ****     q = pbuf_alloc(PBUF_IP, UDP_HLEN, PBUF_RAM);
 713:Source\LwIP\src\core/udp.c ****     /* new header pbuf could not be allocated? */
 714:Source\LwIP\src\core/udp.c ****     if (q == NULL) {
 715:Source\LwIP\src\core/udp.c ****       LWIP_DEBUGF(UDP_DEBUG | LWIP_DBG_TRACE | LWIP_DBG_LEVEL_SERIOUS, ("udp_send: could not alloca
 716:Source\LwIP\src\core/udp.c ****       return ERR_MEM;
 717:Source\LwIP\src\core/udp.c ****     }
 718:Source\LwIP\src\core/udp.c ****     if (p->tot_len != 0) {
 719:Source\LwIP\src\core/udp.c ****       /* chain header q in front of given pbuf p (only if p contains data) */
 720:Source\LwIP\src\core/udp.c ****       pbuf_chain(q, p);
 721:Source\LwIP\src\core/udp.c ****     }
 722:Source\LwIP\src\core/udp.c ****     /* first pbuf q points to header pbuf */
 723:Source\LwIP\src\core/udp.c ****     LWIP_DEBUGF(UDP_DEBUG,
 724:Source\LwIP\src\core/udp.c ****                 ("udp_send: added header pbuf %p before given pbuf %p\n", (void *)q, (void *)p));
 725:Source\LwIP\src\core/udp.c ****   } else {
 726:Source\LwIP\src\core/udp.c ****     /* adding space for header within p succeeded */
 727:Source\LwIP\src\core/udp.c ****     /* first pbuf q equals given pbuf */
 728:Source\LwIP\src\core/udp.c ****     q = p;
 729:Source\LwIP\src\core/udp.c ****     LWIP_DEBUGF(UDP_DEBUG, ("udp_send: added header in given pbuf %p\n", (void *)p));
 730:Source\LwIP\src\core/udp.c ****   }
 731:Source\LwIP\src\core/udp.c ****   LWIP_ASSERT("check that first pbuf can hold struct udp_hdr",
 732:Source\LwIP\src\core/udp.c ****               (q->len >= sizeof(struct udp_hdr)));
 733:Source\LwIP\src\core/udp.c ****   /* q now represents the packet to be sent */
 734:Source\LwIP\src\core/udp.c ****   udphdr = (struct udp_hdr *)q->payload;
 735:Source\LwIP\src\core/udp.c ****   udphdr->src = lwip_htons(pcb->local_port);
 736:Source\LwIP\src\core/udp.c ****   udphdr->dest = lwip_htons(dst_port);
 737:Source\LwIP\src\core/udp.c ****   /* in UDP, 0 checksum means 'no checksum' */
 738:Source\LwIP\src\core/udp.c ****   udphdr->chksum = 0x0000;
 739:Source\LwIP\src\core/udp.c **** 
 740:Source\LwIP\src\core/udp.c ****   /* Multicast Loop? */
 741:Source\LwIP\src\core/udp.c **** #if (LWIP_IPV4 && LWIP_MULTICAST_TX_OPTIONS) || (LWIP_IPV6 && LWIP_IPV6_MLD)
 742:Source\LwIP\src\core/udp.c ****   if (((pcb->flags & UDP_FLAGS_MULTICAST_LOOP) != 0) && ip_addr_ismulticast(dst_ip)) {
 743:Source\LwIP\src\core/udp.c ****     q->flags |= PBUF_FLAG_MCASTLOOP;
 744:Source\LwIP\src\core/udp.c ****   }
 745:Source\LwIP\src\core/udp.c **** #endif /* (LWIP_IPV4 && LWIP_MULTICAST_TX_OPTIONS) || (LWIP_IPV6 && LWIP_IPV6_MLD) */
 746:Source\LwIP\src\core/udp.c **** 
 747:Source\LwIP\src\core/udp.c ****   LWIP_DEBUGF(UDP_DEBUG, ("udp_send: sending datagram of length %"U16_F"\n", q->tot_len));
 748:Source\LwIP\src\core/udp.c **** 
 749:Source\LwIP\src\core/udp.c **** #if LWIP_UDPLITE
ARM GAS  C:\Users\Phuong\AppData\Local\Temp\cc08x83E.s 			page 26


 750:Source\LwIP\src\core/udp.c ****   /* UDP Lite protocol? */
 751:Source\LwIP\src\core/udp.c ****   if (pcb->flags & UDP_FLAGS_UDPLITE) {
 752:Source\LwIP\src\core/udp.c ****     u16_t chklen, chklen_hdr;
 753:Source\LwIP\src\core/udp.c ****     LWIP_DEBUGF(UDP_DEBUG, ("udp_send: UDP LITE packet length %"U16_F"\n", q->tot_len));
 754:Source\LwIP\src\core/udp.c ****     /* set UDP message length in UDP header */
 755:Source\LwIP\src\core/udp.c ****     chklen_hdr = chklen = pcb->chksum_len_tx;
 756:Source\LwIP\src\core/udp.c ****     if ((chklen < sizeof(struct udp_hdr)) || (chklen > q->tot_len)) {
 757:Source\LwIP\src\core/udp.c ****       if (chklen != 0) {
 758:Source\LwIP\src\core/udp.c ****         LWIP_DEBUGF(UDP_DEBUG, ("udp_send: UDP LITE pcb->chksum_len is illegal: %"U16_F"\n", chklen
 759:Source\LwIP\src\core/udp.c ****       }
 760:Source\LwIP\src\core/udp.c ****       /* For UDP-Lite, checksum length of 0 means checksum
 761:Source\LwIP\src\core/udp.c ****          over the complete packet. (See RFC 3828 chap. 3.1)
 762:Source\LwIP\src\core/udp.c ****          At least the UDP-Lite header must be covered by the
 763:Source\LwIP\src\core/udp.c ****          checksum, therefore, if chksum_len has an illegal
 764:Source\LwIP\src\core/udp.c ****          value, we generate the checksum over the complete
 765:Source\LwIP\src\core/udp.c ****          packet to be safe. */
 766:Source\LwIP\src\core/udp.c ****       chklen_hdr = 0;
 767:Source\LwIP\src\core/udp.c ****       chklen = q->tot_len;
 768:Source\LwIP\src\core/udp.c ****     }
 769:Source\LwIP\src\core/udp.c ****     udphdr->len = lwip_htons(chklen_hdr);
 770:Source\LwIP\src\core/udp.c ****     /* calculate checksum */
 771:Source\LwIP\src\core/udp.c **** #if CHECKSUM_GEN_UDP
 772:Source\LwIP\src\core/udp.c ****     IF__NETIF_CHECKSUM_ENABLED(netif, NETIF_CHECKSUM_GEN_UDP) {
 773:Source\LwIP\src\core/udp.c **** #if LWIP_CHECKSUM_ON_COPY
 774:Source\LwIP\src\core/udp.c ****       if (have_chksum) {
 775:Source\LwIP\src\core/udp.c ****         chklen = UDP_HLEN;
 776:Source\LwIP\src\core/udp.c ****       }
 777:Source\LwIP\src\core/udp.c **** #endif /* LWIP_CHECKSUM_ON_COPY */
 778:Source\LwIP\src\core/udp.c ****       udphdr->chksum = ip_chksum_pseudo_partial(q, IP_PROTO_UDPLITE,
 779:Source\LwIP\src\core/udp.c ****         q->tot_len, chklen, src_ip, dst_ip);
 780:Source\LwIP\src\core/udp.c **** #if LWIP_CHECKSUM_ON_COPY
 781:Source\LwIP\src\core/udp.c ****       if (have_chksum) {
 782:Source\LwIP\src\core/udp.c ****         u32_t acc;
 783:Source\LwIP\src\core/udp.c ****         acc = udphdr->chksum + (u16_t)~(chksum);
 784:Source\LwIP\src\core/udp.c ****         udphdr->chksum = FOLD_U32T(acc);
 785:Source\LwIP\src\core/udp.c ****       }
 786:Source\LwIP\src\core/udp.c **** #endif /* LWIP_CHECKSUM_ON_COPY */
 787:Source\LwIP\src\core/udp.c **** 
 788:Source\LwIP\src\core/udp.c ****       /* chksum zero must become 0xffff, as zero means 'no checksum' */
 789:Source\LwIP\src\core/udp.c ****       if (udphdr->chksum == 0x0000) {
 790:Source\LwIP\src\core/udp.c ****         udphdr->chksum = 0xffff;
 791:Source\LwIP\src\core/udp.c ****       }
 792:Source\LwIP\src\core/udp.c ****     }
 793:Source\LwIP\src\core/udp.c **** #endif /* CHECKSUM_GEN_UDP */
 794:Source\LwIP\src\core/udp.c **** 
 795:Source\LwIP\src\core/udp.c ****     ip_proto = IP_PROTO_UDPLITE;
 796:Source\LwIP\src\core/udp.c ****   } else
 797:Source\LwIP\src\core/udp.c **** #endif /* LWIP_UDPLITE */
 798:Source\LwIP\src\core/udp.c ****   {      /* UDP */
 799:Source\LwIP\src\core/udp.c ****     LWIP_DEBUGF(UDP_DEBUG, ("udp_send: UDP packet length %"U16_F"\n", q->tot_len));
 800:Source\LwIP\src\core/udp.c ****     udphdr->len = lwip_htons(q->tot_len);
 801:Source\LwIP\src\core/udp.c ****     /* calculate checksum */
 802:Source\LwIP\src\core/udp.c **** #if CHECKSUM_GEN_UDP
 803:Source\LwIP\src\core/udp.c ****     IF__NETIF_CHECKSUM_ENABLED(netif, NETIF_CHECKSUM_GEN_UDP) {
 804:Source\LwIP\src\core/udp.c ****       /* Checksum is mandatory over IPv6. */
 805:Source\LwIP\src\core/udp.c ****       if (IP_IS_V6(dst_ip) || (pcb->flags & UDP_FLAGS_NOCHKSUM) == 0) {
 806:Source\LwIP\src\core/udp.c ****         u16_t udpchksum;
ARM GAS  C:\Users\Phuong\AppData\Local\Temp\cc08x83E.s 			page 27


 807:Source\LwIP\src\core/udp.c **** #if LWIP_CHECKSUM_ON_COPY
 808:Source\LwIP\src\core/udp.c ****         if (have_chksum) {
 809:Source\LwIP\src\core/udp.c ****           u32_t acc;
 810:Source\LwIP\src\core/udp.c ****           udpchksum = ip_chksum_pseudo_partial(q, IP_PROTO_UDP,
 811:Source\LwIP\src\core/udp.c ****             q->tot_len, UDP_HLEN, src_ip, dst_ip);
 812:Source\LwIP\src\core/udp.c ****           acc = udpchksum + (u16_t)~(chksum);
 813:Source\LwIP\src\core/udp.c ****           udpchksum = FOLD_U32T(acc);
 814:Source\LwIP\src\core/udp.c ****         } else
 815:Source\LwIP\src\core/udp.c **** #endif /* LWIP_CHECKSUM_ON_COPY */
 816:Source\LwIP\src\core/udp.c ****         {
 817:Source\LwIP\src\core/udp.c ****           udpchksum = ip_chksum_pseudo(q, IP_PROTO_UDP, q->tot_len,
 818:Source\LwIP\src\core/udp.c ****             src_ip, dst_ip);
 819:Source\LwIP\src\core/udp.c ****         }
 820:Source\LwIP\src\core/udp.c **** 
 821:Source\LwIP\src\core/udp.c ****         /* chksum zero must become 0xffff, as zero means 'no checksum' */
 822:Source\LwIP\src\core/udp.c ****         if (udpchksum == 0x0000) {
 823:Source\LwIP\src\core/udp.c ****           udpchksum = 0xffff;
 824:Source\LwIP\src\core/udp.c ****         }
 825:Source\LwIP\src\core/udp.c ****         udphdr->chksum = udpchksum;
 826:Source\LwIP\src\core/udp.c ****       }
 827:Source\LwIP\src\core/udp.c ****     }
 828:Source\LwIP\src\core/udp.c **** #endif /* CHECKSUM_GEN_UDP */
 829:Source\LwIP\src\core/udp.c ****     ip_proto = IP_PROTO_UDP;
 830:Source\LwIP\src\core/udp.c ****   }
 831:Source\LwIP\src\core/udp.c **** 
 832:Source\LwIP\src\core/udp.c ****   /* Determine TTL to use */
 833:Source\LwIP\src\core/udp.c **** #if LWIP_MULTICAST_TX_OPTIONS
 834:Source\LwIP\src\core/udp.c ****   ttl = (ip_addr_ismulticast(dst_ip) ? udp_get_multicast_ttl(pcb) : pcb->ttl);
 835:Source\LwIP\src\core/udp.c **** #else /* LWIP_MULTICAST_TX_OPTIONS */
 836:Source\LwIP\src\core/udp.c ****   ttl = pcb->ttl;
 837:Source\LwIP\src\core/udp.c **** #endif /* LWIP_MULTICAST_TX_OPTIONS */
 838:Source\LwIP\src\core/udp.c **** 
 839:Source\LwIP\src\core/udp.c ****   LWIP_DEBUGF(UDP_DEBUG, ("udp_send: UDP checksum 0x%04"X16_F"\n", udphdr->chksum));
 840:Source\LwIP\src\core/udp.c ****   LWIP_DEBUGF(UDP_DEBUG, ("udp_send: ip_output_if (,,,,0x%02"X16_F",)\n", (u16_t)ip_proto));
 841:Source\LwIP\src\core/udp.c ****   /* output to IP */
 842:Source\LwIP\src\core/udp.c ****   NETIF_SET_HWADDRHINT(netif, &(pcb->addr_hint));
 843:Source\LwIP\src\core/udp.c ****   err = ip_output_if_src(q, src_ip, dst_ip, ttl, pcb->tos, ip_proto, netif);
 844:Source\LwIP\src\core/udp.c ****   NETIF_SET_HWADDRHINT(netif, NULL);
 845:Source\LwIP\src\core/udp.c **** 
 846:Source\LwIP\src\core/udp.c ****   /* @todo: must this be increased even if error occurred? */
 847:Source\LwIP\src\core/udp.c ****   MIB2_STATS_INC(mib2.udpoutdatagrams);
 848:Source\LwIP\src\core/udp.c **** 
 849:Source\LwIP\src\core/udp.c ****   /* did we chain a separate header pbuf earlier? */
 850:Source\LwIP\src\core/udp.c ****   if (q != p) {
 851:Source\LwIP\src\core/udp.c ****     /* free the header pbuf */
 852:Source\LwIP\src\core/udp.c ****     pbuf_free(q);
 853:Source\LwIP\src\core/udp.c ****     q = NULL;
 854:Source\LwIP\src\core/udp.c ****     /* p is still referenced by the caller, and will live on */
 855:Source\LwIP\src\core/udp.c ****   }
 856:Source\LwIP\src\core/udp.c **** 
 857:Source\LwIP\src\core/udp.c ****   UDP_STATS_INC(udp.xmit);
 858:Source\LwIP\src\core/udp.c ****   return err;
 859:Source\LwIP\src\core/udp.c **** }
 860:Source\LwIP\src\core/udp.c **** 
 861:Source\LwIP\src\core/udp.c **** /**
 862:Source\LwIP\src\core/udp.c ****  * @ingroup udp_raw
 863:Source\LwIP\src\core/udp.c ****  * Bind an UDP PCB.
ARM GAS  C:\Users\Phuong\AppData\Local\Temp\cc08x83E.s 			page 28


 864:Source\LwIP\src\core/udp.c ****  *
 865:Source\LwIP\src\core/udp.c ****  * @param pcb UDP PCB to be bound with a local address ipaddr and port.
 866:Source\LwIP\src\core/udp.c ****  * @param ipaddr local IP address to bind with. Use IP4_ADDR_ANY to
 867:Source\LwIP\src\core/udp.c ****  * bind to all local interfaces.
 868:Source\LwIP\src\core/udp.c ****  * @param port local UDP port to bind with. Use 0 to automatically bind
 869:Source\LwIP\src\core/udp.c ****  * to a random port between UDP_LOCAL_PORT_RANGE_START and
 870:Source\LwIP\src\core/udp.c ****  * UDP_LOCAL_PORT_RANGE_END.
 871:Source\LwIP\src\core/udp.c ****  *
 872:Source\LwIP\src\core/udp.c ****  * ipaddr & port are expected to be in the same byte order as in the pcb.
 873:Source\LwIP\src\core/udp.c ****  *
 874:Source\LwIP\src\core/udp.c ****  * @return lwIP error code.
 875:Source\LwIP\src\core/udp.c ****  * - ERR_OK. Successful. No error occurred.
 876:Source\LwIP\src\core/udp.c ****  * - ERR_USE. The specified ipaddr and port are already bound to by
 877:Source\LwIP\src\core/udp.c ****  * another UDP PCB.
 878:Source\LwIP\src\core/udp.c ****  *
 879:Source\LwIP\src\core/udp.c ****  * @see udp_disconnect()
 880:Source\LwIP\src\core/udp.c ****  */
 881:Source\LwIP\src\core/udp.c **** err_t
 882:Source\LwIP\src\core/udp.c **** udp_bind(struct udp_pcb *pcb, const ip_addr_t *ipaddr, u16_t port)
 883:Source\LwIP\src\core/udp.c **** {
 656              		.loc 1 883 0
 657              		.cfi_startproc
 658              		@ args = 0, pretend = 0, frame = 0
 659              		@ frame_needed = 0, uses_anonymous_args = 0
 660              	.LVL79:
 661 0000 70B5     		push	{r4, r5, r6, lr}
 662              		.cfi_def_cfa_offset 16
 663              		.cfi_offset 4, -16
 664              		.cfi_offset 5, -12
 665              		.cfi_offset 6, -8
 666              		.cfi_offset 14, -4
 667 0002 0400     		movs	r4, r0
 668 0004 0D1E     		subs	r5, r1, #0
 884:Source\LwIP\src\core/udp.c ****   struct udp_pcb *ipcb;
 885:Source\LwIP\src\core/udp.c ****   u8_t rebind;
 886:Source\LwIP\src\core/udp.c **** 
 887:Source\LwIP\src\core/udp.c **** #if LWIP_IPV4
 888:Source\LwIP\src\core/udp.c ****   /* Don't propagate NULL pointer (IPv4 ANY) to subsequent functions */
 889:Source\LwIP\src\core/udp.c ****   if (ipaddr == NULL) {
 669              		.loc 1 889 0
 670 0006 00D1     		bne	.L52
 890:Source\LwIP\src\core/udp.c ****     ipaddr = IP4_ADDR_ANY;
 671              		.loc 1 890 0
 672 0008 234D     		ldr	r5, .L71
 673              	.L52:
 674              	.LVL80:
 891:Source\LwIP\src\core/udp.c ****   }
 892:Source\LwIP\src\core/udp.c **** #endif /* LWIP_IPV4 */
 893:Source\LwIP\src\core/udp.c **** 
 894:Source\LwIP\src\core/udp.c ****   /* still need to check for ipaddr == NULL in IPv6 only case */
 895:Source\LwIP\src\core/udp.c ****   if ((pcb == NULL) || (ipaddr == NULL)) {
 675              		.loc 1 895 0
 676 000a 002C     		cmp	r4, #0
 677 000c 35D0     		beq	.L64
 678              		.loc 1 895 0 is_stmt 0 discriminator 1
 679 000e 002D     		cmp	r5, #0
 680 0010 36D0     		beq	.L65
ARM GAS  C:\Users\Phuong\AppData\Local\Temp\cc08x83E.s 			page 29


 681              	.LVL81:
 896:Source\LwIP\src\core/udp.c ****     return ERR_VAL;
 897:Source\LwIP\src\core/udp.c ****   }
 898:Source\LwIP\src\core/udp.c **** 
 899:Source\LwIP\src\core/udp.c ****   LWIP_DEBUGF(UDP_DEBUG | LWIP_DBG_TRACE, ("udp_bind(ipaddr = "));
 900:Source\LwIP\src\core/udp.c ****   ip_addr_debug_print(UDP_DEBUG | LWIP_DBG_TRACE, ipaddr);
 901:Source\LwIP\src\core/udp.c ****   LWIP_DEBUGF(UDP_DEBUG | LWIP_DBG_TRACE, (", port = %"U16_F")\n", port));
 902:Source\LwIP\src\core/udp.c **** 
 903:Source\LwIP\src\core/udp.c ****   rebind = 0;
 904:Source\LwIP\src\core/udp.c ****   /* Check for double bind and rebind of the same pcb */
 905:Source\LwIP\src\core/udp.c ****   for (ipcb = udp_pcbs; ipcb != NULL; ipcb = ipcb->next) {
 682              		.loc 1 905 0 is_stmt 1
 683 0012 224B     		ldr	r3, .L71+4
 684 0014 1B68     		ldr	r3, [r3]
 685              	.LVL82:
 686 0016 1900     		movs	r1, r3
 687 0018 02E0     		b	.L54
 688              	.LVL83:
 689              	.L56:
 906:Source\LwIP\src\core/udp.c ****     /* is this UDP PCB already on active list? */
 907:Source\LwIP\src\core/udp.c ****     if (pcb == ipcb) {
 690              		.loc 1 907 0
 691 001a A142     		cmp	r1, r4
 692 001c 04D0     		beq	.L66
 905:Source\LwIP\src\core/udp.c ****     /* is this UDP PCB already on active list? */
 693              		.loc 1 905 0 discriminator 2
 694 001e C968     		ldr	r1, [r1, #12]
 695              	.LVL84:
 696              	.L54:
 905:Source\LwIP\src\core/udp.c ****     /* is this UDP PCB already on active list? */
 697              		.loc 1 905 0 is_stmt 0 discriminator 1
 698 0020 0029     		cmp	r1, #0
 699 0022 FAD1     		bne	.L56
 903:Source\LwIP\src\core/udp.c ****   /* Check for double bind and rebind of the same pcb */
 700              		.loc 1 903 0 is_stmt 1
 701 0024 0026     		movs	r6, #0
 702 0026 00E0     		b	.L55
 703              	.L66:
 908:Source\LwIP\src\core/udp.c ****       rebind = 1;
 704              		.loc 1 908 0
 705 0028 0126     		movs	r6, #1
 706              	.L55:
 707              	.LVL85:
 909:Source\LwIP\src\core/udp.c ****       break;
 910:Source\LwIP\src\core/udp.c ****     }
 911:Source\LwIP\src\core/udp.c ****   }
 912:Source\LwIP\src\core/udp.c **** 
 913:Source\LwIP\src\core/udp.c ****   /* no port specified? */
 914:Source\LwIP\src\core/udp.c ****   if (port == 0) {
 708              		.loc 1 914 0
 709 002a 002A     		cmp	r2, #0
 710 002c 14D1     		bne	.L57
 915:Source\LwIP\src\core/udp.c ****     port = udp_new_port();
 711              		.loc 1 915 0
 712 002e FFF7FEFF 		bl	udp_new_port
 713              	.LVL86:
 714 0032 021E     		subs	r2, r0, #0
ARM GAS  C:\Users\Phuong\AppData\Local\Temp\cc08x83E.s 			page 30


 715              	.LVL87:
 916:Source\LwIP\src\core/udp.c ****     if (port == 0) {
 716              		.loc 1 916 0
 717 0034 12D1     		bne	.L58
 718 0036 26E0     		b	.L67
 719              	.LVL88:
 720              	.L61:
 917:Source\LwIP\src\core/udp.c ****       /* no more ports available in local range */
 918:Source\LwIP\src\core/udp.c ****       LWIP_DEBUGF(UDP_DEBUG, ("udp_bind: out of free UDP ports\n"));
 919:Source\LwIP\src\core/udp.c ****       return ERR_USE;
 920:Source\LwIP\src\core/udp.c ****     }
 921:Source\LwIP\src\core/udp.c ****   } else {
 922:Source\LwIP\src\core/udp.c ****     for (ipcb = udp_pcbs; ipcb != NULL; ipcb = ipcb->next) {
 923:Source\LwIP\src\core/udp.c ****       if (pcb != ipcb) {
 721              		.loc 1 923 0
 722 0038 A342     		cmp	r3, r4
 723 003a 0CD0     		beq	.L59
 924:Source\LwIP\src\core/udp.c ****       /* By default, we don't allow to bind to a port that any other udp
 925:Source\LwIP\src\core/udp.c ****          PCB is already bound to, unless *all* PCBs with that port have tha
 926:Source\LwIP\src\core/udp.c ****          REUSEADDR flag set. */
 927:Source\LwIP\src\core/udp.c **** #if SO_REUSE
 928:Source\LwIP\src\core/udp.c ****         if (!ip_get_option(pcb, SOF_REUSEADDR) ||
 724              		.loc 1 928 0
 725 003c 217A     		ldrb	r1, [r4, #8]
 726 003e 4907     		lsls	r1, r1, #29
 727 0040 02D5     		bpl	.L60
 929:Source\LwIP\src\core/udp.c ****             !ip_get_option(ipcb, SOF_REUSEADDR))
 728              		.loc 1 929 0 discriminator 1
 729 0042 197A     		ldrb	r1, [r3, #8]
 928:Source\LwIP\src\core/udp.c ****             !ip_get_option(ipcb, SOF_REUSEADDR))
 730              		.loc 1 928 0 discriminator 1
 731 0044 4907     		lsls	r1, r1, #29
 732 0046 06D4     		bmi	.L59
 733              	.L60:
 930:Source\LwIP\src\core/udp.c **** #endif /* SO_REUSE */
 931:Source\LwIP\src\core/udp.c ****         {
 932:Source\LwIP\src\core/udp.c ****           /* port matches that of PCB in list and REUSEADDR not set -> reject */
 933:Source\LwIP\src\core/udp.c ****           if ((ipcb->local_port == port) &&
 734              		.loc 1 933 0
 735 0048 598A     		ldrh	r1, [r3, #18]
 736 004a 8A42     		cmp	r2, r1
 737 004c 03D1     		bne	.L59
 738              		.loc 1 933 0 is_stmt 0 discriminator 1
 739 004e 1968     		ldr	r1, [r3]
 740 0050 2868     		ldr	r0, [r5]
 741 0052 8142     		cmp	r1, r0
 742 0054 1AD0     		beq	.L68
 743              	.L59:
 922:Source\LwIP\src\core/udp.c ****       if (pcb != ipcb) {
 744              		.loc 1 922 0 is_stmt 1 discriminator 2
 745 0056 DB68     		ldr	r3, [r3, #12]
 746              	.LVL89:
 747              	.L57:
 922:Source\LwIP\src\core/udp.c ****       if (pcb != ipcb) {
 748              		.loc 1 922 0 is_stmt 0 discriminator 1
 749 0058 002B     		cmp	r3, #0
 750 005a EDD1     		bne	.L61
ARM GAS  C:\Users\Phuong\AppData\Local\Temp\cc08x83E.s 			page 31


 751              	.LVL90:
 752              	.L58:
 934:Source\LwIP\src\core/udp.c ****               /* IP address matches? */
 935:Source\LwIP\src\core/udp.c ****               ip_addr_cmp(&ipcb->local_ip, ipaddr)) {
 936:Source\LwIP\src\core/udp.c ****             /* other PCB already binds to this local IP and port */
 937:Source\LwIP\src\core/udp.c ****             LWIP_DEBUGF(UDP_DEBUG,
 938:Source\LwIP\src\core/udp.c ****                         ("udp_bind: local port %"U16_F" already bound by another pcb\n", port));
 939:Source\LwIP\src\core/udp.c ****             return ERR_USE;
 940:Source\LwIP\src\core/udp.c ****           }
 941:Source\LwIP\src\core/udp.c ****         }
 942:Source\LwIP\src\core/udp.c ****       }
 943:Source\LwIP\src\core/udp.c ****     }
 944:Source\LwIP\src\core/udp.c ****   }
 945:Source\LwIP\src\core/udp.c **** 
 946:Source\LwIP\src\core/udp.c ****   ip_addr_set_ipaddr(&pcb->local_ip, ipaddr);
 753              		.loc 1 946 0 is_stmt 1
 754 005c 002D     		cmp	r5, #0
 755 005e 01D0     		beq	.L69
 756              		.loc 1 946 0 is_stmt 0 discriminator 1
 757 0060 2B68     		ldr	r3, [r5]
 758 0062 00E0     		b	.L62
 759              	.L69:
 760              		.loc 1 946 0
 761 0064 0023     		movs	r3, #0
 762              	.L62:
 763              		.loc 1 946 0 discriminator 4
 764 0066 2360     		str	r3, [r4]
 947:Source\LwIP\src\core/udp.c **** 
 948:Source\LwIP\src\core/udp.c ****   pcb->local_port = port;
 765              		.loc 1 948 0 is_stmt 1 discriminator 4
 766 0068 6282     		strh	r2, [r4, #18]
 949:Source\LwIP\src\core/udp.c ****   mib2_udp_bind(pcb);
 950:Source\LwIP\src\core/udp.c ****   /* pcb not active yet? */
 951:Source\LwIP\src\core/udp.c ****   if (rebind == 0) {
 767              		.loc 1 951 0 discriminator 4
 768 006a 002E     		cmp	r6, #0
 769 006c 11D1     		bne	.L70
 952:Source\LwIP\src\core/udp.c ****     /* place the PCB on the active list if not already there */
 953:Source\LwIP\src\core/udp.c ****     pcb->next = udp_pcbs;
 770              		.loc 1 953 0
 771 006e 0B4B     		ldr	r3, .L71+4
 772 0070 1A68     		ldr	r2, [r3]
 773              	.LVL91:
 774 0072 E260     		str	r2, [r4, #12]
 954:Source\LwIP\src\core/udp.c ****     udp_pcbs = pcb;
 775              		.loc 1 954 0
 776 0074 1C60     		str	r4, [r3]
 955:Source\LwIP\src\core/udp.c ****   }
 956:Source\LwIP\src\core/udp.c ****   LWIP_DEBUGF(UDP_DEBUG | LWIP_DBG_TRACE | LWIP_DBG_STATE, ("udp_bind: bound to "));
 957:Source\LwIP\src\core/udp.c ****   ip_addr_debug_print(UDP_DEBUG | LWIP_DBG_TRACE | LWIP_DBG_STATE, &pcb->local_ip);
 958:Source\LwIP\src\core/udp.c ****   LWIP_DEBUGF(UDP_DEBUG | LWIP_DBG_TRACE | LWIP_DBG_STATE, (", port %"U16_F")\n", pcb->local_port))
 959:Source\LwIP\src\core/udp.c ****   return ERR_OK;
 777              		.loc 1 959 0
 778 0076 0020     		movs	r0, #0
 779 0078 0CE0     		b	.L53
 780              	.LVL92:
 781              	.L64:
ARM GAS  C:\Users\Phuong\AppData\Local\Temp\cc08x83E.s 			page 32


 896:Source\LwIP\src\core/udp.c ****   }
 782              		.loc 1 896 0
 783 007a 0620     		movs	r0, #6
 784              	.LVL93:
 785 007c 4042     		rsbs	r0, r0, #0
 786 007e 09E0     		b	.L53
 787              	.LVL94:
 788              	.L65:
 789 0080 0620     		movs	r0, #6
 790              	.LVL95:
 791 0082 4042     		rsbs	r0, r0, #0
 792 0084 06E0     		b	.L53
 793              	.LVL96:
 794              	.L67:
 919:Source\LwIP\src\core/udp.c ****     }
 795              		.loc 1 919 0
 796 0086 0820     		movs	r0, #8
 797              	.LVL97:
 798 0088 4042     		rsbs	r0, r0, #0
 799 008a 03E0     		b	.L53
 800              	.LVL98:
 801              	.L68:
 939:Source\LwIP\src\core/udp.c ****           }
 802              		.loc 1 939 0
 803 008c 0820     		movs	r0, #8
 804 008e 4042     		rsbs	r0, r0, #0
 805 0090 00E0     		b	.L53
 806              	.LVL99:
 807              	.L70:
 808              		.loc 1 959 0
 809 0092 0020     		movs	r0, #0
 810              	.LVL100:
 811              	.L53:
 960:Source\LwIP\src\core/udp.c **** }
 812              		.loc 1 960 0
 813              		@ sp needed
 814              	.LVL101:
 815              	.LVL102:
 816 0094 70BD     		pop	{r4, r5, r6, pc}
 817              	.L72:
 818 0096 C046     		.align	2
 819              	.L71:
 820 0098 00000000 		.word	ip_addr_any
 821 009c 00000000 		.word	udp_pcbs
 822              		.cfi_endproc
 823              	.LFE61:
 824              		.size	udp_bind, .-udp_bind
 825              		.section	.text.udp_sendto_if_src,"ax",%progbits
 826              		.align	2
 827              		.global	udp_sendto_if_src
 828              		.code	16
 829              		.thumb_func
 830              		.type	udp_sendto_if_src, %function
 831              	udp_sendto_if_src:
 832              	.LFB60:
 663:Source\LwIP\src\core/udp.c **** #if LWIP_CHECKSUM_ON_COPY && CHECKSUM_GEN_UDP
 833              		.loc 1 663 0
ARM GAS  C:\Users\Phuong\AppData\Local\Temp\cc08x83E.s 			page 33


 834              		.cfi_startproc
 835              		@ args = 8, pretend = 0, frame = 8
 836              		@ frame_needed = 0, uses_anonymous_args = 0
 837              	.LVL103:
 838 0000 F0B5     		push	{r4, r5, r6, r7, lr}
 839              		.cfi_def_cfa_offset 20
 840              		.cfi_offset 4, -20
 841              		.cfi_offset 5, -16
 842              		.cfi_offset 6, -12
 843              		.cfi_offset 7, -8
 844              		.cfi_offset 14, -4
 845 0002 87B0     		sub	sp, sp, #28
 846              		.cfi_def_cfa_offset 48
 847 0004 0400     		movs	r4, r0
 848 0006 0491     		str	r1, [sp, #16]
 849 0008 1600     		movs	r6, r2
 850 000a 0593     		str	r3, [sp, #20]
 681:Source\LwIP\src\core/udp.c ****       !IP_ADDR_PCB_VERSION_MATCH(pcb, dst_ip)) {
 851              		.loc 1 681 0
 852 000c 0028     		cmp	r0, #0
 853 000e 72D0     		beq	.L83
 681:Source\LwIP\src\core/udp.c ****       !IP_ADDR_PCB_VERSION_MATCH(pcb, dst_ip)) {
 854              		.loc 1 681 0 is_stmt 0 discriminator 1
 855 0010 002A     		cmp	r2, #0
 856 0012 73D0     		beq	.L84
 700:Source\LwIP\src\core/udp.c ****     LWIP_DEBUGF(UDP_DEBUG | LWIP_DBG_TRACE, ("udp_send: not yet bound to a port, binding now\n"));
 857              		.loc 1 700 0 is_stmt 1
 858 0014 428A     		ldrh	r2, [r0, #18]
 859              	.LVL104:
 860 0016 002A     		cmp	r2, #0
 861 0018 04D1     		bne	.L75
 702:Source\LwIP\src\core/udp.c ****     if (err != ERR_OK) {
 862              		.loc 1 702 0
 863 001a 0100     		movs	r1, r0
 864              	.LVL105:
 865 001c FFF7FEFF 		bl	udp_bind
 866              	.LVL106:
 703:Source\LwIP\src\core/udp.c ****       LWIP_DEBUGF(UDP_DEBUG | LWIP_DBG_TRACE | LWIP_DBG_LEVEL_SERIOUS, ("udp_send: forced port bind
 867              		.loc 1 703 0
 868 0020 0028     		cmp	r0, #0
 869 0022 70D1     		bne	.L74
 870              	.LVL107:
 871              	.L75:
 710:Source\LwIP\src\core/udp.c ****     /* allocate header in a separate new pbuf */
 872              		.loc 1 710 0
 873 0024 0821     		movs	r1, #8
 874 0026 049D     		ldr	r5, [sp, #16]
 875 0028 2800     		movs	r0, r5
 876 002a FFF7FEFF 		bl	pbuf_header
 877              	.LVL108:
 878 002e 0028     		cmp	r0, #0
 879 0030 0DD0     		beq	.L86
 712:Source\LwIP\src\core/udp.c ****     /* new header pbuf could not be allocated? */
 880              		.loc 1 712 0
 881 0032 0022     		movs	r2, #0
 882 0034 0821     		movs	r1, #8
 883 0036 0120     		movs	r0, #1
ARM GAS  C:\Users\Phuong\AppData\Local\Temp\cc08x83E.s 			page 34


 884 0038 FFF7FEFF 		bl	pbuf_alloc
 885              	.LVL109:
 886 003c 071E     		subs	r7, r0, #0
 887              	.LVL110:
 714:Source\LwIP\src\core/udp.c ****       LWIP_DEBUGF(UDP_DEBUG | LWIP_DBG_TRACE | LWIP_DBG_LEVEL_SERIOUS, ("udp_send: could not alloca
 888              		.loc 1 714 0
 889 003e 60D0     		beq	.L87
 718:Source\LwIP\src\core/udp.c ****       /* chain header q in front of given pbuf p (only if p contains data) */
 890              		.loc 1 718 0
 891 0040 2B89     		ldrh	r3, [r5, #8]
 892 0042 002B     		cmp	r3, #0
 893 0044 04D0     		beq	.L76
 720:Source\LwIP\src\core/udp.c ****     }
 894              		.loc 1 720 0
 895 0046 0499     		ldr	r1, [sp, #16]
 896 0048 FFF7FEFF 		bl	pbuf_chain
 897              	.LVL111:
 898 004c 00E0     		b	.L76
 899              	.LVL112:
 900              	.L86:
 728:Source\LwIP\src\core/udp.c ****     LWIP_DEBUGF(UDP_DEBUG, ("udp_send: added header in given pbuf %p\n", (void *)p));
 901              		.loc 1 728 0
 902 004e 049F     		ldr	r7, [sp, #16]
 903              	.L76:
 904              	.LVL113:
 734:Source\LwIP\src\core/udp.c ****   udphdr->src = lwip_htons(pcb->local_port);
 905              		.loc 1 734 0
 906 0050 7D68     		ldr	r5, [r7, #4]
 907              	.LVL114:
 735:Source\LwIP\src\core/udp.c ****   udphdr->dest = lwip_htons(dst_port);
 908              		.loc 1 735 0
 909 0052 608A     		ldrh	r0, [r4, #18]
 910 0054 FFF7FEFF 		bl	lwip_htons
 911              	.LVL115:
 912 0058 2870     		strb	r0, [r5]
 913 005a 000A     		lsrs	r0, r0, #8
 914 005c 6870     		strb	r0, [r5, #1]
 736:Source\LwIP\src\core/udp.c ****   /* in UDP, 0 checksum means 'no checksum' */
 915              		.loc 1 736 0
 916 005e 0598     		ldr	r0, [sp, #20]
 917 0060 FFF7FEFF 		bl	lwip_htons
 918              	.LVL116:
 919 0064 A870     		strb	r0, [r5, #2]
 920 0066 000A     		lsrs	r0, r0, #8
 921 0068 E870     		strb	r0, [r5, #3]
 738:Source\LwIP\src\core/udp.c **** 
 922              		.loc 1 738 0
 923 006a 0023     		movs	r3, #0
 924 006c AB71     		strb	r3, [r5, #6]
 925 006e EB71     		strb	r3, [r5, #7]
 742:Source\LwIP\src\core/udp.c ****     q->flags |= PBUF_FLAG_MCASTLOOP;
 926              		.loc 1 742 0
 927 0070 237C     		ldrb	r3, [r4, #16]
 928 0072 1B07     		lsls	r3, r3, #28
 929 0074 08D5     		bpl	.L77
 742:Source\LwIP\src\core/udp.c ****     q->flags |= PBUF_FLAG_MCASTLOOP;
 930              		.loc 1 742 0 is_stmt 0 discriminator 1
ARM GAS  C:\Users\Phuong\AppData\Local\Temp\cc08x83E.s 			page 35


 931 0076 F023     		movs	r3, #240
 932 0078 3268     		ldr	r2, [r6]
 933 007a 1340     		ands	r3, r2
 934 007c E02B     		cmp	r3, #224
 935 007e 03D1     		bne	.L77
 743:Source\LwIP\src\core/udp.c ****   }
 936              		.loc 1 743 0 is_stmt 1
 937 0080 7A7B     		ldrb	r2, [r7, #13]
 938 0082 0423     		movs	r3, #4
 939 0084 1343     		orrs	r3, r2
 940 0086 7B73     		strb	r3, [r7, #13]
 941              	.L77:
 800:Source\LwIP\src\core/udp.c ****     /* calculate checksum */
 942              		.loc 1 800 0
 943 0088 3889     		ldrh	r0, [r7, #8]
 944 008a FFF7FEFF 		bl	lwip_htons
 945              	.LVL117:
 946 008e 2871     		strb	r0, [r5, #4]
 947 0090 000A     		lsrs	r0, r0, #8
 948 0092 6871     		strb	r0, [r5, #5]
 805:Source\LwIP\src\core/udp.c ****         u16_t udpchksum;
 949              		.loc 1 805 0
 950 0094 237C     		ldrb	r3, [r4, #16]
 951 0096 DB07     		lsls	r3, r3, #31
 952 0098 0CD4     		bmi	.L78
 953              	.LBB2:
 817:Source\LwIP\src\core/udp.c ****             src_ip, dst_ip);
 954              		.loc 1 817 0
 955 009a 3A89     		ldrh	r2, [r7, #8]
 956 009c 0096     		str	r6, [sp]
 957 009e 0D9B     		ldr	r3, [sp, #52]
 958 00a0 1121     		movs	r1, #17
 959 00a2 3800     		movs	r0, r7
 960 00a4 FFF7FEFF 		bl	ip_chksum_pseudo
 961              	.LVL118:
 822:Source\LwIP\src\core/udp.c ****           udpchksum = 0xffff;
 962              		.loc 1 822 0
 963 00a8 0028     		cmp	r0, #0
 964 00aa 00D1     		bne	.L79
 823:Source\LwIP\src\core/udp.c ****         }
 965              		.loc 1 823 0
 966 00ac 1748     		ldr	r0, .L89
 967              	.LVL119:
 968              	.L79:
 825:Source\LwIP\src\core/udp.c ****       }
 969              		.loc 1 825 0
 970 00ae A871     		strb	r0, [r5, #6]
 971 00b0 000A     		lsrs	r0, r0, #8
 972              	.LVL120:
 973 00b2 E871     		strb	r0, [r5, #7]
 974              	.L78:
 975              	.LVL121:
 976              	.LBE2:
 834:Source\LwIP\src\core/udp.c **** #else /* LWIP_MULTICAST_TX_OPTIONS */
 977              		.loc 1 834 0
 978 00b4 F023     		movs	r3, #240
 979 00b6 3268     		ldr	r2, [r6]
ARM GAS  C:\Users\Phuong\AppData\Local\Temp\cc08x83E.s 			page 36


 980 00b8 1340     		ands	r3, r2
 981 00ba E02B     		cmp	r3, #224
 982 00bc 01D1     		bne	.L80
 834:Source\LwIP\src\core/udp.c **** #else /* LWIP_MULTICAST_TX_OPTIONS */
 983              		.loc 1 834 0 is_stmt 0 discriminator 1
 984 00be 237F     		ldrb	r3, [r4, #28]
 985 00c0 00E0     		b	.L81
 986              	.L80:
 834:Source\LwIP\src\core/udp.c **** #else /* LWIP_MULTICAST_TX_OPTIONS */
 987              		.loc 1 834 0 discriminator 2
 988 00c2 A37A     		ldrb	r3, [r4, #10]
 989              	.L81:
 990              	.LVL122:
 843:Source\LwIP\src\core/udp.c ****   NETIF_SET_HWADDRHINT(netif, NULL);
 991              		.loc 1 843 0 is_stmt 1 discriminator 4
 992 00c4 627A     		ldrb	r2, [r4, #9]
 993 00c6 0C99     		ldr	r1, [sp, #48]
 994 00c8 0291     		str	r1, [sp, #8]
 995 00ca 1121     		movs	r1, #17
 996 00cc 0191     		str	r1, [sp, #4]
 997 00ce 0092     		str	r2, [sp]
 998 00d0 3200     		movs	r2, r6
 999 00d2 0D99     		ldr	r1, [sp, #52]
 1000 00d4 3800     		movs	r0, r7
 1001 00d6 FFF7FEFF 		bl	ip4_output_if_src
 1002              	.LVL123:
 1003 00da 0400     		movs	r4, r0
 1004              	.LVL124:
 850:Source\LwIP\src\core/udp.c ****     /* free the header pbuf */
 1005              		.loc 1 850 0 discriminator 4
 1006 00dc 049B     		ldr	r3, [sp, #16]
 1007 00de 9F42     		cmp	r7, r3
 1008 00e0 02D0     		beq	.L82
 852:Source\LwIP\src\core/udp.c ****     q = NULL;
 1009              		.loc 1 852 0
 1010 00e2 3800     		movs	r0, r7
 1011 00e4 FFF7FEFF 		bl	pbuf_free
 1012              	.LVL125:
 1013              	.L82:
 857:Source\LwIP\src\core/udp.c ****   return err;
 1014              		.loc 1 857 0
 1015 00e8 0949     		ldr	r1, .L89+4
 1016 00ea 9422     		movs	r2, #148
 1017 00ec 8B5A     		ldrh	r3, [r1, r2]
 1018 00ee 0133     		adds	r3, r3, #1
 1019 00f0 8B52     		strh	r3, [r1, r2]
 858:Source\LwIP\src\core/udp.c **** }
 1020              		.loc 1 858 0
 1021 00f2 2000     		movs	r0, r4
 1022 00f4 07E0     		b	.L74
 1023              	.LVL126:
 1024              	.L83:
 683:Source\LwIP\src\core/udp.c ****   }
 1025              		.loc 1 683 0
 1026 00f6 0620     		movs	r0, #6
 1027              	.LVL127:
 1028 00f8 4042     		rsbs	r0, r0, #0
ARM GAS  C:\Users\Phuong\AppData\Local\Temp\cc08x83E.s 			page 37


 1029 00fa 04E0     		b	.L74
 1030              	.LVL128:
 1031              	.L84:
 1032 00fc 0620     		movs	r0, #6
 1033              	.LVL129:
 1034 00fe 4042     		rsbs	r0, r0, #0
 1035 0100 01E0     		b	.L74
 1036              	.LVL130:
 1037              	.L87:
 716:Source\LwIP\src\core/udp.c ****     }
 1038              		.loc 1 716 0
 1039 0102 0120     		movs	r0, #1
 1040              	.LVL131:
 1041 0104 4042     		rsbs	r0, r0, #0
 1042              	.LVL132:
 1043              	.L74:
 859:Source\LwIP\src\core/udp.c **** 
 1044              		.loc 1 859 0
 1045 0106 07B0     		add	sp, sp, #28
 1046              		@ sp needed
 1047              	.LVL133:
 1048 0108 F0BD     		pop	{r4, r5, r6, r7, pc}
 1049              	.L90:
 1050 010a C046     		.align	2
 1051              	.L89:
 1052 010c FFFF0000 		.word	65535
 1053 0110 00000000 		.word	lwip_stats
 1054              		.cfi_endproc
 1055              	.LFE60:
 1056              		.size	udp_sendto_if_src, .-udp_sendto_if_src
 1057              		.section	.text.udp_sendto_if,"ax",%progbits
 1058              		.align	2
 1059              		.global	udp_sendto_if
 1060              		.code	16
 1061              		.thumb_func
 1062              		.type	udp_sendto_if, %function
 1063              	udp_sendto_if:
 1064              	.LFB59:
 594:Source\LwIP\src\core/udp.c **** #if LWIP_CHECKSUM_ON_COPY && CHECKSUM_GEN_UDP
 1065              		.loc 1 594 0
 1066              		.cfi_startproc
 1067              		@ args = 4, pretend = 0, frame = 0
 1068              		@ frame_needed = 0, uses_anonymous_args = 0
 1069              	.LVL134:
 1070 0000 F0B5     		push	{r4, r5, r6, r7, lr}
 1071              		.cfi_def_cfa_offset 20
 1072              		.cfi_offset 4, -20
 1073              		.cfi_offset 5, -16
 1074              		.cfi_offset 6, -12
 1075              		.cfi_offset 7, -8
 1076              		.cfi_offset 14, -4
 1077 0002 83B0     		sub	sp, sp, #12
 1078              		.cfi_def_cfa_offset 32
 1079 0004 089C     		ldr	r4, [sp, #32]
 608:Source\LwIP\src\core/udp.c ****     return ERR_VAL;
 1080              		.loc 1 608 0
 1081 0006 0028     		cmp	r0, #0
ARM GAS  C:\Users\Phuong\AppData\Local\Temp\cc08x83E.s 			page 38


 1082 0008 14D0     		beq	.L96
 608:Source\LwIP\src\core/udp.c ****     return ERR_VAL;
 1083              		.loc 1 608 0 is_stmt 0 discriminator 1
 1084 000a 002A     		cmp	r2, #0
 1085 000c 15D0     		beq	.L97
 635:Source\LwIP\src\core/udp.c ****       ip4_addr_ismulticast(ip_2_ip4(&pcb->local_ip))) {
 1086              		.loc 1 635 0 is_stmt 1
 1087 000e 051E     		subs	r5, r0, #0
 1088 0010 06D0     		beq	.L93
 635:Source\LwIP\src\core/udp.c ****       ip4_addr_ismulticast(ip_2_ip4(&pcb->local_ip))) {
 1089              		.loc 1 635 0 is_stmt 0 discriminator 1
 1090 0012 0668     		ldr	r6, [r0]
 1091 0014 002E     		cmp	r6, #0
 1092 0016 03D0     		beq	.L93
 636:Source\LwIP\src\core/udp.c ****     /* if the local_ip is any or multicast
 1093              		.loc 1 636 0 is_stmt 1 discriminator 2
 1094 0018 F027     		movs	r7, #240
 1095 001a 3740     		ands	r7, r6
 635:Source\LwIP\src\core/udp.c ****       ip4_addr_ismulticast(ip_2_ip4(&pcb->local_ip))) {
 1096              		.loc 1 635 0 discriminator 2
 1097 001c E02F     		cmp	r7, #224
 1098 001e 01D1     		bne	.L94
 1099              	.L93:
 639:Source\LwIP\src\core/udp.c ****   } else {
 1100              		.loc 1 639 0
 1101 0020 251D     		adds	r5, r4, #4
 1102              	.LVL135:
 1103 0022 02E0     		b	.L95
 1104              	.LVL136:
 1105              	.L94:
 643:Source\LwIP\src\core/udp.c ****       /* local_ip doesn't match, drop the packet */
 1106              		.loc 1 643 0
 1107 0024 6768     		ldr	r7, [r4, #4]
 1108 0026 BE42     		cmp	r6, r7
 1109 0028 0AD1     		bne	.L98
 1110              	.L95:
 1111              	.LVL137:
 654:Source\LwIP\src\core/udp.c **** #endif /* LWIP_CHECKSUM_ON_COPY && CHECKSUM_GEN_UDP */
 1112              		.loc 1 654 0
 1113 002a 0195     		str	r5, [sp, #4]
 1114 002c 0094     		str	r4, [sp]
 1115 002e FFF7FEFF 		bl	udp_sendto_if_src
 1116              	.LVL138:
 1117 0032 07E0     		b	.L92
 1118              	.LVL139:
 1119              	.L96:
 609:Source\LwIP\src\core/udp.c ****   }
 1120              		.loc 1 609 0
 1121 0034 0620     		movs	r0, #6
 1122              	.LVL140:
 1123 0036 4042     		rsbs	r0, r0, #0
 1124 0038 04E0     		b	.L92
 1125              	.LVL141:
 1126              	.L97:
 1127 003a 0620     		movs	r0, #6
 1128              	.LVL142:
 1129 003c 4042     		rsbs	r0, r0, #0
ARM GAS  C:\Users\Phuong\AppData\Local\Temp\cc08x83E.s 			page 39


 1130 003e 01E0     		b	.L92
 1131              	.LVL143:
 1132              	.L98:
 645:Source\LwIP\src\core/udp.c ****     }
 1133              		.loc 1 645 0
 1134 0040 0420     		movs	r0, #4
 1135              	.LVL144:
 1136 0042 4042     		rsbs	r0, r0, #0
 1137              	.LVL145:
 1138              	.L92:
 656:Source\LwIP\src\core/udp.c **** 
 1139              		.loc 1 656 0
 1140 0044 03B0     		add	sp, sp, #12
 1141              		@ sp needed
 1142 0046 F0BD     		pop	{r4, r5, r6, r7, pc}
 1143              		.cfi_endproc
 1144              	.LFE59:
 1145              		.size	udp_sendto_if, .-udp_sendto_if
 1146              		.section	.text.udp_sendto,"ax",%progbits
 1147              		.align	2
 1148              		.global	udp_sendto
 1149              		.code	16
 1150              		.thumb_func
 1151              		.type	udp_sendto, %function
 1152              	udp_sendto:
 1153              	.LFB58:
 504:Source\LwIP\src\core/udp.c **** #if LWIP_CHECKSUM_ON_COPY && CHECKSUM_GEN_UDP
 1154              		.loc 1 504 0
 1155              		.cfi_startproc
 1156              		@ args = 0, pretend = 0, frame = 0
 1157              		@ frame_needed = 0, uses_anonymous_args = 0
 1158              	.LVL146:
 1159 0000 F0B5     		push	{r4, r5, r6, r7, lr}
 1160              		.cfi_def_cfa_offset 20
 1161              		.cfi_offset 4, -20
 1162              		.cfi_offset 5, -16
 1163              		.cfi_offset 6, -12
 1164              		.cfi_offset 7, -8
 1165              		.cfi_offset 14, -4
 1166 0002 83B0     		sub	sp, sp, #12
 1167              		.cfi_def_cfa_offset 32
 1168 0004 0700     		movs	r7, r0
 1169 0006 0D00     		movs	r5, r1
 1170 0008 1400     		movs	r4, r2
 1171 000a 1E00     		movs	r6, r3
 1172              	.LVL147:
 519:Source\LwIP\src\core/udp.c ****     return ERR_VAL;
 1173              		.loc 1 519 0
 1174 000c 0028     		cmp	r0, #0
 1175 000e 27D0     		beq	.L103
 519:Source\LwIP\src\core/udp.c ****     return ERR_VAL;
 1176              		.loc 1 519 0 is_stmt 0 discriminator 1
 1177 0010 002A     		cmp	r2, #0
 1178 0012 28D0     		beq	.L104
 526:Source\LwIP\src\core/udp.c **** #if LWIP_IPV6
 1179              		.loc 1 526 0 is_stmt 1
 1180 0014 F023     		movs	r3, #240
ARM GAS  C:\Users\Phuong\AppData\Local\Temp\cc08x83E.s 			page 40


 1181              	.LVL148:
 1182 0016 1268     		ldr	r2, [r2]
 1183              	.LVL149:
 1184 0018 1340     		ands	r3, r2
 1185 001a E02B     		cmp	r3, #224
 1186 001c 08D1     		bne	.L105
 539:Source\LwIP\src\core/udp.c ****           !ip4_addr_cmp(ip_2_ip4(&pcb->multicast_ip), IP4_ADDR_BROADCAST)) {
 1187              		.loc 1 539 0
 1188 001e 8369     		ldr	r3, [r0, #24]
 1189 0020 002B     		cmp	r3, #0
 1190 0022 07D0     		beq	.L106
 540:Source\LwIP\src\core/udp.c ****         dst_ip_route = &pcb->multicast_ip;
 1191              		.loc 1 540 0 discriminator 1
 1192 0024 124A     		ldr	r2, .L108
 1193 0026 1268     		ldr	r2, [r2]
 539:Source\LwIP\src\core/udp.c ****           !ip4_addr_cmp(ip_2_ip4(&pcb->multicast_ip), IP4_ADDR_BROADCAST)) {
 1194              		.loc 1 539 0 discriminator 1
 1195 0028 9342     		cmp	r3, r2
 1196 002a 05D0     		beq	.L107
 541:Source\LwIP\src\core/udp.c ****       }
 1197              		.loc 1 541 0
 1198 002c 1830     		adds	r0, r0, #24
 1199              	.LVL150:
 1200 002e 04E0     		b	.L101
 1201              	.LVL151:
 1202              	.L105:
 517:Source\LwIP\src\core/udp.c **** 
 1203              		.loc 1 517 0
 1204 0030 2000     		movs	r0, r4
 1205              	.LVL152:
 1206 0032 02E0     		b	.L101
 1207              	.LVL153:
 1208              	.L106:
 1209 0034 2000     		movs	r0, r4
 1210              	.LVL154:
 1211 0036 00E0     		b	.L101
 1212              	.LVL155:
 1213              	.L107:
 1214 0038 2000     		movs	r0, r4
 1215              	.LVL156:
 1216              	.L101:
 553:Source\LwIP\src\core/udp.c ****   }
 1217              		.loc 1 553 0
 1218 003a FFF7FEFF 		bl	ip4_route
 1219              	.LVL157:
 557:Source\LwIP\src\core/udp.c ****     LWIP_DEBUGF(UDP_DEBUG | LWIP_DBG_LEVEL_SERIOUS, ("udp_send: No route to "));
 1220              		.loc 1 557 0
 1221 003e 0028     		cmp	r0, #0
 1222 0040 06D1     		bne	.L102
 561:Source\LwIP\src\core/udp.c ****     return ERR_RTE;
 1223              		.loc 1 561 0
 1224 0042 0C49     		ldr	r1, .L108+4
 1225 0044 A222     		movs	r2, #162
 1226 0046 8B5A     		ldrh	r3, [r1, r2]
 1227 0048 0133     		adds	r3, r3, #1
 1228 004a 8B52     		strh	r3, [r1, r2]
 562:Source\LwIP\src\core/udp.c ****   }
ARM GAS  C:\Users\Phuong\AppData\Local\Temp\cc08x83E.s 			page 41


 1229              		.loc 1 562 0
 1230 004c 0438     		subs	r0, r0, #4
 1231              	.LVL158:
 1232 004e 0CE0     		b	.L100
 1233              	.LVL159:
 1234              	.L102:
 567:Source\LwIP\src\core/udp.c **** #endif /* LWIP_CHECKSUM_ON_COPY && CHECKSUM_GEN_UDP */
 1235              		.loc 1 567 0
 1236 0050 0090     		str	r0, [sp]
 1237 0052 3300     		movs	r3, r6
 1238 0054 2200     		movs	r2, r4
 1239 0056 2900     		movs	r1, r5
 1240 0058 3800     		movs	r0, r7
 1241              	.LVL160:
 1242 005a FFF7FEFF 		bl	udp_sendto_if
 1243              	.LVL161:
 1244 005e 04E0     		b	.L100
 1245              	.LVL162:
 1246              	.L103:
 520:Source\LwIP\src\core/udp.c ****   }
 1247              		.loc 1 520 0
 1248 0060 0620     		movs	r0, #6
 1249              	.LVL163:
 1250 0062 4042     		rsbs	r0, r0, #0
 1251 0064 01E0     		b	.L100
 1252              	.LVL164:
 1253              	.L104:
 1254 0066 0620     		movs	r0, #6
 1255              	.LVL165:
 1256 0068 4042     		rsbs	r0, r0, #0
 1257              	.LVL166:
 1258              	.L100:
 569:Source\LwIP\src\core/udp.c **** 
 1259              		.loc 1 569 0
 1260 006a 03B0     		add	sp, sp, #12
 1261              		@ sp needed
 1262              	.LVL167:
 1263              	.LVL168:
 1264              	.LVL169:
 1265 006c F0BD     		pop	{r4, r5, r6, r7, pc}
 1266              	.L109:
 1267 006e C046     		.align	2
 1268              	.L108:
 1269 0070 00000000 		.word	ip_addr_broadcast
 1270 0074 00000000 		.word	lwip_stats
 1271              		.cfi_endproc
 1272              	.LFE58:
 1273              		.size	udp_sendto, .-udp_sendto
 1274              		.section	.text.udp_send,"ax",%progbits
 1275              		.align	2
 1276              		.global	udp_send
 1277              		.code	16
 1278              		.thumb_func
 1279              		.type	udp_send, %function
 1280              	udp_send:
 1281              	.LFB57:
 456:Source\LwIP\src\core/udp.c ****   if ((pcb == NULL) || IP_IS_ANY_TYPE_VAL(pcb->remote_ip)) {
ARM GAS  C:\Users\Phuong\AppData\Local\Temp\cc08x83E.s 			page 42


 1282              		.loc 1 456 0
 1283              		.cfi_startproc
 1284              		@ args = 0, pretend = 0, frame = 0
 1285              		@ frame_needed = 0, uses_anonymous_args = 0
 1286              	.LVL170:
 1287 0000 10B5     		push	{r4, lr}
 1288              		.cfi_def_cfa_offset 8
 1289              		.cfi_offset 4, -8
 1290              		.cfi_offset 14, -4
 457:Source\LwIP\src\core/udp.c ****     return ERR_VAL;
 1291              		.loc 1 457 0
 1292 0002 0028     		cmp	r0, #0
 1293 0004 04D0     		beq	.L112
 462:Source\LwIP\src\core/udp.c **** }
 1294              		.loc 1 462 0
 1295 0006 021D     		adds	r2, r0, #4
 1296 0008 838A     		ldrh	r3, [r0, #20]
 1297 000a FFF7FEFF 		bl	udp_sendto
 1298              	.LVL171:
 1299 000e 01E0     		b	.L111
 1300              	.LVL172:
 1301              	.L112:
 458:Source\LwIP\src\core/udp.c ****   }
 1302              		.loc 1 458 0
 1303 0010 0620     		movs	r0, #6
 1304              	.LVL173:
 1305 0012 4042     		rsbs	r0, r0, #0
 1306              	.LVL174:
 1307              	.L111:
 463:Source\LwIP\src\core/udp.c **** 
 1308              		.loc 1 463 0
 1309              		@ sp needed
 1310 0014 10BD     		pop	{r4, pc}
 1311              		.cfi_endproc
 1312              	.LFE57:
 1313              		.size	udp_send, .-udp_send
 1314 0016 C046     		.section	.text.udp_connect,"ax",%progbits
 1315              		.align	2
 1316              		.global	udp_connect
 1317              		.code	16
 1318              		.thumb_func
 1319              		.type	udp_connect, %function
 1320              	udp_connect:
 1321              	.LFB62:
 961:Source\LwIP\src\core/udp.c **** 
 962:Source\LwIP\src\core/udp.c **** /**
 963:Source\LwIP\src\core/udp.c ****  * @ingroup udp_raw
 964:Source\LwIP\src\core/udp.c ****  * Connect an UDP PCB.
 965:Source\LwIP\src\core/udp.c ****  *
 966:Source\LwIP\src\core/udp.c ****  * This will associate the UDP PCB with the remote address.
 967:Source\LwIP\src\core/udp.c ****  *
 968:Source\LwIP\src\core/udp.c ****  * @param pcb UDP PCB to be connected with remote address ipaddr and port.
 969:Source\LwIP\src\core/udp.c ****  * @param ipaddr remote IP address to connect with.
 970:Source\LwIP\src\core/udp.c ****  * @param port remote UDP port to connect with.
 971:Source\LwIP\src\core/udp.c ****  *
 972:Source\LwIP\src\core/udp.c ****  * @return lwIP error code
 973:Source\LwIP\src\core/udp.c ****  *
ARM GAS  C:\Users\Phuong\AppData\Local\Temp\cc08x83E.s 			page 43


 974:Source\LwIP\src\core/udp.c ****  * ipaddr & port are expected to be in the same byte order as in the pcb.
 975:Source\LwIP\src\core/udp.c ****  *
 976:Source\LwIP\src\core/udp.c ****  * The udp pcb is bound to a random local port if not already bound.
 977:Source\LwIP\src\core/udp.c ****  *
 978:Source\LwIP\src\core/udp.c ****  * @see udp_disconnect()
 979:Source\LwIP\src\core/udp.c ****  */
 980:Source\LwIP\src\core/udp.c **** err_t
 981:Source\LwIP\src\core/udp.c **** udp_connect(struct udp_pcb *pcb, const ip_addr_t *ipaddr, u16_t port)
 982:Source\LwIP\src\core/udp.c **** {
 1322              		.loc 1 982 0
 1323              		.cfi_startproc
 1324              		@ args = 0, pretend = 0, frame = 0
 1325              		@ frame_needed = 0, uses_anonymous_args = 0
 1326              	.LVL175:
 1327 0000 70B5     		push	{r4, r5, r6, lr}
 1328              		.cfi_def_cfa_offset 16
 1329              		.cfi_offset 4, -16
 1330              		.cfi_offset 5, -12
 1331              		.cfi_offset 6, -8
 1332              		.cfi_offset 14, -4
 1333 0002 0400     		movs	r4, r0
 1334 0004 0D00     		movs	r5, r1
 1335 0006 1600     		movs	r6, r2
 983:Source\LwIP\src\core/udp.c ****   struct udp_pcb *ipcb;
 984:Source\LwIP\src\core/udp.c **** 
 985:Source\LwIP\src\core/udp.c ****   if ((pcb == NULL) || (ipaddr == NULL)) {
 1336              		.loc 1 985 0
 1337 0008 0028     		cmp	r0, #0
 1338 000a 22D0     		beq	.L119
 1339              		.loc 1 985 0 is_stmt 0 discriminator 1
 1340 000c 0029     		cmp	r1, #0
 1341 000e 23D0     		beq	.L120
 986:Source\LwIP\src\core/udp.c ****     return ERR_VAL;
 987:Source\LwIP\src\core/udp.c ****   }
 988:Source\LwIP\src\core/udp.c **** 
 989:Source\LwIP\src\core/udp.c ****   if (pcb->local_port == 0) {
 1342              		.loc 1 989 0 is_stmt 1
 1343 0010 428A     		ldrh	r2, [r0, #18]
 1344              	.LVL176:
 1345 0012 002A     		cmp	r2, #0
 1346 0014 04D1     		bne	.L115
 1347              	.LBB3:
 990:Source\LwIP\src\core/udp.c ****     err_t err = udp_bind(pcb, &pcb->local_ip, pcb->local_port);
 1348              		.loc 1 990 0
 1349 0016 0100     		movs	r1, r0
 1350              	.LVL177:
 1351 0018 FFF7FEFF 		bl	udp_bind
 1352              	.LVL178:
 991:Source\LwIP\src\core/udp.c ****     if (err != ERR_OK) {
 1353              		.loc 1 991 0
 1354 001c 0028     		cmp	r0, #0
 1355 001e 1FD1     		bne	.L114
 1356              	.LVL179:
 1357              	.L115:
 1358              	.LBE3:
 992:Source\LwIP\src\core/udp.c ****       return err;
 993:Source\LwIP\src\core/udp.c ****     }
ARM GAS  C:\Users\Phuong\AppData\Local\Temp\cc08x83E.s 			page 44


 994:Source\LwIP\src\core/udp.c ****   }
 995:Source\LwIP\src\core/udp.c **** 
 996:Source\LwIP\src\core/udp.c ****   ip_addr_set_ipaddr(&pcb->remote_ip, ipaddr);
 1359              		.loc 1 996 0
 1360 0020 002D     		cmp	r5, #0
 1361 0022 01D0     		beq	.L122
 1362              		.loc 1 996 0 is_stmt 0 discriminator 1
 1363 0024 2B68     		ldr	r3, [r5]
 1364 0026 00E0     		b	.L116
 1365              	.L122:
 1366              		.loc 1 996 0
 1367 0028 0023     		movs	r3, #0
 1368              	.L116:
 1369              		.loc 1 996 0 discriminator 4
 1370 002a 6360     		str	r3, [r4, #4]
 997:Source\LwIP\src\core/udp.c ****   pcb->remote_port = port;
 1371              		.loc 1 997 0 is_stmt 1 discriminator 4
 1372 002c A682     		strh	r6, [r4, #20]
 998:Source\LwIP\src\core/udp.c ****   pcb->flags |= UDP_FLAGS_CONNECTED;
 1373              		.loc 1 998 0 discriminator 4
 1374 002e 227C     		ldrb	r2, [r4, #16]
 1375 0030 0423     		movs	r3, #4
 1376 0032 1343     		orrs	r3, r2
 1377 0034 2374     		strb	r3, [r4, #16]
 999:Source\LwIP\src\core/udp.c **** 
1000:Source\LwIP\src\core/udp.c ****   LWIP_DEBUGF(UDP_DEBUG | LWIP_DBG_TRACE | LWIP_DBG_STATE, ("udp_connect: connected to "));
1001:Source\LwIP\src\core/udp.c ****   ip_addr_debug_print(UDP_DEBUG | LWIP_DBG_TRACE | LWIP_DBG_STATE,
1002:Source\LwIP\src\core/udp.c ****                       &pcb->remote_ip);
1003:Source\LwIP\src\core/udp.c ****   LWIP_DEBUGF(UDP_DEBUG | LWIP_DBG_TRACE | LWIP_DBG_STATE, (", port %"U16_F")\n", pcb->remote_port)
1004:Source\LwIP\src\core/udp.c **** 
1005:Source\LwIP\src\core/udp.c ****   /* Insert UDP PCB into the list of active UDP PCBs. */
1006:Source\LwIP\src\core/udp.c ****   for (ipcb = udp_pcbs; ipcb != NULL; ipcb = ipcb->next) {
 1378              		.loc 1 1006 0 discriminator 4
 1379 0036 0B4B     		ldr	r3, .L124
 1380 0038 1A68     		ldr	r2, [r3]
 1381              	.LVL180:
 1382 003a 1300     		movs	r3, r2
 1383 003c 02E0     		b	.L117
 1384              	.LVL181:
 1385              	.L118:
1007:Source\LwIP\src\core/udp.c ****     if (pcb == ipcb) {
 1386              		.loc 1 1007 0
 1387 003e A342     		cmp	r3, r4
 1388 0040 0DD0     		beq	.L123
1006:Source\LwIP\src\core/udp.c ****     if (pcb == ipcb) {
 1389              		.loc 1 1006 0 discriminator 2
 1390 0042 DB68     		ldr	r3, [r3, #12]
 1391              	.LVL182:
 1392              	.L117:
1006:Source\LwIP\src\core/udp.c ****     if (pcb == ipcb) {
 1393              		.loc 1 1006 0 is_stmt 0 discriminator 1
 1394 0044 002B     		cmp	r3, #0
 1395 0046 FAD1     		bne	.L118
1008:Source\LwIP\src\core/udp.c ****       /* already on the list, just return */
1009:Source\LwIP\src\core/udp.c ****       return ERR_OK;
1010:Source\LwIP\src\core/udp.c ****     }
1011:Source\LwIP\src\core/udp.c ****   }
ARM GAS  C:\Users\Phuong\AppData\Local\Temp\cc08x83E.s 			page 45


1012:Source\LwIP\src\core/udp.c ****   /* PCB not yet on the list, add PCB now */
1013:Source\LwIP\src\core/udp.c ****   pcb->next = udp_pcbs;
 1396              		.loc 1 1013 0 is_stmt 1
 1397 0048 E260     		str	r2, [r4, #12]
1014:Source\LwIP\src\core/udp.c ****   udp_pcbs = pcb;
 1398              		.loc 1 1014 0
 1399 004a 064B     		ldr	r3, .L124
 1400              	.LVL183:
 1401 004c 1C60     		str	r4, [r3]
1015:Source\LwIP\src\core/udp.c ****   return ERR_OK;
 1402              		.loc 1 1015 0
 1403 004e 0020     		movs	r0, #0
 1404 0050 06E0     		b	.L114
 1405              	.LVL184:
 1406              	.L119:
 986:Source\LwIP\src\core/udp.c ****   }
 1407              		.loc 1 986 0
 1408 0052 0620     		movs	r0, #6
 1409              	.LVL185:
 1410 0054 4042     		rsbs	r0, r0, #0
 1411 0056 03E0     		b	.L114
 1412              	.LVL186:
 1413              	.L120:
 1414 0058 0620     		movs	r0, #6
 1415              	.LVL187:
 1416 005a 4042     		rsbs	r0, r0, #0
 1417 005c 00E0     		b	.L114
 1418              	.LVL188:
 1419              	.L123:
1009:Source\LwIP\src\core/udp.c ****     }
 1420              		.loc 1 1009 0
 1421 005e 0020     		movs	r0, #0
 1422              	.LVL189:
 1423              	.L114:
1016:Source\LwIP\src\core/udp.c **** }
 1424              		.loc 1 1016 0
 1425              		@ sp needed
 1426              	.LVL190:
 1427              	.LVL191:
 1428 0060 70BD     		pop	{r4, r5, r6, pc}
 1429              	.L125:
 1430 0062 C046     		.align	2
 1431              	.L124:
 1432 0064 00000000 		.word	udp_pcbs
 1433              		.cfi_endproc
 1434              	.LFE62:
 1435              		.size	udp_connect, .-udp_connect
 1436              		.section	.text.udp_disconnect,"ax",%progbits
 1437              		.align	2
 1438              		.global	udp_disconnect
 1439              		.code	16
 1440              		.thumb_func
 1441              		.type	udp_disconnect, %function
 1442              	udp_disconnect:
 1443              	.LFB63:
1017:Source\LwIP\src\core/udp.c **** 
1018:Source\LwIP\src\core/udp.c **** /**
ARM GAS  C:\Users\Phuong\AppData\Local\Temp\cc08x83E.s 			page 46


1019:Source\LwIP\src\core/udp.c ****  * @ingroup udp_raw
1020:Source\LwIP\src\core/udp.c ****  * Disconnect a UDP PCB
1021:Source\LwIP\src\core/udp.c ****  *
1022:Source\LwIP\src\core/udp.c ****  * @param pcb the udp pcb to disconnect.
1023:Source\LwIP\src\core/udp.c ****  */
1024:Source\LwIP\src\core/udp.c **** void
1025:Source\LwIP\src\core/udp.c **** udp_disconnect(struct udp_pcb *pcb)
1026:Source\LwIP\src\core/udp.c **** {
 1444              		.loc 1 1026 0
 1445              		.cfi_startproc
 1446              		@ args = 0, pretend = 0, frame = 0
 1447              		@ frame_needed = 0, uses_anonymous_args = 0
 1448              		@ link register save eliminated.
 1449              	.LVL192:
1027:Source\LwIP\src\core/udp.c ****   /* reset remote address association */
1028:Source\LwIP\src\core/udp.c **** #if LWIP_IPV4 && LWIP_IPV6
1029:Source\LwIP\src\core/udp.c ****   if (IP_IS_ANY_TYPE_VAL(pcb->local_ip)) {
1030:Source\LwIP\src\core/udp.c ****     ip_addr_copy(pcb->remote_ip, *IP_ANY_TYPE);
1031:Source\LwIP\src\core/udp.c ****   } else {
1032:Source\LwIP\src\core/udp.c **** #endif
1033:Source\LwIP\src\core/udp.c ****     ip_addr_set_any(IP_IS_V6_VAL(pcb->remote_ip), &pcb->remote_ip);
 1450              		.loc 1 1033 0
 1451 0000 0023     		movs	r3, #0
 1452 0002 4360     		str	r3, [r0, #4]
1034:Source\LwIP\src\core/udp.c **** #if LWIP_IPV4 && LWIP_IPV6
1035:Source\LwIP\src\core/udp.c ****   }
1036:Source\LwIP\src\core/udp.c **** #endif
1037:Source\LwIP\src\core/udp.c ****   pcb->remote_port = 0;
 1453              		.loc 1 1037 0
 1454 0004 8382     		strh	r3, [r0, #20]
1038:Source\LwIP\src\core/udp.c ****   /* mark PCB as unconnected */
1039:Source\LwIP\src\core/udp.c ****   pcb->flags &= ~UDP_FLAGS_CONNECTED;
 1455              		.loc 1 1039 0
 1456 0006 037C     		ldrb	r3, [r0, #16]
 1457 0008 0422     		movs	r2, #4
 1458 000a 9343     		bics	r3, r2
 1459 000c 0374     		strb	r3, [r0, #16]
1040:Source\LwIP\src\core/udp.c **** }
 1460              		.loc 1 1040 0
 1461              		@ sp needed
 1462 000e 7047     		bx	lr
 1463              		.cfi_endproc
 1464              	.LFE63:
 1465              		.size	udp_disconnect, .-udp_disconnect
 1466              		.section	.text.udp_recv,"ax",%progbits
 1467              		.align	2
 1468              		.global	udp_recv
 1469              		.code	16
 1470              		.thumb_func
 1471              		.type	udp_recv, %function
 1472              	udp_recv:
 1473              	.LFB64:
1041:Source\LwIP\src\core/udp.c **** 
1042:Source\LwIP\src\core/udp.c **** /**
1043:Source\LwIP\src\core/udp.c ****  * @ingroup udp_raw
1044:Source\LwIP\src\core/udp.c ****  * Set a receive callback for a UDP PCB
1045:Source\LwIP\src\core/udp.c ****  *
ARM GAS  C:\Users\Phuong\AppData\Local\Temp\cc08x83E.s 			page 47


1046:Source\LwIP\src\core/udp.c ****  * This callback will be called when receiving a datagram for the pcb.
1047:Source\LwIP\src\core/udp.c ****  *
1048:Source\LwIP\src\core/udp.c ****  * @param pcb the pcb for which to set the recv callback
1049:Source\LwIP\src\core/udp.c ****  * @param recv function pointer of the callback function
1050:Source\LwIP\src\core/udp.c ****  * @param recv_arg additional argument to pass to the callback function
1051:Source\LwIP\src\core/udp.c ****  */
1052:Source\LwIP\src\core/udp.c **** void
1053:Source\LwIP\src\core/udp.c **** udp_recv(struct udp_pcb *pcb, udp_recv_fn recv, void *recv_arg)
1054:Source\LwIP\src\core/udp.c **** {
 1474              		.loc 1 1054 0
 1475              		.cfi_startproc
 1476              		@ args = 0, pretend = 0, frame = 0
 1477              		@ frame_needed = 0, uses_anonymous_args = 0
 1478              		@ link register save eliminated.
 1479              	.LVL193:
1055:Source\LwIP\src\core/udp.c ****   /* remember recv() callback and user data */
1056:Source\LwIP\src\core/udp.c ****   pcb->recv = recv;
 1480              		.loc 1 1056 0
 1481 0000 0162     		str	r1, [r0, #32]
1057:Source\LwIP\src\core/udp.c ****   pcb->recv_arg = recv_arg;
 1482              		.loc 1 1057 0
 1483 0002 4262     		str	r2, [r0, #36]
1058:Source\LwIP\src\core/udp.c **** }
 1484              		.loc 1 1058 0
 1485              		@ sp needed
 1486 0004 7047     		bx	lr
 1487              		.cfi_endproc
 1488              	.LFE64:
 1489              		.size	udp_recv, .-udp_recv
 1490              		.section	.text.udp_remove,"ax",%progbits
 1491              		.align	2
 1492              		.global	udp_remove
 1493              		.code	16
 1494              		.thumb_func
 1495              		.type	udp_remove, %function
 1496              	udp_remove:
 1497              	.LFB65:
1059:Source\LwIP\src\core/udp.c **** 
1060:Source\LwIP\src\core/udp.c **** /**
1061:Source\LwIP\src\core/udp.c ****  * @ingroup udp_raw
1062:Source\LwIP\src\core/udp.c ****  * Remove an UDP PCB.
1063:Source\LwIP\src\core/udp.c ****  *
1064:Source\LwIP\src\core/udp.c ****  * @param pcb UDP PCB to be removed. The PCB is removed from the list of
1065:Source\LwIP\src\core/udp.c ****  * UDP PCB's and the data structure is freed from memory.
1066:Source\LwIP\src\core/udp.c ****  *
1067:Source\LwIP\src\core/udp.c ****  * @see udp_new()
1068:Source\LwIP\src\core/udp.c ****  */
1069:Source\LwIP\src\core/udp.c **** void
1070:Source\LwIP\src\core/udp.c **** udp_remove(struct udp_pcb *pcb)
1071:Source\LwIP\src\core/udp.c **** {
 1498              		.loc 1 1071 0
 1499              		.cfi_startproc
 1500              		@ args = 0, pretend = 0, frame = 0
 1501              		@ frame_needed = 0, uses_anonymous_args = 0
 1502              	.LVL194:
 1503 0000 10B5     		push	{r4, lr}
 1504              		.cfi_def_cfa_offset 8
ARM GAS  C:\Users\Phuong\AppData\Local\Temp\cc08x83E.s 			page 48


 1505              		.cfi_offset 4, -8
 1506              		.cfi_offset 14, -4
 1507 0002 0100     		movs	r1, r0
1072:Source\LwIP\src\core/udp.c ****   struct udp_pcb *pcb2;
1073:Source\LwIP\src\core/udp.c **** 
1074:Source\LwIP\src\core/udp.c ****   mib2_udp_unbind(pcb);
1075:Source\LwIP\src\core/udp.c ****   /* pcb to be removed is first in list? */
1076:Source\LwIP\src\core/udp.c ****   if (udp_pcbs == pcb) {
 1508              		.loc 1 1076 0
 1509 0004 0B4B     		ldr	r3, .L134
 1510 0006 1A68     		ldr	r2, [r3]
 1511 0008 8242     		cmp	r2, r0
 1512 000a 0DD1     		bne	.L129
1077:Source\LwIP\src\core/udp.c ****     /* make list start at 2nd pcb */
1078:Source\LwIP\src\core/udp.c ****     udp_pcbs = udp_pcbs->next;
 1513              		.loc 1 1078 0
 1514 000c D268     		ldr	r2, [r2, #12]
 1515 000e 1A60     		str	r2, [r3]
 1516 0010 0CE0     		b	.L130
 1517              	.LVL195:
 1518              	.L131:
1079:Source\LwIP\src\core/udp.c ****     /* pcb not 1st in list */
1080:Source\LwIP\src\core/udp.c ****   } else {
1081:Source\LwIP\src\core/udp.c ****     for (pcb2 = udp_pcbs; pcb2 != NULL; pcb2 = pcb2->next) {
1082:Source\LwIP\src\core/udp.c ****       /* find pcb in udp_pcbs list */
1083:Source\LwIP\src\core/udp.c ****       if (pcb2->next != NULL && pcb2->next == pcb) {
 1519              		.loc 1 1083 0
 1520 0012 D368     		ldr	r3, [r2, #12]
 1521 0014 002B     		cmp	r3, #0
 1522 0016 04D0     		beq	.L132
 1523              		.loc 1 1083 0 is_stmt 0 discriminator 1
 1524 0018 9942     		cmp	r1, r3
 1525 001a 04D1     		bne	.L133
1084:Source\LwIP\src\core/udp.c ****         /* remove pcb from list */
1085:Source\LwIP\src\core/udp.c ****         pcb2->next = pcb->next;
 1526              		.loc 1 1085 0 is_stmt 1
 1527 001c CB68     		ldr	r3, [r1, #12]
 1528 001e D360     		str	r3, [r2, #12]
1086:Source\LwIP\src\core/udp.c ****         break;
 1529              		.loc 1 1086 0
 1530 0020 04E0     		b	.L130
 1531              	.L132:
 1532 0022 1A00     		movs	r2, r3
 1533              	.LVL196:
 1534 0024 00E0     		b	.L129
 1535              	.LVL197:
 1536              	.L133:
 1537 0026 1A00     		movs	r2, r3
 1538              	.LVL198:
 1539              	.L129:
1081:Source\LwIP\src\core/udp.c ****       /* find pcb in udp_pcbs list */
 1540              		.loc 1 1081 0 discriminator 1
 1541 0028 002A     		cmp	r2, #0
 1542 002a F2D1     		bne	.L131
 1543              	.LVL199:
 1544              	.L130:
1087:Source\LwIP\src\core/udp.c ****       }
ARM GAS  C:\Users\Phuong\AppData\Local\Temp\cc08x83E.s 			page 49


1088:Source\LwIP\src\core/udp.c ****     }
1089:Source\LwIP\src\core/udp.c ****   }
1090:Source\LwIP\src\core/udp.c ****   memp_free(MEMP_UDP_PCB, pcb);
 1545              		.loc 1 1090 0
 1546 002c 0120     		movs	r0, #1
 1547              	.LVL200:
 1548 002e FFF7FEFF 		bl	memp_free
 1549              	.LVL201:
1091:Source\LwIP\src\core/udp.c **** }
 1550              		.loc 1 1091 0
 1551              		@ sp needed
 1552 0032 10BD     		pop	{r4, pc}
 1553              	.L135:
 1554              		.align	2
 1555              	.L134:
 1556 0034 00000000 		.word	udp_pcbs
 1557              		.cfi_endproc
 1558              	.LFE65:
 1559              		.size	udp_remove, .-udp_remove
 1560              		.section	.text.udp_new,"ax",%progbits
 1561              		.align	2
 1562              		.global	udp_new
 1563              		.code	16
 1564              		.thumb_func
 1565              		.type	udp_new, %function
 1566              	udp_new:
 1567              	.LFB66:
1092:Source\LwIP\src\core/udp.c **** 
1093:Source\LwIP\src\core/udp.c **** /**
1094:Source\LwIP\src\core/udp.c ****  * @ingroup udp_raw
1095:Source\LwIP\src\core/udp.c ****  * Create a UDP PCB.
1096:Source\LwIP\src\core/udp.c ****  *
1097:Source\LwIP\src\core/udp.c ****  * @return The UDP PCB which was created. NULL if the PCB data structure
1098:Source\LwIP\src\core/udp.c ****  * could not be allocated.
1099:Source\LwIP\src\core/udp.c ****  *
1100:Source\LwIP\src\core/udp.c ****  * @see udp_remove()
1101:Source\LwIP\src\core/udp.c ****  */
1102:Source\LwIP\src\core/udp.c **** struct udp_pcb *
1103:Source\LwIP\src\core/udp.c **** udp_new(void)
1104:Source\LwIP\src\core/udp.c **** {
 1568              		.loc 1 1104 0
 1569              		.cfi_startproc
 1570              		@ args = 0, pretend = 0, frame = 0
 1571              		@ frame_needed = 0, uses_anonymous_args = 0
 1572 0000 10B5     		push	{r4, lr}
 1573              		.cfi_def_cfa_offset 8
 1574              		.cfi_offset 4, -8
 1575              		.cfi_offset 14, -4
1105:Source\LwIP\src\core/udp.c ****   struct udp_pcb *pcb;
1106:Source\LwIP\src\core/udp.c ****   pcb = (struct udp_pcb *)memp_malloc(MEMP_UDP_PCB);
 1576              		.loc 1 1106 0
 1577 0002 084A     		ldr	r2, .L138
 1578 0004 0849     		ldr	r1, .L138+4
 1579 0006 0120     		movs	r0, #1
 1580 0008 FFF7FEFF 		bl	memp_malloc_fn
 1581              	.LVL202:
 1582 000c 041E     		subs	r4, r0, #0
ARM GAS  C:\Users\Phuong\AppData\Local\Temp\cc08x83E.s 			page 50


 1583              	.LVL203:
1107:Source\LwIP\src\core/udp.c ****   /* could allocate UDP PCB? */
1108:Source\LwIP\src\core/udp.c ****   if (pcb != NULL) {
 1584              		.loc 1 1108 0
 1585 000e 06D0     		beq	.L137
1109:Source\LwIP\src\core/udp.c ****     /* UDP Lite: by initializing to all zeroes, chksum_len is set to 0
1110:Source\LwIP\src\core/udp.c ****      * which means checksum is generated over the whole datagram per default
1111:Source\LwIP\src\core/udp.c ****      * (recommended as default by RFC 3828). */
1112:Source\LwIP\src\core/udp.c ****     /* initialize PCB to all zeroes */
1113:Source\LwIP\src\core/udp.c ****     memset(pcb, 0, sizeof(struct udp_pcb));
 1586              		.loc 1 1113 0
 1587 0010 2822     		movs	r2, #40
 1588 0012 0021     		movs	r1, #0
 1589 0014 FFF7FEFF 		bl	memset
 1590              	.LVL204:
1114:Source\LwIP\src\core/udp.c ****     pcb->ttl = UDP_TTL;
 1591              		.loc 1 1114 0
 1592 0018 FF23     		movs	r3, #255
 1593 001a A372     		strb	r3, [r4, #10]
1115:Source\LwIP\src\core/udp.c **** #if LWIP_MULTICAST_TX_OPTIONS
1116:Source\LwIP\src\core/udp.c ****     udp_set_multicast_ttl(pcb, UDP_TTL);
 1594              		.loc 1 1116 0
 1595 001c 2377     		strb	r3, [r4, #28]
 1596              	.L137:
1117:Source\LwIP\src\core/udp.c **** #endif /* LWIP_MULTICAST_TX_OPTIONS */
1118:Source\LwIP\src\core/udp.c ****   }
1119:Source\LwIP\src\core/udp.c ****   return pcb;
1120:Source\LwIP\src\core/udp.c **** }
 1597              		.loc 1 1120 0
 1598 001e 2000     		movs	r0, r4
 1599              		@ sp needed
 1600              	.LVL205:
 1601 0020 10BD     		pop	{r4, pc}
 1602              	.L139:
 1603 0022 C046     		.align	2
 1604              	.L138:
 1605 0024 52040000 		.word	1106
 1606 0028 00000000 		.word	.LC16
 1607              		.cfi_endproc
 1608              	.LFE66:
 1609              		.size	udp_new, .-udp_new
 1610              		.section	.text.udp_new_ip_type,"ax",%progbits
 1611              		.align	2
 1612              		.global	udp_new_ip_type
 1613              		.code	16
 1614              		.thumb_func
 1615              		.type	udp_new_ip_type, %function
 1616              	udp_new_ip_type:
 1617              	.LFB67:
1121:Source\LwIP\src\core/udp.c **** 
1122:Source\LwIP\src\core/udp.c **** /**
1123:Source\LwIP\src\core/udp.c ****  * @ingroup udp_raw
1124:Source\LwIP\src\core/udp.c ****  * Create a UDP PCB for specific IP type.
1125:Source\LwIP\src\core/udp.c ****  *
1126:Source\LwIP\src\core/udp.c ****  * @param type IP address type, see @ref lwip_ip_addr_type definitions.
1127:Source\LwIP\src\core/udp.c ****  * If you want to listen to IPv4 and IPv6 (dual-stack) packets,
1128:Source\LwIP\src\core/udp.c ****  * supply @ref IPADDR_TYPE_ANY as argument and bind to @ref IP_ANY_TYPE.
ARM GAS  C:\Users\Phuong\AppData\Local\Temp\cc08x83E.s 			page 51


1129:Source\LwIP\src\core/udp.c ****  * @return The UDP PCB which was created. NULL if the PCB data structure
1130:Source\LwIP\src\core/udp.c ****  * could not be allocated.
1131:Source\LwIP\src\core/udp.c ****  *
1132:Source\LwIP\src\core/udp.c ****  * @see udp_remove()
1133:Source\LwIP\src\core/udp.c ****  */
1134:Source\LwIP\src\core/udp.c **** struct udp_pcb *
1135:Source\LwIP\src\core/udp.c **** udp_new_ip_type(u8_t type)
1136:Source\LwIP\src\core/udp.c **** {
 1618              		.loc 1 1136 0
 1619              		.cfi_startproc
 1620              		@ args = 0, pretend = 0, frame = 0
 1621              		@ frame_needed = 0, uses_anonymous_args = 0
 1622              	.LVL206:
 1623 0000 10B5     		push	{r4, lr}
 1624              		.cfi_def_cfa_offset 8
 1625              		.cfi_offset 4, -8
 1626              		.cfi_offset 14, -4
1137:Source\LwIP\src\core/udp.c ****   struct udp_pcb *pcb;
1138:Source\LwIP\src\core/udp.c ****   pcb = udp_new();
 1627              		.loc 1 1138 0
 1628 0002 FFF7FEFF 		bl	udp_new
 1629              	.LVL207:
1139:Source\LwIP\src\core/udp.c **** #if LWIP_IPV4 && LWIP_IPV6
1140:Source\LwIP\src\core/udp.c ****   if (pcb != NULL) {
1141:Source\LwIP\src\core/udp.c ****     IP_SET_TYPE_VAL(pcb->local_ip,  type);
1142:Source\LwIP\src\core/udp.c ****     IP_SET_TYPE_VAL(pcb->remote_ip, type);
1143:Source\LwIP\src\core/udp.c ****   }
1144:Source\LwIP\src\core/udp.c **** #else
1145:Source\LwIP\src\core/udp.c ****   LWIP_UNUSED_ARG(type);
1146:Source\LwIP\src\core/udp.c **** #endif /* LWIP_IPV4 && LWIP_IPV6 */
1147:Source\LwIP\src\core/udp.c ****   return pcb;
1148:Source\LwIP\src\core/udp.c **** }
 1630              		.loc 1 1148 0
 1631              		@ sp needed
 1632 0006 10BD     		pop	{r4, pc}
 1633              		.cfi_endproc
 1634              	.LFE67:
 1635              		.size	udp_new_ip_type, .-udp_new_ip_type
 1636              		.section	.text.udp_netif_ip_addr_changed,"ax",%progbits
 1637              		.align	2
 1638              		.global	udp_netif_ip_addr_changed
 1639              		.code	16
 1640              		.thumb_func
 1641              		.type	udp_netif_ip_addr_changed, %function
 1642              	udp_netif_ip_addr_changed:
 1643              	.LFB68:
1149:Source\LwIP\src\core/udp.c **** 
1150:Source\LwIP\src\core/udp.c **** /** This function is called from netif.c when address is changed
1151:Source\LwIP\src\core/udp.c ****  *
1152:Source\LwIP\src\core/udp.c ****  * @param old_addr IP address of the netif before change
1153:Source\LwIP\src\core/udp.c ****  * @param new_addr IP address of the netif after change
1154:Source\LwIP\src\core/udp.c ****  */
1155:Source\LwIP\src\core/udp.c **** void udp_netif_ip_addr_changed(const ip_addr_t* old_addr, const ip_addr_t* new_addr)
1156:Source\LwIP\src\core/udp.c **** {
 1644              		.loc 1 1156 0
 1645              		.cfi_startproc
 1646              		@ args = 0, pretend = 0, frame = 0
ARM GAS  C:\Users\Phuong\AppData\Local\Temp\cc08x83E.s 			page 52


 1647              		@ frame_needed = 0, uses_anonymous_args = 0
 1648              	.LVL208:
 1649 0000 10B5     		push	{r4, lr}
 1650              		.cfi_def_cfa_offset 8
 1651              		.cfi_offset 4, -8
 1652              		.cfi_offset 14, -4
1157:Source\LwIP\src\core/udp.c ****   struct udp_pcb* upcb;
1158:Source\LwIP\src\core/udp.c **** 
1159:Source\LwIP\src\core/udp.c ****   if (!ip_addr_isany(old_addr) && !ip_addr_isany(new_addr)) {
 1653              		.loc 1 1159 0
 1654 0002 0028     		cmp	r0, #0
 1655 0004 13D0     		beq	.L141
 1656              		.loc 1 1159 0 is_stmt 0 discriminator 1
 1657 0006 0368     		ldr	r3, [r0]
 1658 0008 002B     		cmp	r3, #0
 1659 000a 10D0     		beq	.L141
 1660              		.loc 1 1159 0 discriminator 2
 1661 000c 0029     		cmp	r1, #0
 1662 000e 0ED0     		beq	.L141
 1663              		.loc 1 1159 0 discriminator 3
 1664 0010 0B68     		ldr	r3, [r1]
 1665 0012 002B     		cmp	r3, #0
 1666 0014 0BD0     		beq	.L141
1160:Source\LwIP\src\core/udp.c ****     for (upcb = udp_pcbs; upcb != NULL; upcb = upcb->next) {
 1667              		.loc 1 1160 0 is_stmt 1
 1668 0016 064B     		ldr	r3, .L146
 1669 0018 1B68     		ldr	r3, [r3]
 1670              	.LVL209:
 1671 001a 06E0     		b	.L143
 1672              	.L145:
1161:Source\LwIP\src\core/udp.c ****       /* PCB bound to current local interface address? */
1162:Source\LwIP\src\core/udp.c ****       if (ip_addr_cmp(&upcb->local_ip, old_addr)) {
 1673              		.loc 1 1162 0
 1674 001c 1A68     		ldr	r2, [r3]
 1675 001e 0468     		ldr	r4, [r0]
 1676 0020 A242     		cmp	r2, r4
 1677 0022 01D1     		bne	.L144
1163:Source\LwIP\src\core/udp.c ****         /* The PCB is bound to the old ipaddr and
1164:Source\LwIP\src\core/udp.c ****          * is set to bound to the new one instead */
1165:Source\LwIP\src\core/udp.c ****         ip_addr_copy(upcb->local_ip, *new_addr);
 1678              		.loc 1 1165 0
 1679 0024 0A68     		ldr	r2, [r1]
 1680 0026 1A60     		str	r2, [r3]
 1681              	.L144:
1160:Source\LwIP\src\core/udp.c ****       /* PCB bound to current local interface address? */
 1682              		.loc 1 1160 0 discriminator 2
 1683 0028 DB68     		ldr	r3, [r3, #12]
 1684              	.LVL210:
 1685              	.L143:
1160:Source\LwIP\src\core/udp.c ****       /* PCB bound to current local interface address? */
 1686              		.loc 1 1160 0 is_stmt 0 discriminator 1
 1687 002a 002B     		cmp	r3, #0
 1688 002c F6D1     		bne	.L145
 1689              	.LVL211:
 1690              	.L141:
1166:Source\LwIP\src\core/udp.c ****       }
1167:Source\LwIP\src\core/udp.c ****     }
ARM GAS  C:\Users\Phuong\AppData\Local\Temp\cc08x83E.s 			page 53


1168:Source\LwIP\src\core/udp.c ****   }
1169:Source\LwIP\src\core/udp.c **** }
 1691              		.loc 1 1169 0 is_stmt 1
 1692              		@ sp needed
 1693 002e 10BD     		pop	{r4, pc}
 1694              	.L147:
 1695              		.align	2
 1696              	.L146:
 1697 0030 00000000 		.word	udp_pcbs
 1698              		.cfi_endproc
 1699              	.LFE68:
 1700              		.size	udp_netif_ip_addr_changed, .-udp_netif_ip_addr_changed
 1701              		.comm	udp_pcbs,4,4
 1702              		.data
 1703              		.align	1
 1704              		.set	.LANCHOR0,. + 0
 1705              		.type	udp_port, %object
 1706              		.size	udp_port, 2
 1707              	udp_port:
 1708 0000 00C0     		.short	-16384
 1709              		.section	.rodata.str1.4,"aMS",%progbits,1
 1710              		.align	2
 1711              	.LC16:
 1712 0000 536F7572 		.ascii	"Source\\LwIP\\src\\core\\udp.c\000"
 1712      63655C4C 
 1712      7749505C 
 1712      7372635C 
 1712      636F7265 
 1713              		.text
 1714              	.Letext0:
 1715              		.file 2 "c:\\program files (x86)\\cypress\\psoc creator\\4.2\\psoc creator\\import\\gnu\\arm\\5.4.
 1716              		.file 3 "c:\\program files (x86)\\cypress\\psoc creator\\4.2\\psoc creator\\import\\gnu\\arm\\5.4.
 1717              		.file 4 "c:\\program files (x86)\\cypress\\psoc creator\\4.2\\psoc creator\\import\\gnu\\arm\\5.4.
 1718              		.file 5 ".\\Source\\LwIP\\src\\include/arch/cc.h"
 1719              		.file 6 ".\\Source\\LwIP\\src\\include/lwip/err.h"
 1720              		.file 7 ".\\Source\\LwIP\\src\\include/lwip/pbuf.h"
 1721              		.file 8 ".\\Source\\LwIP\\src\\include/lwip/ip4_addr.h"
 1722              		.file 9 ".\\Source\\LwIP\\src\\include/lwip/ip_addr.h"
 1723              		.file 10 ".\\Source\\LwIP\\src\\include/lwip/mem.h"
 1724              		.file 11 ".\\Source\\LwIP\\src\\include/lwip/memp.h"
 1725              		.file 12 ".\\Source\\LwIP\\src\\include/lwip/stats.h"
 1726              		.file 13 ".\\Source\\LwIP\\src\\include/lwip/netif.h"
 1727              		.file 14 ".\\Source\\LwIP\\src\\include/lwip/prot/ip4.h"
 1728              		.file 15 ".\\Source\\LwIP\\src\\include/lwip/ip.h"
 1729              		.file 16 ".\\Source\\LwIP\\src\\include/lwip/prot/udp.h"
 1730              		.file 17 ".\\Source\\LwIP\\src\\include/lwip/udp.h"
 1731              		.file 18 ".\\Source\\LwIP\\src\\include/lwip/icmp.h"
 1732              		.file 19 ".\\Source\\LwIP\\src\\include/arch/sys_arch.h"
 1733              		.file 20 ".\\Source\\LwIP\\src\\include/lwip/def.h"
 1734              		.file 21 ".\\Source\\LwIP\\src\\include/lwip/inet_chksum.h"
 1735              		.file 22 ".\\Source\\LwIP\\src\\include/lwip/ip4.h"