ARM GAS  C:\Users\Phuong\AppData\Local\Temp\cclvvVkY.s 			page 1


   1              		.syntax unified
   2              		.cpu cortex-m0plus
   3              		.fpu softvfp
   4              		.eabi_attribute 20, 1
   5              		.eabi_attribute 21, 1
   6              		.eabi_attribute 23, 3
   7              		.eabi_attribute 24, 1
   8              		.eabi_attribute 25, 1
   9              		.eabi_attribute 26, 1
  10              		.eabi_attribute 30, 1
  11              		.eabi_attribute 34, 0
  12              		.eabi_attribute 18, 4
  13              		.thumb
  14              		.syntax unified
  15              		.file	"UDPSocket.cpp"
  16              		.text
  17              	.Ltext0:
  18              		.cfi_sections	.debug_frame
  19              		.section	.text._ZN9UDPSocketC2Ev,"ax",%progbits
  20              		.align	2
  21              		.global	_ZN9UDPSocketC2Ev
  22              		.code	16
  23              		.thumb_func
  24              		.type	_ZN9UDPSocketC2Ev, %function
  25              	_ZN9UDPSocketC2Ev:
  26              	.LFB61:
  27              		.file 1 "Source\\azure_iot_sdk\\c-utility\\Socket\\src\\UDPSocket.cpp"
   1:Source\azure_iot_sdk\c-utility\Socket\src/UDPSocket.cpp **** /* Copyright (C) 2012 mbed.org, MIT License
   2:Source\azure_iot_sdk\c-utility\Socket\src/UDPSocket.cpp ****  *
   3:Source\azure_iot_sdk\c-utility\Socket\src/UDPSocket.cpp ****  * Permission is hereby granted, free of charge, to any person obtaining a copy of this software
   4:Source\azure_iot_sdk\c-utility\Socket\src/UDPSocket.cpp ****  * and associated documentation files (the "Software"), to deal in the Software without restriction
   5:Source\azure_iot_sdk\c-utility\Socket\src/UDPSocket.cpp ****  * including without limitation the rights to use, copy, modify, merge, publish, distribute,
   6:Source\azure_iot_sdk\c-utility\Socket\src/UDPSocket.cpp ****  * sublicense, and/or sell copies of the Software, and to permit persons to whom the Software is
   7:Source\azure_iot_sdk\c-utility\Socket\src/UDPSocket.cpp ****  * furnished to do so, subject to the following conditions:
   8:Source\azure_iot_sdk\c-utility\Socket\src/UDPSocket.cpp ****  *
   9:Source\azure_iot_sdk\c-utility\Socket\src/UDPSocket.cpp ****  * The above copyright notice and this permission notice shall be included in all copies or
  10:Source\azure_iot_sdk\c-utility\Socket\src/UDPSocket.cpp ****  * substantial portions of the Software.
  11:Source\azure_iot_sdk\c-utility\Socket\src/UDPSocket.cpp ****  *
  12:Source\azure_iot_sdk\c-utility\Socket\src/UDPSocket.cpp ****  * THE SOFTWARE IS PROVIDED "AS IS", WITHOUT WARRANTY OF ANY KIND, EXPRESS OR IMPLIED, INCLUDING
  13:Source\azure_iot_sdk\c-utility\Socket\src/UDPSocket.cpp ****  * BUT NOT LIMITED TO THE WARRANTIES OF MERCHANTABILITY, FITNESS FOR A PARTICULAR PURPOSE AND
  14:Source\azure_iot_sdk\c-utility\Socket\src/UDPSocket.cpp ****  * NONINFRINGEMENT. IN NO EVENT SHALL THE AUTHORS OR COPYRIGHT HOLDERS BE LIABLE FOR ANY CLAIM,
  15:Source\azure_iot_sdk\c-utility\Socket\src/UDPSocket.cpp ****  * DAMAGES OR OTHER LIABILITY, WHETHER IN AN ACTION OF CONTRACT, TORT OR OTHERWISE, ARISING FROM,
  16:Source\azure_iot_sdk\c-utility\Socket\src/UDPSocket.cpp ****  * OUT OF OR IN CONNECTION WITH THE SOFTWARE OR THE USE OR OTHER DEALINGS IN THE SOFTWARE.
  17:Source\azure_iot_sdk\c-utility\Socket\src/UDPSocket.cpp ****  */
  18:Source\azure_iot_sdk\c-utility\Socket\src/UDPSocket.cpp **** 
  19:Source\azure_iot_sdk\c-utility\Socket\src/UDPSocket.cpp **** #include "UDPSocket.h"
  20:Source\azure_iot_sdk\c-utility\Socket\src/UDPSocket.cpp **** 
  21:Source\azure_iot_sdk\c-utility\Socket\src/UDPSocket.cpp **** #include <cstring>
  22:Source\azure_iot_sdk\c-utility\Socket\src/UDPSocket.cpp **** 
  23:Source\azure_iot_sdk\c-utility\Socket\src/UDPSocket.cpp **** using std::memset;
  24:Source\azure_iot_sdk\c-utility\Socket\src/UDPSocket.cpp **** 
  25:Source\azure_iot_sdk\c-utility\Socket\src/UDPSocket.cpp **** UDPSocket::UDPSocket() {
  28              		.loc 1 25 0
  29              		.cfi_startproc
  30              		@ args = 0, pretend = 0, frame = 0
  31              		@ frame_needed = 0, uses_anonymous_args = 0
  32              	.LVL0:
ARM GAS  C:\Users\Phuong\AppData\Local\Temp\cclvvVkY.s 			page 2


  33 0000 10B5     		push	{r4, lr}
  34              		.cfi_def_cfa_offset 8
  35              		.cfi_offset 4, -8
  36              		.cfi_offset 14, -4
  37 0002 0400     		movs	r4, r0
  38              	.LBB2:
  39              		.loc 1 25 0
  40 0004 FFF7FEFF 		bl	_ZN6SocketC2Ev
  41              	.LVL1:
  42              	.LBE2:
  26:Source\azure_iot_sdk\c-utility\Socket\src/UDPSocket.cpp **** }
  43              		.loc 1 26 0
  44 0008 2000     		movs	r0, r4
  45              		@ sp needed
  46              	.LVL2:
  47 000a 10BD     		pop	{r4, pc}
  48              		.cfi_endproc
  49              	.LFE61:
  50              		.size	_ZN9UDPSocketC2Ev, .-_ZN9UDPSocketC2Ev
  51              		.global	_ZN9UDPSocketC1Ev
  52              		.thumb_set _ZN9UDPSocketC1Ev,_ZN9UDPSocketC2Ev
  53              		.section	.text._ZN9UDPSocket4initEv,"ax",%progbits
  54              		.align	2
  55              		.global	_ZN9UDPSocket4initEv
  56              		.code	16
  57              		.thumb_func
  58              		.type	_ZN9UDPSocket4initEv, %function
  59              	_ZN9UDPSocket4initEv:
  60              	.LFB63:
  27:Source\azure_iot_sdk\c-utility\Socket\src/UDPSocket.cpp **** 
  28:Source\azure_iot_sdk\c-utility\Socket\src/UDPSocket.cpp **** int UDPSocket::init(void) {
  61              		.loc 1 28 0
  62              		.cfi_startproc
  63              		@ args = 0, pretend = 0, frame = 0
  64              		@ frame_needed = 0, uses_anonymous_args = 0
  65              	.LVL3:
  66 0000 10B5     		push	{r4, lr}
  67              		.cfi_def_cfa_offset 8
  68              		.cfi_offset 4, -8
  69              		.cfi_offset 14, -4
  29:Source\azure_iot_sdk\c-utility\Socket\src/UDPSocket.cpp ****     return init_socket(SOCK_DGRAM);
  70              		.loc 1 29 0
  71 0002 0221     		movs	r1, #2
  72 0004 FFF7FEFF 		bl	_ZN6Socket11init_socketEi
  73              	.LVL4:
  30:Source\azure_iot_sdk\c-utility\Socket\src/UDPSocket.cpp **** }
  74              		.loc 1 30 0
  75              		@ sp needed
  76 0008 10BD     		pop	{r4, pc}
  77              		.cfi_endproc
  78              	.LFE63:
  79              		.size	_ZN9UDPSocket4initEv, .-_ZN9UDPSocket4initEv
  80 000a C046     		.section	.text._ZN9UDPSocket4bindEi,"ax",%progbits
  81              		.align	2
  82              		.global	_ZN9UDPSocket4bindEi
  83              		.code	16
  84              		.thumb_func
ARM GAS  C:\Users\Phuong\AppData\Local\Temp\cclvvVkY.s 			page 3


  85              		.type	_ZN9UDPSocket4bindEi, %function
  86              	_ZN9UDPSocket4bindEi:
  87              	.LFB64:
  31:Source\azure_iot_sdk\c-utility\Socket\src/UDPSocket.cpp **** 
  32:Source\azure_iot_sdk\c-utility\Socket\src/UDPSocket.cpp **** // Server initialization
  33:Source\azure_iot_sdk\c-utility\Socket\src/UDPSocket.cpp **** int UDPSocket::bind(int port) {
  88              		.loc 1 33 0
  89              		.cfi_startproc
  90              		@ args = 0, pretend = 0, frame = 16
  91              		@ frame_needed = 0, uses_anonymous_args = 0
  92              	.LVL5:
  93 0000 30B5     		push	{r4, r5, lr}
  94              		.cfi_def_cfa_offset 12
  95              		.cfi_offset 4, -12
  96              		.cfi_offset 5, -8
  97              		.cfi_offset 14, -4
  98 0002 85B0     		sub	sp, sp, #20
  99              		.cfi_def_cfa_offset 32
 100 0004 0500     		movs	r5, r0
 101 0006 0C00     		movs	r4, r1
  34:Source\azure_iot_sdk\c-utility\Socket\src/UDPSocket.cpp ****     if (init_socket(SOCK_DGRAM) < 0)
 102              		.loc 1 34 0
 103 0008 0221     		movs	r1, #2
 104              	.LVL6:
 105 000a FFF7FEFF 		bl	_ZN6Socket11init_socketEi
 106              	.LVL7:
 107 000e 0028     		cmp	r0, #0
 108 0010 1CDB     		blt	.L5
  35:Source\azure_iot_sdk\c-utility\Socket\src/UDPSocket.cpp ****         return -1;
  36:Source\azure_iot_sdk\c-utility\Socket\src/UDPSocket.cpp ****     
  37:Source\azure_iot_sdk\c-utility\Socket\src/UDPSocket.cpp ****     struct sockaddr_in localHost;
  38:Source\azure_iot_sdk\c-utility\Socket\src/UDPSocket.cpp ****     std::memset(&localHost, 0, sizeof(localHost));
 109              		.loc 1 38 0
 110 0012 1022     		movs	r2, #16
 111 0014 0021     		movs	r1, #0
 112 0016 6846     		mov	r0, sp
 113 0018 FFF7FEFF 		bl	memset
 114              	.LVL8:
  39:Source\azure_iot_sdk\c-utility\Socket\src/UDPSocket.cpp ****     
  40:Source\azure_iot_sdk\c-utility\Socket\src/UDPSocket.cpp ****     localHost.sin_family = AF_INET;
 115              		.loc 1 40 0
 116 001c 0223     		movs	r3, #2
 117 001e 6A46     		mov	r2, sp
 118 0020 5370     		strb	r3, [r2, #1]
  41:Source\azure_iot_sdk\c-utility\Socket\src/UDPSocket.cpp ****     localHost.sin_port = htons(port);
 119              		.loc 1 41 0
 120 0022 A0B2     		uxth	r0, r4
 121 0024 FFF7FEFF 		bl	lwip_htons
 122              	.LVL9:
 123 0028 6B46     		mov	r3, sp
 124 002a 5880     		strh	r0, [r3, #2]
  42:Source\azure_iot_sdk\c-utility\Socket\src/UDPSocket.cpp ****     localHost.sin_addr.s_addr = INADDR_ANY;
 125              		.loc 1 42 0
 126 002c 0023     		movs	r3, #0
 127 002e 0193     		str	r3, [sp, #4]
  43:Source\azure_iot_sdk\c-utility\Socket\src/UDPSocket.cpp ****     
  44:Source\azure_iot_sdk\c-utility\Socket\src/UDPSocket.cpp ****     if (lwip_bind(_sock_fd, (const struct sockaddr *) &localHost, sizeof(localHost)) < 0) {
ARM GAS  C:\Users\Phuong\AppData\Local\Temp\cclvvVkY.s 			page 4


 128              		.loc 1 44 0
 129 0030 1022     		movs	r2, #16
 130 0032 6946     		mov	r1, sp
 131 0034 2868     		ldr	r0, [r5]
 132 0036 FFF7FEFF 		bl	lwip_bind
 133              	.LVL10:
 134 003a 0028     		cmp	r0, #0
 135 003c 09DA     		bge	.L6
  45:Source\azure_iot_sdk\c-utility\Socket\src/UDPSocket.cpp ****         close();
 136              		.loc 1 45 0
 137 003e 0121     		movs	r1, #1
 138 0040 2800     		movs	r0, r5
 139 0042 FFF7FEFF 		bl	_ZN6Socket5closeEb
 140              	.LVL11:
  46:Source\azure_iot_sdk\c-utility\Socket\src/UDPSocket.cpp ****         return -1;
 141              		.loc 1 46 0
 142 0046 0120     		movs	r0, #1
 143 0048 4042     		rsbs	r0, r0, #0
 144 004a 03E0     		b	.L4
 145              	.L5:
  35:Source\azure_iot_sdk\c-utility\Socket\src/UDPSocket.cpp ****     
 146              		.loc 1 35 0
 147 004c 0120     		movs	r0, #1
 148 004e 4042     		rsbs	r0, r0, #0
 149 0050 00E0     		b	.L4
 150              	.L6:
  47:Source\azure_iot_sdk\c-utility\Socket\src/UDPSocket.cpp ****     }
  48:Source\azure_iot_sdk\c-utility\Socket\src/UDPSocket.cpp ****     
  49:Source\azure_iot_sdk\c-utility\Socket\src/UDPSocket.cpp ****     return 0;
 151              		.loc 1 49 0
 152 0052 0020     		movs	r0, #0
 153              	.L4:
  50:Source\azure_iot_sdk\c-utility\Socket\src/UDPSocket.cpp **** }
 154              		.loc 1 50 0
 155 0054 05B0     		add	sp, sp, #20
 156              		@ sp needed
 157              	.LVL12:
 158              	.LVL13:
 159 0056 30BD     		pop	{r4, r5, pc}
 160              		.cfi_endproc
 161              	.LFE64:
 162              		.size	_ZN9UDPSocket4bindEi, .-_ZN9UDPSocket4bindEi
 163              		.section	.text._ZN9UDPSocket20join_multicast_groupEPKc,"ax",%progbits
 164              		.align	2
 165              		.global	_ZN9UDPSocket20join_multicast_groupEPKc
 166              		.code	16
 167              		.thumb_func
 168              		.type	_ZN9UDPSocket20join_multicast_groupEPKc, %function
 169              	_ZN9UDPSocket20join_multicast_groupEPKc:
 170              	.LFB65:
  51:Source\azure_iot_sdk\c-utility\Socket\src/UDPSocket.cpp **** 
  52:Source\azure_iot_sdk\c-utility\Socket\src/UDPSocket.cpp **** int UDPSocket::join_multicast_group(const char* address) {
 171              		.loc 1 52 0
 172              		.cfi_startproc
 173              		@ args = 0, pretend = 0, frame = 8
 174              		@ frame_needed = 0, uses_anonymous_args = 0
 175              	.LVL14:
ARM GAS  C:\Users\Phuong\AppData\Local\Temp\cclvvVkY.s 			page 5


 176 0000 10B5     		push	{r4, lr}
 177              		.cfi_def_cfa_offset 8
 178              		.cfi_offset 4, -8
 179              		.cfi_offset 14, -4
 180 0002 84B0     		sub	sp, sp, #16
 181              		.cfi_def_cfa_offset 24
 182 0004 0400     		movs	r4, r0
  53:Source\azure_iot_sdk\c-utility\Socket\src/UDPSocket.cpp ****     struct ip_mreq mreq;
  54:Source\azure_iot_sdk\c-utility\Socket\src/UDPSocket.cpp ****     
  55:Source\azure_iot_sdk\c-utility\Socket\src/UDPSocket.cpp ****     // Set up group address 
  56:Source\azure_iot_sdk\c-utility\Socket\src/UDPSocket.cpp ****     mreq.imr_multiaddr.s_addr = inet_addr(address);
 183              		.loc 1 56 0
 184 0006 0800     		movs	r0, r1
 185              	.LVL15:
 186 0008 FFF7FEFF 		bl	ipaddr_addr
 187              	.LVL16:
 188 000c 0290     		str	r0, [sp, #8]
  57:Source\azure_iot_sdk\c-utility\Socket\src/UDPSocket.cpp ****     mreq.imr_interface.s_addr = htonl(INADDR_ANY);
 189              		.loc 1 57 0
 190 000e 0020     		movs	r0, #0
 191 0010 FFF7FEFF 		bl	lwip_htonl
 192              	.LVL17:
 193 0014 0390     		str	r0, [sp, #12]
  58:Source\azure_iot_sdk\c-utility\Socket\src/UDPSocket.cpp ****     
  59:Source\azure_iot_sdk\c-utility\Socket\src/UDPSocket.cpp ****     return set_option(IPPROTO_IP, IP_ADD_MEMBERSHIP, &mreq, sizeof(mreq));
 194              		.loc 1 59 0
 195 0016 0823     		movs	r3, #8
 196 0018 0093     		str	r3, [sp]
 197 001a 02AB     		add	r3, sp, #8
 198 001c 0322     		movs	r2, #3
 199 001e 0021     		movs	r1, #0
 200 0020 2000     		movs	r0, r4
 201 0022 FFF7FEFF 		bl	_ZN6Socket10set_optionEiiPKvm
 202              	.LVL18:
  60:Source\azure_iot_sdk\c-utility\Socket\src/UDPSocket.cpp **** }
 203              		.loc 1 60 0
 204 0026 04B0     		add	sp, sp, #16
 205              		@ sp needed
 206              	.LVL19:
 207 0028 10BD     		pop	{r4, pc}
 208              		.cfi_endproc
 209              	.LFE65:
 210              		.size	_ZN9UDPSocket20join_multicast_groupEPKc, .-_ZN9UDPSocket20join_multicast_groupEPKc
 211 002a C046     		.section	.text._ZN9UDPSocket16set_broadcastingEb,"ax",%progbits
 212              		.align	2
 213              		.global	_ZN9UDPSocket16set_broadcastingEb
 214              		.code	16
 215              		.thumb_func
 216              		.type	_ZN9UDPSocket16set_broadcastingEb, %function
 217              	_ZN9UDPSocket16set_broadcastingEb:
 218              	.LFB66:
  61:Source\azure_iot_sdk\c-utility\Socket\src/UDPSocket.cpp **** 
  62:Source\azure_iot_sdk\c-utility\Socket\src/UDPSocket.cpp **** int UDPSocket::set_broadcasting(bool broadcast) {
 219              		.loc 1 62 0
 220              		.cfi_startproc
 221              		@ args = 0, pretend = 0, frame = 8
 222              		@ frame_needed = 0, uses_anonymous_args = 0
ARM GAS  C:\Users\Phuong\AppData\Local\Temp\cclvvVkY.s 			page 6


 223              	.LVL20:
 224 0000 00B5     		push	{lr}
 225              		.cfi_def_cfa_offset 4
 226              		.cfi_offset 14, -4
 227 0002 85B0     		sub	sp, sp, #20
 228              		.cfi_def_cfa_offset 24
  63:Source\azure_iot_sdk\c-utility\Socket\src/UDPSocket.cpp ****     int option = (broadcast) ? (1) : (0);
 229              		.loc 1 63 0
 230 0004 0029     		cmp	r1, #0
 231 0006 01D0     		beq	.L10
 232 0008 0123     		movs	r3, #1
 233 000a 00E0     		b	.L9
 234              	.L10:
 235 000c 0023     		movs	r3, #0
 236              	.L9:
 237              		.loc 1 63 0 is_stmt 0 discriminator 4
 238 000e 0393     		str	r3, [sp, #12]
  64:Source\azure_iot_sdk\c-utility\Socket\src/UDPSocket.cpp ****     return set_option(SOL_SOCKET, SO_BROADCAST, &option, sizeof(option));
 239              		.loc 1 64 0 is_stmt 1 discriminator 4
 240 0010 0423     		movs	r3, #4
 241 0012 0093     		str	r3, [sp]
 242 0014 03AB     		add	r3, sp, #12
 243 0016 2022     		movs	r2, #32
 244 0018 0249     		ldr	r1, .L11
 245              	.LVL21:
 246 001a FFF7FEFF 		bl	_ZN6Socket10set_optionEiiPKvm
 247              	.LVL22:
  65:Source\azure_iot_sdk\c-utility\Socket\src/UDPSocket.cpp **** }
 248              		.loc 1 65 0 discriminator 4
 249 001e 05B0     		add	sp, sp, #20
 250              		@ sp needed
 251 0020 00BD     		pop	{pc}
 252              	.L12:
 253 0022 C046     		.align	2
 254              	.L11:
 255 0024 FF0F0000 		.word	4095
 256              		.cfi_endproc
 257              	.LFE66:
 258              		.size	_ZN9UDPSocket16set_broadcastingEb, .-_ZN9UDPSocket16set_broadcastingEb
 259              		.section	.text._ZN9UDPSocket6sendToER8EndpointPci,"ax",%progbits
 260              		.align	2
 261              		.global	_ZN9UDPSocket6sendToER8EndpointPci
 262              		.code	16
 263              		.thumb_func
 264              		.type	_ZN9UDPSocket6sendToER8EndpointPci, %function
 265              	_ZN9UDPSocket6sendToER8EndpointPci:
 266              	.LFB67:
  66:Source\azure_iot_sdk\c-utility\Socket\src/UDPSocket.cpp **** 
  67:Source\azure_iot_sdk\c-utility\Socket\src/UDPSocket.cpp **** // -1 if unsuccessful, else number of bytes written
  68:Source\azure_iot_sdk\c-utility\Socket\src/UDPSocket.cpp **** int UDPSocket::sendTo(Endpoint &remote, char *packet, int length) {
 267              		.loc 1 68 0
 268              		.cfi_startproc
 269              		@ args = 0, pretend = 0, frame = 8
 270              		@ frame_needed = 0, uses_anonymous_args = 0
 271              	.LVL23:
 272 0000 F0B5     		push	{r4, r5, r6, r7, lr}
 273              		.cfi_def_cfa_offset 20
ARM GAS  C:\Users\Phuong\AppData\Local\Temp\cclvvVkY.s 			page 7


 274              		.cfi_offset 4, -20
 275              		.cfi_offset 5, -16
 276              		.cfi_offset 6, -12
 277              		.cfi_offset 7, -8
 278              		.cfi_offset 14, -4
 279 0002 85B0     		sub	sp, sp, #20
 280              		.cfi_def_cfa_offset 40
 281 0004 0400     		movs	r4, r0
 282 0006 0D00     		movs	r5, r1
 283 0008 1600     		movs	r6, r2
 284 000a 1F00     		movs	r7, r3
  69:Source\azure_iot_sdk\c-utility\Socket\src/UDPSocket.cpp ****     if (_sock_fd < 0)
 285              		.loc 1 69 0
 286 000c 0368     		ldr	r3, [r0]
 287              	.LVL24:
 288 000e 002B     		cmp	r3, #0
 289 0010 19DB     		blt	.L17
 290              	.LBB3:
  70:Source\azure_iot_sdk\c-utility\Socket\src/UDPSocket.cpp ****         return -1;
  71:Source\azure_iot_sdk\c-utility\Socket\src/UDPSocket.cpp ****     
  72:Source\azure_iot_sdk\c-utility\Socket\src/UDPSocket.cpp ****     if (!_blocking) {
 291              		.loc 1 72 0
 292 0012 0379     		ldrb	r3, [r0, #4]
 293 0014 002B     		cmp	r3, #0
 294 0016 0BD1     		bne	.L15
 295              	.LBB4:
  73:Source\azure_iot_sdk\c-utility\Socket\src/UDPSocket.cpp ****         TimeInterval timeout(_timeout);
 296              		.loc 1 73 0
 297 0018 8168     		ldr	r1, [r0, #8]
 298              	.LVL25:
 299 001a 02A8     		add	r0, sp, #8
 300              	.LVL26:
 301 001c FFF7FEFF 		bl	_ZN12TimeIntervalC1Ej
 302              	.LVL27:
  74:Source\azure_iot_sdk\c-utility\Socket\src/UDPSocket.cpp ****         if (wait_writable(timeout) != 0)
 303              		.loc 1 74 0
 304 0020 02A9     		add	r1, sp, #8
 305 0022 2000     		movs	r0, r4
 306 0024 FFF7FEFF 		bl	_ZN6Socket13wait_writableER12TimeInterval
 307              	.LVL28:
 308 0028 0028     		cmp	r0, #0
 309 002a 01D0     		beq	.L15
  75:Source\azure_iot_sdk\c-utility\Socket\src/UDPSocket.cpp ****             return 0;
 310              		.loc 1 75 0
 311 002c 0020     		movs	r0, #0
 312 002e 0CE0     		b	.L14
 313              	.L15:
 314              	.LBE4:
 315              	.LBE3:
  76:Source\azure_iot_sdk\c-utility\Socket\src/UDPSocket.cpp ****     }
  77:Source\azure_iot_sdk\c-utility\Socket\src/UDPSocket.cpp ****     
  78:Source\azure_iot_sdk\c-utility\Socket\src/UDPSocket.cpp ****     return lwip_sendto(_sock_fd, packet, length, 0, (const struct sockaddr *) &remote._remoteHost, 
 316              		.loc 1 78 0
 317 0030 2068     		ldr	r0, [r4]
 318 0032 1435     		adds	r5, r5, #20
 319              	.LVL29:
 320 0034 1023     		movs	r3, #16
ARM GAS  C:\Users\Phuong\AppData\Local\Temp\cclvvVkY.s 			page 8


 321 0036 0193     		str	r3, [sp, #4]
 322 0038 0095     		str	r5, [sp]
 323 003a 0023     		movs	r3, #0
 324 003c 3A00     		movs	r2, r7
 325 003e 3100     		movs	r1, r6
 326 0040 FFF7FEFF 		bl	lwip_sendto
 327              	.LVL30:
 328 0044 01E0     		b	.L14
 329              	.LVL31:
 330              	.L17:
  70:Source\azure_iot_sdk\c-utility\Socket\src/UDPSocket.cpp ****     
 331              		.loc 1 70 0
 332 0046 0120     		movs	r0, #1
 333              	.LVL32:
 334 0048 4042     		rsbs	r0, r0, #0
 335              	.LVL33:
 336              	.L14:
  79:Source\azure_iot_sdk\c-utility\Socket\src/UDPSocket.cpp **** }
 337              		.loc 1 79 0
 338 004a 05B0     		add	sp, sp, #20
 339              		@ sp needed
 340              	.LVL34:
 341              	.LVL35:
 342              	.LVL36:
 343 004c F0BD     		pop	{r4, r5, r6, r7, pc}
 344              		.cfi_endproc
 345              	.LFE67:
 346              		.size	_ZN9UDPSocket6sendToER8EndpointPci, .-_ZN9UDPSocket6sendToER8EndpointPci
 347 004e C046     		.section	.text._ZN9UDPSocket11receiveFromER8EndpointPci,"ax",%progbits
 348              		.align	2
 349              		.global	_ZN9UDPSocket11receiveFromER8EndpointPci
 350              		.code	16
 351              		.thumb_func
 352              		.type	_ZN9UDPSocket11receiveFromER8EndpointPci, %function
 353              	_ZN9UDPSocket11receiveFromER8EndpointPci:
 354              	.LFB68:
  80:Source\azure_iot_sdk\c-utility\Socket\src/UDPSocket.cpp **** 
  81:Source\azure_iot_sdk\c-utility\Socket\src/UDPSocket.cpp **** // -1 if unsuccessful, else number of bytes received
  82:Source\azure_iot_sdk\c-utility\Socket\src/UDPSocket.cpp **** int UDPSocket::receiveFrom(Endpoint &remote, char *buffer, int length) {
 355              		.loc 1 82 0
 356              		.cfi_startproc
 357              		@ args = 0, pretend = 0, frame = 16
 358              		@ frame_needed = 0, uses_anonymous_args = 0
 359              	.LVL37:
 360 0000 F0B5     		push	{r4, r5, r6, r7, lr}
 361              		.cfi_def_cfa_offset 20
 362              		.cfi_offset 4, -20
 363              		.cfi_offset 5, -16
 364              		.cfi_offset 6, -12
 365              		.cfi_offset 7, -8
 366              		.cfi_offset 14, -4
 367 0002 87B0     		sub	sp, sp, #28
 368              		.cfi_def_cfa_offset 48
 369 0004 0400     		movs	r4, r0
 370 0006 0D00     		movs	r5, r1
 371 0008 1600     		movs	r6, r2
 372 000a 1F00     		movs	r7, r3
ARM GAS  C:\Users\Phuong\AppData\Local\Temp\cclvvVkY.s 			page 9


  83:Source\azure_iot_sdk\c-utility\Socket\src/UDPSocket.cpp ****     if (_sock_fd < 0)
 373              		.loc 1 83 0
 374 000c 0368     		ldr	r3, [r0]
 375              	.LVL38:
 376 000e 002B     		cmp	r3, #0
 377 0010 1EDB     		blt	.L22
 378              	.LBB5:
  84:Source\azure_iot_sdk\c-utility\Socket\src/UDPSocket.cpp ****         return -1;
  85:Source\azure_iot_sdk\c-utility\Socket\src/UDPSocket.cpp ****     
  86:Source\azure_iot_sdk\c-utility\Socket\src/UDPSocket.cpp ****     if (!_blocking) {
 379              		.loc 1 86 0
 380 0012 0379     		ldrb	r3, [r0, #4]
 381 0014 002B     		cmp	r3, #0
 382 0016 0BD1     		bne	.L20
 383              	.LBB6:
  87:Source\azure_iot_sdk\c-utility\Socket\src/UDPSocket.cpp ****         TimeInterval timeout(_timeout);
 384              		.loc 1 87 0
 385 0018 8168     		ldr	r1, [r0, #8]
 386              	.LVL39:
 387 001a 03A8     		add	r0, sp, #12
 388              	.LVL40:
 389 001c FFF7FEFF 		bl	_ZN12TimeIntervalC1Ej
 390              	.LVL41:
  88:Source\azure_iot_sdk\c-utility\Socket\src/UDPSocket.cpp ****         if (wait_readable(timeout) != 0)
 391              		.loc 1 88 0
 392 0020 03A9     		add	r1, sp, #12
 393 0022 2000     		movs	r0, r4
 394 0024 FFF7FEFF 		bl	_ZN6Socket13wait_readableER12TimeInterval
 395              	.LVL42:
 396 0028 0028     		cmp	r0, #0
 397 002a 01D0     		beq	.L20
  89:Source\azure_iot_sdk\c-utility\Socket\src/UDPSocket.cpp ****             return 0;
 398              		.loc 1 89 0
 399 002c 0020     		movs	r0, #0
 400 002e 11E0     		b	.L19
 401              	.L20:
 402              	.LBE6:
 403              	.LBE5:
  90:Source\azure_iot_sdk\c-utility\Socket\src/UDPSocket.cpp ****     }
  91:Source\azure_iot_sdk\c-utility\Socket\src/UDPSocket.cpp ****     remote.reset_address();
 404              		.loc 1 91 0
 405 0030 2800     		movs	r0, r5
 406 0032 FFF7FEFF 		bl	_ZN8Endpoint13reset_addressEv
 407              	.LVL43:
  92:Source\azure_iot_sdk\c-utility\Socket\src/UDPSocket.cpp ****     socklen_t remoteHostLen = sizeof(remote._remoteHost);
 408              		.loc 1 92 0
 409 0036 1023     		movs	r3, #16
 410 0038 0593     		str	r3, [sp, #20]
  93:Source\azure_iot_sdk\c-utility\Socket\src/UDPSocket.cpp ****     return lwip_recvfrom(_sock_fd, buffer, length, 0, (struct sockaddr*) &remote._remoteHost, &remo
 411              		.loc 1 93 0
 412 003a 2068     		ldr	r0, [r4]
 413 003c 1435     		adds	r5, r5, #20
 414              	.LVL44:
 415 003e 05AB     		add	r3, sp, #20
 416 0040 0193     		str	r3, [sp, #4]
 417 0042 0095     		str	r5, [sp]
 418 0044 0023     		movs	r3, #0
ARM GAS  C:\Users\Phuong\AppData\Local\Temp\cclvvVkY.s 			page 10


 419 0046 3A00     		movs	r2, r7
 420 0048 3100     		movs	r1, r6
 421 004a FFF7FEFF 		bl	lwip_recvfrom
 422              	.LVL45:
 423 004e 01E0     		b	.L19
 424              	.LVL46:
 425              	.L22:
  84:Source\azure_iot_sdk\c-utility\Socket\src/UDPSocket.cpp ****     
 426              		.loc 1 84 0
 427 0050 0120     		movs	r0, #1
 428              	.LVL47:
 429 0052 4042     		rsbs	r0, r0, #0
 430              	.LVL48:
 431              	.L19:
  94:Source\azure_iot_sdk\c-utility\Socket\src/UDPSocket.cpp **** }
 432              		.loc 1 94 0
 433 0054 07B0     		add	sp, sp, #28
 434              		@ sp needed
 435              	.LVL49:
 436              	.LVL50:
 437              	.LVL51:
 438 0056 F0BD     		pop	{r4, r5, r6, r7, pc}
 439              		.cfi_endproc
 440              	.LFE68:
 441              		.size	_ZN9UDPSocket11receiveFromER8EndpointPci, .-_ZN9UDPSocket11receiveFromER8EndpointPci
 442              		.text
 443              	.Letext0:
 444              		.file 2 "c:\\program files (x86)\\cypress\\psoc creator\\4.2\\psoc creator\\import\\gnu\\arm\\5.4.
 445              		.file 3 "c:\\program files (x86)\\cypress\\psoc creator\\4.2\\psoc creator\\import\\gnu\\arm\\5.4.
 446              		.file 4 "c:\\program files (x86)\\cypress\\psoc creator\\4.2\\psoc creator\\import\\gnu\\arm\\5.4.
 447              		.file 5 "c:\\program files (x86)\\cypress\\psoc creator\\4.2\\psoc creator\\import\\gnu\\arm\\5.4.
 448              		.file 6 "c:\\program files (x86)\\cypress\\psoc creator\\4.2\\psoc creator\\import\\gnu\\arm\\5.4.
 449              		.file 7 ".\\Source\\LwIP\\src\\include/arch/cc.h"
 450              		.file 8 ".\\Source\\LwIP\\src\\include/lwip/inet.h"
 451              		.file 9 ".\\Source\\LwIP\\src\\include/lwip/sockets.h"
 452              		.file 10 ".\\Source\\azure_iot_sdk\\c-utility\\Socket\\inc/Socket.h"
 453              		.file 11 ".\\Source\\azure_iot_sdk\\c-utility\\Socket\\inc/Endpoint.h"
 454              		.file 12 ".\\Source\\azure_iot_sdk\\c-utility\\Socket\\inc/UDPSocket.h"
 455              		.file 13 "c:\\program files (x86)\\cypress\\psoc creator\\4.2\\psoc creator\\import\\gnu\\arm\\5.4
 456              		.file 14 "c:\\program files (x86)\\cypress\\psoc creator\\4.2\\psoc creator\\import\\gnu\\arm\\5.4
 457              		.file 15 "c:\\program files (x86)\\cypress\\psoc creator\\4.2\\psoc creator\\import\\gnu\\arm\\5.4
 458              		.file 16 ".\\Source\\LwIP\\src\\include/lwip/def.h"
 459              		.file 17 ".\\Source\\LwIP\\src\\include/lwip/ip4_addr.h"
 460              		.file 18 "<built-in>"