ARM GAS  C:\Users\Phuong\AppData\Local\Temp\ccERItZl.s 			page 1


   1              		.syntax unified
   2              		.cpu cortex-m0plus
   3              		.fpu softvfp
   4              		.eabi_attribute 20, 1
   5              		.eabi_attribute 21, 1
   6              		.eabi_attribute 23, 3
   7              		.eabi_attribute 24, 1
   8              		.eabi_attribute 25, 1
   9              		.eabi_attribute 26, 1
  10              		.eabi_attribute 30, 1
  11              		.eabi_attribute 34, 0
  12              		.eabi_attribute 18, 4
  13              		.thumb
  14              		.syntax unified
  15              		.file	"uniqueid_stub.c"
  16              		.text
  17              	.Ltext0:
  18              		.cfi_sections	.debug_frame
  19              		.section	.text.generate128BitUUID,"ax",%progbits
  20              		.align	2
  21              		.code	16
  22              		.thumb_func
  23              		.type	generate128BitUUID, %function
  24              	generate128BitUUID:
  25              	.LFB3:
  26              		.file 1 "Source\\azure_iot_sdk\\c-utility\\adapters\\uniqueid_stub.c"
   1:Source\azure_iot_sdk\c-utility\adapters/uniqueid_stub.c **** // Copyright (c) Microsoft. All rights reserved.
   2:Source\azure_iot_sdk\c-utility\adapters/uniqueid_stub.c **** // Licensed under the MIT license. See LICENSE file in the project root for full license informatio
   3:Source\azure_iot_sdk\c-utility\adapters/uniqueid_stub.c **** 
   4:Source\azure_iot_sdk\c-utility\adapters/uniqueid_stub.c **** #include <stdlib.h>
   5:Source\azure_iot_sdk\c-utility\adapters/uniqueid_stub.c **** #include <stdint.h>
   6:Source\azure_iot_sdk\c-utility\adapters/uniqueid_stub.c **** #include "azure_c_shared_utility/uniqueid.h"
   7:Source\azure_iot_sdk\c-utility\adapters/uniqueid_stub.c **** #include "azure_c_shared_utility/xlogging.h"
   8:Source\azure_iot_sdk\c-utility\adapters/uniqueid_stub.c **** #include <time.h>
   9:Source\azure_iot_sdk\c-utility\adapters/uniqueid_stub.c **** 
  10:Source\azure_iot_sdk\c-utility\adapters/uniqueid_stub.c **** DEFINE_ENUM_STRINGS(UNIQUEID_RESULT, UNIQUEID_RESULT_VALUES);
  11:Source\azure_iot_sdk\c-utility\adapters/uniqueid_stub.c **** 
  12:Source\azure_iot_sdk\c-utility\adapters/uniqueid_stub.c **** static const char tochar[] = { '0', '1', '2', '3', '4', '5', '6', '7', '8', '9', 'A', 'B', 'C', 'D'
  13:Source\azure_iot_sdk\c-utility\adapters/uniqueid_stub.c **** static void generate128BitUUID(unsigned char* arrayOfByte)
  14:Source\azure_iot_sdk\c-utility\adapters/uniqueid_stub.c **** {
  27              		.loc 1 14 0
  28              		.cfi_startproc
  29              		@ args = 0, pretend = 0, frame = 0
  30              		@ frame_needed = 0, uses_anonymous_args = 0
  31              	.LVL0:
  32 0000 70B5     		push	{r4, r5, r6, lr}
  33              		.cfi_def_cfa_offset 16
  34              		.cfi_offset 4, -16
  35              		.cfi_offset 5, -12
  36              		.cfi_offset 6, -8
  37              		.cfi_offset 14, -4
  38 0002 0600     		movs	r6, r0
  39              	.LVL1:
  15:Source\azure_iot_sdk\c-utility\adapters/uniqueid_stub.c ****     size_t arrayIndex;
  16:Source\azure_iot_sdk\c-utility\adapters/uniqueid_stub.c **** 
  17:Source\azure_iot_sdk\c-utility\adapters/uniqueid_stub.c ****     for (arrayIndex = 0; arrayIndex < 16; arrayIndex++)
  40              		.loc 1 17 0
ARM GAS  C:\Users\Phuong\AppData\Local\Temp\ccERItZl.s 			page 2


  41 0004 0024     		movs	r4, #0
  42 0006 04E0     		b	.L2
  43              	.LVL2:
  44              	.L3:
  18:Source\azure_iot_sdk\c-utility\adapters/uniqueid_stub.c ****     {
  19:Source\azure_iot_sdk\c-utility\adapters/uniqueid_stub.c ****         arrayOfByte[arrayIndex] = (unsigned char)rand();
  45              		.loc 1 19 0 discriminator 3
  46 0008 3519     		adds	r5, r6, r4
  47 000a FFF7FEFF 		bl	rand
  48              	.LVL3:
  49 000e 2870     		strb	r0, [r5]
  17:Source\azure_iot_sdk\c-utility\adapters/uniqueid_stub.c ****     {
  50              		.loc 1 17 0 discriminator 3
  51 0010 0134     		adds	r4, r4, #1
  52              	.LVL4:
  53              	.L2:
  17:Source\azure_iot_sdk\c-utility\adapters/uniqueid_stub.c ****     {
  54              		.loc 1 17 0 is_stmt 0 discriminator 1
  55 0012 0F2C     		cmp	r4, #15
  56 0014 F8D9     		bls	.L3
  20:Source\azure_iot_sdk\c-utility\adapters/uniqueid_stub.c ****     }
  21:Source\azure_iot_sdk\c-utility\adapters/uniqueid_stub.c **** 
  22:Source\azure_iot_sdk\c-utility\adapters/uniqueid_stub.c ****     //
  23:Source\azure_iot_sdk\c-utility\adapters/uniqueid_stub.c ****     // Stick in the version field for random uuid.
  24:Source\azure_iot_sdk\c-utility\adapters/uniqueid_stub.c ****     //
  25:Source\azure_iot_sdk\c-utility\adapters/uniqueid_stub.c ****     arrayOfByte[7] &= 0x0f; //clear the bit field
  57              		.loc 1 25 0 is_stmt 1
  58 0016 F379     		ldrb	r3, [r6, #7]
  59 0018 0F22     		movs	r2, #15
  60 001a 1340     		ands	r3, r2
  26:Source\azure_iot_sdk\c-utility\adapters/uniqueid_stub.c ****     arrayOfByte[7] |= 0x40; //set the ones we care about
  61              		.loc 1 26 0
  62 001c 4022     		movs	r2, #64
  63 001e 1343     		orrs	r3, r2
  64 0020 F371     		strb	r3, [r6, #7]
  27:Source\azure_iot_sdk\c-utility\adapters/uniqueid_stub.c **** 
  28:Source\azure_iot_sdk\c-utility\adapters/uniqueid_stub.c ****     //
  29:Source\azure_iot_sdk\c-utility\adapters/uniqueid_stub.c ****     // Stick in the variant field for the random uuid.
  30:Source\azure_iot_sdk\c-utility\adapters/uniqueid_stub.c ****     //
  31:Source\azure_iot_sdk\c-utility\adapters/uniqueid_stub.c ****     arrayOfByte[8] &= 0xf3; // Clear
  65              		.loc 1 31 0
  66 0022 337A     		ldrb	r3, [r6, #8]
  67 0024 0C22     		movs	r2, #12
  68 0026 9343     		bics	r3, r2
  32:Source\azure_iot_sdk\c-utility\adapters/uniqueid_stub.c ****     arrayOfByte[8] |= 0x08; // Set
  69              		.loc 1 32 0
  70 0028 0822     		movs	r2, #8
  71 002a 1343     		orrs	r3, r2
  72 002c 3372     		strb	r3, [r6, #8]
  33:Source\azure_iot_sdk\c-utility\adapters/uniqueid_stub.c **** 
  34:Source\azure_iot_sdk\c-utility\adapters/uniqueid_stub.c **** }
  73              		.loc 1 34 0
  74              		@ sp needed
  75              	.LVL5:
  76              	.LVL6:
  77 002e 70BD     		pop	{r4, r5, r6, pc}
  78              		.cfi_endproc
ARM GAS  C:\Users\Phuong\AppData\Local\Temp\ccERItZl.s 			page 3


  79              	.LFE3:
  80              		.size	generate128BitUUID, .-generate128BitUUID
  81              		.section	.text.UNIQUEID_RESULTStrings,"ax",%progbits
  82              		.align	2
  83              		.global	UNIQUEID_RESULTStrings
  84              		.code	16
  85              		.thumb_func
  86              		.type	UNIQUEID_RESULTStrings, %function
  87              	UNIQUEID_RESULTStrings:
  88              	.LFB1:
  10:Source\azure_iot_sdk\c-utility\adapters/uniqueid_stub.c **** 
  89              		.loc 1 10 0
  90              		.cfi_startproc
  91              		@ args = 0, pretend = 0, frame = 0
  92              		@ frame_needed = 0, uses_anonymous_args = 0
  93              		@ link register save eliminated.
  94              	.LVL7:
  10:Source\azure_iot_sdk\c-utility\adapters/uniqueid_stub.c **** 
  95              		.loc 1 10 0
  96 0000 0228     		cmp	r0, #2
  97 0002 03D8     		bhi	.L6
  10:Source\azure_iot_sdk\c-utility\adapters/uniqueid_stub.c **** 
  98              		.loc 1 10 0 is_stmt 0 discriminator 2
  99 0004 8000     		lsls	r0, r0, #2
 100              	.LVL8:
 101 0006 024B     		ldr	r3, .L7
 102 0008 C058     		ldr	r0, [r0, r3]
 103 000a 00E0     		b	.L5
 104              	.LVL9:
 105              	.L6:
  10:Source\azure_iot_sdk\c-utility\adapters/uniqueid_stub.c **** 
 106              		.loc 1 10 0
 107 000c 0020     		movs	r0, #0
 108              	.LVL10:
 109              	.L5:
 110              		@ sp needed
 111 000e 7047     		bx	lr
 112              	.L8:
 113              		.align	2
 114              	.L7:
 115 0010 00000000 		.word	.LANCHOR0
 116              		.cfi_endproc
 117              	.LFE1:
 118              		.size	UNIQUEID_RESULTStrings, .-UNIQUEID_RESULTStrings
 119              		.section	.text.UNIQUEID_RESULT_FromString,"ax",%progbits
 120              		.align	2
 121              		.global	UNIQUEID_RESULT_FromString
 122              		.code	16
 123              		.thumb_func
 124              		.type	UNIQUEID_RESULT_FromString, %function
 125              	UNIQUEID_RESULT_FromString:
 126              	.LFB2:
  10:Source\azure_iot_sdk\c-utility\adapters/uniqueid_stub.c **** 
 127              		.loc 1 10 0 is_stmt 1
 128              		.cfi_startproc
 129              		@ args = 0, pretend = 0, frame = 0
 130              		@ frame_needed = 0, uses_anonymous_args = 0
ARM GAS  C:\Users\Phuong\AppData\Local\Temp\ccERItZl.s 			page 4


 131              	.LVL11:
 132 0000 70B5     		push	{r4, r5, r6, lr}
 133              		.cfi_def_cfa_offset 16
 134              		.cfi_offset 4, -16
 135              		.cfi_offset 5, -12
 136              		.cfi_offset 6, -8
 137              		.cfi_offset 14, -4
 138 0002 0500     		movs	r5, r0
 139 0004 0E00     		movs	r6, r1
  10:Source\azure_iot_sdk\c-utility\adapters/uniqueid_stub.c **** 
 140              		.loc 1 10 0
 141 0006 0028     		cmp	r0, #0
 142 0008 12D0     		beq	.L14
  10:Source\azure_iot_sdk\c-utility\adapters/uniqueid_stub.c **** 
 143              		.loc 1 10 0 is_stmt 0 discriminator 2
 144 000a 0029     		cmp	r1, #0
 145 000c 12D0     		beq	.L15
 146 000e 0024     		movs	r4, #0
 147 0010 0AE0     		b	.L11
 148              	.LVL12:
 149              	.L13:
 150              	.LBB2:
  10:Source\azure_iot_sdk\c-utility\adapters/uniqueid_stub.c **** 
 151              		.loc 1 10 0 discriminator 9
 152 0012 A300     		lsls	r3, r4, #2
 153 0014 084A     		ldr	r2, .L16
 154 0016 9958     		ldr	r1, [r3, r2]
 155 0018 2800     		movs	r0, r5
 156 001a FFF7FEFF 		bl	strcmp
 157              	.LVL13:
 158 001e 0028     		cmp	r0, #0
 159 0020 01D1     		bne	.L12
  10:Source\azure_iot_sdk\c-utility\adapters/uniqueid_stub.c **** 
 160              		.loc 1 10 0 discriminator 6
 161 0022 3470     		strb	r4, [r6]
 162 0024 07E0     		b	.L10
 163              	.L12:
  10:Source\azure_iot_sdk\c-utility\adapters/uniqueid_stub.c **** 
 164              		.loc 1 10 0 discriminator 7
 165 0026 0134     		adds	r4, r4, #1
 166              	.LVL14:
 167              	.L11:
  10:Source\azure_iot_sdk\c-utility\adapters/uniqueid_stub.c **** 
 168              		.loc 1 10 0 discriminator 8
 169 0028 022C     		cmp	r4, #2
 170 002a F2D9     		bls	.L13
  10:Source\azure_iot_sdk\c-utility\adapters/uniqueid_stub.c **** 
 171              		.loc 1 10 0
 172 002c 0A20     		movs	r0, #10
 173 002e 02E0     		b	.L10
 174              	.LVL15:
 175              	.L14:
 176              	.LBE2:
 177 0030 0A20     		movs	r0, #10
 178              	.LVL16:
 179 0032 00E0     		b	.L10
 180              	.LVL17:
ARM GAS  C:\Users\Phuong\AppData\Local\Temp\ccERItZl.s 			page 5


 181              	.L15:
 182 0034 0A20     		movs	r0, #10
 183              	.LVL18:
 184              	.L10:
 185              		@ sp needed
 186              	.LVL19:
 187              	.LVL20:
 188 0036 70BD     		pop	{r4, r5, r6, pc}
 189              	.L17:
 190              		.align	2
 191              	.L16:
 192 0038 00000000 		.word	.LANCHOR0
 193              		.cfi_endproc
 194              	.LFE2:
 195              		.size	UNIQUEID_RESULT_FromString, .-UNIQUEID_RESULT_FromString
 196              		.section	.text.UniqueId_Generate,"ax",%progbits
 197              		.align	2
 198              		.global	UniqueId_Generate
 199              		.code	16
 200              		.thumb_func
 201              		.type	UniqueId_Generate, %function
 202              	UniqueId_Generate:
 203              	.LFB4:
  35:Source\azure_iot_sdk\c-utility\adapters/uniqueid_stub.c **** 
  36:Source\azure_iot_sdk\c-utility\adapters/uniqueid_stub.c **** // TODO: The User will need to call srand before calling this function
  37:Source\azure_iot_sdk\c-utility\adapters/uniqueid_stub.c **** UNIQUEID_RESULT UniqueId_Generate(char* uid, size_t len)
  38:Source\azure_iot_sdk\c-utility\adapters/uniqueid_stub.c **** {
 204              		.loc 1 38 0 is_stmt 1
 205              		.cfi_startproc
 206              		@ args = 0, pretend = 0, frame = 16
 207              		@ frame_needed = 0, uses_anonymous_args = 0
 208              	.LVL21:
 209 0000 30B5     		push	{r4, r5, lr}
 210              		.cfi_def_cfa_offset 12
 211              		.cfi_offset 4, -12
 212              		.cfi_offset 5, -8
 213              		.cfi_offset 14, -4
 214 0002 87B0     		sub	sp, sp, #28
 215              		.cfi_def_cfa_offset 40
 216 0004 041E     		subs	r4, r0, #0
  39:Source\azure_iot_sdk\c-utility\adapters/uniqueid_stub.c ****     UNIQUEID_RESULT result;
  40:Source\azure_iot_sdk\c-utility\adapters/uniqueid_stub.c ****     unsigned char arrayOfChar[16];
  41:Source\azure_iot_sdk\c-utility\adapters/uniqueid_stub.c **** 
  42:Source\azure_iot_sdk\c-utility\adapters/uniqueid_stub.c ****     /* Codes_SRS_UNIQUEID_07_002: [If uid is NULL then UniqueId_Generate shall return UNIQUEID_INVA
  43:Source\azure_iot_sdk\c-utility\adapters/uniqueid_stub.c ****     /* Codes_SRS_UNIQUEID_07_003: [If len is less then 37 then UniqueId_Generate shall return UNIQU
  44:Source\azure_iot_sdk\c-utility\adapters/uniqueid_stub.c ****     if (uid == NULL || len < 37)
 217              		.loc 1 44 0
 218 0006 01D0     		beq	.L19
 219              		.loc 1 44 0 is_stmt 0 discriminator 1
 220 0008 2429     		cmp	r1, #36
 221 000a 0ED8     		bhi	.L20
 222              	.L19:
 223              	.LVL22:
 224              	.LBB3:
  45:Source\azure_iot_sdk\c-utility\adapters/uniqueid_stub.c ****     {
  46:Source\azure_iot_sdk\c-utility\adapters/uniqueid_stub.c ****         result = UNIQUEID_INVALID_ARG;
  47:Source\azure_iot_sdk\c-utility\adapters/uniqueid_stub.c ****         LogError("Buffer Size is Null or length is less then 37 bytes");
ARM GAS  C:\Users\Phuong\AppData\Local\Temp\ccERItZl.s 			page 6


 225              		.loc 1 47 0 is_stmt 1
 226 000c FFF7FEFF 		bl	xlogging_get_log_function
 227              	.LVL23:
 228 0010 041E     		subs	r4, r0, #0
 229              	.LVL24:
 230 0012 35D0     		beq	.L27
 231              		.loc 1 47 0 is_stmt 0 discriminator 4
 232 0014 1C4B     		ldr	r3, .L29
 233 0016 0193     		str	r3, [sp, #4]
 234 0018 0123     		movs	r3, #1
 235 001a 0093     		str	r3, [sp]
 236 001c 2E33     		adds	r3, r3, #46
 237 001e 1B4A     		ldr	r2, .L29+4
 238 0020 1B49     		ldr	r1, .L29+8
 239 0022 0020     		movs	r0, #0
 240              	.LVL25:
 241 0024 A047     		blx	r4
 242              	.LVL26:
 243              	.LBE3:
  46:Source\azure_iot_sdk\c-utility\adapters/uniqueid_stub.c ****         LogError("Buffer Size is Null or length is less then 37 bytes");
 244              		.loc 1 46 0 is_stmt 1 discriminator 4
 245 0026 0120     		movs	r0, #1
 246 0028 2BE0     		b	.L21
 247              	.LVL27:
 248              	.L20:
 249              	.LBB4:
  48:Source\azure_iot_sdk\c-utility\adapters/uniqueid_stub.c ****     }
  49:Source\azure_iot_sdk\c-utility\adapters/uniqueid_stub.c ****     else
  50:Source\azure_iot_sdk\c-utility\adapters/uniqueid_stub.c ****     {
  51:Source\azure_iot_sdk\c-utility\adapters/uniqueid_stub.c ****         size_t arrayIndex;
  52:Source\azure_iot_sdk\c-utility\adapters/uniqueid_stub.c ****         size_t shiftCount;
  53:Source\azure_iot_sdk\c-utility\adapters/uniqueid_stub.c ****         size_t characterPosition = 0;
  54:Source\azure_iot_sdk\c-utility\adapters/uniqueid_stub.c **** 
  55:Source\azure_iot_sdk\c-utility\adapters/uniqueid_stub.c ****         /* Codes_SRS_UNIQUEID_07_001: [UniqueId_Generate shall create a unique Id 36 character long
  56:Source\azure_iot_sdk\c-utility\adapters/uniqueid_stub.c ****         generate128BitUUID(arrayOfChar);
 250              		.loc 1 56 0
 251 002a 02A8     		add	r0, sp, #8
 252              	.LVL28:
 253 002c FFF7FEFF 		bl	generate128BitUUID
 254              	.LVL29:
  53:Source\azure_iot_sdk\c-utility\adapters/uniqueid_stub.c **** 
 255              		.loc 1 53 0
 256 0030 0023     		movs	r3, #0
  57:Source\azure_iot_sdk\c-utility\adapters/uniqueid_stub.c ****         for (arrayIndex = 0; arrayIndex < 16; arrayIndex++)
 257              		.loc 1 57 0
 258 0032 0021     		movs	r1, #0
 259 0034 1DE0     		b	.L22
 260              	.LVL30:
 261              	.L25:
 262              	.LBB5:
  58:Source\azure_iot_sdk\c-utility\adapters/uniqueid_stub.c ****         {
  59:Source\azure_iot_sdk\c-utility\adapters/uniqueid_stub.c ****             for (shiftCount = 0; shiftCount <= 1; shiftCount++)
  60:Source\azure_iot_sdk\c-utility\adapters/uniqueid_stub.c ****             {
  61:Source\azure_iot_sdk\c-utility\adapters/uniqueid_stub.c ****                 char hexChar = tochar[arrayOfChar[arrayIndex] & 0xf];
 263              		.loc 1 61 0
 264 0036 02AA     		add	r2, sp, #8
 265 0038 525C     		ldrb	r2, [r2, r1]
ARM GAS  C:\Users\Phuong\AppData\Local\Temp\ccERItZl.s 			page 7


 266 003a 0F25     		movs	r5, #15
 267 003c 2A40     		ands	r2, r5
 268 003e 134D     		ldr	r5, .L29+4
 269 0040 AA18     		adds	r2, r5, r2
 270 0042 127D     		ldrb	r2, [r2, #20]
 271              	.LVL31:
  62:Source\azure_iot_sdk\c-utility\adapters/uniqueid_stub.c ****                 if ((characterPosition == 8) || (characterPosition == 13) || (characterPosition == 
 272              		.loc 1 62 0
 273 0044 082B     		cmp	r3, #8
 274 0046 05D0     		beq	.L23
 275              		.loc 1 62 0 is_stmt 0 discriminator 1
 276 0048 0D2B     		cmp	r3, #13
 277 004a 03D0     		beq	.L23
 278              		.loc 1 62 0 discriminator 2
 279 004c 122B     		cmp	r3, #18
 280 004e 01D0     		beq	.L23
 281              		.loc 1 62 0 discriminator 3
 282 0050 172B     		cmp	r3, #23
 283 0052 02D1     		bne	.L24
 284              	.L23:
  63:Source\azure_iot_sdk\c-utility\adapters/uniqueid_stub.c ****                 {
  64:Source\azure_iot_sdk\c-utility\adapters/uniqueid_stub.c ****                     uid[characterPosition] = '-';
 285              		.loc 1 64 0 is_stmt 1
 286 0054 2D25     		movs	r5, #45
 287 0056 E554     		strb	r5, [r4, r3]
  65:Source\azure_iot_sdk\c-utility\adapters/uniqueid_stub.c ****                     characterPosition++;
 288              		.loc 1 65 0
 289 0058 0133     		adds	r3, r3, #1
 290              	.LVL32:
 291              	.L24:
  66:Source\azure_iot_sdk\c-utility\adapters/uniqueid_stub.c ****                 }
  67:Source\azure_iot_sdk\c-utility\adapters/uniqueid_stub.c ****                 uid[characterPosition] = hexChar;
 292              		.loc 1 67 0 discriminator 2
 293 005a E254     		strb	r2, [r4, r3]
  68:Source\azure_iot_sdk\c-utility\adapters/uniqueid_stub.c ****                 characterPosition++;
 294              		.loc 1 68 0 discriminator 2
 295 005c 0133     		adds	r3, r3, #1
 296              	.LVL33:
  69:Source\azure_iot_sdk\c-utility\adapters/uniqueid_stub.c ****                 arrayOfChar[arrayIndex] = arrayOfChar[arrayIndex] >> 4;
 297              		.loc 1 69 0 discriminator 2
 298 005e 02AD     		add	r5, sp, #8
 299 0060 6A5C     		ldrb	r2, [r5, r1]
 300              	.LVL34:
 301 0062 1209     		lsrs	r2, r2, #4
 302 0064 6A54     		strb	r2, [r5, r1]
 303              	.LVL35:
 304              	.LBE5:
  59:Source\azure_iot_sdk\c-utility\adapters/uniqueid_stub.c ****             {
 305              		.loc 1 59 0 discriminator 2
 306 0066 0130     		adds	r0, r0, #1
 307              	.LVL36:
 308 0068 00E0     		b	.L26
 309              	.LVL37:
 310              	.L28:
 311 006a 0020     		movs	r0, #0
 312              	.L26:
 313              	.LVL38:
ARM GAS  C:\Users\Phuong\AppData\Local\Temp\ccERItZl.s 			page 8


  59:Source\azure_iot_sdk\c-utility\adapters/uniqueid_stub.c ****             {
 314              		.loc 1 59 0 is_stmt 0 discriminator 1
 315 006c 0128     		cmp	r0, #1
 316 006e E2D9     		bls	.L25
  57:Source\azure_iot_sdk\c-utility\adapters/uniqueid_stub.c ****         {
 317              		.loc 1 57 0 is_stmt 1 discriminator 2
 318 0070 0131     		adds	r1, r1, #1
 319              	.LVL39:
 320              	.L22:
  57:Source\azure_iot_sdk\c-utility\adapters/uniqueid_stub.c ****         {
 321              		.loc 1 57 0 is_stmt 0 discriminator 1
 322 0072 0F29     		cmp	r1, #15
 323 0074 F9D9     		bls	.L28
  70:Source\azure_iot_sdk\c-utility\adapters/uniqueid_stub.c ****             }
  71:Source\azure_iot_sdk\c-utility\adapters/uniqueid_stub.c ****         }
  72:Source\azure_iot_sdk\c-utility\adapters/uniqueid_stub.c ****         uid[characterPosition] = 0;
 324              		.loc 1 72 0 is_stmt 1
 325 0076 E318     		adds	r3, r4, r3
 326              	.LVL40:
 327 0078 0022     		movs	r2, #0
 328 007a 1A70     		strb	r2, [r3]
 329              	.LVL41:
  73:Source\azure_iot_sdk\c-utility\adapters/uniqueid_stub.c ****         result = UNIQUEID_OK;
 330              		.loc 1 73 0
 331 007c 0020     		movs	r0, #0
 332 007e 00E0     		b	.L21
 333              	.LVL42:
 334              	.L27:
 335              	.LBE4:
  46:Source\azure_iot_sdk\c-utility\adapters/uniqueid_stub.c ****         LogError("Buffer Size is Null or length is less then 37 bytes");
 336              		.loc 1 46 0
 337 0080 0120     		movs	r0, #1
 338              	.LVL43:
 339              	.L21:
  74:Source\azure_iot_sdk\c-utility\adapters/uniqueid_stub.c ****     }
  75:Source\azure_iot_sdk\c-utility\adapters/uniqueid_stub.c ****     return result;
  76:Source\azure_iot_sdk\c-utility\adapters/uniqueid_stub.c **** }
 340              		.loc 1 76 0
 341 0082 07B0     		add	sp, sp, #28
 342              		@ sp needed
 343 0084 30BD     		pop	{r4, r5, pc}
 344              	.L30:
 345 0086 C046     		.align	2
 346              	.L29:
 347 0088 38000000 		.word	.LC5
 348 008c 00000000 		.word	.LANCHOR1
 349 0090 00000000 		.word	.LC3
 350              		.cfi_endproc
 351              	.LFE4:
 352              		.size	UniqueId_Generate, .-UniqueId_Generate
 353              		.global	UNIQUEID_RESULTStringStorage
 354              		.section	.rodata
 355              		.align	2
 356              		.set	.LANCHOR1,. + 0
 357              		.type	__func__.5892, %object
 358              		.size	__func__.5892, 18
 359              	__func__.5892:
ARM GAS  C:\Users\Phuong\AppData\Local\Temp\ccERItZl.s 			page 9


 360 0000 556E6971 		.ascii	"UniqueId_Generate\000"
 360      75654964 
 360      5F47656E 
 360      65726174 
 360      6500
 361 0012 0000     		.space	2
 362              		.type	tochar, %object
 363              		.size	tochar, 16
 364              	tochar:
 365 0014 30       		.byte	48
 366 0015 31       		.byte	49
 367 0016 32       		.byte	50
 368 0017 33       		.byte	51
 369 0018 34       		.byte	52
 370 0019 35       		.byte	53
 371 001a 36       		.byte	54
 372 001b 37       		.byte	55
 373 001c 38       		.byte	56
 374 001d 39       		.byte	57
 375 001e 41       		.byte	65
 376 001f 42       		.byte	66
 377 0020 43       		.byte	67
 378 0021 44       		.byte	68
 379 0022 45       		.byte	69
 380 0023 46       		.byte	70
 381              		.data
 382              		.align	2
 383              		.set	.LANCHOR0,. + 0
 384              		.type	UNIQUEID_RESULTStringStorage, %object
 385              		.size	UNIQUEID_RESULTStringStorage, 12
 386              	UNIQUEID_RESULTStringStorage:
 387 0000 6C000000 		.word	.LC7
 388 0004 78000000 		.word	.LC8
 389 0008 90000000 		.word	.LC9
 390              		.section	.rodata.str1.4,"aMS",%progbits,1
 391              		.align	2
 392              	.LC3:
 393 0000 536F7572 		.ascii	"Source\\azure_iot_sdk\\c-utility\\adapters\\uniquei"
 393      63655C61 
 393      7A757265 
 393      5F696F74 
 393      5F73646B 
 394 002f 645F7374 		.ascii	"d_stub.c\000"
 394      75622E63 
 394      00
 395              	.LC5:
 396 0038 42756666 		.ascii	"Buffer Size is Null or length is less then 37 bytes"
 396      65722053 
 396      697A6520 
 396      6973204E 
 396      756C6C20 
 397 006b 00       		.ascii	"\000"
 398              	.LC7:
 399 006c 554E4951 		.ascii	"UNIQUEID_OK\000"
 399      55454944 
 399      5F4F4B00 
 400              	.LC8:
ARM GAS  C:\Users\Phuong\AppData\Local\Temp\ccERItZl.s 			page 10


 401 0078 554E4951 		.ascii	"UNIQUEID_INVALID_ARG\000"
 401      55454944 
 401      5F494E56 
 401      414C4944 
 401      5F415247 
 402 008d 000000   		.space	3
 403              	.LC9:
 404 0090 554E4951 		.ascii	"UNIQUEID_ERROR\000"
 404      55454944 
 404      5F455252 
 404      4F5200
 405              		.text
 406              	.Letext0:
 407              		.file 2 "c:\\program files (x86)\\cypress\\psoc creator\\4.2\\psoc creator\\import\\gnu\\arm\\5.4.
 408              		.file 3 ".\\Source\\azure_iot_sdk\\c-utility\\inc/azure_c_shared_utility/uniqueid.h"
 409              		.file 4 ".\\Source\\azure_iot_sdk\\c-utility\\inc/azure_c_shared_utility/xlogging.h"
 410              		.file 5 "c:\\program files (x86)\\cypress\\psoc creator\\4.2\\psoc creator\\import\\gnu\\arm\\5.4.
 411              		.file 6 "c:\\program files (x86)\\cypress\\psoc creator\\4.2\\psoc creator\\import\\gnu\\arm\\5.4.