ARM GAS  C:\Users\Phuong\AppData\Local\Temp\ccVsyoLP.s 			page 1


   1              		.syntax unified
   2              		.cpu cortex-m0plus
   3              		.fpu softvfp
   4              		.eabi_attribute 20, 1
   5              		.eabi_attribute 21, 1
   6              		.eabi_attribute 23, 3
   7              		.eabi_attribute 24, 1
   8              		.eabi_attribute 25, 1
   9              		.eabi_attribute 26, 1
  10              		.eabi_attribute 30, 1
  11              		.eabi_attribute 34, 0
  12              		.eabi_attribute 18, 4
  13              		.thumb
  14              		.syntax unified
  15              		.file	"urlencode.c"
  16              		.text
  17              	.Ltext0:
  18              		.cfi_sections	.debug_frame
  19              		.section	.text.URL_PrintableChar,"ax",%progbits
  20              		.align	2
  21              		.code	16
  22              		.thumb_func
  23              		.type	URL_PrintableChar, %function
  24              	URL_PrintableChar:
  25              	.LFB1:
  26              		.file 1 "Source\\azure_iot_sdk\\c-utility\\src\\urlencode.c"
   1:Source\azure_iot_sdk\c-utility\src/urlencode.c **** // Copyright (c) Microsoft. All rights reserved.
   2:Source\azure_iot_sdk\c-utility\src/urlencode.c **** // Licensed under the MIT license. See LICENSE file in the project root for full license informatio
   3:Source\azure_iot_sdk\c-utility\src/urlencode.c **** 
   4:Source\azure_iot_sdk\c-utility\src/urlencode.c **** #include <stdlib.h>
   5:Source\azure_iot_sdk\c-utility\src/urlencode.c **** #include <stddef.h>
   6:Source\azure_iot_sdk\c-utility\src/urlencode.c **** #include <string.h>
   7:Source\azure_iot_sdk\c-utility\src/urlencode.c **** #include "azure_c_shared_utility/gballoc.h"
   8:Source\azure_iot_sdk\c-utility\src/urlencode.c **** #include "azure_c_shared_utility/urlencode.h"
   9:Source\azure_iot_sdk\c-utility\src/urlencode.c **** #include "azure_c_shared_utility/xlogging.h"
  10:Source\azure_iot_sdk\c-utility\src/urlencode.c **** #include "azure_c_shared_utility/strings.h"
  11:Source\azure_iot_sdk\c-utility\src/urlencode.c **** #include "azure_c_shared_utility/crt_abstractions.h"
  12:Source\azure_iot_sdk\c-utility\src/urlencode.c **** 
  13:Source\azure_iot_sdk\c-utility\src/urlencode.c **** #define NIBBLE_TO_STRING(c) (char)((c) < 10 ? (c) + '0' : (c) - 10 + 'a')
  14:Source\azure_iot_sdk\c-utility\src/urlencode.c **** #define NIBBLE_FROM_STRING(c) (char)(ISDIGIT(c) ? (c) - '0' : TOUPPER(c) + 10 - 'A')
  15:Source\azure_iot_sdk\c-utility\src/urlencode.c **** #define IS_HEXDIGIT(c) (            \
  16:Source\azure_iot_sdk\c-utility\src/urlencode.c ****     ((c >= '0') && (c <= '9')) ||   \
  17:Source\azure_iot_sdk\c-utility\src/urlencode.c ****     ((c >= 'A') && (c <= 'F')) ||   \
  18:Source\azure_iot_sdk\c-utility\src/urlencode.c ****     ((c >= 'a') && (c <= 'f'))      \
  19:Source\azure_iot_sdk\c-utility\src/urlencode.c **** )
  20:Source\azure_iot_sdk\c-utility\src/urlencode.c **** #define IS_PRINTABLE(c) (                           \
  21:Source\azure_iot_sdk\c-utility\src/urlencode.c ****     (c == 0) ||                                     \
  22:Source\azure_iot_sdk\c-utility\src/urlencode.c ****     (c == '!') ||                                   \
  23:Source\azure_iot_sdk\c-utility\src/urlencode.c ****     (c == '(') || (c == ')') || (c == '*') ||       \
  24:Source\azure_iot_sdk\c-utility\src/urlencode.c ****     (c == '-') || (c == '.') ||                     \
  25:Source\azure_iot_sdk\c-utility\src/urlencode.c ****     ((c >= '0') && (c <= '9')) ||                   \
  26:Source\azure_iot_sdk\c-utility\src/urlencode.c ****     ((c >= 'A') && (c <= 'Z')) ||                   \
  27:Source\azure_iot_sdk\c-utility\src/urlencode.c ****     (c == '_') ||                                   \
  28:Source\azure_iot_sdk\c-utility\src/urlencode.c ****     ((c >= 'a') && (c <= 'z'))                      \
  29:Source\azure_iot_sdk\c-utility\src/urlencode.c **** )
  30:Source\azure_iot_sdk\c-utility\src/urlencode.c **** 
  31:Source\azure_iot_sdk\c-utility\src/urlencode.c **** /*The below macros are to be called on the big nibble of a hex value*/
ARM GAS  C:\Users\Phuong\AppData\Local\Temp\ccVsyoLP.s 			page 2


  32:Source\azure_iot_sdk\c-utility\src/urlencode.c **** #define IS_IN_ASCII_RANGE(c) (  \
  33:Source\azure_iot_sdk\c-utility\src/urlencode.c ****     (c >= '0') && (c <= '7')    \
  34:Source\azure_iot_sdk\c-utility\src/urlencode.c **** )
  35:Source\azure_iot_sdk\c-utility\src/urlencode.c **** #define IS_IN_EXTENDED_ASCII_RANGE(c) ( \
  36:Source\azure_iot_sdk\c-utility\src/urlencode.c ****     ((c >= '8') && (c <= '9')) ||       \
  37:Source\azure_iot_sdk\c-utility\src/urlencode.c ****     ((c >= 'A') && (c <= 'F')) ||       \
  38:Source\azure_iot_sdk\c-utility\src/urlencode.c ****     ((c >= 'a') && (c <= 'f'))          \
  39:Source\azure_iot_sdk\c-utility\src/urlencode.c **** )
  40:Source\azure_iot_sdk\c-utility\src/urlencode.c **** #define IS_IN_CONTINUATION_BYTE_RANGE(c) (  \
  41:Source\azure_iot_sdk\c-utility\src/urlencode.c ****     (c == '8') || (c == '9') ||             \
  42:Source\azure_iot_sdk\c-utility\src/urlencode.c ****     (c == 'A') || (c == 'B') ||             \
  43:Source\azure_iot_sdk\c-utility\src/urlencode.c ****     (c == 'a') || (c == 'b')                \
  44:Source\azure_iot_sdk\c-utility\src/urlencode.c **** )
  45:Source\azure_iot_sdk\c-utility\src/urlencode.c **** #define IS_IN_LEADING_BYTE_RANGE(c) (   \
  46:Source\azure_iot_sdk\c-utility\src/urlencode.c ****     ((c >= 'C') && (c <= 'F')) ||       \
  47:Source\azure_iot_sdk\c-utility\src/urlencode.c ****     ((c >= 'c') && (c <= 'f'))          \
  48:Source\azure_iot_sdk\c-utility\src/urlencode.c **** )
  49:Source\azure_iot_sdk\c-utility\src/urlencode.c **** #define IS_IN_UNSUPPORTED_LEADING_BYTE_RANGE(c) (   \
  50:Source\azure_iot_sdk\c-utility\src/urlencode.c ****     ((c >= 'D') && (c <= 'F')) ||                   \
  51:Source\azure_iot_sdk\c-utility\src/urlencode.c ****     ((c >= 'd') && (c <= 'f'))                      \
  52:Source\azure_iot_sdk\c-utility\src/urlencode.c **** )
  53:Source\azure_iot_sdk\c-utility\src/urlencode.c **** 
  54:Source\azure_iot_sdk\c-utility\src/urlencode.c **** static size_t URL_PrintableChar(unsigned char charVal, char* buffer)
  55:Source\azure_iot_sdk\c-utility\src/urlencode.c **** {
  27              		.loc 1 55 0
  28              		.cfi_startproc
  29              		@ args = 0, pretend = 0, frame = 0
  30              		@ frame_needed = 0, uses_anonymous_args = 0
  31              	.LVL0:
  32 0000 10B5     		push	{r4, lr}
  33              		.cfi_def_cfa_offset 8
  34              		.cfi_offset 4, -8
  35              		.cfi_offset 14, -4
  56:Source\azure_iot_sdk\c-utility\src/urlencode.c ****     size_t size;
  57:Source\azure_iot_sdk\c-utility\src/urlencode.c ****     if (IS_PRINTABLE(charVal))
  36              		.loc 1 57 0
  37 0002 0028     		cmp	r0, #0
  38 0004 1CD0     		beq	.L2
  39              		.loc 1 57 0 is_stmt 0 discriminator 1
  40 0006 2128     		cmp	r0, #33
  41 0008 1AD0     		beq	.L2
  42              		.loc 1 57 0 discriminator 2
  43 000a 2828     		cmp	r0, #40
  44 000c 18D0     		beq	.L2
  45              		.loc 1 57 0 discriminator 3
  46 000e 2928     		cmp	r0, #41
  47 0010 16D0     		beq	.L2
  48              		.loc 1 57 0 discriminator 4
  49 0012 2A28     		cmp	r0, #42
  50 0014 14D0     		beq	.L2
  51              		.loc 1 57 0 discriminator 5
  52 0016 2D28     		cmp	r0, #45
  53 0018 12D0     		beq	.L2
  54              		.loc 1 57 0 discriminator 6
  55 001a 2E28     		cmp	r0, #46
  56 001c 10D0     		beq	.L2
  57              		.loc 1 57 0 discriminator 7
ARM GAS  C:\Users\Phuong\AppData\Local\Temp\ccVsyoLP.s 			page 3


  58 001e 0300     		movs	r3, r0
  59 0020 303B     		subs	r3, r3, #48
  60 0022 DBB2     		uxtb	r3, r3
  61 0024 092B     		cmp	r3, #9
  62 0026 0BD9     		bls	.L2
  63              		.loc 1 57 0 discriminator 8
  64 0028 0300     		movs	r3, r0
  65 002a 413B     		subs	r3, r3, #65
  66 002c DBB2     		uxtb	r3, r3
  67 002e 192B     		cmp	r3, #25
  68 0030 06D9     		bls	.L2
  69              		.loc 1 57 0 discriminator 9
  70 0032 5F28     		cmp	r0, #95
  71 0034 04D0     		beq	.L2
  72              		.loc 1 57 0 discriminator 10
  73 0036 0300     		movs	r3, r0
  74 0038 613B     		subs	r3, r3, #97
  75 003a DBB2     		uxtb	r3, r3
  76 003c 192B     		cmp	r3, #25
  77 003e 02D8     		bhi	.L3
  78              	.L2:
  58:Source\azure_iot_sdk\c-utility\src/urlencode.c ****     {
  59:Source\azure_iot_sdk\c-utility\src/urlencode.c ****         buffer[0] = (char)charVal;
  79              		.loc 1 59 0 is_stmt 1
  80 0040 0870     		strb	r0, [r1]
  81              	.LVL1:
  60:Source\azure_iot_sdk\c-utility\src/urlencode.c ****         size = 1;
  82              		.loc 1 60 0
  83 0042 0120     		movs	r0, #1
  84              	.LVL2:
  85 0044 2AE0     		b	.L4
  86              	.LVL3:
  87              	.L3:
  88              	.LBB2:
  61:Source\azure_iot_sdk\c-utility\src/urlencode.c ****     }
  62:Source\azure_iot_sdk\c-utility\src/urlencode.c ****     else
  63:Source\azure_iot_sdk\c-utility\src/urlencode.c ****     {
  64:Source\azure_iot_sdk\c-utility\src/urlencode.c ****         char bigNibbleStr;
  65:Source\azure_iot_sdk\c-utility\src/urlencode.c ****         char littleNibbleStr;
  66:Source\azure_iot_sdk\c-utility\src/urlencode.c ****         unsigned char bigNibbleVal = charVal >> 4;
  89              		.loc 1 66 0
  90 0046 0309     		lsrs	r3, r0, #4
  91              	.LVL4:
  67:Source\azure_iot_sdk\c-utility\src/urlencode.c ****         unsigned char littleNibbleVal = charVal & 0x0F;
  92              		.loc 1 67 0
  93 0048 0F22     		movs	r2, #15
  94 004a 0240     		ands	r2, r0
  95              	.LVL5:
  68:Source\azure_iot_sdk\c-utility\src/urlencode.c **** 
  69:Source\azure_iot_sdk\c-utility\src/urlencode.c ****         if (bigNibbleVal >= 0x0C)
  96              		.loc 1 69 0
  97 004c 0B2B     		cmp	r3, #11
  98 004e 01D9     		bls	.L5
  70:Source\azure_iot_sdk\c-utility\src/urlencode.c ****         {
  71:Source\azure_iot_sdk\c-utility\src/urlencode.c ****             bigNibbleVal -= 0x04;
  99              		.loc 1 71 0
 100 0050 043B     		subs	r3, r3, #4
ARM GAS  C:\Users\Phuong\AppData\Local\Temp\ccVsyoLP.s 			page 4


 101              	.LVL6:
 102 0052 DBB2     		uxtb	r3, r3
 103              	.LVL7:
 104              	.L5:
  72:Source\azure_iot_sdk\c-utility\src/urlencode.c ****         }
  73:Source\azure_iot_sdk\c-utility\src/urlencode.c **** 
  74:Source\azure_iot_sdk\c-utility\src/urlencode.c ****         bigNibbleStr = NIBBLE_TO_STRING(bigNibbleVal);
 105              		.loc 1 74 0
 106 0054 092B     		cmp	r3, #9
 107 0056 02D8     		bhi	.L6
 108              		.loc 1 74 0 is_stmt 0 discriminator 1
 109 0058 3033     		adds	r3, r3, #48
 110              	.LVL8:
 111 005a DBB2     		uxtb	r3, r3
 112 005c 01E0     		b	.L7
 113              	.LVL9:
 114              	.L6:
 115              		.loc 1 74 0 discriminator 2
 116 005e 5733     		adds	r3, r3, #87
 117              	.LVL10:
 118 0060 DBB2     		uxtb	r3, r3
 119              	.L7:
 120              	.LVL11:
  75:Source\azure_iot_sdk\c-utility\src/urlencode.c ****         littleNibbleStr = NIBBLE_TO_STRING(littleNibbleVal);
 121              		.loc 1 75 0 is_stmt 1 discriminator 4
 122 0062 092A     		cmp	r2, #9
 123 0064 01D8     		bhi	.L8
 124              		.loc 1 75 0 is_stmt 0 discriminator 1
 125 0066 3032     		adds	r2, r2, #48
 126              	.LVL12:
 127 0068 00E0     		b	.L9
 128              	.LVL13:
 129              	.L8:
 130              		.loc 1 75 0 discriminator 2
 131 006a 5732     		adds	r2, r2, #87
 132              	.LVL14:
 133              	.L9:
  76:Source\azure_iot_sdk\c-utility\src/urlencode.c **** 
  77:Source\azure_iot_sdk\c-utility\src/urlencode.c ****         buffer[0] = '%';
 134              		.loc 1 77 0 is_stmt 1 discriminator 4
 135 006c 2524     		movs	r4, #37
 136 006e 0C70     		strb	r4, [r1]
  78:Source\azure_iot_sdk\c-utility\src/urlencode.c **** 
  79:Source\azure_iot_sdk\c-utility\src/urlencode.c ****         if (charVal < 0x80)
 137              		.loc 1 79 0 discriminator 4
 138 0070 44B2     		sxtb	r4, r0
 139 0072 002C     		cmp	r4, #0
 140 0074 03DB     		blt	.L10
  80:Source\azure_iot_sdk\c-utility\src/urlencode.c ****         {
  81:Source\azure_iot_sdk\c-utility\src/urlencode.c ****             buffer[1] = bigNibbleStr;
 141              		.loc 1 81 0
 142 0076 4B70     		strb	r3, [r1, #1]
  82:Source\azure_iot_sdk\c-utility\src/urlencode.c ****             buffer[2] = littleNibbleStr;
 143              		.loc 1 82 0
 144 0078 8A70     		strb	r2, [r1, #2]
 145              	.LVL15:
  83:Source\azure_iot_sdk\c-utility\src/urlencode.c ****             size = 3;
ARM GAS  C:\Users\Phuong\AppData\Local\Temp\ccVsyoLP.s 			page 5


 146              		.loc 1 83 0
 147 007a 0320     		movs	r0, #3
 148              	.LVL16:
 149 007c 0EE0     		b	.L4
 150              	.LVL17:
 151              	.L10:
  84:Source\azure_iot_sdk\c-utility\src/urlencode.c ****         }
  85:Source\azure_iot_sdk\c-utility\src/urlencode.c ****         else
  86:Source\azure_iot_sdk\c-utility\src/urlencode.c ****         {
  87:Source\azure_iot_sdk\c-utility\src/urlencode.c ****             buffer[1] = 'c';
 152              		.loc 1 87 0
 153 007e 6324     		movs	r4, #99
 154 0080 4C70     		strb	r4, [r1, #1]
  88:Source\azure_iot_sdk\c-utility\src/urlencode.c ****             buffer[3] = '%';
 155              		.loc 1 88 0
 156 0082 3E3C     		subs	r4, r4, #62
 157 0084 CC70     		strb	r4, [r1, #3]
  89:Source\azure_iot_sdk\c-utility\src/urlencode.c ****             buffer[4] = bigNibbleStr;
 158              		.loc 1 89 0
 159 0086 0B71     		strb	r3, [r1, #4]
  90:Source\azure_iot_sdk\c-utility\src/urlencode.c ****             buffer[5] = littleNibbleStr;
 160              		.loc 1 90 0
 161 0088 4A71     		strb	r2, [r1, #5]
  91:Source\azure_iot_sdk\c-utility\src/urlencode.c ****             if (charVal < 0xC0)
 162              		.loc 1 91 0
 163 008a BF28     		cmp	r0, #191
 164 008c 03D8     		bhi	.L11
  92:Source\azure_iot_sdk\c-utility\src/urlencode.c ****             {
  93:Source\azure_iot_sdk\c-utility\src/urlencode.c ****                 buffer[2] = '2';
 165              		.loc 1 93 0
 166 008e 3223     		movs	r3, #50
 167              	.LVL18:
 168 0090 8B70     		strb	r3, [r1, #2]
  94:Source\azure_iot_sdk\c-utility\src/urlencode.c ****             }
  95:Source\azure_iot_sdk\c-utility\src/urlencode.c ****             else
  96:Source\azure_iot_sdk\c-utility\src/urlencode.c ****             {
  97:Source\azure_iot_sdk\c-utility\src/urlencode.c ****                 buffer[2] = '3';
  98:Source\azure_iot_sdk\c-utility\src/urlencode.c ****             }
  99:Source\azure_iot_sdk\c-utility\src/urlencode.c ****             size = 6;
 169              		.loc 1 99 0
 170 0092 0620     		movs	r0, #6
 171              	.LVL19:
 172 0094 02E0     		b	.L4
 173              	.LVL20:
 174              	.L11:
  97:Source\azure_iot_sdk\c-utility\src/urlencode.c ****             }
 175              		.loc 1 97 0
 176 0096 3323     		movs	r3, #51
 177              	.LVL21:
 178 0098 8B70     		strb	r3, [r1, #2]
 179              		.loc 1 99 0
 180 009a 0620     		movs	r0, #6
 181              	.LVL22:
 182              	.L4:
 183              	.LBE2:
 100:Source\azure_iot_sdk\c-utility\src/urlencode.c ****         }
 101:Source\azure_iot_sdk\c-utility\src/urlencode.c ****     }
ARM GAS  C:\Users\Phuong\AppData\Local\Temp\ccVsyoLP.s 			page 6


 102:Source\azure_iot_sdk\c-utility\src/urlencode.c **** 
 103:Source\azure_iot_sdk\c-utility\src/urlencode.c ****     return size;
 104:Source\azure_iot_sdk\c-utility\src/urlencode.c **** }
 184              		.loc 1 104 0
 185              		@ sp needed
 186 009c 10BD     		pop	{r4, pc}
 187              		.cfi_endproc
 188              	.LFE1:
 189              		.size	URL_PrintableChar, .-URL_PrintableChar
 190 009e C046     		.section	.text.charFromNibbles,"ax",%progbits
 191              		.align	2
 192              		.code	16
 193              		.thumb_func
 194              		.type	charFromNibbles, %function
 195              	charFromNibbles:
 196              	.LFB3:
 105:Source\azure_iot_sdk\c-utility\src/urlencode.c **** 
 106:Source\azure_iot_sdk\c-utility\src/urlencode.c **** static size_t calculateDecodedStringSize(const char* encodedString, size_t len)
 107:Source\azure_iot_sdk\c-utility\src/urlencode.c **** {
 108:Source\azure_iot_sdk\c-utility\src/urlencode.c ****     size_t decodedSize = 0;
 109:Source\azure_iot_sdk\c-utility\src/urlencode.c **** 
 110:Source\azure_iot_sdk\c-utility\src/urlencode.c ****     if (encodedString == NULL)
 111:Source\azure_iot_sdk\c-utility\src/urlencode.c ****     {
 112:Source\azure_iot_sdk\c-utility\src/urlencode.c ****         LogError("Null encoded string");
 113:Source\azure_iot_sdk\c-utility\src/urlencode.c ****     }
 114:Source\azure_iot_sdk\c-utility\src/urlencode.c ****     else if (len == 0)
 115:Source\azure_iot_sdk\c-utility\src/urlencode.c ****     {
 116:Source\azure_iot_sdk\c-utility\src/urlencode.c ****         decodedSize = 1; //for null terminator
 117:Source\azure_iot_sdk\c-utility\src/urlencode.c ****     }
 118:Source\azure_iot_sdk\c-utility\src/urlencode.c ****     else
 119:Source\azure_iot_sdk\c-utility\src/urlencode.c ****     {
 120:Source\azure_iot_sdk\c-utility\src/urlencode.c ****         size_t remaining_len = len;
 121:Source\azure_iot_sdk\c-utility\src/urlencode.c ****         size_t next_step = 0;
 122:Source\azure_iot_sdk\c-utility\src/urlencode.c ****         size_t i = 0;
 123:Source\azure_iot_sdk\c-utility\src/urlencode.c ****         while (i < len)
 124:Source\azure_iot_sdk\c-utility\src/urlencode.c ****         {
 125:Source\azure_iot_sdk\c-utility\src/urlencode.c ****             //percent encoded character
 126:Source\azure_iot_sdk\c-utility\src/urlencode.c ****             if (encodedString[i] == '%')
 127:Source\azure_iot_sdk\c-utility\src/urlencode.c ****             {
 128:Source\azure_iot_sdk\c-utility\src/urlencode.c ****                 if (remaining_len < 3 || !IS_HEXDIGIT(encodedString[i+1]) || !IS_HEXDIGIT(encodedSt
 129:Source\azure_iot_sdk\c-utility\src/urlencode.c ****                 {
 130:Source\azure_iot_sdk\c-utility\src/urlencode.c ****                     LogError("Incomplete or invalid percent encoding");
 131:Source\azure_iot_sdk\c-utility\src/urlencode.c ****                     break;
 132:Source\azure_iot_sdk\c-utility\src/urlencode.c ****                 }
 133:Source\azure_iot_sdk\c-utility\src/urlencode.c ****                 else if (!IS_IN_ASCII_RANGE(encodedString[i+1]))
 134:Source\azure_iot_sdk\c-utility\src/urlencode.c ****                 {
 135:Source\azure_iot_sdk\c-utility\src/urlencode.c ****                     LogError("Out of range of characters accepted by this decoder");
 136:Source\azure_iot_sdk\c-utility\src/urlencode.c ****                     break;
 137:Source\azure_iot_sdk\c-utility\src/urlencode.c ****                 }
 138:Source\azure_iot_sdk\c-utility\src/urlencode.c ****                 else
 139:Source\azure_iot_sdk\c-utility\src/urlencode.c ****                 {
 140:Source\azure_iot_sdk\c-utility\src/urlencode.c ****                     decodedSize++;
 141:Source\azure_iot_sdk\c-utility\src/urlencode.c ****                     next_step = 3;
 142:Source\azure_iot_sdk\c-utility\src/urlencode.c ****                 }
 143:Source\azure_iot_sdk\c-utility\src/urlencode.c ****             }
 144:Source\azure_iot_sdk\c-utility\src/urlencode.c ****             else if (!IS_PRINTABLE(encodedString[i]))
 145:Source\azure_iot_sdk\c-utility\src/urlencode.c ****             {
ARM GAS  C:\Users\Phuong\AppData\Local\Temp\ccVsyoLP.s 			page 7


 146:Source\azure_iot_sdk\c-utility\src/urlencode.c ****                 LogError("Unprintable value in encoded string");
 147:Source\azure_iot_sdk\c-utility\src/urlencode.c ****                 break;
 148:Source\azure_iot_sdk\c-utility\src/urlencode.c ****             }
 149:Source\azure_iot_sdk\c-utility\src/urlencode.c ****             //safe character
 150:Source\azure_iot_sdk\c-utility\src/urlencode.c ****             else
 151:Source\azure_iot_sdk\c-utility\src/urlencode.c ****             {
 152:Source\azure_iot_sdk\c-utility\src/urlencode.c ****                 decodedSize++;
 153:Source\azure_iot_sdk\c-utility\src/urlencode.c ****                 next_step = 1;
 154:Source\azure_iot_sdk\c-utility\src/urlencode.c ****             }
 155:Source\azure_iot_sdk\c-utility\src/urlencode.c **** 
 156:Source\azure_iot_sdk\c-utility\src/urlencode.c ****             i += next_step;
 157:Source\azure_iot_sdk\c-utility\src/urlencode.c ****             remaining_len -= next_step;
 158:Source\azure_iot_sdk\c-utility\src/urlencode.c ****         }
 159:Source\azure_iot_sdk\c-utility\src/urlencode.c **** 
 160:Source\azure_iot_sdk\c-utility\src/urlencode.c ****         if (encodedString[i] != '\0') //i.e. broke out of above loop due to error
 161:Source\azure_iot_sdk\c-utility\src/urlencode.c ****         {
 162:Source\azure_iot_sdk\c-utility\src/urlencode.c ****             decodedSize = 0;
 163:Source\azure_iot_sdk\c-utility\src/urlencode.c ****         }
 164:Source\azure_iot_sdk\c-utility\src/urlencode.c ****         else
 165:Source\azure_iot_sdk\c-utility\src/urlencode.c ****         {
 166:Source\azure_iot_sdk\c-utility\src/urlencode.c ****             decodedSize++; //add space for the null terminator
 167:Source\azure_iot_sdk\c-utility\src/urlencode.c ****         }
 168:Source\azure_iot_sdk\c-utility\src/urlencode.c ****     }
 169:Source\azure_iot_sdk\c-utility\src/urlencode.c ****     return decodedSize;
 170:Source\azure_iot_sdk\c-utility\src/urlencode.c **** }
 171:Source\azure_iot_sdk\c-utility\src/urlencode.c **** 
 172:Source\azure_iot_sdk\c-utility\src/urlencode.c **** static unsigned char charFromNibbles(char bigNibbleStr, char littleNibbleStr)
 173:Source\azure_iot_sdk\c-utility\src/urlencode.c **** {
 197              		.loc 1 173 0
 198              		.cfi_startproc
 199              		@ args = 0, pretend = 0, frame = 0
 200              		@ frame_needed = 0, uses_anonymous_args = 0
 201              	.LVL23:
 202 0000 10B5     		push	{r4, lr}
 203              		.cfi_def_cfa_offset 8
 204              		.cfi_offset 4, -8
 205              		.cfi_offset 14, -4
 174:Source\azure_iot_sdk\c-utility\src/urlencode.c ****     unsigned char bigNibbleVal = NIBBLE_FROM_STRING(bigNibbleStr);
 206              		.loc 1 174 0
 207 0002 0200     		movs	r2, r0
 208 0004 303A     		subs	r2, r2, #48
 209 0006 D4B2     		uxtb	r4, r2
 210 0008 092C     		cmp	r4, #9
 211 000a 09D9     		bls	.L13
 212              		.loc 1 174 0 is_stmt 0 discriminator 2
 213 000c 0300     		movs	r3, r0
 214 000e 613B     		subs	r3, r3, #97
 215 0010 DBB2     		uxtb	r3, r3
 216 0012 192B     		cmp	r3, #25
 217 0014 02D8     		bhi	.L14
 218              		.loc 1 174 0 discriminator 4
 219 0016 5738     		subs	r0, r0, #87
 220              	.LVL24:
 221 0018 C4B2     		uxtb	r4, r0
 222 001a 01E0     		b	.L13
 223              	.LVL25:
 224              	.L14:
ARM GAS  C:\Users\Phuong\AppData\Local\Temp\ccVsyoLP.s 			page 8


 225              		.loc 1 174 0 discriminator 5
 226 001c 3738     		subs	r0, r0, #55
 227              	.LVL26:
 228 001e C4B2     		uxtb	r4, r0
 229              	.L13:
 230              	.LVL27:
 175:Source\azure_iot_sdk\c-utility\src/urlencode.c ****     unsigned char littleNibbleVal = NIBBLE_FROM_STRING(littleNibbleStr);
 231              		.loc 1 175 0 is_stmt 1 discriminator 8
 232 0020 0A00     		movs	r2, r1
 233 0022 303A     		subs	r2, r2, #48
 234 0024 D3B2     		uxtb	r3, r2
 235 0026 092B     		cmp	r3, #9
 236 0028 09D9     		bls	.L15
 237              		.loc 1 175 0 is_stmt 0 discriminator 2
 238 002a 0B00     		movs	r3, r1
 239 002c 613B     		subs	r3, r3, #97
 240 002e DBB2     		uxtb	r3, r3
 241 0030 192B     		cmp	r3, #25
 242 0032 02D8     		bhi	.L16
 243              		.loc 1 175 0 discriminator 4
 244 0034 5739     		subs	r1, r1, #87
 245              	.LVL28:
 246 0036 CBB2     		uxtb	r3, r1
 247 0038 01E0     		b	.L15
 248              	.LVL29:
 249              	.L16:
 250              		.loc 1 175 0 discriminator 5
 251 003a 3739     		subs	r1, r1, #55
 252              	.LVL30:
 253 003c CBB2     		uxtb	r3, r1
 254              	.L15:
 255              	.LVL31:
 176:Source\azure_iot_sdk\c-utility\src/urlencode.c **** 
 177:Source\azure_iot_sdk\c-utility\src/urlencode.c ****     return bigNibbleVal << 4 | littleNibbleVal;
 256              		.loc 1 177 0 is_stmt 1 discriminator 8
 257 003e 2001     		lsls	r0, r4, #4
 258 0040 0343     		orrs	r3, r0
 259              	.LVL32:
 260 0042 D8B2     		uxtb	r0, r3
 178:Source\azure_iot_sdk\c-utility\src/urlencode.c **** }
 261              		.loc 1 178 0 discriminator 8
 262              		@ sp needed
 263              	.LVL33:
 264 0044 10BD     		pop	{r4, pc}
 265              		.cfi_endproc
 266              	.LFE3:
 267              		.size	charFromNibbles, .-charFromNibbles
 268 0046 C046     		.section	.text.createDecodedString,"ax",%progbits
 269              		.align	2
 270              		.code	16
 271              		.thumb_func
 272              		.type	createDecodedString, %function
 273              	createDecodedString:
 274              	.LFB4:
 179:Source\azure_iot_sdk\c-utility\src/urlencode.c **** 
 180:Source\azure_iot_sdk\c-utility\src/urlencode.c **** static void createDecodedString(const char* input, size_t input_size, char* output)
 181:Source\azure_iot_sdk\c-utility\src/urlencode.c **** {
ARM GAS  C:\Users\Phuong\AppData\Local\Temp\ccVsyoLP.s 			page 9


 275              		.loc 1 181 0
 276              		.cfi_startproc
 277              		@ args = 0, pretend = 0, frame = 0
 278              		@ frame_needed = 0, uses_anonymous_args = 0
 279              	.LVL34:
 280 0000 F0B5     		push	{r4, r5, r6, r7, lr}
 281              		.cfi_def_cfa_offset 20
 282              		.cfi_offset 4, -20
 283              		.cfi_offset 5, -16
 284              		.cfi_offset 6, -12
 285              		.cfi_offset 7, -8
 286              		.cfi_offset 14, -4
 287 0002 4746     		mov	r7, r8
 288 0004 80B4     		push	{r7}
 289              		.cfi_def_cfa_offset 24
 290              		.cfi_offset 8, -24
 291 0006 0600     		movs	r6, r0
 292 0008 0F00     		movs	r7, r1
 293 000a 1500     		movs	r5, r2
 294              	.LVL35:
 182:Source\azure_iot_sdk\c-utility\src/urlencode.c ****     /* Note that there is no danger of reckless indexing here, as calculateDecodedStringSize()
 183:Source\azure_iot_sdk\c-utility\src/urlencode.c ****     has already checked lengths of strings to ensure the formatting is always correct*/
 184:Source\azure_iot_sdk\c-utility\src/urlencode.c ****     size_t i = 0;
 295              		.loc 1 184 0
 296 000c 0024     		movs	r4, #0
 185:Source\azure_iot_sdk\c-utility\src/urlencode.c ****     while (i <= input_size) //the <= instead of < ensures the '\0' will be copied
 297              		.loc 1 185 0
 298 000e 11E0     		b	.L18
 299              	.LVL36:
 300              	.L21:
 186:Source\azure_iot_sdk\c-utility\src/urlencode.c ****     {
 187:Source\azure_iot_sdk\c-utility\src/urlencode.c ****         if (input[i] != '%')
 301              		.loc 1 187 0
 302 0010 335D     		ldrb	r3, [r6, r4]
 303 0012 252B     		cmp	r3, #37
 304 0014 03D0     		beq	.L19
 305              	.LVL37:
 188:Source\azure_iot_sdk\c-utility\src/urlencode.c ****         {
 189:Source\azure_iot_sdk\c-utility\src/urlencode.c ****             *output++ = input[i];
 306              		.loc 1 189 0
 307 0016 2B70     		strb	r3, [r5]
 190:Source\azure_iot_sdk\c-utility\src/urlencode.c ****             i++;
 308              		.loc 1 190 0
 309 0018 0134     		adds	r4, r4, #1
 310              	.LVL38:
 189:Source\azure_iot_sdk\c-utility\src/urlencode.c ****             i++;
 311              		.loc 1 189 0
 312 001a 0135     		adds	r5, r5, #1
 313              	.LVL39:
 314 001c 0AE0     		b	.L18
 315              	.L19:
 191:Source\azure_iot_sdk\c-utility\src/urlencode.c ****         }
 192:Source\azure_iot_sdk\c-utility\src/urlencode.c ****         else
 193:Source\azure_iot_sdk\c-utility\src/urlencode.c ****         {
 194:Source\azure_iot_sdk\c-utility\src/urlencode.c ****             *output++ = charFromNibbles(input[i+1], input[i+2]);
 316              		.loc 1 194 0
 317 001e 6B1C     		adds	r3, r5, #1
ARM GAS  C:\Users\Phuong\AppData\Local\Temp\ccVsyoLP.s 			page 10


 318 0020 9846     		mov	r8, r3
 319              	.LVL40:
 320 0022 631C     		adds	r3, r4, #1
 321              	.LVL41:
 322 0024 A21C     		adds	r2, r4, #2
 323 0026 B15C     		ldrb	r1, [r6, r2]
 324 0028 F05C     		ldrb	r0, [r6, r3]
 325 002a FFF7FEFF 		bl	charFromNibbles
 326              	.LVL42:
 327 002e 2870     		strb	r0, [r5]
 195:Source\azure_iot_sdk\c-utility\src/urlencode.c ****             i += 3;
 328              		.loc 1 195 0
 329 0030 0334     		adds	r4, r4, #3
 330              	.LVL43:
 194:Source\azure_iot_sdk\c-utility\src/urlencode.c ****             i += 3;
 331              		.loc 1 194 0
 332 0032 4546     		mov	r5, r8
 333              	.LVL44:
 334              	.L18:
 185:Source\azure_iot_sdk\c-utility\src/urlencode.c ****     {
 335              		.loc 1 185 0
 336 0034 BC42     		cmp	r4, r7
 337 0036 EBD9     		bls	.L21
 196:Source\azure_iot_sdk\c-utility\src/urlencode.c ****         }
 197:Source\azure_iot_sdk\c-utility\src/urlencode.c ****     }
 198:Source\azure_iot_sdk\c-utility\src/urlencode.c **** }
 338              		.loc 1 198 0
 339              		@ sp needed
 340              	.LVL45:
 341              	.LVL46:
 342              	.LVL47:
 343              	.LVL48:
 344 0038 04BC     		pop	{r2}
 345 003a 9046     		mov	r8, r2
 346 003c F0BD     		pop	{r4, r5, r6, r7, pc}
 347              		.cfi_endproc
 348              	.LFE4:
 349              		.size	createDecodedString, .-createDecodedString
 350 003e C046     		.section	.text.URL_PrintableCharSize,"ax",%progbits
 351              		.align	2
 352              		.code	16
 353              		.thumb_func
 354              		.type	URL_PrintableCharSize, %function
 355              	URL_PrintableCharSize:
 356              	.LFB5:
 199:Source\azure_iot_sdk\c-utility\src/urlencode.c **** 
 200:Source\azure_iot_sdk\c-utility\src/urlencode.c **** static size_t URL_PrintableCharSize(unsigned char charVal)
 201:Source\azure_iot_sdk\c-utility\src/urlencode.c **** {
 357              		.loc 1 201 0
 358              		.cfi_startproc
 359              		@ args = 0, pretend = 0, frame = 0
 360              		@ frame_needed = 0, uses_anonymous_args = 0
 361              		@ link register save eliminated.
 362              	.LVL49:
 202:Source\azure_iot_sdk\c-utility\src/urlencode.c ****     size_t size;
 203:Source\azure_iot_sdk\c-utility\src/urlencode.c ****     if (IS_PRINTABLE(charVal))
 363              		.loc 1 203 0
ARM GAS  C:\Users\Phuong\AppData\Local\Temp\ccVsyoLP.s 			page 11


 364 0000 0028     		cmp	r0, #0
 365 0002 21D0     		beq	.L24
 366              		.loc 1 203 0 is_stmt 0 discriminator 1
 367 0004 2128     		cmp	r0, #33
 368 0006 21D0     		beq	.L25
 369              		.loc 1 203 0 discriminator 2
 370 0008 2828     		cmp	r0, #40
 371 000a 21D0     		beq	.L26
 372              		.loc 1 203 0 discriminator 3
 373 000c 2928     		cmp	r0, #41
 374 000e 21D0     		beq	.L27
 375              		.loc 1 203 0 discriminator 4
 376 0010 2A28     		cmp	r0, #42
 377 0012 21D0     		beq	.L28
 378              		.loc 1 203 0 discriminator 5
 379 0014 2D28     		cmp	r0, #45
 380 0016 21D0     		beq	.L29
 381              		.loc 1 203 0 discriminator 6
 382 0018 2E28     		cmp	r0, #46
 383 001a 21D0     		beq	.L30
 384              		.loc 1 203 0 discriminator 7
 385 001c 0300     		movs	r3, r0
 386 001e 303B     		subs	r3, r3, #48
 387 0020 DBB2     		uxtb	r3, r3
 388 0022 092B     		cmp	r3, #9
 389 0024 1ED9     		bls	.L31
 390              		.loc 1 203 0 discriminator 8
 391 0026 0300     		movs	r3, r0
 392 0028 413B     		subs	r3, r3, #65
 393 002a DBB2     		uxtb	r3, r3
 394 002c 192B     		cmp	r3, #25
 395 002e 1BD9     		bls	.L32
 396              		.loc 1 203 0 discriminator 9
 397 0030 5F28     		cmp	r0, #95
 398 0032 1BD0     		beq	.L33
 399              		.loc 1 203 0 discriminator 10
 400 0034 0300     		movs	r3, r0
 401 0036 613B     		subs	r3, r3, #97
 402 0038 DBB2     		uxtb	r3, r3
 403 003a 192B     		cmp	r3, #25
 404 003c 18D9     		bls	.L34
 204:Source\azure_iot_sdk\c-utility\src/urlencode.c ****     {
 205:Source\azure_iot_sdk\c-utility\src/urlencode.c ****         size = 1;
 206:Source\azure_iot_sdk\c-utility\src/urlencode.c ****     }
 207:Source\azure_iot_sdk\c-utility\src/urlencode.c ****     else
 208:Source\azure_iot_sdk\c-utility\src/urlencode.c ****     {
 209:Source\azure_iot_sdk\c-utility\src/urlencode.c ****         if (charVal < 0x80)
 405              		.loc 1 209 0 is_stmt 1
 406 003e 40B2     		sxtb	r0, r0
 407 0040 0028     		cmp	r0, #0
 408 0042 17DB     		blt	.L35
 210:Source\azure_iot_sdk\c-utility\src/urlencode.c ****         {
 211:Source\azure_iot_sdk\c-utility\src/urlencode.c ****             size = 3;
 409              		.loc 1 211 0
 410 0044 0320     		movs	r0, #3
 411              	.LVL50:
 412 0046 16E0     		b	.L23
ARM GAS  C:\Users\Phuong\AppData\Local\Temp\ccVsyoLP.s 			page 12


 413              	.LVL51:
 414              	.L24:
 205:Source\azure_iot_sdk\c-utility\src/urlencode.c ****     }
 415              		.loc 1 205 0
 416 0048 0120     		movs	r0, #1
 417              	.LVL52:
 418 004a 14E0     		b	.L23
 419              	.LVL53:
 420              	.L25:
 421 004c 0120     		movs	r0, #1
 422              	.LVL54:
 423 004e 12E0     		b	.L23
 424              	.LVL55:
 425              	.L26:
 426 0050 0120     		movs	r0, #1
 427              	.LVL56:
 428 0052 10E0     		b	.L23
 429              	.LVL57:
 430              	.L27:
 431 0054 0120     		movs	r0, #1
 432              	.LVL58:
 433 0056 0EE0     		b	.L23
 434              	.LVL59:
 435              	.L28:
 436 0058 0120     		movs	r0, #1
 437              	.LVL60:
 438 005a 0CE0     		b	.L23
 439              	.LVL61:
 440              	.L29:
 441 005c 0120     		movs	r0, #1
 442              	.LVL62:
 443 005e 0AE0     		b	.L23
 444              	.LVL63:
 445              	.L30:
 446 0060 0120     		movs	r0, #1
 447              	.LVL64:
 448 0062 08E0     		b	.L23
 449              	.LVL65:
 450              	.L31:
 451 0064 0120     		movs	r0, #1
 452              	.LVL66:
 453 0066 06E0     		b	.L23
 454              	.LVL67:
 455              	.L32:
 456 0068 0120     		movs	r0, #1
 457              	.LVL68:
 458 006a 04E0     		b	.L23
 459              	.LVL69:
 460              	.L33:
 461 006c 0120     		movs	r0, #1
 462              	.LVL70:
 463 006e 02E0     		b	.L23
 464              	.LVL71:
 465              	.L34:
 466 0070 0120     		movs	r0, #1
 467              	.LVL72:
 468 0072 00E0     		b	.L23
ARM GAS  C:\Users\Phuong\AppData\Local\Temp\ccVsyoLP.s 			page 13


 469              	.L35:
 212:Source\azure_iot_sdk\c-utility\src/urlencode.c ****         }
 213:Source\azure_iot_sdk\c-utility\src/urlencode.c ****         else
 214:Source\azure_iot_sdk\c-utility\src/urlencode.c ****         {
 215:Source\azure_iot_sdk\c-utility\src/urlencode.c ****             size = 6;
 470              		.loc 1 215 0
 471 0074 0620     		movs	r0, #6
 472              	.L23:
 473              	.LVL73:
 216:Source\azure_iot_sdk\c-utility\src/urlencode.c ****         }
 217:Source\azure_iot_sdk\c-utility\src/urlencode.c ****     }
 218:Source\azure_iot_sdk\c-utility\src/urlencode.c ****     return size;
 219:Source\azure_iot_sdk\c-utility\src/urlencode.c **** }
 474              		.loc 1 219 0
 475              		@ sp needed
 476 0076 7047     		bx	lr
 477              		.cfi_endproc
 478              	.LFE5:
 479              		.size	URL_PrintableCharSize, .-URL_PrintableCharSize
 480              		.section	.text.calculateDecodedStringSize,"ax",%progbits
 481              		.align	2
 482              		.code	16
 483              		.thumb_func
 484              		.type	calculateDecodedStringSize, %function
 485              	calculateDecodedStringSize:
 486              	.LFB2:
 107:Source\azure_iot_sdk\c-utility\src/urlencode.c ****     size_t decodedSize = 0;
 487              		.loc 1 107 0
 488              		.cfi_startproc
 489              		@ args = 0, pretend = 0, frame = 0
 490              		@ frame_needed = 0, uses_anonymous_args = 0
 491              	.LVL74:
 492 0000 F0B5     		push	{r4, r5, r6, r7, lr}
 493              		.cfi_def_cfa_offset 20
 494              		.cfi_offset 4, -20
 495              		.cfi_offset 5, -16
 496              		.cfi_offset 6, -12
 497              		.cfi_offset 7, -8
 498              		.cfi_offset 14, -4
 499 0002 83B0     		sub	sp, sp, #12
 500              		.cfi_def_cfa_offset 32
 501 0004 061E     		subs	r6, r0, #0
 502              	.LVL75:
 110:Source\azure_iot_sdk\c-utility\src/urlencode.c ****     {
 503              		.loc 1 110 0
 504 0006 0FD1     		bne	.L37
 505              	.LBB3:
 112:Source\azure_iot_sdk\c-utility\src/urlencode.c ****     }
 506              		.loc 1 112 0 discriminator 3
 507 0008 FFF7FEFF 		bl	xlogging_get_log_function
 508              	.LVL76:
 509 000c 041E     		subs	r4, r0, #0
 510              	.LVL77:
 511 000e 00D1     		bne	.LCB496
 512 0010 8EE0     		b	.L49	@long jump
 513              	.LCB496:
 112:Source\azure_iot_sdk\c-utility\src/urlencode.c ****     }
ARM GAS  C:\Users\Phuong\AppData\Local\Temp\ccVsyoLP.s 			page 14


 514              		.loc 1 112 0 is_stmt 0 discriminator 4
 515 0012 4B4B     		ldr	r3, .L52
 516 0014 0193     		str	r3, [sp, #4]
 517 0016 0123     		movs	r3, #1
 518 0018 0093     		str	r3, [sp]
 519 001a 6F33     		adds	r3, r3, #111
 520 001c 494A     		ldr	r2, .L52+4
 521 001e 4A49     		ldr	r1, .L52+8
 522 0020 0020     		movs	r0, #0
 523              	.LVL78:
 524 0022 A047     		blx	r4
 525              	.LVL79:
 526              	.LBE3:
 108:Source\azure_iot_sdk\c-utility\src/urlencode.c **** 
 527              		.loc 1 108 0 is_stmt 1 discriminator 4
 528 0024 0020     		movs	r0, #0
 529 0026 88E0     		b	.L38
 530              	.LVL80:
 531              	.L37:
 114:Source\azure_iot_sdk\c-utility\src/urlencode.c ****     {
 532              		.loc 1 114 0
 533 0028 0029     		cmp	r1, #0
 534 002a 00D1     		bne	.LCB518
 535 002c 82E0     		b	.L50	@long jump
 536              	.LCB518:
 537 002e 0A00     		movs	r2, r1
 538 0030 0024     		movs	r4, #0
 539 0032 0025     		movs	r5, #0
 540 0034 75E0     		b	.L39
 541              	.LVL81:
 542              	.L48:
 543              	.LBB4:
 126:Source\azure_iot_sdk\c-utility\src/urlencode.c ****             {
 544              		.loc 1 126 0
 545 0036 335D     		ldrb	r3, [r6, r4]
 546 0038 252B     		cmp	r3, #37
 547 003a 42D1     		bne	.L40
 128:Source\azure_iot_sdk\c-utility\src/urlencode.c ****                 {
 548              		.loc 1 128 0
 549 003c 022A     		cmp	r2, #2
 550 003e 1FD9     		bls	.L41
 128:Source\azure_iot_sdk\c-utility\src/urlencode.c ****                 {
 551              		.loc 1 128 0 is_stmt 0 discriminator 1
 552 0040 3319     		adds	r3, r6, r4
 553 0042 5878     		ldrb	r0, [r3, #1]
 554 0044 0300     		movs	r3, r0
 555 0046 303B     		subs	r3, r3, #48
 556 0048 DBB2     		uxtb	r3, r3
 557 004a 092B     		cmp	r3, #9
 558 004c 08D9     		bls	.L42
 128:Source\azure_iot_sdk\c-utility\src/urlencode.c ****                 {
 559              		.loc 1 128 0 discriminator 2
 560 004e 0700     		movs	r7, r0
 561 0050 413F     		subs	r7, r7, #65
 562 0052 FFB2     		uxtb	r7, r7
 563 0054 052F     		cmp	r7, #5
 564 0056 03D9     		bls	.L42
ARM GAS  C:\Users\Phuong\AppData\Local\Temp\ccVsyoLP.s 			page 15


 128:Source\azure_iot_sdk\c-utility\src/urlencode.c ****                 {
 565              		.loc 1 128 0 discriminator 4
 566 0058 6138     		subs	r0, r0, #97
 567 005a C0B2     		uxtb	r0, r0
 568 005c 0528     		cmp	r0, #5
 569 005e 0FD8     		bhi	.L41
 570              	.L42:
 128:Source\azure_iot_sdk\c-utility\src/urlencode.c ****                 {
 571              		.loc 1 128 0 discriminator 6
 572 0060 3019     		adds	r0, r6, r4
 573 0062 8778     		ldrb	r7, [r0, #2]
 574 0064 3800     		movs	r0, r7
 575 0066 3038     		subs	r0, r0, #48
 576 0068 C0B2     		uxtb	r0, r0
 577 006a 0928     		cmp	r0, #9
 578 006c 16D9     		bls	.L43
 128:Source\azure_iot_sdk\c-utility\src/urlencode.c ****                 {
 579              		.loc 1 128 0 discriminator 7
 580 006e 3800     		movs	r0, r7
 581 0070 4138     		subs	r0, r0, #65
 582 0072 C0B2     		uxtb	r0, r0
 583 0074 0528     		cmp	r0, #5
 584 0076 11D9     		bls	.L43
 128:Source\azure_iot_sdk\c-utility\src/urlencode.c ****                 {
 585              		.loc 1 128 0 discriminator 8
 586 0078 613F     		subs	r7, r7, #97
 587 007a FFB2     		uxtb	r7, r7
 588 007c 052F     		cmp	r7, #5
 589 007e 0DD9     		bls	.L43
 590              	.L41:
 591              	.LBB5:
 130:Source\azure_iot_sdk\c-utility\src/urlencode.c ****                     break;
 592              		.loc 1 130 0 is_stmt 1 discriminator 3
 593 0080 FFF7FEFF 		bl	xlogging_get_log_function
 594              	.LVL82:
 595 0084 071E     		subs	r7, r0, #0
 596              	.LVL83:
 597 0086 4ED0     		beq	.L44
 130:Source\azure_iot_sdk\c-utility\src/urlencode.c ****                     break;
 598              		.loc 1 130 0 is_stmt 0 discriminator 4
 599 0088 304B     		ldr	r3, .L52+12
 600 008a 0193     		str	r3, [sp, #4]
 601 008c 0123     		movs	r3, #1
 602 008e 0093     		str	r3, [sp]
 603 0090 8133     		adds	r3, r3, #129
 604 0092 2C4A     		ldr	r2, .L52+4
 605 0094 2C49     		ldr	r1, .L52+8
 606 0096 0020     		movs	r0, #0
 607              	.LVL84:
 608 0098 B847     		blx	r7
 609              	.LVL85:
 610 009a 44E0     		b	.L44
 611              	.LVL86:
 612              	.L43:
 613              	.LBE5:
 133:Source\azure_iot_sdk\c-utility\src/urlencode.c ****                 {
 614              		.loc 1 133 0 is_stmt 1
ARM GAS  C:\Users\Phuong\AppData\Local\Temp\ccVsyoLP.s 			page 16


 615 009c 072B     		cmp	r3, #7
 616 009e 0DD9     		bls	.L45
 617              	.LBB6:
 135:Source\azure_iot_sdk\c-utility\src/urlencode.c ****                     break;
 618              		.loc 1 135 0 discriminator 3
 619 00a0 FFF7FEFF 		bl	xlogging_get_log_function
 620              	.LVL87:
 621 00a4 071E     		subs	r7, r0, #0
 622              	.LVL88:
 623 00a6 3ED0     		beq	.L44
 135:Source\azure_iot_sdk\c-utility\src/urlencode.c ****                     break;
 624              		.loc 1 135 0 is_stmt 0 discriminator 4
 625 00a8 294B     		ldr	r3, .L52+16
 626 00aa 0193     		str	r3, [sp, #4]
 627 00ac 0123     		movs	r3, #1
 628 00ae 0093     		str	r3, [sp]
 629 00b0 8633     		adds	r3, r3, #134
 630 00b2 244A     		ldr	r2, .L52+4
 631 00b4 2449     		ldr	r1, .L52+8
 632 00b6 0020     		movs	r0, #0
 633              	.LVL89:
 634 00b8 B847     		blx	r7
 635              	.LVL90:
 636 00ba 34E0     		b	.L44
 637              	.LVL91:
 638              	.L45:
 639              	.LBE6:
 140:Source\azure_iot_sdk\c-utility\src/urlencode.c ****                     next_step = 3;
 640              		.loc 1 140 0 is_stmt 1
 641 00bc 0135     		adds	r5, r5, #1
 642              	.LVL92:
 141:Source\azure_iot_sdk\c-utility\src/urlencode.c ****                 }
 643              		.loc 1 141 0
 644 00be 0323     		movs	r3, #3
 645 00c0 2DE0     		b	.L46
 646              	.LVL93:
 647              	.L40:
 144:Source\azure_iot_sdk\c-utility\src/urlencode.c ****             {
 648              		.loc 1 144 0
 649 00c2 002B     		cmp	r3, #0
 650 00c4 29D0     		beq	.L47
 144:Source\azure_iot_sdk\c-utility\src/urlencode.c ****             {
 651              		.loc 1 144 0 is_stmt 0 discriminator 1
 652 00c6 212B     		cmp	r3, #33
 653 00c8 27D0     		beq	.L47
 144:Source\azure_iot_sdk\c-utility\src/urlencode.c ****             {
 654              		.loc 1 144 0 discriminator 2
 655 00ca 282B     		cmp	r3, #40
 656 00cc 25D0     		beq	.L47
 144:Source\azure_iot_sdk\c-utility\src/urlencode.c ****             {
 657              		.loc 1 144 0 discriminator 3
 658 00ce 292B     		cmp	r3, #41
 659 00d0 23D0     		beq	.L47
 144:Source\azure_iot_sdk\c-utility\src/urlencode.c ****             {
 660              		.loc 1 144 0 discriminator 4
 661 00d2 2A2B     		cmp	r3, #42
 662 00d4 21D0     		beq	.L47
ARM GAS  C:\Users\Phuong\AppData\Local\Temp\ccVsyoLP.s 			page 17


 144:Source\azure_iot_sdk\c-utility\src/urlencode.c ****             {
 663              		.loc 1 144 0 discriminator 5
 664 00d6 2D2B     		cmp	r3, #45
 665 00d8 1FD0     		beq	.L47
 144:Source\azure_iot_sdk\c-utility\src/urlencode.c ****             {
 666              		.loc 1 144 0 discriminator 6
 667 00da 2E2B     		cmp	r3, #46
 668 00dc 1DD0     		beq	.L47
 144:Source\azure_iot_sdk\c-utility\src/urlencode.c ****             {
 669              		.loc 1 144 0 discriminator 7
 670 00de 1800     		movs	r0, r3
 671 00e0 3038     		subs	r0, r0, #48
 672 00e2 C0B2     		uxtb	r0, r0
 673 00e4 0928     		cmp	r0, #9
 674 00e6 18D9     		bls	.L47
 144:Source\azure_iot_sdk\c-utility\src/urlencode.c ****             {
 675              		.loc 1 144 0 discriminator 8
 676 00e8 1800     		movs	r0, r3
 677 00ea 4138     		subs	r0, r0, #65
 678 00ec C0B2     		uxtb	r0, r0
 679 00ee 1928     		cmp	r0, #25
 680 00f0 13D9     		bls	.L47
 144:Source\azure_iot_sdk\c-utility\src/urlencode.c ****             {
 681              		.loc 1 144 0 discriminator 9
 682 00f2 5F2B     		cmp	r3, #95
 683 00f4 11D0     		beq	.L47
 144:Source\azure_iot_sdk\c-utility\src/urlencode.c ****             {
 684              		.loc 1 144 0 discriminator 10
 685 00f6 613B     		subs	r3, r3, #97
 686 00f8 DBB2     		uxtb	r3, r3
 687 00fa 192B     		cmp	r3, #25
 688 00fc 0DD9     		bls	.L47
 689              	.LBB7:
 146:Source\azure_iot_sdk\c-utility\src/urlencode.c ****                 break;
 690              		.loc 1 146 0 is_stmt 1 discriminator 3
 691 00fe FFF7FEFF 		bl	xlogging_get_log_function
 692              	.LVL94:
 693 0102 071E     		subs	r7, r0, #0
 694              	.LVL95:
 695 0104 0FD0     		beq	.L44
 146:Source\azure_iot_sdk\c-utility\src/urlencode.c ****                 break;
 696              		.loc 1 146 0 is_stmt 0 discriminator 4
 697 0106 134B     		ldr	r3, .L52+20
 698 0108 0193     		str	r3, [sp, #4]
 699 010a 0123     		movs	r3, #1
 700 010c 0093     		str	r3, [sp]
 701 010e 9133     		adds	r3, r3, #145
 702 0110 0C4A     		ldr	r2, .L52+4
 703 0112 0D49     		ldr	r1, .L52+8
 704 0114 0020     		movs	r0, #0
 705              	.LVL96:
 706 0116 B847     		blx	r7
 707              	.LVL97:
 708 0118 05E0     		b	.L44
 709              	.LVL98:
 710              	.L47:
 711              	.LBE7:
ARM GAS  C:\Users\Phuong\AppData\Local\Temp\ccVsyoLP.s 			page 18


 152:Source\azure_iot_sdk\c-utility\src/urlencode.c ****                 next_step = 1;
 712              		.loc 1 152 0 is_stmt 1
 713 011a 0135     		adds	r5, r5, #1
 714              	.LVL99:
 153:Source\azure_iot_sdk\c-utility\src/urlencode.c ****             }
 715              		.loc 1 153 0
 716 011c 0123     		movs	r3, #1
 717              	.LVL100:
 718              	.L46:
 156:Source\azure_iot_sdk\c-utility\src/urlencode.c ****             remaining_len -= next_step;
 719              		.loc 1 156 0
 720 011e E418     		adds	r4, r4, r3
 721              	.LVL101:
 157:Source\azure_iot_sdk\c-utility\src/urlencode.c ****         }
 722              		.loc 1 157 0
 723 0120 D21A     		subs	r2, r2, r3
 724              	.LVL102:
 725              	.L39:
 123:Source\azure_iot_sdk\c-utility\src/urlencode.c ****         {
 726              		.loc 1 123 0
 727 0122 8C42     		cmp	r4, r1
 728 0124 87D3     		bcc	.L48
 729              	.LVL103:
 730              	.L44:
 160:Source\azure_iot_sdk\c-utility\src/urlencode.c ****         {
 731              		.loc 1 160 0
 732 0126 335D     		ldrb	r3, [r6, r4]
 733 0128 002B     		cmp	r3, #0
 734 012a 05D1     		bne	.L51
 166:Source\azure_iot_sdk\c-utility\src/urlencode.c ****         }
 735              		.loc 1 166 0
 736 012c 681C     		adds	r0, r5, #1
 737              	.LVL104:
 738 012e 04E0     		b	.L38
 739              	.LVL105:
 740              	.L49:
 741              	.LBE4:
 108:Source\azure_iot_sdk\c-utility\src/urlencode.c **** 
 742              		.loc 1 108 0
 743 0130 0020     		movs	r0, #0
 744              	.LVL106:
 745 0132 02E0     		b	.L38
 746              	.LVL107:
 747              	.L50:
 116:Source\azure_iot_sdk\c-utility\src/urlencode.c ****     }
 748              		.loc 1 116 0
 749 0134 0120     		movs	r0, #1
 750              	.LVL108:
 751 0136 00E0     		b	.L38
 752              	.LVL109:
 753              	.L51:
 754              	.LBB8:
 162:Source\azure_iot_sdk\c-utility\src/urlencode.c ****         }
 755              		.loc 1 162 0
 756 0138 0020     		movs	r0, #0
 757              	.LVL110:
 758              	.L38:
ARM GAS  C:\Users\Phuong\AppData\Local\Temp\ccVsyoLP.s 			page 19


 759              	.LBE8:
 170:Source\azure_iot_sdk\c-utility\src/urlencode.c **** 
 760              		.loc 1 170 0
 761 013a 03B0     		add	sp, sp, #12
 762              		@ sp needed
 763              	.LVL111:
 764 013c F0BD     		pop	{r4, r5, r6, r7, pc}
 765              	.L53:
 766 013e C046     		.align	2
 767              	.L52:
 768 0140 30000000 		.word	.LC3
 769 0144 00000000 		.word	.LANCHOR0
 770 0148 00000000 		.word	.LC1
 771 014c 44000000 		.word	.LC5
 772 0150 6C000000 		.word	.LC7
 773 0154 A0000000 		.word	.LC9
 774              		.cfi_endproc
 775              	.LFE2:
 776              		.size	calculateDecodedStringSize, .-calculateDecodedStringSize
 777              		.section	.text.encode_url_data,"ax",%progbits
 778              		.align	2
 779              		.code	16
 780              		.thumb_func
 781              		.type	encode_url_data, %function
 782              	encode_url_data:
 783              	.LFB6:
 220:Source\azure_iot_sdk\c-utility\src/urlencode.c **** 
 221:Source\azure_iot_sdk\c-utility\src/urlencode.c **** static STRING_HANDLE encode_url_data(const char* text)
 222:Source\azure_iot_sdk\c-utility\src/urlencode.c **** {
 784              		.loc 1 222 0
 785              		.cfi_startproc
 786              		@ args = 0, pretend = 0, frame = 0
 787              		@ frame_needed = 0, uses_anonymous_args = 0
 788              	.LVL112:
 789 0000 F0B5     		push	{r4, r5, r6, r7, lr}
 790              		.cfi_def_cfa_offset 20
 791              		.cfi_offset 4, -20
 792              		.cfi_offset 5, -16
 793              		.cfi_offset 6, -12
 794              		.cfi_offset 7, -8
 795              		.cfi_offset 14, -4
 796 0002 4746     		mov	r7, r8
 797 0004 80B4     		push	{r7}
 798              		.cfi_def_cfa_offset 24
 799              		.cfi_offset 8, -24
 800 0006 82B0     		sub	sp, sp, #8
 801              		.cfi_def_cfa_offset 32
 802 0008 0500     		movs	r5, r0
 803              	.LVL113:
 223:Source\azure_iot_sdk\c-utility\src/urlencode.c ****     STRING_HANDLE result;
 224:Source\azure_iot_sdk\c-utility\src/urlencode.c ****     size_t lengthOfResult = 0;
 225:Source\azure_iot_sdk\c-utility\src/urlencode.c ****     char* encodedURL;
 226:Source\azure_iot_sdk\c-utility\src/urlencode.c ****     unsigned char currentUnsignedChar;
 227:Source\azure_iot_sdk\c-utility\src/urlencode.c ****     const char* iterator = text;
 804              		.loc 1 227 0
 805 000a 0300     		movs	r3, r0
 224:Source\azure_iot_sdk\c-utility\src/urlencode.c ****     char* encodedURL;
ARM GAS  C:\Users\Phuong\AppData\Local\Temp\ccVsyoLP.s 			page 20


 806              		.loc 1 224 0
 807 000c 0026     		movs	r6, #0
 808              	.LVL114:
 809              	.L55:
 228:Source\azure_iot_sdk\c-utility\src/urlencode.c **** 
 229:Source\azure_iot_sdk\c-utility\src/urlencode.c ****     /*Codes_SRS_URL_ENCODE_06_003: [If input is a zero length string then URL_Encode will return a 
 230:Source\azure_iot_sdk\c-utility\src/urlencode.c ****     do
 231:Source\azure_iot_sdk\c-utility\src/urlencode.c ****     {
 232:Source\azure_iot_sdk\c-utility\src/urlencode.c ****         currentUnsignedChar = (unsigned char)(*iterator++);
 810              		.loc 1 232 0 discriminator 1
 811 000e 5F1C     		adds	r7, r3, #1
 812              	.LVL115:
 813 0010 1C78     		ldrb	r4, [r3]
 814              	.LVL116:
 233:Source\azure_iot_sdk\c-utility\src/urlencode.c ****         lengthOfResult += URL_PrintableCharSize(currentUnsignedChar);
 815              		.loc 1 233 0 discriminator 1
 816 0012 2000     		movs	r0, r4
 817 0014 FFF7FEFF 		bl	URL_PrintableCharSize
 818              	.LVL117:
 819 0018 3618     		adds	r6, r6, r0
 820              	.LVL118:
 232:Source\azure_iot_sdk\c-utility\src/urlencode.c ****         lengthOfResult += URL_PrintableCharSize(currentUnsignedChar);
 821              		.loc 1 232 0 discriminator 1
 822 001a 3B00     		movs	r3, r7
 234:Source\azure_iot_sdk\c-utility\src/urlencode.c ****     } while (currentUnsignedChar != 0);
 823              		.loc 1 234 0 discriminator 1
 824 001c 002C     		cmp	r4, #0
 825 001e F6D1     		bne	.L55
 235:Source\azure_iot_sdk\c-utility\src/urlencode.c **** 
 236:Source\azure_iot_sdk\c-utility\src/urlencode.c ****     if ((encodedURL = (char*)malloc(lengthOfResult)) == NULL)
 826              		.loc 1 236 0
 827 0020 3000     		movs	r0, r6
 828 0022 FFF7FEFF 		bl	malloc
 829              	.LVL119:
 830 0026 8046     		mov	r8, r0
 831              	.LVL120:
 832 0028 0028     		cmp	r0, #0
 833 002a 0FD1     		bne	.L59
 834              	.LVL121:
 835              	.LBB9:
 237:Source\azure_iot_sdk\c-utility\src/urlencode.c ****     {
 238:Source\azure_iot_sdk\c-utility\src/urlencode.c ****         /*Codes_SRS_URL_ENCODE_06_002: [If an error occurs during the encoding of input then URL_En
 239:Source\azure_iot_sdk\c-utility\src/urlencode.c ****         result = NULL;
 240:Source\azure_iot_sdk\c-utility\src/urlencode.c ****         LogError("URL_Encode:: MALLOC failure on encode.");
 836              		.loc 1 240 0
 837 002c FFF7FEFF 		bl	xlogging_get_log_function
 838              	.LVL122:
 839 0030 041E     		subs	r4, r0, #0
 840              	.LVL123:
 841 0032 2ED0     		beq	.L60
 842              		.loc 1 240 0 is_stmt 0 discriminator 4
 843 0034 1A4B     		ldr	r3, .L61
 844 0036 0193     		str	r3, [sp, #4]
 845 0038 0123     		movs	r3, #1
 846 003a 0093     		str	r3, [sp]
 847 003c EF33     		adds	r3, r3, #239
 848 003e 194A     		ldr	r2, .L61+4
ARM GAS  C:\Users\Phuong\AppData\Local\Temp\ccVsyoLP.s 			page 21


 849 0040 1C32     		adds	r2, r2, #28
 850 0042 1949     		ldr	r1, .L61+8
 851 0044 0020     		movs	r0, #0
 852              	.LVL124:
 853 0046 A047     		blx	r4
 854              	.LVL125:
 855              	.LBE9:
 239:Source\azure_iot_sdk\c-utility\src/urlencode.c ****         LogError("URL_Encode:: MALLOC failure on encode.");
 856              		.loc 1 239 0 is_stmt 1 discriminator 4
 857 0048 0024     		movs	r4, #0
 858              	.LVL126:
 859 004a 23E0     		b	.L57
 860              	.LVL127:
 861              	.L59:
 862 004c 0024     		movs	r4, #0
 863              	.LVL128:
 864              	.L56:
 865              	.LBB10:
 241:Source\azure_iot_sdk\c-utility\src/urlencode.c ****     }
 242:Source\azure_iot_sdk\c-utility\src/urlencode.c ****     else
 243:Source\azure_iot_sdk\c-utility\src/urlencode.c ****     {
 244:Source\azure_iot_sdk\c-utility\src/urlencode.c ****         size_t currentEncodePosition = 0;
 245:Source\azure_iot_sdk\c-utility\src/urlencode.c ****         iterator = text;;
 246:Source\azure_iot_sdk\c-utility\src/urlencode.c ****         do
 247:Source\azure_iot_sdk\c-utility\src/urlencode.c ****         {
 248:Source\azure_iot_sdk\c-utility\src/urlencode.c ****             currentUnsignedChar = (unsigned char)(*iterator++);
 866              		.loc 1 248 0 discriminator 1
 867 004e 6F1C     		adds	r7, r5, #1
 868              	.LVL129:
 869 0050 2E78     		ldrb	r6, [r5]
 870              	.LVL130:
 249:Source\azure_iot_sdk\c-utility\src/urlencode.c ****             currentEncodePosition += URL_PrintableChar(currentUnsignedChar, &encodedURL[currentEnco
 871              		.loc 1 249 0 discriminator 1
 872 0052 4346     		mov	r3, r8
 873 0054 1919     		adds	r1, r3, r4
 874 0056 3000     		movs	r0, r6
 875 0058 FFF7FEFF 		bl	URL_PrintableChar
 876              	.LVL131:
 877 005c 2418     		adds	r4, r4, r0
 878              	.LVL132:
 248:Source\azure_iot_sdk\c-utility\src/urlencode.c ****             currentEncodePosition += URL_PrintableChar(currentUnsignedChar, &encodedURL[currentEnco
 879              		.loc 1 248 0 discriminator 1
 880 005e 3D00     		movs	r5, r7
 250:Source\azure_iot_sdk\c-utility\src/urlencode.c ****         } while (currentUnsignedChar != 0);
 881              		.loc 1 250 0 discriminator 1
 882 0060 002E     		cmp	r6, #0
 883 0062 F4D1     		bne	.L56
 251:Source\azure_iot_sdk\c-utility\src/urlencode.c **** 
 252:Source\azure_iot_sdk\c-utility\src/urlencode.c ****         result = STRING_new_with_memory(encodedURL);
 884              		.loc 1 252 0
 885 0064 4046     		mov	r0, r8
 886 0066 FFF7FEFF 		bl	STRING_new_with_memory
 887              	.LVL133:
 888 006a 041E     		subs	r4, r0, #0
 889              	.LVL134:
 253:Source\azure_iot_sdk\c-utility\src/urlencode.c ****         if (result == NULL)
 890              		.loc 1 253 0
ARM GAS  C:\Users\Phuong\AppData\Local\Temp\ccVsyoLP.s 			page 22


 891 006c 12D1     		bne	.L57
 892              	.LBB11:
 254:Source\azure_iot_sdk\c-utility\src/urlencode.c ****         {
 255:Source\azure_iot_sdk\c-utility\src/urlencode.c ****             LogError("URL_Encode:: MALLOC failure on encode.");
 893              		.loc 1 255 0 discriminator 3
 894 006e FFF7FEFF 		bl	xlogging_get_log_function
 895              	.LVL135:
 896 0072 051E     		subs	r5, r0, #0
 897              	.LVL136:
 898 0074 09D0     		beq	.L58
 899              		.loc 1 255 0 is_stmt 0 discriminator 4
 900 0076 0A4B     		ldr	r3, .L61
 901 0078 0193     		str	r3, [sp, #4]
 902 007a 0123     		movs	r3, #1
 903 007c 0093     		str	r3, [sp]
 904 007e FE33     		adds	r3, r3, #254
 905 0080 084A     		ldr	r2, .L61+4
 906 0082 1C32     		adds	r2, r2, #28
 907 0084 0849     		ldr	r1, .L61+8
 908 0086 0020     		movs	r0, #0
 909              	.LVL137:
 910 0088 A847     		blx	r5
 911              	.LVL138:
 912              	.L58:
 913              	.LBE11:
 256:Source\azure_iot_sdk\c-utility\src/urlencode.c ****             free(encodedURL);
 914              		.loc 1 256 0 is_stmt 1
 915 008a 4046     		mov	r0, r8
 916 008c FFF7FEFF 		bl	free
 917              	.LVL139:
 918 0090 00E0     		b	.L57
 919              	.LVL140:
 920              	.L60:
 921              	.LBE10:
 239:Source\azure_iot_sdk\c-utility\src/urlencode.c ****         LogError("URL_Encode:: MALLOC failure on encode.");
 922              		.loc 1 239 0
 923 0092 0024     		movs	r4, #0
 924              	.LVL141:
 925              	.L57:
 257:Source\azure_iot_sdk\c-utility\src/urlencode.c ****         }
 258:Source\azure_iot_sdk\c-utility\src/urlencode.c ****     }
 259:Source\azure_iot_sdk\c-utility\src/urlencode.c ****     return result;
 260:Source\azure_iot_sdk\c-utility\src/urlencode.c **** }
 926              		.loc 1 260 0
 927 0094 2000     		movs	r0, r4
 928 0096 02B0     		add	sp, sp, #8
 929              		@ sp needed
 930              	.LVL142:
 931              	.LVL143:
 932              	.LVL144:
 933 0098 04BC     		pop	{r2}
 934 009a 9046     		mov	r8, r2
 935 009c F0BD     		pop	{r4, r5, r6, r7, pc}
 936              	.L62:
 937 009e C046     		.align	2
 938              	.L61:
 939 00a0 C4000000 		.word	.LC13
ARM GAS  C:\Users\Phuong\AppData\Local\Temp\ccVsyoLP.s 			page 23


 940 00a4 00000000 		.word	.LANCHOR0
 941 00a8 00000000 		.word	.LC1
 942              		.cfi_endproc
 943              	.LFE6:
 944              		.size	encode_url_data, .-encode_url_data
 945              		.section	.text.URL_EncodeString,"ax",%progbits
 946              		.align	2
 947              		.global	URL_EncodeString
 948              		.code	16
 949              		.thumb_func
 950              		.type	URL_EncodeString, %function
 951              	URL_EncodeString:
 952              	.LFB7:
 261:Source\azure_iot_sdk\c-utility\src/urlencode.c **** 
 262:Source\azure_iot_sdk\c-utility\src/urlencode.c **** STRING_HANDLE URL_EncodeString(const char* textEncode)
 263:Source\azure_iot_sdk\c-utility\src/urlencode.c **** {
 953              		.loc 1 263 0
 954              		.cfi_startproc
 955              		@ args = 0, pretend = 0, frame = 0
 956              		@ frame_needed = 0, uses_anonymous_args = 0
 957              	.LVL145:
 958 0000 10B5     		push	{r4, lr}
 959              		.cfi_def_cfa_offset 8
 960              		.cfi_offset 4, -8
 961              		.cfi_offset 14, -4
 264:Source\azure_iot_sdk\c-utility\src/urlencode.c ****     STRING_HANDLE result;
 265:Source\azure_iot_sdk\c-utility\src/urlencode.c ****     if (textEncode == NULL)
 962              		.loc 1 265 0
 963 0002 0028     		cmp	r0, #0
 964 0004 02D0     		beq	.L65
 266:Source\azure_iot_sdk\c-utility\src/urlencode.c ****     {
 267:Source\azure_iot_sdk\c-utility\src/urlencode.c ****         result = NULL;
 268:Source\azure_iot_sdk\c-utility\src/urlencode.c ****     }
 269:Source\azure_iot_sdk\c-utility\src/urlencode.c ****     else
 270:Source\azure_iot_sdk\c-utility\src/urlencode.c ****     {
 271:Source\azure_iot_sdk\c-utility\src/urlencode.c ****         result = encode_url_data(textEncode);
 965              		.loc 1 271 0
 966 0006 FFF7FEFF 		bl	encode_url_data
 967              	.LVL146:
 968 000a 00E0     		b	.L64
 969              	.LVL147:
 970              	.L65:
 267:Source\azure_iot_sdk\c-utility\src/urlencode.c ****     }
 971              		.loc 1 267 0
 972 000c 0020     		movs	r0, #0
 973              	.LVL148:
 974              	.L64:
 272:Source\azure_iot_sdk\c-utility\src/urlencode.c ****     }
 273:Source\azure_iot_sdk\c-utility\src/urlencode.c ****     return result;
 274:Source\azure_iot_sdk\c-utility\src/urlencode.c **** }
 975              		.loc 1 274 0
 976              		@ sp needed
 977 000e 10BD     		pop	{r4, pc}
 978              		.cfi_endproc
 979              	.LFE7:
 980              		.size	URL_EncodeString, .-URL_EncodeString
 981              		.section	.text.URL_Encode,"ax",%progbits
ARM GAS  C:\Users\Phuong\AppData\Local\Temp\ccVsyoLP.s 			page 24


 982              		.align	2
 983              		.global	URL_Encode
 984              		.code	16
 985              		.thumb_func
 986              		.type	URL_Encode, %function
 987              	URL_Encode:
 988              	.LFB8:
 275:Source\azure_iot_sdk\c-utility\src/urlencode.c **** 
 276:Source\azure_iot_sdk\c-utility\src/urlencode.c **** STRING_HANDLE URL_Encode(STRING_HANDLE input)
 277:Source\azure_iot_sdk\c-utility\src/urlencode.c **** {
 989              		.loc 1 277 0
 990              		.cfi_startproc
 991              		@ args = 0, pretend = 0, frame = 0
 992              		@ frame_needed = 0, uses_anonymous_args = 0
 993              	.LVL149:
 994 0000 10B5     		push	{r4, lr}
 995              		.cfi_def_cfa_offset 8
 996              		.cfi_offset 4, -8
 997              		.cfi_offset 14, -4
 998 0002 82B0     		sub	sp, sp, #8
 999              		.cfi_def_cfa_offset 16
 278:Source\azure_iot_sdk\c-utility\src/urlencode.c ****     STRING_HANDLE result;
 279:Source\azure_iot_sdk\c-utility\src/urlencode.c ****     if (input == NULL)
 1000              		.loc 1 279 0
 1001 0004 0028     		cmp	r0, #0
 1002 0006 10D1     		bne	.L67
 1003              	.LVL150:
 1004              	.LBB12:
 280:Source\azure_iot_sdk\c-utility\src/urlencode.c ****     {
 281:Source\azure_iot_sdk\c-utility\src/urlencode.c ****         /*Codes_SRS_URL_ENCODE_06_001: [If input is NULL then URL_Encode will return NULL.]*/
 282:Source\azure_iot_sdk\c-utility\src/urlencode.c ****         result = NULL;
 283:Source\azure_iot_sdk\c-utility\src/urlencode.c ****         LogError("URL_Encode:: NULL input");
 1005              		.loc 1 283 0
 1006 0008 FFF7FEFF 		bl	xlogging_get_log_function
 1007              	.LVL151:
 1008 000c 041E     		subs	r4, r0, #0
 1009              	.LVL152:
 1010 000e 11D0     		beq	.L69
 1011              		.loc 1 283 0 is_stmt 0 discriminator 4
 1012 0010 0A4B     		ldr	r3, .L70
 1013 0012 0193     		str	r3, [sp, #4]
 1014 0014 0123     		movs	r3, #1
 1015 0016 0093     		str	r3, [sp]
 1016 0018 1C23     		movs	r3, #28
 1017 001a FF33     		adds	r3, r3, #255
 1018 001c 084A     		ldr	r2, .L70+4
 1019 001e 2C32     		adds	r2, r2, #44
 1020 0020 0849     		ldr	r1, .L70+8
 1021 0022 0020     		movs	r0, #0
 1022              	.LVL153:
 1023 0024 A047     		blx	r4
 1024              	.LVL154:
 1025              	.LBE12:
 282:Source\azure_iot_sdk\c-utility\src/urlencode.c ****         LogError("URL_Encode:: NULL input");
 1026              		.loc 1 282 0 is_stmt 1 discriminator 4
 1027 0026 0020     		movs	r0, #0
 1028 0028 05E0     		b	.L68
ARM GAS  C:\Users\Phuong\AppData\Local\Temp\ccVsyoLP.s 			page 25


 1029              	.LVL155:
 1030              	.L67:
 284:Source\azure_iot_sdk\c-utility\src/urlencode.c ****     }
 285:Source\azure_iot_sdk\c-utility\src/urlencode.c ****     else
 286:Source\azure_iot_sdk\c-utility\src/urlencode.c ****     {
 287:Source\azure_iot_sdk\c-utility\src/urlencode.c ****         result = encode_url_data(STRING_c_str(input));
 1031              		.loc 1 287 0
 1032 002a FFF7FEFF 		bl	STRING_c_str
 1033              	.LVL156:
 1034 002e FFF7FEFF 		bl	encode_url_data
 1035              	.LVL157:
 1036 0032 00E0     		b	.L68
 1037              	.LVL158:
 1038              	.L69:
 282:Source\azure_iot_sdk\c-utility\src/urlencode.c ****         LogError("URL_Encode:: NULL input");
 1039              		.loc 1 282 0
 1040 0034 0020     		movs	r0, #0
 1041              	.LVL159:
 1042              	.L68:
 288:Source\azure_iot_sdk\c-utility\src/urlencode.c ****     }
 289:Source\azure_iot_sdk\c-utility\src/urlencode.c ****     return result;
 290:Source\azure_iot_sdk\c-utility\src/urlencode.c **** }
 1043              		.loc 1 290 0
 1044 0036 02B0     		add	sp, sp, #8
 1045              		@ sp needed
 1046 0038 10BD     		pop	{r4, pc}
 1047              	.L71:
 1048 003a C046     		.align	2
 1049              	.L70:
 1050 003c EC000000 		.word	.LC17
 1051 0040 00000000 		.word	.LANCHOR0
 1052 0044 00000000 		.word	.LC1
 1053              		.cfi_endproc
 1054              	.LFE8:
 1055              		.size	URL_Encode, .-URL_Encode
 1056              		.section	.text.URL_Decode,"ax",%progbits
 1057              		.align	2
 1058              		.global	URL_Decode
 1059              		.code	16
 1060              		.thumb_func
 1061              		.type	URL_Decode, %function
 1062              	URL_Decode:
 1063              	.LFB10:
 291:Source\azure_iot_sdk\c-utility\src/urlencode.c **** 
 292:Source\azure_iot_sdk\c-utility\src/urlencode.c **** STRING_HANDLE URL_DecodeString(const char* textDecode)
 293:Source\azure_iot_sdk\c-utility\src/urlencode.c **** {
 294:Source\azure_iot_sdk\c-utility\src/urlencode.c ****     STRING_HANDLE result;
 295:Source\azure_iot_sdk\c-utility\src/urlencode.c ****     if (textDecode == NULL)
 296:Source\azure_iot_sdk\c-utility\src/urlencode.c ****     {
 297:Source\azure_iot_sdk\c-utility\src/urlencode.c ****         result = NULL;
 298:Source\azure_iot_sdk\c-utility\src/urlencode.c ****     }
 299:Source\azure_iot_sdk\c-utility\src/urlencode.c ****     else
 300:Source\azure_iot_sdk\c-utility\src/urlencode.c ****     {
 301:Source\azure_iot_sdk\c-utility\src/urlencode.c ****         STRING_HANDLE tempString = STRING_construct(textDecode);
 302:Source\azure_iot_sdk\c-utility\src/urlencode.c ****         if (tempString == NULL)
 303:Source\azure_iot_sdk\c-utility\src/urlencode.c ****         {
 304:Source\azure_iot_sdk\c-utility\src/urlencode.c ****             result = NULL;
ARM GAS  C:\Users\Phuong\AppData\Local\Temp\ccVsyoLP.s 			page 26


 305:Source\azure_iot_sdk\c-utility\src/urlencode.c ****         }
 306:Source\azure_iot_sdk\c-utility\src/urlencode.c ****         else
 307:Source\azure_iot_sdk\c-utility\src/urlencode.c ****         {
 308:Source\azure_iot_sdk\c-utility\src/urlencode.c ****             result = URL_Decode(tempString);
 309:Source\azure_iot_sdk\c-utility\src/urlencode.c ****             STRING_delete(tempString);
 310:Source\azure_iot_sdk\c-utility\src/urlencode.c ****         }
 311:Source\azure_iot_sdk\c-utility\src/urlencode.c ****     }
 312:Source\azure_iot_sdk\c-utility\src/urlencode.c ****     return result;
 313:Source\azure_iot_sdk\c-utility\src/urlencode.c **** }
 314:Source\azure_iot_sdk\c-utility\src/urlencode.c **** 
 315:Source\azure_iot_sdk\c-utility\src/urlencode.c **** STRING_HANDLE URL_Decode(STRING_HANDLE input)
 316:Source\azure_iot_sdk\c-utility\src/urlencode.c **** {
 1064              		.loc 1 316 0
 1065              		.cfi_startproc
 1066              		@ args = 0, pretend = 0, frame = 0
 1067              		@ frame_needed = 0, uses_anonymous_args = 0
 1068              	.LVL160:
 1069 0000 70B5     		push	{r4, r5, r6, lr}
 1070              		.cfi_def_cfa_offset 16
 1071              		.cfi_offset 4, -16
 1072              		.cfi_offset 5, -12
 1073              		.cfi_offset 6, -8
 1074              		.cfi_offset 14, -4
 1075 0002 82B0     		sub	sp, sp, #8
 1076              		.cfi_def_cfa_offset 24
 317:Source\azure_iot_sdk\c-utility\src/urlencode.c ****     STRING_HANDLE result;
 318:Source\azure_iot_sdk\c-utility\src/urlencode.c ****     if (input == NULL)
 1077              		.loc 1 318 0
 1078 0004 0028     		cmp	r0, #0
 1079 0006 10D1     		bne	.L73
 1080              	.LBB13:
 319:Source\azure_iot_sdk\c-utility\src/urlencode.c ****     {
 320:Source\azure_iot_sdk\c-utility\src/urlencode.c ****         LogError("URL_Decode:: NULL input");
 1081              		.loc 1 320 0 discriminator 3
 1082 0008 FFF7FEFF 		bl	xlogging_get_log_function
 1083              	.LVL161:
 1084 000c 041E     		subs	r4, r0, #0
 1085              	.LVL162:
 1086 000e 5BD0     		beq	.L78
 1087              		.loc 1 320 0 is_stmt 0 discriminator 4
 1088 0010 314B     		ldr	r3, .L81
 1089 0012 0193     		str	r3, [sp, #4]
 1090 0014 0123     		movs	r3, #1
 1091 0016 0093     		str	r3, [sp]
 1092 0018 4033     		adds	r3, r3, #64
 1093 001a FF33     		adds	r3, r3, #255
 1094 001c 2F4A     		ldr	r2, .L81+4
 1095 001e 3832     		adds	r2, r2, #56
 1096 0020 2F49     		ldr	r1, .L81+8
 1097 0022 0020     		movs	r0, #0
 1098              	.LVL163:
 1099 0024 A047     		blx	r4
 1100              	.LVL164:
 1101              	.LBE13:
 321:Source\azure_iot_sdk\c-utility\src/urlencode.c ****         result = NULL;
 1102              		.loc 1 321 0 is_stmt 1 discriminator 4
 1103 0026 0024     		movs	r4, #0
ARM GAS  C:\Users\Phuong\AppData\Local\Temp\ccVsyoLP.s 			page 27


 1104              	.LVL165:
 1105 0028 53E0     		b	.L74
 1106              	.LVL166:
 1107              	.L73:
 1108              	.LBB14:
 322:Source\azure_iot_sdk\c-utility\src/urlencode.c ****     }
 323:Source\azure_iot_sdk\c-utility\src/urlencode.c ****     else
 324:Source\azure_iot_sdk\c-utility\src/urlencode.c ****     {
 325:Source\azure_iot_sdk\c-utility\src/urlencode.c ****         size_t decodedStringSize;
 326:Source\azure_iot_sdk\c-utility\src/urlencode.c ****         char* decodedString;
 327:Source\azure_iot_sdk\c-utility\src/urlencode.c ****         const char* inputString = STRING_c_str(input);
 1109              		.loc 1 327 0
 1110 002a FFF7FEFF 		bl	STRING_c_str
 1111              	.LVL167:
 1112 002e 0400     		movs	r4, r0
 1113              	.LVL168:
 328:Source\azure_iot_sdk\c-utility\src/urlencode.c ****         size_t inputLen = strlen(inputString);
 1114              		.loc 1 328 0
 1115 0030 FFF7FEFF 		bl	strlen
 1116              	.LVL169:
 1117 0034 0500     		movs	r5, r0
 1118              	.LVL170:
 329:Source\azure_iot_sdk\c-utility\src/urlencode.c ****         if ((decodedStringSize = calculateDecodedStringSize(inputString, inputLen)) == 0)
 1119              		.loc 1 329 0
 1120 0036 0100     		movs	r1, r0
 1121 0038 2000     		movs	r0, r4
 1122              	.LVL171:
 1123 003a FFF7FEFF 		bl	calculateDecodedStringSize
 1124              	.LVL172:
 1125 003e 0028     		cmp	r0, #0
 1126 0040 10D1     		bne	.L75
 1127              	.LBB15:
 330:Source\azure_iot_sdk\c-utility\src/urlencode.c ****         {
 331:Source\azure_iot_sdk\c-utility\src/urlencode.c ****             LogError("URL_Decode:: Invalid input string");
 1128              		.loc 1 331 0 discriminator 3
 1129 0042 FFF7FEFF 		bl	xlogging_get_log_function
 1130              	.LVL173:
 1131 0046 041E     		subs	r4, r0, #0
 1132              	.LVL174:
 1133 0048 40D0     		beq	.L79
 1134              		.loc 1 331 0 is_stmt 0 discriminator 4
 1135 004a 264B     		ldr	r3, .L81+12
 1136 004c 0193     		str	r3, [sp, #4]
 1137 004e 0123     		movs	r3, #1
 1138 0050 0093     		str	r3, [sp]
 1139 0052 4C23     		movs	r3, #76
 1140 0054 FF33     		adds	r3, r3, #255
 1141 0056 214A     		ldr	r2, .L81+4
 1142 0058 3832     		adds	r2, r2, #56
 1143 005a 2149     		ldr	r1, .L81+8
 1144 005c 0020     		movs	r0, #0
 1145              	.LVL175:
 1146 005e A047     		blx	r4
 1147              	.LVL176:
 1148              	.LBE15:
 332:Source\azure_iot_sdk\c-utility\src/urlencode.c ****             result = NULL;
 1149              		.loc 1 332 0 is_stmt 1 discriminator 4
ARM GAS  C:\Users\Phuong\AppData\Local\Temp\ccVsyoLP.s 			page 28


 1150 0060 0024     		movs	r4, #0
 1151              	.LVL177:
 1152 0062 36E0     		b	.L74
 1153              	.LVL178:
 1154              	.L75:
 333:Source\azure_iot_sdk\c-utility\src/urlencode.c ****         }
 334:Source\azure_iot_sdk\c-utility\src/urlencode.c ****         else if ((decodedString = (char*)malloc(decodedStringSize)) == NULL)
 1155              		.loc 1 334 0
 1156 0064 FFF7FEFF 		bl	malloc
 1157              	.LVL179:
 1158 0068 061E     		subs	r6, r0, #0
 1159              	.LVL180:
 1160 006a 10D1     		bne	.L76
 1161              	.LBB16:
 335:Source\azure_iot_sdk\c-utility\src/urlencode.c ****         {
 336:Source\azure_iot_sdk\c-utility\src/urlencode.c ****             LogError("URL_Decode:: MALLOC failure on decode.");
 1162              		.loc 1 336 0 discriminator 3
 1163 006c FFF7FEFF 		bl	xlogging_get_log_function
 1164              	.LVL181:
 1165 0070 041E     		subs	r4, r0, #0
 1166              	.LVL182:
 1167 0072 2DD0     		beq	.L80
 1168              		.loc 1 336 0 is_stmt 0 discriminator 4
 1169 0074 1C4B     		ldr	r3, .L81+16
 1170 0076 0193     		str	r3, [sp, #4]
 1171 0078 0123     		movs	r3, #1
 1172 007a 0093     		str	r3, [sp]
 1173 007c 5033     		adds	r3, r3, #80
 1174 007e FF33     		adds	r3, r3, #255
 1175 0080 164A     		ldr	r2, .L81+4
 1176 0082 3832     		adds	r2, r2, #56
 1177 0084 1649     		ldr	r1, .L81+8
 1178 0086 0020     		movs	r0, #0
 1179              	.LVL183:
 1180 0088 A047     		blx	r4
 1181              	.LVL184:
 1182              	.LBE16:
 337:Source\azure_iot_sdk\c-utility\src/urlencode.c ****             result = NULL;
 1183              		.loc 1 337 0 is_stmt 1 discriminator 4
 1184 008a 0024     		movs	r4, #0
 1185              	.LVL185:
 1186 008c 21E0     		b	.L74
 1187              	.LVL186:
 1188              	.L76:
 338:Source\azure_iot_sdk\c-utility\src/urlencode.c ****         }
 339:Source\azure_iot_sdk\c-utility\src/urlencode.c ****         else
 340:Source\azure_iot_sdk\c-utility\src/urlencode.c ****         {
 341:Source\azure_iot_sdk\c-utility\src/urlencode.c ****             createDecodedString(inputString, inputLen, decodedString);
 1189              		.loc 1 341 0
 1190 008e 0200     		movs	r2, r0
 1191 0090 2900     		movs	r1, r5
 1192 0092 2000     		movs	r0, r4
 1193              	.LVL187:
 1194 0094 FFF7FEFF 		bl	createDecodedString
 1195              	.LVL188:
 342:Source\azure_iot_sdk\c-utility\src/urlencode.c ****             result = STRING_new_with_memory(decodedString);
 1196              		.loc 1 342 0
ARM GAS  C:\Users\Phuong\AppData\Local\Temp\ccVsyoLP.s 			page 29


 1197 0098 3000     		movs	r0, r6
 1198 009a FFF7FEFF 		bl	STRING_new_with_memory
 1199              	.LVL189:
 1200 009e 041E     		subs	r4, r0, #0
 1201              	.LVL190:
 343:Source\azure_iot_sdk\c-utility\src/urlencode.c ****             if (result == NULL)
 1202              		.loc 1 343 0
 1203 00a0 17D1     		bne	.L74
 1204              	.LBB17:
 344:Source\azure_iot_sdk\c-utility\src/urlencode.c ****             {
 345:Source\azure_iot_sdk\c-utility\src/urlencode.c ****                 LogError("URL_Decode:: MALLOC failure on decode");
 1205              		.loc 1 345 0 discriminator 3
 1206 00a2 FFF7FEFF 		bl	xlogging_get_log_function
 1207              	.LVL191:
 1208 00a6 051E     		subs	r5, r0, #0
 1209              	.LVL192:
 1210 00a8 0AD0     		beq	.L77
 1211              		.loc 1 345 0 is_stmt 0 discriminator 4
 1212 00aa 104B     		ldr	r3, .L81+20
 1213 00ac 0193     		str	r3, [sp, #4]
 1214 00ae 0123     		movs	r3, #1
 1215 00b0 0093     		str	r3, [sp]
 1216 00b2 5A23     		movs	r3, #90
 1217 00b4 FF33     		adds	r3, r3, #255
 1218 00b6 094A     		ldr	r2, .L81+4
 1219 00b8 3832     		adds	r2, r2, #56
 1220 00ba 0949     		ldr	r1, .L81+8
 1221 00bc 0020     		movs	r0, #0
 1222              	.LVL193:
 1223 00be A847     		blx	r5
 1224              	.LVL194:
 1225              	.L77:
 1226              	.LBE17:
 346:Source\azure_iot_sdk\c-utility\src/urlencode.c ****                 free(decodedString);
 1227              		.loc 1 346 0 is_stmt 1
 1228 00c0 3000     		movs	r0, r6
 1229 00c2 FFF7FEFF 		bl	free
 1230              	.LVL195:
 1231 00c6 04E0     		b	.L74
 1232              	.LVL196:
 1233              	.L78:
 1234              	.LBE14:
 321:Source\azure_iot_sdk\c-utility\src/urlencode.c ****     }
 1235              		.loc 1 321 0
 1236 00c8 0024     		movs	r4, #0
 1237 00ca 02E0     		b	.L74
 1238              	.LVL197:
 1239              	.L79:
 1240              	.LBB18:
 332:Source\azure_iot_sdk\c-utility\src/urlencode.c ****         }
 1241              		.loc 1 332 0
 1242 00cc 0024     		movs	r4, #0
 1243 00ce 00E0     		b	.L74
 1244              	.LVL198:
 1245              	.L80:
 337:Source\azure_iot_sdk\c-utility\src/urlencode.c ****         }
 1246              		.loc 1 337 0
ARM GAS  C:\Users\Phuong\AppData\Local\Temp\ccVsyoLP.s 			page 30


 1247 00d0 0024     		movs	r4, #0
 1248              	.LVL199:
 1249              	.L74:
 1250              	.LBE18:
 347:Source\azure_iot_sdk\c-utility\src/urlencode.c ****             }
 348:Source\azure_iot_sdk\c-utility\src/urlencode.c ****         }
 349:Source\azure_iot_sdk\c-utility\src/urlencode.c ****     }
 350:Source\azure_iot_sdk\c-utility\src/urlencode.c ****     return result;
 351:Source\azure_iot_sdk\c-utility\src/urlencode.c **** }
 1251              		.loc 1 351 0
 1252 00d2 2000     		movs	r0, r4
 1253 00d4 02B0     		add	sp, sp, #8
 1254              		@ sp needed
 1255              	.LVL200:
 1256 00d6 70BD     		pop	{r4, r5, r6, pc}
 1257              	.L82:
 1258              		.align	2
 1259              	.L81:
 1260 00d8 04010000 		.word	.LC21
 1261 00dc 00000000 		.word	.LANCHOR0
 1262 00e0 00000000 		.word	.LC1
 1263 00e4 1C010000 		.word	.LC23
 1264 00e8 40010000 		.word	.LC25
 1265 00ec 68010000 		.word	.LC27
 1266              		.cfi_endproc
 1267              	.LFE10:
 1268              		.size	URL_Decode, .-URL_Decode
 1269              		.section	.text.URL_DecodeString,"ax",%progbits
 1270              		.align	2
 1271              		.global	URL_DecodeString
 1272              		.code	16
 1273              		.thumb_func
 1274              		.type	URL_DecodeString, %function
 1275              	URL_DecodeString:
 1276              	.LFB9:
 293:Source\azure_iot_sdk\c-utility\src/urlencode.c ****     STRING_HANDLE result;
 1277              		.loc 1 293 0
 1278              		.cfi_startproc
 1279              		@ args = 0, pretend = 0, frame = 0
 1280              		@ frame_needed = 0, uses_anonymous_args = 0
 1281              	.LVL201:
 1282 0000 70B5     		push	{r4, r5, r6, lr}
 1283              		.cfi_def_cfa_offset 16
 1284              		.cfi_offset 4, -16
 1285              		.cfi_offset 5, -12
 1286              		.cfi_offset 6, -8
 1287              		.cfi_offset 14, -4
 295:Source\azure_iot_sdk\c-utility\src/urlencode.c ****     {
 1288              		.loc 1 295 0
 1289 0002 0028     		cmp	r0, #0
 1290 0004 0AD0     		beq	.L85
 1291              	.LBB19:
 301:Source\azure_iot_sdk\c-utility\src/urlencode.c ****         if (tempString == NULL)
 1292              		.loc 1 301 0
 1293 0006 FFF7FEFF 		bl	STRING_construct
 1294              	.LVL202:
 1295 000a 041E     		subs	r4, r0, #0
ARM GAS  C:\Users\Phuong\AppData\Local\Temp\ccVsyoLP.s 			page 31


 1296              	.LVL203:
 302:Source\azure_iot_sdk\c-utility\src/urlencode.c ****         {
 1297              		.loc 1 302 0
 1298 000c 08D0     		beq	.L86
 308:Source\azure_iot_sdk\c-utility\src/urlencode.c ****             STRING_delete(tempString);
 1299              		.loc 1 308 0
 1300 000e FFF7FEFF 		bl	URL_Decode
 1301              	.LVL204:
 1302 0012 0500     		movs	r5, r0
 1303              	.LVL205:
 309:Source\azure_iot_sdk\c-utility\src/urlencode.c ****         }
 1304              		.loc 1 309 0
 1305 0014 2000     		movs	r0, r4
 1306              	.LVL206:
 1307 0016 FFF7FEFF 		bl	STRING_delete
 1308              	.LVL207:
 1309 001a 02E0     		b	.L84
 1310              	.LVL208:
 1311              	.L85:
 1312              	.LBE19:
 297:Source\azure_iot_sdk\c-utility\src/urlencode.c ****     }
 1313              		.loc 1 297 0
 1314 001c 0025     		movs	r5, #0
 1315 001e 00E0     		b	.L84
 1316              	.LVL209:
 1317              	.L86:
 1318              	.LBB20:
 304:Source\azure_iot_sdk\c-utility\src/urlencode.c ****         }
 1319              		.loc 1 304 0
 1320 0020 0025     		movs	r5, #0
 1321              	.LVL210:
 1322              	.L84:
 1323              	.LBE20:
 313:Source\azure_iot_sdk\c-utility\src/urlencode.c **** 
 1324              		.loc 1 313 0
 1325 0022 2800     		movs	r0, r5
 1326              		@ sp needed
 1327              	.LVL211:
 1328 0024 70BD     		pop	{r4, r5, r6, pc}
 1329              		.cfi_endproc
 1330              	.LFE9:
 1331              		.size	URL_DecodeString, .-URL_DecodeString
 1332 0026 C046     		.section	.rodata
 1333              		.align	2
 1334              		.set	.LANCHOR0,. + 0
 1335              		.type	__func__.5955, %object
 1336              		.size	__func__.5955, 27
 1337              	__func__.5955:
 1338 0000 63616C63 		.ascii	"calculateDecodedStringSize\000"
 1338      756C6174 
 1338      65446563 
 1338      6F646564 
 1338      53747269 
 1339 001b 00       		.space	1
 1340              		.type	__func__.6003, %object
 1341              		.size	__func__.6003, 16
 1342              	__func__.6003:
ARM GAS  C:\Users\Phuong\AppData\Local\Temp\ccVsyoLP.s 			page 32


 1343 001c 656E636F 		.ascii	"encode_url_data\000"
 1343      64655F75 
 1343      726C5F64 
 1343      61746100 
 1344              		.type	__func__.6021, %object
 1345              		.size	__func__.6021, 11
 1346              	__func__.6021:
 1347 002c 55524C5F 		.ascii	"URL_Encode\000"
 1347      456E636F 
 1347      646500
 1348 0037 00       		.space	1
 1349              		.type	__func__.6034, %object
 1350              		.size	__func__.6034, 11
 1351              	__func__.6034:
 1352 0038 55524C5F 		.ascii	"URL_Decode\000"
 1352      4465636F 
 1352      646500
 1353              		.section	.rodata.str1.4,"aMS",%progbits,1
 1354              		.align	2
 1355              	.LC1:
 1356 0000 536F7572 		.ascii	"Source\\azure_iot_sdk\\c-utility\\src\\urlencode.c\000"
 1356      63655C61 
 1356      7A757265 
 1356      5F696F74 
 1356      5F73646B 
 1357 002f 00       		.space	1
 1358              	.LC3:
 1359 0030 4E756C6C 		.ascii	"Null encoded string\000"
 1359      20656E63 
 1359      6F646564 
 1359      20737472 
 1359      696E6700 
 1360              	.LC5:
 1361 0044 496E636F 		.ascii	"Incomplete or invalid percent encoding\000"
 1361      6D706C65 
 1361      7465206F 
 1361      7220696E 
 1361      76616C69 
 1362 006b 00       		.space	1
 1363              	.LC7:
 1364 006c 4F757420 		.ascii	"Out of range of characters accepted by this decoder"
 1364      6F662072 
 1364      616E6765 
 1364      206F6620 
 1364      63686172 
 1365 009f 00       		.ascii	"\000"
 1366              	.LC9:
 1367 00a0 556E7072 		.ascii	"Unprintable value in encoded string\000"
 1367      696E7461 
 1367      626C6520 
 1367      76616C75 
 1367      6520696E 
 1368              	.LC13:
 1369 00c4 55524C5F 		.ascii	"URL_Encode:: MALLOC failure on encode.\000"
 1369      456E636F 
 1369      64653A3A 
 1369      204D414C 
ARM GAS  C:\Users\Phuong\AppData\Local\Temp\ccVsyoLP.s 			page 33


 1369      4C4F4320 
 1370 00eb 00       		.space	1
 1371              	.LC17:
 1372 00ec 55524C5F 		.ascii	"URL_Encode:: NULL input\000"
 1372      456E636F 
 1372      64653A3A 
 1372      204E554C 
 1372      4C20696E 
 1373              	.LC21:
 1374 0104 55524C5F 		.ascii	"URL_Decode:: NULL input\000"
 1374      4465636F 
 1374      64653A3A 
 1374      204E554C 
 1374      4C20696E 
 1375              	.LC23:
 1376 011c 55524C5F 		.ascii	"URL_Decode:: Invalid input string\000"
 1376      4465636F 
 1376      64653A3A 
 1376      20496E76 
 1376      616C6964 
 1377 013e 0000     		.space	2
 1378              	.LC25:
 1379 0140 55524C5F 		.ascii	"URL_Decode:: MALLOC failure on decode.\000"
 1379      4465636F 
 1379      64653A3A 
 1379      204D414C 
 1379      4C4F4320 
 1380 0167 00       		.space	1
 1381              	.LC27:
 1382 0168 55524C5F 		.ascii	"URL_Decode:: MALLOC failure on decode\000"
 1382      4465636F 
 1382      64653A3A 
 1382      204D414C 
 1382      4C4F4320 
 1383              		.text
 1384              	.Letext0:
 1385              		.file 2 "c:\\program files (x86)\\cypress\\psoc creator\\4.2\\psoc creator\\import\\gnu\\arm\\5.4.
 1386              		.file 3 ".\\Source\\azure_iot_sdk\\c-utility\\inc/azure_c_shared_utility/strings_types.h"
 1387              		.file 4 ".\\Source\\azure_iot_sdk\\c-utility\\inc/azure_c_shared_utility/xlogging.h"
 1388              		.file 5 ".\\Source\\azure_iot_sdk\\c-utility\\inc/azure_c_shared_utility/strings.h"
 1389              		.file 6 "c:\\program files (x86)\\cypress\\psoc creator\\4.2\\psoc creator\\import\\gnu\\arm\\5.4.
 1390              		.file 7 "c:\\program files (x86)\\cypress\\psoc creator\\4.2\\psoc creator\\import\\gnu\\arm\\5.4.