ARM GAS  C:\Users\Phuong\AppData\Local\Temp\ccTKuPn6.s 			page 1


   1              		.syntax unified
   2              		.cpu cortex-m0plus
   3              		.fpu softvfp
   4              		.eabi_attribute 20, 1
   5              		.eabi_attribute 21, 1
   6              		.eabi_attribute 23, 3
   7              		.eabi_attribute 24, 1
   8              		.eabi_attribute 25, 1
   9              		.eabi_attribute 26, 1
  10              		.eabi_attribute 30, 1
  11              		.eabi_attribute 34, 0
  12              		.eabi_attribute 18, 4
  13              		.thumb
  14              		.syntax unified
  15              		.file	"uuid.c"
  16              		.text
  17              	.Ltext0:
  18              		.cfi_sections	.debug_frame
  19              		.section	.text.UUID_from_string,"ax",%progbits
  20              		.align	2
  21              		.global	UUID_from_string
  22              		.code	16
  23              		.thumb_func
  24              		.type	UUID_from_string, %function
  25              	UUID_from_string:
  26              	.LFB1:
  27              		.file 1 "Source\\azure_iot_sdk\\c-utility\\src\\uuid.c"
   1:Source\azure_iot_sdk\c-utility\src/uuid.c **** // Copyright (c) Microsoft. All rights reserved.
   2:Source\azure_iot_sdk\c-utility\src/uuid.c **** // Licensed under the MIT license. See LICENSE file in the project root for full license informatio
   3:Source\azure_iot_sdk\c-utility\src/uuid.c **** 
   4:Source\azure_iot_sdk\c-utility\src/uuid.c **** #include <stdlib.h>
   5:Source\azure_iot_sdk\c-utility\src/uuid.c **** #include <stdio.h>
   6:Source\azure_iot_sdk\c-utility\src/uuid.c **** #include "azure_c_shared_utility/gballoc.h"
   7:Source\azure_iot_sdk\c-utility\src/uuid.c **** #include "azure_c_shared_utility/uuid.h"
   8:Source\azure_iot_sdk\c-utility\src/uuid.c **** #include "azure_c_shared_utility/uniqueid.h"
   9:Source\azure_iot_sdk\c-utility\src/uuid.c **** #include "azure_c_shared_utility/optimize_size.h"
  10:Source\azure_iot_sdk\c-utility\src/uuid.c **** #include "azure_c_shared_utility/xlogging.h"
  11:Source\azure_iot_sdk\c-utility\src/uuid.c **** 
  12:Source\azure_iot_sdk\c-utility\src/uuid.c **** #define UUID_STRING_LENGTH          36
  13:Source\azure_iot_sdk\c-utility\src/uuid.c **** #define UUID_STRING_SIZE            (UUID_STRING_LENGTH + 1)
  14:Source\azure_iot_sdk\c-utility\src/uuid.c **** #define __SUCCESS__                 0
  15:Source\azure_iot_sdk\c-utility\src/uuid.c **** #define UUID_FORMAT_STRING          "%02x%02x%02x%02x-%02x%02x-%02x%02x-%02x%02x-%02x%02x%02x%02x%0
  16:Source\azure_iot_sdk\c-utility\src/uuid.c **** 
  17:Source\azure_iot_sdk\c-utility\src/uuid.c **** int UUID_from_string(const char* uuid_string, UUID_T* uuid)
  18:Source\azure_iot_sdk\c-utility\src/uuid.c **** {
  28              		.loc 1 18 0
  29              		.cfi_startproc
  30              		@ args = 0, pretend = 0, frame = 8
  31              		@ frame_needed = 0, uses_anonymous_args = 0
  32              	.LVL0:
  33 0000 F0B5     		push	{r4, r5, r6, r7, lr}
  34              		.cfi_def_cfa_offset 20
  35              		.cfi_offset 4, -20
  36              		.cfi_offset 5, -16
  37              		.cfi_offset 6, -12
  38              		.cfi_offset 7, -8
  39              		.cfi_offset 14, -4
ARM GAS  C:\Users\Phuong\AppData\Local\Temp\ccTKuPn6.s 			page 2


  40 0002 4F46     		mov	r7, r9
  41 0004 4646     		mov	r6, r8
  42 0006 C0B4     		push	{r6, r7}
  43              		.cfi_def_cfa_offset 28
  44              		.cfi_offset 8, -28
  45              		.cfi_offset 9, -24
  46 0008 87B0     		sub	sp, sp, #28
  47              		.cfi_def_cfa_offset 56
  48 000a 071E     		subs	r7, r0, #0
  49 000c 8946     		mov	r9, r1
  19:Source\azure_iot_sdk\c-utility\src/uuid.c ****     int result;
  20:Source\azure_iot_sdk\c-utility\src/uuid.c **** 
  21:Source\azure_iot_sdk\c-utility\src/uuid.c ****     // Codes_SRS_UUID_09_007: [ If `uuid_string` or `uuid` are NULL, UUID_from_string shall return 
  22:Source\azure_iot_sdk\c-utility\src/uuid.c ****     if (uuid_string == NULL || uuid == NULL)
  50              		.loc 1 22 0
  51 000e 01D0     		beq	.L2
  52              		.loc 1 22 0 is_stmt 0 discriminator 1
  53 0010 0029     		cmp	r1, #0
  54 0012 11D1     		bne	.L3
  55              	.L2:
  56              	.LBB2:
  23:Source\azure_iot_sdk\c-utility\src/uuid.c ****     {
  24:Source\azure_iot_sdk\c-utility\src/uuid.c ****         LogError("Invalid argument (uuid_string=%p, uuid=%p)", uuid_string, uuid);
  57              		.loc 1 24 0 is_stmt 1 discriminator 3
  58 0014 FFF7FEFF 		bl	xlogging_get_log_function
  59              	.LVL1:
  60 0018 041E     		subs	r4, r0, #0
  61              	.LVL2:
  62 001a 53D0     		beq	.L11
  63              		.loc 1 24 0 is_stmt 0 discriminator 4
  64 001c 4B46     		mov	r3, r9
  65 001e 0393     		str	r3, [sp, #12]
  66 0020 0297     		str	r7, [sp, #8]
  67 0022 2C4B     		ldr	r3, .L14
  68 0024 0193     		str	r3, [sp, #4]
  69 0026 0123     		movs	r3, #1
  70 0028 0093     		str	r3, [sp]
  71 002a 1733     		adds	r3, r3, #23
  72 002c 2A4A     		ldr	r2, .L14+4
  73 002e 2B49     		ldr	r1, .L14+8
  74 0030 0020     		movs	r0, #0
  75              	.LVL3:
  76 0032 A047     		blx	r4
  77              	.LVL4:
  78              	.LBE2:
  25:Source\azure_iot_sdk\c-utility\src/uuid.c ****         result = __FAILURE__;
  79              		.loc 1 25 0 is_stmt 1 discriminator 4
  80 0034 1920     		movs	r0, #25
  81 0036 48E0     		b	.L4
  82              	.LVL5:
  83              	.L3:
  84              	.LBB3:
  26:Source\azure_iot_sdk\c-utility\src/uuid.c ****     }
  27:Source\azure_iot_sdk\c-utility\src/uuid.c ****     else
  28:Source\azure_iot_sdk\c-utility\src/uuid.c ****     {
  29:Source\azure_iot_sdk\c-utility\src/uuid.c ****         size_t uuid_string_length = strlen(uuid_string);
  85              		.loc 1 29 0
ARM GAS  C:\Users\Phuong\AppData\Local\Temp\ccTKuPn6.s 			page 3


  86 0038 FFF7FEFF 		bl	strlen
  87              	.LVL6:
  88 003c 0400     		movs	r4, r0
  89 003e 8046     		mov	r8, r0
  90              	.LVL7:
  30:Source\azure_iot_sdk\c-utility\src/uuid.c **** 
  31:Source\azure_iot_sdk\c-utility\src/uuid.c ****         if (uuid_string_length != UUID_STRING_LENGTH)
  91              		.loc 1 31 0
  92 0040 2428     		cmp	r0, #36
  93 0042 39D0     		beq	.L12
  94              	.LBB4:
  32:Source\azure_iot_sdk\c-utility\src/uuid.c ****         {
  33:Source\azure_iot_sdk\c-utility\src/uuid.c ****             LogError("Unexpected size for an UUID string (%lu)", (unsigned long)uuid_string_length)
  95              		.loc 1 33 0 discriminator 3
  96 0044 FFF7FEFF 		bl	xlogging_get_log_function
  97              	.LVL8:
  98 0048 051E     		subs	r5, r0, #0
  99              	.LVL9:
 100 004a 3DD0     		beq	.L13
 101              		.loc 1 33 0 is_stmt 0 discriminator 4
 102 004c 0294     		str	r4, [sp, #8]
 103 004e 244B     		ldr	r3, .L14+12
 104 0050 0193     		str	r3, [sp, #4]
 105 0052 0123     		movs	r3, #1
 106 0054 0093     		str	r3, [sp]
 107 0056 2033     		adds	r3, r3, #32
 108 0058 1F4A     		ldr	r2, .L14+4
 109 005a 2049     		ldr	r1, .L14+8
 110 005c 0020     		movs	r0, #0
 111              	.LVL10:
 112 005e A847     		blx	r5
 113              	.LVL11:
 114              	.LBE4:
  34:Source\azure_iot_sdk\c-utility\src/uuid.c ****             result = __FAILURE__;
 115              		.loc 1 34 0 is_stmt 1 discriminator 4
 116 0060 2220     		movs	r0, #34
 117 0062 32E0     		b	.L4
 118              	.LVL12:
 119              	.L10:
 120              	.LBB5:
  35:Source\azure_iot_sdk\c-utility\src/uuid.c ****         }
  36:Source\azure_iot_sdk\c-utility\src/uuid.c ****         else
  37:Source\azure_iot_sdk\c-utility\src/uuid.c ****         {
  38:Source\azure_iot_sdk\c-utility\src/uuid.c ****             // Codes_SRS_UUID_09_008: [ Each pair of digits in `uuid_string`, excluding dashes, sha
  39:Source\azure_iot_sdk\c-utility\src/uuid.c ****             size_t i, j;
  40:Source\azure_iot_sdk\c-utility\src/uuid.c ****             unsigned char* uuid_bytes;
  41:Source\azure_iot_sdk\c-utility\src/uuid.c **** 
  42:Source\azure_iot_sdk\c-utility\src/uuid.c ****             uuid_bytes = (unsigned char*)uuid;
  43:Source\azure_iot_sdk\c-utility\src/uuid.c ****             // Codes_SRS_UUID_09_010: [ If no failures occur, UUID_from_string shall return zero ]
  44:Source\azure_iot_sdk\c-utility\src/uuid.c ****             result = __SUCCESS__;
  45:Source\azure_iot_sdk\c-utility\src/uuid.c **** 
  46:Source\azure_iot_sdk\c-utility\src/uuid.c ****             for (i = 0, j = 0; i < uuid_string_length; )
  47:Source\azure_iot_sdk\c-utility\src/uuid.c ****             {
  48:Source\azure_iot_sdk\c-utility\src/uuid.c ****                 if (uuid_string[i] == '-')
 121              		.loc 1 48 0
 122 0064 3919     		adds	r1, r7, r4
 123 0066 0B78     		ldrb	r3, [r1]
ARM GAS  C:\Users\Phuong\AppData\Local\Temp\ccTKuPn6.s 			page 4


 124 0068 2D2B     		cmp	r3, #45
 125 006a 01D1     		bne	.L6
  49:Source\azure_iot_sdk\c-utility\src/uuid.c ****                 {
  50:Source\azure_iot_sdk\c-utility\src/uuid.c ****                     i++;
 126              		.loc 1 50 0
 127 006c 0134     		adds	r4, r4, #1
 128              	.LVL13:
 129 006e 25E0     		b	.L5
 130              	.L6:
 131              	.LBB6:
  51:Source\azure_iot_sdk\c-utility\src/uuid.c ****                 }
  52:Source\azure_iot_sdk\c-utility\src/uuid.c ****                 else
  53:Source\azure_iot_sdk\c-utility\src/uuid.c ****                 {
  54:Source\azure_iot_sdk\c-utility\src/uuid.c ****                     char double_hex_digit[3] = { 0, 0, 0 };
 132              		.loc 1 54 0
 133 0070 05AD     		add	r5, sp, #20
 134 0072 0023     		movs	r3, #0
 135 0074 2B70     		strb	r3, [r5]
 136 0076 6B70     		strb	r3, [r5, #1]
 137 0078 AB70     		strb	r3, [r5, #2]
  55:Source\azure_iot_sdk\c-utility\src/uuid.c **** 
  56:Source\azure_iot_sdk\c-utility\src/uuid.c ****                     (void)memcpy(double_hex_digit, uuid_string + i, 2);
 138              		.loc 1 56 0
 139 007a 0222     		movs	r2, #2
 140 007c 2800     		movs	r0, r5
 141 007e FFF7FEFF 		bl	memcpy
 142              	.LVL14:
  57:Source\azure_iot_sdk\c-utility\src/uuid.c **** 
  58:Source\azure_iot_sdk\c-utility\src/uuid.c ****                     if (sscanf(double_hex_digit, "%02hhx", uuid_bytes + j) != 1)
 143              		.loc 1 58 0
 144 0082 4B46     		mov	r3, r9
 145 0084 9A19     		adds	r2, r3, r6
 146 0086 1749     		ldr	r1, .L14+16
 147 0088 2800     		movs	r0, r5
 148 008a FFF7FEFF 		bl	sscanf
 149              	.LVL15:
 150 008e 0128     		cmp	r0, #1
 151 0090 0FD0     		beq	.L8
 152              	.LBB7:
  59:Source\azure_iot_sdk\c-utility\src/uuid.c ****                     {
  60:Source\azure_iot_sdk\c-utility\src/uuid.c ****                         // Codes_SRS_UUID_09_009: [ If `uuid` fails to be generated, UUID_from_stri
  61:Source\azure_iot_sdk\c-utility\src/uuid.c ****                         LogError("Failed decoding UUID string (%lu)", (unsigned long)i);
 153              		.loc 1 61 0 discriminator 3
 154 0092 FFF7FEFF 		bl	xlogging_get_log_function
 155              	.LVL16:
 156 0096 051E     		subs	r5, r0, #0
 157              	.LVL17:
 158 0098 09D0     		beq	.L9
 159              		.loc 1 61 0 is_stmt 0 discriminator 4
 160 009a 0294     		str	r4, [sp, #8]
 161 009c 124B     		ldr	r3, .L14+20
 162 009e 0193     		str	r3, [sp, #4]
 163 00a0 0123     		movs	r3, #1
 164 00a2 0093     		str	r3, [sp]
 165 00a4 3C33     		adds	r3, r3, #60
 166 00a6 0C4A     		ldr	r2, .L14+4
 167 00a8 0C49     		ldr	r1, .L14+8
ARM GAS  C:\Users\Phuong\AppData\Local\Temp\ccTKuPn6.s 			page 5


 168 00aa 0020     		movs	r0, #0
 169              	.LVL18:
 170 00ac A847     		blx	r5
 171              	.LVL19:
 172              	.L9:
 173              	.LBE7:
  62:Source\azure_iot_sdk\c-utility\src/uuid.c ****                         result = __FAILURE__;
 174              		.loc 1 62 0 is_stmt 1
 175 00ae 3E20     		movs	r0, #62
 176 00b0 0BE0     		b	.L4
 177              	.LVL20:
 178              	.L8:
  63:Source\azure_iot_sdk\c-utility\src/uuid.c ****                         break;
  64:Source\azure_iot_sdk\c-utility\src/uuid.c ****                     }
  65:Source\azure_iot_sdk\c-utility\src/uuid.c ****                     else
  66:Source\azure_iot_sdk\c-utility\src/uuid.c ****                     {
  67:Source\azure_iot_sdk\c-utility\src/uuid.c ****                         i += 2;
 179              		.loc 1 67 0
 180 00b2 0234     		adds	r4, r4, #2
 181              	.LVL21:
  68:Source\azure_iot_sdk\c-utility\src/uuid.c ****                         j++;
 182              		.loc 1 68 0
 183 00b4 0136     		adds	r6, r6, #1
 184              	.LVL22:
 185 00b6 01E0     		b	.L5
 186              	.LVL23:
 187              	.L12:
 188              	.LBE6:
 189              	.LBE5:
 190 00b8 0026     		movs	r6, #0
 191 00ba 0024     		movs	r4, #0
 192              	.LVL24:
 193              	.L5:
 194              	.LBB8:
  46:Source\azure_iot_sdk\c-utility\src/uuid.c ****             {
 195              		.loc 1 46 0 discriminator 1
 196 00bc 4445     		cmp	r4, r8
 197 00be D1D3     		bcc	.L10
  44:Source\azure_iot_sdk\c-utility\src/uuid.c **** 
 198              		.loc 1 44 0
 199 00c0 0020     		movs	r0, #0
 200 00c2 02E0     		b	.L4
 201              	.LVL25:
 202              	.L11:
 203              	.LBE8:
 204              	.LBE3:
  25:Source\azure_iot_sdk\c-utility\src/uuid.c ****     }
 205              		.loc 1 25 0
 206 00c4 1920     		movs	r0, #25
 207              	.LVL26:
 208 00c6 00E0     		b	.L4
 209              	.LVL27:
 210              	.L13:
 211              	.LBB9:
  34:Source\azure_iot_sdk\c-utility\src/uuid.c ****         }
 212              		.loc 1 34 0
 213 00c8 2220     		movs	r0, #34
ARM GAS  C:\Users\Phuong\AppData\Local\Temp\ccTKuPn6.s 			page 6


 214              	.LVL28:
 215              	.L4:
 216              	.LBE9:
  69:Source\azure_iot_sdk\c-utility\src/uuid.c ****                     }
  70:Source\azure_iot_sdk\c-utility\src/uuid.c ****                 }
  71:Source\azure_iot_sdk\c-utility\src/uuid.c ****             }
  72:Source\azure_iot_sdk\c-utility\src/uuid.c ****         }
  73:Source\azure_iot_sdk\c-utility\src/uuid.c ****     }
  74:Source\azure_iot_sdk\c-utility\src/uuid.c **** 
  75:Source\azure_iot_sdk\c-utility\src/uuid.c ****     return result;
  76:Source\azure_iot_sdk\c-utility\src/uuid.c **** }
 217              		.loc 1 76 0
 218 00ca 07B0     		add	sp, sp, #28
 219              		@ sp needed
 220              	.LVL29:
 221              	.LVL30:
 222 00cc 0CBC     		pop	{r2, r3}
 223 00ce 9046     		mov	r8, r2
 224 00d0 9946     		mov	r9, r3
 225 00d2 F0BD     		pop	{r4, r5, r6, r7, pc}
 226              	.L15:
 227              		.align	2
 228              	.L14:
 229 00d4 2C000000 		.word	.LC3
 230 00d8 00000000 		.word	.LANCHOR0
 231 00dc 00000000 		.word	.LC1
 232 00e0 58000000 		.word	.LC5
 233 00e4 84000000 		.word	.LC7
 234 00e8 8C000000 		.word	.LC9
 235              		.cfi_endproc
 236              	.LFE1:
 237              		.size	UUID_from_string, .-UUID_from_string
 238              		.section	.text.UUID_to_string,"ax",%progbits
 239              		.align	2
 240              		.global	UUID_to_string
 241              		.code	16
 242              		.thumb_func
 243              		.type	UUID_to_string, %function
 244              	UUID_to_string:
 245              	.LFB2:
  77:Source\azure_iot_sdk\c-utility\src/uuid.c **** 
  78:Source\azure_iot_sdk\c-utility\src/uuid.c **** char* UUID_to_string(const UUID_T* uuid)
  79:Source\azure_iot_sdk\c-utility\src/uuid.c **** {
 246              		.loc 1 79 0
 247              		.cfi_startproc
 248              		@ args = 0, pretend = 0, frame = 8
 249              		@ frame_needed = 0, uses_anonymous_args = 0
 250              	.LVL31:
 251 0000 F0B5     		push	{r4, r5, r6, r7, lr}
 252              		.cfi_def_cfa_offset 20
 253              		.cfi_offset 4, -20
 254              		.cfi_offset 5, -16
 255              		.cfi_offset 6, -12
 256              		.cfi_offset 7, -8
 257              		.cfi_offset 14, -4
 258 0002 5F46     		mov	r7, fp
 259 0004 5646     		mov	r6, r10
ARM GAS  C:\Users\Phuong\AppData\Local\Temp\ccTKuPn6.s 			page 7


 260 0006 4D46     		mov	r5, r9
 261 0008 4446     		mov	r4, r8
 262 000a F0B4     		push	{r4, r5, r6, r7}
 263              		.cfi_def_cfa_offset 36
 264              		.cfi_offset 8, -36
 265              		.cfi_offset 9, -32
 266              		.cfi_offset 10, -28
 267              		.cfi_offset 11, -24
 268 000c 91B0     		sub	sp, sp, #68
 269              		.cfi_def_cfa_offset 104
 270 000e 041E     		subs	r4, r0, #0
  80:Source\azure_iot_sdk\c-utility\src/uuid.c ****     char* result;
  81:Source\azure_iot_sdk\c-utility\src/uuid.c **** 
  82:Source\azure_iot_sdk\c-utility\src/uuid.c ****     // Codes_SRS_UUID_09_011: [ If `uuid` is NULL, UUID_to_string shall return a non-zero value ]
  83:Source\azure_iot_sdk\c-utility\src/uuid.c ****     if (uuid == NULL)
 271              		.loc 1 83 0
 272 0010 10D1     		bne	.L17
 273              	.LBB10:
  84:Source\azure_iot_sdk\c-utility\src/uuid.c ****     {
  85:Source\azure_iot_sdk\c-utility\src/uuid.c ****         LogError("Invalid argument (uuid is NULL)");
 274              		.loc 1 85 0 discriminator 3
 275 0012 FFF7FEFF 		bl	xlogging_get_log_function
 276              	.LVL32:
 277 0016 041E     		subs	r4, r0, #0
 278              	.LVL33:
 279 0018 61D0     		beq	.L21
 280              		.loc 1 85 0 is_stmt 0 discriminator 4
 281 001a 364B     		ldr	r3, .L22
 282 001c 0193     		str	r3, [sp, #4]
 283 001e 0123     		movs	r3, #1
 284 0020 0093     		str	r3, [sp]
 285 0022 5433     		adds	r3, r3, #84
 286 0024 344A     		ldr	r2, .L22+4
 287 0026 1432     		adds	r2, r2, #20
 288 0028 3449     		ldr	r1, .L22+8
 289 002a 0020     		movs	r0, #0
 290              	.LVL34:
 291 002c A047     		blx	r4
 292              	.LVL35:
 293              	.LBE10:
  86:Source\azure_iot_sdk\c-utility\src/uuid.c ****         result = NULL;
 294              		.loc 1 86 0 is_stmt 1 discriminator 4
 295 002e 0023     		movs	r3, #0
 296 0030 0F93     		str	r3, [sp, #60]
 297 0032 56E0     		b	.L18
 298              	.LVL36:
 299              	.L17:
  87:Source\azure_iot_sdk\c-utility\src/uuid.c ****     }
  88:Source\azure_iot_sdk\c-utility\src/uuid.c ****     // Codes_SRS_UUID_09_012: [ UUID_to_string shall allocate a valid UUID string (`uuid_string`) a
  89:Source\azure_iot_sdk\c-utility\src/uuid.c ****     else if ((result = (char*)malloc(sizeof(char) * UUID_STRING_SIZE)) == NULL)
 300              		.loc 1 89 0
 301 0034 2520     		movs	r0, #37
 302              	.LVL37:
 303 0036 FFF7FEFF 		bl	malloc
 304              	.LVL38:
 305 003a 0F90     		str	r0, [sp, #60]
 306              	.LVL39:
ARM GAS  C:\Users\Phuong\AppData\Local\Temp\ccTKuPn6.s 			page 8


 307 003c 0028     		cmp	r0, #0
 308 003e 0ED1     		bne	.L19
 309              	.LBB11:
  90:Source\azure_iot_sdk\c-utility\src/uuid.c ****     {
  91:Source\azure_iot_sdk\c-utility\src/uuid.c ****         // Codes_SRS_UUID_09_013: [ If `uuid_string` fails to be allocated, UUID_to_string shall re
  92:Source\azure_iot_sdk\c-utility\src/uuid.c ****         LogError("Failed allocating UUID string");
 310              		.loc 1 92 0 discriminator 3
 311 0040 FFF7FEFF 		bl	xlogging_get_log_function
 312              	.LVL40:
 313 0044 041E     		subs	r4, r0, #0
 314              	.LVL41:
 315 0046 4CD0     		beq	.L18
 316              		.loc 1 92 0 is_stmt 0 discriminator 4
 317 0048 2D4B     		ldr	r3, .L22+12
 318 004a 0193     		str	r3, [sp, #4]
 319 004c 0123     		movs	r3, #1
 320 004e 0093     		str	r3, [sp]
 321 0050 5B33     		adds	r3, r3, #91
 322 0052 294A     		ldr	r2, .L22+4
 323 0054 1432     		adds	r2, r2, #20
 324 0056 2949     		ldr	r1, .L22+8
 325 0058 0020     		movs	r0, #0
 326              	.LVL42:
 327 005a A047     		blx	r4
 328              	.LVL43:
 329 005c 41E0     		b	.L18
 330              	.LVL44:
 331              	.L19:
 332              	.LBE11:
 333              	.LBB12:
  93:Source\azure_iot_sdk\c-utility\src/uuid.c ****     }
  94:Source\azure_iot_sdk\c-utility\src/uuid.c ****     else
  95:Source\azure_iot_sdk\c-utility\src/uuid.c ****     {
  96:Source\azure_iot_sdk\c-utility\src/uuid.c ****         unsigned char* uuid_bytes;
  97:Source\azure_iot_sdk\c-utility\src/uuid.c ****         int number_of_chars_written;
  98:Source\azure_iot_sdk\c-utility\src/uuid.c **** 
  99:Source\azure_iot_sdk\c-utility\src/uuid.c ****         uuid_bytes = (unsigned char*)uuid;
 100:Source\azure_iot_sdk\c-utility\src/uuid.c **** 
 101:Source\azure_iot_sdk\c-utility\src/uuid.c ****         // Codes_SRS_UUID_09_014: [ Each character in `uuid` shall be written in the respective pos
 102:Source\azure_iot_sdk\c-utility\src/uuid.c ****         number_of_chars_written = sprintf(result, "%" PRI_UUID,
 103:Source\azure_iot_sdk\c-utility\src/uuid.c ****             UUID_FORMAT_VALUES(uuid_bytes));
 334              		.loc 1 103 0 is_stmt 1
 335 005e 2278     		ldrb	r2, [r4]
 336 0060 6378     		ldrb	r3, [r4, #1]
 337 0062 A578     		ldrb	r5, [r4, #2]
 338 0064 E178     		ldrb	r1, [r4, #3]
 339 0066 0191     		str	r1, [sp, #4]
 340 0068 2179     		ldrb	r1, [r4, #4]
 341 006a 0291     		str	r1, [sp, #8]
 342 006c 6179     		ldrb	r1, [r4, #5]
 343 006e 0391     		str	r1, [sp, #12]
 344 0070 A179     		ldrb	r1, [r4, #6]
 345 0072 0491     		str	r1, [sp, #16]
 346 0074 E079     		ldrb	r0, [r4, #7]
 347              	.LVL45:
 348 0076 267A     		ldrb	r6, [r4, #8]
 349 0078 677A     		ldrb	r7, [r4, #9]
ARM GAS  C:\Users\Phuong\AppData\Local\Temp\ccTKuPn6.s 			page 9


 350 007a A17A     		ldrb	r1, [r4, #10]
 351 007c 8C46     		mov	ip, r1
 352 007e E17A     		ldrb	r1, [r4, #11]
 353 0080 8846     		mov	r8, r1
 354 0082 217B     		ldrb	r1, [r4, #12]
 355 0084 8946     		mov	r9, r1
 356 0086 617B     		ldrb	r1, [r4, #13]
 357 0088 8A46     		mov	r10, r1
 358 008a A17B     		ldrb	r1, [r4, #14]
 359 008c E47B     		ldrb	r4, [r4, #15]
 360              	.LVL46:
 102:Source\azure_iot_sdk\c-utility\src/uuid.c ****             UUID_FORMAT_VALUES(uuid_bytes));
 361              		.loc 1 102 0
 362 008e 0D94     		str	r4, [sp, #52]
 363 0090 0C91     		str	r1, [sp, #48]
 364 0092 5146     		mov	r1, r10
 365 0094 0B91     		str	r1, [sp, #44]
 366 0096 4946     		mov	r1, r9
 367 0098 0A91     		str	r1, [sp, #40]
 368 009a 4146     		mov	r1, r8
 369 009c 0991     		str	r1, [sp, #36]
 370 009e 6146     		mov	r1, ip
 371 00a0 0891     		str	r1, [sp, #32]
 372 00a2 0797     		str	r7, [sp, #28]
 373 00a4 0696     		str	r6, [sp, #24]
 374 00a6 0590     		str	r0, [sp, #20]
 375 00a8 0095     		str	r5, [sp]
 376 00aa 1649     		ldr	r1, .L22+16
 377 00ac 0F98     		ldr	r0, [sp, #60]
 378 00ae FFF7FEFF 		bl	sprintf
 379              	.LVL47:
 104:Source\azure_iot_sdk\c-utility\src/uuid.c **** 
 105:Source\azure_iot_sdk\c-utility\src/uuid.c ****         if (number_of_chars_written != UUID_STRING_LENGTH)
 380              		.loc 1 105 0
 381 00b2 2428     		cmp	r0, #36
 382 00b4 15D0     		beq	.L18
 383              	.LBB13:
 106:Source\azure_iot_sdk\c-utility\src/uuid.c ****         {
 107:Source\azure_iot_sdk\c-utility\src/uuid.c ****             // Tests_SRS_UUID_09_015: [ If `uuid_string` fails to be set, UUID_to_string shall retu
 108:Source\azure_iot_sdk\c-utility\src/uuid.c ****             LogError("Failed encoding UUID string");
 384              		.loc 1 108 0 discriminator 3
 385 00b6 FFF7FEFF 		bl	xlogging_get_log_function
 386              	.LVL48:
 387 00ba 041E     		subs	r4, r0, #0
 388              	.LVL49:
 389 00bc 09D0     		beq	.L20
 390              		.loc 1 108 0 is_stmt 0 discriminator 4
 391 00be 124B     		ldr	r3, .L22+20
 392 00c0 0193     		str	r3, [sp, #4]
 393 00c2 0123     		movs	r3, #1
 394 00c4 0093     		str	r3, [sp]
 395 00c6 6B33     		adds	r3, r3, #107
 396 00c8 0B4A     		ldr	r2, .L22+4
 397 00ca 1432     		adds	r2, r2, #20
 398 00cc 0B49     		ldr	r1, .L22+8
 399 00ce 0020     		movs	r0, #0
 400              	.LVL50:
ARM GAS  C:\Users\Phuong\AppData\Local\Temp\ccTKuPn6.s 			page 10


 401 00d0 A047     		blx	r4
 402              	.LVL51:
 403              	.L20:
 404              	.LBE13:
 109:Source\azure_iot_sdk\c-utility\src/uuid.c ****             free(result);
 405              		.loc 1 109 0 is_stmt 1
 406 00d2 0F98     		ldr	r0, [sp, #60]
 407 00d4 FFF7FEFF 		bl	free
 408              	.LVL52:
 110:Source\azure_iot_sdk\c-utility\src/uuid.c ****             result = NULL;
 409              		.loc 1 110 0
 410 00d8 0023     		movs	r3, #0
 411 00da 0F93     		str	r3, [sp, #60]
 412 00dc 01E0     		b	.L18
 413              	.LVL53:
 414              	.L21:
 415              	.LBE12:
  86:Source\azure_iot_sdk\c-utility\src/uuid.c ****     }
 416              		.loc 1 86 0
 417 00de 0023     		movs	r3, #0
 418 00e0 0F93     		str	r3, [sp, #60]
 419              	.LVL54:
 420              	.L18:
 111:Source\azure_iot_sdk\c-utility\src/uuid.c ****         }
 112:Source\azure_iot_sdk\c-utility\src/uuid.c ****     }
 113:Source\azure_iot_sdk\c-utility\src/uuid.c **** 
 114:Source\azure_iot_sdk\c-utility\src/uuid.c ****     // Codes_SRS_UUID_09_016: [ If no failures occur, UUID_to_string shall return `uuid_string` ]
 115:Source\azure_iot_sdk\c-utility\src/uuid.c ****     return result;
 116:Source\azure_iot_sdk\c-utility\src/uuid.c **** }
 421              		.loc 1 116 0
 422 00e2 0F98     		ldr	r0, [sp, #60]
 423 00e4 11B0     		add	sp, sp, #68
 424              		@ sp needed
 425 00e6 3CBC     		pop	{r2, r3, r4, r5}
 426 00e8 9046     		mov	r8, r2
 427 00ea 9946     		mov	r9, r3
 428 00ec A246     		mov	r10, r4
 429 00ee AB46     		mov	fp, r5
 430 00f0 F0BD     		pop	{r4, r5, r6, r7, pc}
 431              	.L23:
 432 00f2 C046     		.align	2
 433              	.L22:
 434 00f4 B0000000 		.word	.LC13
 435 00f8 00000000 		.word	.LANCHOR0
 436 00fc 00000000 		.word	.LC1
 437 0100 D0000000 		.word	.LC15
 438 0104 F0000000 		.word	.LC17
 439 0108 38010000 		.word	.LC19
 440              		.cfi_endproc
 441              	.LFE2:
 442              		.size	UUID_to_string, .-UUID_to_string
 443              		.section	.text.UUID_generate,"ax",%progbits
 444              		.align	2
 445              		.global	UUID_generate
 446              		.code	16
 447              		.thumb_func
 448              		.type	UUID_generate, %function
ARM GAS  C:\Users\Phuong\AppData\Local\Temp\ccTKuPn6.s 			page 11


 449              	UUID_generate:
 450              	.LFB3:
 117:Source\azure_iot_sdk\c-utility\src/uuid.c **** 
 118:Source\azure_iot_sdk\c-utility\src/uuid.c **** int UUID_generate(UUID_T* uuid)
 119:Source\azure_iot_sdk\c-utility\src/uuid.c **** {
 451              		.loc 1 119 0
 452              		.cfi_startproc
 453              		@ args = 0, pretend = 0, frame = 0
 454              		@ frame_needed = 0, uses_anonymous_args = 0
 455              	.LVL55:
 456 0000 30B5     		push	{r4, r5, lr}
 457              		.cfi_def_cfa_offset 12
 458              		.cfi_offset 4, -12
 459              		.cfi_offset 5, -8
 460              		.cfi_offset 14, -4
 461 0002 83B0     		sub	sp, sp, #12
 462              		.cfi_def_cfa_offset 24
 463 0004 051E     		subs	r5, r0, #0
 120:Source\azure_iot_sdk\c-utility\src/uuid.c ****     int result;
 121:Source\azure_iot_sdk\c-utility\src/uuid.c **** 
 122:Source\azure_iot_sdk\c-utility\src/uuid.c ****     // Codes_SRS_UUID_09_001: [ If `uuid` is NULL, UUID_generate shall return a non-zero value ]
 123:Source\azure_iot_sdk\c-utility\src/uuid.c ****     if (uuid == NULL)
 464              		.loc 1 123 0
 465 0006 0FD1     		bne	.L25
 466              	.LBB14:
 124:Source\azure_iot_sdk\c-utility\src/uuid.c ****     {
 125:Source\azure_iot_sdk\c-utility\src/uuid.c ****         LogError("Invalid argument (uuid is NULL)");
 467              		.loc 1 125 0 discriminator 3
 468 0008 FFF7FEFF 		bl	xlogging_get_log_function
 469              	.LVL56:
 470 000c 041E     		subs	r4, r0, #0
 471              	.LVL57:
 472 000e 59D0     		beq	.L30
 473              		.loc 1 125 0 is_stmt 0 discriminator 4
 474 0010 2F4B     		ldr	r3, .L35
 475 0012 0193     		str	r3, [sp, #4]
 476 0014 0123     		movs	r3, #1
 477 0016 0093     		str	r3, [sp]
 478 0018 7C33     		adds	r3, r3, #124
 479 001a 2E4A     		ldr	r2, .L35+4
 480 001c 2432     		adds	r2, r2, #36
 481 001e 2E49     		ldr	r1, .L35+8
 482 0020 0020     		movs	r0, #0
 483              	.LVL58:
 484 0022 A047     		blx	r4
 485              	.LVL59:
 486              	.LBE14:
 126:Source\azure_iot_sdk\c-utility\src/uuid.c ****         result = __FAILURE__;
 487              		.loc 1 126 0 is_stmt 1 discriminator 4
 488 0024 7E35     		adds	r5, r5, #126
 489              	.LVL60:
 490 0026 50E0     		b	.L26
 491              	.LVL61:
 492              	.L25:
 493              	.LBB15:
 127:Source\azure_iot_sdk\c-utility\src/uuid.c ****     }
 128:Source\azure_iot_sdk\c-utility\src/uuid.c ****     else
ARM GAS  C:\Users\Phuong\AppData\Local\Temp\ccTKuPn6.s 			page 12


 129:Source\azure_iot_sdk\c-utility\src/uuid.c ****     {
 130:Source\azure_iot_sdk\c-utility\src/uuid.c ****         char* uuid_string;
 131:Source\azure_iot_sdk\c-utility\src/uuid.c **** 
 132:Source\azure_iot_sdk\c-utility\src/uuid.c ****         if ((uuid_string = (char*)malloc(sizeof(char) * UUID_STRING_SIZE)) == NULL)
 494              		.loc 1 132 0
 495 0028 2520     		movs	r0, #37
 496              	.LVL62:
 497 002a FFF7FEFF 		bl	malloc
 498              	.LVL63:
 499 002e 041E     		subs	r4, r0, #0
 500              	.LVL64:
 501 0030 0FD1     		bne	.L27
 502              	.LBB16:
 133:Source\azure_iot_sdk\c-utility\src/uuid.c ****         {
 134:Source\azure_iot_sdk\c-utility\src/uuid.c ****             // Codes_SRS_UUID_09_003: [ If the UUID string fails to be obtained, UUID_generate shal
 135:Source\azure_iot_sdk\c-utility\src/uuid.c ****             LogError("Failed allocating UUID string");
 503              		.loc 1 135 0 discriminator 3
 504 0032 FFF7FEFF 		bl	xlogging_get_log_function
 505              	.LVL65:
 506 0036 041E     		subs	r4, r0, #0
 507              	.LVL66:
 508 0038 46D0     		beq	.L31
 509              		.loc 1 135 0 is_stmt 0 discriminator 4
 510 003a 284B     		ldr	r3, .L35+12
 511 003c 0193     		str	r3, [sp, #4]
 512 003e 0123     		movs	r3, #1
 513 0040 0093     		str	r3, [sp]
 514 0042 8633     		adds	r3, r3, #134
 515 0044 234A     		ldr	r2, .L35+4
 516 0046 2432     		adds	r2, r2, #36
 517 0048 2349     		ldr	r1, .L35+8
 518 004a 0020     		movs	r0, #0
 519              	.LVL67:
 520 004c A047     		blx	r4
 521              	.LVL68:
 522              	.LBE16:
 136:Source\azure_iot_sdk\c-utility\src/uuid.c ****             result = __FAILURE__;
 523              		.loc 1 136 0 is_stmt 1 discriminator 4
 524 004e 8825     		movs	r5, #136
 525              	.LVL69:
 526 0050 3BE0     		b	.L26
 527              	.LVL70:
 528              	.L27:
 137:Source\azure_iot_sdk\c-utility\src/uuid.c ****         }
 138:Source\azure_iot_sdk\c-utility\src/uuid.c ****         else
 139:Source\azure_iot_sdk\c-utility\src/uuid.c ****         {
 140:Source\azure_iot_sdk\c-utility\src/uuid.c ****             (void)memset(uuid_string, 0, sizeof(char) * UUID_STRING_SIZE);
 529              		.loc 1 140 0
 530 0052 2522     		movs	r2, #37
 531 0054 0021     		movs	r1, #0
 532 0056 FFF7FEFF 		bl	memset
 533              	.LVL71:
 141:Source\azure_iot_sdk\c-utility\src/uuid.c **** 
 142:Source\azure_iot_sdk\c-utility\src/uuid.c ****             // Codes_SRS_UUID_09_002: [ UUID_generate shall obtain an UUID string from UniqueId_Gen
 143:Source\azure_iot_sdk\c-utility\src/uuid.c ****             if (UniqueId_Generate(uuid_string, UUID_STRING_SIZE) != UNIQUEID_OK)
 534              		.loc 1 143 0
 535 005a 2521     		movs	r1, #37
ARM GAS  C:\Users\Phuong\AppData\Local\Temp\ccTKuPn6.s 			page 13


 536 005c 2000     		movs	r0, r4
 537 005e FFF7FEFF 		bl	UniqueId_Generate
 538              	.LVL72:
 539 0062 0028     		cmp	r0, #0
 540 0064 0FD0     		beq	.L28
 541              	.LBB17:
 144:Source\azure_iot_sdk\c-utility\src/uuid.c ****             {
 145:Source\azure_iot_sdk\c-utility\src/uuid.c ****                 // Codes_SRS_UUID_09_003: [ If the UUID string fails to be obtained, UUID_generate 
 146:Source\azure_iot_sdk\c-utility\src/uuid.c ****                 LogError("Failed generating UUID");
 542              		.loc 1 146 0 discriminator 3
 543 0066 FFF7FEFF 		bl	xlogging_get_log_function
 544              	.LVL73:
 545 006a 051E     		subs	r5, r0, #0
 546              	.LVL74:
 547 006c 21D0     		beq	.L32
 548              		.loc 1 146 0 is_stmt 0 discriminator 4
 549 006e 1C4B     		ldr	r3, .L35+16
 550 0070 0193     		str	r3, [sp, #4]
 551 0072 0123     		movs	r3, #1
 552 0074 0093     		str	r3, [sp]
 553 0076 9133     		adds	r3, r3, #145
 554 0078 164A     		ldr	r2, .L35+4
 555 007a 2432     		adds	r2, r2, #36
 556 007c 1649     		ldr	r1, .L35+8
 557 007e 0020     		movs	r0, #0
 558              	.LVL75:
 559 0080 A847     		blx	r5
 560              	.LVL76:
 561              	.LBE17:
 147:Source\azure_iot_sdk\c-utility\src/uuid.c ****                 result = __FAILURE__;
 562              		.loc 1 147 0 is_stmt 1 discriminator 4
 563 0082 9325     		movs	r5, #147
 564              	.LVL77:
 565 0084 1AE0     		b	.L29
 566              	.LVL78:
 567              	.L28:
 148:Source\azure_iot_sdk\c-utility\src/uuid.c ****             }
 149:Source\azure_iot_sdk\c-utility\src/uuid.c ****             // Codes_SRS_UUID_09_004: [ The UUID string shall be parsed into an UUID_T type (16 uns
 150:Source\azure_iot_sdk\c-utility\src/uuid.c ****             else if (UUID_from_string(uuid_string, uuid) != 0)
 568              		.loc 1 150 0
 569 0086 2900     		movs	r1, r5
 570 0088 2000     		movs	r0, r4
 571 008a FFF7FEFF 		bl	UUID_from_string
 572              	.LVL79:
 573 008e 0028     		cmp	r0, #0
 574 0090 11D0     		beq	.L33
 575              	.LBB18:
 151:Source\azure_iot_sdk\c-utility\src/uuid.c ****             {
 152:Source\azure_iot_sdk\c-utility\src/uuid.c ****                 // Codes_SRS_UUID_09_005: [ If `uuid` fails to be set, UUID_generate shall fail and
 153:Source\azure_iot_sdk\c-utility\src/uuid.c ****                 LogError("Failed parsing UUID string");
 576              		.loc 1 153 0 discriminator 3
 577 0092 FFF7FEFF 		bl	xlogging_get_log_function
 578              	.LVL80:
 579 0096 051E     		subs	r5, r0, #0
 580              	.LVL81:
 581 0098 0FD0     		beq	.L34
 582              		.loc 1 153 0 is_stmt 0 discriminator 4
ARM GAS  C:\Users\Phuong\AppData\Local\Temp\ccTKuPn6.s 			page 14


 583 009a 124B     		ldr	r3, .L35+20
 584 009c 0193     		str	r3, [sp, #4]
 585 009e 0123     		movs	r3, #1
 586 00a0 0093     		str	r3, [sp]
 587 00a2 9833     		adds	r3, r3, #152
 588 00a4 0B4A     		ldr	r2, .L35+4
 589 00a6 2432     		adds	r2, r2, #36
 590 00a8 0B49     		ldr	r1, .L35+8
 591 00aa 0020     		movs	r0, #0
 592              	.LVL82:
 593 00ac A847     		blx	r5
 594              	.LVL83:
 595              	.LBE18:
 154:Source\azure_iot_sdk\c-utility\src/uuid.c ****                 result = __FAILURE__;
 596              		.loc 1 154 0 is_stmt 1 discriminator 4
 597 00ae 9A25     		movs	r5, #154
 598              	.LVL84:
 599 00b0 04E0     		b	.L29
 600              	.LVL85:
 601              	.L32:
 147:Source\azure_iot_sdk\c-utility\src/uuid.c ****             }
 602              		.loc 1 147 0
 603 00b2 9325     		movs	r5, #147
 604 00b4 02E0     		b	.L29
 605              	.LVL86:
 606              	.L33:
 155:Source\azure_iot_sdk\c-utility\src/uuid.c ****             }
 156:Source\azure_iot_sdk\c-utility\src/uuid.c ****             else
 157:Source\azure_iot_sdk\c-utility\src/uuid.c ****             {
 158:Source\azure_iot_sdk\c-utility\src/uuid.c ****                 // Codes_SRS_UUID_09_006: [ If no failures occur, UUID_generate shall return zero ]
 159:Source\azure_iot_sdk\c-utility\src/uuid.c ****                 result = __SUCCESS__;
 607              		.loc 1 159 0
 608 00b6 0025     		movs	r5, #0
 609              	.LVL87:
 610 00b8 00E0     		b	.L29
 611              	.LVL88:
 612              	.L34:
 154:Source\azure_iot_sdk\c-utility\src/uuid.c ****             }
 613              		.loc 1 154 0
 614 00ba 9A25     		movs	r5, #154
 615              	.LVL89:
 616              	.L29:
 160:Source\azure_iot_sdk\c-utility\src/uuid.c ****             }
 161:Source\azure_iot_sdk\c-utility\src/uuid.c **** 
 162:Source\azure_iot_sdk\c-utility\src/uuid.c ****             free(uuid_string);
 617              		.loc 1 162 0
 618 00bc 2000     		movs	r0, r4
 619 00be FFF7FEFF 		bl	free
 620              	.LVL90:
 621 00c2 02E0     		b	.L26
 622              	.LVL91:
 623              	.L30:
 624              	.LBE15:
 126:Source\azure_iot_sdk\c-utility\src/uuid.c ****     }
 625              		.loc 1 126 0
 626 00c4 7E25     		movs	r5, #126
 627              	.LVL92:
ARM GAS  C:\Users\Phuong\AppData\Local\Temp\ccTKuPn6.s 			page 15


 628 00c6 00E0     		b	.L26
 629              	.LVL93:
 630              	.L31:
 631              	.LBB19:
 136:Source\azure_iot_sdk\c-utility\src/uuid.c ****         }
 632              		.loc 1 136 0
 633 00c8 8825     		movs	r5, #136
 634              	.LVL94:
 635              	.L26:
 636              	.LBE19:
 163:Source\azure_iot_sdk\c-utility\src/uuid.c ****         }
 164:Source\azure_iot_sdk\c-utility\src/uuid.c ****     }
 165:Source\azure_iot_sdk\c-utility\src/uuid.c **** 
 166:Source\azure_iot_sdk\c-utility\src/uuid.c ****     return result;
 167:Source\azure_iot_sdk\c-utility\src/uuid.c **** }
 637              		.loc 1 167 0
 638 00ca 2800     		movs	r0, r5
 639 00cc 03B0     		add	sp, sp, #12
 640              		@ sp needed
 641              	.LVL95:
 642 00ce 30BD     		pop	{r4, r5, pc}
 643              	.L36:
 644              		.align	2
 645              	.L35:
 646 00d0 B0000000 		.word	.LC13
 647 00d4 00000000 		.word	.LANCHOR0
 648 00d8 00000000 		.word	.LC1
 649 00dc D0000000 		.word	.LC15
 650 00e0 54010000 		.word	.LC25
 651 00e4 6C010000 		.word	.LC27
 652              		.cfi_endproc
 653              	.LFE3:
 654              		.size	UUID_generate, .-UUID_generate
 655              		.section	.rodata
 656              		.align	2
 657              		.set	.LANCHOR0,. + 0
 658              		.type	__func__.5879, %object
 659              		.size	__func__.5879, 17
 660              	__func__.5879:
 661 0000 55554944 		.ascii	"UUID_from_string\000"
 661      5F66726F 
 661      6D5F7374 
 661      72696E67 
 661      00
 662 0011 000000   		.space	3
 663              		.type	__func__.5901, %object
 664              		.size	__func__.5901, 15
 665              	__func__.5901:
 666 0014 55554944 		.ascii	"UUID_to_string\000"
 666      5F746F5F 
 666      73747269 
 666      6E6700
 667 0023 00       		.space	1
 668              		.type	__func__.5917, %object
 669              		.size	__func__.5917, 14
 670              	__func__.5917:
 671 0024 55554944 		.ascii	"UUID_generate\000"
ARM GAS  C:\Users\Phuong\AppData\Local\Temp\ccTKuPn6.s 			page 16


 671      5F67656E 
 671      65726174 
 671      6500
 672              		.section	.rodata.str1.4,"aMS",%progbits,1
 673              		.align	2
 674              	.LC1:
 675 0000 536F7572 		.ascii	"Source\\azure_iot_sdk\\c-utility\\src\\uuid.c\000"
 675      63655C61 
 675      7A757265 
 675      5F696F74 
 675      5F73646B 
 676 002a 0000     		.space	2
 677              	.LC3:
 678 002c 496E7661 		.ascii	"Invalid argument (uuid_string=%p, uuid=%p)\000"
 678      6C696420 
 678      61726775 
 678      6D656E74 
 678      20287575 
 679 0057 00       		.space	1
 680              	.LC5:
 681 0058 556E6578 		.ascii	"Unexpected size for an UUID string (%lu)\000"
 681      70656374 
 681      65642073 
 681      697A6520 
 681      666F7220 
 682 0081 000000   		.space	3
 683              	.LC7:
 684 0084 25303268 		.ascii	"%02hhx\000"
 684      687800
 685 008b 00       		.space	1
 686              	.LC9:
 687 008c 4661696C 		.ascii	"Failed decoding UUID string (%lu)\000"
 687      65642064 
 687      65636F64 
 687      696E6720 
 687      55554944 
 688 00ae 0000     		.space	2
 689              	.LC13:
 690 00b0 496E7661 		.ascii	"Invalid argument (uuid is NULL)\000"
 690      6C696420 
 690      61726775 
 690      6D656E74 
 690      20287575 
 691              	.LC15:
 692 00d0 4661696C 		.ascii	"Failed allocating UUID string\000"
 692      65642061 
 692      6C6C6F63 
 692      6174696E 
 692      67205555 
 693 00ee 0000     		.space	2
 694              	.LC17:
 695 00f0 25303278 		.ascii	"%02x%02x%02x%02x-%02x%02x-%02x%02x-%02x%02x-%02x%02"
 695      25303278 
 695      25303278 
 695      25303278 
 695      2D253032 
 696 0123 78253032 		.ascii	"x%02x%02x%02x%02x\000"
ARM GAS  C:\Users\Phuong\AppData\Local\Temp\ccTKuPn6.s 			page 17


 696      78253032 
 696      78253032 
 696      78253032 
 696      7800
 697 0135 000000   		.space	3
 698              	.LC19:
 699 0138 4661696C 		.ascii	"Failed encoding UUID string\000"
 699      65642065 
 699      6E636F64 
 699      696E6720 
 699      55554944 
 700              	.LC25:
 701 0154 4661696C 		.ascii	"Failed generating UUID\000"
 701      65642067 
 701      656E6572 
 701      6174696E 
 701      67205555 
 702 016b 00       		.space	1
 703              	.LC27:
 704 016c 4661696C 		.ascii	"Failed parsing UUID string\000"
 704      65642070 
 704      61727369 
 704      6E672055 
 704      55494420 
 705              		.text
 706              	.Letext0:
 707              		.file 2 "c:\\program files (x86)\\cypress\\psoc creator\\4.2\\psoc creator\\import\\gnu\\arm\\5.4.
 708              		.file 3 ".\\Source\\azure_iot_sdk\\c-utility\\inc/azure_c_shared_utility/uuid.h"
 709              		.file 4 ".\\Source\\azure_iot_sdk\\c-utility\\inc/azure_c_shared_utility/uniqueid.h"
 710              		.file 5 ".\\Source\\azure_iot_sdk\\c-utility\\inc/azure_c_shared_utility/xlogging.h"
 711              		.file 6 "c:\\program files (x86)\\cypress\\psoc creator\\4.2\\psoc creator\\import\\gnu\\arm\\5.4.
 712              		.file 7 "c:\\program files (x86)\\cypress\\psoc creator\\4.2\\psoc creator\\import\\gnu\\arm\\5.4.
 713              		.file 8 "c:\\program files (x86)\\cypress\\psoc creator\\4.2\\psoc creator\\import\\gnu\\arm\\5.4.