ARM GAS  C:\Users\Phuong\AppData\Local\Temp\ccRrQhw7.s 			page 1


   1              		.syntax unified
   2              		.cpu cortex-m0plus
   3              		.fpu softvfp
   4              		.eabi_attribute 20, 1
   5              		.eabi_attribute 21, 1
   6              		.eabi_attribute 23, 3
   7              		.eabi_attribute 24, 1
   8              		.eabi_attribute 25, 1
   9              		.eabi_attribute 26, 1
  10              		.eabi_attribute 30, 1
  11              		.eabi_attribute 34, 0
  12              		.eabi_attribute 18, 4
  13              		.thumb
  14              		.syntax unified
  15              		.file	"version_features.c"
  16              		.text
  17              	.Ltext0:
  18              		.cfi_sections	.debug_frame
  19              		.section	.text.mbedtls_version_check_feature,"ax",%progbits
  20              		.align	2
  21              		.global	mbedtls_version_check_feature
  22              		.code	16
  23              		.thumb_func
  24              		.type	mbedtls_version_check_feature, %function
  25              	mbedtls_version_check_feature:
  26              	.LFB0:
  27              		.file 1 "Source\\mbedtls_open\\library\\version_features.c"
   1:Source\mbedtls_open\library/version_features.c **** /*
   2:Source\mbedtls_open\library/version_features.c ****  *  Version feature information
   3:Source\mbedtls_open\library/version_features.c ****  *
   4:Source\mbedtls_open\library/version_features.c ****  *  Copyright (C) 2006-2015, ARM Limited, All Rights Reserved
   5:Source\mbedtls_open\library/version_features.c ****  *  SPDX-License-Identifier: Apache-2.0
   6:Source\mbedtls_open\library/version_features.c ****  *
   7:Source\mbedtls_open\library/version_features.c ****  *  Licensed under the Apache License, Version 2.0 (the "License"); you may
   8:Source\mbedtls_open\library/version_features.c ****  *  not use this file except in compliance with the License.
   9:Source\mbedtls_open\library/version_features.c ****  *  You may obtain a copy of the License at
  10:Source\mbedtls_open\library/version_features.c ****  *
  11:Source\mbedtls_open\library/version_features.c ****  *  http://www.apache.org/licenses/LICENSE-2.0
  12:Source\mbedtls_open\library/version_features.c ****  *
  13:Source\mbedtls_open\library/version_features.c ****  *  Unless required by applicable law or agreed to in writing, software
  14:Source\mbedtls_open\library/version_features.c ****  *  distributed under the License is distributed on an "AS IS" BASIS, WITHOUT
  15:Source\mbedtls_open\library/version_features.c ****  *  WARRANTIES OR CONDITIONS OF ANY KIND, either express or implied.
  16:Source\mbedtls_open\library/version_features.c ****  *  See the License for the specific language governing permissions and
  17:Source\mbedtls_open\library/version_features.c ****  *  limitations under the License.
  18:Source\mbedtls_open\library/version_features.c ****  *
  19:Source\mbedtls_open\library/version_features.c ****  *  This file is part of mbed TLS (https://tls.mbed.org)
  20:Source\mbedtls_open\library/version_features.c ****  */
  21:Source\mbedtls_open\library/version_features.c **** 
  22:Source\mbedtls_open\library/version_features.c **** #if !defined(MBEDTLS_CONFIG_FILE)
  23:Source\mbedtls_open\library/version_features.c **** #include "mbedtls/config.h"
  24:Source\mbedtls_open\library/version_features.c **** #else
  25:Source\mbedtls_open\library/version_features.c **** #include MBEDTLS_CONFIG_FILE
  26:Source\mbedtls_open\library/version_features.c **** #endif
  27:Source\mbedtls_open\library/version_features.c **** 
  28:Source\mbedtls_open\library/version_features.c **** #if defined(MBEDTLS_VERSION_C)
  29:Source\mbedtls_open\library/version_features.c **** 
  30:Source\mbedtls_open\library/version_features.c **** #include "mbedtls/version.h"
ARM GAS  C:\Users\Phuong\AppData\Local\Temp\ccRrQhw7.s 			page 2


  31:Source\mbedtls_open\library/version_features.c **** 
  32:Source\mbedtls_open\library/version_features.c **** #include <string.h>
  33:Source\mbedtls_open\library/version_features.c **** 
  34:Source\mbedtls_open\library/version_features.c **** static const char *features[] = {
  35:Source\mbedtls_open\library/version_features.c **** #if defined(MBEDTLS_VERSION_FEATURES)
  36:Source\mbedtls_open\library/version_features.c **** #if defined(MBEDTLS_HAVE_ASM)
  37:Source\mbedtls_open\library/version_features.c ****     "MBEDTLS_HAVE_ASM",
  38:Source\mbedtls_open\library/version_features.c **** #endif /* MBEDTLS_HAVE_ASM */
  39:Source\mbedtls_open\library/version_features.c **** #if defined(MBEDTLS_NO_UDBL_DIVISION)
  40:Source\mbedtls_open\library/version_features.c ****     "MBEDTLS_NO_UDBL_DIVISION",
  41:Source\mbedtls_open\library/version_features.c **** #endif /* MBEDTLS_NO_UDBL_DIVISION */
  42:Source\mbedtls_open\library/version_features.c **** #if defined(MBEDTLS_NO_64BIT_MULTIPLICATION)
  43:Source\mbedtls_open\library/version_features.c ****     "MBEDTLS_NO_64BIT_MULTIPLICATION",
  44:Source\mbedtls_open\library/version_features.c **** #endif /* MBEDTLS_NO_64BIT_MULTIPLICATION */
  45:Source\mbedtls_open\library/version_features.c **** #if defined(MBEDTLS_HAVE_SSE2)
  46:Source\mbedtls_open\library/version_features.c ****     "MBEDTLS_HAVE_SSE2",
  47:Source\mbedtls_open\library/version_features.c **** #endif /* MBEDTLS_HAVE_SSE2 */
  48:Source\mbedtls_open\library/version_features.c **** #if defined(MBEDTLS_HAVE_TIME)
  49:Source\mbedtls_open\library/version_features.c ****     "MBEDTLS_HAVE_TIME",
  50:Source\mbedtls_open\library/version_features.c **** #endif /* MBEDTLS_HAVE_TIME */
  51:Source\mbedtls_open\library/version_features.c **** #if defined(MBEDTLS_HAVE_TIME_DATE)
  52:Source\mbedtls_open\library/version_features.c ****     "MBEDTLS_HAVE_TIME_DATE",
  53:Source\mbedtls_open\library/version_features.c **** #endif /* MBEDTLS_HAVE_TIME_DATE */
  54:Source\mbedtls_open\library/version_features.c **** #if defined(MBEDTLS_PLATFORM_MEMORY)
  55:Source\mbedtls_open\library/version_features.c ****     "MBEDTLS_PLATFORM_MEMORY",
  56:Source\mbedtls_open\library/version_features.c **** #endif /* MBEDTLS_PLATFORM_MEMORY */
  57:Source\mbedtls_open\library/version_features.c **** #if defined(MBEDTLS_PLATFORM_NO_STD_FUNCTIONS)
  58:Source\mbedtls_open\library/version_features.c ****     "MBEDTLS_PLATFORM_NO_STD_FUNCTIONS",
  59:Source\mbedtls_open\library/version_features.c **** #endif /* MBEDTLS_PLATFORM_NO_STD_FUNCTIONS */
  60:Source\mbedtls_open\library/version_features.c **** #if defined(MBEDTLS_PLATFORM_EXIT_ALT)
  61:Source\mbedtls_open\library/version_features.c ****     "MBEDTLS_PLATFORM_EXIT_ALT",
  62:Source\mbedtls_open\library/version_features.c **** #endif /* MBEDTLS_PLATFORM_EXIT_ALT */
  63:Source\mbedtls_open\library/version_features.c **** #if defined(MBEDTLS_PLATFORM_TIME_ALT)
  64:Source\mbedtls_open\library/version_features.c ****     "MBEDTLS_PLATFORM_TIME_ALT",
  65:Source\mbedtls_open\library/version_features.c **** #endif /* MBEDTLS_PLATFORM_TIME_ALT */
  66:Source\mbedtls_open\library/version_features.c **** #if defined(MBEDTLS_PLATFORM_FPRINTF_ALT)
  67:Source\mbedtls_open\library/version_features.c ****     "MBEDTLS_PLATFORM_FPRINTF_ALT",
  68:Source\mbedtls_open\library/version_features.c **** #endif /* MBEDTLS_PLATFORM_FPRINTF_ALT */
  69:Source\mbedtls_open\library/version_features.c **** #if defined(MBEDTLS_PLATFORM_PRINTF_ALT)
  70:Source\mbedtls_open\library/version_features.c ****     "MBEDTLS_PLATFORM_PRINTF_ALT",
  71:Source\mbedtls_open\library/version_features.c **** #endif /* MBEDTLS_PLATFORM_PRINTF_ALT */
  72:Source\mbedtls_open\library/version_features.c **** #if defined(MBEDTLS_PLATFORM_SNPRINTF_ALT)
  73:Source\mbedtls_open\library/version_features.c ****     "MBEDTLS_PLATFORM_SNPRINTF_ALT",
  74:Source\mbedtls_open\library/version_features.c **** #endif /* MBEDTLS_PLATFORM_SNPRINTF_ALT */
  75:Source\mbedtls_open\library/version_features.c **** #if defined(MBEDTLS_PLATFORM_NV_SEED_ALT)
  76:Source\mbedtls_open\library/version_features.c ****     "MBEDTLS_PLATFORM_NV_SEED_ALT",
  77:Source\mbedtls_open\library/version_features.c **** #endif /* MBEDTLS_PLATFORM_NV_SEED_ALT */
  78:Source\mbedtls_open\library/version_features.c **** #if defined(MBEDTLS_PLATFORM_SETUP_TEARDOWN_ALT)
  79:Source\mbedtls_open\library/version_features.c ****     "MBEDTLS_PLATFORM_SETUP_TEARDOWN_ALT",
  80:Source\mbedtls_open\library/version_features.c **** #endif /* MBEDTLS_PLATFORM_SETUP_TEARDOWN_ALT */
  81:Source\mbedtls_open\library/version_features.c **** #if defined(MBEDTLS_DEPRECATED_WARNING)
  82:Source\mbedtls_open\library/version_features.c ****     "MBEDTLS_DEPRECATED_WARNING",
  83:Source\mbedtls_open\library/version_features.c **** #endif /* MBEDTLS_DEPRECATED_WARNING */
  84:Source\mbedtls_open\library/version_features.c **** #if defined(MBEDTLS_DEPRECATED_REMOVED)
  85:Source\mbedtls_open\library/version_features.c ****     "MBEDTLS_DEPRECATED_REMOVED",
  86:Source\mbedtls_open\library/version_features.c **** #endif /* MBEDTLS_DEPRECATED_REMOVED */
  87:Source\mbedtls_open\library/version_features.c **** #if defined(MBEDTLS_TIMING_ALT)
ARM GAS  C:\Users\Phuong\AppData\Local\Temp\ccRrQhw7.s 			page 3


  88:Source\mbedtls_open\library/version_features.c ****     "MBEDTLS_TIMING_ALT",
  89:Source\mbedtls_open\library/version_features.c **** #endif /* MBEDTLS_TIMING_ALT */
  90:Source\mbedtls_open\library/version_features.c **** #if defined(MBEDTLS_AES_ALT)
  91:Source\mbedtls_open\library/version_features.c ****     "MBEDTLS_AES_ALT",
  92:Source\mbedtls_open\library/version_features.c **** #endif /* MBEDTLS_AES_ALT */
  93:Source\mbedtls_open\library/version_features.c **** #if defined(MBEDTLS_ARC4_ALT)
  94:Source\mbedtls_open\library/version_features.c ****     "MBEDTLS_ARC4_ALT",
  95:Source\mbedtls_open\library/version_features.c **** #endif /* MBEDTLS_ARC4_ALT */
  96:Source\mbedtls_open\library/version_features.c **** #if defined(MBEDTLS_ARIA_ALT)
  97:Source\mbedtls_open\library/version_features.c ****     "MBEDTLS_ARIA_ALT",
  98:Source\mbedtls_open\library/version_features.c **** #endif /* MBEDTLS_ARIA_ALT */
  99:Source\mbedtls_open\library/version_features.c **** #if defined(MBEDTLS_BLOWFISH_ALT)
 100:Source\mbedtls_open\library/version_features.c ****     "MBEDTLS_BLOWFISH_ALT",
 101:Source\mbedtls_open\library/version_features.c **** #endif /* MBEDTLS_BLOWFISH_ALT */
 102:Source\mbedtls_open\library/version_features.c **** #if defined(MBEDTLS_CAMELLIA_ALT)
 103:Source\mbedtls_open\library/version_features.c ****     "MBEDTLS_CAMELLIA_ALT",
 104:Source\mbedtls_open\library/version_features.c **** #endif /* MBEDTLS_CAMELLIA_ALT */
 105:Source\mbedtls_open\library/version_features.c **** #if defined(MBEDTLS_CCM_ALT)
 106:Source\mbedtls_open\library/version_features.c ****     "MBEDTLS_CCM_ALT",
 107:Source\mbedtls_open\library/version_features.c **** #endif /* MBEDTLS_CCM_ALT */
 108:Source\mbedtls_open\library/version_features.c **** #if defined(MBEDTLS_CHACHA20_ALT)
 109:Source\mbedtls_open\library/version_features.c ****     "MBEDTLS_CHACHA20_ALT",
 110:Source\mbedtls_open\library/version_features.c **** #endif /* MBEDTLS_CHACHA20_ALT */
 111:Source\mbedtls_open\library/version_features.c **** #if defined(MBEDTLS_CHACHAPOLY_ALT)
 112:Source\mbedtls_open\library/version_features.c ****     "MBEDTLS_CHACHAPOLY_ALT",
 113:Source\mbedtls_open\library/version_features.c **** #endif /* MBEDTLS_CHACHAPOLY_ALT */
 114:Source\mbedtls_open\library/version_features.c **** #if defined(MBEDTLS_CMAC_ALT)
 115:Source\mbedtls_open\library/version_features.c ****     "MBEDTLS_CMAC_ALT",
 116:Source\mbedtls_open\library/version_features.c **** #endif /* MBEDTLS_CMAC_ALT */
 117:Source\mbedtls_open\library/version_features.c **** #if defined(MBEDTLS_DES_ALT)
 118:Source\mbedtls_open\library/version_features.c ****     "MBEDTLS_DES_ALT",
 119:Source\mbedtls_open\library/version_features.c **** #endif /* MBEDTLS_DES_ALT */
 120:Source\mbedtls_open\library/version_features.c **** #if defined(MBEDTLS_DHM_ALT)
 121:Source\mbedtls_open\library/version_features.c ****     "MBEDTLS_DHM_ALT",
 122:Source\mbedtls_open\library/version_features.c **** #endif /* MBEDTLS_DHM_ALT */
 123:Source\mbedtls_open\library/version_features.c **** #if defined(MBEDTLS_ECJPAKE_ALT)
 124:Source\mbedtls_open\library/version_features.c ****     "MBEDTLS_ECJPAKE_ALT",
 125:Source\mbedtls_open\library/version_features.c **** #endif /* MBEDTLS_ECJPAKE_ALT */
 126:Source\mbedtls_open\library/version_features.c **** #if defined(MBEDTLS_GCM_ALT)
 127:Source\mbedtls_open\library/version_features.c ****     "MBEDTLS_GCM_ALT",
 128:Source\mbedtls_open\library/version_features.c **** #endif /* MBEDTLS_GCM_ALT */
 129:Source\mbedtls_open\library/version_features.c **** #if defined(MBEDTLS_NIST_KW_ALT)
 130:Source\mbedtls_open\library/version_features.c ****     "MBEDTLS_NIST_KW_ALT",
 131:Source\mbedtls_open\library/version_features.c **** #endif /* MBEDTLS_NIST_KW_ALT */
 132:Source\mbedtls_open\library/version_features.c **** #if defined(MBEDTLS_MD2_ALT)
 133:Source\mbedtls_open\library/version_features.c ****     "MBEDTLS_MD2_ALT",
 134:Source\mbedtls_open\library/version_features.c **** #endif /* MBEDTLS_MD2_ALT */
 135:Source\mbedtls_open\library/version_features.c **** #if defined(MBEDTLS_MD4_ALT)
 136:Source\mbedtls_open\library/version_features.c ****     "MBEDTLS_MD4_ALT",
 137:Source\mbedtls_open\library/version_features.c **** #endif /* MBEDTLS_MD4_ALT */
 138:Source\mbedtls_open\library/version_features.c **** #if defined(MBEDTLS_MD5_ALT)
 139:Source\mbedtls_open\library/version_features.c ****     "MBEDTLS_MD5_ALT",
 140:Source\mbedtls_open\library/version_features.c **** #endif /* MBEDTLS_MD5_ALT */
 141:Source\mbedtls_open\library/version_features.c **** #if defined(MBEDTLS_POLY1305_ALT)
 142:Source\mbedtls_open\library/version_features.c ****     "MBEDTLS_POLY1305_ALT",
 143:Source\mbedtls_open\library/version_features.c **** #endif /* MBEDTLS_POLY1305_ALT */
 144:Source\mbedtls_open\library/version_features.c **** #if defined(MBEDTLS_RIPEMD160_ALT)
ARM GAS  C:\Users\Phuong\AppData\Local\Temp\ccRrQhw7.s 			page 4


 145:Source\mbedtls_open\library/version_features.c ****     "MBEDTLS_RIPEMD160_ALT",
 146:Source\mbedtls_open\library/version_features.c **** #endif /* MBEDTLS_RIPEMD160_ALT */
 147:Source\mbedtls_open\library/version_features.c **** #if defined(MBEDTLS_RSA_ALT)
 148:Source\mbedtls_open\library/version_features.c ****     "MBEDTLS_RSA_ALT",
 149:Source\mbedtls_open\library/version_features.c **** #endif /* MBEDTLS_RSA_ALT */
 150:Source\mbedtls_open\library/version_features.c **** #if defined(MBEDTLS_SHA1_ALT)
 151:Source\mbedtls_open\library/version_features.c ****     "MBEDTLS_SHA1_ALT",
 152:Source\mbedtls_open\library/version_features.c **** #endif /* MBEDTLS_SHA1_ALT */
 153:Source\mbedtls_open\library/version_features.c **** #if defined(MBEDTLS_SHA256_ALT)
 154:Source\mbedtls_open\library/version_features.c ****     "MBEDTLS_SHA256_ALT",
 155:Source\mbedtls_open\library/version_features.c **** #endif /* MBEDTLS_SHA256_ALT */
 156:Source\mbedtls_open\library/version_features.c **** #if defined(MBEDTLS_SHA512_ALT)
 157:Source\mbedtls_open\library/version_features.c ****     "MBEDTLS_SHA512_ALT",
 158:Source\mbedtls_open\library/version_features.c **** #endif /* MBEDTLS_SHA512_ALT */
 159:Source\mbedtls_open\library/version_features.c **** #if defined(MBEDTLS_XTEA_ALT)
 160:Source\mbedtls_open\library/version_features.c ****     "MBEDTLS_XTEA_ALT",
 161:Source\mbedtls_open\library/version_features.c **** #endif /* MBEDTLS_XTEA_ALT */
 162:Source\mbedtls_open\library/version_features.c **** #if defined(MBEDTLS_ECP_ALT)
 163:Source\mbedtls_open\library/version_features.c ****     "MBEDTLS_ECP_ALT",
 164:Source\mbedtls_open\library/version_features.c **** #endif /* MBEDTLS_ECP_ALT */
 165:Source\mbedtls_open\library/version_features.c **** #if defined(MBEDTLS_MD2_PROCESS_ALT)
 166:Source\mbedtls_open\library/version_features.c ****     "MBEDTLS_MD2_PROCESS_ALT",
 167:Source\mbedtls_open\library/version_features.c **** #endif /* MBEDTLS_MD2_PROCESS_ALT */
 168:Source\mbedtls_open\library/version_features.c **** #if defined(MBEDTLS_MD4_PROCESS_ALT)
 169:Source\mbedtls_open\library/version_features.c ****     "MBEDTLS_MD4_PROCESS_ALT",
 170:Source\mbedtls_open\library/version_features.c **** #endif /* MBEDTLS_MD4_PROCESS_ALT */
 171:Source\mbedtls_open\library/version_features.c **** #if defined(MBEDTLS_MD5_PROCESS_ALT)
 172:Source\mbedtls_open\library/version_features.c ****     "MBEDTLS_MD5_PROCESS_ALT",
 173:Source\mbedtls_open\library/version_features.c **** #endif /* MBEDTLS_MD5_PROCESS_ALT */
 174:Source\mbedtls_open\library/version_features.c **** #if defined(MBEDTLS_RIPEMD160_PROCESS_ALT)
 175:Source\mbedtls_open\library/version_features.c ****     "MBEDTLS_RIPEMD160_PROCESS_ALT",
 176:Source\mbedtls_open\library/version_features.c **** #endif /* MBEDTLS_RIPEMD160_PROCESS_ALT */
 177:Source\mbedtls_open\library/version_features.c **** #if defined(MBEDTLS_SHA1_PROCESS_ALT)
 178:Source\mbedtls_open\library/version_features.c ****     "MBEDTLS_SHA1_PROCESS_ALT",
 179:Source\mbedtls_open\library/version_features.c **** #endif /* MBEDTLS_SHA1_PROCESS_ALT */
 180:Source\mbedtls_open\library/version_features.c **** #if defined(MBEDTLS_SHA256_PROCESS_ALT)
 181:Source\mbedtls_open\library/version_features.c ****     "MBEDTLS_SHA256_PROCESS_ALT",
 182:Source\mbedtls_open\library/version_features.c **** #endif /* MBEDTLS_SHA256_PROCESS_ALT */
 183:Source\mbedtls_open\library/version_features.c **** #if defined(MBEDTLS_SHA512_PROCESS_ALT)
 184:Source\mbedtls_open\library/version_features.c ****     "MBEDTLS_SHA512_PROCESS_ALT",
 185:Source\mbedtls_open\library/version_features.c **** #endif /* MBEDTLS_SHA512_PROCESS_ALT */
 186:Source\mbedtls_open\library/version_features.c **** #if defined(MBEDTLS_DES_SETKEY_ALT)
 187:Source\mbedtls_open\library/version_features.c ****     "MBEDTLS_DES_SETKEY_ALT",
 188:Source\mbedtls_open\library/version_features.c **** #endif /* MBEDTLS_DES_SETKEY_ALT */
 189:Source\mbedtls_open\library/version_features.c **** #if defined(MBEDTLS_DES_CRYPT_ECB_ALT)
 190:Source\mbedtls_open\library/version_features.c ****     "MBEDTLS_DES_CRYPT_ECB_ALT",
 191:Source\mbedtls_open\library/version_features.c **** #endif /* MBEDTLS_DES_CRYPT_ECB_ALT */
 192:Source\mbedtls_open\library/version_features.c **** #if defined(MBEDTLS_DES3_CRYPT_ECB_ALT)
 193:Source\mbedtls_open\library/version_features.c ****     "MBEDTLS_DES3_CRYPT_ECB_ALT",
 194:Source\mbedtls_open\library/version_features.c **** #endif /* MBEDTLS_DES3_CRYPT_ECB_ALT */
 195:Source\mbedtls_open\library/version_features.c **** #if defined(MBEDTLS_AES_SETKEY_ENC_ALT)
 196:Source\mbedtls_open\library/version_features.c ****     "MBEDTLS_AES_SETKEY_ENC_ALT",
 197:Source\mbedtls_open\library/version_features.c **** #endif /* MBEDTLS_AES_SETKEY_ENC_ALT */
 198:Source\mbedtls_open\library/version_features.c **** #if defined(MBEDTLS_AES_SETKEY_DEC_ALT)
 199:Source\mbedtls_open\library/version_features.c ****     "MBEDTLS_AES_SETKEY_DEC_ALT",
 200:Source\mbedtls_open\library/version_features.c **** #endif /* MBEDTLS_AES_SETKEY_DEC_ALT */
 201:Source\mbedtls_open\library/version_features.c **** #if defined(MBEDTLS_AES_ENCRYPT_ALT)
ARM GAS  C:\Users\Phuong\AppData\Local\Temp\ccRrQhw7.s 			page 5


 202:Source\mbedtls_open\library/version_features.c ****     "MBEDTLS_AES_ENCRYPT_ALT",
 203:Source\mbedtls_open\library/version_features.c **** #endif /* MBEDTLS_AES_ENCRYPT_ALT */
 204:Source\mbedtls_open\library/version_features.c **** #if defined(MBEDTLS_AES_DECRYPT_ALT)
 205:Source\mbedtls_open\library/version_features.c ****     "MBEDTLS_AES_DECRYPT_ALT",
 206:Source\mbedtls_open\library/version_features.c **** #endif /* MBEDTLS_AES_DECRYPT_ALT */
 207:Source\mbedtls_open\library/version_features.c **** #if defined(MBEDTLS_ECDH_GEN_PUBLIC_ALT)
 208:Source\mbedtls_open\library/version_features.c ****     "MBEDTLS_ECDH_GEN_PUBLIC_ALT",
 209:Source\mbedtls_open\library/version_features.c **** #endif /* MBEDTLS_ECDH_GEN_PUBLIC_ALT */
 210:Source\mbedtls_open\library/version_features.c **** #if defined(MBEDTLS_ECDH_COMPUTE_SHARED_ALT)
 211:Source\mbedtls_open\library/version_features.c ****     "MBEDTLS_ECDH_COMPUTE_SHARED_ALT",
 212:Source\mbedtls_open\library/version_features.c **** #endif /* MBEDTLS_ECDH_COMPUTE_SHARED_ALT */
 213:Source\mbedtls_open\library/version_features.c **** #if defined(MBEDTLS_ECDSA_VERIFY_ALT)
 214:Source\mbedtls_open\library/version_features.c ****     "MBEDTLS_ECDSA_VERIFY_ALT",
 215:Source\mbedtls_open\library/version_features.c **** #endif /* MBEDTLS_ECDSA_VERIFY_ALT */
 216:Source\mbedtls_open\library/version_features.c **** #if defined(MBEDTLS_ECDSA_SIGN_ALT)
 217:Source\mbedtls_open\library/version_features.c ****     "MBEDTLS_ECDSA_SIGN_ALT",
 218:Source\mbedtls_open\library/version_features.c **** #endif /* MBEDTLS_ECDSA_SIGN_ALT */
 219:Source\mbedtls_open\library/version_features.c **** #if defined(MBEDTLS_ECDSA_GENKEY_ALT)
 220:Source\mbedtls_open\library/version_features.c ****     "MBEDTLS_ECDSA_GENKEY_ALT",
 221:Source\mbedtls_open\library/version_features.c **** #endif /* MBEDTLS_ECDSA_GENKEY_ALT */
 222:Source\mbedtls_open\library/version_features.c **** #if defined(MBEDTLS_ECP_INTERNAL_ALT)
 223:Source\mbedtls_open\library/version_features.c ****     "MBEDTLS_ECP_INTERNAL_ALT",
 224:Source\mbedtls_open\library/version_features.c **** #endif /* MBEDTLS_ECP_INTERNAL_ALT */
 225:Source\mbedtls_open\library/version_features.c **** #if defined(MBEDTLS_ECP_RANDOMIZE_JAC_ALT)
 226:Source\mbedtls_open\library/version_features.c ****     "MBEDTLS_ECP_RANDOMIZE_JAC_ALT",
 227:Source\mbedtls_open\library/version_features.c **** #endif /* MBEDTLS_ECP_RANDOMIZE_JAC_ALT */
 228:Source\mbedtls_open\library/version_features.c **** #if defined(MBEDTLS_ECP_ADD_MIXED_ALT)
 229:Source\mbedtls_open\library/version_features.c ****     "MBEDTLS_ECP_ADD_MIXED_ALT",
 230:Source\mbedtls_open\library/version_features.c **** #endif /* MBEDTLS_ECP_ADD_MIXED_ALT */
 231:Source\mbedtls_open\library/version_features.c **** #if defined(MBEDTLS_ECP_DOUBLE_JAC_ALT)
 232:Source\mbedtls_open\library/version_features.c ****     "MBEDTLS_ECP_DOUBLE_JAC_ALT",
 233:Source\mbedtls_open\library/version_features.c **** #endif /* MBEDTLS_ECP_DOUBLE_JAC_ALT */
 234:Source\mbedtls_open\library/version_features.c **** #if defined(MBEDTLS_ECP_NORMALIZE_JAC_MANY_ALT)
 235:Source\mbedtls_open\library/version_features.c ****     "MBEDTLS_ECP_NORMALIZE_JAC_MANY_ALT",
 236:Source\mbedtls_open\library/version_features.c **** #endif /* MBEDTLS_ECP_NORMALIZE_JAC_MANY_ALT */
 237:Source\mbedtls_open\library/version_features.c **** #if defined(MBEDTLS_ECP_NORMALIZE_JAC_ALT)
 238:Source\mbedtls_open\library/version_features.c ****     "MBEDTLS_ECP_NORMALIZE_JAC_ALT",
 239:Source\mbedtls_open\library/version_features.c **** #endif /* MBEDTLS_ECP_NORMALIZE_JAC_ALT */
 240:Source\mbedtls_open\library/version_features.c **** #if defined(MBEDTLS_ECP_DOUBLE_ADD_MXZ_ALT)
 241:Source\mbedtls_open\library/version_features.c ****     "MBEDTLS_ECP_DOUBLE_ADD_MXZ_ALT",
 242:Source\mbedtls_open\library/version_features.c **** #endif /* MBEDTLS_ECP_DOUBLE_ADD_MXZ_ALT */
 243:Source\mbedtls_open\library/version_features.c **** #if defined(MBEDTLS_ECP_RANDOMIZE_MXZ_ALT)
 244:Source\mbedtls_open\library/version_features.c ****     "MBEDTLS_ECP_RANDOMIZE_MXZ_ALT",
 245:Source\mbedtls_open\library/version_features.c **** #endif /* MBEDTLS_ECP_RANDOMIZE_MXZ_ALT */
 246:Source\mbedtls_open\library/version_features.c **** #if defined(MBEDTLS_ECP_NORMALIZE_MXZ_ALT)
 247:Source\mbedtls_open\library/version_features.c ****     "MBEDTLS_ECP_NORMALIZE_MXZ_ALT",
 248:Source\mbedtls_open\library/version_features.c **** #endif /* MBEDTLS_ECP_NORMALIZE_MXZ_ALT */
 249:Source\mbedtls_open\library/version_features.c **** #if defined(MBEDTLS_TEST_NULL_ENTROPY)
 250:Source\mbedtls_open\library/version_features.c ****     "MBEDTLS_TEST_NULL_ENTROPY",
 251:Source\mbedtls_open\library/version_features.c **** #endif /* MBEDTLS_TEST_NULL_ENTROPY */
 252:Source\mbedtls_open\library/version_features.c **** #if defined(MBEDTLS_ENTROPY_HARDWARE_ALT)
 253:Source\mbedtls_open\library/version_features.c ****     "MBEDTLS_ENTROPY_HARDWARE_ALT",
 254:Source\mbedtls_open\library/version_features.c **** #endif /* MBEDTLS_ENTROPY_HARDWARE_ALT */
 255:Source\mbedtls_open\library/version_features.c **** #if defined(MBEDTLS_AES_ROM_TABLES)
 256:Source\mbedtls_open\library/version_features.c ****     "MBEDTLS_AES_ROM_TABLES",
 257:Source\mbedtls_open\library/version_features.c **** #endif /* MBEDTLS_AES_ROM_TABLES */
 258:Source\mbedtls_open\library/version_features.c **** #if defined(MBEDTLS_AES_FEWER_TABLES)
ARM GAS  C:\Users\Phuong\AppData\Local\Temp\ccRrQhw7.s 			page 6


 259:Source\mbedtls_open\library/version_features.c ****     "MBEDTLS_AES_FEWER_TABLES",
 260:Source\mbedtls_open\library/version_features.c **** #endif /* MBEDTLS_AES_FEWER_TABLES */
 261:Source\mbedtls_open\library/version_features.c **** #if defined(MBEDTLS_CAMELLIA_SMALL_MEMORY)
 262:Source\mbedtls_open\library/version_features.c ****     "MBEDTLS_CAMELLIA_SMALL_MEMORY",
 263:Source\mbedtls_open\library/version_features.c **** #endif /* MBEDTLS_CAMELLIA_SMALL_MEMORY */
 264:Source\mbedtls_open\library/version_features.c **** #if defined(MBEDTLS_CIPHER_MODE_CBC)
 265:Source\mbedtls_open\library/version_features.c ****     "MBEDTLS_CIPHER_MODE_CBC",
 266:Source\mbedtls_open\library/version_features.c **** #endif /* MBEDTLS_CIPHER_MODE_CBC */
 267:Source\mbedtls_open\library/version_features.c **** #if defined(MBEDTLS_CIPHER_MODE_CFB)
 268:Source\mbedtls_open\library/version_features.c ****     "MBEDTLS_CIPHER_MODE_CFB",
 269:Source\mbedtls_open\library/version_features.c **** #endif /* MBEDTLS_CIPHER_MODE_CFB */
 270:Source\mbedtls_open\library/version_features.c **** #if defined(MBEDTLS_CIPHER_MODE_CTR)
 271:Source\mbedtls_open\library/version_features.c ****     "MBEDTLS_CIPHER_MODE_CTR",
 272:Source\mbedtls_open\library/version_features.c **** #endif /* MBEDTLS_CIPHER_MODE_CTR */
 273:Source\mbedtls_open\library/version_features.c **** #if defined(MBEDTLS_CIPHER_MODE_OFB)
 274:Source\mbedtls_open\library/version_features.c ****     "MBEDTLS_CIPHER_MODE_OFB",
 275:Source\mbedtls_open\library/version_features.c **** #endif /* MBEDTLS_CIPHER_MODE_OFB */
 276:Source\mbedtls_open\library/version_features.c **** #if defined(MBEDTLS_CIPHER_MODE_XTS)
 277:Source\mbedtls_open\library/version_features.c ****     "MBEDTLS_CIPHER_MODE_XTS",
 278:Source\mbedtls_open\library/version_features.c **** #endif /* MBEDTLS_CIPHER_MODE_XTS */
 279:Source\mbedtls_open\library/version_features.c **** #if defined(MBEDTLS_CIPHER_NULL_CIPHER)
 280:Source\mbedtls_open\library/version_features.c ****     "MBEDTLS_CIPHER_NULL_CIPHER",
 281:Source\mbedtls_open\library/version_features.c **** #endif /* MBEDTLS_CIPHER_NULL_CIPHER */
 282:Source\mbedtls_open\library/version_features.c **** #if defined(MBEDTLS_CIPHER_PADDING_PKCS7)
 283:Source\mbedtls_open\library/version_features.c ****     "MBEDTLS_CIPHER_PADDING_PKCS7",
 284:Source\mbedtls_open\library/version_features.c **** #endif /* MBEDTLS_CIPHER_PADDING_PKCS7 */
 285:Source\mbedtls_open\library/version_features.c **** #if defined(MBEDTLS_CIPHER_PADDING_ONE_AND_ZEROS)
 286:Source\mbedtls_open\library/version_features.c ****     "MBEDTLS_CIPHER_PADDING_ONE_AND_ZEROS",
 287:Source\mbedtls_open\library/version_features.c **** #endif /* MBEDTLS_CIPHER_PADDING_ONE_AND_ZEROS */
 288:Source\mbedtls_open\library/version_features.c **** #if defined(MBEDTLS_CIPHER_PADDING_ZEROS_AND_LEN)
 289:Source\mbedtls_open\library/version_features.c ****     "MBEDTLS_CIPHER_PADDING_ZEROS_AND_LEN",
 290:Source\mbedtls_open\library/version_features.c **** #endif /* MBEDTLS_CIPHER_PADDING_ZEROS_AND_LEN */
 291:Source\mbedtls_open\library/version_features.c **** #if defined(MBEDTLS_CIPHER_PADDING_ZEROS)
 292:Source\mbedtls_open\library/version_features.c ****     "MBEDTLS_CIPHER_PADDING_ZEROS",
 293:Source\mbedtls_open\library/version_features.c **** #endif /* MBEDTLS_CIPHER_PADDING_ZEROS */
 294:Source\mbedtls_open\library/version_features.c **** #if defined(MBEDTLS_ENABLE_WEAK_CIPHERSUITES)
 295:Source\mbedtls_open\library/version_features.c ****     "MBEDTLS_ENABLE_WEAK_CIPHERSUITES",
 296:Source\mbedtls_open\library/version_features.c **** #endif /* MBEDTLS_ENABLE_WEAK_CIPHERSUITES */
 297:Source\mbedtls_open\library/version_features.c **** #if defined(MBEDTLS_REMOVE_ARC4_CIPHERSUITES)
 298:Source\mbedtls_open\library/version_features.c ****     "MBEDTLS_REMOVE_ARC4_CIPHERSUITES",
 299:Source\mbedtls_open\library/version_features.c **** #endif /* MBEDTLS_REMOVE_ARC4_CIPHERSUITES */
 300:Source\mbedtls_open\library/version_features.c **** #if defined(MBEDTLS_ECP_DP_SECP192R1_ENABLED)
 301:Source\mbedtls_open\library/version_features.c ****     "MBEDTLS_ECP_DP_SECP192R1_ENABLED",
 302:Source\mbedtls_open\library/version_features.c **** #endif /* MBEDTLS_ECP_DP_SECP192R1_ENABLED */
 303:Source\mbedtls_open\library/version_features.c **** #if defined(MBEDTLS_ECP_DP_SECP224R1_ENABLED)
 304:Source\mbedtls_open\library/version_features.c ****     "MBEDTLS_ECP_DP_SECP224R1_ENABLED",
 305:Source\mbedtls_open\library/version_features.c **** #endif /* MBEDTLS_ECP_DP_SECP224R1_ENABLED */
 306:Source\mbedtls_open\library/version_features.c **** #if defined(MBEDTLS_ECP_DP_SECP256R1_ENABLED)
 307:Source\mbedtls_open\library/version_features.c ****     "MBEDTLS_ECP_DP_SECP256R1_ENABLED",
 308:Source\mbedtls_open\library/version_features.c **** #endif /* MBEDTLS_ECP_DP_SECP256R1_ENABLED */
 309:Source\mbedtls_open\library/version_features.c **** #if defined(MBEDTLS_ECP_DP_SECP384R1_ENABLED)
 310:Source\mbedtls_open\library/version_features.c ****     "MBEDTLS_ECP_DP_SECP384R1_ENABLED",
 311:Source\mbedtls_open\library/version_features.c **** #endif /* MBEDTLS_ECP_DP_SECP384R1_ENABLED */
 312:Source\mbedtls_open\library/version_features.c **** #if defined(MBEDTLS_ECP_DP_SECP521R1_ENABLED)
 313:Source\mbedtls_open\library/version_features.c ****     "MBEDTLS_ECP_DP_SECP521R1_ENABLED",
 314:Source\mbedtls_open\library/version_features.c **** #endif /* MBEDTLS_ECP_DP_SECP521R1_ENABLED */
 315:Source\mbedtls_open\library/version_features.c **** #if defined(MBEDTLS_ECP_DP_SECP192K1_ENABLED)
ARM GAS  C:\Users\Phuong\AppData\Local\Temp\ccRrQhw7.s 			page 7


 316:Source\mbedtls_open\library/version_features.c ****     "MBEDTLS_ECP_DP_SECP192K1_ENABLED",
 317:Source\mbedtls_open\library/version_features.c **** #endif /* MBEDTLS_ECP_DP_SECP192K1_ENABLED */
 318:Source\mbedtls_open\library/version_features.c **** #if defined(MBEDTLS_ECP_DP_SECP224K1_ENABLED)
 319:Source\mbedtls_open\library/version_features.c ****     "MBEDTLS_ECP_DP_SECP224K1_ENABLED",
 320:Source\mbedtls_open\library/version_features.c **** #endif /* MBEDTLS_ECP_DP_SECP224K1_ENABLED */
 321:Source\mbedtls_open\library/version_features.c **** #if defined(MBEDTLS_ECP_DP_SECP256K1_ENABLED)
 322:Source\mbedtls_open\library/version_features.c ****     "MBEDTLS_ECP_DP_SECP256K1_ENABLED",
 323:Source\mbedtls_open\library/version_features.c **** #endif /* MBEDTLS_ECP_DP_SECP256K1_ENABLED */
 324:Source\mbedtls_open\library/version_features.c **** #if defined(MBEDTLS_ECP_DP_BP256R1_ENABLED)
 325:Source\mbedtls_open\library/version_features.c ****     "MBEDTLS_ECP_DP_BP256R1_ENABLED",
 326:Source\mbedtls_open\library/version_features.c **** #endif /* MBEDTLS_ECP_DP_BP256R1_ENABLED */
 327:Source\mbedtls_open\library/version_features.c **** #if defined(MBEDTLS_ECP_DP_BP384R1_ENABLED)
 328:Source\mbedtls_open\library/version_features.c ****     "MBEDTLS_ECP_DP_BP384R1_ENABLED",
 329:Source\mbedtls_open\library/version_features.c **** #endif /* MBEDTLS_ECP_DP_BP384R1_ENABLED */
 330:Source\mbedtls_open\library/version_features.c **** #if defined(MBEDTLS_ECP_DP_BP512R1_ENABLED)
 331:Source\mbedtls_open\library/version_features.c ****     "MBEDTLS_ECP_DP_BP512R1_ENABLED",
 332:Source\mbedtls_open\library/version_features.c **** #endif /* MBEDTLS_ECP_DP_BP512R1_ENABLED */
 333:Source\mbedtls_open\library/version_features.c **** #if defined(MBEDTLS_ECP_DP_CURVE25519_ENABLED)
 334:Source\mbedtls_open\library/version_features.c ****     "MBEDTLS_ECP_DP_CURVE25519_ENABLED",
 335:Source\mbedtls_open\library/version_features.c **** #endif /* MBEDTLS_ECP_DP_CURVE25519_ENABLED */
 336:Source\mbedtls_open\library/version_features.c **** #if defined(MBEDTLS_ECP_DP_CURVE448_ENABLED)
 337:Source\mbedtls_open\library/version_features.c ****     "MBEDTLS_ECP_DP_CURVE448_ENABLED",
 338:Source\mbedtls_open\library/version_features.c **** #endif /* MBEDTLS_ECP_DP_CURVE448_ENABLED */
 339:Source\mbedtls_open\library/version_features.c **** #if defined(MBEDTLS_ECP_NIST_OPTIM)
 340:Source\mbedtls_open\library/version_features.c ****     "MBEDTLS_ECP_NIST_OPTIM",
 341:Source\mbedtls_open\library/version_features.c **** #endif /* MBEDTLS_ECP_NIST_OPTIM */
 342:Source\mbedtls_open\library/version_features.c **** #if defined(MBEDTLS_ECP_RESTARTABLE)
 343:Source\mbedtls_open\library/version_features.c ****     "MBEDTLS_ECP_RESTARTABLE",
 344:Source\mbedtls_open\library/version_features.c **** #endif /* MBEDTLS_ECP_RESTARTABLE */
 345:Source\mbedtls_open\library/version_features.c **** #if defined(MBEDTLS_ECDSA_DETERMINISTIC)
 346:Source\mbedtls_open\library/version_features.c ****     "MBEDTLS_ECDSA_DETERMINISTIC",
 347:Source\mbedtls_open\library/version_features.c **** #endif /* MBEDTLS_ECDSA_DETERMINISTIC */
 348:Source\mbedtls_open\library/version_features.c **** #if defined(MBEDTLS_KEY_EXCHANGE_PSK_ENABLED)
 349:Source\mbedtls_open\library/version_features.c ****     "MBEDTLS_KEY_EXCHANGE_PSK_ENABLED",
 350:Source\mbedtls_open\library/version_features.c **** #endif /* MBEDTLS_KEY_EXCHANGE_PSK_ENABLED */
 351:Source\mbedtls_open\library/version_features.c **** #if defined(MBEDTLS_KEY_EXCHANGE_DHE_PSK_ENABLED)
 352:Source\mbedtls_open\library/version_features.c ****     "MBEDTLS_KEY_EXCHANGE_DHE_PSK_ENABLED",
 353:Source\mbedtls_open\library/version_features.c **** #endif /* MBEDTLS_KEY_EXCHANGE_DHE_PSK_ENABLED */
 354:Source\mbedtls_open\library/version_features.c **** #if defined(MBEDTLS_KEY_EXCHANGE_ECDHE_PSK_ENABLED)
 355:Source\mbedtls_open\library/version_features.c ****     "MBEDTLS_KEY_EXCHANGE_ECDHE_PSK_ENABLED",
 356:Source\mbedtls_open\library/version_features.c **** #endif /* MBEDTLS_KEY_EXCHANGE_ECDHE_PSK_ENABLED */
 357:Source\mbedtls_open\library/version_features.c **** #if defined(MBEDTLS_KEY_EXCHANGE_RSA_PSK_ENABLED)
 358:Source\mbedtls_open\library/version_features.c ****     "MBEDTLS_KEY_EXCHANGE_RSA_PSK_ENABLED",
 359:Source\mbedtls_open\library/version_features.c **** #endif /* MBEDTLS_KEY_EXCHANGE_RSA_PSK_ENABLED */
 360:Source\mbedtls_open\library/version_features.c **** #if defined(MBEDTLS_KEY_EXCHANGE_RSA_ENABLED)
 361:Source\mbedtls_open\library/version_features.c ****     "MBEDTLS_KEY_EXCHANGE_RSA_ENABLED",
 362:Source\mbedtls_open\library/version_features.c **** #endif /* MBEDTLS_KEY_EXCHANGE_RSA_ENABLED */
 363:Source\mbedtls_open\library/version_features.c **** #if defined(MBEDTLS_KEY_EXCHANGE_DHE_RSA_ENABLED)
 364:Source\mbedtls_open\library/version_features.c ****     "MBEDTLS_KEY_EXCHANGE_DHE_RSA_ENABLED",
 365:Source\mbedtls_open\library/version_features.c **** #endif /* MBEDTLS_KEY_EXCHANGE_DHE_RSA_ENABLED */
 366:Source\mbedtls_open\library/version_features.c **** #if defined(MBEDTLS_KEY_EXCHANGE_ECDHE_RSA_ENABLED)
 367:Source\mbedtls_open\library/version_features.c ****     "MBEDTLS_KEY_EXCHANGE_ECDHE_RSA_ENABLED",
 368:Source\mbedtls_open\library/version_features.c **** #endif /* MBEDTLS_KEY_EXCHANGE_ECDHE_RSA_ENABLED */
 369:Source\mbedtls_open\library/version_features.c **** #if defined(MBEDTLS_KEY_EXCHANGE_ECDHE_ECDSA_ENABLED)
 370:Source\mbedtls_open\library/version_features.c ****     "MBEDTLS_KEY_EXCHANGE_ECDHE_ECDSA_ENABLED",
 371:Source\mbedtls_open\library/version_features.c **** #endif /* MBEDTLS_KEY_EXCHANGE_ECDHE_ECDSA_ENABLED */
 372:Source\mbedtls_open\library/version_features.c **** #if defined(MBEDTLS_KEY_EXCHANGE_ECDH_ECDSA_ENABLED)
ARM GAS  C:\Users\Phuong\AppData\Local\Temp\ccRrQhw7.s 			page 8


 373:Source\mbedtls_open\library/version_features.c ****     "MBEDTLS_KEY_EXCHANGE_ECDH_ECDSA_ENABLED",
 374:Source\mbedtls_open\library/version_features.c **** #endif /* MBEDTLS_KEY_EXCHANGE_ECDH_ECDSA_ENABLED */
 375:Source\mbedtls_open\library/version_features.c **** #if defined(MBEDTLS_KEY_EXCHANGE_ECDH_RSA_ENABLED)
 376:Source\mbedtls_open\library/version_features.c ****     "MBEDTLS_KEY_EXCHANGE_ECDH_RSA_ENABLED",
 377:Source\mbedtls_open\library/version_features.c **** #endif /* MBEDTLS_KEY_EXCHANGE_ECDH_RSA_ENABLED */
 378:Source\mbedtls_open\library/version_features.c **** #if defined(MBEDTLS_KEY_EXCHANGE_ECJPAKE_ENABLED)
 379:Source\mbedtls_open\library/version_features.c ****     "MBEDTLS_KEY_EXCHANGE_ECJPAKE_ENABLED",
 380:Source\mbedtls_open\library/version_features.c **** #endif /* MBEDTLS_KEY_EXCHANGE_ECJPAKE_ENABLED */
 381:Source\mbedtls_open\library/version_features.c **** #if defined(MBEDTLS_PK_PARSE_EC_EXTENDED)
 382:Source\mbedtls_open\library/version_features.c ****     "MBEDTLS_PK_PARSE_EC_EXTENDED",
 383:Source\mbedtls_open\library/version_features.c **** #endif /* MBEDTLS_PK_PARSE_EC_EXTENDED */
 384:Source\mbedtls_open\library/version_features.c **** #if defined(MBEDTLS_ERROR_STRERROR_DUMMY)
 385:Source\mbedtls_open\library/version_features.c ****     "MBEDTLS_ERROR_STRERROR_DUMMY",
 386:Source\mbedtls_open\library/version_features.c **** #endif /* MBEDTLS_ERROR_STRERROR_DUMMY */
 387:Source\mbedtls_open\library/version_features.c **** #if defined(MBEDTLS_GENPRIME)
 388:Source\mbedtls_open\library/version_features.c ****     "MBEDTLS_GENPRIME",
 389:Source\mbedtls_open\library/version_features.c **** #endif /* MBEDTLS_GENPRIME */
 390:Source\mbedtls_open\library/version_features.c **** #if defined(MBEDTLS_FS_IO)
 391:Source\mbedtls_open\library/version_features.c ****     "MBEDTLS_FS_IO",
 392:Source\mbedtls_open\library/version_features.c **** #endif /* MBEDTLS_FS_IO */
 393:Source\mbedtls_open\library/version_features.c **** #if defined(MBEDTLS_NO_DEFAULT_ENTROPY_SOURCES)
 394:Source\mbedtls_open\library/version_features.c ****     "MBEDTLS_NO_DEFAULT_ENTROPY_SOURCES",
 395:Source\mbedtls_open\library/version_features.c **** #endif /* MBEDTLS_NO_DEFAULT_ENTROPY_SOURCES */
 396:Source\mbedtls_open\library/version_features.c **** #if defined(MBEDTLS_NO_PLATFORM_ENTROPY)
 397:Source\mbedtls_open\library/version_features.c ****     "MBEDTLS_NO_PLATFORM_ENTROPY",
 398:Source\mbedtls_open\library/version_features.c **** #endif /* MBEDTLS_NO_PLATFORM_ENTROPY */
 399:Source\mbedtls_open\library/version_features.c **** #if defined(MBEDTLS_ENTROPY_FORCE_SHA256)
 400:Source\mbedtls_open\library/version_features.c ****     "MBEDTLS_ENTROPY_FORCE_SHA256",
 401:Source\mbedtls_open\library/version_features.c **** #endif /* MBEDTLS_ENTROPY_FORCE_SHA256 */
 402:Source\mbedtls_open\library/version_features.c **** #if defined(MBEDTLS_ENTROPY_NV_SEED)
 403:Source\mbedtls_open\library/version_features.c ****     "MBEDTLS_ENTROPY_NV_SEED",
 404:Source\mbedtls_open\library/version_features.c **** #endif /* MBEDTLS_ENTROPY_NV_SEED */
 405:Source\mbedtls_open\library/version_features.c **** #if defined(MBEDTLS_MEMORY_DEBUG)
 406:Source\mbedtls_open\library/version_features.c ****     "MBEDTLS_MEMORY_DEBUG",
 407:Source\mbedtls_open\library/version_features.c **** #endif /* MBEDTLS_MEMORY_DEBUG */
 408:Source\mbedtls_open\library/version_features.c **** #if defined(MBEDTLS_MEMORY_BACKTRACE)
 409:Source\mbedtls_open\library/version_features.c ****     "MBEDTLS_MEMORY_BACKTRACE",
 410:Source\mbedtls_open\library/version_features.c **** #endif /* MBEDTLS_MEMORY_BACKTRACE */
 411:Source\mbedtls_open\library/version_features.c **** #if defined(MBEDTLS_PK_RSA_ALT_SUPPORT)
 412:Source\mbedtls_open\library/version_features.c ****     "MBEDTLS_PK_RSA_ALT_SUPPORT",
 413:Source\mbedtls_open\library/version_features.c **** #endif /* MBEDTLS_PK_RSA_ALT_SUPPORT */
 414:Source\mbedtls_open\library/version_features.c **** #if defined(MBEDTLS_PKCS1_V15)
 415:Source\mbedtls_open\library/version_features.c ****     "MBEDTLS_PKCS1_V15",
 416:Source\mbedtls_open\library/version_features.c **** #endif /* MBEDTLS_PKCS1_V15 */
 417:Source\mbedtls_open\library/version_features.c **** #if defined(MBEDTLS_PKCS1_V21)
 418:Source\mbedtls_open\library/version_features.c ****     "MBEDTLS_PKCS1_V21",
 419:Source\mbedtls_open\library/version_features.c **** #endif /* MBEDTLS_PKCS1_V21 */
 420:Source\mbedtls_open\library/version_features.c **** #if defined(MBEDTLS_RSA_NO_CRT)
 421:Source\mbedtls_open\library/version_features.c ****     "MBEDTLS_RSA_NO_CRT",
 422:Source\mbedtls_open\library/version_features.c **** #endif /* MBEDTLS_RSA_NO_CRT */
 423:Source\mbedtls_open\library/version_features.c **** #if defined(MBEDTLS_SELF_TEST)
 424:Source\mbedtls_open\library/version_features.c ****     "MBEDTLS_SELF_TEST",
 425:Source\mbedtls_open\library/version_features.c **** #endif /* MBEDTLS_SELF_TEST */
 426:Source\mbedtls_open\library/version_features.c **** #if defined(MBEDTLS_SHA256_SMALLER)
 427:Source\mbedtls_open\library/version_features.c ****     "MBEDTLS_SHA256_SMALLER",
 428:Source\mbedtls_open\library/version_features.c **** #endif /* MBEDTLS_SHA256_SMALLER */
 429:Source\mbedtls_open\library/version_features.c **** #if defined(MBEDTLS_SSL_ALL_ALERT_MESSAGES)
ARM GAS  C:\Users\Phuong\AppData\Local\Temp\ccRrQhw7.s 			page 9


 430:Source\mbedtls_open\library/version_features.c ****     "MBEDTLS_SSL_ALL_ALERT_MESSAGES",
 431:Source\mbedtls_open\library/version_features.c **** #endif /* MBEDTLS_SSL_ALL_ALERT_MESSAGES */
 432:Source\mbedtls_open\library/version_features.c **** #if defined(MBEDTLS_SSL_ASYNC_PRIVATE)
 433:Source\mbedtls_open\library/version_features.c ****     "MBEDTLS_SSL_ASYNC_PRIVATE",
 434:Source\mbedtls_open\library/version_features.c **** #endif /* MBEDTLS_SSL_ASYNC_PRIVATE */
 435:Source\mbedtls_open\library/version_features.c **** #if defined(MBEDTLS_SSL_DEBUG_ALL)
 436:Source\mbedtls_open\library/version_features.c ****     "MBEDTLS_SSL_DEBUG_ALL",
 437:Source\mbedtls_open\library/version_features.c **** #endif /* MBEDTLS_SSL_DEBUG_ALL */
 438:Source\mbedtls_open\library/version_features.c **** #if defined(MBEDTLS_SSL_ENCRYPT_THEN_MAC)
 439:Source\mbedtls_open\library/version_features.c ****     "MBEDTLS_SSL_ENCRYPT_THEN_MAC",
 440:Source\mbedtls_open\library/version_features.c **** #endif /* MBEDTLS_SSL_ENCRYPT_THEN_MAC */
 441:Source\mbedtls_open\library/version_features.c **** #if defined(MBEDTLS_SSL_EXTENDED_MASTER_SECRET)
 442:Source\mbedtls_open\library/version_features.c ****     "MBEDTLS_SSL_EXTENDED_MASTER_SECRET",
 443:Source\mbedtls_open\library/version_features.c **** #endif /* MBEDTLS_SSL_EXTENDED_MASTER_SECRET */
 444:Source\mbedtls_open\library/version_features.c **** #if defined(MBEDTLS_SSL_FALLBACK_SCSV)
 445:Source\mbedtls_open\library/version_features.c ****     "MBEDTLS_SSL_FALLBACK_SCSV",
 446:Source\mbedtls_open\library/version_features.c **** #endif /* MBEDTLS_SSL_FALLBACK_SCSV */
 447:Source\mbedtls_open\library/version_features.c **** #if defined(MBEDTLS_SSL_HW_RECORD_ACCEL)
 448:Source\mbedtls_open\library/version_features.c ****     "MBEDTLS_SSL_HW_RECORD_ACCEL",
 449:Source\mbedtls_open\library/version_features.c **** #endif /* MBEDTLS_SSL_HW_RECORD_ACCEL */
 450:Source\mbedtls_open\library/version_features.c **** #if defined(MBEDTLS_SSL_CBC_RECORD_SPLITTING)
 451:Source\mbedtls_open\library/version_features.c ****     "MBEDTLS_SSL_CBC_RECORD_SPLITTING",
 452:Source\mbedtls_open\library/version_features.c **** #endif /* MBEDTLS_SSL_CBC_RECORD_SPLITTING */
 453:Source\mbedtls_open\library/version_features.c **** #if defined(MBEDTLS_SSL_RENEGOTIATION)
 454:Source\mbedtls_open\library/version_features.c ****     "MBEDTLS_SSL_RENEGOTIATION",
 455:Source\mbedtls_open\library/version_features.c **** #endif /* MBEDTLS_SSL_RENEGOTIATION */
 456:Source\mbedtls_open\library/version_features.c **** #if defined(MBEDTLS_SSL_SRV_SUPPORT_SSLV2_CLIENT_HELLO)
 457:Source\mbedtls_open\library/version_features.c ****     "MBEDTLS_SSL_SRV_SUPPORT_SSLV2_CLIENT_HELLO",
 458:Source\mbedtls_open\library/version_features.c **** #endif /* MBEDTLS_SSL_SRV_SUPPORT_SSLV2_CLIENT_HELLO */
 459:Source\mbedtls_open\library/version_features.c **** #if defined(MBEDTLS_SSL_SRV_RESPECT_CLIENT_PREFERENCE)
 460:Source\mbedtls_open\library/version_features.c ****     "MBEDTLS_SSL_SRV_RESPECT_CLIENT_PREFERENCE",
 461:Source\mbedtls_open\library/version_features.c **** #endif /* MBEDTLS_SSL_SRV_RESPECT_CLIENT_PREFERENCE */
 462:Source\mbedtls_open\library/version_features.c **** #if defined(MBEDTLS_SSL_MAX_FRAGMENT_LENGTH)
 463:Source\mbedtls_open\library/version_features.c ****     "MBEDTLS_SSL_MAX_FRAGMENT_LENGTH",
 464:Source\mbedtls_open\library/version_features.c **** #endif /* MBEDTLS_SSL_MAX_FRAGMENT_LENGTH */
 465:Source\mbedtls_open\library/version_features.c **** #if defined(MBEDTLS_SSL_PROTO_SSL3)
 466:Source\mbedtls_open\library/version_features.c ****     "MBEDTLS_SSL_PROTO_SSL3",
 467:Source\mbedtls_open\library/version_features.c **** #endif /* MBEDTLS_SSL_PROTO_SSL3 */
 468:Source\mbedtls_open\library/version_features.c **** #if defined(MBEDTLS_SSL_PROTO_TLS1)
 469:Source\mbedtls_open\library/version_features.c ****     "MBEDTLS_SSL_PROTO_TLS1",
 470:Source\mbedtls_open\library/version_features.c **** #endif /* MBEDTLS_SSL_PROTO_TLS1 */
 471:Source\mbedtls_open\library/version_features.c **** #if defined(MBEDTLS_SSL_PROTO_TLS1_1)
 472:Source\mbedtls_open\library/version_features.c ****     "MBEDTLS_SSL_PROTO_TLS1_1",
 473:Source\mbedtls_open\library/version_features.c **** #endif /* MBEDTLS_SSL_PROTO_TLS1_1 */
 474:Source\mbedtls_open\library/version_features.c **** #if defined(MBEDTLS_SSL_PROTO_TLS1_2)
 475:Source\mbedtls_open\library/version_features.c ****     "MBEDTLS_SSL_PROTO_TLS1_2",
 476:Source\mbedtls_open\library/version_features.c **** #endif /* MBEDTLS_SSL_PROTO_TLS1_2 */
 477:Source\mbedtls_open\library/version_features.c **** #if defined(MBEDTLS_SSL_PROTO_DTLS)
 478:Source\mbedtls_open\library/version_features.c ****     "MBEDTLS_SSL_PROTO_DTLS",
 479:Source\mbedtls_open\library/version_features.c **** #endif /* MBEDTLS_SSL_PROTO_DTLS */
 480:Source\mbedtls_open\library/version_features.c **** #if defined(MBEDTLS_SSL_ALPN)
 481:Source\mbedtls_open\library/version_features.c ****     "MBEDTLS_SSL_ALPN",
 482:Source\mbedtls_open\library/version_features.c **** #endif /* MBEDTLS_SSL_ALPN */
 483:Source\mbedtls_open\library/version_features.c **** #if defined(MBEDTLS_SSL_DTLS_ANTI_REPLAY)
 484:Source\mbedtls_open\library/version_features.c ****     "MBEDTLS_SSL_DTLS_ANTI_REPLAY",
 485:Source\mbedtls_open\library/version_features.c **** #endif /* MBEDTLS_SSL_DTLS_ANTI_REPLAY */
 486:Source\mbedtls_open\library/version_features.c **** #if defined(MBEDTLS_SSL_DTLS_HELLO_VERIFY)
ARM GAS  C:\Users\Phuong\AppData\Local\Temp\ccRrQhw7.s 			page 10


 487:Source\mbedtls_open\library/version_features.c ****     "MBEDTLS_SSL_DTLS_HELLO_VERIFY",
 488:Source\mbedtls_open\library/version_features.c **** #endif /* MBEDTLS_SSL_DTLS_HELLO_VERIFY */
 489:Source\mbedtls_open\library/version_features.c **** #if defined(MBEDTLS_SSL_DTLS_CLIENT_PORT_REUSE)
 490:Source\mbedtls_open\library/version_features.c ****     "MBEDTLS_SSL_DTLS_CLIENT_PORT_REUSE",
 491:Source\mbedtls_open\library/version_features.c **** #endif /* MBEDTLS_SSL_DTLS_CLIENT_PORT_REUSE */
 492:Source\mbedtls_open\library/version_features.c **** #if defined(MBEDTLS_SSL_DTLS_BADMAC_LIMIT)
 493:Source\mbedtls_open\library/version_features.c ****     "MBEDTLS_SSL_DTLS_BADMAC_LIMIT",
 494:Source\mbedtls_open\library/version_features.c **** #endif /* MBEDTLS_SSL_DTLS_BADMAC_LIMIT */
 495:Source\mbedtls_open\library/version_features.c **** #if defined(MBEDTLS_SSL_SESSION_TICKETS)
 496:Source\mbedtls_open\library/version_features.c ****     "MBEDTLS_SSL_SESSION_TICKETS",
 497:Source\mbedtls_open\library/version_features.c **** #endif /* MBEDTLS_SSL_SESSION_TICKETS */
 498:Source\mbedtls_open\library/version_features.c **** #if defined(MBEDTLS_SSL_EXPORT_KEYS)
 499:Source\mbedtls_open\library/version_features.c ****     "MBEDTLS_SSL_EXPORT_KEYS",
 500:Source\mbedtls_open\library/version_features.c **** #endif /* MBEDTLS_SSL_EXPORT_KEYS */
 501:Source\mbedtls_open\library/version_features.c **** #if defined(MBEDTLS_SSL_SERVER_NAME_INDICATION)
 502:Source\mbedtls_open\library/version_features.c ****     "MBEDTLS_SSL_SERVER_NAME_INDICATION",
 503:Source\mbedtls_open\library/version_features.c **** #endif /* MBEDTLS_SSL_SERVER_NAME_INDICATION */
 504:Source\mbedtls_open\library/version_features.c **** #if defined(MBEDTLS_SSL_TRUNCATED_HMAC)
 505:Source\mbedtls_open\library/version_features.c ****     "MBEDTLS_SSL_TRUNCATED_HMAC",
 506:Source\mbedtls_open\library/version_features.c **** #endif /* MBEDTLS_SSL_TRUNCATED_HMAC */
 507:Source\mbedtls_open\library/version_features.c **** #if defined(MBEDTLS_SSL_TRUNCATED_HMAC_COMPAT)
 508:Source\mbedtls_open\library/version_features.c ****     "MBEDTLS_SSL_TRUNCATED_HMAC_COMPAT",
 509:Source\mbedtls_open\library/version_features.c **** #endif /* MBEDTLS_SSL_TRUNCATED_HMAC_COMPAT */
 510:Source\mbedtls_open\library/version_features.c **** #if defined(MBEDTLS_THREADING_ALT)
 511:Source\mbedtls_open\library/version_features.c ****     "MBEDTLS_THREADING_ALT",
 512:Source\mbedtls_open\library/version_features.c **** #endif /* MBEDTLS_THREADING_ALT */
 513:Source\mbedtls_open\library/version_features.c **** #if defined(MBEDTLS_THREADING_PTHREAD)
 514:Source\mbedtls_open\library/version_features.c ****     "MBEDTLS_THREADING_PTHREAD",
 515:Source\mbedtls_open\library/version_features.c **** #endif /* MBEDTLS_THREADING_PTHREAD */
 516:Source\mbedtls_open\library/version_features.c **** #if defined(MBEDTLS_VERSION_FEATURES)
 517:Source\mbedtls_open\library/version_features.c ****     "MBEDTLS_VERSION_FEATURES",
 518:Source\mbedtls_open\library/version_features.c **** #endif /* MBEDTLS_VERSION_FEATURES */
 519:Source\mbedtls_open\library/version_features.c **** #if defined(MBEDTLS_X509_ALLOW_EXTENSIONS_NON_V3)
 520:Source\mbedtls_open\library/version_features.c ****     "MBEDTLS_X509_ALLOW_EXTENSIONS_NON_V3",
 521:Source\mbedtls_open\library/version_features.c **** #endif /* MBEDTLS_X509_ALLOW_EXTENSIONS_NON_V3 */
 522:Source\mbedtls_open\library/version_features.c **** #if defined(MBEDTLS_X509_ALLOW_UNSUPPORTED_CRITICAL_EXTENSION)
 523:Source\mbedtls_open\library/version_features.c ****     "MBEDTLS_X509_ALLOW_UNSUPPORTED_CRITICAL_EXTENSION",
 524:Source\mbedtls_open\library/version_features.c **** #endif /* MBEDTLS_X509_ALLOW_UNSUPPORTED_CRITICAL_EXTENSION */
 525:Source\mbedtls_open\library/version_features.c **** #if defined(MBEDTLS_X509_CHECK_KEY_USAGE)
 526:Source\mbedtls_open\library/version_features.c ****     "MBEDTLS_X509_CHECK_KEY_USAGE",
 527:Source\mbedtls_open\library/version_features.c **** #endif /* MBEDTLS_X509_CHECK_KEY_USAGE */
 528:Source\mbedtls_open\library/version_features.c **** #if defined(MBEDTLS_X509_CHECK_EXTENDED_KEY_USAGE)
 529:Source\mbedtls_open\library/version_features.c ****     "MBEDTLS_X509_CHECK_EXTENDED_KEY_USAGE",
 530:Source\mbedtls_open\library/version_features.c **** #endif /* MBEDTLS_X509_CHECK_EXTENDED_KEY_USAGE */
 531:Source\mbedtls_open\library/version_features.c **** #if defined(MBEDTLS_X509_RSASSA_PSS_SUPPORT)
 532:Source\mbedtls_open\library/version_features.c ****     "MBEDTLS_X509_RSASSA_PSS_SUPPORT",
 533:Source\mbedtls_open\library/version_features.c **** #endif /* MBEDTLS_X509_RSASSA_PSS_SUPPORT */
 534:Source\mbedtls_open\library/version_features.c **** #if defined(MBEDTLS_ZLIB_SUPPORT)
 535:Source\mbedtls_open\library/version_features.c ****     "MBEDTLS_ZLIB_SUPPORT",
 536:Source\mbedtls_open\library/version_features.c **** #endif /* MBEDTLS_ZLIB_SUPPORT */
 537:Source\mbedtls_open\library/version_features.c **** #if defined(MBEDTLS_AESNI_C)
 538:Source\mbedtls_open\library/version_features.c ****     "MBEDTLS_AESNI_C",
 539:Source\mbedtls_open\library/version_features.c **** #endif /* MBEDTLS_AESNI_C */
 540:Source\mbedtls_open\library/version_features.c **** #if defined(MBEDTLS_AES_C)
 541:Source\mbedtls_open\library/version_features.c ****     "MBEDTLS_AES_C",
 542:Source\mbedtls_open\library/version_features.c **** #endif /* MBEDTLS_AES_C */
 543:Source\mbedtls_open\library/version_features.c **** #if defined(MBEDTLS_ARC4_C)
ARM GAS  C:\Users\Phuong\AppData\Local\Temp\ccRrQhw7.s 			page 11


 544:Source\mbedtls_open\library/version_features.c ****     "MBEDTLS_ARC4_C",
 545:Source\mbedtls_open\library/version_features.c **** #endif /* MBEDTLS_ARC4_C */
 546:Source\mbedtls_open\library/version_features.c **** #if defined(MBEDTLS_ASN1_PARSE_C)
 547:Source\mbedtls_open\library/version_features.c ****     "MBEDTLS_ASN1_PARSE_C",
 548:Source\mbedtls_open\library/version_features.c **** #endif /* MBEDTLS_ASN1_PARSE_C */
 549:Source\mbedtls_open\library/version_features.c **** #if defined(MBEDTLS_ASN1_WRITE_C)
 550:Source\mbedtls_open\library/version_features.c ****     "MBEDTLS_ASN1_WRITE_C",
 551:Source\mbedtls_open\library/version_features.c **** #endif /* MBEDTLS_ASN1_WRITE_C */
 552:Source\mbedtls_open\library/version_features.c **** #if defined(MBEDTLS_BASE64_C)
 553:Source\mbedtls_open\library/version_features.c ****     "MBEDTLS_BASE64_C",
 554:Source\mbedtls_open\library/version_features.c **** #endif /* MBEDTLS_BASE64_C */
 555:Source\mbedtls_open\library/version_features.c **** #if defined(MBEDTLS_BIGNUM_C)
 556:Source\mbedtls_open\library/version_features.c ****     "MBEDTLS_BIGNUM_C",
 557:Source\mbedtls_open\library/version_features.c **** #endif /* MBEDTLS_BIGNUM_C */
 558:Source\mbedtls_open\library/version_features.c **** #if defined(MBEDTLS_BLOWFISH_C)
 559:Source\mbedtls_open\library/version_features.c ****     "MBEDTLS_BLOWFISH_C",
 560:Source\mbedtls_open\library/version_features.c **** #endif /* MBEDTLS_BLOWFISH_C */
 561:Source\mbedtls_open\library/version_features.c **** #if defined(MBEDTLS_CAMELLIA_C)
 562:Source\mbedtls_open\library/version_features.c ****     "MBEDTLS_CAMELLIA_C",
 563:Source\mbedtls_open\library/version_features.c **** #endif /* MBEDTLS_CAMELLIA_C */
 564:Source\mbedtls_open\library/version_features.c **** #if defined(MBEDTLS_ARIA_C)
 565:Source\mbedtls_open\library/version_features.c ****     "MBEDTLS_ARIA_C",
 566:Source\mbedtls_open\library/version_features.c **** #endif /* MBEDTLS_ARIA_C */
 567:Source\mbedtls_open\library/version_features.c **** #if defined(MBEDTLS_CCM_C)
 568:Source\mbedtls_open\library/version_features.c ****     "MBEDTLS_CCM_C",
 569:Source\mbedtls_open\library/version_features.c **** #endif /* MBEDTLS_CCM_C */
 570:Source\mbedtls_open\library/version_features.c **** #if defined(MBEDTLS_CERTS_C)
 571:Source\mbedtls_open\library/version_features.c ****     "MBEDTLS_CERTS_C",
 572:Source\mbedtls_open\library/version_features.c **** #endif /* MBEDTLS_CERTS_C */
 573:Source\mbedtls_open\library/version_features.c **** #if defined(MBEDTLS_CHACHA20_C)
 574:Source\mbedtls_open\library/version_features.c ****     "MBEDTLS_CHACHA20_C",
 575:Source\mbedtls_open\library/version_features.c **** #endif /* MBEDTLS_CHACHA20_C */
 576:Source\mbedtls_open\library/version_features.c **** #if defined(MBEDTLS_CHACHAPOLY_C)
 577:Source\mbedtls_open\library/version_features.c ****     "MBEDTLS_CHACHAPOLY_C",
 578:Source\mbedtls_open\library/version_features.c **** #endif /* MBEDTLS_CHACHAPOLY_C */
 579:Source\mbedtls_open\library/version_features.c **** #if defined(MBEDTLS_CIPHER_C)
 580:Source\mbedtls_open\library/version_features.c ****     "MBEDTLS_CIPHER_C",
 581:Source\mbedtls_open\library/version_features.c **** #endif /* MBEDTLS_CIPHER_C */
 582:Source\mbedtls_open\library/version_features.c **** #if defined(MBEDTLS_CMAC_C)
 583:Source\mbedtls_open\library/version_features.c ****     "MBEDTLS_CMAC_C",
 584:Source\mbedtls_open\library/version_features.c **** #endif /* MBEDTLS_CMAC_C */
 585:Source\mbedtls_open\library/version_features.c **** #if defined(MBEDTLS_CTR_DRBG_C)
 586:Source\mbedtls_open\library/version_features.c ****     "MBEDTLS_CTR_DRBG_C",
 587:Source\mbedtls_open\library/version_features.c **** #endif /* MBEDTLS_CTR_DRBG_C */
 588:Source\mbedtls_open\library/version_features.c **** #if defined(MBEDTLS_DEBUG_C)
 589:Source\mbedtls_open\library/version_features.c ****     "MBEDTLS_DEBUG_C",
 590:Source\mbedtls_open\library/version_features.c **** #endif /* MBEDTLS_DEBUG_C */
 591:Source\mbedtls_open\library/version_features.c **** #if defined(MBEDTLS_DES_C)
 592:Source\mbedtls_open\library/version_features.c ****     "MBEDTLS_DES_C",
 593:Source\mbedtls_open\library/version_features.c **** #endif /* MBEDTLS_DES_C */
 594:Source\mbedtls_open\library/version_features.c **** #if defined(MBEDTLS_DHM_C)
 595:Source\mbedtls_open\library/version_features.c ****     "MBEDTLS_DHM_C",
 596:Source\mbedtls_open\library/version_features.c **** #endif /* MBEDTLS_DHM_C */
 597:Source\mbedtls_open\library/version_features.c **** #if defined(MBEDTLS_ECDH_C)
 598:Source\mbedtls_open\library/version_features.c ****     "MBEDTLS_ECDH_C",
 599:Source\mbedtls_open\library/version_features.c **** #endif /* MBEDTLS_ECDH_C */
 600:Source\mbedtls_open\library/version_features.c **** #if defined(MBEDTLS_ECDSA_C)
ARM GAS  C:\Users\Phuong\AppData\Local\Temp\ccRrQhw7.s 			page 12


 601:Source\mbedtls_open\library/version_features.c ****     "MBEDTLS_ECDSA_C",
 602:Source\mbedtls_open\library/version_features.c **** #endif /* MBEDTLS_ECDSA_C */
 603:Source\mbedtls_open\library/version_features.c **** #if defined(MBEDTLS_ECJPAKE_C)
 604:Source\mbedtls_open\library/version_features.c ****     "MBEDTLS_ECJPAKE_C",
 605:Source\mbedtls_open\library/version_features.c **** #endif /* MBEDTLS_ECJPAKE_C */
 606:Source\mbedtls_open\library/version_features.c **** #if defined(MBEDTLS_ECP_C)
 607:Source\mbedtls_open\library/version_features.c ****     "MBEDTLS_ECP_C",
 608:Source\mbedtls_open\library/version_features.c **** #endif /* MBEDTLS_ECP_C */
 609:Source\mbedtls_open\library/version_features.c **** #if defined(MBEDTLS_ENTROPY_C)
 610:Source\mbedtls_open\library/version_features.c ****     "MBEDTLS_ENTROPY_C",
 611:Source\mbedtls_open\library/version_features.c **** #endif /* MBEDTLS_ENTROPY_C */
 612:Source\mbedtls_open\library/version_features.c **** #if defined(MBEDTLS_ERROR_C)
 613:Source\mbedtls_open\library/version_features.c ****     "MBEDTLS_ERROR_C",
 614:Source\mbedtls_open\library/version_features.c **** #endif /* MBEDTLS_ERROR_C */
 615:Source\mbedtls_open\library/version_features.c **** #if defined(MBEDTLS_GCM_C)
 616:Source\mbedtls_open\library/version_features.c ****     "MBEDTLS_GCM_C",
 617:Source\mbedtls_open\library/version_features.c **** #endif /* MBEDTLS_GCM_C */
 618:Source\mbedtls_open\library/version_features.c **** #if defined(MBEDTLS_HAVEGE_C)
 619:Source\mbedtls_open\library/version_features.c ****     "MBEDTLS_HAVEGE_C",
 620:Source\mbedtls_open\library/version_features.c **** #endif /* MBEDTLS_HAVEGE_C */
 621:Source\mbedtls_open\library/version_features.c **** #if defined(MBEDTLS_HKDF_C)
 622:Source\mbedtls_open\library/version_features.c ****     "MBEDTLS_HKDF_C",
 623:Source\mbedtls_open\library/version_features.c **** #endif /* MBEDTLS_HKDF_C */
 624:Source\mbedtls_open\library/version_features.c **** #if defined(MBEDTLS_HMAC_DRBG_C)
 625:Source\mbedtls_open\library/version_features.c ****     "MBEDTLS_HMAC_DRBG_C",
 626:Source\mbedtls_open\library/version_features.c **** #endif /* MBEDTLS_HMAC_DRBG_C */
 627:Source\mbedtls_open\library/version_features.c **** #if defined(MBEDTLS_NIST_KW_C)
 628:Source\mbedtls_open\library/version_features.c ****     "MBEDTLS_NIST_KW_C",
 629:Source\mbedtls_open\library/version_features.c **** #endif /* MBEDTLS_NIST_KW_C */
 630:Source\mbedtls_open\library/version_features.c **** #if defined(MBEDTLS_MD_C)
 631:Source\mbedtls_open\library/version_features.c ****     "MBEDTLS_MD_C",
 632:Source\mbedtls_open\library/version_features.c **** #endif /* MBEDTLS_MD_C */
 633:Source\mbedtls_open\library/version_features.c **** #if defined(MBEDTLS_MD2_C)
 634:Source\mbedtls_open\library/version_features.c ****     "MBEDTLS_MD2_C",
 635:Source\mbedtls_open\library/version_features.c **** #endif /* MBEDTLS_MD2_C */
 636:Source\mbedtls_open\library/version_features.c **** #if defined(MBEDTLS_MD4_C)
 637:Source\mbedtls_open\library/version_features.c ****     "MBEDTLS_MD4_C",
 638:Source\mbedtls_open\library/version_features.c **** #endif /* MBEDTLS_MD4_C */
 639:Source\mbedtls_open\library/version_features.c **** #if defined(MBEDTLS_MD5_C)
 640:Source\mbedtls_open\library/version_features.c ****     "MBEDTLS_MD5_C",
 641:Source\mbedtls_open\library/version_features.c **** #endif /* MBEDTLS_MD5_C */
 642:Source\mbedtls_open\library/version_features.c **** #if defined(MBEDTLS_MEMORY_BUFFER_ALLOC_C)
 643:Source\mbedtls_open\library/version_features.c ****     "MBEDTLS_MEMORY_BUFFER_ALLOC_C",
 644:Source\mbedtls_open\library/version_features.c **** #endif /* MBEDTLS_MEMORY_BUFFER_ALLOC_C */
 645:Source\mbedtls_open\library/version_features.c **** #if defined(MBEDTLS_NET_C)
 646:Source\mbedtls_open\library/version_features.c ****     "MBEDTLS_NET_C",
 647:Source\mbedtls_open\library/version_features.c **** #endif /* MBEDTLS_NET_C */
 648:Source\mbedtls_open\library/version_features.c **** #if defined(MBEDTLS_OID_C)
 649:Source\mbedtls_open\library/version_features.c ****     "MBEDTLS_OID_C",
 650:Source\mbedtls_open\library/version_features.c **** #endif /* MBEDTLS_OID_C */
 651:Source\mbedtls_open\library/version_features.c **** #if defined(MBEDTLS_PADLOCK_C)
 652:Source\mbedtls_open\library/version_features.c ****     "MBEDTLS_PADLOCK_C",
 653:Source\mbedtls_open\library/version_features.c **** #endif /* MBEDTLS_PADLOCK_C */
 654:Source\mbedtls_open\library/version_features.c **** #if defined(MBEDTLS_PEM_PARSE_C)
 655:Source\mbedtls_open\library/version_features.c ****     "MBEDTLS_PEM_PARSE_C",
 656:Source\mbedtls_open\library/version_features.c **** #endif /* MBEDTLS_PEM_PARSE_C */
 657:Source\mbedtls_open\library/version_features.c **** #if defined(MBEDTLS_PEM_WRITE_C)
ARM GAS  C:\Users\Phuong\AppData\Local\Temp\ccRrQhw7.s 			page 13


 658:Source\mbedtls_open\library/version_features.c ****     "MBEDTLS_PEM_WRITE_C",
 659:Source\mbedtls_open\library/version_features.c **** #endif /* MBEDTLS_PEM_WRITE_C */
 660:Source\mbedtls_open\library/version_features.c **** #if defined(MBEDTLS_PK_C)
 661:Source\mbedtls_open\library/version_features.c ****     "MBEDTLS_PK_C",
 662:Source\mbedtls_open\library/version_features.c **** #endif /* MBEDTLS_PK_C */
 663:Source\mbedtls_open\library/version_features.c **** #if defined(MBEDTLS_PK_PARSE_C)
 664:Source\mbedtls_open\library/version_features.c ****     "MBEDTLS_PK_PARSE_C",
 665:Source\mbedtls_open\library/version_features.c **** #endif /* MBEDTLS_PK_PARSE_C */
 666:Source\mbedtls_open\library/version_features.c **** #if defined(MBEDTLS_PK_WRITE_C)
 667:Source\mbedtls_open\library/version_features.c ****     "MBEDTLS_PK_WRITE_C",
 668:Source\mbedtls_open\library/version_features.c **** #endif /* MBEDTLS_PK_WRITE_C */
 669:Source\mbedtls_open\library/version_features.c **** #if defined(MBEDTLS_PKCS5_C)
 670:Source\mbedtls_open\library/version_features.c ****     "MBEDTLS_PKCS5_C",
 671:Source\mbedtls_open\library/version_features.c **** #endif /* MBEDTLS_PKCS5_C */
 672:Source\mbedtls_open\library/version_features.c **** #if defined(MBEDTLS_PKCS11_C)
 673:Source\mbedtls_open\library/version_features.c ****     "MBEDTLS_PKCS11_C",
 674:Source\mbedtls_open\library/version_features.c **** #endif /* MBEDTLS_PKCS11_C */
 675:Source\mbedtls_open\library/version_features.c **** #if defined(MBEDTLS_PKCS12_C)
 676:Source\mbedtls_open\library/version_features.c ****     "MBEDTLS_PKCS12_C",
 677:Source\mbedtls_open\library/version_features.c **** #endif /* MBEDTLS_PKCS12_C */
 678:Source\mbedtls_open\library/version_features.c **** #if defined(MBEDTLS_PLATFORM_C)
 679:Source\mbedtls_open\library/version_features.c ****     "MBEDTLS_PLATFORM_C",
 680:Source\mbedtls_open\library/version_features.c **** #endif /* MBEDTLS_PLATFORM_C */
 681:Source\mbedtls_open\library/version_features.c **** #if defined(MBEDTLS_POLY1305_C)
 682:Source\mbedtls_open\library/version_features.c ****     "MBEDTLS_POLY1305_C",
 683:Source\mbedtls_open\library/version_features.c **** #endif /* MBEDTLS_POLY1305_C */
 684:Source\mbedtls_open\library/version_features.c **** #if defined(MBEDTLS_RIPEMD160_C)
 685:Source\mbedtls_open\library/version_features.c ****     "MBEDTLS_RIPEMD160_C",
 686:Source\mbedtls_open\library/version_features.c **** #endif /* MBEDTLS_RIPEMD160_C */
 687:Source\mbedtls_open\library/version_features.c **** #if defined(MBEDTLS_RSA_C)
 688:Source\mbedtls_open\library/version_features.c ****     "MBEDTLS_RSA_C",
 689:Source\mbedtls_open\library/version_features.c **** #endif /* MBEDTLS_RSA_C */
 690:Source\mbedtls_open\library/version_features.c **** #if defined(MBEDTLS_SHA1_C)
 691:Source\mbedtls_open\library/version_features.c ****     "MBEDTLS_SHA1_C",
 692:Source\mbedtls_open\library/version_features.c **** #endif /* MBEDTLS_SHA1_C */
 693:Source\mbedtls_open\library/version_features.c **** #if defined(MBEDTLS_SHA256_C)
 694:Source\mbedtls_open\library/version_features.c ****     "MBEDTLS_SHA256_C",
 695:Source\mbedtls_open\library/version_features.c **** #endif /* MBEDTLS_SHA256_C */
 696:Source\mbedtls_open\library/version_features.c **** #if defined(MBEDTLS_SHA512_C)
 697:Source\mbedtls_open\library/version_features.c ****     "MBEDTLS_SHA512_C",
 698:Source\mbedtls_open\library/version_features.c **** #endif /* MBEDTLS_SHA512_C */
 699:Source\mbedtls_open\library/version_features.c **** #if defined(MBEDTLS_SSL_CACHE_C)
 700:Source\mbedtls_open\library/version_features.c ****     "MBEDTLS_SSL_CACHE_C",
 701:Source\mbedtls_open\library/version_features.c **** #endif /* MBEDTLS_SSL_CACHE_C */
 702:Source\mbedtls_open\library/version_features.c **** #if defined(MBEDTLS_SSL_COOKIE_C)
 703:Source\mbedtls_open\library/version_features.c ****     "MBEDTLS_SSL_COOKIE_C",
 704:Source\mbedtls_open\library/version_features.c **** #endif /* MBEDTLS_SSL_COOKIE_C */
 705:Source\mbedtls_open\library/version_features.c **** #if defined(MBEDTLS_SSL_TICKET_C)
 706:Source\mbedtls_open\library/version_features.c ****     "MBEDTLS_SSL_TICKET_C",
 707:Source\mbedtls_open\library/version_features.c **** #endif /* MBEDTLS_SSL_TICKET_C */
 708:Source\mbedtls_open\library/version_features.c **** #if defined(MBEDTLS_SSL_CLI_C)
 709:Source\mbedtls_open\library/version_features.c ****     "MBEDTLS_SSL_CLI_C",
 710:Source\mbedtls_open\library/version_features.c **** #endif /* MBEDTLS_SSL_CLI_C */
 711:Source\mbedtls_open\library/version_features.c **** #if defined(MBEDTLS_SSL_SRV_C)
 712:Source\mbedtls_open\library/version_features.c ****     "MBEDTLS_SSL_SRV_C",
 713:Source\mbedtls_open\library/version_features.c **** #endif /* MBEDTLS_SSL_SRV_C */
 714:Source\mbedtls_open\library/version_features.c **** #if defined(MBEDTLS_SSL_TLS_C)
ARM GAS  C:\Users\Phuong\AppData\Local\Temp\ccRrQhw7.s 			page 14


 715:Source\mbedtls_open\library/version_features.c ****     "MBEDTLS_SSL_TLS_C",
 716:Source\mbedtls_open\library/version_features.c **** #endif /* MBEDTLS_SSL_TLS_C */
 717:Source\mbedtls_open\library/version_features.c **** #if defined(MBEDTLS_THREADING_C)
 718:Source\mbedtls_open\library/version_features.c ****     "MBEDTLS_THREADING_C",
 719:Source\mbedtls_open\library/version_features.c **** #endif /* MBEDTLS_THREADING_C */
 720:Source\mbedtls_open\library/version_features.c **** #if defined(MBEDTLS_TIMING_C)
 721:Source\mbedtls_open\library/version_features.c ****     "MBEDTLS_TIMING_C",
 722:Source\mbedtls_open\library/version_features.c **** #endif /* MBEDTLS_TIMING_C */
 723:Source\mbedtls_open\library/version_features.c **** #if defined(MBEDTLS_VERSION_C)
 724:Source\mbedtls_open\library/version_features.c ****     "MBEDTLS_VERSION_C",
 725:Source\mbedtls_open\library/version_features.c **** #endif /* MBEDTLS_VERSION_C */
 726:Source\mbedtls_open\library/version_features.c **** #if defined(MBEDTLS_X509_USE_C)
 727:Source\mbedtls_open\library/version_features.c ****     "MBEDTLS_X509_USE_C",
 728:Source\mbedtls_open\library/version_features.c **** #endif /* MBEDTLS_X509_USE_C */
 729:Source\mbedtls_open\library/version_features.c **** #if defined(MBEDTLS_X509_CRT_PARSE_C)
 730:Source\mbedtls_open\library/version_features.c ****     "MBEDTLS_X509_CRT_PARSE_C",
 731:Source\mbedtls_open\library/version_features.c **** #endif /* MBEDTLS_X509_CRT_PARSE_C */
 732:Source\mbedtls_open\library/version_features.c **** #if defined(MBEDTLS_X509_CRL_PARSE_C)
 733:Source\mbedtls_open\library/version_features.c ****     "MBEDTLS_X509_CRL_PARSE_C",
 734:Source\mbedtls_open\library/version_features.c **** #endif /* MBEDTLS_X509_CRL_PARSE_C */
 735:Source\mbedtls_open\library/version_features.c **** #if defined(MBEDTLS_X509_CSR_PARSE_C)
 736:Source\mbedtls_open\library/version_features.c ****     "MBEDTLS_X509_CSR_PARSE_C",
 737:Source\mbedtls_open\library/version_features.c **** #endif /* MBEDTLS_X509_CSR_PARSE_C */
 738:Source\mbedtls_open\library/version_features.c **** #if defined(MBEDTLS_X509_CREATE_C)
 739:Source\mbedtls_open\library/version_features.c ****     "MBEDTLS_X509_CREATE_C",
 740:Source\mbedtls_open\library/version_features.c **** #endif /* MBEDTLS_X509_CREATE_C */
 741:Source\mbedtls_open\library/version_features.c **** #if defined(MBEDTLS_X509_CRT_WRITE_C)
 742:Source\mbedtls_open\library/version_features.c ****     "MBEDTLS_X509_CRT_WRITE_C",
 743:Source\mbedtls_open\library/version_features.c **** #endif /* MBEDTLS_X509_CRT_WRITE_C */
 744:Source\mbedtls_open\library/version_features.c **** #if defined(MBEDTLS_X509_CSR_WRITE_C)
 745:Source\mbedtls_open\library/version_features.c ****     "MBEDTLS_X509_CSR_WRITE_C",
 746:Source\mbedtls_open\library/version_features.c **** #endif /* MBEDTLS_X509_CSR_WRITE_C */
 747:Source\mbedtls_open\library/version_features.c **** #if defined(MBEDTLS_XTEA_C)
 748:Source\mbedtls_open\library/version_features.c ****     "MBEDTLS_XTEA_C",
 749:Source\mbedtls_open\library/version_features.c **** #endif /* MBEDTLS_XTEA_C */
 750:Source\mbedtls_open\library/version_features.c **** #endif /* MBEDTLS_VERSION_FEATURES */
 751:Source\mbedtls_open\library/version_features.c ****     NULL
 752:Source\mbedtls_open\library/version_features.c **** };
 753:Source\mbedtls_open\library/version_features.c **** 
 754:Source\mbedtls_open\library/version_features.c **** int mbedtls_version_check_feature( const char *feature )
 755:Source\mbedtls_open\library/version_features.c **** {
  28              		.loc 1 755 0
  29              		.cfi_startproc
  30              		@ args = 0, pretend = 0, frame = 0
  31              		@ frame_needed = 0, uses_anonymous_args = 0
  32              	.LVL0:
  33 0000 70B5     		push	{r4, r5, r6, lr}
  34              		.cfi_def_cfa_offset 16
  35              		.cfi_offset 4, -16
  36              		.cfi_offset 5, -12
  37              		.cfi_offset 6, -8
  38              		.cfi_offset 14, -4
  39 0002 0400     		movs	r4, r0
  40              	.LVL1:
 756:Source\mbedtls_open\library/version_features.c ****     const char **idx = features;
 757:Source\mbedtls_open\library/version_features.c **** 
 758:Source\mbedtls_open\library/version_features.c ****     if( *idx == NULL )
ARM GAS  C:\Users\Phuong\AppData\Local\Temp\ccRrQhw7.s 			page 15


  41              		.loc 1 758 0
  42 0004 0C4B     		ldr	r3, .L7
  43 0006 1B68     		ldr	r3, [r3]
  44 0008 002B     		cmp	r3, #0
  45 000a 0ED0     		beq	.L5
 759:Source\mbedtls_open\library/version_features.c ****         return( -2 );
 760:Source\mbedtls_open\library/version_features.c **** 
 761:Source\mbedtls_open\library/version_features.c ****     if( feature == NULL )
  46              		.loc 1 761 0
  47 000c 0028     		cmp	r0, #0
  48 000e 0FD0     		beq	.L6
  49 0010 094D     		ldr	r5, .L7
  50 0012 05E0     		b	.L3
  51              	.LVL2:
  52              	.L4:
 762:Source\mbedtls_open\library/version_features.c ****         return( -1 );
 763:Source\mbedtls_open\library/version_features.c **** 
 764:Source\mbedtls_open\library/version_features.c ****     while( *idx != NULL )
 765:Source\mbedtls_open\library/version_features.c ****     {
 766:Source\mbedtls_open\library/version_features.c ****         if( !strcmp( *idx, feature ) )
  53              		.loc 1 766 0
  54 0014 2100     		movs	r1, r4
  55 0016 FFF7FEFF 		bl	strcmp
  56              	.LVL3:
  57 001a 0028     		cmp	r0, #0
  58 001c 0AD0     		beq	.L2
 767:Source\mbedtls_open\library/version_features.c ****             return( 0 );
 768:Source\mbedtls_open\library/version_features.c ****         idx++;
  59              		.loc 1 768 0
  60 001e 0435     		adds	r5, r5, #4
  61              	.LVL4:
  62              	.L3:
 764:Source\mbedtls_open\library/version_features.c ****     {
  63              		.loc 1 764 0
  64 0020 2868     		ldr	r0, [r5]
  65 0022 0028     		cmp	r0, #0
  66 0024 F6D1     		bne	.L4
 769:Source\mbedtls_open\library/version_features.c ****     }
 770:Source\mbedtls_open\library/version_features.c ****     return( -1 );
  67              		.loc 1 770 0
  68 0026 0138     		subs	r0, r0, #1
  69 0028 04E0     		b	.L2
  70              	.LVL5:
  71              	.L5:
 759:Source\mbedtls_open\library/version_features.c **** 
  72              		.loc 1 759 0
  73 002a 0220     		movs	r0, #2
  74              	.LVL6:
  75 002c 4042     		rsbs	r0, r0, #0
  76 002e 01E0     		b	.L2
  77              	.LVL7:
  78              	.L6:
 762:Source\mbedtls_open\library/version_features.c **** 
  79              		.loc 1 762 0
  80 0030 0120     		movs	r0, #1
  81              	.LVL8:
  82 0032 4042     		rsbs	r0, r0, #0
ARM GAS  C:\Users\Phuong\AppData\Local\Temp\ccRrQhw7.s 			page 16


  83              	.LVL9:
  84              	.L2:
 771:Source\mbedtls_open\library/version_features.c **** }
  85              		.loc 1 771 0
  86              		@ sp needed
  87              	.LVL10:
  88 0034 70BD     		pop	{r4, r5, r6, pc}
  89              	.L8:
  90 0036 C046     		.align	2
  91              	.L7:
  92 0038 00000000 		.word	.LANCHOR0
  93              		.cfi_endproc
  94              	.LFE0:
  95              		.size	mbedtls_version_check_feature, .-mbedtls_version_check_feature
  96              		.data
  97              		.align	2
  98              		.set	.LANCHOR0,. + 0
  99              		.type	features, %object
 100              		.size	features, 508
 101              	features:
 102 0000 00000000 		.word	.LC1
 103 0004 14000000 		.word	.LC2
 104 0008 2C000000 		.word	.LC3
 105 000c 44000000 		.word	.LC4
 106 0010 5C000000 		.word	.LC5
 107 0014 74000000 		.word	.LC6
 108 0018 94000000 		.word	.LC7
 109 001c BC000000 		.word	.LC8
 110 0020 E4000000 		.word	.LC9
 111 0024 04010000 		.word	.LC10
 112 0028 28010000 		.word	.LC11
 113 002c 4C010000 		.word	.LC12
 114 0030 70010000 		.word	.LC13
 115 0034 94010000 		.word	.LC14
 116 0038 B8010000 		.word	.LC15
 117 003c DC010000 		.word	.LC16
 118 0040 00020000 		.word	.LC17
 119 0044 24020000 		.word	.LC18
 120 0048 48020000 		.word	.LC19
 121 004c 68020000 		.word	.LC20
 122 0050 88020000 		.word	.LC21
 123 0054 A8020000 		.word	.LC22
 124 0058 CC020000 		.word	.LC23
 125 005c EC020000 		.word	.LC24
 126 0060 04030000 		.word	.LC25
 127 0064 20030000 		.word	.LC26
 128 0068 44030000 		.word	.LC27
 129 006c 6C030000 		.word	.LC28
 130 0070 94030000 		.word	.LC29
 131 0074 BC030000 		.word	.LC30
 132 0078 E0030000 		.word	.LC31
 133 007c 08040000 		.word	.LC32
 134 0080 30040000 		.word	.LC33
 135 0084 5C040000 		.word	.LC34
 136 0088 84040000 		.word	.LC35
 137 008c AC040000 		.word	.LC36
 138 0090 CC040000 		.word	.LC37
ARM GAS  C:\Users\Phuong\AppData\Local\Temp\ccRrQhw7.s 			page 17


 139 0094 EC040000 		.word	.LC38
 140 0098 00050000 		.word	.LC39
 141 009c 1C050000 		.word	.LC40
 142 00a0 38050000 		.word	.LC41
 143 00a4 4C050000 		.word	.LC42
 144 00a8 60050000 		.word	.LC43
 145 00ac 74050000 		.word	.LC44
 146 00b0 94050000 		.word	.LC45
 147 00b4 B4050000 		.word	.LC46
 148 00b8 D8050000 		.word	.LC47
 149 00bc F4050000 		.word	.LC48
 150 00c0 18060000 		.word	.LC49
 151 00c4 34060000 		.word	.LC50
 152 00c8 54060000 		.word	.LC51
 153 00cc 6C060000 		.word	.LC52
 154 00d0 88060000 		.word	.LC53
 155 00d4 A4060000 		.word	.LC54
 156 00d8 BC060000 		.word	.LC55
 157 00dc D0060000 		.word	.LC56
 158 00e0 F0060000 		.word	.LC57
 159 00e4 10070000 		.word	.LC58
 160 00e8 34070000 		.word	.LC59
 161 00ec 54070000 		.word	.LC60
 162 00f0 70070000 		.word	.LC61
 163 00f4 88070000 		.word	.LC62
 164 00f8 AC070000 		.word	.LC63
 165 00fc C8070000 		.word	.LC64
 166 0100 E4070000 		.word	.LC65
 167 0104 04080000 		.word	.LC66
 168 0108 2C080000 		.word	.LC67
 169 010c 4C080000 		.word	.LC68
 170 0110 5C080000 		.word	.LC69
 171 0114 6C080000 		.word	.LC70
 172 0118 7C080000 		.word	.LC71
 173 011c 94080000 		.word	.LC72
 174 0120 AC080000 		.word	.LC73
 175 0124 C0080000 		.word	.LC74
 176 0128 D4080000 		.word	.LC75
 177 012c E8080000 		.word	.LC76
 178 0130 FC080000 		.word	.LC77
 179 0134 0C090000 		.word	.LC78
 180 0138 1C090000 		.word	.LC79
 181 013c 30090000 		.word	.LC80
 182 0140 48090000 		.word	.LC81
 183 0144 5C090000 		.word	.LC82
 184 0148 70090000 		.word	.LC83
 185 014c 80090000 		.word	.LC84
 186 0150 90090000 		.word	.LC85
 187 0154 A0090000 		.word	.LC86
 188 0158 B0090000 		.word	.LC87
 189 015c C0090000 		.word	.LC88
 190 0160 D0090000 		.word	.LC89
 191 0164 E4090000 		.word	.LC90
 192 0168 F4090000 		.word	.LC91
 193 016c 040A0000 		.word	.LC92
 194 0170 140A0000 		.word	.LC93
 195 0174 280A0000 		.word	.LC94
ARM GAS  C:\Users\Phuong\AppData\Local\Temp\ccRrQhw7.s 			page 18


 196 0178 380A0000 		.word	.LC95
 197 017c 480A0000 		.word	.LC96
 198 0180 580A0000 		.word	.LC97
 199 0184 6C0A0000 		.word	.LC98
 200 0188 800A0000 		.word	.LC99
 201 018c 940A0000 		.word	.LC100
 202 0190 A40A0000 		.word	.LC101
 203 0194 B80A0000 		.word	.LC102
 204 0198 CC0A0000 		.word	.LC103
 205 019c DC0A0000 		.word	.LC104
 206 01a0 F00A0000 		.word	.LC105
 207 01a4 040B0000 		.word	.LC106
 208 01a8 180B0000 		.word	.LC107
 209 01ac 2C0B0000 		.word	.LC108
 210 01b0 3C0B0000 		.word	.LC109
 211 01b4 4C0B0000 		.word	.LC110
 212 01b8 600B0000 		.word	.LC111
 213 01bc 740B0000 		.word	.LC112
 214 01c0 880B0000 		.word	.LC113
 215 01c4 A00B0000 		.word	.LC114
 216 01c8 B80B0000 		.word	.LC115
 217 01cc CC0B0000 		.word	.LC116
 218 01d0 E00B0000 		.word	.LC117
 219 01d4 F40B0000 		.word	.LC118
 220 01d8 080C0000 		.word	.LC119
 221 01dc 1C0C0000 		.word	.LC120
 222 01e0 380C0000 		.word	.LC121
 223 01e4 540C0000 		.word	.LC122
 224 01e8 700C0000 		.word	.LC123
 225 01ec 880C0000 		.word	.LC124
 226 01f0 A40C0000 		.word	.LC125
 227 01f4 C00C0000 		.word	.LC126
 228 01f8 00000000 		.word	0
 229              		.section	.rodata.str1.4,"aMS",%progbits,1
 230              		.align	2
 231              	.LC1:
 232 0000 4D424544 		.ascii	"MBEDTLS_HAVE_ASM\000"
 232      544C535F 
 232      48415645 
 232      5F41534D 
 232      00
 233 0011 000000   		.space	3
 234              	.LC2:
 235 0014 4D424544 		.ascii	"MBEDTLS_CIPHER_MODE_CBC\000"
 235      544C535F 
 235      43495048 
 235      45525F4D 
 235      4F44455F 
 236              	.LC3:
 237 002c 4D424544 		.ascii	"MBEDTLS_CIPHER_MODE_CFB\000"
 237      544C535F 
 237      43495048 
 237      45525F4D 
 237      4F44455F 
 238              	.LC4:
 239 0044 4D424544 		.ascii	"MBEDTLS_CIPHER_MODE_CTR\000"
 239      544C535F 
ARM GAS  C:\Users\Phuong\AppData\Local\Temp\ccRrQhw7.s 			page 19


 239      43495048 
 239      45525F4D 
 239      4F44455F 
 240              	.LC5:
 241 005c 4D424544 		.ascii	"MBEDTLS_CIPHER_MODE_OFB\000"
 241      544C535F 
 241      43495048 
 241      45525F4D 
 241      4F44455F 
 242              	.LC6:
 243 0074 4D424544 		.ascii	"MBEDTLS_CIPHER_PADDING_PKCS7\000"
 243      544C535F 
 243      43495048 
 243      45525F50 
 243      41444449 
 244 0091 000000   		.space	3
 245              	.LC7:
 246 0094 4D424544 		.ascii	"MBEDTLS_CIPHER_PADDING_ONE_AND_ZEROS\000"
 246      544C535F 
 246      43495048 
 246      45525F50 
 246      41444449 
 247 00b9 000000   		.space	3
 248              	.LC8:
 249 00bc 4D424544 		.ascii	"MBEDTLS_CIPHER_PADDING_ZEROS_AND_LEN\000"
 249      544C535F 
 249      43495048 
 249      45525F50 
 249      41444449 
 250 00e1 000000   		.space	3
 251              	.LC9:
 252 00e4 4D424544 		.ascii	"MBEDTLS_CIPHER_PADDING_ZEROS\000"
 252      544C535F 
 252      43495048 
 252      45525F50 
 252      41444449 
 253 0101 000000   		.space	3
 254              	.LC10:
 255 0104 4D424544 		.ascii	"MBEDTLS_REMOVE_ARC4_CIPHERSUITES\000"
 255      544C535F 
 255      52454D4F 
 255      56455F41 
 255      5243345F 
 256 0125 000000   		.space	3
 257              	.LC11:
 258 0128 4D424544 		.ascii	"MBEDTLS_ECP_DP_SECP192R1_ENABLED\000"
 258      544C535F 
 258      4543505F 
 258      44505F53 
 258      45435031 
 259 0149 000000   		.space	3
 260              	.LC12:
 261 014c 4D424544 		.ascii	"MBEDTLS_ECP_DP_SECP224R1_ENABLED\000"
 261      544C535F 
 261      4543505F 
 261      44505F53 
 261      45435032 
ARM GAS  C:\Users\Phuong\AppData\Local\Temp\ccRrQhw7.s 			page 20


 262 016d 000000   		.space	3
 263              	.LC13:
 264 0170 4D424544 		.ascii	"MBEDTLS_ECP_DP_SECP256R1_ENABLED\000"
 264      544C535F 
 264      4543505F 
 264      44505F53 
 264      45435032 
 265 0191 000000   		.space	3
 266              	.LC14:
 267 0194 4D424544 		.ascii	"MBEDTLS_ECP_DP_SECP384R1_ENABLED\000"
 267      544C535F 
 267      4543505F 
 267      44505F53 
 267      45435033 
 268 01b5 000000   		.space	3
 269              	.LC15:
 270 01b8 4D424544 		.ascii	"MBEDTLS_ECP_DP_SECP521R1_ENABLED\000"
 270      544C535F 
 270      4543505F 
 270      44505F53 
 270      45435035 
 271 01d9 000000   		.space	3
 272              	.LC16:
 273 01dc 4D424544 		.ascii	"MBEDTLS_ECP_DP_SECP192K1_ENABLED\000"
 273      544C535F 
 273      4543505F 
 273      44505F53 
 273      45435031 
 274 01fd 000000   		.space	3
 275              	.LC17:
 276 0200 4D424544 		.ascii	"MBEDTLS_ECP_DP_SECP224K1_ENABLED\000"
 276      544C535F 
 276      4543505F 
 276      44505F53 
 276      45435032 
 277 0221 000000   		.space	3
 278              	.LC18:
 279 0224 4D424544 		.ascii	"MBEDTLS_ECP_DP_SECP256K1_ENABLED\000"
 279      544C535F 
 279      4543505F 
 279      44505F53 
 279      45435032 
 280 0245 000000   		.space	3
 281              	.LC19:
 282 0248 4D424544 		.ascii	"MBEDTLS_ECP_DP_BP256R1_ENABLED\000"
 282      544C535F 
 282      4543505F 
 282      44505F42 
 282      50323536 
 283 0267 00       		.space	1
 284              	.LC20:
 285 0268 4D424544 		.ascii	"MBEDTLS_ECP_DP_BP384R1_ENABLED\000"
 285      544C535F 
 285      4543505F 
 285      44505F42 
 285      50333834 
 286 0287 00       		.space	1
ARM GAS  C:\Users\Phuong\AppData\Local\Temp\ccRrQhw7.s 			page 21


 287              	.LC21:
 288 0288 4D424544 		.ascii	"MBEDTLS_ECP_DP_BP512R1_ENABLED\000"
 288      544C535F 
 288      4543505F 
 288      44505F42 
 288      50353132 
 289 02a7 00       		.space	1
 290              	.LC22:
 291 02a8 4D424544 		.ascii	"MBEDTLS_ECP_DP_CURVE25519_ENABLED\000"
 291      544C535F 
 291      4543505F 
 291      44505F43 
 291      55525645 
 292 02ca 0000     		.space	2
 293              	.LC23:
 294 02cc 4D424544 		.ascii	"MBEDTLS_ECP_DP_CURVE448_ENABLED\000"
 294      544C535F 
 294      4543505F 
 294      44505F43 
 294      55525645 
 295              	.LC24:
 296 02ec 4D424544 		.ascii	"MBEDTLS_ECP_NIST_OPTIM\000"
 296      544C535F 
 296      4543505F 
 296      4E495354 
 296      5F4F5054 
 297 0303 00       		.space	1
 298              	.LC25:
 299 0304 4D424544 		.ascii	"MBEDTLS_ECDSA_DETERMINISTIC\000"
 299      544C535F 
 299      45434453 
 299      415F4445 
 299      5445524D 
 300              	.LC26:
 301 0320 4D424544 		.ascii	"MBEDTLS_KEY_EXCHANGE_PSK_ENABLED\000"
 301      544C535F 
 301      4B45595F 
 301      45584348 
 301      414E4745 
 302 0341 000000   		.space	3
 303              	.LC27:
 304 0344 4D424544 		.ascii	"MBEDTLS_KEY_EXCHANGE_DHE_PSK_ENABLED\000"
 304      544C535F 
 304      4B45595F 
 304      45584348 
 304      414E4745 
 305 0369 000000   		.space	3
 306              	.LC28:
 307 036c 4D424544 		.ascii	"MBEDTLS_KEY_EXCHANGE_ECDHE_PSK_ENABLED\000"
 307      544C535F 
 307      4B45595F 
 307      45584348 
 307      414E4745 
 308 0393 00       		.space	1
 309              	.LC29:
 310 0394 4D424544 		.ascii	"MBEDTLS_KEY_EXCHANGE_RSA_PSK_ENABLED\000"
 310      544C535F 
ARM GAS  C:\Users\Phuong\AppData\Local\Temp\ccRrQhw7.s 			page 22


 310      4B45595F 
 310      45584348 
 310      414E4745 
 311 03b9 000000   		.space	3
 312              	.LC30:
 313 03bc 4D424544 		.ascii	"MBEDTLS_KEY_EXCHANGE_RSA_ENABLED\000"
 313      544C535F 
 313      4B45595F 
 313      45584348 
 313      414E4745 
 314 03dd 000000   		.space	3
 315              	.LC31:
 316 03e0 4D424544 		.ascii	"MBEDTLS_KEY_EXCHANGE_DHE_RSA_ENABLED\000"
 316      544C535F 
 316      4B45595F 
 316      45584348 
 316      414E4745 
 317 0405 000000   		.space	3
 318              	.LC32:
 319 0408 4D424544 		.ascii	"MBEDTLS_KEY_EXCHANGE_ECDHE_RSA_ENABLED\000"
 319      544C535F 
 319      4B45595F 
 319      45584348 
 319      414E4745 
 320 042f 00       		.space	1
 321              	.LC33:
 322 0430 4D424544 		.ascii	"MBEDTLS_KEY_EXCHANGE_ECDHE_ECDSA_ENABLED\000"
 322      544C535F 
 322      4B45595F 
 322      45584348 
 322      414E4745 
 323 0459 000000   		.space	3
 324              	.LC34:
 325 045c 4D424544 		.ascii	"MBEDTLS_KEY_EXCHANGE_ECDH_ECDSA_ENABLED\000"
 325      544C535F 
 325      4B45595F 
 325      45584348 
 325      414E4745 
 326              	.LC35:
 327 0484 4D424544 		.ascii	"MBEDTLS_KEY_EXCHANGE_ECDH_RSA_ENABLED\000"
 327      544C535F 
 327      4B45595F 
 327      45584348 
 327      414E4745 
 328 04aa 0000     		.space	2
 329              	.LC36:
 330 04ac 4D424544 		.ascii	"MBEDTLS_PK_PARSE_EC_EXTENDED\000"
 330      544C535F 
 330      504B5F50 
 330      41525345 
 330      5F45435F 
 331 04c9 000000   		.space	3
 332              	.LC37:
 333 04cc 4D424544 		.ascii	"MBEDTLS_ERROR_STRERROR_DUMMY\000"
 333      544C535F 
 333      4552524F 
 333      525F5354 
ARM GAS  C:\Users\Phuong\AppData\Local\Temp\ccRrQhw7.s 			page 23


 333      52455252 
 334 04e9 000000   		.space	3
 335              	.LC38:
 336 04ec 4D424544 		.ascii	"MBEDTLS_GENPRIME\000"
 336      544C535F 
 336      47454E50 
 336      52494D45 
 336      00
 337 04fd 000000   		.space	3
 338              	.LC39:
 339 0500 4D424544 		.ascii	"MBEDTLS_NO_PLATFORM_ENTROPY\000"
 339      544C535F 
 339      4E4F5F50 
 339      4C415446 
 339      4F524D5F 
 340              	.LC40:
 341 051c 4D424544 		.ascii	"MBEDTLS_PK_RSA_ALT_SUPPORT\000"
 341      544C535F 
 341      504B5F52 
 341      53415F41 
 341      4C545F53 
 342 0537 00       		.space	1
 343              	.LC41:
 344 0538 4D424544 		.ascii	"MBEDTLS_PKCS1_V15\000"
 344      544C535F 
 344      504B4353 
 344      315F5631 
 344      3500
 345 054a 0000     		.space	2
 346              	.LC42:
 347 054c 4D424544 		.ascii	"MBEDTLS_PKCS1_V21\000"
 347      544C535F 
 347      504B4353 
 347      315F5632 
 347      3100
 348 055e 0000     		.space	2
 349              	.LC43:
 350 0560 4D424544 		.ascii	"MBEDTLS_SELF_TEST\000"
 350      544C535F 
 350      53454C46 
 350      5F544553 
 350      5400
 351 0572 0000     		.space	2
 352              	.LC44:
 353 0574 4D424544 		.ascii	"MBEDTLS_SSL_ALL_ALERT_MESSAGES\000"
 353      544C535F 
 353      53534C5F 
 353      414C4C5F 
 353      414C4552 
 354 0593 00       		.space	1
 355              	.LC45:
 356 0594 4D424544 		.ascii	"MBEDTLS_SSL_ENCRYPT_THEN_MAC\000"
 356      544C535F 
 356      53534C5F 
 356      454E4352 
 356      5950545F 
 357 05b1 000000   		.space	3
ARM GAS  C:\Users\Phuong\AppData\Local\Temp\ccRrQhw7.s 			page 24


 358              	.LC46:
 359 05b4 4D424544 		.ascii	"MBEDTLS_SSL_EXTENDED_MASTER_SECRET\000"
 359      544C535F 
 359      53534C5F 
 359      45585445 
 359      4E444544 
 360 05d7 00       		.space	1
 361              	.LC47:
 362 05d8 4D424544 		.ascii	"MBEDTLS_SSL_FALLBACK_SCSV\000"
 362      544C535F 
 362      53534C5F 
 362      46414C4C 
 362      4241434B 
 363 05f2 0000     		.space	2
 364              	.LC48:
 365 05f4 4D424544 		.ascii	"MBEDTLS_SSL_CBC_RECORD_SPLITTING\000"
 365      544C535F 
 365      53534C5F 
 365      4342435F 
 365      5245434F 
 366 0615 000000   		.space	3
 367              	.LC49:
 368 0618 4D424544 		.ascii	"MBEDTLS_SSL_RENEGOTIATION\000"
 368      544C535F 
 368      53534C5F 
 368      52454E45 
 368      474F5449 
 369 0632 0000     		.space	2
 370              	.LC50:
 371 0634 4D424544 		.ascii	"MBEDTLS_SSL_MAX_FRAGMENT_LENGTH\000"
 371      544C535F 
 371      53534C5F 
 371      4D41585F 
 371      46524147 
 372              	.LC51:
 373 0654 4D424544 		.ascii	"MBEDTLS_SSL_PROTO_TLS1\000"
 373      544C535F 
 373      53534C5F 
 373      50524F54 
 373      4F5F544C 
 374 066b 00       		.space	1
 375              	.LC52:
 376 066c 4D424544 		.ascii	"MBEDTLS_SSL_PROTO_TLS1_1\000"
 376      544C535F 
 376      53534C5F 
 376      50524F54 
 376      4F5F544C 
 377 0685 000000   		.space	3
 378              	.LC53:
 379 0688 4D424544 		.ascii	"MBEDTLS_SSL_PROTO_TLS1_2\000"
 379      544C535F 
 379      53534C5F 
 379      50524F54 
 379      4F5F544C 
 380 06a1 000000   		.space	3
 381              	.LC54:
 382 06a4 4D424544 		.ascii	"MBEDTLS_SSL_PROTO_DTLS\000"
ARM GAS  C:\Users\Phuong\AppData\Local\Temp\ccRrQhw7.s 			page 25


 382      544C535F 
 382      53534C5F 
 382      50524F54 
 382      4F5F4454 
 383 06bb 00       		.space	1
 384              	.LC55:
 385 06bc 4D424544 		.ascii	"MBEDTLS_SSL_ALPN\000"
 385      544C535F 
 385      53534C5F 
 385      414C504E 
 385      00
 386 06cd 000000   		.space	3
 387              	.LC56:
 388 06d0 4D424544 		.ascii	"MBEDTLS_SSL_DTLS_ANTI_REPLAY\000"
 388      544C535F 
 388      53534C5F 
 388      44544C53 
 388      5F414E54 
 389 06ed 000000   		.space	3
 390              	.LC57:
 391 06f0 4D424544 		.ascii	"MBEDTLS_SSL_DTLS_HELLO_VERIFY\000"
 391      544C535F 
 391      53534C5F 
 391      44544C53 
 391      5F48454C 
 392 070e 0000     		.space	2
 393              	.LC58:
 394 0710 4D424544 		.ascii	"MBEDTLS_SSL_DTLS_CLIENT_PORT_REUSE\000"
 394      544C535F 
 394      53534C5F 
 394      44544C53 
 394      5F434C49 
 395 0733 00       		.space	1
 396              	.LC59:
 397 0734 4D424544 		.ascii	"MBEDTLS_SSL_DTLS_BADMAC_LIMIT\000"
 397      544C535F 
 397      53534C5F 
 397      44544C53 
 397      5F424144 
 398 0752 0000     		.space	2
 399              	.LC60:
 400 0754 4D424544 		.ascii	"MBEDTLS_SSL_SESSION_TICKETS\000"
 400      544C535F 
 400      53534C5F 
 400      53455353 
 400      494F4E5F 
 401              	.LC61:
 402 0770 4D424544 		.ascii	"MBEDTLS_SSL_EXPORT_KEYS\000"
 402      544C535F 
 402      53534C5F 
 402      4558504F 
 402      52545F4B 
 403              	.LC62:
 404 0788 4D424544 		.ascii	"MBEDTLS_SSL_SERVER_NAME_INDICATION\000"
 404      544C535F 
 404      53534C5F 
 404      53455256 
ARM GAS  C:\Users\Phuong\AppData\Local\Temp\ccRrQhw7.s 			page 26


 404      45525F4E 
 405 07ab 00       		.space	1
 406              	.LC63:
 407 07ac 4D424544 		.ascii	"MBEDTLS_SSL_TRUNCATED_HMAC\000"
 407      544C535F 
 407      53534C5F 
 407      5452554E 
 407      43415445 
 408 07c7 00       		.space	1
 409              	.LC64:
 410 07c8 4D424544 		.ascii	"MBEDTLS_VERSION_FEATURES\000"
 410      544C535F 
 410      56455253 
 410      494F4E5F 
 410      46454154 
 411 07e1 000000   		.space	3
 412              	.LC65:
 413 07e4 4D424544 		.ascii	"MBEDTLS_X509_CHECK_KEY_USAGE\000"
 413      544C535F 
 413      58353039 
 413      5F434845 
 413      434B5F4B 
 414 0801 000000   		.space	3
 415              	.LC66:
 416 0804 4D424544 		.ascii	"MBEDTLS_X509_CHECK_EXTENDED_KEY_USAGE\000"
 416      544C535F 
 416      58353039 
 416      5F434845 
 416      434B5F45 
 417 082a 0000     		.space	2
 418              	.LC67:
 419 082c 4D424544 		.ascii	"MBEDTLS_X509_RSASSA_PSS_SUPPORT\000"
 419      544C535F 
 419      58353039 
 419      5F525341 
 419      5353415F 
 420              	.LC68:
 421 084c 4D424544 		.ascii	"MBEDTLS_AESNI_C\000"
 421      544C535F 
 421      4145534E 
 421      495F4300 
 422              	.LC69:
 423 085c 4D424544 		.ascii	"MBEDTLS_AES_C\000"
 423      544C535F 
 423      4145535F 
 423      4300
 424 086a 0000     		.space	2
 425              	.LC70:
 426 086c 4D424544 		.ascii	"MBEDTLS_ARC4_C\000"
 426      544C535F 
 426      41524334 
 426      5F4300
 427 087b 00       		.space	1
 428              	.LC71:
 429 087c 4D424544 		.ascii	"MBEDTLS_ASN1_PARSE_C\000"
 429      544C535F 
 429      41534E31 
ARM GAS  C:\Users\Phuong\AppData\Local\Temp\ccRrQhw7.s 			page 27


 429      5F504152 
 429      53455F43 
 430 0891 000000   		.space	3
 431              	.LC72:
 432 0894 4D424544 		.ascii	"MBEDTLS_ASN1_WRITE_C\000"
 432      544C535F 
 432      41534E31 
 432      5F575249 
 432      54455F43 
 433 08a9 000000   		.space	3
 434              	.LC73:
 435 08ac 4D424544 		.ascii	"MBEDTLS_BASE64_C\000"
 435      544C535F 
 435      42415345 
 435      36345F43 
 435      00
 436 08bd 000000   		.space	3
 437              	.LC74:
 438 08c0 4D424544 		.ascii	"MBEDTLS_BIGNUM_C\000"
 438      544C535F 
 438      4249474E 
 438      554D5F43 
 438      00
 439 08d1 000000   		.space	3
 440              	.LC75:
 441 08d4 4D424544 		.ascii	"MBEDTLS_BLOWFISH_C\000"
 441      544C535F 
 441      424C4F57 
 441      46495348 
 441      5F4300
 442 08e7 00       		.space	1
 443              	.LC76:
 444 08e8 4D424544 		.ascii	"MBEDTLS_CAMELLIA_C\000"
 444      544C535F 
 444      43414D45 
 444      4C4C4941 
 444      5F4300
 445 08fb 00       		.space	1
 446              	.LC77:
 447 08fc 4D424544 		.ascii	"MBEDTLS_CCM_C\000"
 447      544C535F 
 447      43434D5F 
 447      4300
 448 090a 0000     		.space	2
 449              	.LC78:
 450 090c 4D424544 		.ascii	"MBEDTLS_CERTS_C\000"
 450      544C535F 
 450      43455254 
 450      535F4300 
 451              	.LC79:
 452 091c 4D424544 		.ascii	"MBEDTLS_CHACHA20_C\000"
 452      544C535F 
 452      43484143 
 452      48413230 
 452      5F4300
 453 092f 00       		.space	1
 454              	.LC80:
ARM GAS  C:\Users\Phuong\AppData\Local\Temp\ccRrQhw7.s 			page 28


 455 0930 4D424544 		.ascii	"MBEDTLS_CHACHAPOLY_C\000"
 455      544C535F 
 455      43484143 
 455      4841504F 
 455      4C595F43 
 456 0945 000000   		.space	3
 457              	.LC81:
 458 0948 4D424544 		.ascii	"MBEDTLS_CIPHER_C\000"
 458      544C535F 
 458      43495048 
 458      45525F43 
 458      00
 459 0959 000000   		.space	3
 460              	.LC82:
 461 095c 4D424544 		.ascii	"MBEDTLS_CTR_DRBG_C\000"
 461      544C535F 
 461      4354525F 
 461      44524247 
 461      5F4300
 462 096f 00       		.space	1
 463              	.LC83:
 464 0970 4D424544 		.ascii	"MBEDTLS_DEBUG_C\000"
 464      544C535F 
 464      44454255 
 464      475F4300 
 465              	.LC84:
 466 0980 4D424544 		.ascii	"MBEDTLS_DES_C\000"
 466      544C535F 
 466      4445535F 
 466      4300
 467 098e 0000     		.space	2
 468              	.LC85:
 469 0990 4D424544 		.ascii	"MBEDTLS_DHM_C\000"
 469      544C535F 
 469      44484D5F 
 469      4300
 470 099e 0000     		.space	2
 471              	.LC86:
 472 09a0 4D424544 		.ascii	"MBEDTLS_ECDH_C\000"
 472      544C535F 
 472      45434448 
 472      5F4300
 473 09af 00       		.space	1
 474              	.LC87:
 475 09b0 4D424544 		.ascii	"MBEDTLS_ECDSA_C\000"
 475      544C535F 
 475      45434453 
 475      415F4300 
 476              	.LC88:
 477 09c0 4D424544 		.ascii	"MBEDTLS_ECP_C\000"
 477      544C535F 
 477      4543505F 
 477      4300
 478 09ce 0000     		.space	2
 479              	.LC89:
 480 09d0 4D424544 		.ascii	"MBEDTLS_ENTROPY_C\000"
 480      544C535F 
ARM GAS  C:\Users\Phuong\AppData\Local\Temp\ccRrQhw7.s 			page 29


 480      454E5452 
 480      4F50595F 
 480      4300
 481 09e2 0000     		.space	2
 482              	.LC90:
 483 09e4 4D424544 		.ascii	"MBEDTLS_ERROR_C\000"
 483      544C535F 
 483      4552524F 
 483      525F4300 
 484              	.LC91:
 485 09f4 4D424544 		.ascii	"MBEDTLS_GCM_C\000"
 485      544C535F 
 485      47434D5F 
 485      4300
 486 0a02 0000     		.space	2
 487              	.LC92:
 488 0a04 4D424544 		.ascii	"MBEDTLS_HKDF_C\000"
 488      544C535F 
 488      484B4446 
 488      5F4300
 489 0a13 00       		.space	1
 490              	.LC93:
 491 0a14 4D424544 		.ascii	"MBEDTLS_HMAC_DRBG_C\000"
 491      544C535F 
 491      484D4143 
 491      5F445242 
 491      475F4300 
 492              	.LC94:
 493 0a28 4D424544 		.ascii	"MBEDTLS_MD_C\000"
 493      544C535F 
 493      4D445F43 
 493      00
 494 0a35 000000   		.space	3
 495              	.LC95:
 496 0a38 4D424544 		.ascii	"MBEDTLS_MD5_C\000"
 496      544C535F 
 496      4D44355F 
 496      4300
 497 0a46 0000     		.space	2
 498              	.LC96:
 499 0a48 4D424544 		.ascii	"MBEDTLS_OID_C\000"
 499      544C535F 
 499      4F49445F 
 499      4300
 500 0a56 0000     		.space	2
 501              	.LC97:
 502 0a58 4D424544 		.ascii	"MBEDTLS_PADLOCK_C\000"
 502      544C535F 
 502      5041444C 
 502      4F434B5F 
 502      4300
 503 0a6a 0000     		.space	2
 504              	.LC98:
 505 0a6c 4D424544 		.ascii	"MBEDTLS_PEM_PARSE_C\000"
 505      544C535F 
 505      50454D5F 
 505      50415253 
ARM GAS  C:\Users\Phuong\AppData\Local\Temp\ccRrQhw7.s 			page 30


 505      455F4300 
 506              	.LC99:
 507 0a80 4D424544 		.ascii	"MBEDTLS_PEM_WRITE_C\000"
 507      544C535F 
 507      50454D5F 
 507      57524954 
 507      455F4300 
 508              	.LC100:
 509 0a94 4D424544 		.ascii	"MBEDTLS_PK_C\000"
 509      544C535F 
 509      504B5F43 
 509      00
 510 0aa1 000000   		.space	3
 511              	.LC101:
 512 0aa4 4D424544 		.ascii	"MBEDTLS_PK_PARSE_C\000"
 512      544C535F 
 512      504B5F50 
 512      41525345 
 512      5F4300
 513 0ab7 00       		.space	1
 514              	.LC102:
 515 0ab8 4D424544 		.ascii	"MBEDTLS_PK_WRITE_C\000"
 515      544C535F 
 515      504B5F57 
 515      52495445 
 515      5F4300
 516 0acb 00       		.space	1
 517              	.LC103:
 518 0acc 4D424544 		.ascii	"MBEDTLS_PKCS5_C\000"
 518      544C535F 
 518      504B4353 
 518      355F4300 
 519              	.LC104:
 520 0adc 4D424544 		.ascii	"MBEDTLS_PKCS12_C\000"
 520      544C535F 
 520      504B4353 
 520      31325F43 
 520      00
 521 0aed 000000   		.space	3
 522              	.LC105:
 523 0af0 4D424544 		.ascii	"MBEDTLS_PLATFORM_C\000"
 523      544C535F 
 523      504C4154 
 523      464F524D 
 523      5F4300
 524 0b03 00       		.space	1
 525              	.LC106:
 526 0b04 4D424544 		.ascii	"MBEDTLS_POLY1305_C\000"
 526      544C535F 
 526      504F4C59 
 526      31333035 
 526      5F4300
 527 0b17 00       		.space	1
 528              	.LC107:
 529 0b18 4D424544 		.ascii	"MBEDTLS_RIPEMD160_C\000"
 529      544C535F 
 529      52495045 
ARM GAS  C:\Users\Phuong\AppData\Local\Temp\ccRrQhw7.s 			page 31


 529      4D443136 
 529      305F4300 
 530              	.LC108:
 531 0b2c 4D424544 		.ascii	"MBEDTLS_RSA_C\000"
 531      544C535F 
 531      5253415F 
 531      4300
 532 0b3a 0000     		.space	2
 533              	.LC109:
 534 0b3c 4D424544 		.ascii	"MBEDTLS_SHA1_C\000"
 534      544C535F 
 534      53484131 
 534      5F4300
 535 0b4b 00       		.space	1
 536              	.LC110:
 537 0b4c 4D424544 		.ascii	"MBEDTLS_SHA256_C\000"
 537      544C535F 
 537      53484132 
 537      35365F43 
 537      00
 538 0b5d 000000   		.space	3
 539              	.LC111:
 540 0b60 4D424544 		.ascii	"MBEDTLS_SHA512_C\000"
 540      544C535F 
 540      53484135 
 540      31325F43 
 540      00
 541 0b71 000000   		.space	3
 542              	.LC112:
 543 0b74 4D424544 		.ascii	"MBEDTLS_SSL_CACHE_C\000"
 543      544C535F 
 543      53534C5F 
 543      43414348 
 543      455F4300 
 544              	.LC113:
 545 0b88 4D424544 		.ascii	"MBEDTLS_SSL_COOKIE_C\000"
 545      544C535F 
 545      53534C5F 
 545      434F4F4B 
 545      49455F43 
 546 0b9d 000000   		.space	3
 547              	.LC114:
 548 0ba0 4D424544 		.ascii	"MBEDTLS_SSL_TICKET_C\000"
 548      544C535F 
 548      53534C5F 
 548      5449434B 
 548      45545F43 
 549 0bb5 000000   		.space	3
 550              	.LC115:
 551 0bb8 4D424544 		.ascii	"MBEDTLS_SSL_CLI_C\000"
 551      544C535F 
 551      53534C5F 
 551      434C495F 
 551      4300
 552 0bca 0000     		.space	2
 553              	.LC116:
 554 0bcc 4D424544 		.ascii	"MBEDTLS_SSL_SRV_C\000"
ARM GAS  C:\Users\Phuong\AppData\Local\Temp\ccRrQhw7.s 			page 32


 554      544C535F 
 554      53534C5F 
 554      5352565F 
 554      4300
 555 0bde 0000     		.space	2
 556              	.LC117:
 557 0be0 4D424544 		.ascii	"MBEDTLS_SSL_TLS_C\000"
 557      544C535F 
 557      53534C5F 
 557      544C535F 
 557      4300
 558 0bf2 0000     		.space	2
 559              	.LC118:
 560 0bf4 4D424544 		.ascii	"MBEDTLS_VERSION_C\000"
 560      544C535F 
 560      56455253 
 560      494F4E5F 
 560      4300
 561 0c06 0000     		.space	2
 562              	.LC119:
 563 0c08 4D424544 		.ascii	"MBEDTLS_X509_USE_C\000"
 563      544C535F 
 563      58353039 
 563      5F555345 
 563      5F4300
 564 0c1b 00       		.space	1
 565              	.LC120:
 566 0c1c 4D424544 		.ascii	"MBEDTLS_X509_CRT_PARSE_C\000"
 566      544C535F 
 566      58353039 
 566      5F435254 
 566      5F504152 
 567 0c35 000000   		.space	3
 568              	.LC121:
 569 0c38 4D424544 		.ascii	"MBEDTLS_X509_CRL_PARSE_C\000"
 569      544C535F 
 569      58353039 
 569      5F43524C 
 569      5F504152 
 570 0c51 000000   		.space	3
 571              	.LC122:
 572 0c54 4D424544 		.ascii	"MBEDTLS_X509_CSR_PARSE_C\000"
 572      544C535F 
 572      58353039 
 572      5F435352 
 572      5F504152 
 573 0c6d 000000   		.space	3
 574              	.LC123:
 575 0c70 4D424544 		.ascii	"MBEDTLS_X509_CREATE_C\000"
 575      544C535F 
 575      58353039 
 575      5F435245 
 575      4154455F 
 576 0c86 0000     		.space	2
 577              	.LC124:
 578 0c88 4D424544 		.ascii	"MBEDTLS_X509_CRT_WRITE_C\000"
 578      544C535F 
ARM GAS  C:\Users\Phuong\AppData\Local\Temp\ccRrQhw7.s 			page 33


 578      58353039 
 578      5F435254 
 578      5F575249 
 579 0ca1 000000   		.space	3
 580              	.LC125:
 581 0ca4 4D424544 		.ascii	"MBEDTLS_X509_CSR_WRITE_C\000"
 581      544C535F 
 581      58353039 
 581      5F435352 
 581      5F575249 
 582 0cbd 000000   		.space	3
 583              	.LC126:
 584 0cc0 4D424544 		.ascii	"MBEDTLS_XTEA_C\000"
 584      544C535F 
 584      58544541 
 584      5F4300
 585              		.text
 586              	.Letext0:
 587              		.file 2 "c:\\program files (x86)\\cypress\\psoc creator\\4.2\\psoc creator\\import\\gnu\\arm\\5.4.