ARM GAS  C:\Users\Phuong\AppData\Local\Temp\ccqvrWt4.s 			page 1


   1              		.syntax unified
   2              		.cpu cortex-m0plus
   3              		.fpu softvfp
   4              		.eabi_attribute 20, 1
   5              		.eabi_attribute 21, 1
   6              		.eabi_attribute 23, 3
   7              		.eabi_attribute 24, 1
   8              		.eabi_attribute 25, 1
   9              		.eabi_attribute 26, 1
  10              		.eabi_attribute 30, 1
  11              		.eabi_attribute 34, 0
  12              		.eabi_attribute 18, 4
  13              		.thumb
  14              		.syntax unified
  15              		.file	"x509_crl.c"
  16              		.text
  17              	.Ltext0:
  18              		.cfi_sections	.debug_frame
  19              		.section	.text.x509_get_crl_entry_ext,"ax",%progbits
  20              		.align	2
  21              		.code	16
  22              		.thumb_func
  23              		.type	x509_get_crl_entry_ext, %function
  24              	x509_get_crl_entry_ext:
  25              	.LFB13:
  26              		.file 1 "Source\\mbedtls_open\\library\\x509_crl.c"
   1:Source\mbedtls_open\library/x509_crl.c **** /*
   2:Source\mbedtls_open\library/x509_crl.c ****  *  X.509 Certidicate Revocation List (CRL) parsing
   3:Source\mbedtls_open\library/x509_crl.c ****  *
   4:Source\mbedtls_open\library/x509_crl.c ****  *  Copyright (C) 2006-2015, ARM Limited, All Rights Reserved
   5:Source\mbedtls_open\library/x509_crl.c ****  *  SPDX-License-Identifier: Apache-2.0
   6:Source\mbedtls_open\library/x509_crl.c ****  *
   7:Source\mbedtls_open\library/x509_crl.c ****  *  Licensed under the Apache License, Version 2.0 (the "License"); you may
   8:Source\mbedtls_open\library/x509_crl.c ****  *  not use this file except in compliance with the License.
   9:Source\mbedtls_open\library/x509_crl.c ****  *  You may obtain a copy of the License at
  10:Source\mbedtls_open\library/x509_crl.c ****  *
  11:Source\mbedtls_open\library/x509_crl.c ****  *  http://www.apache.org/licenses/LICENSE-2.0
  12:Source\mbedtls_open\library/x509_crl.c ****  *
  13:Source\mbedtls_open\library/x509_crl.c ****  *  Unless required by applicable law or agreed to in writing, software
  14:Source\mbedtls_open\library/x509_crl.c ****  *  distributed under the License is distributed on an "AS IS" BASIS, WITHOUT
  15:Source\mbedtls_open\library/x509_crl.c ****  *  WARRANTIES OR CONDITIONS OF ANY KIND, either express or implied.
  16:Source\mbedtls_open\library/x509_crl.c ****  *  See the License for the specific language governing permissions and
  17:Source\mbedtls_open\library/x509_crl.c ****  *  limitations under the License.
  18:Source\mbedtls_open\library/x509_crl.c ****  *
  19:Source\mbedtls_open\library/x509_crl.c ****  *  This file is part of mbed TLS (https://tls.mbed.org)
  20:Source\mbedtls_open\library/x509_crl.c ****  */
  21:Source\mbedtls_open\library/x509_crl.c **** /*
  22:Source\mbedtls_open\library/x509_crl.c ****  *  The ITU-T X.509 standard defines a certificate format for PKI.
  23:Source\mbedtls_open\library/x509_crl.c ****  *
  24:Source\mbedtls_open\library/x509_crl.c ****  *  http://www.ietf.org/rfc/rfc5280.txt (Certificates and CRLs)
  25:Source\mbedtls_open\library/x509_crl.c ****  *  http://www.ietf.org/rfc/rfc3279.txt (Alg IDs for CRLs)
  26:Source\mbedtls_open\library/x509_crl.c ****  *  http://www.ietf.org/rfc/rfc2986.txt (CSRs, aka PKCS#10)
  27:Source\mbedtls_open\library/x509_crl.c ****  *
  28:Source\mbedtls_open\library/x509_crl.c ****  *  http://www.itu.int/ITU-T/studygroups/com17/languages/X.680-0207.pdf
  29:Source\mbedtls_open\library/x509_crl.c ****  *  http://www.itu.int/ITU-T/studygroups/com17/languages/X.690-0207.pdf
  30:Source\mbedtls_open\library/x509_crl.c ****  */
  31:Source\mbedtls_open\library/x509_crl.c **** 
ARM GAS  C:\Users\Phuong\AppData\Local\Temp\ccqvrWt4.s 			page 2


  32:Source\mbedtls_open\library/x509_crl.c **** #if !defined(MBEDTLS_CONFIG_FILE)
  33:Source\mbedtls_open\library/x509_crl.c **** #include "mbedtls/config.h"
  34:Source\mbedtls_open\library/x509_crl.c **** #else
  35:Source\mbedtls_open\library/x509_crl.c **** #include MBEDTLS_CONFIG_FILE
  36:Source\mbedtls_open\library/x509_crl.c **** #endif
  37:Source\mbedtls_open\library/x509_crl.c **** 
  38:Source\mbedtls_open\library/x509_crl.c **** #if defined(MBEDTLS_X509_CRL_PARSE_C)
  39:Source\mbedtls_open\library/x509_crl.c **** 
  40:Source\mbedtls_open\library/x509_crl.c **** #include "mbedtls/x509_crl.h"
  41:Source\mbedtls_open\library/x509_crl.c **** #include "mbedtls/oid.h"
  42:Source\mbedtls_open\library/x509_crl.c **** #include "mbedtls/platform_util.h"
  43:Source\mbedtls_open\library/x509_crl.c **** 
  44:Source\mbedtls_open\library/x509_crl.c **** #include <string.h>
  45:Source\mbedtls_open\library/x509_crl.c **** 
  46:Source\mbedtls_open\library/x509_crl.c **** #if defined(MBEDTLS_PEM_PARSE_C)
  47:Source\mbedtls_open\library/x509_crl.c **** #include "mbedtls/pem.h"
  48:Source\mbedtls_open\library/x509_crl.c **** #endif
  49:Source\mbedtls_open\library/x509_crl.c **** 
  50:Source\mbedtls_open\library/x509_crl.c **** #if defined(MBEDTLS_PLATFORM_C)
  51:Source\mbedtls_open\library/x509_crl.c **** #include "mbedtls/platform.h"
  52:Source\mbedtls_open\library/x509_crl.c **** #else
  53:Source\mbedtls_open\library/x509_crl.c **** #include <stdlib.h>
  54:Source\mbedtls_open\library/x509_crl.c **** #include <stdio.h>
  55:Source\mbedtls_open\library/x509_crl.c **** #define mbedtls_free       free
  56:Source\mbedtls_open\library/x509_crl.c **** #define mbedtls_calloc    calloc
  57:Source\mbedtls_open\library/x509_crl.c **** #define mbedtls_snprintf   snprintf
  58:Source\mbedtls_open\library/x509_crl.c **** #endif
  59:Source\mbedtls_open\library/x509_crl.c **** 
  60:Source\mbedtls_open\library/x509_crl.c **** #if defined(_WIN32) && !defined(EFIX64) && !defined(EFI32)
  61:Source\mbedtls_open\library/x509_crl.c **** #include <windows.h>
  62:Source\mbedtls_open\library/x509_crl.c **** #else
  63:Source\mbedtls_open\library/x509_crl.c **** #include <time.h>
  64:Source\mbedtls_open\library/x509_crl.c **** #endif
  65:Source\mbedtls_open\library/x509_crl.c **** 
  66:Source\mbedtls_open\library/x509_crl.c **** #if defined(MBEDTLS_FS_IO) || defined(EFIX64) || defined(EFI32)
  67:Source\mbedtls_open\library/x509_crl.c **** #include <stdio.h>
  68:Source\mbedtls_open\library/x509_crl.c **** #endif
  69:Source\mbedtls_open\library/x509_crl.c **** 
  70:Source\mbedtls_open\library/x509_crl.c **** /*
  71:Source\mbedtls_open\library/x509_crl.c ****  *  Version  ::=  INTEGER  {  v1(0), v2(1)  }
  72:Source\mbedtls_open\library/x509_crl.c ****  */
  73:Source\mbedtls_open\library/x509_crl.c **** static int x509_crl_get_version( unsigned char **p,
  74:Source\mbedtls_open\library/x509_crl.c ****                              const unsigned char *end,
  75:Source\mbedtls_open\library/x509_crl.c ****                              int *ver )
  76:Source\mbedtls_open\library/x509_crl.c **** {
  77:Source\mbedtls_open\library/x509_crl.c ****     int ret;
  78:Source\mbedtls_open\library/x509_crl.c **** 
  79:Source\mbedtls_open\library/x509_crl.c ****     if( ( ret = mbedtls_asn1_get_int( p, end, ver ) ) != 0 )
  80:Source\mbedtls_open\library/x509_crl.c ****     {
  81:Source\mbedtls_open\library/x509_crl.c ****         if( ret == MBEDTLS_ERR_ASN1_UNEXPECTED_TAG )
  82:Source\mbedtls_open\library/x509_crl.c ****         {
  83:Source\mbedtls_open\library/x509_crl.c ****             *ver = 0;
  84:Source\mbedtls_open\library/x509_crl.c ****             return( 0 );
  85:Source\mbedtls_open\library/x509_crl.c ****         }
  86:Source\mbedtls_open\library/x509_crl.c **** 
  87:Source\mbedtls_open\library/x509_crl.c ****         return( MBEDTLS_ERR_X509_INVALID_VERSION + ret );
  88:Source\mbedtls_open\library/x509_crl.c ****     }
ARM GAS  C:\Users\Phuong\AppData\Local\Temp\ccqvrWt4.s 			page 3


  89:Source\mbedtls_open\library/x509_crl.c **** 
  90:Source\mbedtls_open\library/x509_crl.c ****     return( 0 );
  91:Source\mbedtls_open\library/x509_crl.c **** }
  92:Source\mbedtls_open\library/x509_crl.c **** 
  93:Source\mbedtls_open\library/x509_crl.c **** /*
  94:Source\mbedtls_open\library/x509_crl.c ****  * X.509 CRL v2 extensions
  95:Source\mbedtls_open\library/x509_crl.c ****  *
  96:Source\mbedtls_open\library/x509_crl.c ****  * We currently don't parse any extension's content, but we do check that the
  97:Source\mbedtls_open\library/x509_crl.c ****  * list of extensions is well-formed and abort on critical extensions (that
  98:Source\mbedtls_open\library/x509_crl.c ****  * are unsupported as we don't support any extension so far)
  99:Source\mbedtls_open\library/x509_crl.c ****  */
 100:Source\mbedtls_open\library/x509_crl.c **** static int x509_get_crl_ext( unsigned char **p,
 101:Source\mbedtls_open\library/x509_crl.c ****                              const unsigned char *end,
 102:Source\mbedtls_open\library/x509_crl.c ****                              mbedtls_x509_buf *ext )
 103:Source\mbedtls_open\library/x509_crl.c **** {
 104:Source\mbedtls_open\library/x509_crl.c ****     int ret;
 105:Source\mbedtls_open\library/x509_crl.c **** 
 106:Source\mbedtls_open\library/x509_crl.c ****     /*
 107:Source\mbedtls_open\library/x509_crl.c ****      * crlExtensions           [0]  EXPLICIT Extensions OPTIONAL
 108:Source\mbedtls_open\library/x509_crl.c ****      *                              -- if present, version MUST be v2
 109:Source\mbedtls_open\library/x509_crl.c ****      */
 110:Source\mbedtls_open\library/x509_crl.c ****     if( ( ret = mbedtls_x509_get_ext( p, end, ext, 0 ) ) != 0 )
 111:Source\mbedtls_open\library/x509_crl.c ****     {
 112:Source\mbedtls_open\library/x509_crl.c ****         if( ret == MBEDTLS_ERR_ASN1_UNEXPECTED_TAG )
 113:Source\mbedtls_open\library/x509_crl.c ****             return( 0 );
 114:Source\mbedtls_open\library/x509_crl.c **** 
 115:Source\mbedtls_open\library/x509_crl.c ****         return( ret );
 116:Source\mbedtls_open\library/x509_crl.c ****     }
 117:Source\mbedtls_open\library/x509_crl.c **** 
 118:Source\mbedtls_open\library/x509_crl.c ****     while( *p < end )
 119:Source\mbedtls_open\library/x509_crl.c ****     {
 120:Source\mbedtls_open\library/x509_crl.c ****         /*
 121:Source\mbedtls_open\library/x509_crl.c ****          * Extension  ::=  SEQUENCE  {
 122:Source\mbedtls_open\library/x509_crl.c ****          *      extnID      OBJECT IDENTIFIER,
 123:Source\mbedtls_open\library/x509_crl.c ****          *      critical    BOOLEAN DEFAULT FALSE,
 124:Source\mbedtls_open\library/x509_crl.c ****          *      extnValue   OCTET STRING  }
 125:Source\mbedtls_open\library/x509_crl.c ****          */
 126:Source\mbedtls_open\library/x509_crl.c ****         int is_critical = 0;
 127:Source\mbedtls_open\library/x509_crl.c ****         const unsigned char *end_ext_data;
 128:Source\mbedtls_open\library/x509_crl.c ****         size_t len;
 129:Source\mbedtls_open\library/x509_crl.c **** 
 130:Source\mbedtls_open\library/x509_crl.c ****         /* Get enclosing sequence tag */
 131:Source\mbedtls_open\library/x509_crl.c ****         if( ( ret = mbedtls_asn1_get_tag( p, end, &len,
 132:Source\mbedtls_open\library/x509_crl.c ****                 MBEDTLS_ASN1_CONSTRUCTED | MBEDTLS_ASN1_SEQUENCE ) ) != 0 )
 133:Source\mbedtls_open\library/x509_crl.c ****             return( MBEDTLS_ERR_X509_INVALID_EXTENSIONS + ret );
 134:Source\mbedtls_open\library/x509_crl.c **** 
 135:Source\mbedtls_open\library/x509_crl.c ****         end_ext_data = *p + len;
 136:Source\mbedtls_open\library/x509_crl.c **** 
 137:Source\mbedtls_open\library/x509_crl.c ****         /* Get OID (currently ignored) */
 138:Source\mbedtls_open\library/x509_crl.c ****         if( ( ret = mbedtls_asn1_get_tag( p, end_ext_data, &len,
 139:Source\mbedtls_open\library/x509_crl.c ****                                           MBEDTLS_ASN1_OID ) ) != 0 )
 140:Source\mbedtls_open\library/x509_crl.c ****         {
 141:Source\mbedtls_open\library/x509_crl.c ****             return( MBEDTLS_ERR_X509_INVALID_EXTENSIONS + ret );
 142:Source\mbedtls_open\library/x509_crl.c ****         }
 143:Source\mbedtls_open\library/x509_crl.c ****         *p += len;
 144:Source\mbedtls_open\library/x509_crl.c **** 
 145:Source\mbedtls_open\library/x509_crl.c ****         /* Get optional critical */
ARM GAS  C:\Users\Phuong\AppData\Local\Temp\ccqvrWt4.s 			page 4


 146:Source\mbedtls_open\library/x509_crl.c ****         if( ( ret = mbedtls_asn1_get_bool( p, end_ext_data,
 147:Source\mbedtls_open\library/x509_crl.c ****                                            &is_critical ) ) != 0 &&
 148:Source\mbedtls_open\library/x509_crl.c ****             ( ret != MBEDTLS_ERR_ASN1_UNEXPECTED_TAG ) )
 149:Source\mbedtls_open\library/x509_crl.c ****         {
 150:Source\mbedtls_open\library/x509_crl.c ****             return( MBEDTLS_ERR_X509_INVALID_EXTENSIONS + ret );
 151:Source\mbedtls_open\library/x509_crl.c ****         }
 152:Source\mbedtls_open\library/x509_crl.c **** 
 153:Source\mbedtls_open\library/x509_crl.c ****         /* Data should be octet string type */
 154:Source\mbedtls_open\library/x509_crl.c ****         if( ( ret = mbedtls_asn1_get_tag( p, end_ext_data, &len,
 155:Source\mbedtls_open\library/x509_crl.c ****                 MBEDTLS_ASN1_OCTET_STRING ) ) != 0 )
 156:Source\mbedtls_open\library/x509_crl.c ****             return( MBEDTLS_ERR_X509_INVALID_EXTENSIONS + ret );
 157:Source\mbedtls_open\library/x509_crl.c **** 
 158:Source\mbedtls_open\library/x509_crl.c ****         /* Ignore data so far and just check its length */
 159:Source\mbedtls_open\library/x509_crl.c ****         *p += len;
 160:Source\mbedtls_open\library/x509_crl.c ****         if( *p != end_ext_data )
 161:Source\mbedtls_open\library/x509_crl.c ****             return( MBEDTLS_ERR_X509_INVALID_EXTENSIONS +
 162:Source\mbedtls_open\library/x509_crl.c ****                     MBEDTLS_ERR_ASN1_LENGTH_MISMATCH );
 163:Source\mbedtls_open\library/x509_crl.c **** 
 164:Source\mbedtls_open\library/x509_crl.c ****         /* Abort on (unsupported) critical extensions */
 165:Source\mbedtls_open\library/x509_crl.c ****         if( is_critical )
 166:Source\mbedtls_open\library/x509_crl.c ****             return( MBEDTLS_ERR_X509_INVALID_EXTENSIONS +
 167:Source\mbedtls_open\library/x509_crl.c ****                     MBEDTLS_ERR_ASN1_UNEXPECTED_TAG );
 168:Source\mbedtls_open\library/x509_crl.c ****     }
 169:Source\mbedtls_open\library/x509_crl.c **** 
 170:Source\mbedtls_open\library/x509_crl.c ****     if( *p != end )
 171:Source\mbedtls_open\library/x509_crl.c ****         return( MBEDTLS_ERR_X509_INVALID_EXTENSIONS +
 172:Source\mbedtls_open\library/x509_crl.c ****                 MBEDTLS_ERR_ASN1_LENGTH_MISMATCH );
 173:Source\mbedtls_open\library/x509_crl.c **** 
 174:Source\mbedtls_open\library/x509_crl.c ****     return( 0 );
 175:Source\mbedtls_open\library/x509_crl.c **** }
 176:Source\mbedtls_open\library/x509_crl.c **** 
 177:Source\mbedtls_open\library/x509_crl.c **** /*
 178:Source\mbedtls_open\library/x509_crl.c ****  * X.509 CRL v2 entry extensions (no extensions parsed yet.)
 179:Source\mbedtls_open\library/x509_crl.c ****  */
 180:Source\mbedtls_open\library/x509_crl.c **** static int x509_get_crl_entry_ext( unsigned char **p,
 181:Source\mbedtls_open\library/x509_crl.c ****                              const unsigned char *end,
 182:Source\mbedtls_open\library/x509_crl.c ****                              mbedtls_x509_buf *ext )
 183:Source\mbedtls_open\library/x509_crl.c **** {
  27              		.loc 1 183 0
  28              		.cfi_startproc
  29              		@ args = 0, pretend = 0, frame = 8
  30              		@ frame_needed = 0, uses_anonymous_args = 0
  31              	.LVL0:
  32 0000 30B5     		push	{r4, r5, lr}
  33              		.cfi_def_cfa_offset 12
  34              		.cfi_offset 4, -12
  35              		.cfi_offset 5, -8
  36              		.cfi_offset 14, -4
  37 0002 83B0     		sub	sp, sp, #12
  38              		.cfi_def_cfa_offset 24
  39 0004 0400     		movs	r4, r0
  40 0006 1500     		movs	r5, r2
 184:Source\mbedtls_open\library/x509_crl.c ****     int ret;
 185:Source\mbedtls_open\library/x509_crl.c ****     size_t len = 0;
  41              		.loc 1 185 0
  42 0008 0023     		movs	r3, #0
  43 000a 0193     		str	r3, [sp, #4]
ARM GAS  C:\Users\Phuong\AppData\Local\Temp\ccqvrWt4.s 			page 5


 186:Source\mbedtls_open\library/x509_crl.c **** 
 187:Source\mbedtls_open\library/x509_crl.c ****     /* OPTIONAL */
 188:Source\mbedtls_open\library/x509_crl.c ****     if( end <= *p )
  44              		.loc 1 188 0
  45 000c 0368     		ldr	r3, [r0]
  46 000e 8B42     		cmp	r3, r1
  47 0010 30D2     		bcs	.L8
 189:Source\mbedtls_open\library/x509_crl.c ****         return( 0 );
 190:Source\mbedtls_open\library/x509_crl.c **** 
 191:Source\mbedtls_open\library/x509_crl.c ****     ext->tag = **p;
  48              		.loc 1 191 0
  49 0012 1B78     		ldrb	r3, [r3]
  50 0014 1360     		str	r3, [r2]
 192:Source\mbedtls_open\library/x509_crl.c ****     ext->p = *p;
  51              		.loc 1 192 0
  52 0016 0368     		ldr	r3, [r0]
  53 0018 9360     		str	r3, [r2, #8]
 193:Source\mbedtls_open\library/x509_crl.c **** 
 194:Source\mbedtls_open\library/x509_crl.c ****     /*
 195:Source\mbedtls_open\library/x509_crl.c ****      * Get CRL-entry extension sequence header
 196:Source\mbedtls_open\library/x509_crl.c ****      * crlEntryExtensions      Extensions OPTIONAL  -- if present, MUST be v2
 197:Source\mbedtls_open\library/x509_crl.c ****      */
 198:Source\mbedtls_open\library/x509_crl.c ****     if( ( ret = mbedtls_asn1_get_tag( p, end, &ext->len,
  54              		.loc 1 198 0
  55 001a 0432     		adds	r2, r2, #4
  56              	.LVL1:
  57 001c 3023     		movs	r3, #48
  58 001e FFF7FEFF 		bl	mbedtls_asn1_get_tag
  59              	.LVL2:
  60 0022 0028     		cmp	r0, #0
  61 0024 0AD0     		beq	.L3
 199:Source\mbedtls_open\library/x509_crl.c ****             MBEDTLS_ASN1_CONSTRUCTED | MBEDTLS_ASN1_SEQUENCE ) ) != 0 )
 200:Source\mbedtls_open\library/x509_crl.c ****     {
 201:Source\mbedtls_open\library/x509_crl.c ****         if( ret == MBEDTLS_ERR_ASN1_UNEXPECTED_TAG )
  62              		.loc 1 201 0
  63 0026 0300     		movs	r3, r0
  64 0028 6233     		adds	r3, r3, #98
  65 002a 03D1     		bne	.L4
 202:Source\mbedtls_open\library/x509_crl.c ****         {
 203:Source\mbedtls_open\library/x509_crl.c ****             ext->p = NULL;
  66              		.loc 1 203 0
  67 002c 0023     		movs	r3, #0
  68 002e AB60     		str	r3, [r5, #8]
 204:Source\mbedtls_open\library/x509_crl.c ****             return( 0 );
  69              		.loc 1 204 0
  70 0030 0020     		movs	r0, #0
  71              	.LVL3:
  72 0032 22E0     		b	.L2
  73              	.LVL4:
  74              	.L4:
 205:Source\mbedtls_open\library/x509_crl.c ****         }
 206:Source\mbedtls_open\library/x509_crl.c ****         return( MBEDTLS_ERR_X509_INVALID_EXTENSIONS + ret );
  75              		.loc 1 206 0
  76 0034 124B     		ldr	r3, .L10
  77 0036 9C46     		mov	ip, r3
  78 0038 6044     		add	r0, r0, ip
  79              	.LVL5:
ARM GAS  C:\Users\Phuong\AppData\Local\Temp\ccqvrWt4.s 			page 6


  80 003a 1EE0     		b	.L2
  81              	.LVL6:
  82              	.L3:
 207:Source\mbedtls_open\library/x509_crl.c ****     }
 208:Source\mbedtls_open\library/x509_crl.c **** 
 209:Source\mbedtls_open\library/x509_crl.c ****     end = *p + ext->len;
  83              		.loc 1 209 0
  84 003c 6D68     		ldr	r5, [r5, #4]
  85              	.LVL7:
  86 003e 2368     		ldr	r3, [r4]
  87 0040 9C46     		mov	ip, r3
  88 0042 6544     		add	r5, r5, ip
  89              	.LVL8:
  90 0044 10E0     		b	.L5
  91              	.L7:
 210:Source\mbedtls_open\library/x509_crl.c **** 
 211:Source\mbedtls_open\library/x509_crl.c ****     if( end != *p + ext->len )
 212:Source\mbedtls_open\library/x509_crl.c ****         return( MBEDTLS_ERR_X509_INVALID_EXTENSIONS +
 213:Source\mbedtls_open\library/x509_crl.c ****                 MBEDTLS_ERR_ASN1_LENGTH_MISMATCH );
 214:Source\mbedtls_open\library/x509_crl.c **** 
 215:Source\mbedtls_open\library/x509_crl.c ****     while( *p < end )
 216:Source\mbedtls_open\library/x509_crl.c ****     {
 217:Source\mbedtls_open\library/x509_crl.c ****         if( ( ret = mbedtls_asn1_get_tag( p, end, &len,
  92              		.loc 1 217 0
  93 0046 3023     		movs	r3, #48
  94 0048 01AA     		add	r2, sp, #4
  95 004a 2900     		movs	r1, r5
  96 004c 2000     		movs	r0, r4
  97              	.LVL9:
  98 004e FFF7FEFF 		bl	mbedtls_asn1_get_tag
  99              	.LVL10:
 100 0052 0028     		cmp	r0, #0
 101 0054 03D0     		beq	.L6
 218:Source\mbedtls_open\library/x509_crl.c ****                 MBEDTLS_ASN1_CONSTRUCTED | MBEDTLS_ASN1_SEQUENCE ) ) != 0 )
 219:Source\mbedtls_open\library/x509_crl.c ****             return( MBEDTLS_ERR_X509_INVALID_EXTENSIONS + ret );
 102              		.loc 1 219 0
 103 0056 0A4B     		ldr	r3, .L10
 104 0058 9C46     		mov	ip, r3
 105 005a 6044     		add	r0, r0, ip
 106              	.LVL11:
 107 005c 0DE0     		b	.L2
 108              	.LVL12:
 109              	.L6:
 220:Source\mbedtls_open\library/x509_crl.c **** 
 221:Source\mbedtls_open\library/x509_crl.c ****         *p += len;
 110              		.loc 1 221 0
 111 005e 2368     		ldr	r3, [r4]
 112 0060 019A     		ldr	r2, [sp, #4]
 113 0062 9446     		mov	ip, r2
 114 0064 6344     		add	r3, r3, ip
 115 0066 2360     		str	r3, [r4]
 116              	.L5:
 215:Source\mbedtls_open\library/x509_crl.c ****     {
 117              		.loc 1 215 0
 118 0068 2368     		ldr	r3, [r4]
 119 006a 9D42     		cmp	r5, r3
 120 006c EBD8     		bhi	.L7
ARM GAS  C:\Users\Phuong\AppData\Local\Temp\ccqvrWt4.s 			page 7


 222:Source\mbedtls_open\library/x509_crl.c ****     }
 223:Source\mbedtls_open\library/x509_crl.c **** 
 224:Source\mbedtls_open\library/x509_crl.c ****     if( *p != end )
 121              		.loc 1 224 0
 122 006e 03D0     		beq	.L9
 225:Source\mbedtls_open\library/x509_crl.c ****         return( MBEDTLS_ERR_X509_INVALID_EXTENSIONS +
 123              		.loc 1 225 0
 124 0070 0448     		ldr	r0, .L10+4
 125              	.LVL13:
 126 0072 02E0     		b	.L2
 127              	.LVL14:
 128              	.L8:
 189:Source\mbedtls_open\library/x509_crl.c **** 
 129              		.loc 1 189 0
 130 0074 0020     		movs	r0, #0
 131              	.LVL15:
 132 0076 00E0     		b	.L2
 133              	.LVL16:
 134              	.L9:
 226:Source\mbedtls_open\library/x509_crl.c ****                 MBEDTLS_ERR_ASN1_LENGTH_MISMATCH );
 227:Source\mbedtls_open\library/x509_crl.c **** 
 228:Source\mbedtls_open\library/x509_crl.c ****     return( 0 );
 135              		.loc 1 228 0
 136 0078 0020     		movs	r0, #0
 137              	.LVL17:
 138              	.L2:
 229:Source\mbedtls_open\library/x509_crl.c **** }
 139              		.loc 1 229 0
 140 007a 03B0     		add	sp, sp, #12
 141              		@ sp needed
 142              	.LVL18:
 143 007c 30BD     		pop	{r4, r5, pc}
 144              	.L11:
 145 007e C046     		.align	2
 146              	.L10:
 147 0080 00DBFFFF 		.word	-9472
 148 0084 9ADAFFFF 		.word	-9574
 149              		.cfi_endproc
 150              	.LFE13:
 151              		.size	x509_get_crl_entry_ext, .-x509_get_crl_entry_ext
 152              		.section	.text.x509_crl_get_version,"ax",%progbits
 153              		.align	2
 154              		.code	16
 155              		.thumb_func
 156              		.type	x509_crl_get_version, %function
 157              	x509_crl_get_version:
 158              	.LFB11:
  76:Source\mbedtls_open\library/x509_crl.c ****     int ret;
 159              		.loc 1 76 0
 160              		.cfi_startproc
 161              		@ args = 0, pretend = 0, frame = 0
 162              		@ frame_needed = 0, uses_anonymous_args = 0
 163              	.LVL19:
 164 0000 10B5     		push	{r4, lr}
 165              		.cfi_def_cfa_offset 8
 166              		.cfi_offset 4, -8
 167              		.cfi_offset 14, -4
ARM GAS  C:\Users\Phuong\AppData\Local\Temp\ccqvrWt4.s 			page 8


 168 0002 1400     		movs	r4, r2
  79:Source\mbedtls_open\library/x509_crl.c ****     {
 169              		.loc 1 79 0
 170 0004 FFF7FEFF 		bl	mbedtls_asn1_get_int
 171              	.LVL20:
 172 0008 0028     		cmp	r0, #0
 173 000a 0AD0     		beq	.L15
  81:Source\mbedtls_open\library/x509_crl.c ****         {
 174              		.loc 1 81 0
 175 000c 0300     		movs	r3, r0
 176 000e 6233     		adds	r3, r3, #98
 177 0010 03D1     		bne	.L14
  83:Source\mbedtls_open\library/x509_crl.c ****             return( 0 );
 178              		.loc 1 83 0
 179 0012 0023     		movs	r3, #0
 180 0014 2360     		str	r3, [r4]
  84:Source\mbedtls_open\library/x509_crl.c ****         }
 181              		.loc 1 84 0
 182 0016 0020     		movs	r0, #0
 183              	.LVL21:
 184 0018 04E0     		b	.L13
 185              	.LVL22:
 186              	.L14:
  87:Source\mbedtls_open\library/x509_crl.c ****     }
 187              		.loc 1 87 0
 188 001a 034B     		ldr	r3, .L16
 189 001c 9C46     		mov	ip, r3
 190 001e 6044     		add	r0, r0, ip
 191              	.LVL23:
 192 0020 00E0     		b	.L13
 193              	.LVL24:
 194              	.L15:
  90:Source\mbedtls_open\library/x509_crl.c **** }
 195              		.loc 1 90 0
 196 0022 0020     		movs	r0, #0
 197              	.LVL25:
 198              	.L13:
  91:Source\mbedtls_open\library/x509_crl.c **** 
 199              		.loc 1 91 0
 200              		@ sp needed
 201              	.LVL26:
 202 0024 10BD     		pop	{r4, pc}
 203              	.L17:
 204 0026 C046     		.align	2
 205              	.L16:
 206 0028 00DEFFFF 		.word	-8704
 207              		.cfi_endproc
 208              	.LFE11:
 209              		.size	x509_crl_get_version, .-x509_crl_get_version
 210              		.section	.text.x509_get_entries,"ax",%progbits
 211              		.align	2
 212              		.code	16
 213              		.thumb_func
 214              		.type	x509_get_entries, %function
 215              	x509_get_entries:
 216              	.LFB14:
 230:Source\mbedtls_open\library/x509_crl.c **** 
ARM GAS  C:\Users\Phuong\AppData\Local\Temp\ccqvrWt4.s 			page 9


 231:Source\mbedtls_open\library/x509_crl.c **** /*
 232:Source\mbedtls_open\library/x509_crl.c ****  * X.509 CRL Entries
 233:Source\mbedtls_open\library/x509_crl.c ****  */
 234:Source\mbedtls_open\library/x509_crl.c **** static int x509_get_entries( unsigned char **p,
 235:Source\mbedtls_open\library/x509_crl.c ****                              const unsigned char *end,
 236:Source\mbedtls_open\library/x509_crl.c ****                              mbedtls_x509_crl_entry *entry )
 237:Source\mbedtls_open\library/x509_crl.c **** {
 217              		.loc 1 237 0
 218              		.cfi_startproc
 219              		@ args = 0, pretend = 0, frame = 8
 220              		@ frame_needed = 0, uses_anonymous_args = 0
 221              	.LVL27:
 222 0000 F0B5     		push	{r4, r5, r6, r7, lr}
 223              		.cfi_def_cfa_offset 20
 224              		.cfi_offset 4, -20
 225              		.cfi_offset 5, -16
 226              		.cfi_offset 6, -12
 227              		.cfi_offset 7, -8
 228              		.cfi_offset 14, -4
 229 0002 83B0     		sub	sp, sp, #12
 230              		.cfi_def_cfa_offset 32
 231 0004 0400     		movs	r4, r0
 232 0006 1600     		movs	r6, r2
 233              	.LVL28:
 238:Source\mbedtls_open\library/x509_crl.c ****     int ret;
 239:Source\mbedtls_open\library/x509_crl.c ****     size_t entry_len;
 240:Source\mbedtls_open\library/x509_crl.c ****     mbedtls_x509_crl_entry *cur_entry = entry;
 241:Source\mbedtls_open\library/x509_crl.c **** 
 242:Source\mbedtls_open\library/x509_crl.c ****     if( *p == end )
 234              		.loc 1 242 0
 235 0008 0368     		ldr	r3, [r0]
 236 000a 8B42     		cmp	r3, r1
 237 000c 4DD0     		beq	.L25
 243:Source\mbedtls_open\library/x509_crl.c ****         return( 0 );
 244:Source\mbedtls_open\library/x509_crl.c **** 
 245:Source\mbedtls_open\library/x509_crl.c ****     if( ( ret = mbedtls_asn1_get_tag( p, end, &entry_len,
 238              		.loc 1 245 0
 239 000e 3023     		movs	r3, #48
 240 0010 01AA     		add	r2, sp, #4
 241              	.LVL29:
 242 0012 FFF7FEFF 		bl	mbedtls_asn1_get_tag
 243              	.LVL30:
 244 0016 0028     		cmp	r0, #0
 245 0018 04D0     		beq	.L20
 246:Source\mbedtls_open\library/x509_crl.c ****             MBEDTLS_ASN1_SEQUENCE | MBEDTLS_ASN1_CONSTRUCTED ) ) != 0 )
 247:Source\mbedtls_open\library/x509_crl.c ****     {
 248:Source\mbedtls_open\library/x509_crl.c ****         if( ret == MBEDTLS_ERR_ASN1_UNEXPECTED_TAG )
 246              		.loc 1 248 0
 247 001a 0300     		movs	r3, r0
 248 001c 6233     		adds	r3, r3, #98
 249 001e 45D1     		bne	.L19
 249:Source\mbedtls_open\library/x509_crl.c ****             return( 0 );
 250              		.loc 1 249 0
 251 0020 0020     		movs	r0, #0
 252              	.LVL31:
 253 0022 43E0     		b	.L19
 254              	.LVL32:
ARM GAS  C:\Users\Phuong\AppData\Local\Temp\ccqvrWt4.s 			page 10


 255              	.L20:
 250:Source\mbedtls_open\library/x509_crl.c **** 
 251:Source\mbedtls_open\library/x509_crl.c ****         return( ret );
 252:Source\mbedtls_open\library/x509_crl.c ****     }
 253:Source\mbedtls_open\library/x509_crl.c **** 
 254:Source\mbedtls_open\library/x509_crl.c ****     end = *p + entry_len;
 256              		.loc 1 254 0
 257 0024 2368     		ldr	r3, [r4]
 258 0026 019A     		ldr	r2, [sp, #4]
 259 0028 9446     		mov	ip, r2
 260 002a 6344     		add	r3, r3, ip
 261 002c 1F00     		movs	r7, r3
 262              	.LVL33:
 255:Source\mbedtls_open\library/x509_crl.c **** 
 256:Source\mbedtls_open\library/x509_crl.c ****     while( *p < end )
 263              		.loc 1 256 0
 264 002e 37E0     		b	.L21
 265              	.LVL34:
 266              	.L24:
 267              	.LBB2:
 257:Source\mbedtls_open\library/x509_crl.c ****     {
 258:Source\mbedtls_open\library/x509_crl.c ****         size_t len2;
 259:Source\mbedtls_open\library/x509_crl.c ****         const unsigned char *end2;
 260:Source\mbedtls_open\library/x509_crl.c **** 
 261:Source\mbedtls_open\library/x509_crl.c ****         if( ( ret = mbedtls_asn1_get_tag( p, end, &len2,
 268              		.loc 1 261 0
 269 0030 3023     		movs	r3, #48
 270 0032 6A46     		mov	r2, sp
 271 0034 3900     		movs	r1, r7
 272 0036 2000     		movs	r0, r4
 273 0038 FFF7FEFF 		bl	mbedtls_asn1_get_tag
 274              	.LVL35:
 275 003c 0028     		cmp	r0, #0
 276 003e 35D1     		bne	.L19
 262:Source\mbedtls_open\library/x509_crl.c ****                 MBEDTLS_ASN1_SEQUENCE | MBEDTLS_ASN1_CONSTRUCTED ) ) != 0 )
 263:Source\mbedtls_open\library/x509_crl.c ****         {
 264:Source\mbedtls_open\library/x509_crl.c ****             return( ret );
 265:Source\mbedtls_open\library/x509_crl.c ****         }
 266:Source\mbedtls_open\library/x509_crl.c **** 
 267:Source\mbedtls_open\library/x509_crl.c ****         cur_entry->raw.tag = **p;
 277              		.loc 1 267 0
 278 0040 2368     		ldr	r3, [r4]
 279 0042 1B78     		ldrb	r3, [r3]
 280 0044 3360     		str	r3, [r6]
 268:Source\mbedtls_open\library/x509_crl.c ****         cur_entry->raw.p = *p;
 281              		.loc 1 268 0
 282 0046 2368     		ldr	r3, [r4]
 283 0048 B360     		str	r3, [r6, #8]
 269:Source\mbedtls_open\library/x509_crl.c ****         cur_entry->raw.len = len2;
 284              		.loc 1 269 0
 285 004a 009D     		ldr	r5, [sp]
 286 004c 7560     		str	r5, [r6, #4]
 270:Source\mbedtls_open\library/x509_crl.c ****         end2 = *p + len2;
 287              		.loc 1 270 0
 288 004e 2368     		ldr	r3, [r4]
 289 0050 9C46     		mov	ip, r3
 290 0052 6544     		add	r5, r5, ip
ARM GAS  C:\Users\Phuong\AppData\Local\Temp\ccqvrWt4.s 			page 11


 291              	.LVL36:
 271:Source\mbedtls_open\library/x509_crl.c **** 
 272:Source\mbedtls_open\library/x509_crl.c ****         if( ( ret = mbedtls_x509_get_serial( p, end2, &cur_entry->serial ) ) != 0 )
 292              		.loc 1 272 0
 293 0054 3200     		movs	r2, r6
 294 0056 0C32     		adds	r2, r2, #12
 295 0058 2900     		movs	r1, r5
 296 005a 2000     		movs	r0, r4
 297              	.LVL37:
 298 005c FFF7FEFF 		bl	mbedtls_x509_get_serial
 299              	.LVL38:
 300 0060 0028     		cmp	r0, #0
 301 0062 23D1     		bne	.L19
 273:Source\mbedtls_open\library/x509_crl.c ****             return( ret );
 274:Source\mbedtls_open\library/x509_crl.c **** 
 275:Source\mbedtls_open\library/x509_crl.c ****         if( ( ret = mbedtls_x509_get_time( p, end2,
 302              		.loc 1 275 0
 303 0064 3200     		movs	r2, r6
 304 0066 1832     		adds	r2, r2, #24
 305 0068 2900     		movs	r1, r5
 306 006a 2000     		movs	r0, r4
 307              	.LVL39:
 308 006c FFF7FEFF 		bl	mbedtls_x509_get_time
 309              	.LVL40:
 310 0070 0028     		cmp	r0, #0
 311 0072 1BD1     		bne	.L19
 276:Source\mbedtls_open\library/x509_crl.c ****                                    &cur_entry->revocation_date ) ) != 0 )
 277:Source\mbedtls_open\library/x509_crl.c ****             return( ret );
 278:Source\mbedtls_open\library/x509_crl.c **** 
 279:Source\mbedtls_open\library/x509_crl.c ****         if( ( ret = x509_get_crl_entry_ext( p, end2,
 312              		.loc 1 279 0
 313 0074 3200     		movs	r2, r6
 314 0076 3032     		adds	r2, r2, #48
 315 0078 2900     		movs	r1, r5
 316 007a 2000     		movs	r0, r4
 317              	.LVL41:
 318 007c FFF7FEFF 		bl	x509_get_crl_entry_ext
 319              	.LVL42:
 320 0080 0028     		cmp	r0, #0
 321 0082 13D1     		bne	.L19
 280:Source\mbedtls_open\library/x509_crl.c ****                                             &cur_entry->entry_ext ) ) != 0 )
 281:Source\mbedtls_open\library/x509_crl.c ****             return( ret );
 282:Source\mbedtls_open\library/x509_crl.c **** 
 283:Source\mbedtls_open\library/x509_crl.c ****         if( *p < end )
 322              		.loc 1 283 0
 323 0084 2368     		ldr	r3, [r4]
 324 0086 9F42     		cmp	r7, r3
 325 0088 0AD9     		bls	.L21
 284:Source\mbedtls_open\library/x509_crl.c ****         {
 285:Source\mbedtls_open\library/x509_crl.c ****             cur_entry->next = mbedtls_calloc( 1, sizeof( mbedtls_x509_crl_entry ) );
 326              		.loc 1 285 0
 327 008a 4021     		movs	r1, #64
 328 008c 0130     		adds	r0, r0, #1
 329              	.LVL43:
 330 008e FFF7FEFF 		bl	calloc
 331              	.LVL44:
 332 0092 F063     		str	r0, [r6, #60]
ARM GAS  C:\Users\Phuong\AppData\Local\Temp\ccqvrWt4.s 			page 12


 286:Source\mbedtls_open\library/x509_crl.c **** 
 287:Source\mbedtls_open\library/x509_crl.c ****             if( cur_entry->next == NULL )
 333              		.loc 1 287 0
 334 0094 0028     		cmp	r0, #0
 335 0096 01D0     		beq	.L31
 288:Source\mbedtls_open\library/x509_crl.c ****                 return( MBEDTLS_ERR_X509_ALLOC_FAILED );
 289:Source\mbedtls_open\library/x509_crl.c **** 
 290:Source\mbedtls_open\library/x509_crl.c ****             cur_entry = cur_entry->next;
 336              		.loc 1 290 0
 337 0098 0600     		movs	r6, r0
 338              	.LVL45:
 339 009a 01E0     		b	.L21
 340              	.LVL46:
 341              	.L31:
 288:Source\mbedtls_open\library/x509_crl.c ****                 return( MBEDTLS_ERR_X509_ALLOC_FAILED );
 342              		.loc 1 288 0
 343 009c 0448     		ldr	r0, .L32
 344 009e 05E0     		b	.L19
 345              	.LVL47:
 346              	.L21:
 347              	.LBE2:
 256:Source\mbedtls_open\library/x509_crl.c ****     {
 348              		.loc 1 256 0
 349 00a0 2368     		ldr	r3, [r4]
 350 00a2 9F42     		cmp	r7, r3
 351 00a4 C4D8     		bhi	.L24
 291:Source\mbedtls_open\library/x509_crl.c ****         }
 292:Source\mbedtls_open\library/x509_crl.c ****     }
 293:Source\mbedtls_open\library/x509_crl.c **** 
 294:Source\mbedtls_open\library/x509_crl.c ****     return( 0 );
 352              		.loc 1 294 0
 353 00a6 0020     		movs	r0, #0
 354 00a8 00E0     		b	.L19
 355              	.LVL48:
 356              	.L25:
 243:Source\mbedtls_open\library/x509_crl.c **** 
 357              		.loc 1 243 0
 358 00aa 0020     		movs	r0, #0
 359              	.LVL49:
 360              	.L19:
 295:Source\mbedtls_open\library/x509_crl.c **** }
 361              		.loc 1 295 0
 362 00ac 03B0     		add	sp, sp, #12
 363              		@ sp needed
 364              	.LVL50:
 365              	.LVL51:
 366 00ae F0BD     		pop	{r4, r5, r6, r7, pc}
 367              	.L33:
 368              		.align	2
 369              	.L32:
 370 00b0 80D7FFFF 		.word	-10368
 371              		.cfi_endproc
 372              	.LFE14:
 373              		.size	x509_get_entries, .-x509_get_entries
 374              		.section	.text.x509_get_crl_ext,"ax",%progbits
 375              		.align	2
 376              		.code	16
ARM GAS  C:\Users\Phuong\AppData\Local\Temp\ccqvrWt4.s 			page 13


 377              		.thumb_func
 378              		.type	x509_get_crl_ext, %function
 379              	x509_get_crl_ext:
 380              	.LFB12:
 103:Source\mbedtls_open\library/x509_crl.c ****     int ret;
 381              		.loc 1 103 0
 382              		.cfi_startproc
 383              		@ args = 0, pretend = 0, frame = 8
 384              		@ frame_needed = 0, uses_anonymous_args = 0
 385              	.LVL52:
 386 0000 70B5     		push	{r4, r5, r6, lr}
 387              		.cfi_def_cfa_offset 16
 388              		.cfi_offset 4, -16
 389              		.cfi_offset 5, -12
 390              		.cfi_offset 6, -8
 391              		.cfi_offset 14, -4
 392 0002 82B0     		sub	sp, sp, #8
 393              		.cfi_def_cfa_offset 24
 394 0004 0400     		movs	r4, r0
 395 0006 0D00     		movs	r5, r1
 110:Source\mbedtls_open\library/x509_crl.c ****     {
 396              		.loc 1 110 0
 397 0008 0023     		movs	r3, #0
 398 000a FFF7FEFF 		bl	mbedtls_x509_get_ext
 399              	.LVL53:
 400 000e 0028     		cmp	r0, #0
 401 0010 51D0     		beq	.L35
 112:Source\mbedtls_open\library/x509_crl.c ****             return( 0 );
 402              		.loc 1 112 0
 403 0012 0300     		movs	r3, r0
 404 0014 6233     		adds	r3, r3, #98
 405 0016 55D1     		bne	.L36
 113:Source\mbedtls_open\library/x509_crl.c **** 
 406              		.loc 1 113 0
 407 0018 0020     		movs	r0, #0
 408              	.LVL54:
 409 001a 53E0     		b	.L36
 410              	.LVL55:
 411              	.L42:
 412              	.LBB3:
 126:Source\mbedtls_open\library/x509_crl.c ****         const unsigned char *end_ext_data;
 413              		.loc 1 126 0
 414 001c 0023     		movs	r3, #0
 415 001e 0093     		str	r3, [sp]
 131:Source\mbedtls_open\library/x509_crl.c ****                 MBEDTLS_ASN1_CONSTRUCTED | MBEDTLS_ASN1_SEQUENCE ) ) != 0 )
 416              		.loc 1 131 0
 417 0020 3033     		adds	r3, r3, #48
 418 0022 01AA     		add	r2, sp, #4
 419 0024 2900     		movs	r1, r5
 420 0026 2000     		movs	r0, r4
 421              	.LVL56:
 422 0028 FFF7FEFF 		bl	mbedtls_asn1_get_tag
 423              	.LVL57:
 424 002c 0028     		cmp	r0, #0
 425 002e 03D0     		beq	.L37
 133:Source\mbedtls_open\library/x509_crl.c **** 
 426              		.loc 1 133 0
ARM GAS  C:\Users\Phuong\AppData\Local\Temp\ccqvrWt4.s 			page 14


 427 0030 254B     		ldr	r3, .L47
 428 0032 9C46     		mov	ip, r3
 429 0034 6044     		add	r0, r0, ip
 430              	.LVL58:
 431 0036 45E0     		b	.L36
 432              	.LVL59:
 433              	.L37:
 135:Source\mbedtls_open\library/x509_crl.c **** 
 434              		.loc 1 135 0
 435 0038 2368     		ldr	r3, [r4]
 436 003a 019A     		ldr	r2, [sp, #4]
 437 003c 9446     		mov	ip, r2
 438 003e 6344     		add	r3, r3, ip
 439 0040 1E00     		movs	r6, r3
 440              	.LVL60:
 138:Source\mbedtls_open\library/x509_crl.c ****                                           MBEDTLS_ASN1_OID ) ) != 0 )
 441              		.loc 1 138 0
 442 0042 0623     		movs	r3, #6
 443              	.LVL61:
 444 0044 01AA     		add	r2, sp, #4
 445 0046 3100     		movs	r1, r6
 446 0048 2000     		movs	r0, r4
 447              	.LVL62:
 448 004a FFF7FEFF 		bl	mbedtls_asn1_get_tag
 449              	.LVL63:
 450 004e 0028     		cmp	r0, #0
 451 0050 03D0     		beq	.L39
 141:Source\mbedtls_open\library/x509_crl.c ****         }
 452              		.loc 1 141 0
 453 0052 1D4B     		ldr	r3, .L47
 454 0054 9C46     		mov	ip, r3
 455 0056 6044     		add	r0, r0, ip
 456              	.LVL64:
 457 0058 34E0     		b	.L36
 458              	.LVL65:
 459              	.L39:
 143:Source\mbedtls_open\library/x509_crl.c **** 
 460              		.loc 1 143 0
 461 005a 2368     		ldr	r3, [r4]
 462 005c 019A     		ldr	r2, [sp, #4]
 463 005e 9446     		mov	ip, r2
 464 0060 6344     		add	r3, r3, ip
 465 0062 2360     		str	r3, [r4]
 146:Source\mbedtls_open\library/x509_crl.c ****                                            &is_critical ) ) != 0 &&
 466              		.loc 1 146 0
 467 0064 6A46     		mov	r2, sp
 468 0066 3100     		movs	r1, r6
 469 0068 2000     		movs	r0, r4
 470              	.LVL66:
 471 006a FFF7FEFF 		bl	mbedtls_asn1_get_bool
 472              	.LVL67:
 473 006e 0028     		cmp	r0, #0
 474 0070 06D0     		beq	.L40
 147:Source\mbedtls_open\library/x509_crl.c ****             ( ret != MBEDTLS_ERR_ASN1_UNEXPECTED_TAG ) )
 475              		.loc 1 147 0
 476 0072 0300     		movs	r3, r0
 477 0074 6233     		adds	r3, r3, #98
ARM GAS  C:\Users\Phuong\AppData\Local\Temp\ccqvrWt4.s 			page 15


 478 0076 03D0     		beq	.L40
 150:Source\mbedtls_open\library/x509_crl.c ****         }
 479              		.loc 1 150 0
 480 0078 134B     		ldr	r3, .L47
 481 007a 9C46     		mov	ip, r3
 482 007c 6044     		add	r0, r0, ip
 483              	.LVL68:
 484 007e 21E0     		b	.L36
 485              	.LVL69:
 486              	.L40:
 154:Source\mbedtls_open\library/x509_crl.c ****                 MBEDTLS_ASN1_OCTET_STRING ) ) != 0 )
 487              		.loc 1 154 0
 488 0080 0423     		movs	r3, #4
 489 0082 01AA     		add	r2, sp, #4
 490 0084 3100     		movs	r1, r6
 491 0086 2000     		movs	r0, r4
 492              	.LVL70:
 493 0088 FFF7FEFF 		bl	mbedtls_asn1_get_tag
 494              	.LVL71:
 495 008c 0028     		cmp	r0, #0
 496 008e 03D0     		beq	.L41
 156:Source\mbedtls_open\library/x509_crl.c **** 
 497              		.loc 1 156 0
 498 0090 0D4B     		ldr	r3, .L47
 499 0092 9C46     		mov	ip, r3
 500 0094 6044     		add	r0, r0, ip
 501              	.LVL72:
 502 0096 15E0     		b	.L36
 503              	.LVL73:
 504              	.L41:
 159:Source\mbedtls_open\library/x509_crl.c ****         if( *p != end_ext_data )
 505              		.loc 1 159 0
 506 0098 2368     		ldr	r3, [r4]
 507 009a 019A     		ldr	r2, [sp, #4]
 508 009c 9446     		mov	ip, r2
 509 009e 6344     		add	r3, r3, ip
 510 00a0 2360     		str	r3, [r4]
 160:Source\mbedtls_open\library/x509_crl.c ****             return( MBEDTLS_ERR_X509_INVALID_EXTENSIONS +
 511              		.loc 1 160 0
 512 00a2 9E42     		cmp	r6, r3
 513 00a4 03D1     		bne	.L44
 165:Source\mbedtls_open\library/x509_crl.c ****             return( MBEDTLS_ERR_X509_INVALID_EXTENSIONS +
 514              		.loc 1 165 0
 515 00a6 009B     		ldr	r3, [sp]
 516 00a8 002B     		cmp	r3, #0
 517 00aa 04D0     		beq	.L35
 518 00ac 01E0     		b	.L45
 519              	.L44:
 161:Source\mbedtls_open\library/x509_crl.c ****                     MBEDTLS_ERR_ASN1_LENGTH_MISMATCH );
 520              		.loc 1 161 0
 521 00ae 0748     		ldr	r0, .L47+4
 522              	.LVL74:
 523 00b0 08E0     		b	.L36
 524              	.LVL75:
 525              	.L45:
 166:Source\mbedtls_open\library/x509_crl.c ****                     MBEDTLS_ERR_ASN1_UNEXPECTED_TAG );
 526              		.loc 1 166 0
ARM GAS  C:\Users\Phuong\AppData\Local\Temp\ccqvrWt4.s 			page 16


 527 00b2 0748     		ldr	r0, .L47+8
 528              	.LVL76:
 529 00b4 06E0     		b	.L36
 530              	.LVL77:
 531              	.L35:
 532              	.LBE3:
 118:Source\mbedtls_open\library/x509_crl.c ****     {
 533              		.loc 1 118 0
 534 00b6 2368     		ldr	r3, [r4]
 535 00b8 9D42     		cmp	r5, r3
 536 00ba AFD8     		bhi	.L42
 170:Source\mbedtls_open\library/x509_crl.c ****         return( MBEDTLS_ERR_X509_INVALID_EXTENSIONS +
 537              		.loc 1 170 0
 538 00bc 01D0     		beq	.L46
 171:Source\mbedtls_open\library/x509_crl.c ****                 MBEDTLS_ERR_ASN1_LENGTH_MISMATCH );
 539              		.loc 1 171 0
 540 00be 0348     		ldr	r0, .L47+4
 541              	.LVL78:
 542 00c0 00E0     		b	.L36
 543              	.LVL79:
 544              	.L46:
 174:Source\mbedtls_open\library/x509_crl.c **** }
 545              		.loc 1 174 0
 546 00c2 0020     		movs	r0, #0
 547              	.LVL80:
 548              	.L36:
 175:Source\mbedtls_open\library/x509_crl.c **** 
 549              		.loc 1 175 0
 550 00c4 02B0     		add	sp, sp, #8
 551              		@ sp needed
 552              	.LVL81:
 553              	.LVL82:
 554 00c6 70BD     		pop	{r4, r5, r6, pc}
 555              	.L48:
 556              		.align	2
 557              	.L47:
 558 00c8 00DBFFFF 		.word	-9472
 559 00cc 9ADAFFFF 		.word	-9574
 560 00d0 9EDAFFFF 		.word	-9570
 561              		.cfi_endproc
 562              	.LFE12:
 563              		.size	x509_get_crl_ext, .-x509_get_crl_ext
 564              		.section	.text.mbedtls_x509_crl_info,"ax",%progbits
 565              		.align	2
 566              		.global	mbedtls_x509_crl_info
 567              		.code	16
 568              		.thumb_func
 569              		.type	mbedtls_x509_crl_info, %function
 570              	mbedtls_x509_crl_info:
 571              	.LFB17:
 296:Source\mbedtls_open\library/x509_crl.c **** 
 297:Source\mbedtls_open\library/x509_crl.c **** /*
 298:Source\mbedtls_open\library/x509_crl.c ****  * Parse one  CRLs in DER format and append it to the chained list
 299:Source\mbedtls_open\library/x509_crl.c ****  */
 300:Source\mbedtls_open\library/x509_crl.c **** int mbedtls_x509_crl_parse_der( mbedtls_x509_crl *chain,
 301:Source\mbedtls_open\library/x509_crl.c ****                         const unsigned char *buf, size_t buflen )
 302:Source\mbedtls_open\library/x509_crl.c **** {
ARM GAS  C:\Users\Phuong\AppData\Local\Temp\ccqvrWt4.s 			page 17


 303:Source\mbedtls_open\library/x509_crl.c ****     int ret;
 304:Source\mbedtls_open\library/x509_crl.c ****     size_t len;
 305:Source\mbedtls_open\library/x509_crl.c ****     unsigned char *p = NULL, *end = NULL;
 306:Source\mbedtls_open\library/x509_crl.c ****     mbedtls_x509_buf sig_params1, sig_params2, sig_oid2;
 307:Source\mbedtls_open\library/x509_crl.c ****     mbedtls_x509_crl *crl = chain;
 308:Source\mbedtls_open\library/x509_crl.c **** 
 309:Source\mbedtls_open\library/x509_crl.c ****     /*
 310:Source\mbedtls_open\library/x509_crl.c ****      * Check for valid input
 311:Source\mbedtls_open\library/x509_crl.c ****      */
 312:Source\mbedtls_open\library/x509_crl.c ****     if( crl == NULL || buf == NULL )
 313:Source\mbedtls_open\library/x509_crl.c ****         return( MBEDTLS_ERR_X509_BAD_INPUT_DATA );
 314:Source\mbedtls_open\library/x509_crl.c **** 
 315:Source\mbedtls_open\library/x509_crl.c ****     memset( &sig_params1, 0, sizeof( mbedtls_x509_buf ) );
 316:Source\mbedtls_open\library/x509_crl.c ****     memset( &sig_params2, 0, sizeof( mbedtls_x509_buf ) );
 317:Source\mbedtls_open\library/x509_crl.c ****     memset( &sig_oid2, 0, sizeof( mbedtls_x509_buf ) );
 318:Source\mbedtls_open\library/x509_crl.c **** 
 319:Source\mbedtls_open\library/x509_crl.c ****     /*
 320:Source\mbedtls_open\library/x509_crl.c ****      * Add new CRL on the end of the chain if needed.
 321:Source\mbedtls_open\library/x509_crl.c ****      */
 322:Source\mbedtls_open\library/x509_crl.c ****     while( crl->version != 0 && crl->next != NULL )
 323:Source\mbedtls_open\library/x509_crl.c ****         crl = crl->next;
 324:Source\mbedtls_open\library/x509_crl.c **** 
 325:Source\mbedtls_open\library/x509_crl.c ****     if( crl->version != 0 && crl->next == NULL )
 326:Source\mbedtls_open\library/x509_crl.c ****     {
 327:Source\mbedtls_open\library/x509_crl.c ****         crl->next = mbedtls_calloc( 1, sizeof( mbedtls_x509_crl ) );
 328:Source\mbedtls_open\library/x509_crl.c **** 
 329:Source\mbedtls_open\library/x509_crl.c ****         if( crl->next == NULL )
 330:Source\mbedtls_open\library/x509_crl.c ****         {
 331:Source\mbedtls_open\library/x509_crl.c ****             mbedtls_x509_crl_free( crl );
 332:Source\mbedtls_open\library/x509_crl.c ****             return( MBEDTLS_ERR_X509_ALLOC_FAILED );
 333:Source\mbedtls_open\library/x509_crl.c ****         }
 334:Source\mbedtls_open\library/x509_crl.c **** 
 335:Source\mbedtls_open\library/x509_crl.c ****         mbedtls_x509_crl_init( crl->next );
 336:Source\mbedtls_open\library/x509_crl.c ****         crl = crl->next;
 337:Source\mbedtls_open\library/x509_crl.c ****     }
 338:Source\mbedtls_open\library/x509_crl.c **** 
 339:Source\mbedtls_open\library/x509_crl.c ****     /*
 340:Source\mbedtls_open\library/x509_crl.c ****      * Copy raw DER-encoded CRL
 341:Source\mbedtls_open\library/x509_crl.c ****      */
 342:Source\mbedtls_open\library/x509_crl.c ****     if( buflen == 0 )
 343:Source\mbedtls_open\library/x509_crl.c ****         return( MBEDTLS_ERR_X509_INVALID_FORMAT );
 344:Source\mbedtls_open\library/x509_crl.c **** 
 345:Source\mbedtls_open\library/x509_crl.c ****     p = mbedtls_calloc( 1, buflen );
 346:Source\mbedtls_open\library/x509_crl.c ****     if( p == NULL )
 347:Source\mbedtls_open\library/x509_crl.c ****         return( MBEDTLS_ERR_X509_ALLOC_FAILED );
 348:Source\mbedtls_open\library/x509_crl.c **** 
 349:Source\mbedtls_open\library/x509_crl.c ****     memcpy( p, buf, buflen );
 350:Source\mbedtls_open\library/x509_crl.c **** 
 351:Source\mbedtls_open\library/x509_crl.c ****     crl->raw.p = p;
 352:Source\mbedtls_open\library/x509_crl.c ****     crl->raw.len = buflen;
 353:Source\mbedtls_open\library/x509_crl.c **** 
 354:Source\mbedtls_open\library/x509_crl.c ****     end = p + buflen;
 355:Source\mbedtls_open\library/x509_crl.c **** 
 356:Source\mbedtls_open\library/x509_crl.c ****     /*
 357:Source\mbedtls_open\library/x509_crl.c ****      * CertificateList  ::=  SEQUENCE  {
 358:Source\mbedtls_open\library/x509_crl.c ****      *      tbsCertList          TBSCertList,
 359:Source\mbedtls_open\library/x509_crl.c ****      *      signatureAlgorithm   AlgorithmIdentifier,
ARM GAS  C:\Users\Phuong\AppData\Local\Temp\ccqvrWt4.s 			page 18


 360:Source\mbedtls_open\library/x509_crl.c ****      *      signatureValue       BIT STRING  }
 361:Source\mbedtls_open\library/x509_crl.c ****      */
 362:Source\mbedtls_open\library/x509_crl.c ****     if( ( ret = mbedtls_asn1_get_tag( &p, end, &len,
 363:Source\mbedtls_open\library/x509_crl.c ****             MBEDTLS_ASN1_CONSTRUCTED | MBEDTLS_ASN1_SEQUENCE ) ) != 0 )
 364:Source\mbedtls_open\library/x509_crl.c ****     {
 365:Source\mbedtls_open\library/x509_crl.c ****         mbedtls_x509_crl_free( crl );
 366:Source\mbedtls_open\library/x509_crl.c ****         return( MBEDTLS_ERR_X509_INVALID_FORMAT );
 367:Source\mbedtls_open\library/x509_crl.c ****     }
 368:Source\mbedtls_open\library/x509_crl.c **** 
 369:Source\mbedtls_open\library/x509_crl.c ****     if( len != (size_t) ( end - p ) )
 370:Source\mbedtls_open\library/x509_crl.c ****     {
 371:Source\mbedtls_open\library/x509_crl.c ****         mbedtls_x509_crl_free( crl );
 372:Source\mbedtls_open\library/x509_crl.c ****         return( MBEDTLS_ERR_X509_INVALID_FORMAT +
 373:Source\mbedtls_open\library/x509_crl.c ****                 MBEDTLS_ERR_ASN1_LENGTH_MISMATCH );
 374:Source\mbedtls_open\library/x509_crl.c ****     }
 375:Source\mbedtls_open\library/x509_crl.c **** 
 376:Source\mbedtls_open\library/x509_crl.c ****     /*
 377:Source\mbedtls_open\library/x509_crl.c ****      * TBSCertList  ::=  SEQUENCE  {
 378:Source\mbedtls_open\library/x509_crl.c ****      */
 379:Source\mbedtls_open\library/x509_crl.c ****     crl->tbs.p = p;
 380:Source\mbedtls_open\library/x509_crl.c **** 
 381:Source\mbedtls_open\library/x509_crl.c ****     if( ( ret = mbedtls_asn1_get_tag( &p, end, &len,
 382:Source\mbedtls_open\library/x509_crl.c ****             MBEDTLS_ASN1_CONSTRUCTED | MBEDTLS_ASN1_SEQUENCE ) ) != 0 )
 383:Source\mbedtls_open\library/x509_crl.c ****     {
 384:Source\mbedtls_open\library/x509_crl.c ****         mbedtls_x509_crl_free( crl );
 385:Source\mbedtls_open\library/x509_crl.c ****         return( MBEDTLS_ERR_X509_INVALID_FORMAT + ret );
 386:Source\mbedtls_open\library/x509_crl.c ****     }
 387:Source\mbedtls_open\library/x509_crl.c **** 
 388:Source\mbedtls_open\library/x509_crl.c ****     end = p + len;
 389:Source\mbedtls_open\library/x509_crl.c ****     crl->tbs.len = end - crl->tbs.p;
 390:Source\mbedtls_open\library/x509_crl.c **** 
 391:Source\mbedtls_open\library/x509_crl.c ****     /*
 392:Source\mbedtls_open\library/x509_crl.c ****      * Version  ::=  INTEGER  OPTIONAL {  v1(0), v2(1)  }
 393:Source\mbedtls_open\library/x509_crl.c ****      *               -- if present, MUST be v2
 394:Source\mbedtls_open\library/x509_crl.c ****      *
 395:Source\mbedtls_open\library/x509_crl.c ****      * signature            AlgorithmIdentifier
 396:Source\mbedtls_open\library/x509_crl.c ****      */
 397:Source\mbedtls_open\library/x509_crl.c ****     if( ( ret = x509_crl_get_version( &p, end, &crl->version ) ) != 0 ||
 398:Source\mbedtls_open\library/x509_crl.c ****         ( ret = mbedtls_x509_get_alg( &p, end, &crl->sig_oid, &sig_params1 ) ) != 0 )
 399:Source\mbedtls_open\library/x509_crl.c ****     {
 400:Source\mbedtls_open\library/x509_crl.c ****         mbedtls_x509_crl_free( crl );
 401:Source\mbedtls_open\library/x509_crl.c ****         return( ret );
 402:Source\mbedtls_open\library/x509_crl.c ****     }
 403:Source\mbedtls_open\library/x509_crl.c **** 
 404:Source\mbedtls_open\library/x509_crl.c ****     if( crl->version < 0 || crl->version > 1 )
 405:Source\mbedtls_open\library/x509_crl.c ****     {
 406:Source\mbedtls_open\library/x509_crl.c ****         mbedtls_x509_crl_free( crl );
 407:Source\mbedtls_open\library/x509_crl.c ****         return( MBEDTLS_ERR_X509_UNKNOWN_VERSION );
 408:Source\mbedtls_open\library/x509_crl.c ****     }
 409:Source\mbedtls_open\library/x509_crl.c **** 
 410:Source\mbedtls_open\library/x509_crl.c ****     crl->version++;
 411:Source\mbedtls_open\library/x509_crl.c **** 
 412:Source\mbedtls_open\library/x509_crl.c ****     if( ( ret = mbedtls_x509_get_sig_alg( &crl->sig_oid, &sig_params1,
 413:Source\mbedtls_open\library/x509_crl.c ****                                   &crl->sig_md, &crl->sig_pk,
 414:Source\mbedtls_open\library/x509_crl.c ****                                   &crl->sig_opts ) ) != 0 )
 415:Source\mbedtls_open\library/x509_crl.c ****     {
 416:Source\mbedtls_open\library/x509_crl.c ****         mbedtls_x509_crl_free( crl );
ARM GAS  C:\Users\Phuong\AppData\Local\Temp\ccqvrWt4.s 			page 19


 417:Source\mbedtls_open\library/x509_crl.c ****         return( MBEDTLS_ERR_X509_UNKNOWN_SIG_ALG );
 418:Source\mbedtls_open\library/x509_crl.c ****     }
 419:Source\mbedtls_open\library/x509_crl.c **** 
 420:Source\mbedtls_open\library/x509_crl.c ****     /*
 421:Source\mbedtls_open\library/x509_crl.c ****      * issuer               Name
 422:Source\mbedtls_open\library/x509_crl.c ****      */
 423:Source\mbedtls_open\library/x509_crl.c ****     crl->issuer_raw.p = p;
 424:Source\mbedtls_open\library/x509_crl.c **** 
 425:Source\mbedtls_open\library/x509_crl.c ****     if( ( ret = mbedtls_asn1_get_tag( &p, end, &len,
 426:Source\mbedtls_open\library/x509_crl.c ****             MBEDTLS_ASN1_CONSTRUCTED | MBEDTLS_ASN1_SEQUENCE ) ) != 0 )
 427:Source\mbedtls_open\library/x509_crl.c ****     {
 428:Source\mbedtls_open\library/x509_crl.c ****         mbedtls_x509_crl_free( crl );
 429:Source\mbedtls_open\library/x509_crl.c ****         return( MBEDTLS_ERR_X509_INVALID_FORMAT + ret );
 430:Source\mbedtls_open\library/x509_crl.c ****     }
 431:Source\mbedtls_open\library/x509_crl.c **** 
 432:Source\mbedtls_open\library/x509_crl.c ****     if( ( ret = mbedtls_x509_get_name( &p, p + len, &crl->issuer ) ) != 0 )
 433:Source\mbedtls_open\library/x509_crl.c ****     {
 434:Source\mbedtls_open\library/x509_crl.c ****         mbedtls_x509_crl_free( crl );
 435:Source\mbedtls_open\library/x509_crl.c ****         return( ret );
 436:Source\mbedtls_open\library/x509_crl.c ****     }
 437:Source\mbedtls_open\library/x509_crl.c **** 
 438:Source\mbedtls_open\library/x509_crl.c ****     crl->issuer_raw.len = p - crl->issuer_raw.p;
 439:Source\mbedtls_open\library/x509_crl.c **** 
 440:Source\mbedtls_open\library/x509_crl.c ****     /*
 441:Source\mbedtls_open\library/x509_crl.c ****      * thisUpdate          Time
 442:Source\mbedtls_open\library/x509_crl.c ****      * nextUpdate          Time OPTIONAL
 443:Source\mbedtls_open\library/x509_crl.c ****      */
 444:Source\mbedtls_open\library/x509_crl.c ****     if( ( ret = mbedtls_x509_get_time( &p, end, &crl->this_update ) ) != 0 )
 445:Source\mbedtls_open\library/x509_crl.c ****     {
 446:Source\mbedtls_open\library/x509_crl.c ****         mbedtls_x509_crl_free( crl );
 447:Source\mbedtls_open\library/x509_crl.c ****         return( ret );
 448:Source\mbedtls_open\library/x509_crl.c ****     }
 449:Source\mbedtls_open\library/x509_crl.c **** 
 450:Source\mbedtls_open\library/x509_crl.c ****     if( ( ret = mbedtls_x509_get_time( &p, end, &crl->next_update ) ) != 0 )
 451:Source\mbedtls_open\library/x509_crl.c ****     {
 452:Source\mbedtls_open\library/x509_crl.c ****         if( ret != ( MBEDTLS_ERR_X509_INVALID_DATE +
 453:Source\mbedtls_open\library/x509_crl.c ****                         MBEDTLS_ERR_ASN1_UNEXPECTED_TAG ) &&
 454:Source\mbedtls_open\library/x509_crl.c ****             ret != ( MBEDTLS_ERR_X509_INVALID_DATE +
 455:Source\mbedtls_open\library/x509_crl.c ****                         MBEDTLS_ERR_ASN1_OUT_OF_DATA ) )
 456:Source\mbedtls_open\library/x509_crl.c ****         {
 457:Source\mbedtls_open\library/x509_crl.c ****             mbedtls_x509_crl_free( crl );
 458:Source\mbedtls_open\library/x509_crl.c ****             return( ret );
 459:Source\mbedtls_open\library/x509_crl.c ****         }
 460:Source\mbedtls_open\library/x509_crl.c ****     }
 461:Source\mbedtls_open\library/x509_crl.c **** 
 462:Source\mbedtls_open\library/x509_crl.c ****     /*
 463:Source\mbedtls_open\library/x509_crl.c ****      * revokedCertificates    SEQUENCE OF SEQUENCE   {
 464:Source\mbedtls_open\library/x509_crl.c ****      *      userCertificate        CertificateSerialNumber,
 465:Source\mbedtls_open\library/x509_crl.c ****      *      revocationDate         Time,
 466:Source\mbedtls_open\library/x509_crl.c ****      *      crlEntryExtensions     Extensions OPTIONAL
 467:Source\mbedtls_open\library/x509_crl.c ****      *                                   -- if present, MUST be v2
 468:Source\mbedtls_open\library/x509_crl.c ****      *                        } OPTIONAL
 469:Source\mbedtls_open\library/x509_crl.c ****      */
 470:Source\mbedtls_open\library/x509_crl.c ****     if( ( ret = x509_get_entries( &p, end, &crl->entry ) ) != 0 )
 471:Source\mbedtls_open\library/x509_crl.c ****     {
 472:Source\mbedtls_open\library/x509_crl.c ****         mbedtls_x509_crl_free( crl );
 473:Source\mbedtls_open\library/x509_crl.c ****         return( ret );
ARM GAS  C:\Users\Phuong\AppData\Local\Temp\ccqvrWt4.s 			page 20


 474:Source\mbedtls_open\library/x509_crl.c ****     }
 475:Source\mbedtls_open\library/x509_crl.c **** 
 476:Source\mbedtls_open\library/x509_crl.c ****     /*
 477:Source\mbedtls_open\library/x509_crl.c ****      * crlExtensions          EXPLICIT Extensions OPTIONAL
 478:Source\mbedtls_open\library/x509_crl.c ****      *                              -- if present, MUST be v2
 479:Source\mbedtls_open\library/x509_crl.c ****      */
 480:Source\mbedtls_open\library/x509_crl.c ****     if( crl->version == 2 )
 481:Source\mbedtls_open\library/x509_crl.c ****     {
 482:Source\mbedtls_open\library/x509_crl.c ****         ret = x509_get_crl_ext( &p, end, &crl->crl_ext );
 483:Source\mbedtls_open\library/x509_crl.c **** 
 484:Source\mbedtls_open\library/x509_crl.c ****         if( ret != 0 )
 485:Source\mbedtls_open\library/x509_crl.c ****         {
 486:Source\mbedtls_open\library/x509_crl.c ****             mbedtls_x509_crl_free( crl );
 487:Source\mbedtls_open\library/x509_crl.c ****             return( ret );
 488:Source\mbedtls_open\library/x509_crl.c ****         }
 489:Source\mbedtls_open\library/x509_crl.c ****     }
 490:Source\mbedtls_open\library/x509_crl.c **** 
 491:Source\mbedtls_open\library/x509_crl.c ****     if( p != end )
 492:Source\mbedtls_open\library/x509_crl.c ****     {
 493:Source\mbedtls_open\library/x509_crl.c ****         mbedtls_x509_crl_free( crl );
 494:Source\mbedtls_open\library/x509_crl.c ****         return( MBEDTLS_ERR_X509_INVALID_FORMAT +
 495:Source\mbedtls_open\library/x509_crl.c ****                 MBEDTLS_ERR_ASN1_LENGTH_MISMATCH );
 496:Source\mbedtls_open\library/x509_crl.c ****     }
 497:Source\mbedtls_open\library/x509_crl.c **** 
 498:Source\mbedtls_open\library/x509_crl.c ****     end = crl->raw.p + crl->raw.len;
 499:Source\mbedtls_open\library/x509_crl.c **** 
 500:Source\mbedtls_open\library/x509_crl.c ****     /*
 501:Source\mbedtls_open\library/x509_crl.c ****      *  signatureAlgorithm   AlgorithmIdentifier,
 502:Source\mbedtls_open\library/x509_crl.c ****      *  signatureValue       BIT STRING
 503:Source\mbedtls_open\library/x509_crl.c ****      */
 504:Source\mbedtls_open\library/x509_crl.c ****     if( ( ret = mbedtls_x509_get_alg( &p, end, &sig_oid2, &sig_params2 ) ) != 0 )
 505:Source\mbedtls_open\library/x509_crl.c ****     {
 506:Source\mbedtls_open\library/x509_crl.c ****         mbedtls_x509_crl_free( crl );
 507:Source\mbedtls_open\library/x509_crl.c ****         return( ret );
 508:Source\mbedtls_open\library/x509_crl.c ****     }
 509:Source\mbedtls_open\library/x509_crl.c **** 
 510:Source\mbedtls_open\library/x509_crl.c ****     if( crl->sig_oid.len != sig_oid2.len ||
 511:Source\mbedtls_open\library/x509_crl.c ****         memcmp( crl->sig_oid.p, sig_oid2.p, crl->sig_oid.len ) != 0 ||
 512:Source\mbedtls_open\library/x509_crl.c ****         sig_params1.len != sig_params2.len ||
 513:Source\mbedtls_open\library/x509_crl.c ****         ( sig_params1.len != 0 &&
 514:Source\mbedtls_open\library/x509_crl.c ****           memcmp( sig_params1.p, sig_params2.p, sig_params1.len ) != 0 ) )
 515:Source\mbedtls_open\library/x509_crl.c ****     {
 516:Source\mbedtls_open\library/x509_crl.c ****         mbedtls_x509_crl_free( crl );
 517:Source\mbedtls_open\library/x509_crl.c ****         return( MBEDTLS_ERR_X509_SIG_MISMATCH );
 518:Source\mbedtls_open\library/x509_crl.c ****     }
 519:Source\mbedtls_open\library/x509_crl.c **** 
 520:Source\mbedtls_open\library/x509_crl.c ****     if( ( ret = mbedtls_x509_get_sig( &p, end, &crl->sig ) ) != 0 )
 521:Source\mbedtls_open\library/x509_crl.c ****     {
 522:Source\mbedtls_open\library/x509_crl.c ****         mbedtls_x509_crl_free( crl );
 523:Source\mbedtls_open\library/x509_crl.c ****         return( ret );
 524:Source\mbedtls_open\library/x509_crl.c ****     }
 525:Source\mbedtls_open\library/x509_crl.c **** 
 526:Source\mbedtls_open\library/x509_crl.c ****     if( p != end )
 527:Source\mbedtls_open\library/x509_crl.c ****     {
 528:Source\mbedtls_open\library/x509_crl.c ****         mbedtls_x509_crl_free( crl );
 529:Source\mbedtls_open\library/x509_crl.c ****         return( MBEDTLS_ERR_X509_INVALID_FORMAT +
 530:Source\mbedtls_open\library/x509_crl.c ****                 MBEDTLS_ERR_ASN1_LENGTH_MISMATCH );
ARM GAS  C:\Users\Phuong\AppData\Local\Temp\ccqvrWt4.s 			page 21


 531:Source\mbedtls_open\library/x509_crl.c ****     }
 532:Source\mbedtls_open\library/x509_crl.c **** 
 533:Source\mbedtls_open\library/x509_crl.c ****     return( 0 );
 534:Source\mbedtls_open\library/x509_crl.c **** }
 535:Source\mbedtls_open\library/x509_crl.c **** 
 536:Source\mbedtls_open\library/x509_crl.c **** /*
 537:Source\mbedtls_open\library/x509_crl.c ****  * Parse one or more CRLs and add them to the chained list
 538:Source\mbedtls_open\library/x509_crl.c ****  */
 539:Source\mbedtls_open\library/x509_crl.c **** int mbedtls_x509_crl_parse( mbedtls_x509_crl *chain, const unsigned char *buf, size_t buflen )
 540:Source\mbedtls_open\library/x509_crl.c **** {
 541:Source\mbedtls_open\library/x509_crl.c **** #if defined(MBEDTLS_PEM_PARSE_C)
 542:Source\mbedtls_open\library/x509_crl.c ****     int ret;
 543:Source\mbedtls_open\library/x509_crl.c ****     size_t use_len;
 544:Source\mbedtls_open\library/x509_crl.c ****     mbedtls_pem_context pem;
 545:Source\mbedtls_open\library/x509_crl.c ****     int is_pem = 0;
 546:Source\mbedtls_open\library/x509_crl.c **** 
 547:Source\mbedtls_open\library/x509_crl.c ****     if( chain == NULL || buf == NULL )
 548:Source\mbedtls_open\library/x509_crl.c ****         return( MBEDTLS_ERR_X509_BAD_INPUT_DATA );
 549:Source\mbedtls_open\library/x509_crl.c **** 
 550:Source\mbedtls_open\library/x509_crl.c ****     do
 551:Source\mbedtls_open\library/x509_crl.c ****     {
 552:Source\mbedtls_open\library/x509_crl.c ****         mbedtls_pem_init( &pem );
 553:Source\mbedtls_open\library/x509_crl.c **** 
 554:Source\mbedtls_open\library/x509_crl.c ****         // Avoid calling mbedtls_pem_read_buffer() on non-null-terminated
 555:Source\mbedtls_open\library/x509_crl.c ****         // string
 556:Source\mbedtls_open\library/x509_crl.c ****         if( buflen == 0 || buf[buflen - 1] != '\0' )
 557:Source\mbedtls_open\library/x509_crl.c ****             ret = MBEDTLS_ERR_PEM_NO_HEADER_FOOTER_PRESENT;
 558:Source\mbedtls_open\library/x509_crl.c ****         else
 559:Source\mbedtls_open\library/x509_crl.c ****             ret = mbedtls_pem_read_buffer( &pem,
 560:Source\mbedtls_open\library/x509_crl.c ****                                            "-----BEGIN X509 CRL-----",
 561:Source\mbedtls_open\library/x509_crl.c ****                                            "-----END X509 CRL-----",
 562:Source\mbedtls_open\library/x509_crl.c ****                                             buf, NULL, 0, &use_len );
 563:Source\mbedtls_open\library/x509_crl.c **** 
 564:Source\mbedtls_open\library/x509_crl.c ****         if( ret == 0 )
 565:Source\mbedtls_open\library/x509_crl.c ****         {
 566:Source\mbedtls_open\library/x509_crl.c ****             /*
 567:Source\mbedtls_open\library/x509_crl.c ****              * Was PEM encoded
 568:Source\mbedtls_open\library/x509_crl.c ****              */
 569:Source\mbedtls_open\library/x509_crl.c ****             is_pem = 1;
 570:Source\mbedtls_open\library/x509_crl.c **** 
 571:Source\mbedtls_open\library/x509_crl.c ****             buflen -= use_len;
 572:Source\mbedtls_open\library/x509_crl.c ****             buf += use_len;
 573:Source\mbedtls_open\library/x509_crl.c **** 
 574:Source\mbedtls_open\library/x509_crl.c ****             if( ( ret = mbedtls_x509_crl_parse_der( chain,
 575:Source\mbedtls_open\library/x509_crl.c ****                                             pem.buf, pem.buflen ) ) != 0 )
 576:Source\mbedtls_open\library/x509_crl.c ****             {
 577:Source\mbedtls_open\library/x509_crl.c ****                 mbedtls_pem_free( &pem );
 578:Source\mbedtls_open\library/x509_crl.c ****                 return( ret );
 579:Source\mbedtls_open\library/x509_crl.c ****             }
 580:Source\mbedtls_open\library/x509_crl.c ****         }
 581:Source\mbedtls_open\library/x509_crl.c ****         else if( is_pem )
 582:Source\mbedtls_open\library/x509_crl.c ****         {
 583:Source\mbedtls_open\library/x509_crl.c ****             mbedtls_pem_free( &pem );
 584:Source\mbedtls_open\library/x509_crl.c ****             return( ret );
 585:Source\mbedtls_open\library/x509_crl.c ****         }
 586:Source\mbedtls_open\library/x509_crl.c **** 
 587:Source\mbedtls_open\library/x509_crl.c ****         mbedtls_pem_free( &pem );
ARM GAS  C:\Users\Phuong\AppData\Local\Temp\ccqvrWt4.s 			page 22


 588:Source\mbedtls_open\library/x509_crl.c ****     }
 589:Source\mbedtls_open\library/x509_crl.c ****     /* In the PEM case, buflen is 1 at the end, for the terminated NULL byte.
 590:Source\mbedtls_open\library/x509_crl.c ****      * And a valid CRL cannot be less than 1 byte anyway. */
 591:Source\mbedtls_open\library/x509_crl.c ****     while( is_pem && buflen > 1 );
 592:Source\mbedtls_open\library/x509_crl.c **** 
 593:Source\mbedtls_open\library/x509_crl.c ****     if( is_pem )
 594:Source\mbedtls_open\library/x509_crl.c ****         return( 0 );
 595:Source\mbedtls_open\library/x509_crl.c ****     else
 596:Source\mbedtls_open\library/x509_crl.c **** #endif /* MBEDTLS_PEM_PARSE_C */
 597:Source\mbedtls_open\library/x509_crl.c ****         return( mbedtls_x509_crl_parse_der( chain, buf, buflen ) );
 598:Source\mbedtls_open\library/x509_crl.c **** }
 599:Source\mbedtls_open\library/x509_crl.c **** 
 600:Source\mbedtls_open\library/x509_crl.c **** #if defined(MBEDTLS_FS_IO)
 601:Source\mbedtls_open\library/x509_crl.c **** /*
 602:Source\mbedtls_open\library/x509_crl.c ****  * Load one or more CRLs and add them to the chained list
 603:Source\mbedtls_open\library/x509_crl.c ****  */
 604:Source\mbedtls_open\library/x509_crl.c **** int mbedtls_x509_crl_parse_file( mbedtls_x509_crl *chain, const char *path )
 605:Source\mbedtls_open\library/x509_crl.c **** {
 606:Source\mbedtls_open\library/x509_crl.c ****     int ret;
 607:Source\mbedtls_open\library/x509_crl.c ****     size_t n;
 608:Source\mbedtls_open\library/x509_crl.c ****     unsigned char *buf;
 609:Source\mbedtls_open\library/x509_crl.c **** 
 610:Source\mbedtls_open\library/x509_crl.c ****     if( ( ret = mbedtls_pk_load_file( path, &buf, &n ) ) != 0 )
 611:Source\mbedtls_open\library/x509_crl.c ****         return( ret );
 612:Source\mbedtls_open\library/x509_crl.c **** 
 613:Source\mbedtls_open\library/x509_crl.c ****     ret = mbedtls_x509_crl_parse( chain, buf, n );
 614:Source\mbedtls_open\library/x509_crl.c **** 
 615:Source\mbedtls_open\library/x509_crl.c ****     mbedtls_platform_zeroize( buf, n );
 616:Source\mbedtls_open\library/x509_crl.c ****     mbedtls_free( buf );
 617:Source\mbedtls_open\library/x509_crl.c **** 
 618:Source\mbedtls_open\library/x509_crl.c ****     return( ret );
 619:Source\mbedtls_open\library/x509_crl.c **** }
 620:Source\mbedtls_open\library/x509_crl.c **** #endif /* MBEDTLS_FS_IO */
 621:Source\mbedtls_open\library/x509_crl.c **** 
 622:Source\mbedtls_open\library/x509_crl.c **** /*
 623:Source\mbedtls_open\library/x509_crl.c ****  * Return an informational string about the certificate.
 624:Source\mbedtls_open\library/x509_crl.c ****  */
 625:Source\mbedtls_open\library/x509_crl.c **** #define BEFORE_COLON    14
 626:Source\mbedtls_open\library/x509_crl.c **** #define BC              "14"
 627:Source\mbedtls_open\library/x509_crl.c **** /*
 628:Source\mbedtls_open\library/x509_crl.c ****  * Return an informational string about the CRL.
 629:Source\mbedtls_open\library/x509_crl.c ****  */
 630:Source\mbedtls_open\library/x509_crl.c **** int mbedtls_x509_crl_info( char *buf, size_t size, const char *prefix,
 631:Source\mbedtls_open\library/x509_crl.c ****                    const mbedtls_x509_crl *crl )
 632:Source\mbedtls_open\library/x509_crl.c **** {
 572              		.loc 1 632 0
 573              		.cfi_startproc
 574              		@ args = 0, pretend = 0, frame = 8
 575              		@ frame_needed = 0, uses_anonymous_args = 0
 576              	.LVL83:
 577 0000 F0B5     		push	{r4, r5, r6, r7, lr}
 578              		.cfi_def_cfa_offset 20
 579              		.cfi_offset 4, -20
 580              		.cfi_offset 5, -16
 581              		.cfi_offset 6, -12
 582              		.cfi_offset 7, -8
 583              		.cfi_offset 14, -4
ARM GAS  C:\Users\Phuong\AppData\Local\Temp\ccqvrWt4.s 			page 23


 584 0002 5746     		mov	r7, r10
 585 0004 4646     		mov	r6, r8
 586 0006 C0B4     		push	{r6, r7}
 587              		.cfi_def_cfa_offset 28
 588              		.cfi_offset 8, -28
 589              		.cfi_offset 10, -24
 590 0008 89B0     		sub	sp, sp, #36
 591              		.cfi_def_cfa_offset 64
 592 000a 0400     		movs	r4, r0
 593 000c 8846     		mov	r8, r1
 594 000e 1500     		movs	r5, r2
 595 0010 1F00     		movs	r7, r3
 596              	.LVL84:
 633:Source\mbedtls_open\library/x509_crl.c ****     int ret;
 634:Source\mbedtls_open\library/x509_crl.c ****     size_t n;
 635:Source\mbedtls_open\library/x509_crl.c ****     char *p;
 636:Source\mbedtls_open\library/x509_crl.c ****     const mbedtls_x509_crl_entry *entry;
 637:Source\mbedtls_open\library/x509_crl.c **** 
 638:Source\mbedtls_open\library/x509_crl.c ****     p = buf;
 639:Source\mbedtls_open\library/x509_crl.c ****     n = size;
 640:Source\mbedtls_open\library/x509_crl.c **** 
 641:Source\mbedtls_open\library/x509_crl.c ****     ret = mbedtls_snprintf( p, n, "%sCRL version   : %d",
 597              		.loc 1 641 0
 598 0012 9B69     		ldr	r3, [r3, #24]
 599              	.LVL85:
 600 0014 0093     		str	r3, [sp]
 601 0016 1300     		movs	r3, r2
 602 0018 834A     		ldr	r2, .L78
 603              	.LVL86:
 604 001a FFF7FEFF 		bl	snprintf
 605              	.LVL87:
 642:Source\mbedtls_open\library/x509_crl.c ****                                prefix, crl->version );
 643:Source\mbedtls_open\library/x509_crl.c ****     MBEDTLS_X509_SAFE_SNPRINTF;
 606              		.loc 1 643 0
 607 001e 0028     		cmp	r0, #0
 608 0020 00DA     		bge	.LCB655
 609 0022 CCE0     		b	.L54	@long jump
 610              	.LCB655:
 611              		.loc 1 643 0 is_stmt 0 discriminator 2
 612 0024 8045     		cmp	r8, r0
 613 0026 00D8     		bhi	.LCB658
 614 0028 CBE0     		b	.L55	@long jump
 615              	.LCB658:
 616              		.loc 1 643 0 discriminator 4
 617 002a 4346     		mov	r3, r8
 618 002c 1E1A     		subs	r6, r3, r0
 619              	.LVL88:
 620 002e 2418     		adds	r4, r4, r0
 621              	.LVL89:
 644:Source\mbedtls_open\library/x509_crl.c **** 
 645:Source\mbedtls_open\library/x509_crl.c ****     ret = mbedtls_snprintf( p, n, "\n%sissuer name   : ", prefix );
 622              		.loc 1 645 0 is_stmt 1 discriminator 4
 623 0030 2B00     		movs	r3, r5
 624 0032 7E4A     		ldr	r2, .L78+4
 625 0034 3100     		movs	r1, r6
 626 0036 2000     		movs	r0, r4
 627              	.LVL90:
ARM GAS  C:\Users\Phuong\AppData\Local\Temp\ccqvrWt4.s 			page 24


 628 0038 FFF7FEFF 		bl	snprintf
 629              	.LVL91:
 646:Source\mbedtls_open\library/x509_crl.c ****     MBEDTLS_X509_SAFE_SNPRINTF;
 630              		.loc 1 646 0 discriminator 4
 631 003c 0028     		cmp	r0, #0
 632 003e 00DA     		bge	.LCB675
 633 0040 C1E0     		b	.L56	@long jump
 634              	.LCB675:
 635              		.loc 1 646 0 is_stmt 0 discriminator 2
 636 0042 8642     		cmp	r6, r0
 637 0044 00D8     		bhi	.LCB678
 638 0046 C0E0     		b	.L57	@long jump
 639              	.LCB678:
 640              		.loc 1 646 0 discriminator 4
 641 0048 361A     		subs	r6, r6, r0
 642              	.LVL92:
 643 004a 2418     		adds	r4, r4, r0
 644              	.LVL93:
 647:Source\mbedtls_open\library/x509_crl.c ****     ret = mbedtls_x509_dn_gets( p, n, &crl->issuer );
 645              		.loc 1 647 0 is_stmt 1 discriminator 4
 646 004c 3A00     		movs	r2, r7
 647 004e 3432     		adds	r2, r2, #52
 648 0050 3100     		movs	r1, r6
 649 0052 2000     		movs	r0, r4
 650              	.LVL94:
 651 0054 FFF7FEFF 		bl	mbedtls_x509_dn_gets
 652              	.LVL95:
 648:Source\mbedtls_open\library/x509_crl.c ****     MBEDTLS_X509_SAFE_SNPRINTF;
 653              		.loc 1 648 0 discriminator 4
 654 0058 0028     		cmp	r0, #0
 655 005a 00DA     		bge	.LCB694
 656 005c B7E0     		b	.L58	@long jump
 657              	.LCB694:
 658              		.loc 1 648 0 is_stmt 0 discriminator 2
 659 005e 8642     		cmp	r6, r0
 660 0060 00D8     		bhi	.LCB697
 661 0062 B6E0     		b	.L59	@long jump
 662              	.LCB697:
 663              		.loc 1 648 0 discriminator 4
 664 0064 361A     		subs	r6, r6, r0
 665              	.LVL96:
 666 0066 2418     		adds	r4, r4, r0
 667              	.LVL97:
 649:Source\mbedtls_open\library/x509_crl.c **** 
 650:Source\mbedtls_open\library/x509_crl.c ****     ret = mbedtls_snprintf( p, n, "\n%sthis update   : " \
 668              		.loc 1 650 0 is_stmt 1 discriminator 4
 669 0068 BB6E     		ldr	r3, [r7, #104]
 670 006a 0593     		str	r3, [sp, #20]
 671 006c 7B6E     		ldr	r3, [r7, #100]
 672 006e 0493     		str	r3, [sp, #16]
 673 0070 3B6E     		ldr	r3, [r7, #96]
 674 0072 0393     		str	r3, [sp, #12]
 675 0074 FB6D     		ldr	r3, [r7, #92]
 676 0076 0293     		str	r3, [sp, #8]
 677 0078 BB6D     		ldr	r3, [r7, #88]
 678 007a 0193     		str	r3, [sp, #4]
 679 007c 7B6D     		ldr	r3, [r7, #84]
ARM GAS  C:\Users\Phuong\AppData\Local\Temp\ccqvrWt4.s 			page 25


 680 007e 0093     		str	r3, [sp]
 681 0080 2B00     		movs	r3, r5
 682 0082 6B4A     		ldr	r2, .L78+8
 683 0084 3100     		movs	r1, r6
 684 0086 2000     		movs	r0, r4
 685              	.LVL98:
 686 0088 FFF7FEFF 		bl	snprintf
 687              	.LVL99:
 651:Source\mbedtls_open\library/x509_crl.c ****                    "%04d-%02d-%02d %02d:%02d:%02d", prefix,
 652:Source\mbedtls_open\library/x509_crl.c ****                    crl->this_update.year, crl->this_update.mon,
 653:Source\mbedtls_open\library/x509_crl.c ****                    crl->this_update.day,  crl->this_update.hour,
 654:Source\mbedtls_open\library/x509_crl.c ****                    crl->this_update.min,  crl->this_update.sec );
 655:Source\mbedtls_open\library/x509_crl.c ****     MBEDTLS_X509_SAFE_SNPRINTF;
 688              		.loc 1 655 0 discriminator 4
 689 008c 0028     		cmp	r0, #0
 690 008e 00DA     		bge	.LCB731
 691 0090 A1E0     		b	.L60	@long jump
 692              	.LCB731:
 693              		.loc 1 655 0 is_stmt 0 discriminator 2
 694 0092 8642     		cmp	r6, r0
 695 0094 00D8     		bhi	.LCB734
 696 0096 A0E0     		b	.L61	@long jump
 697              	.LCB734:
 698              		.loc 1 655 0 discriminator 4
 699 0098 361A     		subs	r6, r6, r0
 700              	.LVL100:
 701 009a 2418     		adds	r4, r4, r0
 702              	.LVL101:
 656:Source\mbedtls_open\library/x509_crl.c **** 
 657:Source\mbedtls_open\library/x509_crl.c ****     ret = mbedtls_snprintf( p, n, "\n%snext update   : " \
 703              		.loc 1 657 0 is_stmt 1 discriminator 4
 704 009c 8023     		movs	r3, #128
 705 009e FB58     		ldr	r3, [r7, r3]
 706 00a0 0593     		str	r3, [sp, #20]
 707 00a2 FB6F     		ldr	r3, [r7, #124]
 708 00a4 0493     		str	r3, [sp, #16]
 709 00a6 BB6F     		ldr	r3, [r7, #120]
 710 00a8 0393     		str	r3, [sp, #12]
 711 00aa 7B6F     		ldr	r3, [r7, #116]
 712 00ac 0293     		str	r3, [sp, #8]
 713 00ae 3B6F     		ldr	r3, [r7, #112]
 714 00b0 0193     		str	r3, [sp, #4]
 715 00b2 FB6E     		ldr	r3, [r7, #108]
 716 00b4 0093     		str	r3, [sp]
 717 00b6 0795     		str	r5, [sp, #28]
 718 00b8 2B00     		movs	r3, r5
 719 00ba 5E4A     		ldr	r2, .L78+12
 720 00bc 3100     		movs	r1, r6
 721 00be 2000     		movs	r0, r4
 722              	.LVL102:
 723 00c0 FFF7FEFF 		bl	snprintf
 724              	.LVL103:
 658:Source\mbedtls_open\library/x509_crl.c ****                    "%04d-%02d-%02d %02d:%02d:%02d", prefix,
 659:Source\mbedtls_open\library/x509_crl.c ****                    crl->next_update.year, crl->next_update.mon,
 660:Source\mbedtls_open\library/x509_crl.c ****                    crl->next_update.day,  crl->next_update.hour,
 661:Source\mbedtls_open\library/x509_crl.c ****                    crl->next_update.min,  crl->next_update.sec );
 662:Source\mbedtls_open\library/x509_crl.c ****     MBEDTLS_X509_SAFE_SNPRINTF;
ARM GAS  C:\Users\Phuong\AppData\Local\Temp\ccqvrWt4.s 			page 26


 725              		.loc 1 662 0 discriminator 4
 726 00c4 0028     		cmp	r0, #0
 727 00c6 00DA     		bge	.LCB771
 728 00c8 89E0     		b	.L62	@long jump
 729              	.LCB771:
 730              		.loc 1 662 0 is_stmt 0 discriminator 2
 731 00ca 8642     		cmp	r6, r0
 732 00cc 00D8     		bhi	.LCB774
 733 00ce 88E0     		b	.L63	@long jump
 734              	.LCB774:
 735              		.loc 1 662 0 discriminator 4
 736 00d0 321A     		subs	r2, r6, r0
 737 00d2 9246     		mov	r10, r2
 738              	.LVL104:
 739 00d4 2518     		adds	r5, r4, r0
 740              	.LVL105:
 663:Source\mbedtls_open\library/x509_crl.c **** 
 664:Source\mbedtls_open\library/x509_crl.c ****     entry = &crl->entry;
 741              		.loc 1 664 0 is_stmt 1 discriminator 4
 742 00d6 3E00     		movs	r6, r7
 743 00d8 8436     		adds	r6, r6, #132
 744              	.LVL106:
 665:Source\mbedtls_open\library/x509_crl.c **** 
 666:Source\mbedtls_open\library/x509_crl.c ****     ret = mbedtls_snprintf( p, n, "\n%sRevoked certificates:",
 745              		.loc 1 666 0 discriminator 4
 746 00da 079B     		ldr	r3, [sp, #28]
 747 00dc 564A     		ldr	r2, .L78+16
 748              	.LVL107:
 749 00de 5146     		mov	r1, r10
 750 00e0 2800     		movs	r0, r5
 751              	.LVL108:
 752 00e2 FFF7FEFF 		bl	snprintf
 753              	.LVL109:
 667:Source\mbedtls_open\library/x509_crl.c ****                                prefix );
 668:Source\mbedtls_open\library/x509_crl.c ****     MBEDTLS_X509_SAFE_SNPRINTF;
 754              		.loc 1 668 0 discriminator 4
 755 00e6 0028     		cmp	r0, #0
 756 00e8 7DDB     		blt	.L64
 757              		.loc 1 668 0 is_stmt 0 discriminator 2
 758 00ea 8245     		cmp	r10, r0
 759 00ec 7DD9     		bls	.L65
 760              		.loc 1 668 0 discriminator 4
 761 00ee 5346     		mov	r3, r10
 762 00f0 1C1A     		subs	r4, r3, r0
 763              	.LVL110:
 764 00f2 2D18     		adds	r5, r5, r0
 765              	.LVL111:
 669:Source\mbedtls_open\library/x509_crl.c **** 
 670:Source\mbedtls_open\library/x509_crl.c ****     while( entry != NULL && entry->raw.len != 0 )
 766              		.loc 1 670 0 is_stmt 1 discriminator 4
 767 00f4 32E0     		b	.L51
 768              	.L53:
 671:Source\mbedtls_open\library/x509_crl.c ****     {
 672:Source\mbedtls_open\library/x509_crl.c ****         ret = mbedtls_snprintf( p, n, "\n%sserial number: ",
 769              		.loc 1 672 0
 770 00f6 079B     		ldr	r3, [sp, #28]
 771 00f8 504A     		ldr	r2, .L78+20
ARM GAS  C:\Users\Phuong\AppData\Local\Temp\ccqvrWt4.s 			page 27


 772 00fa 2100     		movs	r1, r4
 773 00fc 2800     		movs	r0, r5
 774              	.LVL112:
 775 00fe FFF7FEFF 		bl	snprintf
 776              	.LVL113:
 673:Source\mbedtls_open\library/x509_crl.c ****                                prefix );
 674:Source\mbedtls_open\library/x509_crl.c ****         MBEDTLS_X509_SAFE_SNPRINTF;
 777              		.loc 1 674 0
 778 0102 0028     		cmp	r0, #0
 779 0104 73DB     		blt	.L66
 780              		.loc 1 674 0 is_stmt 0 discriminator 2
 781 0106 8442     		cmp	r4, r0
 782 0108 73D9     		bls	.L67
 783              		.loc 1 674 0 discriminator 4
 784 010a 241A     		subs	r4, r4, r0
 785              	.LVL114:
 786 010c 2D18     		adds	r5, r5, r0
 787              	.LVL115:
 675:Source\mbedtls_open\library/x509_crl.c **** 
 676:Source\mbedtls_open\library/x509_crl.c ****         ret = mbedtls_x509_serial_gets( p, n, &entry->serial );
 788              		.loc 1 676 0 is_stmt 1 discriminator 4
 789 010e 3200     		movs	r2, r6
 790 0110 0C32     		adds	r2, r2, #12
 791 0112 2100     		movs	r1, r4
 792 0114 2800     		movs	r0, r5
 793              	.LVL116:
 794 0116 FFF7FEFF 		bl	mbedtls_x509_serial_gets
 795              	.LVL117:
 677:Source\mbedtls_open\library/x509_crl.c ****         MBEDTLS_X509_SAFE_SNPRINTF;
 796              		.loc 1 677 0 discriminator 4
 797 011a 0028     		cmp	r0, #0
 798 011c 6BDB     		blt	.L68
 799              		.loc 1 677 0 is_stmt 0 discriminator 2
 800 011e 8442     		cmp	r4, r0
 801 0120 6BD9     		bls	.L69
 802              		.loc 1 677 0 discriminator 4
 803 0122 241A     		subs	r4, r4, r0
 804              	.LVL118:
 805 0124 2D18     		adds	r5, r5, r0
 806              	.LVL119:
 678:Source\mbedtls_open\library/x509_crl.c **** 
 679:Source\mbedtls_open\library/x509_crl.c ****         ret = mbedtls_snprintf( p, n, " revocation date: " \
 807              		.loc 1 679 0 is_stmt 1 discriminator 4
 808 0126 B369     		ldr	r3, [r6, #24]
 809 0128 9A46     		mov	r10, r3
 810 012a F269     		ldr	r2, [r6, #28]
 811 012c 316A     		ldr	r1, [r6, #32]
 812 012e 706A     		ldr	r0, [r6, #36]
 813              	.LVL120:
 814 0130 B36A     		ldr	r3, [r6, #40]
 815 0132 9C46     		mov	ip, r3
 816 0134 F36A     		ldr	r3, [r6, #44]
 817 0136 0493     		str	r3, [sp, #16]
 818 0138 6346     		mov	r3, ip
 819 013a 0393     		str	r3, [sp, #12]
 820 013c 0290     		str	r0, [sp, #8]
 821 013e 0191     		str	r1, [sp, #4]
ARM GAS  C:\Users\Phuong\AppData\Local\Temp\ccqvrWt4.s 			page 28


 822 0140 0092     		str	r2, [sp]
 823 0142 5346     		mov	r3, r10
 824 0144 3E4A     		ldr	r2, .L78+24
 825 0146 2100     		movs	r1, r4
 826 0148 2800     		movs	r0, r5
 827 014a FFF7FEFF 		bl	snprintf
 828              	.LVL121:
 680:Source\mbedtls_open\library/x509_crl.c ****                    "%04d-%02d-%02d %02d:%02d:%02d",
 681:Source\mbedtls_open\library/x509_crl.c ****                    entry->revocation_date.year, entry->revocation_date.mon,
 682:Source\mbedtls_open\library/x509_crl.c ****                    entry->revocation_date.day,  entry->revocation_date.hour,
 683:Source\mbedtls_open\library/x509_crl.c ****                    entry->revocation_date.min,  entry->revocation_date.sec );
 684:Source\mbedtls_open\library/x509_crl.c ****         MBEDTLS_X509_SAFE_SNPRINTF;
 829              		.loc 1 684 0 discriminator 4
 830 014e 0028     		cmp	r0, #0
 831 0150 55DB     		blt	.L70
 832              		.loc 1 684 0 is_stmt 0 discriminator 2
 833 0152 8442     		cmp	r4, r0
 834 0154 55D9     		bls	.L71
 835              		.loc 1 684 0 discriminator 4
 836 0156 241A     		subs	r4, r4, r0
 837              	.LVL122:
 838 0158 2D18     		adds	r5, r5, r0
 839              	.LVL123:
 685:Source\mbedtls_open\library/x509_crl.c **** 
 686:Source\mbedtls_open\library/x509_crl.c ****         entry = entry->next;
 840              		.loc 1 686 0 is_stmt 1 discriminator 4
 841 015a F66B     		ldr	r6, [r6, #60]
 842              	.LVL124:
 843              	.L51:
 670:Source\mbedtls_open\library/x509_crl.c ****     {
 844              		.loc 1 670 0
 845 015c 002E     		cmp	r6, #0
 846 015e 02D0     		beq	.L52
 670:Source\mbedtls_open\library/x509_crl.c ****     {
 847              		.loc 1 670 0 is_stmt 0 discriminator 1
 848 0160 7368     		ldr	r3, [r6, #4]
 849 0162 002B     		cmp	r3, #0
 850 0164 C7D1     		bne	.L53
 851              	.L52:
 687:Source\mbedtls_open\library/x509_crl.c ****     }
 688:Source\mbedtls_open\library/x509_crl.c **** 
 689:Source\mbedtls_open\library/x509_crl.c ****     ret = mbedtls_snprintf( p, n, "\n%ssigned using  : ", prefix );
 852              		.loc 1 689 0 is_stmt 1
 853 0166 079B     		ldr	r3, [sp, #28]
 854 0168 364A     		ldr	r2, .L78+28
 855 016a 2100     		movs	r1, r4
 856 016c 2800     		movs	r0, r5
 857              	.LVL125:
 858 016e FFF7FEFF 		bl	snprintf
 859              	.LVL126:
 690:Source\mbedtls_open\library/x509_crl.c ****     MBEDTLS_X509_SAFE_SNPRINTF;
 860              		.loc 1 690 0
 861 0172 0028     		cmp	r0, #0
 862 0174 47DB     		blt	.L72
 863              		.loc 1 690 0 is_stmt 0 discriminator 2
 864 0176 8442     		cmp	r4, r0
 865 0178 47D9     		bls	.L73
ARM GAS  C:\Users\Phuong\AppData\Local\Temp\ccqvrWt4.s 			page 29


 866              		.loc 1 690 0 discriminator 4
 867 017a 241A     		subs	r4, r4, r0
 868              	.LVL127:
 869 017c 2D18     		adds	r5, r5, r0
 870              	.LVL128:
 691:Source\mbedtls_open\library/x509_crl.c **** 
 692:Source\mbedtls_open\library/x509_crl.c ****     ret = mbedtls_x509_sig_alg_gets( p, n, &crl->sig_oid, crl->sig_pk, crl->sig_md,
 871              		.loc 1 692 0 is_stmt 1 discriminator 4
 872 017e 3A00     		movs	r2, r7
 873 0180 1C32     		adds	r2, r2, #28
 874 0182 E923     		movs	r3, #233
 875 0184 FB5C     		ldrb	r3, [r7, r3]
 876 0186 E821     		movs	r1, #232
 877 0188 795C     		ldrb	r1, [r7, r1]
 693:Source\mbedtls_open\library/x509_crl.c ****                              crl->sig_opts );
 878              		.loc 1 693 0 discriminator 4
 879 018a EC20     		movs	r0, #236
 880              	.LVL129:
 881 018c 3858     		ldr	r0, [r7, r0]
 882 018e 0190     		str	r0, [sp, #4]
 692:Source\mbedtls_open\library/x509_crl.c ****                              crl->sig_opts );
 883              		.loc 1 692 0 discriminator 4
 884 0190 0091     		str	r1, [sp]
 885 0192 2100     		movs	r1, r4
 886 0194 2800     		movs	r0, r5
 887 0196 FFF7FEFF 		bl	mbedtls_x509_sig_alg_gets
 888              	.LVL130:
 694:Source\mbedtls_open\library/x509_crl.c ****     MBEDTLS_X509_SAFE_SNPRINTF;
 889              		.loc 1 694 0 discriminator 4
 890 019a 0028     		cmp	r0, #0
 891 019c 37DB     		blt	.L74
 892              		.loc 1 694 0 is_stmt 0 discriminator 2
 893 019e 8442     		cmp	r4, r0
 894 01a0 37D9     		bls	.L75
 895              		.loc 1 694 0 discriminator 4
 896 01a2 241A     		subs	r4, r4, r0
 897              	.LVL131:
 898 01a4 2818     		adds	r0, r5, r0
 899              	.LVL132:
 695:Source\mbedtls_open\library/x509_crl.c **** 
 696:Source\mbedtls_open\library/x509_crl.c ****     ret = mbedtls_snprintf( p, n, "\n" );
 900              		.loc 1 696 0 is_stmt 1 discriminator 4
 901 01a6 284A     		ldr	r2, .L78+32
 902 01a8 2100     		movs	r1, r4
 903 01aa FFF7FEFF 		bl	snprintf
 904              	.LVL133:
 697:Source\mbedtls_open\library/x509_crl.c ****     MBEDTLS_X509_SAFE_SNPRINTF;
 905              		.loc 1 697 0 discriminator 4
 906 01ae 0028     		cmp	r0, #0
 907 01b0 31DB     		blt	.L76
 908              		.loc 1 697 0 is_stmt 0 discriminator 2
 909 01b2 8442     		cmp	r4, r0
 910 01b4 31D9     		bls	.L77
 911              		.loc 1 697 0 discriminator 4
 912 01b6 241A     		subs	r4, r4, r0
 913              	.LVL134:
 698:Source\mbedtls_open\library/x509_crl.c **** 
ARM GAS  C:\Users\Phuong\AppData\Local\Temp\ccqvrWt4.s 			page 30


 699:Source\mbedtls_open\library/x509_crl.c ****     return( (int) ( size - n ) );
 914              		.loc 1 699 0 is_stmt 1 discriminator 4
 915 01b8 4346     		mov	r3, r8
 916 01ba 181B     		subs	r0, r3, r4
 917              	.LVL135:
 918 01bc 2EE0     		b	.L50
 919              	.LVL136:
 920              	.L54:
 643:Source\mbedtls_open\library/x509_crl.c **** 
 921              		.loc 1 643 0
 922 01be 2348     		ldr	r0, .L78+36
 923              	.LVL137:
 924 01c0 2CE0     		b	.L50
 925              	.LVL138:
 926              	.L55:
 927 01c2 2248     		ldr	r0, .L78+36
 928              	.LVL139:
 929 01c4 2AE0     		b	.L50
 930              	.LVL140:
 931              	.L56:
 646:Source\mbedtls_open\library/x509_crl.c ****     ret = mbedtls_x509_dn_gets( p, n, &crl->issuer );
 932              		.loc 1 646 0
 933 01c6 2148     		ldr	r0, .L78+36
 934              	.LVL141:
 935 01c8 28E0     		b	.L50
 936              	.LVL142:
 937              	.L57:
 938 01ca 2048     		ldr	r0, .L78+36
 939              	.LVL143:
 940 01cc 26E0     		b	.L50
 941              	.LVL144:
 942              	.L58:
 648:Source\mbedtls_open\library/x509_crl.c **** 
 943              		.loc 1 648 0
 944 01ce 1F48     		ldr	r0, .L78+36
 945              	.LVL145:
 946 01d0 24E0     		b	.L50
 947              	.LVL146:
 948              	.L59:
 949 01d2 1E48     		ldr	r0, .L78+36
 950              	.LVL147:
 951 01d4 22E0     		b	.L50
 952              	.LVL148:
 953              	.L60:
 655:Source\mbedtls_open\library/x509_crl.c **** 
 954              		.loc 1 655 0
 955 01d6 1D48     		ldr	r0, .L78+36
 956              	.LVL149:
 957 01d8 20E0     		b	.L50
 958              	.LVL150:
 959              	.L61:
 960 01da 1C48     		ldr	r0, .L78+36
 961              	.LVL151:
 962 01dc 1EE0     		b	.L50
 963              	.LVL152:
 964              	.L62:
 662:Source\mbedtls_open\library/x509_crl.c **** 
ARM GAS  C:\Users\Phuong\AppData\Local\Temp\ccqvrWt4.s 			page 31


 965              		.loc 1 662 0
 966 01de 1B48     		ldr	r0, .L78+36
 967              	.LVL153:
 968 01e0 1CE0     		b	.L50
 969              	.LVL154:
 970              	.L63:
 971 01e2 1A48     		ldr	r0, .L78+36
 972              	.LVL155:
 973 01e4 1AE0     		b	.L50
 974              	.LVL156:
 975              	.L64:
 668:Source\mbedtls_open\library/x509_crl.c **** 
 976              		.loc 1 668 0
 977 01e6 1948     		ldr	r0, .L78+36
 978              	.LVL157:
 979 01e8 18E0     		b	.L50
 980              	.LVL158:
 981              	.L65:
 982 01ea 1848     		ldr	r0, .L78+36
 983              	.LVL159:
 984 01ec 16E0     		b	.L50
 985              	.LVL160:
 986              	.L66:
 674:Source\mbedtls_open\library/x509_crl.c **** 
 987              		.loc 1 674 0
 988 01ee 1748     		ldr	r0, .L78+36
 989              	.LVL161:
 990 01f0 14E0     		b	.L50
 991              	.LVL162:
 992              	.L67:
 993 01f2 1648     		ldr	r0, .L78+36
 994              	.LVL163:
 995 01f4 12E0     		b	.L50
 996              	.LVL164:
 997              	.L68:
 677:Source\mbedtls_open\library/x509_crl.c **** 
 998              		.loc 1 677 0
 999 01f6 1548     		ldr	r0, .L78+36
 1000              	.LVL165:
 1001 01f8 10E0     		b	.L50
 1002              	.LVL166:
 1003              	.L69:
 1004 01fa 1448     		ldr	r0, .L78+36
 1005              	.LVL167:
 1006 01fc 0EE0     		b	.L50
 1007              	.LVL168:
 1008              	.L70:
 684:Source\mbedtls_open\library/x509_crl.c **** 
 1009              		.loc 1 684 0
 1010 01fe 1348     		ldr	r0, .L78+36
 1011              	.LVL169:
 1012 0200 0CE0     		b	.L50
 1013              	.LVL170:
 1014              	.L71:
 1015 0202 1248     		ldr	r0, .L78+36
 1016              	.LVL171:
 1017 0204 0AE0     		b	.L50
ARM GAS  C:\Users\Phuong\AppData\Local\Temp\ccqvrWt4.s 			page 32


 1018              	.LVL172:
 1019              	.L72:
 690:Source\mbedtls_open\library/x509_crl.c **** 
 1020              		.loc 1 690 0
 1021 0206 1148     		ldr	r0, .L78+36
 1022              	.LVL173:
 1023 0208 08E0     		b	.L50
 1024              	.LVL174:
 1025              	.L73:
 1026 020a 1048     		ldr	r0, .L78+36
 1027              	.LVL175:
 1028 020c 06E0     		b	.L50
 1029              	.LVL176:
 1030              	.L74:
 694:Source\mbedtls_open\library/x509_crl.c **** 
 1031              		.loc 1 694 0
 1032 020e 0F48     		ldr	r0, .L78+36
 1033              	.LVL177:
 1034 0210 04E0     		b	.L50
 1035              	.LVL178:
 1036              	.L75:
 1037 0212 0E48     		ldr	r0, .L78+36
 1038              	.LVL179:
 1039 0214 02E0     		b	.L50
 1040              	.LVL180:
 1041              	.L76:
 697:Source\mbedtls_open\library/x509_crl.c **** 
 1042              		.loc 1 697 0
 1043 0216 0D48     		ldr	r0, .L78+36
 1044              	.LVL181:
 1045 0218 00E0     		b	.L50
 1046              	.LVL182:
 1047              	.L77:
 1048 021a 0C48     		ldr	r0, .L78+36
 1049              	.LVL183:
 1050              	.L50:
 700:Source\mbedtls_open\library/x509_crl.c **** }
 1051              		.loc 1 700 0
 1052 021c 09B0     		add	sp, sp, #36
 1053              		@ sp needed
 1054              	.LVL184:
 1055              	.LVL185:
 1056 021e 0CBC     		pop	{r2, r3}
 1057 0220 9046     		mov	r8, r2
 1058 0222 9A46     		mov	r10, r3
 1059 0224 F0BD     		pop	{r4, r5, r6, r7, pc}
 1060              	.L79:
 1061 0226 C046     		.align	2
 1062              	.L78:
 1063 0228 00000000 		.word	.LC0
 1064 022c 18000000 		.word	.LC2
 1065 0230 2C000000 		.word	.LC4
 1066 0234 60000000 		.word	.LC6
 1067 0238 94000000 		.word	.LC8
 1068 023c B0000000 		.word	.LC10
 1069 0240 C4000000 		.word	.LC12
 1070 0244 F4000000 		.word	.LC14
ARM GAS  C:\Users\Phuong\AppData\Local\Temp\ccqvrWt4.s 			page 33


 1071 0248 08010000 		.word	.LC16
 1072 024c 80D6FFFF 		.word	-10624
 1073              		.cfi_endproc
 1074              	.LFE17:
 1075              		.size	mbedtls_x509_crl_info, .-mbedtls_x509_crl_info
 1076              		.section	.text.mbedtls_x509_crl_init,"ax",%progbits
 1077              		.align	2
 1078              		.global	mbedtls_x509_crl_init
 1079              		.code	16
 1080              		.thumb_func
 1081              		.type	mbedtls_x509_crl_init, %function
 1082              	mbedtls_x509_crl_init:
 1083              	.LFB18:
 701:Source\mbedtls_open\library/x509_crl.c **** 
 702:Source\mbedtls_open\library/x509_crl.c **** /*
 703:Source\mbedtls_open\library/x509_crl.c ****  * Initialize a CRL chain
 704:Source\mbedtls_open\library/x509_crl.c ****  */
 705:Source\mbedtls_open\library/x509_crl.c **** void mbedtls_x509_crl_init( mbedtls_x509_crl *crl )
 706:Source\mbedtls_open\library/x509_crl.c **** {
 1084              		.loc 1 706 0
 1085              		.cfi_startproc
 1086              		@ args = 0, pretend = 0, frame = 0
 1087              		@ frame_needed = 0, uses_anonymous_args = 0
 1088              	.LVL186:
 1089 0000 10B5     		push	{r4, lr}
 1090              		.cfi_def_cfa_offset 8
 1091              		.cfi_offset 4, -8
 1092              		.cfi_offset 14, -4
 707:Source\mbedtls_open\library/x509_crl.c ****     memset( crl, 0, sizeof(mbedtls_x509_crl) );
 1093              		.loc 1 707 0
 1094 0002 F422     		movs	r2, #244
 1095 0004 0021     		movs	r1, #0
 1096 0006 FFF7FEFF 		bl	memset
 1097              	.LVL187:
 708:Source\mbedtls_open\library/x509_crl.c **** }
 1098              		.loc 1 708 0
 1099              		@ sp needed
 1100 000a 10BD     		pop	{r4, pc}
 1101              		.cfi_endproc
 1102              	.LFE18:
 1103              		.size	mbedtls_x509_crl_init, .-mbedtls_x509_crl_init
 1104              		.section	.text.mbedtls_x509_crl_free,"ax",%progbits
 1105              		.align	2
 1106              		.global	mbedtls_x509_crl_free
 1107              		.code	16
 1108              		.thumb_func
 1109              		.type	mbedtls_x509_crl_free, %function
 1110              	mbedtls_x509_crl_free:
 1111              	.LFB19:
 709:Source\mbedtls_open\library/x509_crl.c **** 
 710:Source\mbedtls_open\library/x509_crl.c **** /*
 711:Source\mbedtls_open\library/x509_crl.c ****  * Unallocate all CRL data
 712:Source\mbedtls_open\library/x509_crl.c ****  */
 713:Source\mbedtls_open\library/x509_crl.c **** void mbedtls_x509_crl_free( mbedtls_x509_crl *crl )
 714:Source\mbedtls_open\library/x509_crl.c **** {
 1112              		.loc 1 714 0
 1113              		.cfi_startproc
ARM GAS  C:\Users\Phuong\AppData\Local\Temp\ccqvrWt4.s 			page 34


 1114              		@ args = 0, pretend = 0, frame = 0
 1115              		@ frame_needed = 0, uses_anonymous_args = 0
 1116              	.LVL188:
 1117 0000 F8B5     		push	{r3, r4, r5, r6, r7, lr}
 1118              		.cfi_def_cfa_offset 24
 1119              		.cfi_offset 3, -24
 1120              		.cfi_offset 4, -20
 1121              		.cfi_offset 5, -16
 1122              		.cfi_offset 6, -12
 1123              		.cfi_offset 7, -8
 1124              		.cfi_offset 14, -4
 1125 0002 071E     		subs	r7, r0, #0
 1126              	.LVL189:
 715:Source\mbedtls_open\library/x509_crl.c ****     mbedtls_x509_crl *crl_cur = crl;
 716:Source\mbedtls_open\library/x509_crl.c ****     mbedtls_x509_crl *crl_prv;
 717:Source\mbedtls_open\library/x509_crl.c ****     mbedtls_x509_name *name_cur;
 718:Source\mbedtls_open\library/x509_crl.c ****     mbedtls_x509_name *name_prv;
 719:Source\mbedtls_open\library/x509_crl.c ****     mbedtls_x509_crl_entry *entry_cur;
 720:Source\mbedtls_open\library/x509_crl.c ****     mbedtls_x509_crl_entry *entry_prv;
 721:Source\mbedtls_open\library/x509_crl.c **** 
 722:Source\mbedtls_open\library/x509_crl.c ****     if( crl == NULL )
 1127              		.loc 1 722 0
 1128 0004 3AD0     		beq	.L81
 1129 0006 0600     		movs	r6, r0
 1130              	.LVL190:
 1131              	.L88:
 723:Source\mbedtls_open\library/x509_crl.c ****         return;
 724:Source\mbedtls_open\library/x509_crl.c **** 
 725:Source\mbedtls_open\library/x509_crl.c ****     do
 726:Source\mbedtls_open\library/x509_crl.c ****     {
 727:Source\mbedtls_open\library/x509_crl.c **** #if defined(MBEDTLS_X509_RSASSA_PSS_SUPPORT)
 728:Source\mbedtls_open\library/x509_crl.c ****         mbedtls_free( crl_cur->sig_opts );
 1132              		.loc 1 728 0
 1133 0008 EC23     		movs	r3, #236
 1134 000a F058     		ldr	r0, [r6, r3]
 1135 000c FFF7FEFF 		bl	free
 1136              	.LVL191:
 729:Source\mbedtls_open\library/x509_crl.c **** #endif
 730:Source\mbedtls_open\library/x509_crl.c **** 
 731:Source\mbedtls_open\library/x509_crl.c ****         name_cur = crl_cur->issuer.next;
 1137              		.loc 1 731 0
 1138 0010 F46C     		ldr	r4, [r6, #76]
 1139              	.LVL192:
 732:Source\mbedtls_open\library/x509_crl.c ****         while( name_cur != NULL )
 1140              		.loc 1 732 0
 1141 0012 08E0     		b	.L83
 1142              	.L84:
 1143              	.LVL193:
 733:Source\mbedtls_open\library/x509_crl.c ****         {
 734:Source\mbedtls_open\library/x509_crl.c ****             name_prv = name_cur;
 735:Source\mbedtls_open\library/x509_crl.c ****             name_cur = name_cur->next;
 1144              		.loc 1 735 0
 1145 0014 A569     		ldr	r5, [r4, #24]
 1146              	.LVL194:
 736:Source\mbedtls_open\library/x509_crl.c ****             mbedtls_platform_zeroize( name_prv, sizeof( mbedtls_x509_name ) );
 1147              		.loc 1 736 0
 1148 0016 2021     		movs	r1, #32
ARM GAS  C:\Users\Phuong\AppData\Local\Temp\ccqvrWt4.s 			page 35


 1149 0018 2000     		movs	r0, r4
 1150 001a FFF7FEFF 		bl	mbedtls_platform_zeroize
 1151              	.LVL195:
 737:Source\mbedtls_open\library/x509_crl.c ****             mbedtls_free( name_prv );
 1152              		.loc 1 737 0
 1153 001e 2000     		movs	r0, r4
 1154 0020 FFF7FEFF 		bl	free
 1155              	.LVL196:
 735:Source\mbedtls_open\library/x509_crl.c ****             mbedtls_platform_zeroize( name_prv, sizeof( mbedtls_x509_name ) );
 1156              		.loc 1 735 0
 1157 0024 2C00     		movs	r4, r5
 1158              	.LVL197:
 1159              	.L83:
 732:Source\mbedtls_open\library/x509_crl.c ****         {
 1160              		.loc 1 732 0
 1161 0026 002C     		cmp	r4, #0
 1162 0028 F4D1     		bne	.L84
 738:Source\mbedtls_open\library/x509_crl.c ****         }
 739:Source\mbedtls_open\library/x509_crl.c **** 
 740:Source\mbedtls_open\library/x509_crl.c ****         entry_cur = crl_cur->entry.next;
 1163              		.loc 1 740 0
 1164 002a C023     		movs	r3, #192
 1165 002c F458     		ldr	r4, [r6, r3]
 1166              	.LVL198:
 741:Source\mbedtls_open\library/x509_crl.c ****         while( entry_cur != NULL )
 1167              		.loc 1 741 0
 1168 002e 08E0     		b	.L85
 1169              	.L86:
 1170              	.LVL199:
 742:Source\mbedtls_open\library/x509_crl.c ****         {
 743:Source\mbedtls_open\library/x509_crl.c ****             entry_prv = entry_cur;
 744:Source\mbedtls_open\library/x509_crl.c ****             entry_cur = entry_cur->next;
 1171              		.loc 1 744 0
 1172 0030 E56B     		ldr	r5, [r4, #60]
 1173              	.LVL200:
 745:Source\mbedtls_open\library/x509_crl.c ****             mbedtls_platform_zeroize( entry_prv,
 1174              		.loc 1 745 0
 1175 0032 4021     		movs	r1, #64
 1176 0034 2000     		movs	r0, r4
 1177 0036 FFF7FEFF 		bl	mbedtls_platform_zeroize
 1178              	.LVL201:
 746:Source\mbedtls_open\library/x509_crl.c ****                                       sizeof( mbedtls_x509_crl_entry ) );
 747:Source\mbedtls_open\library/x509_crl.c ****             mbedtls_free( entry_prv );
 1179              		.loc 1 747 0
 1180 003a 2000     		movs	r0, r4
 1181 003c FFF7FEFF 		bl	free
 1182              	.LVL202:
 744:Source\mbedtls_open\library/x509_crl.c ****             mbedtls_platform_zeroize( entry_prv,
 1183              		.loc 1 744 0
 1184 0040 2C00     		movs	r4, r5
 1185              	.LVL203:
 1186              	.L85:
 741:Source\mbedtls_open\library/x509_crl.c ****         {
 1187              		.loc 1 741 0
 1188 0042 002C     		cmp	r4, #0
 1189 0044 F4D1     		bne	.L86
 748:Source\mbedtls_open\library/x509_crl.c ****         }
ARM GAS  C:\Users\Phuong\AppData\Local\Temp\ccqvrWt4.s 			page 36


 749:Source\mbedtls_open\library/x509_crl.c **** 
 750:Source\mbedtls_open\library/x509_crl.c ****         if( crl_cur->raw.p != NULL )
 1190              		.loc 1 750 0
 1191 0046 B068     		ldr	r0, [r6, #8]
 1192 0048 0028     		cmp	r0, #0
 1193 004a 05D0     		beq	.L87
 751:Source\mbedtls_open\library/x509_crl.c ****         {
 752:Source\mbedtls_open\library/x509_crl.c ****             mbedtls_platform_zeroize( crl_cur->raw.p, crl_cur->raw.len );
 1194              		.loc 1 752 0
 1195 004c 7168     		ldr	r1, [r6, #4]
 1196 004e FFF7FEFF 		bl	mbedtls_platform_zeroize
 1197              	.LVL204:
 753:Source\mbedtls_open\library/x509_crl.c ****             mbedtls_free( crl_cur->raw.p );
 1198              		.loc 1 753 0
 1199 0052 B068     		ldr	r0, [r6, #8]
 1200 0054 FFF7FEFF 		bl	free
 1201              	.LVL205:
 1202              	.L87:
 754:Source\mbedtls_open\library/x509_crl.c ****         }
 755:Source\mbedtls_open\library/x509_crl.c **** 
 756:Source\mbedtls_open\library/x509_crl.c ****         crl_cur = crl_cur->next;
 1203              		.loc 1 756 0
 1204 0058 F023     		movs	r3, #240
 1205 005a F658     		ldr	r6, [r6, r3]
 1206              	.LVL206:
 757:Source\mbedtls_open\library/x509_crl.c ****     }
 758:Source\mbedtls_open\library/x509_crl.c ****     while( crl_cur != NULL );
 1207              		.loc 1 758 0
 1208 005c 002E     		cmp	r6, #0
 1209 005e D3D1     		bne	.L88
 1210 0060 3C00     		movs	r4, r7
 1211              	.LVL207:
 1212              	.L90:
 759:Source\mbedtls_open\library/x509_crl.c **** 
 760:Source\mbedtls_open\library/x509_crl.c ****     crl_cur = crl;
 761:Source\mbedtls_open\library/x509_crl.c ****     do
 762:Source\mbedtls_open\library/x509_crl.c ****     {
 763:Source\mbedtls_open\library/x509_crl.c ****         crl_prv = crl_cur;
 764:Source\mbedtls_open\library/x509_crl.c ****         crl_cur = crl_cur->next;
 1213              		.loc 1 764 0
 1214 0062 F023     		movs	r3, #240
 1215 0064 E558     		ldr	r5, [r4, r3]
 1216              	.LVL208:
 765:Source\mbedtls_open\library/x509_crl.c **** 
 766:Source\mbedtls_open\library/x509_crl.c ****         mbedtls_platform_zeroize( crl_prv, sizeof( mbedtls_x509_crl ) );
 1217              		.loc 1 766 0
 1218 0066 F421     		movs	r1, #244
 1219 0068 2000     		movs	r0, r4
 1220 006a FFF7FEFF 		bl	mbedtls_platform_zeroize
 1221              	.LVL209:
 767:Source\mbedtls_open\library/x509_crl.c ****         if( crl_prv != crl )
 1222              		.loc 1 767 0
 1223 006e BC42     		cmp	r4, r7
 1224 0070 02D0     		beq	.L89
 768:Source\mbedtls_open\library/x509_crl.c ****             mbedtls_free( crl_prv );
 1225              		.loc 1 768 0
 1226 0072 2000     		movs	r0, r4
ARM GAS  C:\Users\Phuong\AppData\Local\Temp\ccqvrWt4.s 			page 37


 1227 0074 FFF7FEFF 		bl	free
 1228              	.LVL210:
 1229              	.L89:
 764:Source\mbedtls_open\library/x509_crl.c **** 
 1230              		.loc 1 764 0
 1231 0078 2C1E     		subs	r4, r5, #0
 1232              	.LVL211:
 769:Source\mbedtls_open\library/x509_crl.c ****     }
 770:Source\mbedtls_open\library/x509_crl.c ****     while( crl_cur != NULL );
 1233              		.loc 1 770 0
 1234 007a F2D1     		bne	.L90
 1235              	.LVL212:
 1236              	.L81:
 771:Source\mbedtls_open\library/x509_crl.c **** }
 1237              		.loc 1 771 0
 1238              		@ sp needed
 1239              	.LVL213:
 1240 007c F8BD     		pop	{r3, r4, r5, r6, r7, pc}
 1241              		.cfi_endproc
 1242              	.LFE19:
 1243              		.size	mbedtls_x509_crl_free, .-mbedtls_x509_crl_free
 1244 007e C046     		.section	.text.mbedtls_x509_crl_parse_der,"ax",%progbits
 1245              		.align	2
 1246              		.global	mbedtls_x509_crl_parse_der
 1247              		.code	16
 1248              		.thumb_func
 1249              		.type	mbedtls_x509_crl_parse_der, %function
 1250              	mbedtls_x509_crl_parse_der:
 1251              	.LFB15:
 302:Source\mbedtls_open\library/x509_crl.c ****     int ret;
 1252              		.loc 1 302 0
 1253              		.cfi_startproc
 1254              		@ args = 0, pretend = 0, frame = 48
 1255              		@ frame_needed = 0, uses_anonymous_args = 0
 1256              	.LVL214:
 1257 0000 F0B5     		push	{r4, r5, r6, r7, lr}
 1258              		.cfi_def_cfa_offset 20
 1259              		.cfi_offset 4, -20
 1260              		.cfi_offset 5, -16
 1261              		.cfi_offset 6, -12
 1262              		.cfi_offset 7, -8
 1263              		.cfi_offset 14, -4
 1264 0002 8FB0     		sub	sp, sp, #60
 1265              		.cfi_def_cfa_offset 80
 1266 0004 0400     		movs	r4, r0
 1267 0006 0D00     		movs	r5, r1
 1268 0008 1600     		movs	r6, r2
 305:Source\mbedtls_open\library/x509_crl.c ****     mbedtls_x509_buf sig_params1, sig_params2, sig_oid2;
 1269              		.loc 1 305 0
 1270 000a 0023     		movs	r3, #0
 1271 000c 0C93     		str	r3, [sp, #48]
 1272              	.LVL215:
 312:Source\mbedtls_open\library/x509_crl.c ****         return( MBEDTLS_ERR_X509_BAD_INPUT_DATA );
 1273              		.loc 1 312 0
 1274 000e 0028     		cmp	r0, #0
 1275 0010 00D1     		bne	.LCB1407
 1276 0012 4BE1     		b	.L115	@long jump
ARM GAS  C:\Users\Phuong\AppData\Local\Temp\ccqvrWt4.s 			page 38


 1277              	.LCB1407:
 312:Source\mbedtls_open\library/x509_crl.c ****         return( MBEDTLS_ERR_X509_BAD_INPUT_DATA );
 1278              		.loc 1 312 0 is_stmt 0 discriminator 1
 1279 0014 0029     		cmp	r1, #0
 1280 0016 00D1     		bne	.LCB1409
 1281 0018 4AE1     		b	.L116	@long jump
 1282              	.LCB1409:
 315:Source\mbedtls_open\library/x509_crl.c ****     memset( &sig_params2, 0, sizeof( mbedtls_x509_buf ) );
 1283              		.loc 1 315 0 is_stmt 1
 1284 001a 0C22     		movs	r2, #12
 1285              	.LVL216:
 1286 001c 0021     		movs	r1, #0
 1287              	.LVL217:
 1288 001e 09A8     		add	r0, sp, #36
 1289              	.LVL218:
 1290 0020 FFF7FEFF 		bl	memset
 1291              	.LVL219:
 316:Source\mbedtls_open\library/x509_crl.c ****     memset( &sig_oid2, 0, sizeof( mbedtls_x509_buf ) );
 1292              		.loc 1 316 0
 1293 0024 0C22     		movs	r2, #12
 1294 0026 0021     		movs	r1, #0
 1295 0028 06A8     		add	r0, sp, #24
 1296 002a FFF7FEFF 		bl	memset
 1297              	.LVL220:
 317:Source\mbedtls_open\library/x509_crl.c **** 
 1298              		.loc 1 317 0
 1299 002e 0C22     		movs	r2, #12
 1300 0030 0021     		movs	r1, #0
 1301 0032 03A8     		add	r0, sp, #12
 1302 0034 FFF7FEFF 		bl	memset
 1303              	.LVL221:
 322:Source\mbedtls_open\library/x509_crl.c ****         crl = crl->next;
 1304              		.loc 1 322 0
 1305 0038 00E0     		b	.L94
 1306              	.LVL222:
 1307              	.L117:
 323:Source\mbedtls_open\library/x509_crl.c **** 
 1308              		.loc 1 323 0
 1309 003a 1C00     		movs	r4, r3
 1310              	.LVL223:
 1311              	.L94:
 322:Source\mbedtls_open\library/x509_crl.c ****         crl = crl->next;
 1312              		.loc 1 322 0
 1313 003c A269     		ldr	r2, [r4, #24]
 1314 003e 002A     		cmp	r2, #0
 1315 0040 03D0     		beq	.L93
 322:Source\mbedtls_open\library/x509_crl.c ****         crl = crl->next;
 1316              		.loc 1 322 0 is_stmt 0 discriminator 1
 1317 0042 F023     		movs	r3, #240
 1318 0044 E358     		ldr	r3, [r4, r3]
 1319 0046 002B     		cmp	r3, #0
 1320 0048 F7D1     		bne	.L117
 1321              	.L93:
 325:Source\mbedtls_open\library/x509_crl.c ****     {
 1322              		.loc 1 325 0 is_stmt 1
 1323 004a 002A     		cmp	r2, #0
 1324 004c 14D0     		beq	.L95
ARM GAS  C:\Users\Phuong\AppData\Local\Temp\ccqvrWt4.s 			page 39


 325:Source\mbedtls_open\library/x509_crl.c ****     {
 1325              		.loc 1 325 0 is_stmt 0 discriminator 1
 1326 004e F023     		movs	r3, #240
 1327 0050 E358     		ldr	r3, [r4, r3]
 1328 0052 002B     		cmp	r3, #0
 1329 0054 10D1     		bne	.L95
 327:Source\mbedtls_open\library/x509_crl.c **** 
 1330              		.loc 1 327 0 is_stmt 1
 1331 0056 F421     		movs	r1, #244
 1332 0058 0120     		movs	r0, #1
 1333 005a FFF7FEFF 		bl	calloc
 1334              	.LVL224:
 1335 005e F023     		movs	r3, #240
 1336 0060 E050     		str	r0, [r4, r3]
 329:Source\mbedtls_open\library/x509_crl.c ****         {
 1337              		.loc 1 329 0
 1338 0062 0028     		cmp	r0, #0
 1339 0064 04D1     		bne	.L96
 331:Source\mbedtls_open\library/x509_crl.c ****             return( MBEDTLS_ERR_X509_ALLOC_FAILED );
 1340              		.loc 1 331 0
 1341 0066 2000     		movs	r0, r4
 1342 0068 FFF7FEFF 		bl	mbedtls_x509_crl_free
 1343              	.LVL225:
 332:Source\mbedtls_open\library/x509_crl.c ****         }
 1344              		.loc 1 332 0
 1345 006c 944D     		ldr	r5, .L120
 1346              	.LVL226:
 1347 006e 24E1     		b	.L92
 1348              	.LVL227:
 1349              	.L96:
 335:Source\mbedtls_open\library/x509_crl.c ****         crl = crl->next;
 1350              		.loc 1 335 0
 1351 0070 FFF7FEFF 		bl	mbedtls_x509_crl_init
 1352              	.LVL228:
 336:Source\mbedtls_open\library/x509_crl.c ****     }
 1353              		.loc 1 336 0
 1354 0074 F023     		movs	r3, #240
 1355 0076 E458     		ldr	r4, [r4, r3]
 1356              	.LVL229:
 1357              	.L95:
 342:Source\mbedtls_open\library/x509_crl.c ****         return( MBEDTLS_ERR_X509_INVALID_FORMAT );
 1358              		.loc 1 342 0
 1359 0078 002E     		cmp	r6, #0
 1360 007a 00D1     		bne	.LCB1484
 1361 007c 1AE1     		b	.L118	@long jump
 1362              	.LCB1484:
 345:Source\mbedtls_open\library/x509_crl.c ****     if( p == NULL )
 1363              		.loc 1 345 0
 1364 007e 3100     		movs	r1, r6
 1365 0080 0120     		movs	r0, #1
 1366 0082 FFF7FEFF 		bl	calloc
 1367              	.LVL230:
 1368 0086 0C90     		str	r0, [sp, #48]
 346:Source\mbedtls_open\library/x509_crl.c ****         return( MBEDTLS_ERR_X509_ALLOC_FAILED );
 1369              		.loc 1 346 0
 1370 0088 0028     		cmp	r0, #0
 1371 008a 00D1     		bne	.LCB1492
ARM GAS  C:\Users\Phuong\AppData\Local\Temp\ccqvrWt4.s 			page 40


 1372 008c 14E1     		b	.L119	@long jump
 1373              	.LCB1492:
 349:Source\mbedtls_open\library/x509_crl.c **** 
 1374              		.loc 1 349 0
 1375 008e 3200     		movs	r2, r6
 1376 0090 2900     		movs	r1, r5
 1377 0092 FFF7FEFF 		bl	memcpy
 1378              	.LVL231:
 351:Source\mbedtls_open\library/x509_crl.c ****     crl->raw.len = buflen;
 1379              		.loc 1 351 0
 1380 0096 0C9B     		ldr	r3, [sp, #48]
 1381 0098 A360     		str	r3, [r4, #8]
 352:Source\mbedtls_open\library/x509_crl.c **** 
 1382              		.loc 1 352 0
 1383 009a 6660     		str	r6, [r4, #4]
 354:Source\mbedtls_open\library/x509_crl.c **** 
 1384              		.loc 1 354 0
 1385 009c 9E19     		adds	r6, r3, r6
 1386              	.LVL232:
 362:Source\mbedtls_open\library/x509_crl.c ****             MBEDTLS_ASN1_CONSTRUCTED | MBEDTLS_ASN1_SEQUENCE ) ) != 0 )
 1387              		.loc 1 362 0
 1388 009e 3023     		movs	r3, #48
 1389 00a0 0DAA     		add	r2, sp, #52
 1390 00a2 3100     		movs	r1, r6
 1391 00a4 0CA8     		add	r0, sp, #48
 1392 00a6 FFF7FEFF 		bl	mbedtls_asn1_get_tag
 1393              	.LVL233:
 1394 00aa 0028     		cmp	r0, #0
 1395 00ac 04D0     		beq	.L97
 365:Source\mbedtls_open\library/x509_crl.c ****         return( MBEDTLS_ERR_X509_INVALID_FORMAT );
 1396              		.loc 1 365 0
 1397 00ae 2000     		movs	r0, r4
 1398              	.LVL234:
 1399 00b0 FFF7FEFF 		bl	mbedtls_x509_crl_free
 1400              	.LVL235:
 366:Source\mbedtls_open\library/x509_crl.c ****     }
 1401              		.loc 1 366 0
 1402 00b4 834D     		ldr	r5, .L120+4
 1403              	.LVL236:
 1404 00b6 00E1     		b	.L92
 1405              	.LVL237:
 1406              	.L97:
 369:Source\mbedtls_open\library/x509_crl.c ****     {
 1407              		.loc 1 369 0
 1408 00b8 0C9B     		ldr	r3, [sp, #48]
 1409 00ba F21A     		subs	r2, r6, r3
 1410 00bc 0D99     		ldr	r1, [sp, #52]
 1411 00be 8A42     		cmp	r2, r1
 1412 00c0 04D0     		beq	.L98
 371:Source\mbedtls_open\library/x509_crl.c ****         return( MBEDTLS_ERR_X509_INVALID_FORMAT +
 1413              		.loc 1 371 0
 1414 00c2 2000     		movs	r0, r4
 1415              	.LVL238:
 1416 00c4 FFF7FEFF 		bl	mbedtls_x509_crl_free
 1417              	.LVL239:
 372:Source\mbedtls_open\library/x509_crl.c ****                 MBEDTLS_ERR_ASN1_LENGTH_MISMATCH );
 1418              		.loc 1 372 0
ARM GAS  C:\Users\Phuong\AppData\Local\Temp\ccqvrWt4.s 			page 41


 1419 00c8 7F4D     		ldr	r5, .L120+8
 1420              	.LVL240:
 1421 00ca F6E0     		b	.L92
 1422              	.LVL241:
 1423              	.L98:
 379:Source\mbedtls_open\library/x509_crl.c **** 
 1424              		.loc 1 379 0
 1425 00cc 6361     		str	r3, [r4, #20]
 381:Source\mbedtls_open\library/x509_crl.c ****             MBEDTLS_ASN1_CONSTRUCTED | MBEDTLS_ASN1_SEQUENCE ) ) != 0 )
 1426              		.loc 1 381 0
 1427 00ce 3023     		movs	r3, #48
 1428 00d0 0DAA     		add	r2, sp, #52
 1429 00d2 3100     		movs	r1, r6
 1430 00d4 0CA8     		add	r0, sp, #48
 1431              	.LVL242:
 1432 00d6 FFF7FEFF 		bl	mbedtls_asn1_get_tag
 1433              	.LVL243:
 1434 00da 051E     		subs	r5, r0, #0
 1435              	.LVL244:
 1436 00dc 06D0     		beq	.L99
 384:Source\mbedtls_open\library/x509_crl.c ****         return( MBEDTLS_ERR_X509_INVALID_FORMAT + ret );
 1437              		.loc 1 384 0
 1438 00de 2000     		movs	r0, r4
 1439              	.LVL245:
 1440 00e0 FFF7FEFF 		bl	mbedtls_x509_crl_free
 1441              	.LVL246:
 385:Source\mbedtls_open\library/x509_crl.c ****     }
 1442              		.loc 1 385 0
 1443 00e4 774B     		ldr	r3, .L120+4
 1444 00e6 9C46     		mov	ip, r3
 1445 00e8 6544     		add	r5, r5, ip
 1446              	.LVL247:
 1447 00ea E6E0     		b	.L92
 1448              	.LVL248:
 1449              	.L99:
 388:Source\mbedtls_open\library/x509_crl.c ****     crl->tbs.len = end - crl->tbs.p;
 1450              		.loc 1 388 0
 1451 00ec 0C9B     		ldr	r3, [sp, #48]
 1452 00ee 0D9A     		ldr	r2, [sp, #52]
 1453 00f0 9446     		mov	ip, r2
 1454 00f2 6344     		add	r3, r3, ip
 1455 00f4 1E00     		movs	r6, r3
 1456              	.LVL249:
 389:Source\mbedtls_open\library/x509_crl.c **** 
 1457              		.loc 1 389 0
 1458 00f6 6369     		ldr	r3, [r4, #20]
 1459              	.LVL250:
 1460 00f8 F31A     		subs	r3, r6, r3
 1461 00fa 2361     		str	r3, [r4, #16]
 397:Source\mbedtls_open\library/x509_crl.c ****         ( ret = mbedtls_x509_get_alg( &p, end, &crl->sig_oid, &sig_params1 ) ) != 0 )
 1462              		.loc 1 397 0
 1463 00fc 2200     		movs	r2, r4
 1464 00fe 1832     		adds	r2, r2, #24
 1465 0100 3100     		movs	r1, r6
 1466 0102 0CA8     		add	r0, sp, #48
 1467              	.LVL251:
 1468 0104 FFF7FEFF 		bl	x509_crl_get_version
ARM GAS  C:\Users\Phuong\AppData\Local\Temp\ccqvrWt4.s 			page 42


 1469              	.LVL252:
 1470 0108 051E     		subs	r5, r0, #0
 1471              	.LVL253:
 1472 010a 09D1     		bne	.L100
 398:Source\mbedtls_open\library/x509_crl.c ****     {
 1473              		.loc 1 398 0 discriminator 1
 1474 010c 2700     		movs	r7, r4
 1475 010e 1C37     		adds	r7, r7, #28
 397:Source\mbedtls_open\library/x509_crl.c ****         ( ret = mbedtls_x509_get_alg( &p, end, &crl->sig_oid, &sig_params1 ) ) != 0 )
 1476              		.loc 1 397 0 discriminator 1
 1477 0110 09AB     		add	r3, sp, #36
 1478 0112 3A00     		movs	r2, r7
 1479 0114 3100     		movs	r1, r6
 1480 0116 0CA8     		add	r0, sp, #48
 1481              	.LVL254:
 1482 0118 FFF7FEFF 		bl	mbedtls_x509_get_alg
 1483              	.LVL255:
 1484 011c 051E     		subs	r5, r0, #0
 1485              	.LVL256:
 1486 011e 03D0     		beq	.L101
 1487              	.L100:
 400:Source\mbedtls_open\library/x509_crl.c ****         return( ret );
 1488              		.loc 1 400 0
 1489 0120 2000     		movs	r0, r4
 1490              	.LVL257:
 1491 0122 FFF7FEFF 		bl	mbedtls_x509_crl_free
 1492              	.LVL258:
 401:Source\mbedtls_open\library/x509_crl.c ****     }
 1493              		.loc 1 401 0
 1494 0126 C8E0     		b	.L92
 1495              	.LVL259:
 1496              	.L101:
 404:Source\mbedtls_open\library/x509_crl.c ****     {
 1497              		.loc 1 404 0
 1498 0128 A369     		ldr	r3, [r4, #24]
 1499 012a 012B     		cmp	r3, #1
 1500 012c 04D9     		bls	.L102
 406:Source\mbedtls_open\library/x509_crl.c ****         return( MBEDTLS_ERR_X509_UNKNOWN_VERSION );
 1501              		.loc 1 406 0
 1502 012e 2000     		movs	r0, r4
 1503              	.LVL260:
 1504 0130 FFF7FEFF 		bl	mbedtls_x509_crl_free
 1505              	.LVL261:
 407:Source\mbedtls_open\library/x509_crl.c ****     }
 1506              		.loc 1 407 0
 1507 0134 654D     		ldr	r5, .L120+12
 1508              	.LVL262:
 1509 0136 C0E0     		b	.L92
 1510              	.LVL263:
 1511              	.L102:
 410:Source\mbedtls_open\library/x509_crl.c **** 
 1512              		.loc 1 410 0
 1513 0138 0133     		adds	r3, r3, #1
 1514 013a A361     		str	r3, [r4, #24]
 412:Source\mbedtls_open\library/x509_crl.c ****                                   &crl->sig_md, &crl->sig_pk,
 1515              		.loc 1 412 0
 1516 013c 2200     		movs	r2, r4
ARM GAS  C:\Users\Phuong\AppData\Local\Temp\ccqvrWt4.s 			page 43


 1517 013e E832     		adds	r2, r2, #232
 1518 0140 2300     		movs	r3, r4
 1519 0142 EC33     		adds	r3, r3, #236
 1520 0144 0093     		str	r3, [sp]
 1521 0146 033B     		subs	r3, r3, #3
 1522 0148 09A9     		add	r1, sp, #36
 1523 014a 3800     		movs	r0, r7
 1524              	.LVL264:
 1525 014c FFF7FEFF 		bl	mbedtls_x509_get_sig_alg
 1526              	.LVL265:
 1527 0150 0028     		cmp	r0, #0
 1528 0152 04D0     		beq	.L103
 416:Source\mbedtls_open\library/x509_crl.c ****         return( MBEDTLS_ERR_X509_UNKNOWN_SIG_ALG );
 1529              		.loc 1 416 0
 1530 0154 2000     		movs	r0, r4
 1531              	.LVL266:
 1532 0156 FFF7FEFF 		bl	mbedtls_x509_crl_free
 1533              	.LVL267:
 417:Source\mbedtls_open\library/x509_crl.c ****     }
 1534              		.loc 1 417 0
 1535 015a 5D4D     		ldr	r5, .L120+16
 1536 015c ADE0     		b	.L92
 1537              	.LVL268:
 1538              	.L103:
 423:Source\mbedtls_open\library/x509_crl.c **** 
 1539              		.loc 1 423 0
 1540 015e 0C9B     		ldr	r3, [sp, #48]
 1541 0160 2363     		str	r3, [r4, #48]
 425:Source\mbedtls_open\library/x509_crl.c ****             MBEDTLS_ASN1_CONSTRUCTED | MBEDTLS_ASN1_SEQUENCE ) ) != 0 )
 1542              		.loc 1 425 0
 1543 0162 3023     		movs	r3, #48
 1544 0164 0DAA     		add	r2, sp, #52
 1545 0166 3100     		movs	r1, r6
 1546 0168 0CA8     		add	r0, sp, #48
 1547              	.LVL269:
 1548 016a FFF7FEFF 		bl	mbedtls_asn1_get_tag
 1549              	.LVL270:
 1550 016e 051E     		subs	r5, r0, #0
 1551              	.LVL271:
 1552 0170 06D0     		beq	.L104
 428:Source\mbedtls_open\library/x509_crl.c ****         return( MBEDTLS_ERR_X509_INVALID_FORMAT + ret );
 1553              		.loc 1 428 0
 1554 0172 2000     		movs	r0, r4
 1555              	.LVL272:
 1556 0174 FFF7FEFF 		bl	mbedtls_x509_crl_free
 1557              	.LVL273:
 429:Source\mbedtls_open\library/x509_crl.c ****     }
 1558              		.loc 1 429 0
 1559 0178 524B     		ldr	r3, .L120+4
 1560 017a 9C46     		mov	ip, r3
 1561 017c 6544     		add	r5, r5, ip
 1562              	.LVL274:
 1563 017e 9CE0     		b	.L92
 1564              	.LVL275:
 1565              	.L104:
 432:Source\mbedtls_open\library/x509_crl.c ****     {
 1566              		.loc 1 432 0
ARM GAS  C:\Users\Phuong\AppData\Local\Temp\ccqvrWt4.s 			page 44


 1567 0180 0C9B     		ldr	r3, [sp, #48]
 1568 0182 0D9A     		ldr	r2, [sp, #52]
 1569 0184 9446     		mov	ip, r2
 1570 0186 6344     		add	r3, r3, ip
 1571 0188 1900     		movs	r1, r3
 1572 018a 2200     		movs	r2, r4
 1573 018c 3432     		adds	r2, r2, #52
 1574 018e 0CA8     		add	r0, sp, #48
 1575              	.LVL276:
 1576 0190 FFF7FEFF 		bl	mbedtls_x509_get_name
 1577              	.LVL277:
 1578 0194 051E     		subs	r5, r0, #0
 1579              	.LVL278:
 1580 0196 03D0     		beq	.L105
 434:Source\mbedtls_open\library/x509_crl.c ****         return( ret );
 1581              		.loc 1 434 0
 1582 0198 2000     		movs	r0, r4
 1583              	.LVL279:
 1584 019a FFF7FEFF 		bl	mbedtls_x509_crl_free
 1585              	.LVL280:
 435:Source\mbedtls_open\library/x509_crl.c ****     }
 1586              		.loc 1 435 0
 1587 019e 8CE0     		b	.L92
 1588              	.LVL281:
 1589              	.L105:
 438:Source\mbedtls_open\library/x509_crl.c **** 
 1590              		.loc 1 438 0
 1591 01a0 0C9B     		ldr	r3, [sp, #48]
 1592 01a2 226B     		ldr	r2, [r4, #48]
 1593 01a4 9B1A     		subs	r3, r3, r2
 1594 01a6 E362     		str	r3, [r4, #44]
 444:Source\mbedtls_open\library/x509_crl.c ****     {
 1595              		.loc 1 444 0
 1596 01a8 2200     		movs	r2, r4
 1597 01aa 5432     		adds	r2, r2, #84
 1598 01ac 3100     		movs	r1, r6
 1599 01ae 0CA8     		add	r0, sp, #48
 1600              	.LVL282:
 1601 01b0 FFF7FEFF 		bl	mbedtls_x509_get_time
 1602              	.LVL283:
 1603 01b4 051E     		subs	r5, r0, #0
 1604              	.LVL284:
 1605 01b6 03D0     		beq	.L106
 446:Source\mbedtls_open\library/x509_crl.c ****         return( ret );
 1606              		.loc 1 446 0
 1607 01b8 2000     		movs	r0, r4
 1608              	.LVL285:
 1609 01ba FFF7FEFF 		bl	mbedtls_x509_crl_free
 1610              	.LVL286:
 447:Source\mbedtls_open\library/x509_crl.c ****     }
 1611              		.loc 1 447 0
 1612 01be 7CE0     		b	.L92
 1613              	.LVL287:
 1614              	.L106:
 450:Source\mbedtls_open\library/x509_crl.c ****     {
 1615              		.loc 1 450 0
 1616 01c0 2200     		movs	r2, r4
ARM GAS  C:\Users\Phuong\AppData\Local\Temp\ccqvrWt4.s 			page 45


 1617 01c2 6C32     		adds	r2, r2, #108
 1618 01c4 3100     		movs	r1, r6
 1619 01c6 0CA8     		add	r0, sp, #48
 1620              	.LVL288:
 1621 01c8 FFF7FEFF 		bl	mbedtls_x509_get_time
 1622              	.LVL289:
 1623 01cc 051E     		subs	r5, r0, #0
 1624              	.LVL290:
 1625 01ce 09D0     		beq	.L107
 452:Source\mbedtls_open\library/x509_crl.c ****                         MBEDTLS_ERR_ASN1_UNEXPECTED_TAG ) &&
 1626              		.loc 1 452 0
 1627 01d0 404B     		ldr	r3, .L120+20
 1628 01d2 9842     		cmp	r0, r3
 1629 01d4 06D0     		beq	.L107
 453:Source\mbedtls_open\library/x509_crl.c ****             ret != ( MBEDTLS_ERR_X509_INVALID_DATE +
 1630              		.loc 1 453 0
 1631 01d6 404B     		ldr	r3, .L120+24
 1632 01d8 9842     		cmp	r0, r3
 1633 01da 03D0     		beq	.L107
 457:Source\mbedtls_open\library/x509_crl.c ****             return( ret );
 1634              		.loc 1 457 0
 1635 01dc 2000     		movs	r0, r4
 1636              	.LVL291:
 1637 01de FFF7FEFF 		bl	mbedtls_x509_crl_free
 1638              	.LVL292:
 458:Source\mbedtls_open\library/x509_crl.c ****         }
 1639              		.loc 1 458 0
 1640 01e2 6AE0     		b	.L92
 1641              	.LVL293:
 1642              	.L107:
 470:Source\mbedtls_open\library/x509_crl.c ****     {
 1643              		.loc 1 470 0
 1644 01e4 2200     		movs	r2, r4
 1645 01e6 8432     		adds	r2, r2, #132
 1646 01e8 3100     		movs	r1, r6
 1647 01ea 0CA8     		add	r0, sp, #48
 1648              	.LVL294:
 1649 01ec FFF7FEFF 		bl	x509_get_entries
 1650              	.LVL295:
 1651 01f0 051E     		subs	r5, r0, #0
 1652              	.LVL296:
 1653 01f2 03D0     		beq	.L108
 472:Source\mbedtls_open\library/x509_crl.c ****         return( ret );
 1654              		.loc 1 472 0
 1655 01f4 2000     		movs	r0, r4
 1656              	.LVL297:
 1657 01f6 FFF7FEFF 		bl	mbedtls_x509_crl_free
 1658              	.LVL298:
 473:Source\mbedtls_open\library/x509_crl.c ****     }
 1659              		.loc 1 473 0
 1660 01fa 5EE0     		b	.L92
 1661              	.LVL299:
 1662              	.L108:
 480:Source\mbedtls_open\library/x509_crl.c ****     {
 1663              		.loc 1 480 0
 1664 01fc A369     		ldr	r3, [r4, #24]
 1665 01fe 022B     		cmp	r3, #2
ARM GAS  C:\Users\Phuong\AppData\Local\Temp\ccqvrWt4.s 			page 46


 1666 0200 0BD1     		bne	.L109
 482:Source\mbedtls_open\library/x509_crl.c **** 
 1667              		.loc 1 482 0
 1668 0202 2200     		movs	r2, r4
 1669 0204 C432     		adds	r2, r2, #196
 1670 0206 3100     		movs	r1, r6
 1671 0208 0CA8     		add	r0, sp, #48
 1672              	.LVL300:
 1673 020a FFF7FEFF 		bl	x509_get_crl_ext
 1674              	.LVL301:
 1675 020e 051E     		subs	r5, r0, #0
 1676              	.LVL302:
 484:Source\mbedtls_open\library/x509_crl.c ****         {
 1677              		.loc 1 484 0
 1678 0210 03D0     		beq	.L109
 486:Source\mbedtls_open\library/x509_crl.c ****             return( ret );
 1679              		.loc 1 486 0
 1680 0212 2000     		movs	r0, r4
 1681              	.LVL303:
 1682 0214 FFF7FEFF 		bl	mbedtls_x509_crl_free
 1683              	.LVL304:
 487:Source\mbedtls_open\library/x509_crl.c ****         }
 1684              		.loc 1 487 0
 1685 0218 4FE0     		b	.L92
 1686              	.LVL305:
 1687              	.L109:
 491:Source\mbedtls_open\library/x509_crl.c ****     {
 1688              		.loc 1 491 0
 1689 021a 0C9B     		ldr	r3, [sp, #48]
 1690 021c 9E42     		cmp	r6, r3
 1691 021e 04D0     		beq	.L110
 493:Source\mbedtls_open\library/x509_crl.c ****         return( MBEDTLS_ERR_X509_INVALID_FORMAT +
 1692              		.loc 1 493 0
 1693 0220 2000     		movs	r0, r4
 1694              	.LVL306:
 1695 0222 FFF7FEFF 		bl	mbedtls_x509_crl_free
 1696              	.LVL307:
 494:Source\mbedtls_open\library/x509_crl.c ****                 MBEDTLS_ERR_ASN1_LENGTH_MISMATCH );
 1697              		.loc 1 494 0
 1698 0226 284D     		ldr	r5, .L120+8
 1699              	.LVL308:
 1700 0228 47E0     		b	.L92
 1701              	.LVL309:
 1702              	.L110:
 498:Source\mbedtls_open\library/x509_crl.c **** 
 1703              		.loc 1 498 0
 1704 022a A368     		ldr	r3, [r4, #8]
 1705 022c 6268     		ldr	r2, [r4, #4]
 1706 022e 9446     		mov	ip, r2
 1707 0230 6344     		add	r3, r3, ip
 1708 0232 1E00     		movs	r6, r3
 1709              	.LVL310:
 504:Source\mbedtls_open\library/x509_crl.c ****     {
 1710              		.loc 1 504 0
 1711 0234 06AB     		add	r3, sp, #24
 1712              	.LVL311:
 1713 0236 03AA     		add	r2, sp, #12
ARM GAS  C:\Users\Phuong\AppData\Local\Temp\ccqvrWt4.s 			page 47


 1714 0238 3100     		movs	r1, r6
 1715 023a 0CA8     		add	r0, sp, #48
 1716              	.LVL312:
 1717 023c FFF7FEFF 		bl	mbedtls_x509_get_alg
 1718              	.LVL313:
 1719 0240 051E     		subs	r5, r0, #0
 1720              	.LVL314:
 1721 0242 03D0     		beq	.L111
 506:Source\mbedtls_open\library/x509_crl.c ****         return( ret );
 1722              		.loc 1 506 0
 1723 0244 2000     		movs	r0, r4
 1724              	.LVL315:
 1725 0246 FFF7FEFF 		bl	mbedtls_x509_crl_free
 1726              	.LVL316:
 507:Source\mbedtls_open\library/x509_crl.c ****     }
 1727              		.loc 1 507 0
 1728 024a 36E0     		b	.L92
 1729              	.LVL317:
 1730              	.L111:
 510:Source\mbedtls_open\library/x509_crl.c ****         memcmp( crl->sig_oid.p, sig_oid2.p, crl->sig_oid.len ) != 0 ||
 1731              		.loc 1 510 0
 1732 024c 226A     		ldr	r2, [r4, #32]
 1733 024e 049B     		ldr	r3, [sp, #16]
 1734 0250 9A42     		cmp	r2, r3
 1735 0252 11D1     		bne	.L112
 511:Source\mbedtls_open\library/x509_crl.c ****         sig_params1.len != sig_params2.len ||
 1736              		.loc 1 511 0 discriminator 1
 1737 0254 0599     		ldr	r1, [sp, #20]
 1738 0256 606A     		ldr	r0, [r4, #36]
 1739              	.LVL318:
 1740 0258 FFF7FEFF 		bl	memcmp
 1741              	.LVL319:
 1742 025c 051E     		subs	r5, r0, #0
 1743              	.LVL320:
 510:Source\mbedtls_open\library/x509_crl.c ****         memcmp( crl->sig_oid.p, sig_oid2.p, crl->sig_oid.len ) != 0 ||
 1744              		.loc 1 510 0 discriminator 1
 1745 025e 0BD1     		bne	.L112
 512:Source\mbedtls_open\library/x509_crl.c ****         ( sig_params1.len != 0 &&
 1746              		.loc 1 512 0
 1747 0260 0A9A     		ldr	r2, [sp, #40]
 511:Source\mbedtls_open\library/x509_crl.c ****         sig_params1.len != sig_params2.len ||
 1748              		.loc 1 511 0
 1749 0262 079B     		ldr	r3, [sp, #28]
 1750 0264 9A42     		cmp	r2, r3
 1751 0266 07D1     		bne	.L112
 512:Source\mbedtls_open\library/x509_crl.c ****         ( sig_params1.len != 0 &&
 1752              		.loc 1 512 0
 1753 0268 002A     		cmp	r2, #0
 1754 026a 0AD0     		beq	.L113
 514:Source\mbedtls_open\library/x509_crl.c ****     {
 1755              		.loc 1 514 0
 1756 026c 0899     		ldr	r1, [sp, #32]
 1757 026e 0B98     		ldr	r0, [sp, #44]
 1758 0270 FFF7FEFF 		bl	memcmp
 1759              	.LVL321:
 513:Source\mbedtls_open\library/x509_crl.c ****           memcmp( sig_params1.p, sig_params2.p, sig_params1.len ) != 0 ) )
 1760              		.loc 1 513 0
ARM GAS  C:\Users\Phuong\AppData\Local\Temp\ccqvrWt4.s 			page 48


 1761 0274 0028     		cmp	r0, #0
 1762 0276 04D0     		beq	.L113
 1763              	.L112:
 516:Source\mbedtls_open\library/x509_crl.c ****         return( MBEDTLS_ERR_X509_SIG_MISMATCH );
 1764              		.loc 1 516 0
 1765 0278 2000     		movs	r0, r4
 1766 027a FFF7FEFF 		bl	mbedtls_x509_crl_free
 1767              	.LVL322:
 517:Source\mbedtls_open\library/x509_crl.c ****     }
 1768              		.loc 1 517 0
 1769 027e 174D     		ldr	r5, .L120+28
 1770 0280 1BE0     		b	.L92
 1771              	.L113:
 520:Source\mbedtls_open\library/x509_crl.c ****     {
 1772              		.loc 1 520 0
 1773 0282 2200     		movs	r2, r4
 1774 0284 DC32     		adds	r2, r2, #220
 1775 0286 3100     		movs	r1, r6
 1776 0288 0CA8     		add	r0, sp, #48
 1777 028a FFF7FEFF 		bl	mbedtls_x509_get_sig
 1778              	.LVL323:
 1779 028e 071E     		subs	r7, r0, #0
 1780              	.LVL324:
 1781 0290 04D0     		beq	.L114
 522:Source\mbedtls_open\library/x509_crl.c ****         return( ret );
 1782              		.loc 1 522 0
 1783 0292 2000     		movs	r0, r4
 1784              	.LVL325:
 1785 0294 FFF7FEFF 		bl	mbedtls_x509_crl_free
 1786              	.LVL326:
 523:Source\mbedtls_open\library/x509_crl.c ****     }
 1787              		.loc 1 523 0
 1788 0298 3D00     		movs	r5, r7
 1789 029a 0EE0     		b	.L92
 1790              	.LVL327:
 1791              	.L114:
 526:Source\mbedtls_open\library/x509_crl.c ****     {
 1792              		.loc 1 526 0
 1793 029c 0C9B     		ldr	r3, [sp, #48]
 1794 029e 9E42     		cmp	r6, r3
 1795 02a0 0BD0     		beq	.L92
 528:Source\mbedtls_open\library/x509_crl.c ****         return( MBEDTLS_ERR_X509_INVALID_FORMAT +
 1796              		.loc 1 528 0
 1797 02a2 2000     		movs	r0, r4
 1798              	.LVL328:
 1799 02a4 FFF7FEFF 		bl	mbedtls_x509_crl_free
 1800              	.LVL329:
 529:Source\mbedtls_open\library/x509_crl.c ****                 MBEDTLS_ERR_ASN1_LENGTH_MISMATCH );
 1801              		.loc 1 529 0
 1802 02a8 074D     		ldr	r5, .L120+8
 1803 02aa 06E0     		b	.L92
 1804              	.LVL330:
 1805              	.L115:
 313:Source\mbedtls_open\library/x509_crl.c **** 
 1806              		.loc 1 313 0
 1807 02ac 0C4D     		ldr	r5, .L120+32
 1808 02ae 04E0     		b	.L92
ARM GAS  C:\Users\Phuong\AppData\Local\Temp\ccqvrWt4.s 			page 49


 1809              	.L116:
 1810 02b0 0B4D     		ldr	r5, .L120+32
 1811 02b2 02E0     		b	.L92
 1812              	.LVL331:
 1813              	.L118:
 343:Source\mbedtls_open\library/x509_crl.c **** 
 1814              		.loc 1 343 0
 1815 02b4 034D     		ldr	r5, .L120+4
 1816              	.LVL332:
 1817 02b6 00E0     		b	.L92
 1818              	.LVL333:
 1819              	.L119:
 347:Source\mbedtls_open\library/x509_crl.c **** 
 1820              		.loc 1 347 0
 1821 02b8 014D     		ldr	r5, .L120
 1822              	.LVL334:
 1823              	.L92:
 534:Source\mbedtls_open\library/x509_crl.c **** 
 1824              		.loc 1 534 0
 1825 02ba 2800     		movs	r0, r5
 1826 02bc 0FB0     		add	sp, sp, #60
 1827              		@ sp needed
 1828              	.LVL335:
 1829 02be F0BD     		pop	{r4, r5, r6, r7, pc}
 1830              	.L121:
 1831              		.align	2
 1832              	.L120:
 1833 02c0 80D7FFFF 		.word	-10368
 1834 02c4 80DEFFFF 		.word	-8576
 1835 02c8 1ADEFFFF 		.word	-8678
 1836 02cc 80DAFFFF 		.word	-9600
 1837 02d0 00DAFFFF 		.word	-9728
 1838 02d4 9EDBFFFF 		.word	-9314
 1839 02d8 A0DBFFFF 		.word	-9312
 1840 02dc 80D9FFFF 		.word	-9856
 1841 02e0 00D8FFFF 		.word	-10240
 1842              		.cfi_endproc
 1843              	.LFE15:
 1844              		.size	mbedtls_x509_crl_parse_der, .-mbedtls_x509_crl_parse_der
 1845              		.section	.text.mbedtls_x509_crl_parse,"ax",%progbits
 1846              		.align	2
 1847              		.global	mbedtls_x509_crl_parse
 1848              		.code	16
 1849              		.thumb_func
 1850              		.type	mbedtls_x509_crl_parse, %function
 1851              	mbedtls_x509_crl_parse:
 1852              	.LFB16:
 540:Source\mbedtls_open\library/x509_crl.c **** #if defined(MBEDTLS_PEM_PARSE_C)
 1853              		.loc 1 540 0
 1854              		.cfi_startproc
 1855              		@ args = 0, pretend = 0, frame = 24
 1856              		@ frame_needed = 0, uses_anonymous_args = 0
 1857              	.LVL336:
 1858 0000 F0B5     		push	{r4, r5, r6, r7, lr}
 1859              		.cfi_def_cfa_offset 20
 1860              		.cfi_offset 4, -20
 1861              		.cfi_offset 5, -16
ARM GAS  C:\Users\Phuong\AppData\Local\Temp\ccqvrWt4.s 			page 50


 1862              		.cfi_offset 6, -12
 1863              		.cfi_offset 7, -8
 1864              		.cfi_offset 14, -4
 1865 0002 8BB0     		sub	sp, sp, #44
 1866              		.cfi_def_cfa_offset 64
 1867 0004 0590     		str	r0, [sp, #20]
 1868 0006 0E00     		movs	r6, r1
 1869 0008 1400     		movs	r4, r2
 1870              	.LVL337:
 547:Source\mbedtls_open\library/x509_crl.c ****         return( MBEDTLS_ERR_X509_BAD_INPUT_DATA );
 1871              		.loc 1 547 0
 1872 000a 0028     		cmp	r0, #0
 1873 000c 44D0     		beq	.L129
 547:Source\mbedtls_open\library/x509_crl.c ****         return( MBEDTLS_ERR_X509_BAD_INPUT_DATA );
 1874              		.loc 1 547 0 is_stmt 0 discriminator 1
 1875 000e 0029     		cmp	r1, #0
 1876 0010 44D0     		beq	.L130
 1877 0012 0027     		movs	r7, #0
 1878              	.LVL338:
 1879              	.L128:
 552:Source\mbedtls_open\library/x509_crl.c **** 
 1880              		.loc 1 552 0 is_stmt 1
 1881 0014 06A8     		add	r0, sp, #24
 1882 0016 FFF7FEFF 		bl	mbedtls_pem_init
 1883              	.LVL339:
 556:Source\mbedtls_open\library/x509_crl.c ****             ret = MBEDTLS_ERR_PEM_NO_HEADER_FOOTER_PRESENT;
 1884              		.loc 1 556 0
 1885 001a 002C     		cmp	r4, #0
 1886 001c 11D0     		beq	.L131
 556:Source\mbedtls_open\library/x509_crl.c ****             ret = MBEDTLS_ERR_PEM_NO_HEADER_FOOTER_PRESENT;
 1887              		.loc 1 556 0 is_stmt 0 discriminator 1
 1888 001e 3319     		adds	r3, r6, r4
 1889 0020 013B     		subs	r3, r3, #1
 1890 0022 1B78     		ldrb	r3, [r3]
 1891 0024 002B     		cmp	r3, #0
 1892 0026 0ED1     		bne	.L132
 559:Source\mbedtls_open\library/x509_crl.c ****                                            "-----BEGIN X509 CRL-----",
 1893              		.loc 1 559 0 is_stmt 1
 1894 0028 09AB     		add	r3, sp, #36
 1895 002a 0293     		str	r3, [sp, #8]
 1896 002c 0023     		movs	r3, #0
 1897 002e 0193     		str	r3, [sp, #4]
 1898 0030 0093     		str	r3, [sp]
 1899 0032 3300     		movs	r3, r6
 1900 0034 1C4A     		ldr	r2, .L135
 1901 0036 1D49     		ldr	r1, .L135+4
 1902 0038 06A8     		add	r0, sp, #24
 1903 003a FFF7FEFF 		bl	mbedtls_pem_read_buffer
 1904              	.LVL340:
 1905 003e 0500     		movs	r5, r0
 1906              	.LVL341:
 1907 0040 02E0     		b	.L124
 1908              	.LVL342:
 1909              	.L131:
 557:Source\mbedtls_open\library/x509_crl.c ****         else
 1910              		.loc 1 557 0
 1911 0042 1B4D     		ldr	r5, .L135+8
ARM GAS  C:\Users\Phuong\AppData\Local\Temp\ccqvrWt4.s 			page 51


 1912 0044 00E0     		b	.L124
 1913              	.L132:
 1914 0046 1A4D     		ldr	r5, .L135+8
 1915              	.L124:
 1916              	.LVL343:
 564:Source\mbedtls_open\library/x509_crl.c ****         {
 1917              		.loc 1 564 0
 1918 0048 002D     		cmp	r5, #0
 1919 004a 0ED1     		bne	.L125
 1920              	.LVL344:
 571:Source\mbedtls_open\library/x509_crl.c ****             buf += use_len;
 1921              		.loc 1 571 0
 1922 004c 099B     		ldr	r3, [sp, #36]
 1923 004e E41A     		subs	r4, r4, r3
 1924              	.LVL345:
 572:Source\mbedtls_open\library/x509_crl.c **** 
 1925              		.loc 1 572 0
 1926 0050 F618     		adds	r6, r6, r3
 1927              	.LVL346:
 574:Source\mbedtls_open\library/x509_crl.c ****                                             pem.buf, pem.buflen ) ) != 0 )
 1928              		.loc 1 574 0
 1929 0052 079A     		ldr	r2, [sp, #28]
 1930 0054 0699     		ldr	r1, [sp, #24]
 1931 0056 0598     		ldr	r0, [sp, #20]
 1932 0058 FFF7FEFF 		bl	mbedtls_x509_crl_parse_der
 1933              	.LVL347:
 1934 005c 051E     		subs	r5, r0, #0
 1935              	.LVL348:
 1936 005e 0BD0     		beq	.L133
 577:Source\mbedtls_open\library/x509_crl.c ****                 return( ret );
 1937              		.loc 1 577 0
 1938 0060 06A8     		add	r0, sp, #24
 1939              	.LVL349:
 1940 0062 FFF7FEFF 		bl	mbedtls_pem_free
 1941              	.LVL350:
 578:Source\mbedtls_open\library/x509_crl.c ****             }
 1942              		.loc 1 578 0
 1943 0066 2800     		movs	r0, r5
 1944 0068 1BE0     		b	.L123
 1945              	.LVL351:
 1946              	.L125:
 581:Source\mbedtls_open\library/x509_crl.c ****         {
 1947              		.loc 1 581 0
 1948 006a 002F     		cmp	r7, #0
 1949 006c 05D0     		beq	.L126
 583:Source\mbedtls_open\library/x509_crl.c ****             return( ret );
 1950              		.loc 1 583 0
 1951 006e 06A8     		add	r0, sp, #24
 1952 0070 FFF7FEFF 		bl	mbedtls_pem_free
 1953              	.LVL352:
 584:Source\mbedtls_open\library/x509_crl.c ****         }
 1954              		.loc 1 584 0
 1955 0074 2800     		movs	r0, r5
 1956 0076 14E0     		b	.L123
 1957              	.LVL353:
 1958              	.L133:
 569:Source\mbedtls_open\library/x509_crl.c **** 
ARM GAS  C:\Users\Phuong\AppData\Local\Temp\ccqvrWt4.s 			page 52


 1959              		.loc 1 569 0
 1960 0078 0127     		movs	r7, #1
 1961              	.LVL354:
 1962              	.L126:
 587:Source\mbedtls_open\library/x509_crl.c ****     }
 1963              		.loc 1 587 0
 1964 007a 06A8     		add	r0, sp, #24
 1965 007c FFF7FEFF 		bl	mbedtls_pem_free
 1966              	.LVL355:
 591:Source\mbedtls_open\library/x509_crl.c **** 
 1967              		.loc 1 591 0
 1968 0080 002F     		cmp	r7, #0
 1969 0082 01D0     		beq	.L127
 591:Source\mbedtls_open\library/x509_crl.c **** 
 1970              		.loc 1 591 0 is_stmt 0 discriminator 1
 1971 0084 012C     		cmp	r4, #1
 1972 0086 C5D8     		bhi	.L128
 1973              	.L127:
 593:Source\mbedtls_open\library/x509_crl.c ****         return( 0 );
 1974              		.loc 1 593 0 is_stmt 1
 1975 0088 002F     		cmp	r7, #0
 1976 008a 09D1     		bne	.L134
 597:Source\mbedtls_open\library/x509_crl.c **** }
 1977              		.loc 1 597 0
 1978 008c 2200     		movs	r2, r4
 1979 008e 3100     		movs	r1, r6
 1980 0090 0598     		ldr	r0, [sp, #20]
 1981 0092 FFF7FEFF 		bl	mbedtls_x509_crl_parse_der
 1982              	.LVL356:
 1983 0096 04E0     		b	.L123
 1984              	.LVL357:
 1985              	.L129:
 548:Source\mbedtls_open\library/x509_crl.c **** 
 1986              		.loc 1 548 0
 1987 0098 0648     		ldr	r0, .L135+12
 1988              	.LVL358:
 1989 009a 02E0     		b	.L123
 1990              	.LVL359:
 1991              	.L130:
 1992 009c 0548     		ldr	r0, .L135+12
 1993              	.LVL360:
 1994 009e 00E0     		b	.L123
 1995              	.LVL361:
 1996              	.L134:
 594:Source\mbedtls_open\library/x509_crl.c ****     else
 1997              		.loc 1 594 0
 1998 00a0 0020     		movs	r0, #0
 1999              	.LVL362:
 2000              	.L123:
 598:Source\mbedtls_open\library/x509_crl.c **** 
 2001              		.loc 1 598 0
 2002 00a2 0BB0     		add	sp, sp, #44
 2003              		@ sp needed
 2004              	.LVL363:
 2005              	.LVL364:
 2006 00a4 F0BD     		pop	{r4, r5, r6, r7, pc}
 2007              	.L136:
ARM GAS  C:\Users\Phuong\AppData\Local\Temp\ccqvrWt4.s 			page 53


 2008 00a6 C046     		.align	2
 2009              	.L135:
 2010 00a8 0C010000 		.word	.LC18
 2011 00ac 24010000 		.word	.LC20
 2012 00b0 80EFFFFF 		.word	-4224
 2013 00b4 00D8FFFF 		.word	-10240
 2014              		.cfi_endproc
 2015              	.LFE16:
 2016              		.size	mbedtls_x509_crl_parse, .-mbedtls_x509_crl_parse
 2017              		.section	.rodata.str1.4,"aMS",%progbits,1
 2018              		.align	2
 2019              	.LC0:
 2020 0000 25734352 		.ascii	"%sCRL version   : %d\000"
 2020      4C207665 
 2020      7273696F 
 2020      6E202020 
 2020      3A202564 
 2021 0015 000000   		.space	3
 2022              	.LC2:
 2023 0018 0A257369 		.ascii	"\012%sissuer name   : \000"
 2023      73737565 
 2023      72206E61 
 2023      6D652020 
 2023      203A2000 
 2024              	.LC4:
 2025 002c 0A257374 		.ascii	"\012%sthis update   : %04d-%02d-%02d %02d:%02d:%02d"
 2025      68697320 
 2025      75706461 
 2025      74652020 
 2025      203A2025 
 2026 005c 00       		.ascii	"\000"
 2027 005d 000000   		.space	3
 2028              	.LC6:
 2029 0060 0A25736E 		.ascii	"\012%snext update   : %04d-%02d-%02d %02d:%02d:%02d"
 2029      65787420 
 2029      75706461 
 2029      74652020 
 2029      203A2025 
 2030 0090 00       		.ascii	"\000"
 2031 0091 000000   		.space	3
 2032              	.LC8:
 2033 0094 0A257352 		.ascii	"\012%sRevoked certificates:\000"
 2033      65766F6B 
 2033      65642063 
 2033      65727469 
 2033      66696361 
 2034 00ad 000000   		.space	3
 2035              	.LC10:
 2036 00b0 0A257373 		.ascii	"\012%sserial number: \000"
 2036      65726961 
 2036      6C206E75 
 2036      6D626572 
 2036      3A2000
 2037 00c3 00       		.space	1
 2038              	.LC12:
 2039 00c4 20726576 		.ascii	" revocation date: %04d-%02d-%02d %02d:%02d:%02d\000"
 2039      6F636174 
ARM GAS  C:\Users\Phuong\AppData\Local\Temp\ccqvrWt4.s 			page 54


 2039      696F6E20 
 2039      64617465 
 2039      3A202530 
 2040              	.LC14:
 2041 00f4 0A257373 		.ascii	"\012%ssigned using  : \000"
 2041      69676E65 
 2041      64207573 
 2041      696E6720 
 2041      203A2000 
 2042              	.LC16:
 2043 0108 0A00     		.ascii	"\012\000"
 2044 010a 0000     		.space	2
 2045              	.LC18:
 2046 010c 2D2D2D2D 		.ascii	"-----END X509 CRL-----\000"
 2046      2D454E44 
 2046      20583530 
 2046      39204352 
 2046      4C2D2D2D 
 2047 0123 00       		.space	1
 2048              	.LC20:
 2049 0124 2D2D2D2D 		.ascii	"-----BEGIN X509 CRL-----\000"
 2049      2D424547 
 2049      494E2058 
 2049      35303920 
 2049      43524C2D 
 2050              		.text
 2051              	.Letext0:
 2052              		.file 2 ".\\Source\\mbedtls_open\\include/mbedtls/asn1.h"
 2053              		.file 3 "c:\\program files (x86)\\cypress\\psoc creator\\4.2\\psoc creator\\import\\gnu\\arm\\5.4.
 2054              		.file 4 ".\\Source\\mbedtls_open\\include/mbedtls/md.h"
 2055              		.file 5 ".\\Source\\mbedtls_open\\include/mbedtls/pk.h"
 2056              		.file 6 ".\\Source\\mbedtls_open\\include/mbedtls/x509.h"
 2057              		.file 7 ".\\Source\\mbedtls_open\\include/mbedtls/x509_crl.h"
 2058              		.file 8 ".\\Source\\mbedtls_open\\include/mbedtls/pem.h"
 2059              		.file 9 "c:\\program files (x86)\\cypress\\psoc creator\\4.2\\psoc creator\\import\\gnu\\arm\\5.4.
 2060              		.file 10 "c:\\program files (x86)\\cypress\\psoc creator\\4.2\\psoc creator\\import\\gnu\\arm\\5.4
 2061              		.file 11 ".\\Source\\mbedtls_open\\include/mbedtls/platform_util.h"
 2062              		.file 12 "c:\\program files (x86)\\cypress\\psoc creator\\4.2\\psoc creator\\import\\gnu\\arm\\5.4
 2063              		.section	.debug_info,"",%progbits
 2064              	.Ldebug_info0:
 2065 0000 67120000 		.4byte	0x1267
 2066 0004 0400     		.2byte	0x4
 2067 0006 00000000 		.4byte	.Ldebug_abbrev0
 2068 000a 04       		.byte	0x4
 2069 000b 01       		.uleb128 0x1
 2070 000c 9D010000 		.4byte	.LASF112
 2071 0010 0C       		.byte	0xc
 2072 0011 DC000000 		.4byte	.LASF113
 2073 0015 A8020000 		.4byte	.LASF114
 2074 0019 00000000 		.4byte	.Ldebug_ranges0+0
 2075 001d 00000000 		.4byte	0
 2076 0021 00000000 		.4byte	.Ldebug_line0
 2077 0025 02       		.uleb128 0x2
 2078 0026 01       		.byte	0x1
 2079 0027 06       		.byte	0x6
 2080 0028 FC060000 		.4byte	.LASF0
 2081 002c 02       		.uleb128 0x2
ARM GAS  C:\Users\Phuong\AppData\Local\Temp\ccqvrWt4.s 			page 55


 2082 002d 01       		.byte	0x1
 2083 002e 08       		.byte	0x8
 2084 002f 3E060000 		.4byte	.LASF1
 2085 0033 02       		.uleb128 0x2
 2086 0034 02       		.byte	0x2
 2087 0035 05       		.byte	0x5
 2088 0036 63050000 		.4byte	.LASF2
 2089 003a 02       		.uleb128 0x2
 2090 003b 02       		.byte	0x2
 2091 003c 07       		.byte	0x7
 2092 003d 25070000 		.4byte	.LASF3
 2093 0041 02       		.uleb128 0x2
 2094 0042 04       		.byte	0x4
 2095 0043 05       		.byte	0x5
 2096 0044 6D050000 		.4byte	.LASF4
 2097 0048 02       		.uleb128 0x2
 2098 0049 04       		.byte	0x4
 2099 004a 07       		.byte	0x7
 2100 004b 10060000 		.4byte	.LASF5
 2101 004f 02       		.uleb128 0x2
 2102 0050 08       		.byte	0x8
 2103 0051 05       		.byte	0x5
 2104 0052 9F040000 		.4byte	.LASF6
 2105 0056 02       		.uleb128 0x2
 2106 0057 08       		.byte	0x8
 2107 0058 07       		.byte	0x7
 2108 0059 2F020000 		.4byte	.LASF7
 2109 005d 03       		.uleb128 0x3
 2110 005e 04       		.byte	0x4
 2111 005f 05       		.byte	0x5
 2112 0060 696E7400 		.ascii	"int\000"
 2113 0064 02       		.uleb128 0x2
 2114 0065 04       		.byte	0x4
 2115 0066 07       		.byte	0x7
 2116 0067 54000000 		.4byte	.LASF8
 2117 006b 04       		.uleb128 0x4
 2118 006c 77030000 		.4byte	.LASF10
 2119 0070 03       		.byte	0x3
 2120 0071 D8       		.byte	0xd8
 2121 0072 64000000 		.4byte	0x64
 2122 0076 02       		.uleb128 0x2
 2123 0077 08       		.byte	0x8
 2124 0078 04       		.byte	0x4
 2125 0079 28050000 		.4byte	.LASF9
 2126 007d 05       		.uleb128 0x5
 2127 007e 82050000 		.4byte	.LASF11
 2128 0082 0C       		.byte	0xc
 2129 0083 02       		.byte	0x2
 2130 0084 86       		.byte	0x86
 2131 0085 AC000000 		.4byte	0xac
 2132 0089 06       		.uleb128 0x6
 2133 008a 74616700 		.ascii	"tag\000"
 2134 008e 02       		.byte	0x2
 2135 008f 88       		.byte	0x88
 2136 0090 5D000000 		.4byte	0x5d
 2137 0094 00       		.byte	0
 2138 0095 06       		.uleb128 0x6
ARM GAS  C:\Users\Phuong\AppData\Local\Temp\ccqvrWt4.s 			page 56


 2139 0096 6C656E00 		.ascii	"len\000"
 2140 009a 02       		.byte	0x2
 2141 009b 89       		.byte	0x89
 2142 009c 6B000000 		.4byte	0x6b
 2143 00a0 04       		.byte	0x4
 2144 00a1 06       		.uleb128 0x6
 2145 00a2 7000     		.ascii	"p\000"
 2146 00a4 02       		.byte	0x2
 2147 00a5 8A       		.byte	0x8a
 2148 00a6 AC000000 		.4byte	0xac
 2149 00aa 08       		.byte	0x8
 2150 00ab 00       		.byte	0
 2151 00ac 07       		.uleb128 0x7
 2152 00ad 04       		.byte	0x4
 2153 00ae 2C000000 		.4byte	0x2c
 2154 00b2 04       		.uleb128 0x4
 2155 00b3 82050000 		.4byte	.LASF11
 2156 00b7 02       		.byte	0x2
 2157 00b8 8C       		.byte	0x8c
 2158 00b9 7D000000 		.4byte	0x7d
 2159 00bd 05       		.uleb128 0x5
 2160 00be AE060000 		.4byte	.LASF12
 2161 00c2 20       		.byte	0x20
 2162 00c3 02       		.byte	0x2
 2163 00c4 A6       		.byte	0xa6
 2164 00c5 FA000000 		.4byte	0xfa
 2165 00c9 06       		.uleb128 0x6
 2166 00ca 6F696400 		.ascii	"oid\000"
 2167 00ce 02       		.byte	0x2
 2168 00cf A8       		.byte	0xa8
 2169 00d0 B2000000 		.4byte	0xb2
 2170 00d4 00       		.byte	0
 2171 00d5 06       		.uleb128 0x6
 2172 00d6 76616C00 		.ascii	"val\000"
 2173 00da 02       		.byte	0x2
 2174 00db A9       		.byte	0xa9
 2175 00dc B2000000 		.4byte	0xb2
 2176 00e0 0C       		.byte	0xc
 2177 00e1 08       		.uleb128 0x8
 2178 00e2 61000000 		.4byte	.LASF13
 2179 00e6 02       		.byte	0x2
 2180 00e7 AA       		.byte	0xaa
 2181 00e8 FA000000 		.4byte	0xfa
 2182 00ec 18       		.byte	0x18
 2183 00ed 08       		.uleb128 0x8
 2184 00ee 7E030000 		.4byte	.LASF14
 2185 00f2 02       		.byte	0x2
 2186 00f3 AB       		.byte	0xab
 2187 00f4 2C000000 		.4byte	0x2c
 2188 00f8 1C       		.byte	0x1c
 2189 00f9 00       		.byte	0
 2190 00fa 07       		.uleb128 0x7
 2191 00fb 04       		.byte	0x4
 2192 00fc BD000000 		.4byte	0xbd
 2193 0100 04       		.uleb128 0x4
 2194 0101 AE060000 		.4byte	.LASF12
 2195 0105 02       		.byte	0x2
ARM GAS  C:\Users\Phuong\AppData\Local\Temp\ccqvrWt4.s 			page 57


 2196 0106 AD       		.byte	0xad
 2197 0107 BD000000 		.4byte	0xbd
 2198 010b 09       		.uleb128 0x9
 2199 010c 01       		.byte	0x1
 2200 010d 2C000000 		.4byte	0x2c
 2201 0111 04       		.byte	0x4
 2202 0112 38       		.byte	0x38
 2203 0113 54010000 		.4byte	0x154
 2204 0117 0A       		.uleb128 0xa
 2205 0118 C3040000 		.4byte	.LASF15
 2206 011c 00       		.byte	0
 2207 011d 0A       		.uleb128 0xa
 2208 011e DA050000 		.4byte	.LASF16
 2209 0122 01       		.byte	0x1
 2210 0123 0A       		.uleb128 0xa
 2211 0124 E9050000 		.4byte	.LASF17
 2212 0128 02       		.byte	0x2
 2213 0129 0A       		.uleb128 0xa
 2214 012a F8050000 		.4byte	.LASF18
 2215 012e 03       		.byte	0x3
 2216 012f 0A       		.uleb128 0xa
 2217 0130 CA050000 		.4byte	.LASF19
 2218 0134 04       		.byte	0x4
 2219 0135 0A       		.uleb128 0xa
 2220 0136 3A010000 		.4byte	.LASF20
 2221 013a 05       		.byte	0x5
 2222 013b 0A       		.uleb128 0xa
 2223 013c 8A030000 		.4byte	.LASF21
 2224 0140 06       		.byte	0x6
 2225 0141 0A       		.uleb128 0xa
 2226 0142 4A070000 		.4byte	.LASF22
 2227 0146 07       		.byte	0x7
 2228 0147 0A       		.uleb128 0xa
 2229 0148 46020000 		.4byte	.LASF23
 2230 014c 08       		.byte	0x8
 2231 014d 0A       		.uleb128 0xa
 2232 014e 08070000 		.4byte	.LASF24
 2233 0152 09       		.byte	0x9
 2234 0153 00       		.byte	0
 2235 0154 04       		.uleb128 0x4
 2236 0155 42000000 		.4byte	.LASF25
 2237 0159 04       		.byte	0x4
 2238 015a 43       		.byte	0x43
 2239 015b 0B010000 		.4byte	0x10b
 2240 015f 0B       		.uleb128 0xb
 2241 0160 04       		.byte	0x4
 2242 0161 07       		.uleb128 0x7
 2243 0162 04       		.byte	0x4
 2244 0163 6E010000 		.4byte	0x16e
 2245 0167 02       		.uleb128 0x2
 2246 0168 01       		.byte	0x1
 2247 0169 08       		.byte	0x8
 2248 016a 3A040000 		.4byte	.LASF26
 2249 016e 0C       		.uleb128 0xc
 2250 016f 67010000 		.4byte	0x167
 2251 0173 09       		.uleb128 0x9
 2252 0174 01       		.byte	0x1
ARM GAS  C:\Users\Phuong\AppData\Local\Temp\ccqvrWt4.s 			page 58


 2253 0175 2C000000 		.4byte	0x2c
 2254 0179 05       		.byte	0x5
 2255 017a 4C       		.byte	0x4c
 2256 017b AA010000 		.4byte	0x1aa
 2257 017f 0A       		.uleb128 0xa
 2258 0180 DC030000 		.4byte	.LASF27
 2259 0184 00       		.byte	0
 2260 0185 0A       		.uleb128 0xa
 2261 0186 2B010000 		.4byte	.LASF28
 2262 018a 01       		.byte	0x1
 2263 018b 0A       		.uleb128 0xa
 2264 018c 58020000 		.4byte	.LASF29
 2265 0190 02       		.byte	0x2
 2266 0191 0A       		.uleb128 0xa
 2267 0192 23000000 		.4byte	.LASF30
 2268 0196 03       		.byte	0x3
 2269 0197 0A       		.uleb128 0xa
 2270 0198 CB030000 		.4byte	.LASF31
 2271 019c 04       		.byte	0x4
 2272 019d 0A       		.uleb128 0xa
 2273 019e 8B020000 		.4byte	.LASF32
 2274 01a2 05       		.byte	0x5
 2275 01a3 0A       		.uleb128 0xa
 2276 01a4 DA040000 		.4byte	.LASF33
 2277 01a8 06       		.byte	0x6
 2278 01a9 00       		.byte	0
 2279 01aa 04       		.uleb128 0x4
 2280 01ab 74040000 		.4byte	.LASF34
 2281 01af 05       		.byte	0x5
 2282 01b0 54       		.byte	0x54
 2283 01b1 73010000 		.4byte	0x173
 2284 01b5 07       		.uleb128 0x7
 2285 01b6 04       		.byte	0x4
 2286 01b7 BB010000 		.4byte	0x1bb
 2287 01bb 0C       		.uleb128 0xc
 2288 01bc 2C000000 		.4byte	0x2c
 2289 01c0 04       		.uleb128 0x4
 2290 01c1 67010000 		.4byte	.LASF35
 2291 01c5 06       		.byte	0x6
 2292 01c6 BD       		.byte	0xbd
 2293 01c7 B2000000 		.4byte	0xb2
 2294 01cb 04       		.uleb128 0x4
 2295 01cc 8D040000 		.4byte	.LASF36
 2296 01d0 06       		.byte	0x6
 2297 01d1 C8       		.byte	0xc8
 2298 01d2 00010000 		.4byte	0x100
 2299 01d6 05       		.uleb128 0x5
 2300 01d7 19010000 		.4byte	.LASF37
 2301 01db 18       		.byte	0x18
 2302 01dc 06       		.byte	0x6
 2303 01dd D0       		.byte	0xd0
 2304 01de 2B020000 		.4byte	0x22b
 2305 01e2 08       		.uleb128 0x8
 2306 01e3 22060000 		.4byte	.LASF38
 2307 01e7 06       		.byte	0x6
 2308 01e8 D2       		.byte	0xd2
 2309 01e9 5D000000 		.4byte	0x5d
ARM GAS  C:\Users\Phuong\AppData\Local\Temp\ccqvrWt4.s 			page 59


 2310 01ed 00       		.byte	0
 2311 01ee 06       		.uleb128 0x6
 2312 01ef 6D6F6E00 		.ascii	"mon\000"
 2313 01f3 06       		.byte	0x6
 2314 01f4 D2       		.byte	0xd2
 2315 01f5 5D000000 		.4byte	0x5d
 2316 01f9 04       		.byte	0x4
 2317 01fa 06       		.uleb128 0x6
 2318 01fb 64617900 		.ascii	"day\000"
 2319 01ff 06       		.byte	0x6
 2320 0200 D2       		.byte	0xd2
 2321 0201 5D000000 		.4byte	0x5d
 2322 0205 08       		.byte	0x8
 2323 0206 08       		.uleb128 0x8
 2324 0207 EC030000 		.4byte	.LASF39
 2325 020b 06       		.byte	0x6
 2326 020c D3       		.byte	0xd3
 2327 020d 5D000000 		.4byte	0x5d
 2328 0211 0C       		.byte	0xc
 2329 0212 06       		.uleb128 0x6
 2330 0213 6D696E00 		.ascii	"min\000"
 2331 0217 06       		.byte	0x6
 2332 0218 D3       		.byte	0xd3
 2333 0219 5D000000 		.4byte	0x5d
 2334 021d 10       		.byte	0x10
 2335 021e 06       		.uleb128 0x6
 2336 021f 73656300 		.ascii	"sec\000"
 2337 0223 06       		.byte	0x6
 2338 0224 D3       		.byte	0xd3
 2339 0225 5D000000 		.4byte	0x5d
 2340 0229 14       		.byte	0x14
 2341 022a 00       		.byte	0
 2342 022b 04       		.uleb128 0x4
 2343 022c 19010000 		.4byte	.LASF37
 2344 0230 06       		.byte	0x6
 2345 0231 D5       		.byte	0xd5
 2346 0232 D6010000 		.4byte	0x1d6
 2347 0236 05       		.uleb128 0x5
 2348 0237 BD000000 		.4byte	.LASF40
 2349 023b 40       		.byte	0x40
 2350 023c 07       		.byte	0x7
 2351 023d 34       		.byte	0x34
 2352 023e 7F020000 		.4byte	0x27f
 2353 0242 06       		.uleb128 0x6
 2354 0243 72617700 		.ascii	"raw\000"
 2355 0247 07       		.byte	0x7
 2356 0248 36       		.byte	0x36
 2357 0249 C0010000 		.4byte	0x1c0
 2358 024d 00       		.byte	0
 2359 024e 08       		.uleb128 0x8
 2360 024f 27060000 		.4byte	.LASF41
 2361 0253 07       		.byte	0x7
 2362 0254 38       		.byte	0x38
 2363 0255 C0010000 		.4byte	0x1c0
 2364 0259 0C       		.byte	0xc
 2365 025a 08       		.uleb128 0x8
 2366 025b 57030000 		.4byte	.LASF42
ARM GAS  C:\Users\Phuong\AppData\Local\Temp\ccqvrWt4.s 			page 60


 2367 025f 07       		.byte	0x7
 2368 0260 3A       		.byte	0x3a
 2369 0261 2B020000 		.4byte	0x22b
 2370 0265 18       		.byte	0x18
 2371 0266 08       		.uleb128 0x8
 2372 0267 9E020000 		.4byte	.LASF43
 2373 026b 07       		.byte	0x7
 2374 026c 3C       		.byte	0x3c
 2375 026d C0010000 		.4byte	0x1c0
 2376 0271 30       		.byte	0x30
 2377 0272 08       		.uleb128 0x8
 2378 0273 61000000 		.4byte	.LASF13
 2379 0277 07       		.byte	0x7
 2380 0278 3E       		.byte	0x3e
 2381 0279 7F020000 		.4byte	0x27f
 2382 027d 3C       		.byte	0x3c
 2383 027e 00       		.byte	0
 2384 027f 07       		.uleb128 0x7
 2385 0280 04       		.byte	0x4
 2386 0281 36020000 		.4byte	0x236
 2387 0285 04       		.uleb128 0x4
 2388 0286 BD000000 		.4byte	.LASF40
 2389 028a 07       		.byte	0x7
 2390 028b 40       		.byte	0x40
 2391 028c 36020000 		.4byte	0x236
 2392 0290 05       		.uleb128 0x5
 2393 0291 02040000 		.4byte	.LASF44
 2394 0295 F4       		.byte	0xf4
 2395 0296 07       		.byte	0x7
 2396 0297 46       		.byte	0x46
 2397 0298 5D030000 		.4byte	0x35d
 2398 029c 06       		.uleb128 0x6
 2399 029d 72617700 		.ascii	"raw\000"
 2400 02a1 07       		.byte	0x7
 2401 02a2 48       		.byte	0x48
 2402 02a3 C0010000 		.4byte	0x1c0
 2403 02a7 00       		.byte	0
 2404 02a8 06       		.uleb128 0x6
 2405 02a9 74627300 		.ascii	"tbs\000"
 2406 02ad 07       		.byte	0x7
 2407 02ae 49       		.byte	0x49
 2408 02af C0010000 		.4byte	0x1c0
 2409 02b3 0C       		.byte	0xc
 2410 02b4 08       		.uleb128 0x8
 2411 02b5 66000000 		.4byte	.LASF45
 2412 02b9 07       		.byte	0x7
 2413 02ba 4B       		.byte	0x4b
 2414 02bb 5D000000 		.4byte	0x5d
 2415 02bf 18       		.byte	0x18
 2416 02c0 08       		.uleb128 0x8
 2417 02c1 D4000000 		.4byte	.LASF46
 2418 02c5 07       		.byte	0x7
 2419 02c6 4C       		.byte	0x4c
 2420 02c7 C0010000 		.4byte	0x1c0
 2421 02cb 1C       		.byte	0x1c
 2422 02cc 08       		.uleb128 0x8
 2423 02cd 37000000 		.4byte	.LASF47
ARM GAS  C:\Users\Phuong\AppData\Local\Temp\ccqvrWt4.s 			page 61


 2424 02d1 07       		.byte	0x7
 2425 02d2 4E       		.byte	0x4e
 2426 02d3 C0010000 		.4byte	0x1c0
 2427 02d7 28       		.byte	0x28
 2428 02d8 08       		.uleb128 0x8
 2429 02d9 86040000 		.4byte	.LASF48
 2430 02dd 07       		.byte	0x7
 2431 02de 50       		.byte	0x50
 2432 02df CB010000 		.4byte	0x1cb
 2433 02e3 34       		.byte	0x34
 2434 02e4 08       		.uleb128 0x8
 2435 02e5 8C060000 		.4byte	.LASF49
 2436 02e9 07       		.byte	0x7
 2437 02ea 52       		.byte	0x52
 2438 02eb 2B020000 		.4byte	0x22b
 2439 02ef 54       		.byte	0x54
 2440 02f0 08       		.uleb128 0x8
 2441 02f1 38070000 		.4byte	.LASF50
 2442 02f5 07       		.byte	0x7
 2443 02f6 53       		.byte	0x53
 2444 02f7 2B020000 		.4byte	0x22b
 2445 02fb 6C       		.byte	0x6c
 2446 02fc 08       		.uleb128 0x8
 2447 02fd 38060000 		.4byte	.LASF51
 2448 0301 07       		.byte	0x7
 2449 0302 55       		.byte	0x55
 2450 0303 85020000 		.4byte	0x285
 2451 0307 84       		.byte	0x84
 2452 0308 08       		.uleb128 0x8
 2453 0309 F4060000 		.4byte	.LASF52
 2454 030d 07       		.byte	0x7
 2455 030e 57       		.byte	0x57
 2456 030f C0010000 		.4byte	0x1c0
 2457 0313 C4       		.byte	0xc4
 2458 0314 08       		.uleb128 0x8
 2459 0315 67030000 		.4byte	.LASF53
 2460 0319 07       		.byte	0x7
 2461 031a 59       		.byte	0x59
 2462 031b C0010000 		.4byte	0x1c0
 2463 031f D0       		.byte	0xd0
 2464 0320 06       		.uleb128 0x6
 2465 0321 73696700 		.ascii	"sig\000"
 2466 0325 07       		.byte	0x7
 2467 0326 5A       		.byte	0x5a
 2468 0327 C0010000 		.4byte	0x1c0
 2469 032b DC       		.byte	0xdc
 2470 032c 08       		.uleb128 0x8
 2471 032d CE060000 		.4byte	.LASF54
 2472 0331 07       		.byte	0x7
 2473 0332 5B       		.byte	0x5b
 2474 0333 54010000 		.4byte	0x154
 2475 0337 E8       		.byte	0xe8
 2476 0338 08       		.uleb128 0x8
 2477 0339 91000000 		.4byte	.LASF55
 2478 033d 07       		.byte	0x7
 2479 033e 5C       		.byte	0x5c
 2480 033f AA010000 		.4byte	0x1aa
ARM GAS  C:\Users\Phuong\AppData\Local\Temp\ccqvrWt4.s 			page 62


 2481 0343 E9       		.byte	0xe9
 2482 0344 08       		.uleb128 0x8
 2483 0345 78010000 		.4byte	.LASF56
 2484 0349 07       		.byte	0x7
 2485 034a 5D       		.byte	0x5d
 2486 034b 5F010000 		.4byte	0x15f
 2487 034f EC       		.byte	0xec
 2488 0350 08       		.uleb128 0x8
 2489 0351 61000000 		.4byte	.LASF13
 2490 0355 07       		.byte	0x7
 2491 0356 5F       		.byte	0x5f
 2492 0357 5D030000 		.4byte	0x35d
 2493 035b F0       		.byte	0xf0
 2494 035c 00       		.byte	0
 2495 035d 07       		.uleb128 0x7
 2496 035e 04       		.byte	0x4
 2497 035f 90020000 		.4byte	0x290
 2498 0363 04       		.uleb128 0x4
 2499 0364 02040000 		.4byte	.LASF44
 2500 0368 07       		.byte	0x7
 2501 0369 61       		.byte	0x61
 2502 036a 90020000 		.4byte	0x290
 2503 036e 02       		.uleb128 0x2
 2504 036f 04       		.byte	0x4
 2505 0370 07       		.byte	0x7
 2506 0371 07060000 		.4byte	.LASF57
 2507 0375 07       		.uleb128 0x7
 2508 0376 04       		.byte	0x4
 2509 0377 67010000 		.4byte	0x167
 2510 037b 05       		.uleb128 0x5
 2511 037c 4C010000 		.4byte	.LASF58
 2512 0380 0C       		.byte	0xc
 2513 0381 08       		.byte	0x8
 2514 0382 36       		.byte	0x36
 2515 0383 AC030000 		.4byte	0x3ac
 2516 0387 06       		.uleb128 0x6
 2517 0388 62756600 		.ascii	"buf\000"
 2518 038c 08       		.byte	0x8
 2519 038d 38       		.byte	0x38
 2520 038e AC000000 		.4byte	0xac
 2521 0392 00       		.byte	0
 2522 0393 08       		.uleb128 0x8
 2523 0394 55040000 		.4byte	.LASF59
 2524 0398 08       		.byte	0x8
 2525 0399 39       		.byte	0x39
 2526 039a 6B000000 		.4byte	0x6b
 2527 039e 04       		.byte	0x4
 2528 039f 08       		.uleb128 0x8
 2529 03a0 12050000 		.4byte	.LASF60
 2530 03a4 08       		.byte	0x8
 2531 03a5 3A       		.byte	0x3a
 2532 03a6 AC000000 		.4byte	0xac
 2533 03aa 08       		.byte	0x8
 2534 03ab 00       		.byte	0
 2535 03ac 04       		.uleb128 0x4
 2536 03ad 4C010000 		.4byte	.LASF58
 2537 03b1 08       		.byte	0x8
ARM GAS  C:\Users\Phuong\AppData\Local\Temp\ccqvrWt4.s 			page 63


 2538 03b2 3C       		.byte	0x3c
 2539 03b3 7B030000 		.4byte	0x37b
 2540 03b7 0D       		.uleb128 0xd
 2541 03b8 86010000 		.4byte	.LASF61
 2542 03bc 01       		.byte	0x1
 2543 03bd B4       		.byte	0xb4
 2544 03be 5D000000 		.4byte	0x5d
 2545 03c2 00000000 		.4byte	.LFB13
 2546 03c6 88000000 		.4byte	.LFE13-.LFB13
 2547 03ca 01       		.uleb128 0x1
 2548 03cb 9C       		.byte	0x9c
 2549 03cc 62040000 		.4byte	0x462
 2550 03d0 0E       		.uleb128 0xe
 2551 03d1 7000     		.ascii	"p\000"
 2552 03d3 01       		.byte	0x1
 2553 03d4 B4       		.byte	0xb4
 2554 03d5 62040000 		.4byte	0x462
 2555 03d9 00000000 		.4byte	.LLST0
 2556 03dd 0E       		.uleb128 0xe
 2557 03de 656E6400 		.ascii	"end\000"
 2558 03e2 01       		.byte	0x1
 2559 03e3 B5       		.byte	0xb5
 2560 03e4 B5010000 		.4byte	0x1b5
 2561 03e8 42000000 		.4byte	.LLST1
 2562 03ec 0E       		.uleb128 0xe
 2563 03ed 65787400 		.ascii	"ext\000"
 2564 03f1 01       		.byte	0x1
 2565 03f2 B6       		.byte	0xb6
 2566 03f3 68040000 		.4byte	0x468
 2567 03f7 84000000 		.4byte	.LLST2
 2568 03fb 0F       		.uleb128 0xf
 2569 03fc 72657400 		.ascii	"ret\000"
 2570 0400 01       		.byte	0x1
 2571 0401 B8       		.byte	0xb8
 2572 0402 5D000000 		.4byte	0x5d
 2573 0406 C9000000 		.4byte	.LLST3
 2574 040a 10       		.uleb128 0x10
 2575 040b 6C656E00 		.ascii	"len\000"
 2576 040f 01       		.byte	0x1
 2577 0410 B9       		.byte	0xb9
 2578 0411 6B000000 		.4byte	0x6b
 2579 0415 02       		.uleb128 0x2
 2580 0416 91       		.byte	0x91
 2581 0417 6C       		.sleb128 -20
 2582 0418 11       		.uleb128 0x11
 2583 0419 22000000 		.4byte	.LVL2
 2584 041d 69110000 		.4byte	0x1169
 2585 0421 3F040000 		.4byte	0x43f
 2586 0425 12       		.uleb128 0x12
 2587 0426 01       		.uleb128 0x1
 2588 0427 50       		.byte	0x50
 2589 0428 02       		.uleb128 0x2
 2590 0429 74       		.byte	0x74
 2591 042a 00       		.sleb128 0
 2592 042b 12       		.uleb128 0x12
 2593 042c 01       		.uleb128 0x1
 2594 042d 51       		.byte	0x51
ARM GAS  C:\Users\Phuong\AppData\Local\Temp\ccqvrWt4.s 			page 64


 2595 042e 03       		.uleb128 0x3
 2596 042f F3       		.byte	0xf3
 2597 0430 01       		.uleb128 0x1
 2598 0431 51       		.byte	0x51
 2599 0432 12       		.uleb128 0x12
 2600 0433 01       		.uleb128 0x1
 2601 0434 52       		.byte	0x52
 2602 0435 02       		.uleb128 0x2
 2603 0436 75       		.byte	0x75
 2604 0437 04       		.sleb128 4
 2605 0438 12       		.uleb128 0x12
 2606 0439 01       		.uleb128 0x1
 2607 043a 53       		.byte	0x53
 2608 043b 02       		.uleb128 0x2
 2609 043c 08       		.byte	0x8
 2610 043d 30       		.byte	0x30
 2611 043e 00       		.byte	0
 2612 043f 13       		.uleb128 0x13
 2613 0440 52000000 		.4byte	.LVL10
 2614 0444 69110000 		.4byte	0x1169
 2615 0448 12       		.uleb128 0x12
 2616 0449 01       		.uleb128 0x1
 2617 044a 50       		.byte	0x50
 2618 044b 02       		.uleb128 0x2
 2619 044c 74       		.byte	0x74
 2620 044d 00       		.sleb128 0
 2621 044e 12       		.uleb128 0x12
 2622 044f 01       		.uleb128 0x1
 2623 0450 51       		.byte	0x51
 2624 0451 02       		.uleb128 0x2
 2625 0452 75       		.byte	0x75
 2626 0453 00       		.sleb128 0
 2627 0454 12       		.uleb128 0x12
 2628 0455 01       		.uleb128 0x1
 2629 0456 52       		.byte	0x52
 2630 0457 02       		.uleb128 0x2
 2631 0458 91       		.byte	0x91
 2632 0459 6C       		.sleb128 -20
 2633 045a 12       		.uleb128 0x12
 2634 045b 01       		.uleb128 0x1
 2635 045c 53       		.byte	0x53
 2636 045d 02       		.uleb128 0x2
 2637 045e 08       		.byte	0x8
 2638 045f 30       		.byte	0x30
 2639 0460 00       		.byte	0
 2640 0461 00       		.byte	0
 2641 0462 07       		.uleb128 0x7
 2642 0463 04       		.byte	0x4
 2643 0464 AC000000 		.4byte	0xac
 2644 0468 07       		.uleb128 0x7
 2645 0469 04       		.byte	0x4
 2646 046a C0010000 		.4byte	0x1c0
 2647 046e 0D       		.uleb128 0xd
 2648 046f 9A050000 		.4byte	.LASF62
 2649 0473 01       		.byte	0x1
 2650 0474 49       		.byte	0x49
 2651 0475 5D000000 		.4byte	0x5d
ARM GAS  C:\Users\Phuong\AppData\Local\Temp\ccqvrWt4.s 			page 65


 2652 0479 00000000 		.4byte	.LFB11
 2653 047d 2C000000 		.4byte	.LFE11-.LFB11
 2654 0481 01       		.uleb128 0x1
 2655 0482 9C       		.byte	0x9c
 2656 0483 E0040000 		.4byte	0x4e0
 2657 0487 0E       		.uleb128 0xe
 2658 0488 7000     		.ascii	"p\000"
 2659 048a 01       		.byte	0x1
 2660 048b 49       		.byte	0x49
 2661 048c 62040000 		.4byte	0x462
 2662 0490 31010000 		.4byte	.LLST4
 2663 0494 0E       		.uleb128 0xe
 2664 0495 656E6400 		.ascii	"end\000"
 2665 0499 01       		.byte	0x1
 2666 049a 4A       		.byte	0x4a
 2667 049b B5010000 		.4byte	0x1b5
 2668 049f 52010000 		.4byte	.LLST5
 2669 04a3 0E       		.uleb128 0xe
 2670 04a4 76657200 		.ascii	"ver\000"
 2671 04a8 01       		.byte	0x1
 2672 04a9 4B       		.byte	0x4b
 2673 04aa E0040000 		.4byte	0x4e0
 2674 04ae 73010000 		.4byte	.LLST6
 2675 04b2 0F       		.uleb128 0xf
 2676 04b3 72657400 		.ascii	"ret\000"
 2677 04b7 01       		.byte	0x1
 2678 04b8 4D       		.byte	0x4d
 2679 04b9 5D000000 		.4byte	0x5d
 2680 04bd 9F010000 		.4byte	.LLST7
 2681 04c1 13       		.uleb128 0x13
 2682 04c2 08000000 		.4byte	.LVL20
 2683 04c6 74110000 		.4byte	0x1174
 2684 04ca 12       		.uleb128 0x12
 2685 04cb 01       		.uleb128 0x1
 2686 04cc 50       		.byte	0x50
 2687 04cd 03       		.uleb128 0x3
 2688 04ce F3       		.byte	0xf3
 2689 04cf 01       		.uleb128 0x1
 2690 04d0 50       		.byte	0x50
 2691 04d1 12       		.uleb128 0x12
 2692 04d2 01       		.uleb128 0x1
 2693 04d3 51       		.byte	0x51
 2694 04d4 03       		.uleb128 0x3
 2695 04d5 F3       		.byte	0xf3
 2696 04d6 01       		.uleb128 0x1
 2697 04d7 51       		.byte	0x51
 2698 04d8 12       		.uleb128 0x12
 2699 04d9 01       		.uleb128 0x1
 2700 04da 52       		.byte	0x52
 2701 04db 02       		.uleb128 0x2
 2702 04dc 74       		.byte	0x74
 2703 04dd 00       		.sleb128 0
 2704 04de 00       		.byte	0
 2705 04df 00       		.byte	0
 2706 04e0 07       		.uleb128 0x7
 2707 04e1 04       		.byte	0x4
 2708 04e2 5D000000 		.4byte	0x5d
ARM GAS  C:\Users\Phuong\AppData\Local\Temp\ccqvrWt4.s 			page 66


 2709 04e6 0D       		.uleb128 0xd
 2710 04e7 17050000 		.4byte	.LASF63
 2711 04eb 01       		.byte	0x1
 2712 04ec EA       		.byte	0xea
 2713 04ed 5D000000 		.4byte	0x5d
 2714 04f1 00000000 		.4byte	.LFB14
 2715 04f5 B4000000 		.4byte	.LFE14-.LFB14
 2716 04f9 01       		.uleb128 0x1
 2717 04fa 9C       		.byte	0x9c
 2718 04fb 3D060000 		.4byte	0x63d
 2719 04ff 0E       		.uleb128 0xe
 2720 0500 7000     		.ascii	"p\000"
 2721 0502 01       		.byte	0x1
 2722 0503 EA       		.byte	0xea
 2723 0504 62040000 		.4byte	0x462
 2724 0508 D7010000 		.4byte	.LLST8
 2725 050c 0E       		.uleb128 0xe
 2726 050d 656E6400 		.ascii	"end\000"
 2727 0511 01       		.byte	0x1
 2728 0512 EB       		.byte	0xeb
 2729 0513 B5010000 		.4byte	0x1b5
 2730 0517 19020000 		.4byte	.LLST9
 2731 051b 14       		.uleb128 0x14
 2732 051c 38060000 		.4byte	.LASF51
 2733 0520 01       		.byte	0x1
 2734 0521 EC       		.byte	0xec
 2735 0522 3D060000 		.4byte	0x63d
 2736 0526 5B020000 		.4byte	.LLST10
 2737 052a 0F       		.uleb128 0xf
 2738 052b 72657400 		.ascii	"ret\000"
 2739 052f 01       		.byte	0x1
 2740 0530 EE       		.byte	0xee
 2741 0531 5D000000 		.4byte	0x5d
 2742 0535 A0020000 		.4byte	.LLST11
 2743 0539 15       		.uleb128 0x15
 2744 053a 2E060000 		.4byte	.LASF64
 2745 053e 01       		.byte	0x1
 2746 053f EF       		.byte	0xef
 2747 0540 6B000000 		.4byte	0x6b
 2748 0544 02       		.uleb128 0x2
 2749 0545 91       		.byte	0x91
 2750 0546 64       		.sleb128 -28
 2751 0547 16       		.uleb128 0x16
 2752 0548 EA060000 		.4byte	.LASF65
 2753 054c 01       		.byte	0x1
 2754 054d F0       		.byte	0xf0
 2755 054e 3D060000 		.4byte	0x63d
 2756 0552 F7020000 		.4byte	.LLST12
 2757 0556 17       		.uleb128 0x17
 2758 0557 30000000 		.4byte	.LBB2
 2759 055b 70000000 		.4byte	.LBE2-.LBB2
 2760 055f 19060000 		.4byte	0x619
 2761 0563 18       		.uleb128 0x18
 2762 0564 81010000 		.4byte	.LASF66
 2763 0568 01       		.byte	0x1
 2764 0569 0201     		.2byte	0x102
 2765 056b 6B000000 		.4byte	0x6b
ARM GAS  C:\Users\Phuong\AppData\Local\Temp\ccqvrWt4.s 			page 67


 2766 056f 02       		.uleb128 0x2
 2767 0570 91       		.byte	0x91
 2768 0571 60       		.sleb128 -32
 2769 0572 19       		.uleb128 0x19
 2770 0573 0D050000 		.4byte	.LASF67
 2771 0577 01       		.byte	0x1
 2772 0578 0301     		.2byte	0x103
 2773 057a B5010000 		.4byte	0x1b5
 2774 057e 41030000 		.4byte	.LLST13
 2775 0582 11       		.uleb128 0x11
 2776 0583 3C000000 		.4byte	.LVL35
 2777 0587 69110000 		.4byte	0x1169
 2778 058b A8050000 		.4byte	0x5a8
 2779 058f 12       		.uleb128 0x12
 2780 0590 01       		.uleb128 0x1
 2781 0591 50       		.byte	0x50
 2782 0592 02       		.uleb128 0x2
 2783 0593 74       		.byte	0x74
 2784 0594 00       		.sleb128 0
 2785 0595 12       		.uleb128 0x12
 2786 0596 01       		.uleb128 0x1
 2787 0597 51       		.byte	0x51
 2788 0598 02       		.uleb128 0x2
 2789 0599 77       		.byte	0x77
 2790 059a 00       		.sleb128 0
 2791 059b 12       		.uleb128 0x12
 2792 059c 01       		.uleb128 0x1
 2793 059d 52       		.byte	0x52
 2794 059e 02       		.uleb128 0x2
 2795 059f 7D       		.byte	0x7d
 2796 05a0 00       		.sleb128 0
 2797 05a1 12       		.uleb128 0x12
 2798 05a2 01       		.uleb128 0x1
 2799 05a3 53       		.byte	0x53
 2800 05a4 02       		.uleb128 0x2
 2801 05a5 08       		.byte	0x8
 2802 05a6 30       		.byte	0x30
 2803 05a7 00       		.byte	0
 2804 05a8 11       		.uleb128 0x11
 2805 05a9 60000000 		.4byte	.LVL38
 2806 05ad 7F110000 		.4byte	0x117f
 2807 05b1 C8050000 		.4byte	0x5c8
 2808 05b5 12       		.uleb128 0x12
 2809 05b6 01       		.uleb128 0x1
 2810 05b7 50       		.byte	0x50
 2811 05b8 02       		.uleb128 0x2
 2812 05b9 74       		.byte	0x74
 2813 05ba 00       		.sleb128 0
 2814 05bb 12       		.uleb128 0x12
 2815 05bc 01       		.uleb128 0x1
 2816 05bd 51       		.byte	0x51
 2817 05be 02       		.uleb128 0x2
 2818 05bf 75       		.byte	0x75
 2819 05c0 00       		.sleb128 0
 2820 05c1 12       		.uleb128 0x12
 2821 05c2 01       		.uleb128 0x1
 2822 05c3 52       		.byte	0x52
ARM GAS  C:\Users\Phuong\AppData\Local\Temp\ccqvrWt4.s 			page 68


 2823 05c4 02       		.uleb128 0x2
 2824 05c5 76       		.byte	0x76
 2825 05c6 0C       		.sleb128 12
 2826 05c7 00       		.byte	0
 2827 05c8 11       		.uleb128 0x11
 2828 05c9 70000000 		.4byte	.LVL40
 2829 05cd 8B110000 		.4byte	0x118b
 2830 05d1 E8050000 		.4byte	0x5e8
 2831 05d5 12       		.uleb128 0x12
 2832 05d6 01       		.uleb128 0x1
 2833 05d7 50       		.byte	0x50
 2834 05d8 02       		.uleb128 0x2
 2835 05d9 74       		.byte	0x74
 2836 05da 00       		.sleb128 0
 2837 05db 12       		.uleb128 0x12
 2838 05dc 01       		.uleb128 0x1
 2839 05dd 51       		.byte	0x51
 2840 05de 02       		.uleb128 0x2
 2841 05df 75       		.byte	0x75
 2842 05e0 00       		.sleb128 0
 2843 05e1 12       		.uleb128 0x12
 2844 05e2 01       		.uleb128 0x1
 2845 05e3 52       		.byte	0x52
 2846 05e4 02       		.uleb128 0x2
 2847 05e5 76       		.byte	0x76
 2848 05e6 18       		.sleb128 24
 2849 05e7 00       		.byte	0
 2850 05e8 11       		.uleb128 0x11
 2851 05e9 80000000 		.4byte	.LVL42
 2852 05ed B7030000 		.4byte	0x3b7
 2853 05f1 08060000 		.4byte	0x608
 2854 05f5 12       		.uleb128 0x12
 2855 05f6 01       		.uleb128 0x1
 2856 05f7 50       		.byte	0x50
 2857 05f8 02       		.uleb128 0x2
 2858 05f9 74       		.byte	0x74
 2859 05fa 00       		.sleb128 0
 2860 05fb 12       		.uleb128 0x12
 2861 05fc 01       		.uleb128 0x1
 2862 05fd 51       		.byte	0x51
 2863 05fe 02       		.uleb128 0x2
 2864 05ff 75       		.byte	0x75
 2865 0600 00       		.sleb128 0
 2866 0601 12       		.uleb128 0x12
 2867 0602 01       		.uleb128 0x1
 2868 0603 52       		.byte	0x52
 2869 0604 02       		.uleb128 0x2
 2870 0605 76       		.byte	0x76
 2871 0606 30       		.sleb128 48
 2872 0607 00       		.byte	0
 2873 0608 13       		.uleb128 0x13
 2874 0609 92000000 		.4byte	.LVL44
 2875 060d 97110000 		.4byte	0x1197
 2876 0611 12       		.uleb128 0x12
 2877 0612 01       		.uleb128 0x1
 2878 0613 51       		.byte	0x51
 2879 0614 02       		.uleb128 0x2
ARM GAS  C:\Users\Phuong\AppData\Local\Temp\ccqvrWt4.s 			page 69


 2880 0615 08       		.byte	0x8
 2881 0616 40       		.byte	0x40
 2882 0617 00       		.byte	0
 2883 0618 00       		.byte	0
 2884 0619 13       		.uleb128 0x13
 2885 061a 16000000 		.4byte	.LVL30
 2886 061e 69110000 		.4byte	0x1169
 2887 0622 12       		.uleb128 0x12
 2888 0623 01       		.uleb128 0x1
 2889 0624 50       		.byte	0x50
 2890 0625 02       		.uleb128 0x2
 2891 0626 74       		.byte	0x74
 2892 0627 00       		.sleb128 0
 2893 0628 12       		.uleb128 0x12
 2894 0629 01       		.uleb128 0x1
 2895 062a 51       		.byte	0x51
 2896 062b 03       		.uleb128 0x3
 2897 062c F3       		.byte	0xf3
 2898 062d 01       		.uleb128 0x1
 2899 062e 51       		.byte	0x51
 2900 062f 12       		.uleb128 0x12
 2901 0630 01       		.uleb128 0x1
 2902 0631 52       		.byte	0x52
 2903 0632 02       		.uleb128 0x2
 2904 0633 91       		.byte	0x91
 2905 0634 64       		.sleb128 -28
 2906 0635 12       		.uleb128 0x12
 2907 0636 01       		.uleb128 0x1
 2908 0637 53       		.byte	0x53
 2909 0638 02       		.uleb128 0x2
 2910 0639 08       		.byte	0x8
 2911 063a 30       		.byte	0x30
 2912 063b 00       		.byte	0
 2913 063c 00       		.byte	0
 2914 063d 07       		.uleb128 0x7
 2915 063e 04       		.byte	0x4
 2916 063f 85020000 		.4byte	0x285
 2917 0643 0D       		.uleb128 0xd
 2918 0644 F1030000 		.4byte	.LASF68
 2919 0648 01       		.byte	0x1
 2920 0649 64       		.byte	0x64
 2921 064a 5D000000 		.4byte	0x5d
 2922 064e 00000000 		.4byte	.LFB12
 2923 0652 D4000000 		.4byte	.LFE12-.LFB12
 2924 0656 01       		.uleb128 0x1
 2925 0657 9C       		.byte	0x9c
 2926 0658 7E070000 		.4byte	0x77e
 2927 065c 0E       		.uleb128 0xe
 2928 065d 7000     		.ascii	"p\000"
 2929 065f 01       		.byte	0x1
 2930 0660 64       		.byte	0x64
 2931 0661 62040000 		.4byte	0x462
 2932 0665 54030000 		.4byte	.LLST14
 2933 0669 0E       		.uleb128 0xe
 2934 066a 656E6400 		.ascii	"end\000"
 2935 066e 01       		.byte	0x1
 2936 066f 65       		.byte	0x65
ARM GAS  C:\Users\Phuong\AppData\Local\Temp\ccqvrWt4.s 			page 70


 2937 0670 B5010000 		.4byte	0x1b5
 2938 0674 80030000 		.4byte	.LLST15
 2939 0678 0E       		.uleb128 0xe
 2940 0679 65787400 		.ascii	"ext\000"
 2941 067d 01       		.byte	0x1
 2942 067e 66       		.byte	0x66
 2943 067f 68040000 		.4byte	0x468
 2944 0683 AC030000 		.4byte	.LLST16
 2945 0687 0F       		.uleb128 0xf
 2946 0688 72657400 		.ascii	"ret\000"
 2947 068c 01       		.byte	0x1
 2948 068d 68       		.byte	0x68
 2949 068e 5D000000 		.4byte	0x5d
 2950 0692 CD030000 		.4byte	.LLST17
 2951 0696 17       		.uleb128 0x17
 2952 0697 1C000000 		.4byte	.LBB3
 2953 069b 9A000000 		.4byte	.LBE3-.LBB3
 2954 069f 5B070000 		.4byte	0x75b
 2955 06a3 15       		.uleb128 0x15
 2956 06a4 B1000000 		.4byte	.LASF69
 2957 06a8 01       		.byte	0x1
 2958 06a9 7E       		.byte	0x7e
 2959 06aa 5D000000 		.4byte	0x5d
 2960 06ae 02       		.uleb128 0x2
 2961 06af 91       		.byte	0x91
 2962 06b0 68       		.sleb128 -24
 2963 06b1 16       		.uleb128 0x16
 2964 06b2 03010000 		.4byte	.LASF70
 2965 06b6 01       		.byte	0x1
 2966 06b7 7F       		.byte	0x7f
 2967 06b8 B5010000 		.4byte	0x1b5
 2968 06bc A0040000 		.4byte	.LLST18
 2969 06c0 10       		.uleb128 0x10
 2970 06c1 6C656E00 		.ascii	"len\000"
 2971 06c5 01       		.byte	0x1
 2972 06c6 80       		.byte	0x80
 2973 06c7 6B000000 		.4byte	0x6b
 2974 06cb 02       		.uleb128 0x2
 2975 06cc 91       		.byte	0x91
 2976 06cd 6C       		.sleb128 -20
 2977 06ce 11       		.uleb128 0x11
 2978 06cf 2C000000 		.4byte	.LVL57
 2979 06d3 69110000 		.4byte	0x1169
 2980 06d7 F4060000 		.4byte	0x6f4
 2981 06db 12       		.uleb128 0x12
 2982 06dc 01       		.uleb128 0x1
 2983 06dd 50       		.byte	0x50
 2984 06de 02       		.uleb128 0x2
 2985 06df 74       		.byte	0x74
 2986 06e0 00       		.sleb128 0
 2987 06e1 12       		.uleb128 0x12
 2988 06e2 01       		.uleb128 0x1
 2989 06e3 51       		.byte	0x51
 2990 06e4 02       		.uleb128 0x2
 2991 06e5 75       		.byte	0x75
 2992 06e6 00       		.sleb128 0
 2993 06e7 12       		.uleb128 0x12
ARM GAS  C:\Users\Phuong\AppData\Local\Temp\ccqvrWt4.s 			page 71


 2994 06e8 01       		.uleb128 0x1
 2995 06e9 52       		.byte	0x52
 2996 06ea 02       		.uleb128 0x2
 2997 06eb 91       		.byte	0x91
 2998 06ec 6C       		.sleb128 -20
 2999 06ed 12       		.uleb128 0x12
 3000 06ee 01       		.uleb128 0x1
 3001 06ef 53       		.byte	0x53
 3002 06f0 02       		.uleb128 0x2
 3003 06f1 08       		.byte	0x8
 3004 06f2 30       		.byte	0x30
 3005 06f3 00       		.byte	0
 3006 06f4 11       		.uleb128 0x11
 3007 06f5 4E000000 		.4byte	.LVL63
 3008 06f9 69110000 		.4byte	0x1169
 3009 06fd 19070000 		.4byte	0x719
 3010 0701 12       		.uleb128 0x12
 3011 0702 01       		.uleb128 0x1
 3012 0703 50       		.byte	0x50
 3013 0704 02       		.uleb128 0x2
 3014 0705 74       		.byte	0x74
 3015 0706 00       		.sleb128 0
 3016 0707 12       		.uleb128 0x12
 3017 0708 01       		.uleb128 0x1
 3018 0709 51       		.byte	0x51
 3019 070a 02       		.uleb128 0x2
 3020 070b 76       		.byte	0x76
 3021 070c 00       		.sleb128 0
 3022 070d 12       		.uleb128 0x12
 3023 070e 01       		.uleb128 0x1
 3024 070f 52       		.byte	0x52
 3025 0710 02       		.uleb128 0x2
 3026 0711 91       		.byte	0x91
 3027 0712 6C       		.sleb128 -20
 3028 0713 12       		.uleb128 0x12
 3029 0714 01       		.uleb128 0x1
 3030 0715 53       		.byte	0x53
 3031 0716 01       		.uleb128 0x1
 3032 0717 36       		.byte	0x36
 3033 0718 00       		.byte	0
 3034 0719 11       		.uleb128 0x11
 3035 071a 6E000000 		.4byte	.LVL67
 3036 071e A2110000 		.4byte	0x11a2
 3037 0722 39070000 		.4byte	0x739
 3038 0726 12       		.uleb128 0x12
 3039 0727 01       		.uleb128 0x1
 3040 0728 50       		.byte	0x50
 3041 0729 02       		.uleb128 0x2
 3042 072a 74       		.byte	0x74
 3043 072b 00       		.sleb128 0
 3044 072c 12       		.uleb128 0x12
 3045 072d 01       		.uleb128 0x1
 3046 072e 51       		.byte	0x51
 3047 072f 02       		.uleb128 0x2
 3048 0730 76       		.byte	0x76
 3049 0731 00       		.sleb128 0
 3050 0732 12       		.uleb128 0x12
ARM GAS  C:\Users\Phuong\AppData\Local\Temp\ccqvrWt4.s 			page 72


 3051 0733 01       		.uleb128 0x1
 3052 0734 52       		.byte	0x52
 3053 0735 02       		.uleb128 0x2
 3054 0736 7D       		.byte	0x7d
 3055 0737 00       		.sleb128 0
 3056 0738 00       		.byte	0
 3057 0739 13       		.uleb128 0x13
 3058 073a 8C000000 		.4byte	.LVL71
 3059 073e 69110000 		.4byte	0x1169
 3060 0742 12       		.uleb128 0x12
 3061 0743 01       		.uleb128 0x1
 3062 0744 50       		.byte	0x50
 3063 0745 02       		.uleb128 0x2
 3064 0746 74       		.byte	0x74
 3065 0747 00       		.sleb128 0
 3066 0748 12       		.uleb128 0x12
 3067 0749 01       		.uleb128 0x1
 3068 074a 51       		.byte	0x51
 3069 074b 02       		.uleb128 0x2
 3070 074c 76       		.byte	0x76
 3071 074d 00       		.sleb128 0
 3072 074e 12       		.uleb128 0x12
 3073 074f 01       		.uleb128 0x1
 3074 0750 52       		.byte	0x52
 3075 0751 02       		.uleb128 0x2
 3076 0752 91       		.byte	0x91
 3077 0753 6C       		.sleb128 -20
 3078 0754 12       		.uleb128 0x12
 3079 0755 01       		.uleb128 0x1
 3080 0756 53       		.byte	0x53
 3081 0757 01       		.uleb128 0x1
 3082 0758 34       		.byte	0x34
 3083 0759 00       		.byte	0
 3084 075a 00       		.byte	0
 3085 075b 13       		.uleb128 0x13
 3086 075c 0E000000 		.4byte	.LVL53
 3087 0760 AD110000 		.4byte	0x11ad
 3088 0764 12       		.uleb128 0x12
 3089 0765 01       		.uleb128 0x1
 3090 0766 50       		.byte	0x50
 3091 0767 02       		.uleb128 0x2
 3092 0768 74       		.byte	0x74
 3093 0769 00       		.sleb128 0
 3094 076a 12       		.uleb128 0x12
 3095 076b 01       		.uleb128 0x1
 3096 076c 51       		.byte	0x51
 3097 076d 02       		.uleb128 0x2
 3098 076e 75       		.byte	0x75
 3099 076f 00       		.sleb128 0
 3100 0770 12       		.uleb128 0x12
 3101 0771 01       		.uleb128 0x1
 3102 0772 52       		.byte	0x52
 3103 0773 03       		.uleb128 0x3
 3104 0774 F3       		.byte	0xf3
 3105 0775 01       		.uleb128 0x1
 3106 0776 52       		.byte	0x52
 3107 0777 12       		.uleb128 0x12
ARM GAS  C:\Users\Phuong\AppData\Local\Temp\ccqvrWt4.s 			page 73


 3108 0778 01       		.uleb128 0x1
 3109 0779 53       		.byte	0x53
 3110 077a 01       		.uleb128 0x1
 3111 077b 30       		.byte	0x30
 3112 077c 00       		.byte	0
 3113 077d 00       		.byte	0
 3114 077e 1A       		.uleb128 0x1a
 3115 077f 34050000 		.4byte	.LASF81
 3116 0783 01       		.byte	0x1
 3117 0784 7602     		.2byte	0x276
 3118 0786 5D000000 		.4byte	0x5d
 3119 078a 00000000 		.4byte	.LFB17
 3120 078e 50020000 		.4byte	.LFE17-.LFB17
 3121 0792 01       		.uleb128 0x1
 3122 0793 9C       		.byte	0x9c
 3123 0794 D9090000 		.4byte	0x9d9
 3124 0798 1B       		.uleb128 0x1b
 3125 0799 62756600 		.ascii	"buf\000"
 3126 079d 01       		.byte	0x1
 3127 079e 7602     		.2byte	0x276
 3128 07a0 75030000 		.4byte	0x375
 3129 07a4 BE040000 		.4byte	.LLST19
 3130 07a8 1C       		.uleb128 0x1c
 3131 07a9 00050000 		.4byte	.LASF71
 3132 07ad 01       		.byte	0x1
 3133 07ae 7602     		.2byte	0x276
 3134 07b0 6B000000 		.4byte	0x6b
 3135 07b4 03050000 		.4byte	.LLST20
 3136 07b8 1C       		.uleb128 0x1c
 3137 07b9 70030000 		.4byte	.LASF72
 3138 07bd 01       		.byte	0x1
 3139 07be 7602     		.2byte	0x276
 3140 07c0 61010000 		.4byte	0x161
 3141 07c4 2F050000 		.4byte	.LLST21
 3142 07c8 1B       		.uleb128 0x1b
 3143 07c9 63726C00 		.ascii	"crl\000"
 3144 07cd 01       		.byte	0x1
 3145 07ce 7702     		.2byte	0x277
 3146 07d0 D9090000 		.4byte	0x9d9
 3147 07d4 89050000 		.4byte	.LLST22
 3148 07d8 1D       		.uleb128 0x1d
 3149 07d9 72657400 		.ascii	"ret\000"
 3150 07dd 01       		.byte	0x1
 3151 07de 7902     		.2byte	0x279
 3152 07e0 5D000000 		.4byte	0x5d
 3153 07e4 B5050000 		.4byte	.LLST23
 3154 07e8 1D       		.uleb128 0x1d
 3155 07e9 6E00     		.ascii	"n\000"
 3156 07eb 01       		.byte	0x1
 3157 07ec 7A02     		.2byte	0x27a
 3158 07ee 6B000000 		.4byte	0x6b
 3159 07f2 49070000 		.4byte	.LLST24
 3160 07f6 1D       		.uleb128 0x1d
 3161 07f7 7000     		.ascii	"p\000"
 3162 07f9 01       		.byte	0x1
 3163 07fa 7B02     		.2byte	0x27b
 3164 07fc 75030000 		.4byte	0x375
ARM GAS  C:\Users\Phuong\AppData\Local\Temp\ccqvrWt4.s 			page 74


 3165 0800 BF070000 		.4byte	.LLST25
 3166 0804 19       		.uleb128 0x19
 3167 0805 38060000 		.4byte	.LASF51
 3168 0809 01       		.byte	0x1
 3169 080a 7C02     		.2byte	0x27c
 3170 080c E4090000 		.4byte	0x9e4
 3171 0810 09080000 		.4byte	.LLST26
 3172 0814 11       		.uleb128 0x11
 3173 0815 1E000000 		.4byte	.LVL87
 3174 0819 B9110000 		.4byte	0x11b9
 3175 081d 3D080000 		.4byte	0x83d
 3176 0821 12       		.uleb128 0x12
 3177 0822 01       		.uleb128 0x1
 3178 0823 50       		.byte	0x50
 3179 0824 02       		.uleb128 0x2
 3180 0825 74       		.byte	0x74
 3181 0826 00       		.sleb128 0
 3182 0827 12       		.uleb128 0x12
 3183 0828 01       		.uleb128 0x1
 3184 0829 51       		.byte	0x51
 3185 082a 02       		.uleb128 0x2
 3186 082b 78       		.byte	0x78
 3187 082c 00       		.sleb128 0
 3188 082d 12       		.uleb128 0x12
 3189 082e 01       		.uleb128 0x1
 3190 082f 52       		.byte	0x52
 3191 0830 05       		.uleb128 0x5
 3192 0831 03       		.byte	0x3
 3193 0832 00000000 		.4byte	.LC0
 3194 0836 12       		.uleb128 0x12
 3195 0837 01       		.uleb128 0x1
 3196 0838 53       		.byte	0x53
 3197 0839 02       		.uleb128 0x2
 3198 083a 75       		.byte	0x75
 3199 083b 00       		.sleb128 0
 3200 083c 00       		.byte	0
 3201 083d 11       		.uleb128 0x11
 3202 083e 3C000000 		.4byte	.LVL91
 3203 0842 B9110000 		.4byte	0x11b9
 3204 0846 66080000 		.4byte	0x866
 3205 084a 12       		.uleb128 0x12
 3206 084b 01       		.uleb128 0x1
 3207 084c 50       		.byte	0x50
 3208 084d 02       		.uleb128 0x2
 3209 084e 74       		.byte	0x74
 3210 084f 00       		.sleb128 0
 3211 0850 12       		.uleb128 0x12
 3212 0851 01       		.uleb128 0x1
 3213 0852 51       		.byte	0x51
 3214 0853 02       		.uleb128 0x2
 3215 0854 76       		.byte	0x76
 3216 0855 00       		.sleb128 0
 3217 0856 12       		.uleb128 0x12
 3218 0857 01       		.uleb128 0x1
 3219 0858 52       		.byte	0x52
 3220 0859 05       		.uleb128 0x5
 3221 085a 03       		.byte	0x3
ARM GAS  C:\Users\Phuong\AppData\Local\Temp\ccqvrWt4.s 			page 75


 3222 085b 18000000 		.4byte	.LC2
 3223 085f 12       		.uleb128 0x12
 3224 0860 01       		.uleb128 0x1
 3225 0861 53       		.byte	0x53
 3226 0862 02       		.uleb128 0x2
 3227 0863 75       		.byte	0x75
 3228 0864 00       		.sleb128 0
 3229 0865 00       		.byte	0
 3230 0866 11       		.uleb128 0x11
 3231 0867 58000000 		.4byte	.LVL95
 3232 086b C4110000 		.4byte	0x11c4
 3233 086f 86080000 		.4byte	0x886
 3234 0873 12       		.uleb128 0x12
 3235 0874 01       		.uleb128 0x1
 3236 0875 50       		.byte	0x50
 3237 0876 02       		.uleb128 0x2
 3238 0877 74       		.byte	0x74
 3239 0878 00       		.sleb128 0
 3240 0879 12       		.uleb128 0x12
 3241 087a 01       		.uleb128 0x1
 3242 087b 51       		.byte	0x51
 3243 087c 02       		.uleb128 0x2
 3244 087d 76       		.byte	0x76
 3245 087e 00       		.sleb128 0
 3246 087f 12       		.uleb128 0x12
 3247 0880 01       		.uleb128 0x1
 3248 0881 52       		.byte	0x52
 3249 0882 02       		.uleb128 0x2
 3250 0883 77       		.byte	0x77
 3251 0884 34       		.sleb128 52
 3252 0885 00       		.byte	0
 3253 0886 11       		.uleb128 0x11
 3254 0887 8C000000 		.4byte	.LVL99
 3255 088b B9110000 		.4byte	0x11b9
 3256 088f AF080000 		.4byte	0x8af
 3257 0893 12       		.uleb128 0x12
 3258 0894 01       		.uleb128 0x1
 3259 0895 50       		.byte	0x50
 3260 0896 02       		.uleb128 0x2
 3261 0897 74       		.byte	0x74
 3262 0898 00       		.sleb128 0
 3263 0899 12       		.uleb128 0x12
 3264 089a 01       		.uleb128 0x1
 3265 089b 51       		.byte	0x51
 3266 089c 02       		.uleb128 0x2
 3267 089d 76       		.byte	0x76
 3268 089e 00       		.sleb128 0
 3269 089f 12       		.uleb128 0x12
 3270 08a0 01       		.uleb128 0x1
 3271 08a1 52       		.byte	0x52
 3272 08a2 05       		.uleb128 0x5
 3273 08a3 03       		.byte	0x3
 3274 08a4 2C000000 		.4byte	.LC4
 3275 08a8 12       		.uleb128 0x12
 3276 08a9 01       		.uleb128 0x1
 3277 08aa 53       		.byte	0x53
 3278 08ab 02       		.uleb128 0x2
ARM GAS  C:\Users\Phuong\AppData\Local\Temp\ccqvrWt4.s 			page 76


 3279 08ac 75       		.byte	0x75
 3280 08ad 00       		.sleb128 0
 3281 08ae 00       		.byte	0
 3282 08af 11       		.uleb128 0x11
 3283 08b0 C4000000 		.4byte	.LVL103
 3284 08b4 B9110000 		.4byte	0x11b9
 3285 08b8 D8080000 		.4byte	0x8d8
 3286 08bc 12       		.uleb128 0x12
 3287 08bd 01       		.uleb128 0x1
 3288 08be 50       		.byte	0x50
 3289 08bf 02       		.uleb128 0x2
 3290 08c0 74       		.byte	0x74
 3291 08c1 00       		.sleb128 0
 3292 08c2 12       		.uleb128 0x12
 3293 08c3 01       		.uleb128 0x1
 3294 08c4 51       		.byte	0x51
 3295 08c5 02       		.uleb128 0x2
 3296 08c6 76       		.byte	0x76
 3297 08c7 00       		.sleb128 0
 3298 08c8 12       		.uleb128 0x12
 3299 08c9 01       		.uleb128 0x1
 3300 08ca 52       		.byte	0x52
 3301 08cb 05       		.uleb128 0x5
 3302 08cc 03       		.byte	0x3
 3303 08cd 60000000 		.4byte	.LC6
 3304 08d1 12       		.uleb128 0x12
 3305 08d2 01       		.uleb128 0x1
 3306 08d3 53       		.byte	0x53
 3307 08d4 02       		.uleb128 0x2
 3308 08d5 75       		.byte	0x75
 3309 08d6 00       		.sleb128 0
 3310 08d7 00       		.byte	0
 3311 08d8 11       		.uleb128 0x11
 3312 08d9 E6000000 		.4byte	.LVL109
 3313 08dd B9110000 		.4byte	0x11b9
 3314 08e1 02090000 		.4byte	0x902
 3315 08e5 12       		.uleb128 0x12
 3316 08e6 01       		.uleb128 0x1
 3317 08e7 50       		.byte	0x50
 3318 08e8 02       		.uleb128 0x2
 3319 08e9 75       		.byte	0x75
 3320 08ea 00       		.sleb128 0
 3321 08eb 12       		.uleb128 0x12
 3322 08ec 01       		.uleb128 0x1
 3323 08ed 51       		.byte	0x51
 3324 08ee 02       		.uleb128 0x2
 3325 08ef 7A       		.byte	0x7a
 3326 08f0 00       		.sleb128 0
 3327 08f1 12       		.uleb128 0x12
 3328 08f2 01       		.uleb128 0x1
 3329 08f3 52       		.byte	0x52
 3330 08f4 05       		.uleb128 0x5
 3331 08f5 03       		.byte	0x3
 3332 08f6 94000000 		.4byte	.LC8
 3333 08fa 12       		.uleb128 0x12
 3334 08fb 01       		.uleb128 0x1
 3335 08fc 53       		.byte	0x53
ARM GAS  C:\Users\Phuong\AppData\Local\Temp\ccqvrWt4.s 			page 77


 3336 08fd 03       		.uleb128 0x3
 3337 08fe 91       		.byte	0x91
 3338 08ff 5C       		.sleb128 -36
 3339 0900 06       		.byte	0x6
 3340 0901 00       		.byte	0
 3341 0902 11       		.uleb128 0x11
 3342 0903 02010000 		.4byte	.LVL113
 3343 0907 B9110000 		.4byte	0x11b9
 3344 090b 2C090000 		.4byte	0x92c
 3345 090f 12       		.uleb128 0x12
 3346 0910 01       		.uleb128 0x1
 3347 0911 50       		.byte	0x50
 3348 0912 02       		.uleb128 0x2
 3349 0913 75       		.byte	0x75
 3350 0914 00       		.sleb128 0
 3351 0915 12       		.uleb128 0x12
 3352 0916 01       		.uleb128 0x1
 3353 0917 51       		.byte	0x51
 3354 0918 02       		.uleb128 0x2
 3355 0919 74       		.byte	0x74
 3356 091a 00       		.sleb128 0
 3357 091b 12       		.uleb128 0x12
 3358 091c 01       		.uleb128 0x1
 3359 091d 52       		.byte	0x52
 3360 091e 05       		.uleb128 0x5
 3361 091f 03       		.byte	0x3
 3362 0920 B0000000 		.4byte	.LC10
 3363 0924 12       		.uleb128 0x12
 3364 0925 01       		.uleb128 0x1
 3365 0926 53       		.byte	0x53
 3366 0927 03       		.uleb128 0x3
 3367 0928 91       		.byte	0x91
 3368 0929 5C       		.sleb128 -36
 3369 092a 06       		.byte	0x6
 3370 092b 00       		.byte	0
 3371 092c 11       		.uleb128 0x11
 3372 092d 1A010000 		.4byte	.LVL117
 3373 0931 CF110000 		.4byte	0x11cf
 3374 0935 4C090000 		.4byte	0x94c
 3375 0939 12       		.uleb128 0x12
 3376 093a 01       		.uleb128 0x1
 3377 093b 50       		.byte	0x50
 3378 093c 02       		.uleb128 0x2
 3379 093d 75       		.byte	0x75
 3380 093e 00       		.sleb128 0
 3381 093f 12       		.uleb128 0x12
 3382 0940 01       		.uleb128 0x1
 3383 0941 51       		.byte	0x51
 3384 0942 02       		.uleb128 0x2
 3385 0943 74       		.byte	0x74
 3386 0944 00       		.sleb128 0
 3387 0945 12       		.uleb128 0x12
 3388 0946 01       		.uleb128 0x1
 3389 0947 52       		.byte	0x52
 3390 0948 02       		.uleb128 0x2
 3391 0949 76       		.byte	0x76
 3392 094a 0C       		.sleb128 12
ARM GAS  C:\Users\Phuong\AppData\Local\Temp\ccqvrWt4.s 			page 78


 3393 094b 00       		.byte	0
 3394 094c 11       		.uleb128 0x11
 3395 094d 4E010000 		.4byte	.LVL121
 3396 0951 B9110000 		.4byte	0x11b9
 3397 0955 75090000 		.4byte	0x975
 3398 0959 12       		.uleb128 0x12
 3399 095a 01       		.uleb128 0x1
 3400 095b 50       		.byte	0x50
 3401 095c 02       		.uleb128 0x2
 3402 095d 75       		.byte	0x75
 3403 095e 00       		.sleb128 0
 3404 095f 12       		.uleb128 0x12
 3405 0960 01       		.uleb128 0x1
 3406 0961 51       		.byte	0x51
 3407 0962 02       		.uleb128 0x2
 3408 0963 74       		.byte	0x74
 3409 0964 00       		.sleb128 0
 3410 0965 12       		.uleb128 0x12
 3411 0966 01       		.uleb128 0x1
 3412 0967 52       		.byte	0x52
 3413 0968 05       		.uleb128 0x5
 3414 0969 03       		.byte	0x3
 3415 096a C4000000 		.4byte	.LC12
 3416 096e 12       		.uleb128 0x12
 3417 096f 01       		.uleb128 0x1
 3418 0970 53       		.byte	0x53
 3419 0971 02       		.uleb128 0x2
 3420 0972 7A       		.byte	0x7a
 3421 0973 00       		.sleb128 0
 3422 0974 00       		.byte	0
 3423 0975 11       		.uleb128 0x11
 3424 0976 72010000 		.4byte	.LVL126
 3425 097a B9110000 		.4byte	0x11b9
 3426 097e 9F090000 		.4byte	0x99f
 3427 0982 12       		.uleb128 0x12
 3428 0983 01       		.uleb128 0x1
 3429 0984 50       		.byte	0x50
 3430 0985 02       		.uleb128 0x2
 3431 0986 75       		.byte	0x75
 3432 0987 00       		.sleb128 0
 3433 0988 12       		.uleb128 0x12
 3434 0989 01       		.uleb128 0x1
 3435 098a 51       		.byte	0x51
 3436 098b 02       		.uleb128 0x2
 3437 098c 74       		.byte	0x74
 3438 098d 00       		.sleb128 0
 3439 098e 12       		.uleb128 0x12
 3440 098f 01       		.uleb128 0x1
 3441 0990 52       		.byte	0x52
 3442 0991 05       		.uleb128 0x5
 3443 0992 03       		.byte	0x3
 3444 0993 F4000000 		.4byte	.LC14
 3445 0997 12       		.uleb128 0x12
 3446 0998 01       		.uleb128 0x1
 3447 0999 53       		.byte	0x53
 3448 099a 03       		.uleb128 0x3
 3449 099b 91       		.byte	0x91
ARM GAS  C:\Users\Phuong\AppData\Local\Temp\ccqvrWt4.s 			page 79


 3450 099c 5C       		.sleb128 -36
 3451 099d 06       		.byte	0x6
 3452 099e 00       		.byte	0
 3453 099f 11       		.uleb128 0x11
 3454 09a0 9A010000 		.4byte	.LVL130
 3455 09a4 DA110000 		.4byte	0x11da
 3456 09a8 BF090000 		.4byte	0x9bf
 3457 09ac 12       		.uleb128 0x12
 3458 09ad 01       		.uleb128 0x1
 3459 09ae 50       		.byte	0x50
 3460 09af 02       		.uleb128 0x2
 3461 09b0 75       		.byte	0x75
 3462 09b1 00       		.sleb128 0
 3463 09b2 12       		.uleb128 0x12
 3464 09b3 01       		.uleb128 0x1
 3465 09b4 51       		.byte	0x51
 3466 09b5 02       		.uleb128 0x2
 3467 09b6 74       		.byte	0x74
 3468 09b7 00       		.sleb128 0
 3469 09b8 12       		.uleb128 0x12
 3470 09b9 01       		.uleb128 0x1
 3471 09ba 52       		.byte	0x52
 3472 09bb 02       		.uleb128 0x2
 3473 09bc 77       		.byte	0x77
 3474 09bd 1C       		.sleb128 28
 3475 09be 00       		.byte	0
 3476 09bf 13       		.uleb128 0x13
 3477 09c0 AE010000 		.4byte	.LVL133
 3478 09c4 B9110000 		.4byte	0x11b9
 3479 09c8 12       		.uleb128 0x12
 3480 09c9 01       		.uleb128 0x1
 3481 09ca 51       		.byte	0x51
 3482 09cb 02       		.uleb128 0x2
 3483 09cc 74       		.byte	0x74
 3484 09cd 00       		.sleb128 0
 3485 09ce 12       		.uleb128 0x12
 3486 09cf 01       		.uleb128 0x1
 3487 09d0 52       		.byte	0x52
 3488 09d1 05       		.uleb128 0x5
 3489 09d2 03       		.byte	0x3
 3490 09d3 08010000 		.4byte	.LC16
 3491 09d7 00       		.byte	0
 3492 09d8 00       		.byte	0
 3493 09d9 07       		.uleb128 0x7
 3494 09da 04       		.byte	0x4
 3495 09db DF090000 		.4byte	0x9df
 3496 09df 0C       		.uleb128 0xc
 3497 09e0 63030000 		.4byte	0x363
 3498 09e4 07       		.uleb128 0x7
 3499 09e5 04       		.byte	0x4
 3500 09e6 EA090000 		.4byte	0x9ea
 3501 09ea 0C       		.uleb128 0xc
 3502 09eb 85020000 		.4byte	0x285
 3503 09ef 1E       		.uleb128 0x1e
 3504 09f0 4C060000 		.4byte	.LASF73
 3505 09f4 01       		.byte	0x1
 3506 09f5 C102     		.2byte	0x2c1
ARM GAS  C:\Users\Phuong\AppData\Local\Temp\ccqvrWt4.s 			page 80


 3507 09f7 00000000 		.4byte	.LFB18
 3508 09fb 0C000000 		.4byte	.LFE18-.LFB18
 3509 09ff 01       		.uleb128 0x1
 3510 0a00 9C       		.byte	0x9c
 3511 0a01 320A0000 		.4byte	0xa32
 3512 0a05 1B       		.uleb128 0x1b
 3513 0a06 63726C00 		.ascii	"crl\000"
 3514 0a0a 01       		.byte	0x1
 3515 0a0b C102     		.2byte	0x2c1
 3516 0a0d 320A0000 		.4byte	0xa32
 3517 0a11 27080000 		.4byte	.LLST27
 3518 0a15 13       		.uleb128 0x13
 3519 0a16 0A000000 		.4byte	.LVL187
 3520 0a1a E6110000 		.4byte	0x11e6
 3521 0a1e 12       		.uleb128 0x12
 3522 0a1f 01       		.uleb128 0x1
 3523 0a20 50       		.byte	0x50
 3524 0a21 03       		.uleb128 0x3
 3525 0a22 F3       		.byte	0xf3
 3526 0a23 01       		.uleb128 0x1
 3527 0a24 50       		.byte	0x50
 3528 0a25 12       		.uleb128 0x12
 3529 0a26 01       		.uleb128 0x1
 3530 0a27 51       		.byte	0x51
 3531 0a28 01       		.uleb128 0x1
 3532 0a29 30       		.byte	0x30
 3533 0a2a 12       		.uleb128 0x12
 3534 0a2b 01       		.uleb128 0x1
 3535 0a2c 52       		.byte	0x52
 3536 0a2d 02       		.uleb128 0x2
 3537 0a2e 08       		.byte	0x8
 3538 0a2f F4       		.byte	0xf4
 3539 0a30 00       		.byte	0
 3540 0a31 00       		.byte	0
 3541 0a32 07       		.uleb128 0x7
 3542 0a33 04       		.byte	0x4
 3543 0a34 63030000 		.4byte	0x363
 3544 0a38 1E       		.uleb128 0x1e
 3545 0a39 3F040000 		.4byte	.LASF74
 3546 0a3d 01       		.byte	0x1
 3547 0a3e C902     		.2byte	0x2c9
 3548 0a40 00000000 		.4byte	.LFB19
 3549 0a44 7E000000 		.4byte	.LFE19-.LFB19
 3550 0a48 01       		.uleb128 0x1
 3551 0a49 9C       		.byte	0x9c
 3552 0a4a 600B0000 		.4byte	0xb60
 3553 0a4e 1B       		.uleb128 0x1b
 3554 0a4f 63726C00 		.ascii	"crl\000"
 3555 0a53 01       		.byte	0x1
 3556 0a54 C902     		.2byte	0x2c9
 3557 0a56 320A0000 		.4byte	0xa32
 3558 0a5a 48080000 		.4byte	.LLST28
 3559 0a5e 19       		.uleb128 0x19
 3560 0a5f 1D070000 		.4byte	.LASF75
 3561 0a63 01       		.byte	0x1
 3562 0a64 CB02     		.2byte	0x2cb
 3563 0a66 320A0000 		.4byte	0xa32
ARM GAS  C:\Users\Phuong\AppData\Local\Temp\ccqvrWt4.s 			page 81


 3564 0a6a 74080000 		.4byte	.LLST29
 3565 0a6e 19       		.uleb128 0x19
 3566 0a6f C6060000 		.4byte	.LASF76
 3567 0a73 01       		.byte	0x1
 3568 0a74 CC02     		.2byte	0x2cc
 3569 0a76 320A0000 		.4byte	0xa32
 3570 0a7a A8080000 		.4byte	.LLST30
 3571 0a7e 19       		.uleb128 0x19
 3572 0a7f 10010000 		.4byte	.LASF77
 3573 0a83 01       		.byte	0x1
 3574 0a84 CD02     		.2byte	0x2cd
 3575 0a86 600B0000 		.4byte	0xb60
 3576 0a8a BB080000 		.4byte	.LLST31
 3577 0a8e 19       		.uleb128 0x19
 3578 0a8f 88000000 		.4byte	.LASF78
 3579 0a93 01       		.byte	0x1
 3580 0a94 CE02     		.2byte	0x2ce
 3581 0a96 600B0000 		.4byte	0xb60
 3582 0a9a E4080000 		.4byte	.LLST32
 3583 0a9e 19       		.uleb128 0x19
 3584 0a9f 4D030000 		.4byte	.LASF79
 3585 0aa3 01       		.byte	0x1
 3586 0aa4 CF02     		.2byte	0x2cf
 3587 0aa6 3D060000 		.4byte	0x63d
 3588 0aaa F7080000 		.4byte	.LLST33
 3589 0aae 19       		.uleb128 0x19
 3590 0aaf 69020000 		.4byte	.LASF80
 3591 0ab3 01       		.byte	0x1
 3592 0ab4 D002     		.2byte	0x2d0
 3593 0ab6 3D060000 		.4byte	0x63d
 3594 0aba 20090000 		.4byte	.LLST34
 3595 0abe 1F       		.uleb128 0x1f
 3596 0abf 10000000 		.4byte	.LVL191
 3597 0ac3 EF110000 		.4byte	0x11ef
 3598 0ac7 11       		.uleb128 0x11
 3599 0ac8 1E000000 		.4byte	.LVL195
 3600 0acc FA110000 		.4byte	0x11fa
 3601 0ad0 E10A0000 		.4byte	0xae1
 3602 0ad4 12       		.uleb128 0x12
 3603 0ad5 01       		.uleb128 0x1
 3604 0ad6 50       		.byte	0x50
 3605 0ad7 02       		.uleb128 0x2
 3606 0ad8 74       		.byte	0x74
 3607 0ad9 00       		.sleb128 0
 3608 0ada 12       		.uleb128 0x12
 3609 0adb 01       		.uleb128 0x1
 3610 0adc 51       		.byte	0x51
 3611 0add 02       		.uleb128 0x2
 3612 0ade 08       		.byte	0x8
 3613 0adf 20       		.byte	0x20
 3614 0ae0 00       		.byte	0
 3615 0ae1 11       		.uleb128 0x11
 3616 0ae2 24000000 		.4byte	.LVL196
 3617 0ae6 EF110000 		.4byte	0x11ef
 3618 0aea F50A0000 		.4byte	0xaf5
 3619 0aee 12       		.uleb128 0x12
 3620 0aef 01       		.uleb128 0x1
ARM GAS  C:\Users\Phuong\AppData\Local\Temp\ccqvrWt4.s 			page 82


 3621 0af0 50       		.byte	0x50
 3622 0af1 02       		.uleb128 0x2
 3623 0af2 74       		.byte	0x74
 3624 0af3 00       		.sleb128 0
 3625 0af4 00       		.byte	0
 3626 0af5 11       		.uleb128 0x11
 3627 0af6 3A000000 		.4byte	.LVL201
 3628 0afa FA110000 		.4byte	0x11fa
 3629 0afe 0F0B0000 		.4byte	0xb0f
 3630 0b02 12       		.uleb128 0x12
 3631 0b03 01       		.uleb128 0x1
 3632 0b04 50       		.byte	0x50
 3633 0b05 02       		.uleb128 0x2
 3634 0b06 74       		.byte	0x74
 3635 0b07 00       		.sleb128 0
 3636 0b08 12       		.uleb128 0x12
 3637 0b09 01       		.uleb128 0x1
 3638 0b0a 51       		.byte	0x51
 3639 0b0b 02       		.uleb128 0x2
 3640 0b0c 08       		.byte	0x8
 3641 0b0d 40       		.byte	0x40
 3642 0b0e 00       		.byte	0
 3643 0b0f 11       		.uleb128 0x11
 3644 0b10 40000000 		.4byte	.LVL202
 3645 0b14 EF110000 		.4byte	0x11ef
 3646 0b18 230B0000 		.4byte	0xb23
 3647 0b1c 12       		.uleb128 0x12
 3648 0b1d 01       		.uleb128 0x1
 3649 0b1e 50       		.byte	0x50
 3650 0b1f 02       		.uleb128 0x2
 3651 0b20 74       		.byte	0x74
 3652 0b21 00       		.sleb128 0
 3653 0b22 00       		.byte	0
 3654 0b23 1F       		.uleb128 0x1f
 3655 0b24 52000000 		.4byte	.LVL204
 3656 0b28 FA110000 		.4byte	0x11fa
 3657 0b2c 1F       		.uleb128 0x1f
 3658 0b2d 58000000 		.4byte	.LVL205
 3659 0b31 EF110000 		.4byte	0x11ef
 3660 0b35 11       		.uleb128 0x11
 3661 0b36 6E000000 		.4byte	.LVL209
 3662 0b3a FA110000 		.4byte	0x11fa
 3663 0b3e 4F0B0000 		.4byte	0xb4f
 3664 0b42 12       		.uleb128 0x12
 3665 0b43 01       		.uleb128 0x1
 3666 0b44 50       		.byte	0x50
 3667 0b45 02       		.uleb128 0x2
 3668 0b46 74       		.byte	0x74
 3669 0b47 00       		.sleb128 0
 3670 0b48 12       		.uleb128 0x12
 3671 0b49 01       		.uleb128 0x1
 3672 0b4a 51       		.byte	0x51
 3673 0b4b 02       		.uleb128 0x2
 3674 0b4c 08       		.byte	0x8
 3675 0b4d F4       		.byte	0xf4
 3676 0b4e 00       		.byte	0
 3677 0b4f 13       		.uleb128 0x13
ARM GAS  C:\Users\Phuong\AppData\Local\Temp\ccqvrWt4.s 			page 83


 3678 0b50 78000000 		.4byte	.LVL210
 3679 0b54 EF110000 		.4byte	0x11ef
 3680 0b58 12       		.uleb128 0x12
 3681 0b59 01       		.uleb128 0x1
 3682 0b5a 50       		.byte	0x50
 3683 0b5b 02       		.uleb128 0x2
 3684 0b5c 74       		.byte	0x74
 3685 0b5d 00       		.sleb128 0
 3686 0b5e 00       		.byte	0
 3687 0b5f 00       		.byte	0
 3688 0b60 07       		.uleb128 0x7
 3689 0b61 04       		.byte	0x4
 3690 0b62 CB010000 		.4byte	0x1cb
 3691 0b66 1A       		.uleb128 0x1a
 3692 0b67 AF050000 		.4byte	.LASF82
 3693 0b6b 01       		.byte	0x1
 3694 0b6c 2C01     		.2byte	0x12c
 3695 0b6e 5D000000 		.4byte	0x5d
 3696 0b72 00000000 		.4byte	.LFB15
 3697 0b76 E4020000 		.4byte	.LFE15-.LFB15
 3698 0b7a 01       		.uleb128 0x1
 3699 0b7b 9C       		.byte	0x9c
 3700 0b7c 1F100000 		.4byte	0x101f
 3701 0b80 1C       		.uleb128 0x1c
 3702 0b81 44070000 		.4byte	.LASF83
 3703 0b85 01       		.byte	0x1
 3704 0b86 2C01     		.2byte	0x12c
 3705 0b88 320A0000 		.4byte	0xa32
 3706 0b8c 33090000 		.4byte	.LLST35
 3707 0b90 1B       		.uleb128 0x1b
 3708 0b91 62756600 		.ascii	"buf\000"
 3709 0b95 01       		.byte	0x1
 3710 0b96 2D01     		.2byte	0x12d
 3711 0b98 B5010000 		.4byte	0x1b5
 3712 0b9c 78090000 		.4byte	.LLST36
 3713 0ba0 1C       		.uleb128 0x1c
 3714 0ba1 55040000 		.4byte	.LASF59
 3715 0ba5 01       		.byte	0x1
 3716 0ba6 2D01     		.2byte	0x12d
 3717 0ba8 6B000000 		.4byte	0x6b
 3718 0bac 2C0A0000 		.4byte	.LLST37
 3719 0bb0 1D       		.uleb128 0x1d
 3720 0bb1 72657400 		.ascii	"ret\000"
 3721 0bb5 01       		.byte	0x1
 3722 0bb6 2F01     		.2byte	0x12f
 3723 0bb8 5D000000 		.4byte	0x5d
 3724 0bbc 880A0000 		.4byte	.LLST38
 3725 0bc0 20       		.uleb128 0x20
 3726 0bc1 6C656E00 		.ascii	"len\000"
 3727 0bc5 01       		.byte	0x1
 3728 0bc6 3001     		.2byte	0x130
 3729 0bc8 6B000000 		.4byte	0x6b
 3730 0bcc 02       		.uleb128 0x2
 3731 0bcd 91       		.byte	0x91
 3732 0bce 64       		.sleb128 -28
 3733 0bcf 20       		.uleb128 0x20
 3734 0bd0 7000     		.ascii	"p\000"
ARM GAS  C:\Users\Phuong\AppData\Local\Temp\ccqvrWt4.s 			page 84


 3735 0bd2 01       		.byte	0x1
 3736 0bd3 3101     		.2byte	0x131
 3737 0bd5 AC000000 		.4byte	0xac
 3738 0bd9 02       		.uleb128 0x2
 3739 0bda 91       		.byte	0x91
 3740 0bdb 60       		.sleb128 -32
 3741 0bdc 1D       		.uleb128 0x1d
 3742 0bdd 656E6400 		.ascii	"end\000"
 3743 0be1 01       		.byte	0x1
 3744 0be2 3101     		.2byte	0x131
 3745 0be4 AC000000 		.4byte	0xac
 3746 0be8 DF0C0000 		.4byte	.LLST39
 3747 0bec 18       		.uleb128 0x18
 3748 0bed 17000000 		.4byte	.LASF84
 3749 0bf1 01       		.byte	0x1
 3750 0bf2 3201     		.2byte	0x132
 3751 0bf4 C0010000 		.4byte	0x1c0
 3752 0bf8 02       		.uleb128 0x2
 3753 0bf9 91       		.byte	0x91
 3754 0bfa 54       		.sleb128 -44
 3755 0bfb 18       		.uleb128 0x18
 3756 0bfc 76050000 		.4byte	.LASF85
 3757 0c00 01       		.byte	0x1
 3758 0c01 3201     		.2byte	0x132
 3759 0c03 C0010000 		.4byte	0x1c0
 3760 0c07 02       		.uleb128 0x2
 3761 0c08 91       		.byte	0x91
 3762 0c09 48       		.sleb128 -56
 3763 0c0a 18       		.uleb128 0x18
 3764 0c0b 67030000 		.4byte	.LASF53
 3765 0c0f 01       		.byte	0x1
 3766 0c10 3201     		.2byte	0x132
 3767 0c12 C0010000 		.4byte	0x1c0
 3768 0c16 03       		.uleb128 0x3
 3769 0c17 91       		.byte	0x91
 3770 0c18 BC7F     		.sleb128 -68
 3771 0c1a 1D       		.uleb128 0x1d
 3772 0c1b 63726C00 		.ascii	"crl\000"
 3773 0c1f 01       		.byte	0x1
 3774 0c20 3301     		.2byte	0x133
 3775 0c22 320A0000 		.4byte	0xa32
 3776 0c26 360D0000 		.4byte	.LLST40
 3777 0c2a 11       		.uleb128 0x11
 3778 0c2b 24000000 		.4byte	.LVL219
 3779 0c2f E6110000 		.4byte	0x11e6
 3780 0c33 480C0000 		.4byte	0xc48
 3781 0c37 12       		.uleb128 0x12
 3782 0c38 01       		.uleb128 0x1
 3783 0c39 50       		.byte	0x50
 3784 0c3a 02       		.uleb128 0x2
 3785 0c3b 91       		.byte	0x91
 3786 0c3c 54       		.sleb128 -44
 3787 0c3d 12       		.uleb128 0x12
 3788 0c3e 01       		.uleb128 0x1
 3789 0c3f 51       		.byte	0x51
 3790 0c40 01       		.uleb128 0x1
 3791 0c41 30       		.byte	0x30
ARM GAS  C:\Users\Phuong\AppData\Local\Temp\ccqvrWt4.s 			page 85


 3792 0c42 12       		.uleb128 0x12
 3793 0c43 01       		.uleb128 0x1
 3794 0c44 52       		.byte	0x52
 3795 0c45 01       		.uleb128 0x1
 3796 0c46 3C       		.byte	0x3c
 3797 0c47 00       		.byte	0
 3798 0c48 11       		.uleb128 0x11
 3799 0c49 2E000000 		.4byte	.LVL220
 3800 0c4d E6110000 		.4byte	0x11e6
 3801 0c51 660C0000 		.4byte	0xc66
 3802 0c55 12       		.uleb128 0x12
 3803 0c56 01       		.uleb128 0x1
 3804 0c57 50       		.byte	0x50
 3805 0c58 02       		.uleb128 0x2
 3806 0c59 91       		.byte	0x91
 3807 0c5a 48       		.sleb128 -56
 3808 0c5b 12       		.uleb128 0x12
 3809 0c5c 01       		.uleb128 0x1
 3810 0c5d 51       		.byte	0x51
 3811 0c5e 01       		.uleb128 0x1
 3812 0c5f 30       		.byte	0x30
 3813 0c60 12       		.uleb128 0x12
 3814 0c61 01       		.uleb128 0x1
 3815 0c62 52       		.byte	0x52
 3816 0c63 01       		.uleb128 0x1
 3817 0c64 3C       		.byte	0x3c
 3818 0c65 00       		.byte	0
 3819 0c66 11       		.uleb128 0x11
 3820 0c67 38000000 		.4byte	.LVL221
 3821 0c6b E6110000 		.4byte	0x11e6
 3822 0c6f 850C0000 		.4byte	0xc85
 3823 0c73 12       		.uleb128 0x12
 3824 0c74 01       		.uleb128 0x1
 3825 0c75 50       		.byte	0x50
 3826 0c76 03       		.uleb128 0x3
 3827 0c77 91       		.byte	0x91
 3828 0c78 BC7F     		.sleb128 -68
 3829 0c7a 12       		.uleb128 0x12
 3830 0c7b 01       		.uleb128 0x1
 3831 0c7c 51       		.byte	0x51
 3832 0c7d 01       		.uleb128 0x1
 3833 0c7e 30       		.byte	0x30
 3834 0c7f 12       		.uleb128 0x12
 3835 0c80 01       		.uleb128 0x1
 3836 0c81 52       		.byte	0x52
 3837 0c82 01       		.uleb128 0x1
 3838 0c83 3C       		.byte	0x3c
 3839 0c84 00       		.byte	0
 3840 0c85 11       		.uleb128 0x11
 3841 0c86 5E000000 		.4byte	.LVL224
 3842 0c8a 97110000 		.4byte	0x1197
 3843 0c8e 9E0C0000 		.4byte	0xc9e
 3844 0c92 12       		.uleb128 0x12
 3845 0c93 01       		.uleb128 0x1
 3846 0c94 50       		.byte	0x50
 3847 0c95 01       		.uleb128 0x1
 3848 0c96 31       		.byte	0x31
ARM GAS  C:\Users\Phuong\AppData\Local\Temp\ccqvrWt4.s 			page 86


 3849 0c97 12       		.uleb128 0x12
 3850 0c98 01       		.uleb128 0x1
 3851 0c99 51       		.byte	0x51
 3852 0c9a 02       		.uleb128 0x2
 3853 0c9b 08       		.byte	0x8
 3854 0c9c F4       		.byte	0xf4
 3855 0c9d 00       		.byte	0
 3856 0c9e 11       		.uleb128 0x11
 3857 0c9f 6C000000 		.4byte	.LVL225
 3858 0ca3 380A0000 		.4byte	0xa38
 3859 0ca7 B20C0000 		.4byte	0xcb2
 3860 0cab 12       		.uleb128 0x12
 3861 0cac 01       		.uleb128 0x1
 3862 0cad 50       		.byte	0x50
 3863 0cae 02       		.uleb128 0x2
 3864 0caf 74       		.byte	0x74
 3865 0cb0 00       		.sleb128 0
 3866 0cb1 00       		.byte	0
 3867 0cb2 1F       		.uleb128 0x1f
 3868 0cb3 74000000 		.4byte	.LVL228
 3869 0cb7 EF090000 		.4byte	0x9ef
 3870 0cbb 11       		.uleb128 0x11
 3871 0cbc 86000000 		.4byte	.LVL230
 3872 0cc0 97110000 		.4byte	0x1197
 3873 0cc4 D40C0000 		.4byte	0xcd4
 3874 0cc8 12       		.uleb128 0x12
 3875 0cc9 01       		.uleb128 0x1
 3876 0cca 50       		.byte	0x50
 3877 0ccb 01       		.uleb128 0x1
 3878 0ccc 31       		.byte	0x31
 3879 0ccd 12       		.uleb128 0x12
 3880 0cce 01       		.uleb128 0x1
 3881 0ccf 51       		.byte	0x51
 3882 0cd0 02       		.uleb128 0x2
 3883 0cd1 76       		.byte	0x76
 3884 0cd2 00       		.sleb128 0
 3885 0cd3 00       		.byte	0
 3886 0cd4 11       		.uleb128 0x11
 3887 0cd5 96000000 		.4byte	.LVL231
 3888 0cd9 05120000 		.4byte	0x1205
 3889 0cdd EE0C0000 		.4byte	0xcee
 3890 0ce1 12       		.uleb128 0x12
 3891 0ce2 01       		.uleb128 0x1
 3892 0ce3 51       		.byte	0x51
 3893 0ce4 02       		.uleb128 0x2
 3894 0ce5 75       		.byte	0x75
 3895 0ce6 00       		.sleb128 0
 3896 0ce7 12       		.uleb128 0x12
 3897 0ce8 01       		.uleb128 0x1
 3898 0ce9 52       		.byte	0x52
 3899 0cea 02       		.uleb128 0x2
 3900 0ceb 76       		.byte	0x76
 3901 0cec 00       		.sleb128 0
 3902 0ced 00       		.byte	0
 3903 0cee 11       		.uleb128 0x11
 3904 0cef AA000000 		.4byte	.LVL233
 3905 0cf3 69110000 		.4byte	0x1169
ARM GAS  C:\Users\Phuong\AppData\Local\Temp\ccqvrWt4.s 			page 87


 3906 0cf7 140D0000 		.4byte	0xd14
 3907 0cfb 12       		.uleb128 0x12
 3908 0cfc 01       		.uleb128 0x1
 3909 0cfd 50       		.byte	0x50
 3910 0cfe 02       		.uleb128 0x2
 3911 0cff 91       		.byte	0x91
 3912 0d00 60       		.sleb128 -32
 3913 0d01 12       		.uleb128 0x12
 3914 0d02 01       		.uleb128 0x1
 3915 0d03 51       		.byte	0x51
 3916 0d04 02       		.uleb128 0x2
 3917 0d05 76       		.byte	0x76
 3918 0d06 00       		.sleb128 0
 3919 0d07 12       		.uleb128 0x12
 3920 0d08 01       		.uleb128 0x1
 3921 0d09 52       		.byte	0x52
 3922 0d0a 02       		.uleb128 0x2
 3923 0d0b 91       		.byte	0x91
 3924 0d0c 64       		.sleb128 -28
 3925 0d0d 12       		.uleb128 0x12
 3926 0d0e 01       		.uleb128 0x1
 3927 0d0f 53       		.byte	0x53
 3928 0d10 02       		.uleb128 0x2
 3929 0d11 08       		.byte	0x8
 3930 0d12 30       		.byte	0x30
 3931 0d13 00       		.byte	0
 3932 0d14 11       		.uleb128 0x11
 3933 0d15 B4000000 		.4byte	.LVL235
 3934 0d19 380A0000 		.4byte	0xa38
 3935 0d1d 280D0000 		.4byte	0xd28
 3936 0d21 12       		.uleb128 0x12
 3937 0d22 01       		.uleb128 0x1
 3938 0d23 50       		.byte	0x50
 3939 0d24 02       		.uleb128 0x2
 3940 0d25 74       		.byte	0x74
 3941 0d26 00       		.sleb128 0
 3942 0d27 00       		.byte	0
 3943 0d28 11       		.uleb128 0x11
 3944 0d29 C8000000 		.4byte	.LVL239
 3945 0d2d 380A0000 		.4byte	0xa38
 3946 0d31 3C0D0000 		.4byte	0xd3c
 3947 0d35 12       		.uleb128 0x12
 3948 0d36 01       		.uleb128 0x1
 3949 0d37 50       		.byte	0x50
 3950 0d38 02       		.uleb128 0x2
 3951 0d39 74       		.byte	0x74
 3952 0d3a 00       		.sleb128 0
 3953 0d3b 00       		.byte	0
 3954 0d3c 11       		.uleb128 0x11
 3955 0d3d DA000000 		.4byte	.LVL243
 3956 0d41 69110000 		.4byte	0x1169
 3957 0d45 620D0000 		.4byte	0xd62
 3958 0d49 12       		.uleb128 0x12
 3959 0d4a 01       		.uleb128 0x1
 3960 0d4b 50       		.byte	0x50
 3961 0d4c 02       		.uleb128 0x2
 3962 0d4d 91       		.byte	0x91
ARM GAS  C:\Users\Phuong\AppData\Local\Temp\ccqvrWt4.s 			page 88


 3963 0d4e 60       		.sleb128 -32
 3964 0d4f 12       		.uleb128 0x12
 3965 0d50 01       		.uleb128 0x1
 3966 0d51 51       		.byte	0x51
 3967 0d52 02       		.uleb128 0x2
 3968 0d53 76       		.byte	0x76
 3969 0d54 00       		.sleb128 0
 3970 0d55 12       		.uleb128 0x12
 3971 0d56 01       		.uleb128 0x1
 3972 0d57 52       		.byte	0x52
 3973 0d58 02       		.uleb128 0x2
 3974 0d59 91       		.byte	0x91
 3975 0d5a 64       		.sleb128 -28
 3976 0d5b 12       		.uleb128 0x12
 3977 0d5c 01       		.uleb128 0x1
 3978 0d5d 53       		.byte	0x53
 3979 0d5e 02       		.uleb128 0x2
 3980 0d5f 08       		.byte	0x8
 3981 0d60 30       		.byte	0x30
 3982 0d61 00       		.byte	0
 3983 0d62 11       		.uleb128 0x11
 3984 0d63 E4000000 		.4byte	.LVL246
 3985 0d67 380A0000 		.4byte	0xa38
 3986 0d6b 760D0000 		.4byte	0xd76
 3987 0d6f 12       		.uleb128 0x12
 3988 0d70 01       		.uleb128 0x1
 3989 0d71 50       		.byte	0x50
 3990 0d72 02       		.uleb128 0x2
 3991 0d73 74       		.byte	0x74
 3992 0d74 00       		.sleb128 0
 3993 0d75 00       		.byte	0
 3994 0d76 11       		.uleb128 0x11
 3995 0d77 08010000 		.4byte	.LVL252
 3996 0d7b 6E040000 		.4byte	0x46e
 3997 0d7f 960D0000 		.4byte	0xd96
 3998 0d83 12       		.uleb128 0x12
 3999 0d84 01       		.uleb128 0x1
 4000 0d85 50       		.byte	0x50
 4001 0d86 02       		.uleb128 0x2
 4002 0d87 91       		.byte	0x91
 4003 0d88 60       		.sleb128 -32
 4004 0d89 12       		.uleb128 0x12
 4005 0d8a 01       		.uleb128 0x1
 4006 0d8b 51       		.byte	0x51
 4007 0d8c 02       		.uleb128 0x2
 4008 0d8d 76       		.byte	0x76
 4009 0d8e 00       		.sleb128 0
 4010 0d8f 12       		.uleb128 0x12
 4011 0d90 01       		.uleb128 0x1
 4012 0d91 52       		.byte	0x52
 4013 0d92 02       		.uleb128 0x2
 4014 0d93 74       		.byte	0x74
 4015 0d94 18       		.sleb128 24
 4016 0d95 00       		.byte	0
 4017 0d96 11       		.uleb128 0x11
 4018 0d97 1C010000 		.4byte	.LVL255
 4019 0d9b 0E120000 		.4byte	0x120e
ARM GAS  C:\Users\Phuong\AppData\Local\Temp\ccqvrWt4.s 			page 89


 4020 0d9f BC0D0000 		.4byte	0xdbc
 4021 0da3 12       		.uleb128 0x12
 4022 0da4 01       		.uleb128 0x1
 4023 0da5 50       		.byte	0x50
 4024 0da6 02       		.uleb128 0x2
 4025 0da7 91       		.byte	0x91
 4026 0da8 60       		.sleb128 -32
 4027 0da9 12       		.uleb128 0x12
 4028 0daa 01       		.uleb128 0x1
 4029 0dab 51       		.byte	0x51
 4030 0dac 02       		.uleb128 0x2
 4031 0dad 76       		.byte	0x76
 4032 0dae 00       		.sleb128 0
 4033 0daf 12       		.uleb128 0x12
 4034 0db0 01       		.uleb128 0x1
 4035 0db1 52       		.byte	0x52
 4036 0db2 02       		.uleb128 0x2
 4037 0db3 77       		.byte	0x77
 4038 0db4 00       		.sleb128 0
 4039 0db5 12       		.uleb128 0x12
 4040 0db6 01       		.uleb128 0x1
 4041 0db7 53       		.byte	0x53
 4042 0db8 02       		.uleb128 0x2
 4043 0db9 91       		.byte	0x91
 4044 0dba 54       		.sleb128 -44
 4045 0dbb 00       		.byte	0
 4046 0dbc 11       		.uleb128 0x11
 4047 0dbd 26010000 		.4byte	.LVL258
 4048 0dc1 380A0000 		.4byte	0xa38
 4049 0dc5 D00D0000 		.4byte	0xdd0
 4050 0dc9 12       		.uleb128 0x12
 4051 0dca 01       		.uleb128 0x1
 4052 0dcb 50       		.byte	0x50
 4053 0dcc 02       		.uleb128 0x2
 4054 0dcd 74       		.byte	0x74
 4055 0dce 00       		.sleb128 0
 4056 0dcf 00       		.byte	0
 4057 0dd0 11       		.uleb128 0x11
 4058 0dd1 34010000 		.4byte	.LVL261
 4059 0dd5 380A0000 		.4byte	0xa38
 4060 0dd9 E40D0000 		.4byte	0xde4
 4061 0ddd 12       		.uleb128 0x12
 4062 0dde 01       		.uleb128 0x1
 4063 0ddf 50       		.byte	0x50
 4064 0de0 02       		.uleb128 0x2
 4065 0de1 74       		.byte	0x74
 4066 0de2 00       		.sleb128 0
 4067 0de3 00       		.byte	0
 4068 0de4 11       		.uleb128 0x11
 4069 0de5 50010000 		.4byte	.LVL265
 4070 0de9 1A120000 		.4byte	0x121a
 4071 0ded 140E0000 		.4byte	0xe14
 4072 0df1 12       		.uleb128 0x12
 4073 0df2 01       		.uleb128 0x1
 4074 0df3 50       		.byte	0x50
 4075 0df4 02       		.uleb128 0x2
 4076 0df5 77       		.byte	0x77
ARM GAS  C:\Users\Phuong\AppData\Local\Temp\ccqvrWt4.s 			page 90


 4077 0df6 00       		.sleb128 0
 4078 0df7 12       		.uleb128 0x12
 4079 0df8 01       		.uleb128 0x1
 4080 0df9 51       		.byte	0x51
 4081 0dfa 02       		.uleb128 0x2
 4082 0dfb 91       		.byte	0x91
 4083 0dfc 54       		.sleb128 -44
 4084 0dfd 12       		.uleb128 0x12
 4085 0dfe 01       		.uleb128 0x1
 4086 0dff 52       		.byte	0x52
 4087 0e00 03       		.uleb128 0x3
 4088 0e01 74       		.byte	0x74
 4089 0e02 E801     		.sleb128 232
 4090 0e04 12       		.uleb128 0x12
 4091 0e05 01       		.uleb128 0x1
 4092 0e06 53       		.byte	0x53
 4093 0e07 03       		.uleb128 0x3
 4094 0e08 74       		.byte	0x74
 4095 0e09 E901     		.sleb128 233
 4096 0e0b 12       		.uleb128 0x12
 4097 0e0c 02       		.uleb128 0x2
 4098 0e0d 7D       		.byte	0x7d
 4099 0e0e 00       		.sleb128 0
 4100 0e0f 03       		.uleb128 0x3
 4101 0e10 74       		.byte	0x74
 4102 0e11 EC01     		.sleb128 236
 4103 0e13 00       		.byte	0
 4104 0e14 11       		.uleb128 0x11
 4105 0e15 5A010000 		.4byte	.LVL267
 4106 0e19 380A0000 		.4byte	0xa38
 4107 0e1d 280E0000 		.4byte	0xe28
 4108 0e21 12       		.uleb128 0x12
 4109 0e22 01       		.uleb128 0x1
 4110 0e23 50       		.byte	0x50
 4111 0e24 02       		.uleb128 0x2
 4112 0e25 74       		.byte	0x74
 4113 0e26 00       		.sleb128 0
 4114 0e27 00       		.byte	0
 4115 0e28 11       		.uleb128 0x11
 4116 0e29 6E010000 		.4byte	.LVL270
 4117 0e2d 69110000 		.4byte	0x1169
 4118 0e31 4E0E0000 		.4byte	0xe4e
 4119 0e35 12       		.uleb128 0x12
 4120 0e36 01       		.uleb128 0x1
 4121 0e37 50       		.byte	0x50
 4122 0e38 02       		.uleb128 0x2
 4123 0e39 91       		.byte	0x91
 4124 0e3a 60       		.sleb128 -32
 4125 0e3b 12       		.uleb128 0x12
 4126 0e3c 01       		.uleb128 0x1
 4127 0e3d 51       		.byte	0x51
 4128 0e3e 02       		.uleb128 0x2
 4129 0e3f 76       		.byte	0x76
 4130 0e40 00       		.sleb128 0
 4131 0e41 12       		.uleb128 0x12
 4132 0e42 01       		.uleb128 0x1
 4133 0e43 52       		.byte	0x52
ARM GAS  C:\Users\Phuong\AppData\Local\Temp\ccqvrWt4.s 			page 91


 4134 0e44 02       		.uleb128 0x2
 4135 0e45 91       		.byte	0x91
 4136 0e46 64       		.sleb128 -28
 4137 0e47 12       		.uleb128 0x12
 4138 0e48 01       		.uleb128 0x1
 4139 0e49 53       		.byte	0x53
 4140 0e4a 02       		.uleb128 0x2
 4141 0e4b 08       		.byte	0x8
 4142 0e4c 30       		.byte	0x30
 4143 0e4d 00       		.byte	0
 4144 0e4e 11       		.uleb128 0x11
 4145 0e4f 78010000 		.4byte	.LVL273
 4146 0e53 380A0000 		.4byte	0xa38
 4147 0e57 620E0000 		.4byte	0xe62
 4148 0e5b 12       		.uleb128 0x12
 4149 0e5c 01       		.uleb128 0x1
 4150 0e5d 50       		.byte	0x50
 4151 0e5e 02       		.uleb128 0x2
 4152 0e5f 74       		.byte	0x74
 4153 0e60 00       		.sleb128 0
 4154 0e61 00       		.byte	0
 4155 0e62 11       		.uleb128 0x11
 4156 0e63 94010000 		.4byte	.LVL277
 4157 0e67 26120000 		.4byte	0x1226
 4158 0e6b 7C0E0000 		.4byte	0xe7c
 4159 0e6f 12       		.uleb128 0x12
 4160 0e70 01       		.uleb128 0x1
 4161 0e71 50       		.byte	0x50
 4162 0e72 02       		.uleb128 0x2
 4163 0e73 91       		.byte	0x91
 4164 0e74 60       		.sleb128 -32
 4165 0e75 12       		.uleb128 0x12
 4166 0e76 01       		.uleb128 0x1
 4167 0e77 52       		.byte	0x52
 4168 0e78 02       		.uleb128 0x2
 4169 0e79 74       		.byte	0x74
 4170 0e7a 34       		.sleb128 52
 4171 0e7b 00       		.byte	0
 4172 0e7c 11       		.uleb128 0x11
 4173 0e7d 9E010000 		.4byte	.LVL280
 4174 0e81 380A0000 		.4byte	0xa38
 4175 0e85 900E0000 		.4byte	0xe90
 4176 0e89 12       		.uleb128 0x12
 4177 0e8a 01       		.uleb128 0x1
 4178 0e8b 50       		.byte	0x50
 4179 0e8c 02       		.uleb128 0x2
 4180 0e8d 74       		.byte	0x74
 4181 0e8e 00       		.sleb128 0
 4182 0e8f 00       		.byte	0
 4183 0e90 11       		.uleb128 0x11
 4184 0e91 B4010000 		.4byte	.LVL283
 4185 0e95 8B110000 		.4byte	0x118b
 4186 0e99 B10E0000 		.4byte	0xeb1
 4187 0e9d 12       		.uleb128 0x12
 4188 0e9e 01       		.uleb128 0x1
 4189 0e9f 50       		.byte	0x50
 4190 0ea0 02       		.uleb128 0x2
ARM GAS  C:\Users\Phuong\AppData\Local\Temp\ccqvrWt4.s 			page 92


 4191 0ea1 91       		.byte	0x91
 4192 0ea2 60       		.sleb128 -32
 4193 0ea3 12       		.uleb128 0x12
 4194 0ea4 01       		.uleb128 0x1
 4195 0ea5 51       		.byte	0x51
 4196 0ea6 02       		.uleb128 0x2
 4197 0ea7 76       		.byte	0x76
 4198 0ea8 00       		.sleb128 0
 4199 0ea9 12       		.uleb128 0x12
 4200 0eaa 01       		.uleb128 0x1
 4201 0eab 52       		.byte	0x52
 4202 0eac 03       		.uleb128 0x3
 4203 0ead 74       		.byte	0x74
 4204 0eae D400     		.sleb128 84
 4205 0eb0 00       		.byte	0
 4206 0eb1 11       		.uleb128 0x11
 4207 0eb2 BE010000 		.4byte	.LVL286
 4208 0eb6 380A0000 		.4byte	0xa38
 4209 0eba C50E0000 		.4byte	0xec5
 4210 0ebe 12       		.uleb128 0x12
 4211 0ebf 01       		.uleb128 0x1
 4212 0ec0 50       		.byte	0x50
 4213 0ec1 02       		.uleb128 0x2
 4214 0ec2 74       		.byte	0x74
 4215 0ec3 00       		.sleb128 0
 4216 0ec4 00       		.byte	0
 4217 0ec5 11       		.uleb128 0x11
 4218 0ec6 CC010000 		.4byte	.LVL289
 4219 0eca 8B110000 		.4byte	0x118b
 4220 0ece E60E0000 		.4byte	0xee6
 4221 0ed2 12       		.uleb128 0x12
 4222 0ed3 01       		.uleb128 0x1
 4223 0ed4 50       		.byte	0x50
 4224 0ed5 02       		.uleb128 0x2
 4225 0ed6 91       		.byte	0x91
 4226 0ed7 60       		.sleb128 -32
 4227 0ed8 12       		.uleb128 0x12
 4228 0ed9 01       		.uleb128 0x1
 4229 0eda 51       		.byte	0x51
 4230 0edb 02       		.uleb128 0x2
 4231 0edc 76       		.byte	0x76
 4232 0edd 00       		.sleb128 0
 4233 0ede 12       		.uleb128 0x12
 4234 0edf 01       		.uleb128 0x1
 4235 0ee0 52       		.byte	0x52
 4236 0ee1 03       		.uleb128 0x3
 4237 0ee2 74       		.byte	0x74
 4238 0ee3 EC00     		.sleb128 108
 4239 0ee5 00       		.byte	0
 4240 0ee6 11       		.uleb128 0x11
 4241 0ee7 E2010000 		.4byte	.LVL292
 4242 0eeb 380A0000 		.4byte	0xa38
 4243 0eef FA0E0000 		.4byte	0xefa
 4244 0ef3 12       		.uleb128 0x12
 4245 0ef4 01       		.uleb128 0x1
 4246 0ef5 50       		.byte	0x50
 4247 0ef6 02       		.uleb128 0x2
ARM GAS  C:\Users\Phuong\AppData\Local\Temp\ccqvrWt4.s 			page 93


 4248 0ef7 74       		.byte	0x74
 4249 0ef8 00       		.sleb128 0
 4250 0ef9 00       		.byte	0
 4251 0efa 11       		.uleb128 0x11
 4252 0efb F0010000 		.4byte	.LVL295
 4253 0eff E6040000 		.4byte	0x4e6
 4254 0f03 1B0F0000 		.4byte	0xf1b
 4255 0f07 12       		.uleb128 0x12
 4256 0f08 01       		.uleb128 0x1
 4257 0f09 50       		.byte	0x50
 4258 0f0a 02       		.uleb128 0x2
 4259 0f0b 91       		.byte	0x91
 4260 0f0c 60       		.sleb128 -32
 4261 0f0d 12       		.uleb128 0x12
 4262 0f0e 01       		.uleb128 0x1
 4263 0f0f 51       		.byte	0x51
 4264 0f10 02       		.uleb128 0x2
 4265 0f11 76       		.byte	0x76
 4266 0f12 00       		.sleb128 0
 4267 0f13 12       		.uleb128 0x12
 4268 0f14 01       		.uleb128 0x1
 4269 0f15 52       		.byte	0x52
 4270 0f16 03       		.uleb128 0x3
 4271 0f17 74       		.byte	0x74
 4272 0f18 8401     		.sleb128 132
 4273 0f1a 00       		.byte	0
 4274 0f1b 11       		.uleb128 0x11
 4275 0f1c FA010000 		.4byte	.LVL298
 4276 0f20 380A0000 		.4byte	0xa38
 4277 0f24 2F0F0000 		.4byte	0xf2f
 4278 0f28 12       		.uleb128 0x12
 4279 0f29 01       		.uleb128 0x1
 4280 0f2a 50       		.byte	0x50
 4281 0f2b 02       		.uleb128 0x2
 4282 0f2c 74       		.byte	0x74
 4283 0f2d 00       		.sleb128 0
 4284 0f2e 00       		.byte	0
 4285 0f2f 11       		.uleb128 0x11
 4286 0f30 0E020000 		.4byte	.LVL301
 4287 0f34 43060000 		.4byte	0x643
 4288 0f38 500F0000 		.4byte	0xf50
 4289 0f3c 12       		.uleb128 0x12
 4290 0f3d 01       		.uleb128 0x1
 4291 0f3e 50       		.byte	0x50
 4292 0f3f 02       		.uleb128 0x2
 4293 0f40 91       		.byte	0x91
 4294 0f41 60       		.sleb128 -32
 4295 0f42 12       		.uleb128 0x12
 4296 0f43 01       		.uleb128 0x1
 4297 0f44 51       		.byte	0x51
 4298 0f45 02       		.uleb128 0x2
 4299 0f46 76       		.byte	0x76
 4300 0f47 00       		.sleb128 0
 4301 0f48 12       		.uleb128 0x12
 4302 0f49 01       		.uleb128 0x1
 4303 0f4a 52       		.byte	0x52
 4304 0f4b 03       		.uleb128 0x3
ARM GAS  C:\Users\Phuong\AppData\Local\Temp\ccqvrWt4.s 			page 94


 4305 0f4c 74       		.byte	0x74
 4306 0f4d C401     		.sleb128 196
 4307 0f4f 00       		.byte	0
 4308 0f50 11       		.uleb128 0x11
 4309 0f51 18020000 		.4byte	.LVL304
 4310 0f55 380A0000 		.4byte	0xa38
 4311 0f59 640F0000 		.4byte	0xf64
 4312 0f5d 12       		.uleb128 0x12
 4313 0f5e 01       		.uleb128 0x1
 4314 0f5f 50       		.byte	0x50
 4315 0f60 02       		.uleb128 0x2
 4316 0f61 74       		.byte	0x74
 4317 0f62 00       		.sleb128 0
 4318 0f63 00       		.byte	0
 4319 0f64 11       		.uleb128 0x11
 4320 0f65 26020000 		.4byte	.LVL307
 4321 0f69 380A0000 		.4byte	0xa38
 4322 0f6d 780F0000 		.4byte	0xf78
 4323 0f71 12       		.uleb128 0x12
 4324 0f72 01       		.uleb128 0x1
 4325 0f73 50       		.byte	0x50
 4326 0f74 02       		.uleb128 0x2
 4327 0f75 74       		.byte	0x74
 4328 0f76 00       		.sleb128 0
 4329 0f77 00       		.byte	0
 4330 0f78 11       		.uleb128 0x11
 4331 0f79 40020000 		.4byte	.LVL313
 4332 0f7d 0E120000 		.4byte	0x120e
 4333 0f81 9F0F0000 		.4byte	0xf9f
 4334 0f85 12       		.uleb128 0x12
 4335 0f86 01       		.uleb128 0x1
 4336 0f87 50       		.byte	0x50
 4337 0f88 02       		.uleb128 0x2
 4338 0f89 91       		.byte	0x91
 4339 0f8a 60       		.sleb128 -32
 4340 0f8b 12       		.uleb128 0x12
 4341 0f8c 01       		.uleb128 0x1
 4342 0f8d 51       		.byte	0x51
 4343 0f8e 02       		.uleb128 0x2
 4344 0f8f 76       		.byte	0x76
 4345 0f90 00       		.sleb128 0
 4346 0f91 12       		.uleb128 0x12
 4347 0f92 01       		.uleb128 0x1
 4348 0f93 52       		.byte	0x52
 4349 0f94 03       		.uleb128 0x3
 4350 0f95 91       		.byte	0x91
 4351 0f96 BC7F     		.sleb128 -68
 4352 0f98 12       		.uleb128 0x12
 4353 0f99 01       		.uleb128 0x1
 4354 0f9a 53       		.byte	0x53
 4355 0f9b 02       		.uleb128 0x2
 4356 0f9c 91       		.byte	0x91
 4357 0f9d 48       		.sleb128 -56
 4358 0f9e 00       		.byte	0
 4359 0f9f 11       		.uleb128 0x11
 4360 0fa0 4A020000 		.4byte	.LVL316
 4361 0fa4 380A0000 		.4byte	0xa38
ARM GAS  C:\Users\Phuong\AppData\Local\Temp\ccqvrWt4.s 			page 95


 4362 0fa8 B30F0000 		.4byte	0xfb3
 4363 0fac 12       		.uleb128 0x12
 4364 0fad 01       		.uleb128 0x1
 4365 0fae 50       		.byte	0x50
 4366 0faf 02       		.uleb128 0x2
 4367 0fb0 74       		.byte	0x74
 4368 0fb1 00       		.sleb128 0
 4369 0fb2 00       		.byte	0
 4370 0fb3 1F       		.uleb128 0x1f
 4371 0fb4 5C020000 		.4byte	.LVL319
 4372 0fb8 32120000 		.4byte	0x1232
 4373 0fbc 1F       		.uleb128 0x1f
 4374 0fbd 74020000 		.4byte	.LVL321
 4375 0fc1 32120000 		.4byte	0x1232
 4376 0fc5 11       		.uleb128 0x11
 4377 0fc6 7E020000 		.4byte	.LVL322
 4378 0fca 380A0000 		.4byte	0xa38
 4379 0fce D90F0000 		.4byte	0xfd9
 4380 0fd2 12       		.uleb128 0x12
 4381 0fd3 01       		.uleb128 0x1
 4382 0fd4 50       		.byte	0x50
 4383 0fd5 02       		.uleb128 0x2
 4384 0fd6 74       		.byte	0x74
 4385 0fd7 00       		.sleb128 0
 4386 0fd8 00       		.byte	0
 4387 0fd9 11       		.uleb128 0x11
 4388 0fda 8E020000 		.4byte	.LVL323
 4389 0fde 3D120000 		.4byte	0x123d
 4390 0fe2 FA0F0000 		.4byte	0xffa
 4391 0fe6 12       		.uleb128 0x12
 4392 0fe7 01       		.uleb128 0x1
 4393 0fe8 50       		.byte	0x50
 4394 0fe9 02       		.uleb128 0x2
 4395 0fea 91       		.byte	0x91
 4396 0feb 60       		.sleb128 -32
 4397 0fec 12       		.uleb128 0x12
 4398 0fed 01       		.uleb128 0x1
 4399 0fee 51       		.byte	0x51
 4400 0fef 02       		.uleb128 0x2
 4401 0ff0 76       		.byte	0x76
 4402 0ff1 00       		.sleb128 0
 4403 0ff2 12       		.uleb128 0x12
 4404 0ff3 01       		.uleb128 0x1
 4405 0ff4 52       		.byte	0x52
 4406 0ff5 03       		.uleb128 0x3
 4407 0ff6 74       		.byte	0x74
 4408 0ff7 DC01     		.sleb128 220
 4409 0ff9 00       		.byte	0
 4410 0ffa 11       		.uleb128 0x11
 4411 0ffb 98020000 		.4byte	.LVL326
 4412 0fff 380A0000 		.4byte	0xa38
 4413 1003 0E100000 		.4byte	0x100e
 4414 1007 12       		.uleb128 0x12
 4415 1008 01       		.uleb128 0x1
 4416 1009 50       		.byte	0x50
 4417 100a 02       		.uleb128 0x2
 4418 100b 74       		.byte	0x74
ARM GAS  C:\Users\Phuong\AppData\Local\Temp\ccqvrWt4.s 			page 96


 4419 100c 00       		.sleb128 0
 4420 100d 00       		.byte	0
 4421 100e 13       		.uleb128 0x13
 4422 100f A8020000 		.4byte	.LVL329
 4423 1013 380A0000 		.4byte	0xa38
 4424 1017 12       		.uleb128 0x12
 4425 1018 01       		.uleb128 0x1
 4426 1019 50       		.byte	0x50
 4427 101a 02       		.uleb128 0x2
 4428 101b 74       		.byte	0x74
 4429 101c 00       		.sleb128 0
 4430 101d 00       		.byte	0
 4431 101e 00       		.byte	0
 4432 101f 1A       		.uleb128 0x1a
 4433 1020 00000000 		.4byte	.LASF86
 4434 1024 01       		.byte	0x1
 4435 1025 1B02     		.2byte	0x21b
 4436 1027 5D000000 		.4byte	0x5d
 4437 102b 00000000 		.4byte	.LFB16
 4438 102f B8000000 		.4byte	.LFE16-.LFB16
 4439 1033 01       		.uleb128 0x1
 4440 1034 9C       		.byte	0x9c
 4441 1035 69110000 		.4byte	0x1169
 4442 1039 1C       		.uleb128 0x1c
 4443 103a 44070000 		.4byte	.LASF83
 4444 103e 01       		.byte	0x1
 4445 103f 1B02     		.2byte	0x21b
 4446 1041 320A0000 		.4byte	0xa32
 4447 1045 6A0D0000 		.4byte	.LLST41
 4448 1049 1B       		.uleb128 0x1b
 4449 104a 62756600 		.ascii	"buf\000"
 4450 104e 01       		.byte	0x1
 4451 104f 1B02     		.2byte	0x21b
 4452 1051 B5010000 		.4byte	0x1b5
 4453 1055 B70D0000 		.4byte	.LLST42
 4454 1059 1C       		.uleb128 0x1c
 4455 105a 55040000 		.4byte	.LASF59
 4456 105e 01       		.byte	0x1
 4457 105f 1B02     		.2byte	0x21b
 4458 1061 6B000000 		.4byte	0x6b
 4459 1065 EB0D0000 		.4byte	.LLST43
 4460 1069 1D       		.uleb128 0x1d
 4461 106a 72657400 		.ascii	"ret\000"
 4462 106e 01       		.byte	0x1
 4463 106f 1E02     		.2byte	0x21e
 4464 1071 5D000000 		.4byte	0x5d
 4465 1075 1F0E0000 		.4byte	.LLST44
 4466 1079 18       		.uleb128 0x18
 4467 107a 05050000 		.4byte	.LASF87
 4468 107e 01       		.byte	0x1
 4469 107f 1F02     		.2byte	0x21f
 4470 1081 6B000000 		.4byte	0x6b
 4471 1085 02       		.uleb128 0x2
 4472 1086 91       		.byte	0x91
 4473 1087 64       		.sleb128 -28
 4474 1088 20       		.uleb128 0x20
 4475 1089 70656D00 		.ascii	"pem\000"
ARM GAS  C:\Users\Phuong\AppData\Local\Temp\ccqvrWt4.s 			page 97


 4476 108d 01       		.byte	0x1
 4477 108e 2002     		.2byte	0x220
 4478 1090 AC030000 		.4byte	0x3ac
 4479 1094 02       		.uleb128 0x2
 4480 1095 91       		.byte	0x91
 4481 1096 58       		.sleb128 -40
 4482 1097 19       		.uleb128 0x19
 4483 1098 5C070000 		.4byte	.LASF88
 4484 109c 01       		.byte	0x1
 4485 109d 2102     		.2byte	0x221
 4486 109f 5D000000 		.4byte	0x5d
 4487 10a3 740E0000 		.4byte	.LLST45
 4488 10a7 11       		.uleb128 0x11
 4489 10a8 1A000000 		.4byte	.LVL339
 4490 10ac 49120000 		.4byte	0x1249
 4491 10b0 BB100000 		.4byte	0x10bb
 4492 10b4 12       		.uleb128 0x12
 4493 10b5 01       		.uleb128 0x1
 4494 10b6 50       		.byte	0x50
 4495 10b7 02       		.uleb128 0x2
 4496 10b8 91       		.byte	0x91
 4497 10b9 58       		.sleb128 -40
 4498 10ba 00       		.byte	0
 4499 10bb 11       		.uleb128 0x11
 4500 10bc 3E000000 		.4byte	.LVL340
 4501 10c0 54120000 		.4byte	0x1254
 4502 10c4 FA100000 		.4byte	0x10fa
 4503 10c8 12       		.uleb128 0x12
 4504 10c9 01       		.uleb128 0x1
 4505 10ca 50       		.byte	0x50
 4506 10cb 02       		.uleb128 0x2
 4507 10cc 91       		.byte	0x91
 4508 10cd 58       		.sleb128 -40
 4509 10ce 12       		.uleb128 0x12
 4510 10cf 01       		.uleb128 0x1
 4511 10d0 51       		.byte	0x51
 4512 10d1 05       		.uleb128 0x5
 4513 10d2 03       		.byte	0x3
 4514 10d3 24010000 		.4byte	.LC20
 4515 10d7 12       		.uleb128 0x12
 4516 10d8 01       		.uleb128 0x1
 4517 10d9 52       		.byte	0x52
 4518 10da 05       		.uleb128 0x5
 4519 10db 03       		.byte	0x3
 4520 10dc 0C010000 		.4byte	.LC18
 4521 10e0 12       		.uleb128 0x12
 4522 10e1 01       		.uleb128 0x1
 4523 10e2 53       		.byte	0x53
 4524 10e3 02       		.uleb128 0x2
 4525 10e4 76       		.byte	0x76
 4526 10e5 00       		.sleb128 0
 4527 10e6 12       		.uleb128 0x12
 4528 10e7 02       		.uleb128 0x2
 4529 10e8 7D       		.byte	0x7d
 4530 10e9 00       		.sleb128 0
 4531 10ea 01       		.uleb128 0x1
 4532 10eb 30       		.byte	0x30
ARM GAS  C:\Users\Phuong\AppData\Local\Temp\ccqvrWt4.s 			page 98


 4533 10ec 12       		.uleb128 0x12
 4534 10ed 02       		.uleb128 0x2
 4535 10ee 7D       		.byte	0x7d
 4536 10ef 04       		.sleb128 4
 4537 10f0 01       		.uleb128 0x1
 4538 10f1 30       		.byte	0x30
 4539 10f2 12       		.uleb128 0x12
 4540 10f3 02       		.uleb128 0x2
 4541 10f4 7D       		.byte	0x7d
 4542 10f5 08       		.sleb128 8
 4543 10f6 02       		.uleb128 0x2
 4544 10f7 91       		.byte	0x91
 4545 10f8 64       		.sleb128 -28
 4546 10f9 00       		.byte	0
 4547 10fa 11       		.uleb128 0x11
 4548 10fb 5C000000 		.4byte	.LVL347
 4549 10ff 660B0000 		.4byte	0xb66
 4550 1103 0F110000 		.4byte	0x110f
 4551 1107 12       		.uleb128 0x12
 4552 1108 01       		.uleb128 0x1
 4553 1109 50       		.byte	0x50
 4554 110a 03       		.uleb128 0x3
 4555 110b 91       		.byte	0x91
 4556 110c 54       		.sleb128 -44
 4557 110d 06       		.byte	0x6
 4558 110e 00       		.byte	0
 4559 110f 11       		.uleb128 0x11
 4560 1110 66000000 		.4byte	.LVL350
 4561 1114 5F120000 		.4byte	0x125f
 4562 1118 23110000 		.4byte	0x1123
 4563 111c 12       		.uleb128 0x12
 4564 111d 01       		.uleb128 0x1
 4565 111e 50       		.byte	0x50
 4566 111f 02       		.uleb128 0x2
 4567 1120 91       		.byte	0x91
 4568 1121 58       		.sleb128 -40
 4569 1122 00       		.byte	0
 4570 1123 11       		.uleb128 0x11
 4571 1124 74000000 		.4byte	.LVL352
 4572 1128 5F120000 		.4byte	0x125f
 4573 112c 37110000 		.4byte	0x1137
 4574 1130 12       		.uleb128 0x12
 4575 1131 01       		.uleb128 0x1
 4576 1132 50       		.byte	0x50
 4577 1133 02       		.uleb128 0x2
 4578 1134 91       		.byte	0x91
 4579 1135 58       		.sleb128 -40
 4580 1136 00       		.byte	0
 4581 1137 11       		.uleb128 0x11
 4582 1138 80000000 		.4byte	.LVL355
 4583 113c 5F120000 		.4byte	0x125f
 4584 1140 4B110000 		.4byte	0x114b
 4585 1144 12       		.uleb128 0x12
 4586 1145 01       		.uleb128 0x1
 4587 1146 50       		.byte	0x50
 4588 1147 02       		.uleb128 0x2
 4589 1148 91       		.byte	0x91
ARM GAS  C:\Users\Phuong\AppData\Local\Temp\ccqvrWt4.s 			page 99


 4590 1149 58       		.sleb128 -40
 4591 114a 00       		.byte	0
 4592 114b 13       		.uleb128 0x13
 4593 114c 96000000 		.4byte	.LVL356
 4594 1150 660B0000 		.4byte	0xb66
 4595 1154 12       		.uleb128 0x12
 4596 1155 01       		.uleb128 0x1
 4597 1156 50       		.byte	0x50
 4598 1157 03       		.uleb128 0x3
 4599 1158 91       		.byte	0x91
 4600 1159 54       		.sleb128 -44
 4601 115a 06       		.byte	0x6
 4602 115b 12       		.uleb128 0x12
 4603 115c 01       		.uleb128 0x1
 4604 115d 51       		.byte	0x51
 4605 115e 02       		.uleb128 0x2
 4606 115f 76       		.byte	0x76
 4607 1160 00       		.sleb128 0
 4608 1161 12       		.uleb128 0x12
 4609 1162 01       		.uleb128 0x1
 4610 1163 52       		.byte	0x52
 4611 1164 02       		.uleb128 0x2
 4612 1165 74       		.byte	0x74
 4613 1166 00       		.sleb128 0
 4614 1167 00       		.byte	0
 4615 1168 00       		.byte	0
 4616 1169 21       		.uleb128 0x21
 4617 116a B1030000 		.4byte	.LASF89
 4618 116e B1030000 		.4byte	.LASF89
 4619 1172 02       		.byte	0x2
 4620 1173 CB       		.byte	0xcb
 4621 1174 21       		.uleb128 0x21
 4622 1175 62060000 		.4byte	.LASF90
 4623 1179 62060000 		.4byte	.LASF90
 4624 117d 02       		.byte	0x2
 4625 117e E7       		.byte	0xe7
 4626 117f 22       		.uleb128 0x22
 4627 1180 5C040000 		.4byte	.LASF91
 4628 1184 5C040000 		.4byte	.LASF91
 4629 1188 06       		.byte	0x6
 4630 1189 2C01     		.2byte	0x12c
 4631 118b 22       		.uleb128 0x22
 4632 118c AD040000 		.4byte	.LASF92
 4633 1190 AD040000 		.4byte	.LASF92
 4634 1194 06       		.byte	0x6
 4635 1195 2A01     		.2byte	0x12a
 4636 1197 21       		.uleb128 0x21
 4637 1198 60010000 		.4byte	.LASF93
 4638 119c 60010000 		.4byte	.LASF93
 4639 11a0 09       		.byte	0x9
 4640 11a1 56       		.byte	0x56
 4641 11a2 21       		.uleb128 0x21
 4642 11a3 24040000 		.4byte	.LASF94
 4643 11a7 24040000 		.4byte	.LASF94
 4644 11ab 02       		.byte	0x2
 4645 11ac D9       		.byte	0xd9
 4646 11ad 22       		.uleb128 0x22
ARM GAS  C:\Users\Phuong\AppData\Local\Temp\ccqvrWt4.s 			page 100


 4647 11ae 9C030000 		.4byte	.LASF95
 4648 11b2 9C030000 		.4byte	.LASF95
 4649 11b6 06       		.byte	0x6
 4650 11b7 2E01     		.2byte	0x12e
 4651 11b9 21       		.uleb128 0x21
 4652 11ba F7040000 		.4byte	.LASF96
 4653 11be F7040000 		.4byte	.LASF96
 4654 11c2 0A       		.byte	0xa
 4655 11c3 FD       		.byte	0xfd
 4656 11c4 21       		.uleb128 0x21
 4657 11c5 77060000 		.4byte	.LASF97
 4658 11c9 77060000 		.4byte	.LASF97
 4659 11cd 06       		.byte	0x6
 4660 11ce E5       		.byte	0xe5
 4661 11cf 21       		.uleb128 0x21
 4662 11d0 98000000 		.4byte	.LASF98
 4663 11d4 98000000 		.4byte	.LASF98
 4664 11d8 06       		.byte	0x6
 4665 11d9 F2       		.byte	0xf2
 4666 11da 22       		.uleb128 0x22
 4667 11db 6E000000 		.4byte	.LASF99
 4668 11df 6E000000 		.4byte	.LASF99
 4669 11e3 06       		.byte	0x6
 4670 11e4 3001     		.2byte	0x130
 4671 11e6 23       		.uleb128 0x23
 4672 11e7 D3040000 		.4byte	.LASF102
 4673 11eb D3040000 		.4byte	.LASF102
 4674 11ef 21       		.uleb128 0x21
 4675 11f0 C6030000 		.4byte	.LASF100
 4676 11f4 C6030000 		.4byte	.LASF100
 4677 11f8 09       		.byte	0x9
 4678 11f9 59       		.byte	0x59
 4679 11fa 21       		.uleb128 0x21
 4680 11fb 78070000 		.4byte	.LASF101
 4681 11ff 78070000 		.4byte	.LASF101
 4682 1203 0B       		.byte	0xb
 4683 1204 42       		.byte	0x42
 4684 1205 23       		.uleb128 0x23
 4685 1206 F0040000 		.4byte	.LASF103
 4686 120a F0040000 		.4byte	.LASF103
 4687 120e 22       		.uleb128 0x22
 4688 120f 63070000 		.4byte	.LASF104
 4689 1213 63070000 		.4byte	.LASF104
 4690 1217 06       		.byte	0x6
 4691 1218 1F01     		.2byte	0x11f
 4692 121a 22       		.uleb128 0x22
 4693 121b 4A050000 		.4byte	.LASF105
 4694 121f 4A050000 		.4byte	.LASF105
 4695 1223 06       		.byte	0x6
 4696 1224 2701     		.2byte	0x127
 4697 1226 22       		.uleb128 0x22
 4698 1227 98060000 		.4byte	.LASF106
 4699 122b 98060000 		.4byte	.LASF106
 4700 122f 06       		.byte	0x6
 4701 1230 1B01     		.2byte	0x11b
 4702 1232 21       		.uleb128 0x21
 4703 1233 93050000 		.4byte	.LASF107
ARM GAS  C:\Users\Phuong\AppData\Local\Temp\ccqvrWt4.s 			page 101


 4704 1237 93050000 		.4byte	.LASF107
 4705 123b 0C       		.byte	0xc
 4706 123c 16       		.byte	0x16
 4707 123d 22       		.uleb128 0x22
 4708 123e D5060000 		.4byte	.LASF108
 4709 1242 D5060000 		.4byte	.LASF108
 4710 1246 06       		.byte	0x6
 4711 1247 2601     		.2byte	0x126
 4712 1249 21       		.uleb128 0x21
 4713 124a 13040000 		.4byte	.LASF109
 4714 124e 13040000 		.4byte	.LASF109
 4715 1252 08       		.byte	0x8
 4716 1253 43       		.byte	0x43
 4717 1254 21       		.uleb128 0x21
 4718 1255 73020000 		.4byte	.LASF110
 4719 1259 73020000 		.4byte	.LASF110
 4720 125d 08       		.byte	0x8
 4721 125e 5B       		.byte	0x5b
 4722 125f 21       		.uleb128 0x21
 4723 1260 91070000 		.4byte	.LASF111
 4724 1264 91070000 		.4byte	.LASF111
 4725 1268 08       		.byte	0x8
 4726 1269 65       		.byte	0x65
 4727 126a 00       		.byte	0
 4728              		.section	.debug_abbrev,"",%progbits
 4729              	.Ldebug_abbrev0:
 4730 0000 01       		.uleb128 0x1
 4731 0001 11       		.uleb128 0x11
 4732 0002 01       		.byte	0x1
 4733 0003 25       		.uleb128 0x25
 4734 0004 0E       		.uleb128 0xe
 4735 0005 13       		.uleb128 0x13
 4736 0006 0B       		.uleb128 0xb
 4737 0007 03       		.uleb128 0x3
 4738 0008 0E       		.uleb128 0xe
 4739 0009 1B       		.uleb128 0x1b
 4740 000a 0E       		.uleb128 0xe
 4741 000b 55       		.uleb128 0x55
 4742 000c 17       		.uleb128 0x17
 4743 000d 11       		.uleb128 0x11
 4744 000e 01       		.uleb128 0x1
 4745 000f 10       		.uleb128 0x10
 4746 0010 17       		.uleb128 0x17
 4747 0011 00       		.byte	0
 4748 0012 00       		.byte	0
 4749 0013 02       		.uleb128 0x2
 4750 0014 24       		.uleb128 0x24
 4751 0015 00       		.byte	0
 4752 0016 0B       		.uleb128 0xb
 4753 0017 0B       		.uleb128 0xb
 4754 0018 3E       		.uleb128 0x3e
 4755 0019 0B       		.uleb128 0xb
 4756 001a 03       		.uleb128 0x3
 4757 001b 0E       		.uleb128 0xe
 4758 001c 00       		.byte	0
 4759 001d 00       		.byte	0
 4760 001e 03       		.uleb128 0x3
ARM GAS  C:\Users\Phuong\AppData\Local\Temp\ccqvrWt4.s 			page 102


 4761 001f 24       		.uleb128 0x24
 4762 0020 00       		.byte	0
 4763 0021 0B       		.uleb128 0xb
 4764 0022 0B       		.uleb128 0xb
 4765 0023 3E       		.uleb128 0x3e
 4766 0024 0B       		.uleb128 0xb
 4767 0025 03       		.uleb128 0x3
 4768 0026 08       		.uleb128 0x8
 4769 0027 00       		.byte	0
 4770 0028 00       		.byte	0
 4771 0029 04       		.uleb128 0x4
 4772 002a 16       		.uleb128 0x16
 4773 002b 00       		.byte	0
 4774 002c 03       		.uleb128 0x3
 4775 002d 0E       		.uleb128 0xe
 4776 002e 3A       		.uleb128 0x3a
 4777 002f 0B       		.uleb128 0xb
 4778 0030 3B       		.uleb128 0x3b
 4779 0031 0B       		.uleb128 0xb
 4780 0032 49       		.uleb128 0x49
 4781 0033 13       		.uleb128 0x13
 4782 0034 00       		.byte	0
 4783 0035 00       		.byte	0
 4784 0036 05       		.uleb128 0x5
 4785 0037 13       		.uleb128 0x13
 4786 0038 01       		.byte	0x1
 4787 0039 03       		.uleb128 0x3
 4788 003a 0E       		.uleb128 0xe
 4789 003b 0B       		.uleb128 0xb
 4790 003c 0B       		.uleb128 0xb
 4791 003d 3A       		.uleb128 0x3a
 4792 003e 0B       		.uleb128 0xb
 4793 003f 3B       		.uleb128 0x3b
 4794 0040 0B       		.uleb128 0xb
 4795 0041 01       		.uleb128 0x1
 4796 0042 13       		.uleb128 0x13
 4797 0043 00       		.byte	0
 4798 0044 00       		.byte	0
 4799 0045 06       		.uleb128 0x6
 4800 0046 0D       		.uleb128 0xd
 4801 0047 00       		.byte	0
 4802 0048 03       		.uleb128 0x3
 4803 0049 08       		.uleb128 0x8
 4804 004a 3A       		.uleb128 0x3a
 4805 004b 0B       		.uleb128 0xb
 4806 004c 3B       		.uleb128 0x3b
 4807 004d 0B       		.uleb128 0xb
 4808 004e 49       		.uleb128 0x49
 4809 004f 13       		.uleb128 0x13
 4810 0050 38       		.uleb128 0x38
 4811 0051 0B       		.uleb128 0xb
 4812 0052 00       		.byte	0
 4813 0053 00       		.byte	0
 4814 0054 07       		.uleb128 0x7
 4815 0055 0F       		.uleb128 0xf
 4816 0056 00       		.byte	0
 4817 0057 0B       		.uleb128 0xb
ARM GAS  C:\Users\Phuong\AppData\Local\Temp\ccqvrWt4.s 			page 103


 4818 0058 0B       		.uleb128 0xb
 4819 0059 49       		.uleb128 0x49
 4820 005a 13       		.uleb128 0x13
 4821 005b 00       		.byte	0
 4822 005c 00       		.byte	0
 4823 005d 08       		.uleb128 0x8
 4824 005e 0D       		.uleb128 0xd
 4825 005f 00       		.byte	0
 4826 0060 03       		.uleb128 0x3
 4827 0061 0E       		.uleb128 0xe
 4828 0062 3A       		.uleb128 0x3a
 4829 0063 0B       		.uleb128 0xb
 4830 0064 3B       		.uleb128 0x3b
 4831 0065 0B       		.uleb128 0xb
 4832 0066 49       		.uleb128 0x49
 4833 0067 13       		.uleb128 0x13
 4834 0068 38       		.uleb128 0x38
 4835 0069 0B       		.uleb128 0xb
 4836 006a 00       		.byte	0
 4837 006b 00       		.byte	0
 4838 006c 09       		.uleb128 0x9
 4839 006d 04       		.uleb128 0x4
 4840 006e 01       		.byte	0x1
 4841 006f 0B       		.uleb128 0xb
 4842 0070 0B       		.uleb128 0xb
 4843 0071 49       		.uleb128 0x49
 4844 0072 13       		.uleb128 0x13
 4845 0073 3A       		.uleb128 0x3a
 4846 0074 0B       		.uleb128 0xb
 4847 0075 3B       		.uleb128 0x3b
 4848 0076 0B       		.uleb128 0xb
 4849 0077 01       		.uleb128 0x1
 4850 0078 13       		.uleb128 0x13
 4851 0079 00       		.byte	0
 4852 007a 00       		.byte	0
 4853 007b 0A       		.uleb128 0xa
 4854 007c 28       		.uleb128 0x28
 4855 007d 00       		.byte	0
 4856 007e 03       		.uleb128 0x3
 4857 007f 0E       		.uleb128 0xe
 4858 0080 1C       		.uleb128 0x1c
 4859 0081 0B       		.uleb128 0xb
 4860 0082 00       		.byte	0
 4861 0083 00       		.byte	0
 4862 0084 0B       		.uleb128 0xb
 4863 0085 0F       		.uleb128 0xf
 4864 0086 00       		.byte	0
 4865 0087 0B       		.uleb128 0xb
 4866 0088 0B       		.uleb128 0xb
 4867 0089 00       		.byte	0
 4868 008a 00       		.byte	0
 4869 008b 0C       		.uleb128 0xc
 4870 008c 26       		.uleb128 0x26
 4871 008d 00       		.byte	0
 4872 008e 49       		.uleb128 0x49
 4873 008f 13       		.uleb128 0x13
 4874 0090 00       		.byte	0
ARM GAS  C:\Users\Phuong\AppData\Local\Temp\ccqvrWt4.s 			page 104


 4875 0091 00       		.byte	0
 4876 0092 0D       		.uleb128 0xd
 4877 0093 2E       		.uleb128 0x2e
 4878 0094 01       		.byte	0x1
 4879 0095 03       		.uleb128 0x3
 4880 0096 0E       		.uleb128 0xe
 4881 0097 3A       		.uleb128 0x3a
 4882 0098 0B       		.uleb128 0xb
 4883 0099 3B       		.uleb128 0x3b
 4884 009a 0B       		.uleb128 0xb
 4885 009b 27       		.uleb128 0x27
 4886 009c 19       		.uleb128 0x19
 4887 009d 49       		.uleb128 0x49
 4888 009e 13       		.uleb128 0x13
 4889 009f 11       		.uleb128 0x11
 4890 00a0 01       		.uleb128 0x1
 4891 00a1 12       		.uleb128 0x12
 4892 00a2 06       		.uleb128 0x6
 4893 00a3 40       		.uleb128 0x40
 4894 00a4 18       		.uleb128 0x18
 4895 00a5 9742     		.uleb128 0x2117
 4896 00a7 19       		.uleb128 0x19
 4897 00a8 01       		.uleb128 0x1
 4898 00a9 13       		.uleb128 0x13
 4899 00aa 00       		.byte	0
 4900 00ab 00       		.byte	0
 4901 00ac 0E       		.uleb128 0xe
 4902 00ad 05       		.uleb128 0x5
 4903 00ae 00       		.byte	0
 4904 00af 03       		.uleb128 0x3
 4905 00b0 08       		.uleb128 0x8
 4906 00b1 3A       		.uleb128 0x3a
 4907 00b2 0B       		.uleb128 0xb
 4908 00b3 3B       		.uleb128 0x3b
 4909 00b4 0B       		.uleb128 0xb
 4910 00b5 49       		.uleb128 0x49
 4911 00b6 13       		.uleb128 0x13
 4912 00b7 02       		.uleb128 0x2
 4913 00b8 17       		.uleb128 0x17
 4914 00b9 00       		.byte	0
 4915 00ba 00       		.byte	0
 4916 00bb 0F       		.uleb128 0xf
 4917 00bc 34       		.uleb128 0x34
 4918 00bd 00       		.byte	0
 4919 00be 03       		.uleb128 0x3
 4920 00bf 08       		.uleb128 0x8
 4921 00c0 3A       		.uleb128 0x3a
 4922 00c1 0B       		.uleb128 0xb
 4923 00c2 3B       		.uleb128 0x3b
 4924 00c3 0B       		.uleb128 0xb
 4925 00c4 49       		.uleb128 0x49
 4926 00c5 13       		.uleb128 0x13
 4927 00c6 02       		.uleb128 0x2
 4928 00c7 17       		.uleb128 0x17
 4929 00c8 00       		.byte	0
 4930 00c9 00       		.byte	0
 4931 00ca 10       		.uleb128 0x10
ARM GAS  C:\Users\Phuong\AppData\Local\Temp\ccqvrWt4.s 			page 105


 4932 00cb 34       		.uleb128 0x34
 4933 00cc 00       		.byte	0
 4934 00cd 03       		.uleb128 0x3
 4935 00ce 08       		.uleb128 0x8
 4936 00cf 3A       		.uleb128 0x3a
 4937 00d0 0B       		.uleb128 0xb
 4938 00d1 3B       		.uleb128 0x3b
 4939 00d2 0B       		.uleb128 0xb
 4940 00d3 49       		.uleb128 0x49
 4941 00d4 13       		.uleb128 0x13
 4942 00d5 02       		.uleb128 0x2
 4943 00d6 18       		.uleb128 0x18
 4944 00d7 00       		.byte	0
 4945 00d8 00       		.byte	0
 4946 00d9 11       		.uleb128 0x11
 4947 00da 898201   		.uleb128 0x4109
 4948 00dd 01       		.byte	0x1
 4949 00de 11       		.uleb128 0x11
 4950 00df 01       		.uleb128 0x1
 4951 00e0 31       		.uleb128 0x31
 4952 00e1 13       		.uleb128 0x13
 4953 00e2 01       		.uleb128 0x1
 4954 00e3 13       		.uleb128 0x13
 4955 00e4 00       		.byte	0
 4956 00e5 00       		.byte	0
 4957 00e6 12       		.uleb128 0x12
 4958 00e7 8A8201   		.uleb128 0x410a
 4959 00ea 00       		.byte	0
 4960 00eb 02       		.uleb128 0x2
 4961 00ec 18       		.uleb128 0x18
 4962 00ed 9142     		.uleb128 0x2111
 4963 00ef 18       		.uleb128 0x18
 4964 00f0 00       		.byte	0
 4965 00f1 00       		.byte	0
 4966 00f2 13       		.uleb128 0x13
 4967 00f3 898201   		.uleb128 0x4109
 4968 00f6 01       		.byte	0x1
 4969 00f7 11       		.uleb128 0x11
 4970 00f8 01       		.uleb128 0x1
 4971 00f9 31       		.uleb128 0x31
 4972 00fa 13       		.uleb128 0x13
 4973 00fb 00       		.byte	0
 4974 00fc 00       		.byte	0
 4975 00fd 14       		.uleb128 0x14
 4976 00fe 05       		.uleb128 0x5
 4977 00ff 00       		.byte	0
 4978 0100 03       		.uleb128 0x3
 4979 0101 0E       		.uleb128 0xe
 4980 0102 3A       		.uleb128 0x3a
 4981 0103 0B       		.uleb128 0xb
 4982 0104 3B       		.uleb128 0x3b
 4983 0105 0B       		.uleb128 0xb
 4984 0106 49       		.uleb128 0x49
 4985 0107 13       		.uleb128 0x13
 4986 0108 02       		.uleb128 0x2
 4987 0109 17       		.uleb128 0x17
 4988 010a 00       		.byte	0
ARM GAS  C:\Users\Phuong\AppData\Local\Temp\ccqvrWt4.s 			page 106


 4989 010b 00       		.byte	0
 4990 010c 15       		.uleb128 0x15
 4991 010d 34       		.uleb128 0x34
 4992 010e 00       		.byte	0
 4993 010f 03       		.uleb128 0x3
 4994 0110 0E       		.uleb128 0xe
 4995 0111 3A       		.uleb128 0x3a
 4996 0112 0B       		.uleb128 0xb
 4997 0113 3B       		.uleb128 0x3b
 4998 0114 0B       		.uleb128 0xb
 4999 0115 49       		.uleb128 0x49
 5000 0116 13       		.uleb128 0x13
 5001 0117 02       		.uleb128 0x2
 5002 0118 18       		.uleb128 0x18
 5003 0119 00       		.byte	0
 5004 011a 00       		.byte	0
 5005 011b 16       		.uleb128 0x16
 5006 011c 34       		.uleb128 0x34
 5007 011d 00       		.byte	0
 5008 011e 03       		.uleb128 0x3
 5009 011f 0E       		.uleb128 0xe
 5010 0120 3A       		.uleb128 0x3a
 5011 0121 0B       		.uleb128 0xb
 5012 0122 3B       		.uleb128 0x3b
 5013 0123 0B       		.uleb128 0xb
 5014 0124 49       		.uleb128 0x49
 5015 0125 13       		.uleb128 0x13
 5016 0126 02       		.uleb128 0x2
 5017 0127 17       		.uleb128 0x17
 5018 0128 00       		.byte	0
 5019 0129 00       		.byte	0
 5020 012a 17       		.uleb128 0x17
 5021 012b 0B       		.uleb128 0xb
 5022 012c 01       		.byte	0x1
 5023 012d 11       		.uleb128 0x11
 5024 012e 01       		.uleb128 0x1
 5025 012f 12       		.uleb128 0x12
 5026 0130 06       		.uleb128 0x6
 5027 0131 01       		.uleb128 0x1
 5028 0132 13       		.uleb128 0x13
 5029 0133 00       		.byte	0
 5030 0134 00       		.byte	0
 5031 0135 18       		.uleb128 0x18
 5032 0136 34       		.uleb128 0x34
 5033 0137 00       		.byte	0
 5034 0138 03       		.uleb128 0x3
 5035 0139 0E       		.uleb128 0xe
 5036 013a 3A       		.uleb128 0x3a
 5037 013b 0B       		.uleb128 0xb
 5038 013c 3B       		.uleb128 0x3b
 5039 013d 05       		.uleb128 0x5
 5040 013e 49       		.uleb128 0x49
 5041 013f 13       		.uleb128 0x13
 5042 0140 02       		.uleb128 0x2
 5043 0141 18       		.uleb128 0x18
 5044 0142 00       		.byte	0
 5045 0143 00       		.byte	0
ARM GAS  C:\Users\Phuong\AppData\Local\Temp\ccqvrWt4.s 			page 107


 5046 0144 19       		.uleb128 0x19
 5047 0145 34       		.uleb128 0x34
 5048 0146 00       		.byte	0
 5049 0147 03       		.uleb128 0x3
 5050 0148 0E       		.uleb128 0xe
 5051 0149 3A       		.uleb128 0x3a
 5052 014a 0B       		.uleb128 0xb
 5053 014b 3B       		.uleb128 0x3b
 5054 014c 05       		.uleb128 0x5
 5055 014d 49       		.uleb128 0x49
 5056 014e 13       		.uleb128 0x13
 5057 014f 02       		.uleb128 0x2
 5058 0150 17       		.uleb128 0x17
 5059 0151 00       		.byte	0
 5060 0152 00       		.byte	0
 5061 0153 1A       		.uleb128 0x1a
 5062 0154 2E       		.uleb128 0x2e
 5063 0155 01       		.byte	0x1
 5064 0156 3F       		.uleb128 0x3f
 5065 0157 19       		.uleb128 0x19
 5066 0158 03       		.uleb128 0x3
 5067 0159 0E       		.uleb128 0xe
 5068 015a 3A       		.uleb128 0x3a
 5069 015b 0B       		.uleb128 0xb
 5070 015c 3B       		.uleb128 0x3b
 5071 015d 05       		.uleb128 0x5
 5072 015e 27       		.uleb128 0x27
 5073 015f 19       		.uleb128 0x19
 5074 0160 49       		.uleb128 0x49
 5075 0161 13       		.uleb128 0x13
 5076 0162 11       		.uleb128 0x11
 5077 0163 01       		.uleb128 0x1
 5078 0164 12       		.uleb128 0x12
 5079 0165 06       		.uleb128 0x6
 5080 0166 40       		.uleb128 0x40
 5081 0167 18       		.uleb128 0x18
 5082 0168 9742     		.uleb128 0x2117
 5083 016a 19       		.uleb128 0x19
 5084 016b 01       		.uleb128 0x1
 5085 016c 13       		.uleb128 0x13
 5086 016d 00       		.byte	0
 5087 016e 00       		.byte	0
 5088 016f 1B       		.uleb128 0x1b
 5089 0170 05       		.uleb128 0x5
 5090 0171 00       		.byte	0
 5091 0172 03       		.uleb128 0x3
 5092 0173 08       		.uleb128 0x8
 5093 0174 3A       		.uleb128 0x3a
 5094 0175 0B       		.uleb128 0xb
 5095 0176 3B       		.uleb128 0x3b
 5096 0177 05       		.uleb128 0x5
 5097 0178 49       		.uleb128 0x49
 5098 0179 13       		.uleb128 0x13
 5099 017a 02       		.uleb128 0x2
 5100 017b 17       		.uleb128 0x17
 5101 017c 00       		.byte	0
 5102 017d 00       		.byte	0
ARM GAS  C:\Users\Phuong\AppData\Local\Temp\ccqvrWt4.s 			page 108


 5103 017e 1C       		.uleb128 0x1c
 5104 017f 05       		.uleb128 0x5
 5105 0180 00       		.byte	0
 5106 0181 03       		.uleb128 0x3
 5107 0182 0E       		.uleb128 0xe
 5108 0183 3A       		.uleb128 0x3a
 5109 0184 0B       		.uleb128 0xb
 5110 0185 3B       		.uleb128 0x3b
 5111 0186 05       		.uleb128 0x5
 5112 0187 49       		.uleb128 0x49
 5113 0188 13       		.uleb128 0x13
 5114 0189 02       		.uleb128 0x2
 5115 018a 17       		.uleb128 0x17
 5116 018b 00       		.byte	0
 5117 018c 00       		.byte	0
 5118 018d 1D       		.uleb128 0x1d
 5119 018e 34       		.uleb128 0x34
 5120 018f 00       		.byte	0
 5121 0190 03       		.uleb128 0x3
 5122 0191 08       		.uleb128 0x8
 5123 0192 3A       		.uleb128 0x3a
 5124 0193 0B       		.uleb128 0xb
 5125 0194 3B       		.uleb128 0x3b
 5126 0195 05       		.uleb128 0x5
 5127 0196 49       		.uleb128 0x49
 5128 0197 13       		.uleb128 0x13
 5129 0198 02       		.uleb128 0x2
 5130 0199 17       		.uleb128 0x17
 5131 019a 00       		.byte	0
 5132 019b 00       		.byte	0
 5133 019c 1E       		.uleb128 0x1e
 5134 019d 2E       		.uleb128 0x2e
 5135 019e 01       		.byte	0x1
 5136 019f 3F       		.uleb128 0x3f
 5137 01a0 19       		.uleb128 0x19
 5138 01a1 03       		.uleb128 0x3
 5139 01a2 0E       		.uleb128 0xe
 5140 01a3 3A       		.uleb128 0x3a
 5141 01a4 0B       		.uleb128 0xb
 5142 01a5 3B       		.uleb128 0x3b
 5143 01a6 05       		.uleb128 0x5
 5144 01a7 27       		.uleb128 0x27
 5145 01a8 19       		.uleb128 0x19
 5146 01a9 11       		.uleb128 0x11
 5147 01aa 01       		.uleb128 0x1
 5148 01ab 12       		.uleb128 0x12
 5149 01ac 06       		.uleb128 0x6
 5150 01ad 40       		.uleb128 0x40
 5151 01ae 18       		.uleb128 0x18
 5152 01af 9742     		.uleb128 0x2117
 5153 01b1 19       		.uleb128 0x19
 5154 01b2 01       		.uleb128 0x1
 5155 01b3 13       		.uleb128 0x13
 5156 01b4 00       		.byte	0
 5157 01b5 00       		.byte	0
 5158 01b6 1F       		.uleb128 0x1f
 5159 01b7 898201   		.uleb128 0x4109
ARM GAS  C:\Users\Phuong\AppData\Local\Temp\ccqvrWt4.s 			page 109


 5160 01ba 00       		.byte	0
 5161 01bb 11       		.uleb128 0x11
 5162 01bc 01       		.uleb128 0x1
 5163 01bd 31       		.uleb128 0x31
 5164 01be 13       		.uleb128 0x13
 5165 01bf 00       		.byte	0
 5166 01c0 00       		.byte	0
 5167 01c1 20       		.uleb128 0x20
 5168 01c2 34       		.uleb128 0x34
 5169 01c3 00       		.byte	0
 5170 01c4 03       		.uleb128 0x3
 5171 01c5 08       		.uleb128 0x8
 5172 01c6 3A       		.uleb128 0x3a
 5173 01c7 0B       		.uleb128 0xb
 5174 01c8 3B       		.uleb128 0x3b
 5175 01c9 05       		.uleb128 0x5
 5176 01ca 49       		.uleb128 0x49
 5177 01cb 13       		.uleb128 0x13
 5178 01cc 02       		.uleb128 0x2
 5179 01cd 18       		.uleb128 0x18
 5180 01ce 00       		.byte	0
 5181 01cf 00       		.byte	0
 5182 01d0 21       		.uleb128 0x21
 5183 01d1 2E       		.uleb128 0x2e
 5184 01d2 00       		.byte	0
 5185 01d3 3F       		.uleb128 0x3f
 5186 01d4 19       		.uleb128 0x19
 5187 01d5 3C       		.uleb128 0x3c
 5188 01d6 19       		.uleb128 0x19
 5189 01d7 6E       		.uleb128 0x6e
 5190 01d8 0E       		.uleb128 0xe
 5191 01d9 03       		.uleb128 0x3
 5192 01da 0E       		.uleb128 0xe
 5193 01db 3A       		.uleb128 0x3a
 5194 01dc 0B       		.uleb128 0xb
 5195 01dd 3B       		.uleb128 0x3b
 5196 01de 0B       		.uleb128 0xb
 5197 01df 00       		.byte	0
 5198 01e0 00       		.byte	0
 5199 01e1 22       		.uleb128 0x22
 5200 01e2 2E       		.uleb128 0x2e
 5201 01e3 00       		.byte	0
 5202 01e4 3F       		.uleb128 0x3f
 5203 01e5 19       		.uleb128 0x19
 5204 01e6 3C       		.uleb128 0x3c
 5205 01e7 19       		.uleb128 0x19
 5206 01e8 6E       		.uleb128 0x6e
 5207 01e9 0E       		.uleb128 0xe
 5208 01ea 03       		.uleb128 0x3
 5209 01eb 0E       		.uleb128 0xe
 5210 01ec 3A       		.uleb128 0x3a
 5211 01ed 0B       		.uleb128 0xb
 5212 01ee 3B       		.uleb128 0x3b
 5213 01ef 05       		.uleb128 0x5
 5214 01f0 00       		.byte	0
 5215 01f1 00       		.byte	0
 5216 01f2 23       		.uleb128 0x23
ARM GAS  C:\Users\Phuong\AppData\Local\Temp\ccqvrWt4.s 			page 110


 5217 01f3 2E       		.uleb128 0x2e
 5218 01f4 00       		.byte	0
 5219 01f5 3F       		.uleb128 0x3f
 5220 01f6 19       		.uleb128 0x19
 5221 01f7 3C       		.uleb128 0x3c
 5222 01f8 19       		.uleb128 0x19
 5223 01f9 6E       		.uleb128 0x6e
 5224 01fa 0E       		.uleb128 0xe
 5225 01fb 03       		.uleb128 0x3
 5226 01fc 0E       		.uleb128 0xe
 5227 01fd 00       		.byte	0
 5228 01fe 00       		.byte	0
 5229 01ff 00       		.byte	0
 5230              		.section	.debug_loc,"",%progbits
 5231              	.Ldebug_loc0:
 5232              	.LLST0:
 5233 0000 00000000 		.4byte	.LVL0
 5234 0004 21000000 		.4byte	.LVL2-1
 5235 0008 0100     		.2byte	0x1
 5236 000a 50       		.byte	0x50
 5237 000b 21000000 		.4byte	.LVL2-1
 5238 000f 74000000 		.4byte	.LVL14
 5239 0013 0100     		.2byte	0x1
 5240 0015 54       		.byte	0x54
 5241 0016 74000000 		.4byte	.LVL14
 5242 001a 76000000 		.4byte	.LVL15
 5243 001e 0100     		.2byte	0x1
 5244 0020 50       		.byte	0x50
 5245 0021 76000000 		.4byte	.LVL15
 5246 0025 7C000000 		.4byte	.LVL18
 5247 0029 0100     		.2byte	0x1
 5248 002b 54       		.byte	0x54
 5249 002c 7C000000 		.4byte	.LVL18
 5250 0030 88000000 		.4byte	.LFE13
 5251 0034 0400     		.2byte	0x4
 5252 0036 F3       		.byte	0xf3
 5253 0037 01       		.uleb128 0x1
 5254 0038 50       		.byte	0x50
 5255 0039 9F       		.byte	0x9f
 5256 003a 00000000 		.4byte	0
 5257 003e 00000000 		.4byte	0
 5258              	.LLST1:
 5259 0042 00000000 		.4byte	.LVL0
 5260 0046 21000000 		.4byte	.LVL2-1
 5261 004a 0100     		.2byte	0x1
 5262 004c 51       		.byte	0x51
 5263 004d 21000000 		.4byte	.LVL2-1
 5264 0051 44000000 		.4byte	.LVL8
 5265 0055 0400     		.2byte	0x4
 5266 0057 F3       		.byte	0xf3
 5267 0058 01       		.uleb128 0x1
 5268 0059 51       		.byte	0x51
 5269 005a 9F       		.byte	0x9f
 5270 005b 44000000 		.4byte	.LVL8
 5271 005f 74000000 		.4byte	.LVL14
 5272 0063 0100     		.2byte	0x1
 5273 0065 55       		.byte	0x55
ARM GAS  C:\Users\Phuong\AppData\Local\Temp\ccqvrWt4.s 			page 111


 5274 0066 74000000 		.4byte	.LVL14
 5275 006a 78000000 		.4byte	.LVL16
 5276 006e 0100     		.2byte	0x1
 5277 0070 51       		.byte	0x51
 5278 0071 78000000 		.4byte	.LVL16
 5279 0075 7A000000 		.4byte	.LVL17
 5280 0079 0100     		.2byte	0x1
 5281 007b 55       		.byte	0x55
 5282 007c 00000000 		.4byte	0
 5283 0080 00000000 		.4byte	0
 5284              	.LLST2:
 5285 0084 00000000 		.4byte	.LVL0
 5286 0088 1C000000 		.4byte	.LVL1
 5287 008c 0100     		.2byte	0x1
 5288 008e 52       		.byte	0x52
 5289 008f 1C000000 		.4byte	.LVL1
 5290 0093 3E000000 		.4byte	.LVL7
 5291 0097 0100     		.2byte	0x1
 5292 0099 55       		.byte	0x55
 5293 009a 3E000000 		.4byte	.LVL7
 5294 009e 74000000 		.4byte	.LVL14
 5295 00a2 0400     		.2byte	0x4
 5296 00a4 F3       		.byte	0xf3
 5297 00a5 01       		.uleb128 0x1
 5298 00a6 52       		.byte	0x52
 5299 00a7 9F       		.byte	0x9f
 5300 00a8 74000000 		.4byte	.LVL14
 5301 00ac 78000000 		.4byte	.LVL16
 5302 00b0 0100     		.2byte	0x1
 5303 00b2 52       		.byte	0x52
 5304 00b3 78000000 		.4byte	.LVL16
 5305 00b7 88000000 		.4byte	.LFE13
 5306 00bb 0400     		.2byte	0x4
 5307 00bd F3       		.byte	0xf3
 5308 00be 01       		.uleb128 0x1
 5309 00bf 52       		.byte	0x52
 5310 00c0 9F       		.byte	0x9f
 5311 00c1 00000000 		.4byte	0
 5312 00c5 00000000 		.4byte	0
 5313              	.LLST3:
 5314 00c9 22000000 		.4byte	.LVL2
 5315 00cd 32000000 		.4byte	.LVL3
 5316 00d1 0100     		.2byte	0x1
 5317 00d3 50       		.byte	0x50
 5318 00d4 34000000 		.4byte	.LVL4
 5319 00d8 3A000000 		.4byte	.LVL5
 5320 00dc 0100     		.2byte	0x1
 5321 00de 50       		.byte	0x50
 5322 00df 3A000000 		.4byte	.LVL5
 5323 00e3 3C000000 		.4byte	.LVL6
 5324 00e7 0500     		.2byte	0x5
 5325 00e9 70       		.byte	0x70
 5326 00ea 80CA00   		.sleb128 9472
 5327 00ed 9F       		.byte	0x9f
 5328 00ee 3C000000 		.4byte	.LVL6
 5329 00f2 4E000000 		.4byte	.LVL9
 5330 00f6 0100     		.2byte	0x1
ARM GAS  C:\Users\Phuong\AppData\Local\Temp\ccqvrWt4.s 			page 112


 5331 00f8 50       		.byte	0x50
 5332 00f9 52000000 		.4byte	.LVL10
 5333 00fd 5C000000 		.4byte	.LVL11
 5334 0101 0100     		.2byte	0x1
 5335 0103 50       		.byte	0x50
 5336 0104 5C000000 		.4byte	.LVL11
 5337 0108 5E000000 		.4byte	.LVL12
 5338 010c 0500     		.2byte	0x5
 5339 010e 70       		.byte	0x70
 5340 010f 80CA00   		.sleb128 9472
 5341 0112 9F       		.byte	0x9f
 5342 0113 5E000000 		.4byte	.LVL12
 5343 0117 72000000 		.4byte	.LVL13
 5344 011b 0100     		.2byte	0x1
 5345 011d 50       		.byte	0x50
 5346 011e 78000000 		.4byte	.LVL16
 5347 0122 7A000000 		.4byte	.LVL17
 5348 0126 0100     		.2byte	0x1
 5349 0128 50       		.byte	0x50
 5350 0129 00000000 		.4byte	0
 5351 012d 00000000 		.4byte	0
 5352              	.LLST4:
 5353 0131 00000000 		.4byte	.LVL19
 5354 0135 07000000 		.4byte	.LVL20-1
 5355 0139 0100     		.2byte	0x1
 5356 013b 50       		.byte	0x50
 5357 013c 07000000 		.4byte	.LVL20-1
 5358 0140 2C000000 		.4byte	.LFE11
 5359 0144 0400     		.2byte	0x4
 5360 0146 F3       		.byte	0xf3
 5361 0147 01       		.uleb128 0x1
 5362 0148 50       		.byte	0x50
 5363 0149 9F       		.byte	0x9f
 5364 014a 00000000 		.4byte	0
 5365 014e 00000000 		.4byte	0
 5366              	.LLST5:
 5367 0152 00000000 		.4byte	.LVL19
 5368 0156 07000000 		.4byte	.LVL20-1
 5369 015a 0100     		.2byte	0x1
 5370 015c 51       		.byte	0x51
 5371 015d 07000000 		.4byte	.LVL20-1
 5372 0161 2C000000 		.4byte	.LFE11
 5373 0165 0400     		.2byte	0x4
 5374 0167 F3       		.byte	0xf3
 5375 0168 01       		.uleb128 0x1
 5376 0169 51       		.byte	0x51
 5377 016a 9F       		.byte	0x9f
 5378 016b 00000000 		.4byte	0
 5379 016f 00000000 		.4byte	0
 5380              	.LLST6:
 5381 0173 00000000 		.4byte	.LVL19
 5382 0177 07000000 		.4byte	.LVL20-1
 5383 017b 0100     		.2byte	0x1
 5384 017d 52       		.byte	0x52
 5385 017e 07000000 		.4byte	.LVL20-1
 5386 0182 24000000 		.4byte	.LVL26
 5387 0186 0100     		.2byte	0x1
ARM GAS  C:\Users\Phuong\AppData\Local\Temp\ccqvrWt4.s 			page 113


 5388 0188 54       		.byte	0x54
 5389 0189 24000000 		.4byte	.LVL26
 5390 018d 2C000000 		.4byte	.LFE11
 5391 0191 0400     		.2byte	0x4
 5392 0193 F3       		.byte	0xf3
 5393 0194 01       		.uleb128 0x1
 5394 0195 52       		.byte	0x52
 5395 0196 9F       		.byte	0x9f
 5396 0197 00000000 		.4byte	0
 5397 019b 00000000 		.4byte	0
 5398              	.LLST7:
 5399 019f 08000000 		.4byte	.LVL20
 5400 01a3 18000000 		.4byte	.LVL21
 5401 01a7 0100     		.2byte	0x1
 5402 01a9 50       		.byte	0x50
 5403 01aa 1A000000 		.4byte	.LVL22
 5404 01ae 20000000 		.4byte	.LVL23
 5405 01b2 0100     		.2byte	0x1
 5406 01b4 50       		.byte	0x50
 5407 01b5 20000000 		.4byte	.LVL23
 5408 01b9 22000000 		.4byte	.LVL24
 5409 01bd 0500     		.2byte	0x5
 5410 01bf 70       		.byte	0x70
 5411 01c0 80C400   		.sleb128 8704
 5412 01c3 9F       		.byte	0x9f
 5413 01c4 22000000 		.4byte	.LVL24
 5414 01c8 24000000 		.4byte	.LVL25
 5415 01cc 0100     		.2byte	0x1
 5416 01ce 50       		.byte	0x50
 5417 01cf 00000000 		.4byte	0
 5418 01d3 00000000 		.4byte	0
 5419              	.LLST8:
 5420 01d7 00000000 		.4byte	.LVL27
 5421 01db 15000000 		.4byte	.LVL30-1
 5422 01df 0100     		.2byte	0x1
 5423 01e1 50       		.byte	0x50
 5424 01e2 15000000 		.4byte	.LVL30-1
 5425 01e6 AA000000 		.4byte	.LVL48
 5426 01ea 0100     		.2byte	0x1
 5427 01ec 54       		.byte	0x54
 5428 01ed AA000000 		.4byte	.LVL48
 5429 01f1 AC000000 		.4byte	.LVL49
 5430 01f5 0100     		.2byte	0x1
 5431 01f7 50       		.byte	0x50
 5432 01f8 AC000000 		.4byte	.LVL49
 5433 01fc AE000000 		.4byte	.LVL50
 5434 0200 0100     		.2byte	0x1
 5435 0202 54       		.byte	0x54
 5436 0203 AE000000 		.4byte	.LVL50
 5437 0207 B4000000 		.4byte	.LFE14
 5438 020b 0400     		.2byte	0x4
 5439 020d F3       		.byte	0xf3
 5440 020e 01       		.uleb128 0x1
 5441 020f 50       		.byte	0x50
 5442 0210 9F       		.byte	0x9f
 5443 0211 00000000 		.4byte	0
 5444 0215 00000000 		.4byte	0
ARM GAS  C:\Users\Phuong\AppData\Local\Temp\ccqvrWt4.s 			page 114


 5445              	.LLST9:
 5446 0219 00000000 		.4byte	.LVL27
 5447 021d 15000000 		.4byte	.LVL30-1
 5448 0221 0100     		.2byte	0x1
 5449 0223 51       		.byte	0x51
 5450 0224 15000000 		.4byte	.LVL30-1
 5451 0228 2E000000 		.4byte	.LVL33
 5452 022c 0400     		.2byte	0x4
 5453 022e F3       		.byte	0xf3
 5454 022f 01       		.uleb128 0x1
 5455 0230 51       		.byte	0x51
 5456 0231 9F       		.byte	0x9f
 5457 0232 2E000000 		.4byte	.LVL33
 5458 0236 30000000 		.4byte	.LVL34
 5459 023a 0100     		.2byte	0x1
 5460 023c 53       		.byte	0x53
 5461 023d 30000000 		.4byte	.LVL34
 5462 0241 AA000000 		.4byte	.LVL48
 5463 0245 0100     		.2byte	0x1
 5464 0247 57       		.byte	0x57
 5465 0248 AA000000 		.4byte	.LVL48
 5466 024c AC000000 		.4byte	.LVL49
 5467 0250 0100     		.2byte	0x1
 5468 0252 51       		.byte	0x51
 5469 0253 00000000 		.4byte	0
 5470 0257 00000000 		.4byte	0
 5471              	.LLST10:
 5472 025b 00000000 		.4byte	.LVL27
 5473 025f 12000000 		.4byte	.LVL29
 5474 0263 0100     		.2byte	0x1
 5475 0265 52       		.byte	0x52
 5476 0266 12000000 		.4byte	.LVL29
 5477 026a 30000000 		.4byte	.LVL34
 5478 026e 0100     		.2byte	0x1
 5479 0270 56       		.byte	0x56
 5480 0271 30000000 		.4byte	.LVL34
 5481 0275 AA000000 		.4byte	.LVL48
 5482 0279 0400     		.2byte	0x4
 5483 027b F3       		.byte	0xf3
 5484 027c 01       		.uleb128 0x1
 5485 027d 52       		.byte	0x52
 5486 027e 9F       		.byte	0x9f
 5487 027f AA000000 		.4byte	.LVL48
 5488 0283 AC000000 		.4byte	.LVL49
 5489 0287 0100     		.2byte	0x1
 5490 0289 52       		.byte	0x52
 5491 028a AC000000 		.4byte	.LVL49
 5492 028e B4000000 		.4byte	.LFE14
 5493 0292 0400     		.2byte	0x4
 5494 0294 F3       		.byte	0xf3
 5495 0295 01       		.uleb128 0x1
 5496 0296 52       		.byte	0x52
 5497 0297 9F       		.byte	0x9f
 5498 0298 00000000 		.4byte	0
 5499 029c 00000000 		.4byte	0
 5500              	.LLST11:
 5501 02a0 16000000 		.4byte	.LVL30
ARM GAS  C:\Users\Phuong\AppData\Local\Temp\ccqvrWt4.s 			page 115


 5502 02a4 22000000 		.4byte	.LVL31
 5503 02a8 0100     		.2byte	0x1
 5504 02aa 50       		.byte	0x50
 5505 02ab 24000000 		.4byte	.LVL32
 5506 02af 30000000 		.4byte	.LVL34
 5507 02b3 0100     		.2byte	0x1
 5508 02b5 50       		.byte	0x50
 5509 02b6 3C000000 		.4byte	.LVL35
 5510 02ba 5C000000 		.4byte	.LVL37
 5511 02be 0100     		.2byte	0x1
 5512 02c0 50       		.byte	0x50
 5513 02c1 60000000 		.4byte	.LVL38
 5514 02c5 6C000000 		.4byte	.LVL39
 5515 02c9 0100     		.2byte	0x1
 5516 02cb 50       		.byte	0x50
 5517 02cc 70000000 		.4byte	.LVL40
 5518 02d0 7C000000 		.4byte	.LVL41
 5519 02d4 0100     		.2byte	0x1
 5520 02d6 50       		.byte	0x50
 5521 02d7 80000000 		.4byte	.LVL42
 5522 02db 8E000000 		.4byte	.LVL43
 5523 02df 0100     		.2byte	0x1
 5524 02e1 50       		.byte	0x50
 5525 02e2 8E000000 		.4byte	.LVL43
 5526 02e6 91000000 		.4byte	.LVL44-1
 5527 02ea 0300     		.2byte	0x3
 5528 02ec 70       		.byte	0x70
 5529 02ed 7F       		.sleb128 -1
 5530 02ee 9F       		.byte	0x9f
 5531 02ef 00000000 		.4byte	0
 5532 02f3 00000000 		.4byte	0
 5533              	.LLST12:
 5534 02f7 08000000 		.4byte	.LVL28
 5535 02fb 12000000 		.4byte	.LVL29
 5536 02ff 0100     		.2byte	0x1
 5537 0301 52       		.byte	0x52
 5538 0302 12000000 		.4byte	.LVL29
 5539 0306 9A000000 		.4byte	.LVL45
 5540 030a 0100     		.2byte	0x1
 5541 030c 56       		.byte	0x56
 5542 030d 9A000000 		.4byte	.LVL45
 5543 0311 9C000000 		.4byte	.LVL46
 5544 0315 0100     		.2byte	0x1
 5545 0317 50       		.byte	0x50
 5546 0318 9C000000 		.4byte	.LVL46
 5547 031c AA000000 		.4byte	.LVL48
 5548 0320 0100     		.2byte	0x1
 5549 0322 56       		.byte	0x56
 5550 0323 AA000000 		.4byte	.LVL48
 5551 0327 AC000000 		.4byte	.LVL49
 5552 032b 0100     		.2byte	0x1
 5553 032d 52       		.byte	0x52
 5554 032e AC000000 		.4byte	.LVL49
 5555 0332 AE000000 		.4byte	.LVL51
 5556 0336 0100     		.2byte	0x1
 5557 0338 56       		.byte	0x56
 5558 0339 00000000 		.4byte	0
ARM GAS  C:\Users\Phuong\AppData\Local\Temp\ccqvrWt4.s 			page 116


 5559 033d 00000000 		.4byte	0
 5560              	.LLST13:
 5561 0341 54000000 		.4byte	.LVL36
 5562 0345 A0000000 		.4byte	.LVL47
 5563 0349 0100     		.2byte	0x1
 5564 034b 55       		.byte	0x55
 5565 034c 00000000 		.4byte	0
 5566 0350 00000000 		.4byte	0
 5567              	.LLST14:
 5568 0354 00000000 		.4byte	.LVL52
 5569 0358 0D000000 		.4byte	.LVL53-1
 5570 035c 0100     		.2byte	0x1
 5571 035e 50       		.byte	0x50
 5572 035f 0D000000 		.4byte	.LVL53-1
 5573 0363 C6000000 		.4byte	.LVL81
 5574 0367 0100     		.2byte	0x1
 5575 0369 54       		.byte	0x54
 5576 036a C6000000 		.4byte	.LVL81
 5577 036e D4000000 		.4byte	.LFE12
 5578 0372 0400     		.2byte	0x4
 5579 0374 F3       		.byte	0xf3
 5580 0375 01       		.uleb128 0x1
 5581 0376 50       		.byte	0x50
 5582 0377 9F       		.byte	0x9f
 5583 0378 00000000 		.4byte	0
 5584 037c 00000000 		.4byte	0
 5585              	.LLST15:
 5586 0380 00000000 		.4byte	.LVL52
 5587 0384 0D000000 		.4byte	.LVL53-1
 5588 0388 0100     		.2byte	0x1
 5589 038a 51       		.byte	0x51
 5590 038b 0D000000 		.4byte	.LVL53-1
 5591 038f C6000000 		.4byte	.LVL82
 5592 0393 0100     		.2byte	0x1
 5593 0395 55       		.byte	0x55
 5594 0396 C6000000 		.4byte	.LVL82
 5595 039a D4000000 		.4byte	.LFE12
 5596 039e 0400     		.2byte	0x4
 5597 03a0 F3       		.byte	0xf3
 5598 03a1 01       		.uleb128 0x1
 5599 03a2 51       		.byte	0x51
 5600 03a3 9F       		.byte	0x9f
 5601 03a4 00000000 		.4byte	0
 5602 03a8 00000000 		.4byte	0
 5603              	.LLST16:
 5604 03ac 00000000 		.4byte	.LVL52
 5605 03b0 0D000000 		.4byte	.LVL53-1
 5606 03b4 0100     		.2byte	0x1
 5607 03b6 52       		.byte	0x52
 5608 03b7 0D000000 		.4byte	.LVL53-1
 5609 03bb D4000000 		.4byte	.LFE12
 5610 03bf 0400     		.2byte	0x4
 5611 03c1 F3       		.byte	0xf3
 5612 03c2 01       		.uleb128 0x1
 5613 03c3 52       		.byte	0x52
 5614 03c4 9F       		.byte	0x9f
 5615 03c5 00000000 		.4byte	0
ARM GAS  C:\Users\Phuong\AppData\Local\Temp\ccqvrWt4.s 			page 117


 5616 03c9 00000000 		.4byte	0
 5617              	.LLST17:
 5618 03cd 0E000000 		.4byte	.LVL53
 5619 03d1 1A000000 		.4byte	.LVL54
 5620 03d5 0100     		.2byte	0x1
 5621 03d7 50       		.byte	0x50
 5622 03d8 1C000000 		.4byte	.LVL55
 5623 03dc 28000000 		.4byte	.LVL56
 5624 03e0 0100     		.2byte	0x1
 5625 03e2 50       		.byte	0x50
 5626 03e3 2C000000 		.4byte	.LVL57
 5627 03e7 36000000 		.4byte	.LVL58
 5628 03eb 0100     		.2byte	0x1
 5629 03ed 50       		.byte	0x50
 5630 03ee 36000000 		.4byte	.LVL58
 5631 03f2 38000000 		.4byte	.LVL59
 5632 03f6 0500     		.2byte	0x5
 5633 03f8 70       		.byte	0x70
 5634 03f9 80CA00   		.sleb128 9472
 5635 03fc 9F       		.byte	0x9f
 5636 03fd 38000000 		.4byte	.LVL59
 5637 0401 4A000000 		.4byte	.LVL62
 5638 0405 0100     		.2byte	0x1
 5639 0407 50       		.byte	0x50
 5640 0408 4E000000 		.4byte	.LVL63
 5641 040c 58000000 		.4byte	.LVL64
 5642 0410 0100     		.2byte	0x1
 5643 0412 50       		.byte	0x50
 5644 0413 58000000 		.4byte	.LVL64
 5645 0417 5A000000 		.4byte	.LVL65
 5646 041b 0500     		.2byte	0x5
 5647 041d 70       		.byte	0x70
 5648 041e 80CA00   		.sleb128 9472
 5649 0421 9F       		.byte	0x9f
 5650 0422 5A000000 		.4byte	.LVL65
 5651 0426 6A000000 		.4byte	.LVL66
 5652 042a 0100     		.2byte	0x1
 5653 042c 50       		.byte	0x50
 5654 042d 6E000000 		.4byte	.LVL67
 5655 0431 7E000000 		.4byte	.LVL68
 5656 0435 0100     		.2byte	0x1
 5657 0437 50       		.byte	0x50
 5658 0438 7E000000 		.4byte	.LVL68
 5659 043c 80000000 		.4byte	.LVL69
 5660 0440 0500     		.2byte	0x5
 5661 0442 70       		.byte	0x70
 5662 0443 80CA00   		.sleb128 9472
 5663 0446 9F       		.byte	0x9f
 5664 0447 80000000 		.4byte	.LVL69
 5665 044b 88000000 		.4byte	.LVL70
 5666 044f 0100     		.2byte	0x1
 5667 0451 50       		.byte	0x50
 5668 0452 8C000000 		.4byte	.LVL71
 5669 0456 96000000 		.4byte	.LVL72
 5670 045a 0100     		.2byte	0x1
 5671 045c 50       		.byte	0x50
 5672 045d 96000000 		.4byte	.LVL72
ARM GAS  C:\Users\Phuong\AppData\Local\Temp\ccqvrWt4.s 			page 118


 5673 0461 98000000 		.4byte	.LVL73
 5674 0465 0500     		.2byte	0x5
 5675 0467 70       		.byte	0x70
 5676 0468 80CA00   		.sleb128 9472
 5677 046b 9F       		.byte	0x9f
 5678 046c 98000000 		.4byte	.LVL73
 5679 0470 B0000000 		.4byte	.LVL74
 5680 0474 0100     		.2byte	0x1
 5681 0476 50       		.byte	0x50
 5682 0477 B2000000 		.4byte	.LVL75
 5683 047b B4000000 		.4byte	.LVL76
 5684 047f 0100     		.2byte	0x1
 5685 0481 50       		.byte	0x50
 5686 0482 B6000000 		.4byte	.LVL77
 5687 0486 C0000000 		.4byte	.LVL78
 5688 048a 0100     		.2byte	0x1
 5689 048c 50       		.byte	0x50
 5690 048d C2000000 		.4byte	.LVL79
 5691 0491 C4000000 		.4byte	.LVL80
 5692 0495 0100     		.2byte	0x1
 5693 0497 50       		.byte	0x50
 5694 0498 00000000 		.4byte	0
 5695 049c 00000000 		.4byte	0
 5696              	.LLST18:
 5697 04a0 42000000 		.4byte	.LVL60
 5698 04a4 44000000 		.4byte	.LVL61
 5699 04a8 0100     		.2byte	0x1
 5700 04aa 53       		.byte	0x53
 5701 04ab 44000000 		.4byte	.LVL61
 5702 04af B6000000 		.4byte	.LVL77
 5703 04b3 0100     		.2byte	0x1
 5704 04b5 56       		.byte	0x56
 5705 04b6 00000000 		.4byte	0
 5706 04ba 00000000 		.4byte	0
 5707              	.LLST19:
 5708 04be 00000000 		.4byte	.LVL83
 5709 04c2 1D000000 		.4byte	.LVL87-1
 5710 04c6 0100     		.2byte	0x1
 5711 04c8 50       		.byte	0x50
 5712 04c9 1D000000 		.4byte	.LVL87-1
 5713 04cd 30000000 		.4byte	.LVL89
 5714 04d1 0100     		.2byte	0x1
 5715 04d3 54       		.byte	0x54
 5716 04d4 30000000 		.4byte	.LVL89
 5717 04d8 BE010000 		.4byte	.LVL136
 5718 04dc 0400     		.2byte	0x4
 5719 04de F3       		.byte	0xf3
 5720 04df 01       		.uleb128 0x1
 5721 04e0 50       		.byte	0x50
 5722 04e1 9F       		.byte	0x9f
 5723 04e2 BE010000 		.4byte	.LVL136
 5724 04e6 C6010000 		.4byte	.LVL140
 5725 04ea 0100     		.2byte	0x1
 5726 04ec 54       		.byte	0x54
 5727 04ed C6010000 		.4byte	.LVL140
 5728 04f1 50020000 		.4byte	.LFE17
 5729 04f5 0400     		.2byte	0x4
ARM GAS  C:\Users\Phuong\AppData\Local\Temp\ccqvrWt4.s 			page 119


 5730 04f7 F3       		.byte	0xf3
 5731 04f8 01       		.uleb128 0x1
 5732 04f9 50       		.byte	0x50
 5733 04fa 9F       		.byte	0x9f
 5734 04fb 00000000 		.4byte	0
 5735 04ff 00000000 		.4byte	0
 5736              	.LLST20:
 5737 0503 00000000 		.4byte	.LVL83
 5738 0507 1D000000 		.4byte	.LVL87-1
 5739 050b 0100     		.2byte	0x1
 5740 050d 51       		.byte	0x51
 5741 050e 1D000000 		.4byte	.LVL87-1
 5742 0512 1E020000 		.4byte	.LVL185
 5743 0516 0100     		.2byte	0x1
 5744 0518 58       		.byte	0x58
 5745 0519 1E020000 		.4byte	.LVL185
 5746 051d 50020000 		.4byte	.LFE17
 5747 0521 0400     		.2byte	0x4
 5748 0523 F3       		.byte	0xf3
 5749 0524 01       		.uleb128 0x1
 5750 0525 51       		.byte	0x51
 5751 0526 9F       		.byte	0x9f
 5752 0527 00000000 		.4byte	0
 5753 052b 00000000 		.4byte	0
 5754              	.LLST21:
 5755 052f 00000000 		.4byte	.LVL83
 5756 0533 1A000000 		.4byte	.LVL86
 5757 0537 0100     		.2byte	0x1
 5758 0539 52       		.byte	0x52
 5759 053a 1A000000 		.4byte	.LVL86
 5760 053e 1D000000 		.4byte	.LVL87-1
 5761 0542 0100     		.2byte	0x1
 5762 0544 53       		.byte	0x53
 5763 0545 1D000000 		.4byte	.LVL87-1
 5764 0549 D6000000 		.4byte	.LVL105
 5765 054d 0100     		.2byte	0x1
 5766 054f 55       		.byte	0x55
 5767 0550 D6000000 		.4byte	.LVL105
 5768 0554 BE010000 		.4byte	.LVL136
 5769 0558 0200     		.2byte	0x2
 5770 055a 91       		.byte	0x91
 5771 055b 5C       		.sleb128 -36
 5772 055c BE010000 		.4byte	.LVL136
 5773 0560 E6010000 		.4byte	.LVL156
 5774 0564 0100     		.2byte	0x1
 5775 0566 55       		.byte	0x55
 5776 0567 E6010000 		.4byte	.LVL156
 5777 056b 1C020000 		.4byte	.LVL183
 5778 056f 0200     		.2byte	0x2
 5779 0571 91       		.byte	0x91
 5780 0572 5C       		.sleb128 -36
 5781 0573 1C020000 		.4byte	.LVL183
 5782 0577 50020000 		.4byte	.LFE17
 5783 057b 0400     		.2byte	0x4
 5784 057d F3       		.byte	0xf3
 5785 057e 01       		.uleb128 0x1
 5786 057f 52       		.byte	0x52
ARM GAS  C:\Users\Phuong\AppData\Local\Temp\ccqvrWt4.s 			page 120


 5787 0580 9F       		.byte	0x9f
 5788 0581 00000000 		.4byte	0
 5789 0585 00000000 		.4byte	0
 5790              	.LLST22:
 5791 0589 00000000 		.4byte	.LVL83
 5792 058d 14000000 		.4byte	.LVL85
 5793 0591 0100     		.2byte	0x1
 5794 0593 53       		.byte	0x53
 5795 0594 14000000 		.4byte	.LVL85
 5796 0598 1E020000 		.4byte	.LVL184
 5797 059c 0100     		.2byte	0x1
 5798 059e 57       		.byte	0x57
 5799 059f 1E020000 		.4byte	.LVL184
 5800 05a3 50020000 		.4byte	.LFE17
 5801 05a7 0400     		.2byte	0x4
 5802 05a9 F3       		.byte	0xf3
 5803 05aa 01       		.uleb128 0x1
 5804 05ab 53       		.byte	0x53
 5805 05ac 9F       		.byte	0x9f
 5806 05ad 00000000 		.4byte	0
 5807 05b1 00000000 		.4byte	0
 5808              	.LLST23:
 5809 05b5 1E000000 		.4byte	.LVL87
 5810 05b9 38000000 		.4byte	.LVL90
 5811 05bd 0100     		.2byte	0x1
 5812 05bf 50       		.byte	0x50
 5813 05c0 3C000000 		.4byte	.LVL91
 5814 05c4 54000000 		.4byte	.LVL94
 5815 05c8 0100     		.2byte	0x1
 5816 05ca 50       		.byte	0x50
 5817 05cb 58000000 		.4byte	.LVL95
 5818 05cf 88000000 		.4byte	.LVL98
 5819 05d3 0100     		.2byte	0x1
 5820 05d5 50       		.byte	0x50
 5821 05d6 8C000000 		.4byte	.LVL99
 5822 05da C0000000 		.4byte	.LVL102
 5823 05de 0100     		.2byte	0x1
 5824 05e0 50       		.byte	0x50
 5825 05e1 C4000000 		.4byte	.LVL103
 5826 05e5 E2000000 		.4byte	.LVL108
 5827 05e9 0100     		.2byte	0x1
 5828 05eb 50       		.byte	0x50
 5829 05ec E6000000 		.4byte	.LVL109
 5830 05f0 FE000000 		.4byte	.LVL112
 5831 05f4 0100     		.2byte	0x1
 5832 05f6 50       		.byte	0x50
 5833 05f7 02010000 		.4byte	.LVL113
 5834 05fb 16010000 		.4byte	.LVL116
 5835 05ff 0100     		.2byte	0x1
 5836 0601 50       		.byte	0x50
 5837 0602 1A010000 		.4byte	.LVL117
 5838 0606 30010000 		.4byte	.LVL120
 5839 060a 0100     		.2byte	0x1
 5840 060c 50       		.byte	0x50
 5841 060d 4E010000 		.4byte	.LVL121
 5842 0611 6E010000 		.4byte	.LVL125
 5843 0615 0100     		.2byte	0x1
ARM GAS  C:\Users\Phuong\AppData\Local\Temp\ccqvrWt4.s 			page 121


 5844 0617 50       		.byte	0x50
 5845 0618 72010000 		.4byte	.LVL126
 5846 061c 8C010000 		.4byte	.LVL129
 5847 0620 0100     		.2byte	0x1
 5848 0622 50       		.byte	0x50
 5849 0623 9A010000 		.4byte	.LVL130
 5850 0627 A6010000 		.4byte	.LVL132
 5851 062b 0100     		.2byte	0x1
 5852 062d 50       		.byte	0x50
 5853 062e AE010000 		.4byte	.LVL133
 5854 0632 BC010000 		.4byte	.LVL135
 5855 0636 0100     		.2byte	0x1
 5856 0638 50       		.byte	0x50
 5857 0639 BE010000 		.4byte	.LVL136
 5858 063d C0010000 		.4byte	.LVL137
 5859 0641 0100     		.2byte	0x1
 5860 0643 50       		.byte	0x50
 5861 0644 C2010000 		.4byte	.LVL138
 5862 0648 C4010000 		.4byte	.LVL139
 5863 064c 0100     		.2byte	0x1
 5864 064e 50       		.byte	0x50
 5865 064f C6010000 		.4byte	.LVL140
 5866 0653 C8010000 		.4byte	.LVL141
 5867 0657 0100     		.2byte	0x1
 5868 0659 50       		.byte	0x50
 5869 065a CA010000 		.4byte	.LVL142
 5870 065e CC010000 		.4byte	.LVL143
 5871 0662 0100     		.2byte	0x1
 5872 0664 50       		.byte	0x50
 5873 0665 CE010000 		.4byte	.LVL144
 5874 0669 D0010000 		.4byte	.LVL145
 5875 066d 0100     		.2byte	0x1
 5876 066f 50       		.byte	0x50
 5877 0670 D2010000 		.4byte	.LVL146
 5878 0674 D4010000 		.4byte	.LVL147
 5879 0678 0100     		.2byte	0x1
 5880 067a 50       		.byte	0x50
 5881 067b D6010000 		.4byte	.LVL148
 5882 067f D8010000 		.4byte	.LVL149
 5883 0683 0100     		.2byte	0x1
 5884 0685 50       		.byte	0x50
 5885 0686 DA010000 		.4byte	.LVL150
 5886 068a DC010000 		.4byte	.LVL151
 5887 068e 0100     		.2byte	0x1
 5888 0690 50       		.byte	0x50
 5889 0691 DE010000 		.4byte	.LVL152
 5890 0695 E0010000 		.4byte	.LVL153
 5891 0699 0100     		.2byte	0x1
 5892 069b 50       		.byte	0x50
 5893 069c E2010000 		.4byte	.LVL154
 5894 06a0 E4010000 		.4byte	.LVL155
 5895 06a4 0100     		.2byte	0x1
 5896 06a6 50       		.byte	0x50
 5897 06a7 E6010000 		.4byte	.LVL156
 5898 06ab E8010000 		.4byte	.LVL157
 5899 06af 0100     		.2byte	0x1
 5900 06b1 50       		.byte	0x50
ARM GAS  C:\Users\Phuong\AppData\Local\Temp\ccqvrWt4.s 			page 122


 5901 06b2 EA010000 		.4byte	.LVL158
 5902 06b6 EC010000 		.4byte	.LVL159
 5903 06ba 0100     		.2byte	0x1
 5904 06bc 50       		.byte	0x50
 5905 06bd EE010000 		.4byte	.LVL160
 5906 06c1 F0010000 		.4byte	.LVL161
 5907 06c5 0100     		.2byte	0x1
 5908 06c7 50       		.byte	0x50
 5909 06c8 F2010000 		.4byte	.LVL162
 5910 06cc F4010000 		.4byte	.LVL163
 5911 06d0 0100     		.2byte	0x1
 5912 06d2 50       		.byte	0x50
 5913 06d3 F6010000 		.4byte	.LVL164
 5914 06d7 F8010000 		.4byte	.LVL165
 5915 06db 0100     		.2byte	0x1
 5916 06dd 50       		.byte	0x50
 5917 06de FA010000 		.4byte	.LVL166
 5918 06e2 FC010000 		.4byte	.LVL167
 5919 06e6 0100     		.2byte	0x1
 5920 06e8 50       		.byte	0x50
 5921 06e9 FE010000 		.4byte	.LVL168
 5922 06ed 00020000 		.4byte	.LVL169
 5923 06f1 0100     		.2byte	0x1
 5924 06f3 50       		.byte	0x50
 5925 06f4 02020000 		.4byte	.LVL170
 5926 06f8 04020000 		.4byte	.LVL171
 5927 06fc 0100     		.2byte	0x1
 5928 06fe 50       		.byte	0x50
 5929 06ff 06020000 		.4byte	.LVL172
 5930 0703 08020000 		.4byte	.LVL173
 5931 0707 0100     		.2byte	0x1
 5932 0709 50       		.byte	0x50
 5933 070a 0A020000 		.4byte	.LVL174
 5934 070e 0C020000 		.4byte	.LVL175
 5935 0712 0100     		.2byte	0x1
 5936 0714 50       		.byte	0x50
 5937 0715 0E020000 		.4byte	.LVL176
 5938 0719 10020000 		.4byte	.LVL177
 5939 071d 0100     		.2byte	0x1
 5940 071f 50       		.byte	0x50
 5941 0720 12020000 		.4byte	.LVL178
 5942 0724 14020000 		.4byte	.LVL179
 5943 0728 0100     		.2byte	0x1
 5944 072a 50       		.byte	0x50
 5945 072b 16020000 		.4byte	.LVL180
 5946 072f 18020000 		.4byte	.LVL181
 5947 0733 0100     		.2byte	0x1
 5948 0735 50       		.byte	0x50
 5949 0736 1A020000 		.4byte	.LVL182
 5950 073a 1C020000 		.4byte	.LVL183
 5951 073e 0100     		.2byte	0x1
 5952 0740 50       		.byte	0x50
 5953 0741 00000000 		.4byte	0
 5954 0745 00000000 		.4byte	0
 5955              	.LLST24:
 5956 0749 12000000 		.4byte	.LVL84
 5957 074d 1D000000 		.4byte	.LVL87-1
ARM GAS  C:\Users\Phuong\AppData\Local\Temp\ccqvrWt4.s 			page 123


 5958 0751 0100     		.2byte	0x1
 5959 0753 51       		.byte	0x51
 5960 0754 1D000000 		.4byte	.LVL87-1
 5961 0758 2E000000 		.4byte	.LVL88
 5962 075c 0100     		.2byte	0x1
 5963 075e 58       		.byte	0x58
 5964 075f 2E000000 		.4byte	.LVL88
 5965 0763 D4000000 		.4byte	.LVL104
 5966 0767 0100     		.2byte	0x1
 5967 0769 56       		.byte	0x56
 5968 076a D4000000 		.4byte	.LVL104
 5969 076e DE000000 		.4byte	.LVL107
 5970 0772 0100     		.2byte	0x1
 5971 0774 52       		.byte	0x52
 5972 0775 DE000000 		.4byte	.LVL107
 5973 0779 F2000000 		.4byte	.LVL110
 5974 077d 0100     		.2byte	0x1
 5975 077f 5A       		.byte	0x5a
 5976 0780 F2000000 		.4byte	.LVL110
 5977 0784 BE010000 		.4byte	.LVL136
 5978 0788 0100     		.2byte	0x1
 5979 078a 54       		.byte	0x54
 5980 078b BE010000 		.4byte	.LVL136
 5981 078f C6010000 		.4byte	.LVL140
 5982 0793 0100     		.2byte	0x1
 5983 0795 58       		.byte	0x58
 5984 0796 C6010000 		.4byte	.LVL140
 5985 079a E6010000 		.4byte	.LVL156
 5986 079e 0100     		.2byte	0x1
 5987 07a0 56       		.byte	0x56
 5988 07a1 E6010000 		.4byte	.LVL156
 5989 07a5 EE010000 		.4byte	.LVL160
 5990 07a9 0100     		.2byte	0x1
 5991 07ab 5A       		.byte	0x5a
 5992 07ac EE010000 		.4byte	.LVL160
 5993 07b0 1C020000 		.4byte	.LVL183
 5994 07b4 0100     		.2byte	0x1
 5995 07b6 54       		.byte	0x54
 5996 07b7 00000000 		.4byte	0
 5997 07bb 00000000 		.4byte	0
 5998              	.LLST25:
 5999 07bf 12000000 		.4byte	.LVL84
 6000 07c3 1D000000 		.4byte	.LVL87-1
 6001 07c7 0100     		.2byte	0x1
 6002 07c9 50       		.byte	0x50
 6003 07ca 1D000000 		.4byte	.LVL87-1
 6004 07ce D6000000 		.4byte	.LVL105
 6005 07d2 0100     		.2byte	0x1
 6006 07d4 54       		.byte	0x54
 6007 07d5 D6000000 		.4byte	.LVL105
 6008 07d9 A6010000 		.4byte	.LVL132
 6009 07dd 0100     		.2byte	0x1
 6010 07df 55       		.byte	0x55
 6011 07e0 A6010000 		.4byte	.LVL132
 6012 07e4 AD010000 		.4byte	.LVL133-1
 6013 07e8 0100     		.2byte	0x1
 6014 07ea 50       		.byte	0x50
ARM GAS  C:\Users\Phuong\AppData\Local\Temp\ccqvrWt4.s 			page 124


 6015 07eb BE010000 		.4byte	.LVL136
 6016 07ef E6010000 		.4byte	.LVL156
 6017 07f3 0100     		.2byte	0x1
 6018 07f5 54       		.byte	0x54
 6019 07f6 E6010000 		.4byte	.LVL156
 6020 07fa 16020000 		.4byte	.LVL180
 6021 07fe 0100     		.2byte	0x1
 6022 0800 55       		.byte	0x55
 6023 0801 00000000 		.4byte	0
 6024 0805 00000000 		.4byte	0
 6025              	.LLST26:
 6026 0809 DA000000 		.4byte	.LVL106
 6027 080d BE010000 		.4byte	.LVL136
 6028 0811 0100     		.2byte	0x1
 6029 0813 56       		.byte	0x56
 6030 0814 E6010000 		.4byte	.LVL156
 6031 0818 1C020000 		.4byte	.LVL183
 6032 081c 0100     		.2byte	0x1
 6033 081e 56       		.byte	0x56
 6034 081f 00000000 		.4byte	0
 6035 0823 00000000 		.4byte	0
 6036              	.LLST27:
 6037 0827 00000000 		.4byte	.LVL186
 6038 082b 09000000 		.4byte	.LVL187-1
 6039 082f 0100     		.2byte	0x1
 6040 0831 50       		.byte	0x50
 6041 0832 09000000 		.4byte	.LVL187-1
 6042 0836 0C000000 		.4byte	.LFE18
 6043 083a 0400     		.2byte	0x4
 6044 083c F3       		.byte	0xf3
 6045 083d 01       		.uleb128 0x1
 6046 083e 50       		.byte	0x50
 6047 083f 9F       		.byte	0x9f
 6048 0840 00000000 		.4byte	0
 6049 0844 00000000 		.4byte	0
 6050              	.LLST28:
 6051 0848 00000000 		.4byte	.LVL188
 6052 084c 08000000 		.4byte	.LVL190
 6053 0850 0100     		.2byte	0x1
 6054 0852 50       		.byte	0x50
 6055 0853 08000000 		.4byte	.LVL190
 6056 0857 7C000000 		.4byte	.LVL213
 6057 085b 0100     		.2byte	0x1
 6058 085d 57       		.byte	0x57
 6059 085e 7C000000 		.4byte	.LVL213
 6060 0862 7E000000 		.4byte	.LFE19
 6061 0866 0400     		.2byte	0x4
 6062 0868 F3       		.byte	0xf3
 6063 0869 01       		.uleb128 0x1
 6064 086a 50       		.byte	0x50
 6065 086b 9F       		.byte	0x9f
 6066 086c 00000000 		.4byte	0
 6067 0870 00000000 		.4byte	0
 6068              	.LLST29:
 6069 0874 04000000 		.4byte	.LVL189
 6070 0878 08000000 		.4byte	.LVL190
 6071 087c 0100     		.2byte	0x1
ARM GAS  C:\Users\Phuong\AppData\Local\Temp\ccqvrWt4.s 			page 125


 6072 087e 50       		.byte	0x50
 6073 087f 08000000 		.4byte	.LVL190
 6074 0883 62000000 		.4byte	.LVL207
 6075 0887 0100     		.2byte	0x1
 6076 0889 56       		.byte	0x56
 6077 088a 62000000 		.4byte	.LVL207
 6078 088e 66000000 		.4byte	.LVL208
 6079 0892 0100     		.2byte	0x1
 6080 0894 54       		.byte	0x54
 6081 0895 66000000 		.4byte	.LVL208
 6082 0899 7C000000 		.4byte	.LVL212
 6083 089d 0100     		.2byte	0x1
 6084 089f 55       		.byte	0x55
 6085 08a0 00000000 		.4byte	0
 6086 08a4 00000000 		.4byte	0
 6087              	.LLST30:
 6088 08a8 62000000 		.4byte	.LVL207
 6089 08ac 7A000000 		.4byte	.LVL211
 6090 08b0 0100     		.2byte	0x1
 6091 08b2 54       		.byte	0x54
 6092 08b3 00000000 		.4byte	0
 6093 08b7 00000000 		.4byte	0
 6094              	.LLST31:
 6095 08bb 12000000 		.4byte	.LVL192
 6096 08bf 16000000 		.4byte	.LVL194
 6097 08c3 0100     		.2byte	0x1
 6098 08c5 54       		.byte	0x54
 6099 08c6 16000000 		.4byte	.LVL194
 6100 08ca 26000000 		.4byte	.LVL197
 6101 08ce 0100     		.2byte	0x1
 6102 08d0 55       		.byte	0x55
 6103 08d1 26000000 		.4byte	.LVL197
 6104 08d5 2E000000 		.4byte	.LVL198
 6105 08d9 0100     		.2byte	0x1
 6106 08db 54       		.byte	0x54
 6107 08dc 00000000 		.4byte	0
 6108 08e0 00000000 		.4byte	0
 6109              	.LLST32:
 6110 08e4 14000000 		.4byte	.LVL193
 6111 08e8 26000000 		.4byte	.LVL197
 6112 08ec 0100     		.2byte	0x1
 6113 08ee 54       		.byte	0x54
 6114 08ef 00000000 		.4byte	0
 6115 08f3 00000000 		.4byte	0
 6116              	.LLST33:
 6117 08f7 2E000000 		.4byte	.LVL198
 6118 08fb 32000000 		.4byte	.LVL200
 6119 08ff 0100     		.2byte	0x1
 6120 0901 54       		.byte	0x54
 6121 0902 32000000 		.4byte	.LVL200
 6122 0906 42000000 		.4byte	.LVL203
 6123 090a 0100     		.2byte	0x1
 6124 090c 55       		.byte	0x55
 6125 090d 42000000 		.4byte	.LVL203
 6126 0911 62000000 		.4byte	.LVL207
 6127 0915 0100     		.2byte	0x1
 6128 0917 54       		.byte	0x54
ARM GAS  C:\Users\Phuong\AppData\Local\Temp\ccqvrWt4.s 			page 126


 6129 0918 00000000 		.4byte	0
 6130 091c 00000000 		.4byte	0
 6131              	.LLST34:
 6132 0920 30000000 		.4byte	.LVL199
 6133 0924 42000000 		.4byte	.LVL203
 6134 0928 0100     		.2byte	0x1
 6135 092a 54       		.byte	0x54
 6136 092b 00000000 		.4byte	0
 6137 092f 00000000 		.4byte	0
 6138              	.LLST35:
 6139 0933 00000000 		.4byte	.LVL214
 6140 0937 20000000 		.4byte	.LVL218
 6141 093b 0100     		.2byte	0x1
 6142 093d 50       		.byte	0x50
 6143 093e 20000000 		.4byte	.LVL218
 6144 0942 3A000000 		.4byte	.LVL222
 6145 0946 0100     		.2byte	0x1
 6146 0948 54       		.byte	0x54
 6147 0949 3A000000 		.4byte	.LVL222
 6148 094d AC020000 		.4byte	.LVL330
 6149 0951 0400     		.2byte	0x4
 6150 0953 F3       		.byte	0xf3
 6151 0954 01       		.uleb128 0x1
 6152 0955 50       		.byte	0x50
 6153 0956 9F       		.byte	0x9f
 6154 0957 AC020000 		.4byte	.LVL330
 6155 095b B4020000 		.4byte	.LVL331
 6156 095f 0100     		.2byte	0x1
 6157 0961 50       		.byte	0x50
 6158 0962 B4020000 		.4byte	.LVL331
 6159 0966 E4020000 		.4byte	.LFE15
 6160 096a 0400     		.2byte	0x4
 6161 096c F3       		.byte	0xf3
 6162 096d 01       		.uleb128 0x1
 6163 096e 50       		.byte	0x50
 6164 096f 9F       		.byte	0x9f
 6165 0970 00000000 		.4byte	0
 6166 0974 00000000 		.4byte	0
 6167              	.LLST36:
 6168 0978 00000000 		.4byte	.LVL214
 6169 097c 1E000000 		.4byte	.LVL217
 6170 0980 0100     		.2byte	0x1
 6171 0982 51       		.byte	0x51
 6172 0983 1E000000 		.4byte	.LVL217
 6173 0987 6E000000 		.4byte	.LVL226
 6174 098b 0100     		.2byte	0x1
 6175 098d 55       		.byte	0x55
 6176 098e 6E000000 		.4byte	.LVL226
 6177 0992 70000000 		.4byte	.LVL227
 6178 0996 0400     		.2byte	0x4
 6179 0998 F3       		.byte	0xf3
 6180 0999 01       		.uleb128 0x1
 6181 099a 51       		.byte	0x51
 6182 099b 9F       		.byte	0x9f
 6183 099c 70000000 		.4byte	.LVL227
 6184 09a0 B6000000 		.4byte	.LVL236
 6185 09a4 0100     		.2byte	0x1
ARM GAS  C:\Users\Phuong\AppData\Local\Temp\ccqvrWt4.s 			page 127


 6186 09a6 55       		.byte	0x55
 6187 09a7 B6000000 		.4byte	.LVL236
 6188 09ab B8000000 		.4byte	.LVL237
 6189 09af 0400     		.2byte	0x4
 6190 09b1 F3       		.byte	0xf3
 6191 09b2 01       		.uleb128 0x1
 6192 09b3 51       		.byte	0x51
 6193 09b4 9F       		.byte	0x9f
 6194 09b5 B8000000 		.4byte	.LVL237
 6195 09b9 CA000000 		.4byte	.LVL240
 6196 09bd 0100     		.2byte	0x1
 6197 09bf 55       		.byte	0x55
 6198 09c0 CA000000 		.4byte	.LVL240
 6199 09c4 CC000000 		.4byte	.LVL241
 6200 09c8 0400     		.2byte	0x4
 6201 09ca F3       		.byte	0xf3
 6202 09cb 01       		.uleb128 0x1
 6203 09cc 51       		.byte	0x51
 6204 09cd 9F       		.byte	0x9f
 6205 09ce CC000000 		.4byte	.LVL241
 6206 09d2 DC000000 		.4byte	.LVL244
 6207 09d6 0100     		.2byte	0x1
 6208 09d8 55       		.byte	0x55
 6209 09d9 DC000000 		.4byte	.LVL244
 6210 09dd AC020000 		.4byte	.LVL330
 6211 09e1 0400     		.2byte	0x4
 6212 09e3 F3       		.byte	0xf3
 6213 09e4 01       		.uleb128 0x1
 6214 09e5 51       		.byte	0x51
 6215 09e6 9F       		.byte	0x9f
 6216 09e7 AC020000 		.4byte	.LVL330
 6217 09eb B4020000 		.4byte	.LVL331
 6218 09ef 0100     		.2byte	0x1
 6219 09f1 51       		.byte	0x51
 6220 09f2 B4020000 		.4byte	.LVL331
 6221 09f6 B6020000 		.4byte	.LVL332
 6222 09fa 0100     		.2byte	0x1
 6223 09fc 55       		.byte	0x55
 6224 09fd B6020000 		.4byte	.LVL332
 6225 0a01 B8020000 		.4byte	.LVL333
 6226 0a05 0400     		.2byte	0x4
 6227 0a07 F3       		.byte	0xf3
 6228 0a08 01       		.uleb128 0x1
 6229 0a09 51       		.byte	0x51
 6230 0a0a 9F       		.byte	0x9f
 6231 0a0b B8020000 		.4byte	.LVL333
 6232 0a0f BA020000 		.4byte	.LVL334
 6233 0a13 0100     		.2byte	0x1
 6234 0a15 55       		.byte	0x55
 6235 0a16 BA020000 		.4byte	.LVL334
 6236 0a1a E4020000 		.4byte	.LFE15
 6237 0a1e 0400     		.2byte	0x4
 6238 0a20 F3       		.byte	0xf3
 6239 0a21 01       		.uleb128 0x1
 6240 0a22 51       		.byte	0x51
 6241 0a23 9F       		.byte	0x9f
 6242 0a24 00000000 		.4byte	0
ARM GAS  C:\Users\Phuong\AppData\Local\Temp\ccqvrWt4.s 			page 128


 6243 0a28 00000000 		.4byte	0
 6244              	.LLST37:
 6245 0a2c 00000000 		.4byte	.LVL214
 6246 0a30 1C000000 		.4byte	.LVL216
 6247 0a34 0100     		.2byte	0x1
 6248 0a36 52       		.byte	0x52
 6249 0a37 1C000000 		.4byte	.LVL216
 6250 0a3b 9E000000 		.4byte	.LVL232
 6251 0a3f 0100     		.2byte	0x1
 6252 0a41 56       		.byte	0x56
 6253 0a42 9E000000 		.4byte	.LVL232
 6254 0a46 A9000000 		.4byte	.LVL233-1
 6255 0a4a 0200     		.2byte	0x2
 6256 0a4c 74       		.byte	0x74
 6257 0a4d 04       		.sleb128 4
 6258 0a4e A9000000 		.4byte	.LVL233-1
 6259 0a52 AC020000 		.4byte	.LVL330
 6260 0a56 0400     		.2byte	0x4
 6261 0a58 F3       		.byte	0xf3
 6262 0a59 01       		.uleb128 0x1
 6263 0a5a 52       		.byte	0x52
 6264 0a5b 9F       		.byte	0x9f
 6265 0a5c AC020000 		.4byte	.LVL330
 6266 0a60 B4020000 		.4byte	.LVL331
 6267 0a64 0100     		.2byte	0x1
 6268 0a66 52       		.byte	0x52
 6269 0a67 B4020000 		.4byte	.LVL331
 6270 0a6b BA020000 		.4byte	.LVL334
 6271 0a6f 0100     		.2byte	0x1
 6272 0a71 56       		.byte	0x56
 6273 0a72 BA020000 		.4byte	.LVL334
 6274 0a76 E4020000 		.4byte	.LFE15
 6275 0a7a 0400     		.2byte	0x4
 6276 0a7c F3       		.byte	0xf3
 6277 0a7d 01       		.uleb128 0x1
 6278 0a7e 52       		.byte	0x52
 6279 0a7f 9F       		.byte	0x9f
 6280 0a80 00000000 		.4byte	0
 6281 0a84 00000000 		.4byte	0
 6282              	.LLST38:
 6283 0a88 AA000000 		.4byte	.LVL233
 6284 0a8c B0000000 		.4byte	.LVL234
 6285 0a90 0100     		.2byte	0x1
 6286 0a92 50       		.byte	0x50
 6287 0a93 B8000000 		.4byte	.LVL237
 6288 0a97 C4000000 		.4byte	.LVL238
 6289 0a9b 0100     		.2byte	0x1
 6290 0a9d 50       		.byte	0x50
 6291 0a9e CC000000 		.4byte	.LVL241
 6292 0aa2 D6000000 		.4byte	.LVL242
 6293 0aa6 0100     		.2byte	0x1
 6294 0aa8 50       		.byte	0x50
 6295 0aa9 DC000000 		.4byte	.LVL244
 6296 0aad E0000000 		.4byte	.LVL245
 6297 0ab1 0100     		.2byte	0x1
 6298 0ab3 50       		.byte	0x50
 6299 0ab4 E0000000 		.4byte	.LVL245
ARM GAS  C:\Users\Phuong\AppData\Local\Temp\ccqvrWt4.s 			page 129


 6300 0ab8 EA000000 		.4byte	.LVL247
 6301 0abc 0100     		.2byte	0x1
 6302 0abe 55       		.byte	0x55
 6303 0abf EA000000 		.4byte	.LVL247
 6304 0ac3 EC000000 		.4byte	.LVL248
 6305 0ac7 0500     		.2byte	0x5
 6306 0ac9 75       		.byte	0x75
 6307 0aca 80C300   		.sleb128 8576
 6308 0acd 9F       		.byte	0x9f
 6309 0ace EC000000 		.4byte	.LVL248
 6310 0ad2 04010000 		.4byte	.LVL251
 6311 0ad6 0100     		.2byte	0x1
 6312 0ad8 50       		.byte	0x50
 6313 0ad9 04010000 		.4byte	.LVL251
 6314 0add 0A010000 		.4byte	.LVL253
 6315 0ae1 0100     		.2byte	0x1
 6316 0ae3 55       		.byte	0x55
 6317 0ae4 0A010000 		.4byte	.LVL253
 6318 0ae8 18010000 		.4byte	.LVL254
 6319 0aec 0100     		.2byte	0x1
 6320 0aee 50       		.byte	0x50
 6321 0aef 18010000 		.4byte	.LVL254
 6322 0af3 1E010000 		.4byte	.LVL256
 6323 0af7 0100     		.2byte	0x1
 6324 0af9 55       		.byte	0x55
 6325 0afa 1E010000 		.4byte	.LVL256
 6326 0afe 22010000 		.4byte	.LVL257
 6327 0b02 0100     		.2byte	0x1
 6328 0b04 50       		.byte	0x50
 6329 0b05 22010000 		.4byte	.LVL257
 6330 0b09 28010000 		.4byte	.LVL259
 6331 0b0d 0100     		.2byte	0x1
 6332 0b0f 55       		.byte	0x55
 6333 0b10 28010000 		.4byte	.LVL259
 6334 0b14 30010000 		.4byte	.LVL260
 6335 0b18 0100     		.2byte	0x1
 6336 0b1a 50       		.byte	0x50
 6337 0b1b 30010000 		.4byte	.LVL260
 6338 0b1f 36010000 		.4byte	.LVL262
 6339 0b23 0100     		.2byte	0x1
 6340 0b25 55       		.byte	0x55
 6341 0b26 38010000 		.4byte	.LVL263
 6342 0b2a 4C010000 		.4byte	.LVL264
 6343 0b2e 0100     		.2byte	0x1
 6344 0b30 50       		.byte	0x50
 6345 0b31 4C010000 		.4byte	.LVL264
 6346 0b35 50010000 		.4byte	.LVL265
 6347 0b39 0100     		.2byte	0x1
 6348 0b3b 55       		.byte	0x55
 6349 0b3c 50010000 		.4byte	.LVL265
 6350 0b40 56010000 		.4byte	.LVL266
 6351 0b44 0100     		.2byte	0x1
 6352 0b46 50       		.byte	0x50
 6353 0b47 5E010000 		.4byte	.LVL268
 6354 0b4b 6A010000 		.4byte	.LVL269
 6355 0b4f 0100     		.2byte	0x1
 6356 0b51 50       		.byte	0x50
ARM GAS  C:\Users\Phuong\AppData\Local\Temp\ccqvrWt4.s 			page 130


 6357 0b52 70010000 		.4byte	.LVL271
 6358 0b56 74010000 		.4byte	.LVL272
 6359 0b5a 0100     		.2byte	0x1
 6360 0b5c 50       		.byte	0x50
 6361 0b5d 74010000 		.4byte	.LVL272
 6362 0b61 7E010000 		.4byte	.LVL274
 6363 0b65 0100     		.2byte	0x1
 6364 0b67 55       		.byte	0x55
 6365 0b68 7E010000 		.4byte	.LVL274
 6366 0b6c 80010000 		.4byte	.LVL275
 6367 0b70 0500     		.2byte	0x5
 6368 0b72 75       		.byte	0x75
 6369 0b73 80C300   		.sleb128 8576
 6370 0b76 9F       		.byte	0x9f
 6371 0b77 80010000 		.4byte	.LVL275
 6372 0b7b 90010000 		.4byte	.LVL276
 6373 0b7f 0100     		.2byte	0x1
 6374 0b81 50       		.byte	0x50
 6375 0b82 90010000 		.4byte	.LVL276
 6376 0b86 96010000 		.4byte	.LVL278
 6377 0b8a 0100     		.2byte	0x1
 6378 0b8c 55       		.byte	0x55
 6379 0b8d 96010000 		.4byte	.LVL278
 6380 0b91 9A010000 		.4byte	.LVL279
 6381 0b95 0100     		.2byte	0x1
 6382 0b97 50       		.byte	0x50
 6383 0b98 9A010000 		.4byte	.LVL279
 6384 0b9c A0010000 		.4byte	.LVL281
 6385 0ba0 0100     		.2byte	0x1
 6386 0ba2 55       		.byte	0x55
 6387 0ba3 A0010000 		.4byte	.LVL281
 6388 0ba7 B0010000 		.4byte	.LVL282
 6389 0bab 0100     		.2byte	0x1
 6390 0bad 50       		.byte	0x50
 6391 0bae B0010000 		.4byte	.LVL282
 6392 0bb2 B6010000 		.4byte	.LVL284
 6393 0bb6 0100     		.2byte	0x1
 6394 0bb8 55       		.byte	0x55
 6395 0bb9 B6010000 		.4byte	.LVL284
 6396 0bbd BA010000 		.4byte	.LVL285
 6397 0bc1 0100     		.2byte	0x1
 6398 0bc3 50       		.byte	0x50
 6399 0bc4 BA010000 		.4byte	.LVL285
 6400 0bc8 C0010000 		.4byte	.LVL287
 6401 0bcc 0100     		.2byte	0x1
 6402 0bce 55       		.byte	0x55
 6403 0bcf C0010000 		.4byte	.LVL287
 6404 0bd3 C8010000 		.4byte	.LVL288
 6405 0bd7 0100     		.2byte	0x1
 6406 0bd9 50       		.byte	0x50
 6407 0bda C8010000 		.4byte	.LVL288
 6408 0bde CE010000 		.4byte	.LVL290
 6409 0be2 0100     		.2byte	0x1
 6410 0be4 55       		.byte	0x55
 6411 0be5 CE010000 		.4byte	.LVL290
 6412 0be9 DE010000 		.4byte	.LVL291
 6413 0bed 0100     		.2byte	0x1
ARM GAS  C:\Users\Phuong\AppData\Local\Temp\ccqvrWt4.s 			page 131


 6414 0bef 50       		.byte	0x50
 6415 0bf0 DE010000 		.4byte	.LVL291
 6416 0bf4 E4010000 		.4byte	.LVL293
 6417 0bf8 0100     		.2byte	0x1
 6418 0bfa 55       		.byte	0x55
 6419 0bfb E4010000 		.4byte	.LVL293
 6420 0bff EC010000 		.4byte	.LVL294
 6421 0c03 0100     		.2byte	0x1
 6422 0c05 50       		.byte	0x50
 6423 0c06 EC010000 		.4byte	.LVL294
 6424 0c0a F2010000 		.4byte	.LVL296
 6425 0c0e 0100     		.2byte	0x1
 6426 0c10 55       		.byte	0x55
 6427 0c11 F2010000 		.4byte	.LVL296
 6428 0c15 F6010000 		.4byte	.LVL297
 6429 0c19 0100     		.2byte	0x1
 6430 0c1b 50       		.byte	0x50
 6431 0c1c F6010000 		.4byte	.LVL297
 6432 0c20 FC010000 		.4byte	.LVL299
 6433 0c24 0100     		.2byte	0x1
 6434 0c26 55       		.byte	0x55
 6435 0c27 FC010000 		.4byte	.LVL299
 6436 0c2b 0A020000 		.4byte	.LVL300
 6437 0c2f 0100     		.2byte	0x1
 6438 0c31 50       		.byte	0x50
 6439 0c32 0A020000 		.4byte	.LVL300
 6440 0c36 10020000 		.4byte	.LVL302
 6441 0c3a 0100     		.2byte	0x1
 6442 0c3c 55       		.byte	0x55
 6443 0c3d 10020000 		.4byte	.LVL302
 6444 0c41 14020000 		.4byte	.LVL303
 6445 0c45 0100     		.2byte	0x1
 6446 0c47 50       		.byte	0x50
 6447 0c48 14020000 		.4byte	.LVL303
 6448 0c4c 1A020000 		.4byte	.LVL305
 6449 0c50 0100     		.2byte	0x1
 6450 0c52 55       		.byte	0x55
 6451 0c53 1A020000 		.4byte	.LVL305
 6452 0c57 22020000 		.4byte	.LVL306
 6453 0c5b 0100     		.2byte	0x1
 6454 0c5d 50       		.byte	0x50
 6455 0c5e 22020000 		.4byte	.LVL306
 6456 0c62 28020000 		.4byte	.LVL308
 6457 0c66 0100     		.2byte	0x1
 6458 0c68 55       		.byte	0x55
 6459 0c69 2A020000 		.4byte	.LVL309
 6460 0c6d 3C020000 		.4byte	.LVL312
 6461 0c71 0100     		.2byte	0x1
 6462 0c73 50       		.byte	0x50
 6463 0c74 3C020000 		.4byte	.LVL312
 6464 0c78 42020000 		.4byte	.LVL314
 6465 0c7c 0100     		.2byte	0x1
 6466 0c7e 55       		.byte	0x55
 6467 0c7f 42020000 		.4byte	.LVL314
 6468 0c83 46020000 		.4byte	.LVL315
 6469 0c87 0100     		.2byte	0x1
 6470 0c89 50       		.byte	0x50
ARM GAS  C:\Users\Phuong\AppData\Local\Temp\ccqvrWt4.s 			page 132


 6471 0c8a 46020000 		.4byte	.LVL315
 6472 0c8e 4C020000 		.4byte	.LVL317
 6473 0c92 0100     		.2byte	0x1
 6474 0c94 55       		.byte	0x55
 6475 0c95 4C020000 		.4byte	.LVL317
 6476 0c99 58020000 		.4byte	.LVL318
 6477 0c9d 0100     		.2byte	0x1
 6478 0c9f 50       		.byte	0x50
 6479 0ca0 58020000 		.4byte	.LVL318
 6480 0ca4 5E020000 		.4byte	.LVL320
 6481 0ca8 0100     		.2byte	0x1
 6482 0caa 55       		.byte	0x55
 6483 0cab 90020000 		.4byte	.LVL324
 6484 0caf 94020000 		.4byte	.LVL325
 6485 0cb3 0100     		.2byte	0x1
 6486 0cb5 50       		.byte	0x50
 6487 0cb6 94020000 		.4byte	.LVL325
 6488 0cba 9C020000 		.4byte	.LVL327
 6489 0cbe 0100     		.2byte	0x1
 6490 0cc0 57       		.byte	0x57
 6491 0cc1 9C020000 		.4byte	.LVL327
 6492 0cc5 A4020000 		.4byte	.LVL328
 6493 0cc9 0100     		.2byte	0x1
 6494 0ccb 50       		.byte	0x50
 6495 0ccc A4020000 		.4byte	.LVL328
 6496 0cd0 AC020000 		.4byte	.LVL330
 6497 0cd4 0100     		.2byte	0x1
 6498 0cd6 57       		.byte	0x57
 6499 0cd7 00000000 		.4byte	0
 6500 0cdb 00000000 		.4byte	0
 6501              	.LLST39:
 6502 0cdf 0E000000 		.4byte	.LVL215
 6503 0ce3 9E000000 		.4byte	.LVL232
 6504 0ce7 0200     		.2byte	0x2
 6505 0ce9 30       		.byte	0x30
 6506 0cea 9F       		.byte	0x9f
 6507 0ceb 9E000000 		.4byte	.LVL232
 6508 0cef F6000000 		.4byte	.LVL249
 6509 0cf3 0100     		.2byte	0x1
 6510 0cf5 56       		.byte	0x56
 6511 0cf6 F6000000 		.4byte	.LVL249
 6512 0cfa F8000000 		.4byte	.LVL250
 6513 0cfe 0100     		.2byte	0x1
 6514 0d00 53       		.byte	0x53
 6515 0d01 F8000000 		.4byte	.LVL250
 6516 0d05 34020000 		.4byte	.LVL310
 6517 0d09 0100     		.2byte	0x1
 6518 0d0b 56       		.byte	0x56
 6519 0d0c 34020000 		.4byte	.LVL310
 6520 0d10 36020000 		.4byte	.LVL311
 6521 0d14 0100     		.2byte	0x1
 6522 0d16 53       		.byte	0x53
 6523 0d17 36020000 		.4byte	.LVL311
 6524 0d1b AC020000 		.4byte	.LVL330
 6525 0d1f 0100     		.2byte	0x1
 6526 0d21 56       		.byte	0x56
 6527 0d22 AC020000 		.4byte	.LVL330
ARM GAS  C:\Users\Phuong\AppData\Local\Temp\ccqvrWt4.s 			page 133


 6528 0d26 BA020000 		.4byte	.LVL334
 6529 0d2a 0200     		.2byte	0x2
 6530 0d2c 30       		.byte	0x30
 6531 0d2d 9F       		.byte	0x9f
 6532 0d2e 00000000 		.4byte	0
 6533 0d32 00000000 		.4byte	0
 6534              	.LLST40:
 6535 0d36 0E000000 		.4byte	.LVL215
 6536 0d3a 20000000 		.4byte	.LVL218
 6537 0d3e 0100     		.2byte	0x1
 6538 0d40 50       		.byte	0x50
 6539 0d41 20000000 		.4byte	.LVL218
 6540 0d45 AC020000 		.4byte	.LVL330
 6541 0d49 0100     		.2byte	0x1
 6542 0d4b 54       		.byte	0x54
 6543 0d4c AC020000 		.4byte	.LVL330
 6544 0d50 B4020000 		.4byte	.LVL331
 6545 0d54 0100     		.2byte	0x1
 6546 0d56 50       		.byte	0x50
 6547 0d57 B4020000 		.4byte	.LVL331
 6548 0d5b BE020000 		.4byte	.LVL335
 6549 0d5f 0100     		.2byte	0x1
 6550 0d61 54       		.byte	0x54
 6551 0d62 00000000 		.4byte	0
 6552 0d66 00000000 		.4byte	0
 6553              	.LLST41:
 6554 0d6a 00000000 		.4byte	.LVL336
 6555 0d6e 14000000 		.4byte	.LVL338
 6556 0d72 0100     		.2byte	0x1
 6557 0d74 50       		.byte	0x50
 6558 0d75 14000000 		.4byte	.LVL338
 6559 0d79 98000000 		.4byte	.LVL357
 6560 0d7d 0200     		.2byte	0x2
 6561 0d7f 91       		.byte	0x91
 6562 0d80 54       		.sleb128 -44
 6563 0d81 98000000 		.4byte	.LVL357
 6564 0d85 9A000000 		.4byte	.LVL358
 6565 0d89 0100     		.2byte	0x1
 6566 0d8b 50       		.byte	0x50
 6567 0d8c 9A000000 		.4byte	.LVL358
 6568 0d90 9C000000 		.4byte	.LVL359
 6569 0d94 0200     		.2byte	0x2
 6570 0d96 91       		.byte	0x91
 6571 0d97 54       		.sleb128 -44
 6572 0d98 9C000000 		.4byte	.LVL359
 6573 0d9c 9E000000 		.4byte	.LVL360
 6574 0da0 0100     		.2byte	0x1
 6575 0da2 50       		.byte	0x50
 6576 0da3 9E000000 		.4byte	.LVL360
 6577 0da7 B8000000 		.4byte	.LFE16
 6578 0dab 0200     		.2byte	0x2
 6579 0dad 91       		.byte	0x91
 6580 0dae 54       		.sleb128 -44
 6581 0daf 00000000 		.4byte	0
 6582 0db3 00000000 		.4byte	0
 6583              	.LLST42:
 6584 0db7 00000000 		.4byte	.LVL336
ARM GAS  C:\Users\Phuong\AppData\Local\Temp\ccqvrWt4.s 			page 134


 6585 0dbb 14000000 		.4byte	.LVL338
 6586 0dbf 0100     		.2byte	0x1
 6587 0dc1 51       		.byte	0x51
 6588 0dc2 14000000 		.4byte	.LVL338
 6589 0dc6 98000000 		.4byte	.LVL357
 6590 0dca 0100     		.2byte	0x1
 6591 0dcc 56       		.byte	0x56
 6592 0dcd 98000000 		.4byte	.LVL357
 6593 0dd1 A0000000 		.4byte	.LVL361
 6594 0dd5 0100     		.2byte	0x1
 6595 0dd7 51       		.byte	0x51
 6596 0dd8 A0000000 		.4byte	.LVL361
 6597 0ddc A4000000 		.4byte	.LVL364
 6598 0de0 0100     		.2byte	0x1
 6599 0de2 56       		.byte	0x56
 6600 0de3 00000000 		.4byte	0
 6601 0de7 00000000 		.4byte	0
 6602              	.LLST43:
 6603 0deb 00000000 		.4byte	.LVL336
 6604 0def 14000000 		.4byte	.LVL338
 6605 0df3 0100     		.2byte	0x1
 6606 0df5 52       		.byte	0x52
 6607 0df6 14000000 		.4byte	.LVL338
 6608 0dfa 98000000 		.4byte	.LVL357
 6609 0dfe 0100     		.2byte	0x1
 6610 0e00 54       		.byte	0x54
 6611 0e01 98000000 		.4byte	.LVL357
 6612 0e05 A0000000 		.4byte	.LVL361
 6613 0e09 0100     		.2byte	0x1
 6614 0e0b 52       		.byte	0x52
 6615 0e0c A0000000 		.4byte	.LVL361
 6616 0e10 A4000000 		.4byte	.LVL363
 6617 0e14 0100     		.2byte	0x1
 6618 0e16 54       		.byte	0x54
 6619 0e17 00000000 		.4byte	0
 6620 0e1b 00000000 		.4byte	0
 6621              	.LLST44:
 6622 0e1f 40000000 		.4byte	.LVL341
 6623 0e23 42000000 		.4byte	.LVL342
 6624 0e27 0100     		.2byte	0x1
 6625 0e29 50       		.byte	0x50
 6626 0e2a 48000000 		.4byte	.LVL343
 6627 0e2e 5E000000 		.4byte	.LVL348
 6628 0e32 0100     		.2byte	0x1
 6629 0e34 55       		.byte	0x55
 6630 0e35 5E000000 		.4byte	.LVL348
 6631 0e39 62000000 		.4byte	.LVL349
 6632 0e3d 0100     		.2byte	0x1
 6633 0e3f 50       		.byte	0x50
 6634 0e40 62000000 		.4byte	.LVL349
 6635 0e44 78000000 		.4byte	.LVL353
 6636 0e48 0100     		.2byte	0x1
 6637 0e4a 55       		.byte	0x55
 6638 0e4b 78000000 		.4byte	.LVL353
 6639 0e4f 7A000000 		.4byte	.LVL354
 6640 0e53 0100     		.2byte	0x1
 6641 0e55 50       		.byte	0x50
ARM GAS  C:\Users\Phuong\AppData\Local\Temp\ccqvrWt4.s 			page 135


 6642 0e56 7A000000 		.4byte	.LVL354
 6643 0e5a 98000000 		.4byte	.LVL357
 6644 0e5e 0100     		.2byte	0x1
 6645 0e60 55       		.byte	0x55
 6646 0e61 A0000000 		.4byte	.LVL361
 6647 0e65 A2000000 		.4byte	.LVL362
 6648 0e69 0100     		.2byte	0x1
 6649 0e6b 55       		.byte	0x55
 6650 0e6c 00000000 		.4byte	0
 6651 0e70 00000000 		.4byte	0
 6652              	.LLST45:
 6653 0e74 0A000000 		.4byte	.LVL337
 6654 0e78 14000000 		.4byte	.LVL338
 6655 0e7c 0200     		.2byte	0x2
 6656 0e7e 30       		.byte	0x30
 6657 0e7f 9F       		.byte	0x9f
 6658 0e80 14000000 		.4byte	.LVL338
 6659 0e84 4C000000 		.4byte	.LVL344
 6660 0e88 0100     		.2byte	0x1
 6661 0e8a 57       		.byte	0x57
 6662 0e8b 4C000000 		.4byte	.LVL344
 6663 0e8f 6A000000 		.4byte	.LVL351
 6664 0e93 0200     		.2byte	0x2
 6665 0e95 31       		.byte	0x31
 6666 0e96 9F       		.byte	0x9f
 6667 0e97 6A000000 		.4byte	.LVL351
 6668 0e9b 78000000 		.4byte	.LVL353
 6669 0e9f 0100     		.2byte	0x1
 6670 0ea1 57       		.byte	0x57
 6671 0ea2 78000000 		.4byte	.LVL353
 6672 0ea6 7A000000 		.4byte	.LVL354
 6673 0eaa 0200     		.2byte	0x2
 6674 0eac 31       		.byte	0x31
 6675 0ead 9F       		.byte	0x9f
 6676 0eae 7A000000 		.4byte	.LVL354
 6677 0eb2 98000000 		.4byte	.LVL357
 6678 0eb6 0100     		.2byte	0x1
 6679 0eb8 57       		.byte	0x57
 6680 0eb9 98000000 		.4byte	.LVL357
 6681 0ebd A0000000 		.4byte	.LVL361
 6682 0ec1 0200     		.2byte	0x2
 6683 0ec3 30       		.byte	0x30
 6684 0ec4 9F       		.byte	0x9f
 6685 0ec5 A0000000 		.4byte	.LVL361
 6686 0ec9 A2000000 		.4byte	.LVL362
 6687 0ecd 0100     		.2byte	0x1
 6688 0ecf 57       		.byte	0x57
 6689 0ed0 00000000 		.4byte	0
 6690 0ed4 00000000 		.4byte	0
 6691              		.section	.debug_aranges,"",%progbits
 6692 0000 5C000000 		.4byte	0x5c
 6693 0004 0200     		.2byte	0x2
 6694 0006 00000000 		.4byte	.Ldebug_info0
 6695 000a 04       		.byte	0x4
 6696 000b 00       		.byte	0
 6697 000c 0000     		.2byte	0
 6698 000e 0000     		.2byte	0
ARM GAS  C:\Users\Phuong\AppData\Local\Temp\ccqvrWt4.s 			page 136


 6699 0010 00000000 		.4byte	.LFB13
 6700 0014 88000000 		.4byte	.LFE13-.LFB13
 6701 0018 00000000 		.4byte	.LFB11
 6702 001c 2C000000 		.4byte	.LFE11-.LFB11
 6703 0020 00000000 		.4byte	.LFB14
 6704 0024 B4000000 		.4byte	.LFE14-.LFB14
 6705 0028 00000000 		.4byte	.LFB12
 6706 002c D4000000 		.4byte	.LFE12-.LFB12
 6707 0030 00000000 		.4byte	.LFB17
 6708 0034 50020000 		.4byte	.LFE17-.LFB17
 6709 0038 00000000 		.4byte	.LFB18
 6710 003c 0C000000 		.4byte	.LFE18-.LFB18
 6711 0040 00000000 		.4byte	.LFB19
 6712 0044 7E000000 		.4byte	.LFE19-.LFB19
 6713 0048 00000000 		.4byte	.LFB15
 6714 004c E4020000 		.4byte	.LFE15-.LFB15
 6715 0050 00000000 		.4byte	.LFB16
 6716 0054 B8000000 		.4byte	.LFE16-.LFB16
 6717 0058 00000000 		.4byte	0
 6718 005c 00000000 		.4byte	0
 6719              		.section	.debug_ranges,"",%progbits
 6720              	.Ldebug_ranges0:
 6721 0000 00000000 		.4byte	.LFB13
 6722 0004 88000000 		.4byte	.LFE13
 6723 0008 00000000 		.4byte	.LFB11
 6724 000c 2C000000 		.4byte	.LFE11
 6725 0010 00000000 		.4byte	.LFB14
 6726 0014 B4000000 		.4byte	.LFE14
 6727 0018 00000000 		.4byte	.LFB12
 6728 001c D4000000 		.4byte	.LFE12
 6729 0020 00000000 		.4byte	.LFB17
 6730 0024 50020000 		.4byte	.LFE17
 6731 0028 00000000 		.4byte	.LFB18
 6732 002c 0C000000 		.4byte	.LFE18
 6733 0030 00000000 		.4byte	.LFB19
 6734 0034 7E000000 		.4byte	.LFE19
 6735 0038 00000000 		.4byte	.LFB15
 6736 003c E4020000 		.4byte	.LFE15
 6737 0040 00000000 		.4byte	.LFB16
 6738 0044 B8000000 		.4byte	.LFE16
 6739 0048 00000000 		.4byte	0
 6740 004c 00000000 		.4byte	0
 6741              		.section	.debug_line,"",%progbits
 6742              	.Ldebug_line0:
 6743 0000 C5040000 		.section	.debug_str,"MS",%progbits,1
 6743      0200BE01 
 6743      00000201 
 6743      FB0E0D00 
 6743      01010101 
 6744              	.LASF86:
 6745 0000 6D626564 		.ascii	"mbedtls_x509_crl_parse\000"
 6745      746C735F 
 6745      78353039 
 6745      5F63726C 
 6745      5F706172 
 6746              	.LASF84:
 6747 0017 7369675F 		.ascii	"sig_params1\000"
ARM GAS  C:\Users\Phuong\AppData\Local\Temp\ccqvrWt4.s 			page 137


 6747      70617261 
 6747      6D733100 
 6748              	.LASF30:
 6749 0023 4D424544 		.ascii	"MBEDTLS_PK_ECKEY_DH\000"
 6749      544C535F 
 6749      504B5F45 
 6749      434B4559 
 6749      5F444800 
 6750              	.LASF47:
 6751 0037 69737375 		.ascii	"issuer_raw\000"
 6751      65725F72 
 6751      617700
 6752              	.LASF25:
 6753 0042 6D626564 		.ascii	"mbedtls_md_type_t\000"
 6753      746C735F 
 6753      6D645F74 
 6753      7970655F 
 6753      7400
 6754              	.LASF8:
 6755 0054 756E7369 		.ascii	"unsigned int\000"
 6755      676E6564 
 6755      20696E74 
 6755      00
 6756              	.LASF13:
 6757 0061 6E657874 		.ascii	"next\000"
 6757      00
 6758              	.LASF45:
 6759 0066 76657273 		.ascii	"version\000"
 6759      696F6E00 
 6760              	.LASF99:
 6761 006e 6D626564 		.ascii	"mbedtls_x509_sig_alg_gets\000"
 6761      746C735F 
 6761      78353039 
 6761      5F736967 
 6761      5F616C67 
 6762              	.LASF78:
 6763 0088 6E616D65 		.ascii	"name_prv\000"
 6763      5F707276 
 6763      00
 6764              	.LASF55:
 6765 0091 7369675F 		.ascii	"sig_pk\000"
 6765      706B00
 6766              	.LASF98:
 6767 0098 6D626564 		.ascii	"mbedtls_x509_serial_gets\000"
 6767      746C735F 
 6767      78353039 
 6767      5F736572 
 6767      69616C5F 
 6768              	.LASF69:
 6769 00b1 69735F63 		.ascii	"is_critical\000"
 6769      72697469 
 6769      63616C00 
 6770              	.LASF40:
 6771 00bd 6D626564 		.ascii	"mbedtls_x509_crl_entry\000"
 6771      746C735F 
 6771      78353039 
 6771      5F63726C 
ARM GAS  C:\Users\Phuong\AppData\Local\Temp\ccqvrWt4.s 			page 138


 6771      5F656E74 
 6772              	.LASF46:
 6773 00d4 7369675F 		.ascii	"sig_oid\000"
 6773      6F696400 
 6774              	.LASF113:
 6775 00dc 536F7572 		.ascii	"Source\\mbedtls_open\\library\\x509_crl.c\000"
 6775      63655C6D 
 6775      62656474 
 6775      6C735F6F 
 6775      70656E5C 
 6776              	.LASF70:
 6777 0103 656E645F 		.ascii	"end_ext_data\000"
 6777      6578745F 
 6777      64617461 
 6777      00
 6778              	.LASF77:
 6779 0110 6E616D65 		.ascii	"name_cur\000"
 6779      5F637572 
 6779      00
 6780              	.LASF37:
 6781 0119 6D626564 		.ascii	"mbedtls_x509_time\000"
 6781      746C735F 
 6781      78353039 
 6781      5F74696D 
 6781      6500
 6782              	.LASF28:
 6783 012b 4D424544 		.ascii	"MBEDTLS_PK_RSA\000"
 6783      544C535F 
 6783      504B5F52 
 6783      534100
 6784              	.LASF20:
 6785 013a 4D424544 		.ascii	"MBEDTLS_MD_SHA224\000"
 6785      544C535F 
 6785      4D445F53 
 6785      48413232 
 6785      3400
 6786              	.LASF58:
 6787 014c 6D626564 		.ascii	"mbedtls_pem_context\000"
 6787      746C735F 
 6787      70656D5F 
 6787      636F6E74 
 6787      65787400 
 6788              	.LASF93:
 6789 0160 63616C6C 		.ascii	"calloc\000"
 6789      6F6300
 6790              	.LASF35:
 6791 0167 6D626564 		.ascii	"mbedtls_x509_buf\000"
 6791      746C735F 
 6791      78353039 
 6791      5F627566 
 6791      00
 6792              	.LASF56:
 6793 0178 7369675F 		.ascii	"sig_opts\000"
 6793      6F707473 
 6793      00
 6794              	.LASF66:
 6795 0181 6C656E32 		.ascii	"len2\000"
ARM GAS  C:\Users\Phuong\AppData\Local\Temp\ccqvrWt4.s 			page 139


 6795      00
 6796              	.LASF61:
 6797 0186 78353039 		.ascii	"x509_get_crl_entry_ext\000"
 6797      5F676574 
 6797      5F63726C 
 6797      5F656E74 
 6797      72795F65 
 6798              	.LASF112:
 6799 019d 474E5520 		.ascii	"GNU C11 5.4.1 20160609 (release) [ARM/embedded-5-br"
 6799      43313120 
 6799      352E342E 
 6799      31203230 
 6799      31363036 
 6800 01d0 616E6368 		.ascii	"anch revision 237715] -mcpu=cortex-m0plus -mthumb -"
 6800      20726576 
 6800      6973696F 
 6800      6E203233 
 6800      37373135 
 6801 0203 67202D4F 		.ascii	"g -Og -ffunction-sections -ffat-lto-objects\000"
 6801      67202D66 
 6801      66756E63 
 6801      74696F6E 
 6801      2D736563 
 6802              	.LASF7:
 6803 022f 6C6F6E67 		.ascii	"long long unsigned int\000"
 6803      206C6F6E 
 6803      6720756E 
 6803      7369676E 
 6803      65642069 
 6804              	.LASF23:
 6805 0246 4D424544 		.ascii	"MBEDTLS_MD_SHA512\000"
 6805      544C535F 
 6805      4D445F53 
 6805      48413531 
 6805      3200
 6806              	.LASF29:
 6807 0258 4D424544 		.ascii	"MBEDTLS_PK_ECKEY\000"
 6807      544C535F 
 6807      504B5F45 
 6807      434B4559 
 6807      00
 6808              	.LASF80:
 6809 0269 656E7472 		.ascii	"entry_prv\000"
 6809      795F7072 
 6809      7600
 6810              	.LASF110:
 6811 0273 6D626564 		.ascii	"mbedtls_pem_read_buffer\000"
 6811      746C735F 
 6811      70656D5F 
 6811      72656164 
 6811      5F627566 
 6812              	.LASF32:
 6813 028b 4D424544 		.ascii	"MBEDTLS_PK_RSA_ALT\000"
 6813      544C535F 
 6813      504B5F52 
 6813      53415F41 
 6813      4C5400
ARM GAS  C:\Users\Phuong\AppData\Local\Temp\ccqvrWt4.s 			page 140


 6814              	.LASF43:
 6815 029e 656E7472 		.ascii	"entry_ext\000"
 6815      795F6578 
 6815      7400
 6816              	.LASF114:
 6817 02a8 433A5C55 		.ascii	"C:\\Users\\Phuong\\Documents\\PSoC Creator\\Dec0820"
 6817      73657273 
 6817      5C506875 
 6817      6F6E675C 
 6817      446F6375 
 6818 02d6 31385C69 		.ascii	"18\\iot-sdk-iot-dev\\PSOC6_FreeRTOS+LwIP+MbedTLS_Az"
 6818      6F742D73 
 6818      646B2D69 
 6818      6F742D64 
 6818      65765C50 
 6819 0307 7572652D 		.ascii	"ure-IOT-Hub-Demo\\PSOC6_FreeRTOS+LwIP+MbedTLS_Azure"
 6819      494F542D 
 6819      4875622D 
 6819      44656D6F 
 6819      5C50534F 
 6820 0339 2D494F54 		.ascii	"-IOT-Hub-Demo.cydsn\000"
 6820      2D487562 
 6820      2D44656D 
 6820      6F2E6379 
 6820      64736E00 
 6821              	.LASF79:
 6822 034d 656E7472 		.ascii	"entry_cur\000"
 6822      795F6375 
 6822      7200
 6823              	.LASF42:
 6824 0357 7265766F 		.ascii	"revocation_date\000"
 6824      63617469 
 6824      6F6E5F64 
 6824      61746500 
 6825              	.LASF53:
 6826 0367 7369675F 		.ascii	"sig_oid2\000"
 6826      6F696432 
 6826      00
 6827              	.LASF72:
 6828 0370 70726566 		.ascii	"prefix\000"
 6828      697800
 6829              	.LASF10:
 6830 0377 73697A65 		.ascii	"size_t\000"
 6830      5F7400
 6831              	.LASF14:
 6832 037e 6E657874 		.ascii	"next_merged\000"
 6832      5F6D6572 
 6832      67656400 
 6833              	.LASF21:
 6834 038a 4D424544 		.ascii	"MBEDTLS_MD_SHA256\000"
 6834      544C535F 
 6834      4D445F53 
 6834      48413235 
 6834      3600
 6835              	.LASF95:
 6836 039c 6D626564 		.ascii	"mbedtls_x509_get_ext\000"
 6836      746C735F 
ARM GAS  C:\Users\Phuong\AppData\Local\Temp\ccqvrWt4.s 			page 141


 6836      78353039 
 6836      5F676574 
 6836      5F657874 
 6837              	.LASF89:
 6838 03b1 6D626564 		.ascii	"mbedtls_asn1_get_tag\000"
 6838      746C735F 
 6838      61736E31 
 6838      5F676574 
 6838      5F746167 
 6839              	.LASF100:
 6840 03c6 66726565 		.ascii	"free\000"
 6840      00
 6841              	.LASF31:
 6842 03cb 4D424544 		.ascii	"MBEDTLS_PK_ECDSA\000"
 6842      544C535F 
 6842      504B5F45 
 6842      43445341 
 6842      00
 6843              	.LASF27:
 6844 03dc 4D424544 		.ascii	"MBEDTLS_PK_NONE\000"
 6844      544C535F 
 6844      504B5F4E 
 6844      4F4E4500 
 6845              	.LASF39:
 6846 03ec 686F7572 		.ascii	"hour\000"
 6846      00
 6847              	.LASF68:
 6848 03f1 78353039 		.ascii	"x509_get_crl_ext\000"
 6848      5F676574 
 6848      5F63726C 
 6848      5F657874 
 6848      00
 6849              	.LASF44:
 6850 0402 6D626564 		.ascii	"mbedtls_x509_crl\000"
 6850      746C735F 
 6850      78353039 
 6850      5F63726C 
 6850      00
 6851              	.LASF109:
 6852 0413 6D626564 		.ascii	"mbedtls_pem_init\000"
 6852      746C735F 
 6852      70656D5F 
 6852      696E6974 
 6852      00
 6853              	.LASF94:
 6854 0424 6D626564 		.ascii	"mbedtls_asn1_get_bool\000"
 6854      746C735F 
 6854      61736E31 
 6854      5F676574 
 6854      5F626F6F 
 6855              	.LASF26:
 6856 043a 63686172 		.ascii	"char\000"
 6856      00
 6857              	.LASF74:
 6858 043f 6D626564 		.ascii	"mbedtls_x509_crl_free\000"
 6858      746C735F 
 6858      78353039 
ARM GAS  C:\Users\Phuong\AppData\Local\Temp\ccqvrWt4.s 			page 142


 6858      5F63726C 
 6858      5F667265 
 6859              	.LASF59:
 6860 0455 6275666C 		.ascii	"buflen\000"
 6860      656E00
 6861              	.LASF91:
 6862 045c 6D626564 		.ascii	"mbedtls_x509_get_serial\000"
 6862      746C735F 
 6862      78353039 
 6862      5F676574 
 6862      5F736572 
 6863              	.LASF34:
 6864 0474 6D626564 		.ascii	"mbedtls_pk_type_t\000"
 6864      746C735F 
 6864      706B5F74 
 6864      7970655F 
 6864      7400
 6865              	.LASF48:
 6866 0486 69737375 		.ascii	"issuer\000"
 6866      657200
 6867              	.LASF36:
 6868 048d 6D626564 		.ascii	"mbedtls_x509_name\000"
 6868      746C735F 
 6868      78353039 
 6868      5F6E616D 
 6868      6500
 6869              	.LASF6:
 6870 049f 6C6F6E67 		.ascii	"long long int\000"
 6870      206C6F6E 
 6870      6720696E 
 6870      7400
 6871              	.LASF92:
 6872 04ad 6D626564 		.ascii	"mbedtls_x509_get_time\000"
 6872      746C735F 
 6872      78353039 
 6872      5F676574 
 6872      5F74696D 
 6873              	.LASF15:
 6874 04c3 4D424544 		.ascii	"MBEDTLS_MD_NONE\000"
 6874      544C535F 
 6874      4D445F4E 
 6874      4F4E4500 
 6875              	.LASF102:
 6876 04d3 6D656D73 		.ascii	"memset\000"
 6876      657400
 6877              	.LASF33:
 6878 04da 4D424544 		.ascii	"MBEDTLS_PK_RSASSA_PSS\000"
 6878      544C535F 
 6878      504B5F52 
 6878      53415353 
 6878      415F5053 
 6879              	.LASF103:
 6880 04f0 6D656D63 		.ascii	"memcpy\000"
 6880      707900
 6881              	.LASF96:
 6882 04f7 736E7072 		.ascii	"snprintf\000"
 6882      696E7466 
ARM GAS  C:\Users\Phuong\AppData\Local\Temp\ccqvrWt4.s 			page 143


 6882      00
 6883              	.LASF71:
 6884 0500 73697A65 		.ascii	"size\000"
 6884      00
 6885              	.LASF87:
 6886 0505 7573655F 		.ascii	"use_len\000"
 6886      6C656E00 
 6887              	.LASF67:
 6888 050d 656E6432 		.ascii	"end2\000"
 6888      00
 6889              	.LASF60:
 6890 0512 696E666F 		.ascii	"info\000"
 6890      00
 6891              	.LASF63:
 6892 0517 78353039 		.ascii	"x509_get_entries\000"
 6892      5F676574 
 6892      5F656E74 
 6892      72696573 
 6892      00
 6893              	.LASF9:
 6894 0528 6C6F6E67 		.ascii	"long double\000"
 6894      20646F75 
 6894      626C6500 
 6895              	.LASF81:
 6896 0534 6D626564 		.ascii	"mbedtls_x509_crl_info\000"
 6896      746C735F 
 6896      78353039 
 6896      5F63726C 
 6896      5F696E66 
 6897              	.LASF105:
 6898 054a 6D626564 		.ascii	"mbedtls_x509_get_sig_alg\000"
 6898      746C735F 
 6898      78353039 
 6898      5F676574 
 6898      5F736967 
 6899              	.LASF2:
 6900 0563 73686F72 		.ascii	"short int\000"
 6900      7420696E 
 6900      7400
 6901              	.LASF4:
 6902 056d 6C6F6E67 		.ascii	"long int\000"
 6902      20696E74 
 6902      00
 6903              	.LASF85:
 6904 0576 7369675F 		.ascii	"sig_params2\000"
 6904      70617261 
 6904      6D733200 
 6905              	.LASF11:
 6906 0582 6D626564 		.ascii	"mbedtls_asn1_buf\000"
 6906      746C735F 
 6906      61736E31 
 6906      5F627566 
 6906      00
 6907              	.LASF107:
 6908 0593 6D656D63 		.ascii	"memcmp\000"
 6908      6D7000
 6909              	.LASF62:
ARM GAS  C:\Users\Phuong\AppData\Local\Temp\ccqvrWt4.s 			page 144


 6910 059a 78353039 		.ascii	"x509_crl_get_version\000"
 6910      5F63726C 
 6910      5F676574 
 6910      5F766572 
 6910      73696F6E 
 6911              	.LASF82:
 6912 05af 6D626564 		.ascii	"mbedtls_x509_crl_parse_der\000"
 6912      746C735F 
 6912      78353039 
 6912      5F63726C 
 6912      5F706172 
 6913              	.LASF19:
 6914 05ca 4D424544 		.ascii	"MBEDTLS_MD_SHA1\000"
 6914      544C535F 
 6914      4D445F53 
 6914      48413100 
 6915              	.LASF16:
 6916 05da 4D424544 		.ascii	"MBEDTLS_MD_MD2\000"
 6916      544C535F 
 6916      4D445F4D 
 6916      443200
 6917              	.LASF17:
 6918 05e9 4D424544 		.ascii	"MBEDTLS_MD_MD4\000"
 6918      544C535F 
 6918      4D445F4D 
 6918      443400
 6919              	.LASF18:
 6920 05f8 4D424544 		.ascii	"MBEDTLS_MD_MD5\000"
 6920      544C535F 
 6920      4D445F4D 
 6920      443500
 6921              	.LASF57:
 6922 0607 73697A65 		.ascii	"sizetype\000"
 6922      74797065 
 6922      00
 6923              	.LASF5:
 6924 0610 6C6F6E67 		.ascii	"long unsigned int\000"
 6924      20756E73 
 6924      69676E65 
 6924      6420696E 
 6924      7400
 6925              	.LASF38:
 6926 0622 79656172 		.ascii	"year\000"
 6926      00
 6927              	.LASF41:
 6928 0627 73657269 		.ascii	"serial\000"
 6928      616C00
 6929              	.LASF64:
 6930 062e 656E7472 		.ascii	"entry_len\000"
 6930      795F6C65 
 6930      6E00
 6931              	.LASF51:
 6932 0638 656E7472 		.ascii	"entry\000"
 6932      7900
 6933              	.LASF1:
 6934 063e 756E7369 		.ascii	"unsigned char\000"
 6934      676E6564 
ARM GAS  C:\Users\Phuong\AppData\Local\Temp\ccqvrWt4.s 			page 145


 6934      20636861 
 6934      7200
 6935              	.LASF73:
 6936 064c 6D626564 		.ascii	"mbedtls_x509_crl_init\000"
 6936      746C735F 
 6936      78353039 
 6936      5F63726C 
 6936      5F696E69 
 6937              	.LASF90:
 6938 0662 6D626564 		.ascii	"mbedtls_asn1_get_int\000"
 6938      746C735F 
 6938      61736E31 
 6938      5F676574 
 6938      5F696E74 
 6939              	.LASF97:
 6940 0677 6D626564 		.ascii	"mbedtls_x509_dn_gets\000"
 6940      746C735F 
 6940      78353039 
 6940      5F646E5F 
 6940      67657473 
 6941              	.LASF49:
 6942 068c 74686973 		.ascii	"this_update\000"
 6942      5F757064 
 6942      61746500 
 6943              	.LASF106:
 6944 0698 6D626564 		.ascii	"mbedtls_x509_get_name\000"
 6944      746C735F 
 6944      78353039 
 6944      5F676574 
 6944      5F6E616D 
 6945              	.LASF12:
 6946 06ae 6D626564 		.ascii	"mbedtls_asn1_named_data\000"
 6946      746C735F 
 6946      61736E31 
 6946      5F6E616D 
 6946      65645F64 
 6947              	.LASF76:
 6948 06c6 63726C5F 		.ascii	"crl_prv\000"
 6948      70727600 
 6949              	.LASF54:
 6950 06ce 7369675F 		.ascii	"sig_md\000"
 6950      6D6400
 6951              	.LASF108:
 6952 06d5 6D626564 		.ascii	"mbedtls_x509_get_sig\000"
 6952      746C735F 
 6952      78353039 
 6952      5F676574 
 6952      5F736967 
 6953              	.LASF65:
 6954 06ea 6375725F 		.ascii	"cur_entry\000"
 6954      656E7472 
 6954      7900
 6955              	.LASF52:
 6956 06f4 63726C5F 		.ascii	"crl_ext\000"
 6956      65787400 
 6957              	.LASF0:
 6958 06fc 7369676E 		.ascii	"signed char\000"
ARM GAS  C:\Users\Phuong\AppData\Local\Temp\ccqvrWt4.s 			page 146


 6958      65642063 
 6958      68617200 
 6959              	.LASF24:
 6960 0708 4D424544 		.ascii	"MBEDTLS_MD_RIPEMD160\000"
 6960      544C535F 
 6960      4D445F52 
 6960      4950454D 
 6960      44313630 
 6961              	.LASF75:
 6962 071d 63726C5F 		.ascii	"crl_cur\000"
 6962      63757200 
 6963              	.LASF3:
 6964 0725 73686F72 		.ascii	"short unsigned int\000"
 6964      7420756E 
 6964      7369676E 
 6964      65642069 
 6964      6E7400
 6965              	.LASF50:
 6966 0738 6E657874 		.ascii	"next_update\000"
 6966      5F757064 
 6966      61746500 
 6967              	.LASF83:
 6968 0744 63686169 		.ascii	"chain\000"
 6968      6E00
 6969              	.LASF22:
 6970 074a 4D424544 		.ascii	"MBEDTLS_MD_SHA384\000"
 6970      544C535F 
 6970      4D445F53 
 6970      48413338 
 6970      3400
 6971              	.LASF88:
 6972 075c 69735F70 		.ascii	"is_pem\000"
 6972      656D00
 6973              	.LASF104:
 6974 0763 6D626564 		.ascii	"mbedtls_x509_get_alg\000"
 6974      746C735F 
 6974      78353039 
 6974      5F676574 
 6974      5F616C67 
 6975              	.LASF101:
 6976 0778 6D626564 		.ascii	"mbedtls_platform_zeroize\000"
 6976      746C735F 
 6976      706C6174 
 6976      666F726D 
 6976      5F7A6572 
 6977              	.LASF111:
 6978 0791 6D626564 		.ascii	"mbedtls_pem_free\000"
 6978      746C735F 
 6978      70656D5F 
 6978      66726565 
 6978      00
 6979              		.ident	"GCC: (GNU Tools for ARM Embedded Processors) 5.4.1 20160609 (release) [ARM/embedded-5-bran
