ARM GAS  C:\Users\Phuong\AppData\Local\Temp\cciPItDa.s 			page 1


   1              		.syntax unified
   2              		.cpu cortex-m0plus
   3              		.fpu softvfp
   4              		.eabi_attribute 20, 1
   5              		.eabi_attribute 21, 1
   6              		.eabi_attribute 23, 3
   7              		.eabi_attribute 24, 1
   8              		.eabi_attribute 25, 1
   9              		.eabi_attribute 26, 1
  10              		.eabi_attribute 30, 1
  11              		.eabi_attribute 34, 0
  12              		.eabi_attribute 18, 4
  13              		.thumb
  14              		.syntax unified
  15              		.file	"x509.c"
  16              		.text
  17              	.Ltext0:
  18              		.cfi_sections	.debug_frame
  19              		.section	.text.x509_parse_int,"ax",%progbits
  20              		.align	2
  21              		.code	16
  22              		.thumb_func
  23              		.type	x509_parse_int, %function
  24              	x509_parse_int:
  25              	.LFB18:
  26              		.file 1 "Source\\mbedtls_open\\library\\x509.c"
   1:Source\mbedtls_open\library/x509.c **** /*
   2:Source\mbedtls_open\library/x509.c ****  *  X.509 common functions for parsing and verification
   3:Source\mbedtls_open\library/x509.c ****  *
   4:Source\mbedtls_open\library/x509.c ****  *  Copyright (C) 2006-2015, ARM Limited, All Rights Reserved
   5:Source\mbedtls_open\library/x509.c ****  *  SPDX-License-Identifier: Apache-2.0
   6:Source\mbedtls_open\library/x509.c ****  *
   7:Source\mbedtls_open\library/x509.c ****  *  Licensed under the Apache License, Version 2.0 (the "License"); you may
   8:Source\mbedtls_open\library/x509.c ****  *  not use this file except in compliance with the License.
   9:Source\mbedtls_open\library/x509.c ****  *  You may obtain a copy of the License at
  10:Source\mbedtls_open\library/x509.c ****  *
  11:Source\mbedtls_open\library/x509.c ****  *  http://www.apache.org/licenses/LICENSE-2.0
  12:Source\mbedtls_open\library/x509.c ****  *
  13:Source\mbedtls_open\library/x509.c ****  *  Unless required by applicable law or agreed to in writing, software
  14:Source\mbedtls_open\library/x509.c ****  *  distributed under the License is distributed on an "AS IS" BASIS, WITHOUT
  15:Source\mbedtls_open\library/x509.c ****  *  WARRANTIES OR CONDITIONS OF ANY KIND, either express or implied.
  16:Source\mbedtls_open\library/x509.c ****  *  See the License for the specific language governing permissions and
  17:Source\mbedtls_open\library/x509.c ****  *  limitations under the License.
  18:Source\mbedtls_open\library/x509.c ****  *
  19:Source\mbedtls_open\library/x509.c ****  *  This file is part of mbed TLS (https://tls.mbed.org)
  20:Source\mbedtls_open\library/x509.c ****  */
  21:Source\mbedtls_open\library/x509.c **** /*
  22:Source\mbedtls_open\library/x509.c ****  *  The ITU-T X.509 standard defines a certificate format for PKI.
  23:Source\mbedtls_open\library/x509.c ****  *
  24:Source\mbedtls_open\library/x509.c ****  *  http://www.ietf.org/rfc/rfc5280.txt (Certificates and CRLs)
  25:Source\mbedtls_open\library/x509.c ****  *  http://www.ietf.org/rfc/rfc3279.txt (Alg IDs for CRLs)
  26:Source\mbedtls_open\library/x509.c ****  *  http://www.ietf.org/rfc/rfc2986.txt (CSRs, aka PKCS#10)
  27:Source\mbedtls_open\library/x509.c ****  *
  28:Source\mbedtls_open\library/x509.c ****  *  http://www.itu.int/ITU-T/studygroups/com17/languages/X.680-0207.pdf
  29:Source\mbedtls_open\library/x509.c ****  *  http://www.itu.int/ITU-T/studygroups/com17/languages/X.690-0207.pdf
  30:Source\mbedtls_open\library/x509.c ****  */
  31:Source\mbedtls_open\library/x509.c **** 
ARM GAS  C:\Users\Phuong\AppData\Local\Temp\cciPItDa.s 			page 2


  32:Source\mbedtls_open\library/x509.c **** #if !defined(MBEDTLS_CONFIG_FILE)
  33:Source\mbedtls_open\library/x509.c **** #include "mbedtls/config.h"
  34:Source\mbedtls_open\library/x509.c **** #else
  35:Source\mbedtls_open\library/x509.c **** #include MBEDTLS_CONFIG_FILE
  36:Source\mbedtls_open\library/x509.c **** #endif
  37:Source\mbedtls_open\library/x509.c **** 
  38:Source\mbedtls_open\library/x509.c **** #if defined(MBEDTLS_X509_USE_C)
  39:Source\mbedtls_open\library/x509.c **** 
  40:Source\mbedtls_open\library/x509.c **** #include "mbedtls/x509.h"
  41:Source\mbedtls_open\library/x509.c **** #include "mbedtls/asn1.h"
  42:Source\mbedtls_open\library/x509.c **** #include "mbedtls/oid.h"
  43:Source\mbedtls_open\library/x509.c **** 
  44:Source\mbedtls_open\library/x509.c **** #include <stdio.h>
  45:Source\mbedtls_open\library/x509.c **** #include <string.h>
  46:Source\mbedtls_open\library/x509.c **** 
  47:Source\mbedtls_open\library/x509.c **** #if defined(MBEDTLS_PEM_PARSE_C)
  48:Source\mbedtls_open\library/x509.c **** #include "mbedtls/pem.h"
  49:Source\mbedtls_open\library/x509.c **** #endif
  50:Source\mbedtls_open\library/x509.c **** 
  51:Source\mbedtls_open\library/x509.c **** #if defined(MBEDTLS_PLATFORM_C)
  52:Source\mbedtls_open\library/x509.c **** #include "mbedtls/platform.h"
  53:Source\mbedtls_open\library/x509.c **** #else
  54:Source\mbedtls_open\library/x509.c **** #include <stdio.h>
  55:Source\mbedtls_open\library/x509.c **** #include <stdlib.h>
  56:Source\mbedtls_open\library/x509.c **** #define mbedtls_free      free
  57:Source\mbedtls_open\library/x509.c **** #define mbedtls_calloc    calloc
  58:Source\mbedtls_open\library/x509.c **** #define mbedtls_printf    printf
  59:Source\mbedtls_open\library/x509.c **** #define mbedtls_snprintf  snprintf
  60:Source\mbedtls_open\library/x509.c **** #endif
  61:Source\mbedtls_open\library/x509.c **** 
  62:Source\mbedtls_open\library/x509.c **** #if defined(MBEDTLS_HAVE_TIME)
  63:Source\mbedtls_open\library/x509.c **** #include "mbedtls/platform_time.h"
  64:Source\mbedtls_open\library/x509.c **** #endif
  65:Source\mbedtls_open\library/x509.c **** #if defined(MBEDTLS_HAVE_TIME_DATE)
  66:Source\mbedtls_open\library/x509.c **** #include "mbedtls/platform_util.h"
  67:Source\mbedtls_open\library/x509.c **** #include <time.h>
  68:Source\mbedtls_open\library/x509.c **** #endif
  69:Source\mbedtls_open\library/x509.c **** 
  70:Source\mbedtls_open\library/x509.c **** #define CHECK(code) if( ( ret = code ) != 0 ){ return( ret ); }
  71:Source\mbedtls_open\library/x509.c **** #define CHECK_RANGE(min, max, val) if( val < min || val > max ){ return( ret ); }
  72:Source\mbedtls_open\library/x509.c **** 
  73:Source\mbedtls_open\library/x509.c **** /*
  74:Source\mbedtls_open\library/x509.c ****  *  CertificateSerialNumber  ::=  INTEGER
  75:Source\mbedtls_open\library/x509.c ****  */
  76:Source\mbedtls_open\library/x509.c **** int mbedtls_x509_get_serial( unsigned char **p, const unsigned char *end,
  77:Source\mbedtls_open\library/x509.c ****                      mbedtls_x509_buf *serial )
  78:Source\mbedtls_open\library/x509.c **** {
  79:Source\mbedtls_open\library/x509.c ****     int ret;
  80:Source\mbedtls_open\library/x509.c **** 
  81:Source\mbedtls_open\library/x509.c ****     if( ( end - *p ) < 1 )
  82:Source\mbedtls_open\library/x509.c ****         return( MBEDTLS_ERR_X509_INVALID_SERIAL +
  83:Source\mbedtls_open\library/x509.c ****                 MBEDTLS_ERR_ASN1_OUT_OF_DATA );
  84:Source\mbedtls_open\library/x509.c **** 
  85:Source\mbedtls_open\library/x509.c ****     if( **p != ( MBEDTLS_ASN1_CONTEXT_SPECIFIC | MBEDTLS_ASN1_PRIMITIVE | 2 ) &&
  86:Source\mbedtls_open\library/x509.c ****         **p !=   MBEDTLS_ASN1_INTEGER )
  87:Source\mbedtls_open\library/x509.c ****         return( MBEDTLS_ERR_X509_INVALID_SERIAL +
  88:Source\mbedtls_open\library/x509.c ****                 MBEDTLS_ERR_ASN1_UNEXPECTED_TAG );
ARM GAS  C:\Users\Phuong\AppData\Local\Temp\cciPItDa.s 			page 3


  89:Source\mbedtls_open\library/x509.c **** 
  90:Source\mbedtls_open\library/x509.c ****     serial->tag = *(*p)++;
  91:Source\mbedtls_open\library/x509.c **** 
  92:Source\mbedtls_open\library/x509.c ****     if( ( ret = mbedtls_asn1_get_len( p, end, &serial->len ) ) != 0 )
  93:Source\mbedtls_open\library/x509.c ****         return( MBEDTLS_ERR_X509_INVALID_SERIAL + ret );
  94:Source\mbedtls_open\library/x509.c **** 
  95:Source\mbedtls_open\library/x509.c ****     serial->p = *p;
  96:Source\mbedtls_open\library/x509.c ****     *p += serial->len;
  97:Source\mbedtls_open\library/x509.c **** 
  98:Source\mbedtls_open\library/x509.c ****     return( 0 );
  99:Source\mbedtls_open\library/x509.c **** }
 100:Source\mbedtls_open\library/x509.c **** 
 101:Source\mbedtls_open\library/x509.c **** /* Get an algorithm identifier without parameters (eg for signatures)
 102:Source\mbedtls_open\library/x509.c ****  *
 103:Source\mbedtls_open\library/x509.c ****  *  AlgorithmIdentifier  ::=  SEQUENCE  {
 104:Source\mbedtls_open\library/x509.c ****  *       algorithm               OBJECT IDENTIFIER,
 105:Source\mbedtls_open\library/x509.c ****  *       parameters              ANY DEFINED BY algorithm OPTIONAL  }
 106:Source\mbedtls_open\library/x509.c ****  */
 107:Source\mbedtls_open\library/x509.c **** int mbedtls_x509_get_alg_null( unsigned char **p, const unsigned char *end,
 108:Source\mbedtls_open\library/x509.c ****                        mbedtls_x509_buf *alg )
 109:Source\mbedtls_open\library/x509.c **** {
 110:Source\mbedtls_open\library/x509.c ****     int ret;
 111:Source\mbedtls_open\library/x509.c **** 
 112:Source\mbedtls_open\library/x509.c ****     if( ( ret = mbedtls_asn1_get_alg_null( p, end, alg ) ) != 0 )
 113:Source\mbedtls_open\library/x509.c ****         return( MBEDTLS_ERR_X509_INVALID_ALG + ret );
 114:Source\mbedtls_open\library/x509.c **** 
 115:Source\mbedtls_open\library/x509.c ****     return( 0 );
 116:Source\mbedtls_open\library/x509.c **** }
 117:Source\mbedtls_open\library/x509.c **** 
 118:Source\mbedtls_open\library/x509.c **** /*
 119:Source\mbedtls_open\library/x509.c ****  * Parse an algorithm identifier with (optional) paramaters
 120:Source\mbedtls_open\library/x509.c ****  */
 121:Source\mbedtls_open\library/x509.c **** int mbedtls_x509_get_alg( unsigned char **p, const unsigned char *end,
 122:Source\mbedtls_open\library/x509.c ****                   mbedtls_x509_buf *alg, mbedtls_x509_buf *params )
 123:Source\mbedtls_open\library/x509.c **** {
 124:Source\mbedtls_open\library/x509.c ****     int ret;
 125:Source\mbedtls_open\library/x509.c **** 
 126:Source\mbedtls_open\library/x509.c ****     if( ( ret = mbedtls_asn1_get_alg( p, end, alg, params ) ) != 0 )
 127:Source\mbedtls_open\library/x509.c ****         return( MBEDTLS_ERR_X509_INVALID_ALG + ret );
 128:Source\mbedtls_open\library/x509.c **** 
 129:Source\mbedtls_open\library/x509.c ****     return( 0 );
 130:Source\mbedtls_open\library/x509.c **** }
 131:Source\mbedtls_open\library/x509.c **** 
 132:Source\mbedtls_open\library/x509.c **** #if defined(MBEDTLS_X509_RSASSA_PSS_SUPPORT)
 133:Source\mbedtls_open\library/x509.c **** /*
 134:Source\mbedtls_open\library/x509.c ****  * HashAlgorithm ::= AlgorithmIdentifier
 135:Source\mbedtls_open\library/x509.c ****  *
 136:Source\mbedtls_open\library/x509.c ****  * AlgorithmIdentifier  ::=  SEQUENCE  {
 137:Source\mbedtls_open\library/x509.c ****  *      algorithm               OBJECT IDENTIFIER,
 138:Source\mbedtls_open\library/x509.c ****  *      parameters              ANY DEFINED BY algorithm OPTIONAL  }
 139:Source\mbedtls_open\library/x509.c ****  *
 140:Source\mbedtls_open\library/x509.c ****  * For HashAlgorithm, parameters MUST be NULL or absent.
 141:Source\mbedtls_open\library/x509.c ****  */
 142:Source\mbedtls_open\library/x509.c **** static int x509_get_hash_alg( const mbedtls_x509_buf *alg, mbedtls_md_type_t *md_alg )
 143:Source\mbedtls_open\library/x509.c **** {
 144:Source\mbedtls_open\library/x509.c ****     int ret;
 145:Source\mbedtls_open\library/x509.c ****     unsigned char *p;
ARM GAS  C:\Users\Phuong\AppData\Local\Temp\cciPItDa.s 			page 4


 146:Source\mbedtls_open\library/x509.c ****     const unsigned char *end;
 147:Source\mbedtls_open\library/x509.c ****     mbedtls_x509_buf md_oid;
 148:Source\mbedtls_open\library/x509.c ****     size_t len;
 149:Source\mbedtls_open\library/x509.c **** 
 150:Source\mbedtls_open\library/x509.c ****     /* Make sure we got a SEQUENCE and setup bounds */
 151:Source\mbedtls_open\library/x509.c ****     if( alg->tag != ( MBEDTLS_ASN1_CONSTRUCTED | MBEDTLS_ASN1_SEQUENCE ) )
 152:Source\mbedtls_open\library/x509.c ****         return( MBEDTLS_ERR_X509_INVALID_ALG +
 153:Source\mbedtls_open\library/x509.c ****                 MBEDTLS_ERR_ASN1_UNEXPECTED_TAG );
 154:Source\mbedtls_open\library/x509.c **** 
 155:Source\mbedtls_open\library/x509.c ****     p = (unsigned char *) alg->p;
 156:Source\mbedtls_open\library/x509.c ****     end = p + alg->len;
 157:Source\mbedtls_open\library/x509.c **** 
 158:Source\mbedtls_open\library/x509.c ****     if( p >= end )
 159:Source\mbedtls_open\library/x509.c ****         return( MBEDTLS_ERR_X509_INVALID_ALG +
 160:Source\mbedtls_open\library/x509.c ****                 MBEDTLS_ERR_ASN1_OUT_OF_DATA );
 161:Source\mbedtls_open\library/x509.c **** 
 162:Source\mbedtls_open\library/x509.c ****     /* Parse md_oid */
 163:Source\mbedtls_open\library/x509.c ****     md_oid.tag = *p;
 164:Source\mbedtls_open\library/x509.c **** 
 165:Source\mbedtls_open\library/x509.c ****     if( ( ret = mbedtls_asn1_get_tag( &p, end, &md_oid.len, MBEDTLS_ASN1_OID ) ) != 0 )
 166:Source\mbedtls_open\library/x509.c ****         return( MBEDTLS_ERR_X509_INVALID_ALG + ret );
 167:Source\mbedtls_open\library/x509.c **** 
 168:Source\mbedtls_open\library/x509.c ****     md_oid.p = p;
 169:Source\mbedtls_open\library/x509.c ****     p += md_oid.len;
 170:Source\mbedtls_open\library/x509.c **** 
 171:Source\mbedtls_open\library/x509.c ****     /* Get md_alg from md_oid */
 172:Source\mbedtls_open\library/x509.c ****     if( ( ret = mbedtls_oid_get_md_alg( &md_oid, md_alg ) ) != 0 )
 173:Source\mbedtls_open\library/x509.c ****         return( MBEDTLS_ERR_X509_INVALID_ALG + ret );
 174:Source\mbedtls_open\library/x509.c **** 
 175:Source\mbedtls_open\library/x509.c ****     /* Make sure params is absent of NULL */
 176:Source\mbedtls_open\library/x509.c ****     if( p == end )
 177:Source\mbedtls_open\library/x509.c ****         return( 0 );
 178:Source\mbedtls_open\library/x509.c **** 
 179:Source\mbedtls_open\library/x509.c ****     if( ( ret = mbedtls_asn1_get_tag( &p, end, &len, MBEDTLS_ASN1_NULL ) ) != 0 || len != 0 )
 180:Source\mbedtls_open\library/x509.c ****         return( MBEDTLS_ERR_X509_INVALID_ALG + ret );
 181:Source\mbedtls_open\library/x509.c **** 
 182:Source\mbedtls_open\library/x509.c ****     if( p != end )
 183:Source\mbedtls_open\library/x509.c ****         return( MBEDTLS_ERR_X509_INVALID_ALG +
 184:Source\mbedtls_open\library/x509.c ****                 MBEDTLS_ERR_ASN1_LENGTH_MISMATCH );
 185:Source\mbedtls_open\library/x509.c **** 
 186:Source\mbedtls_open\library/x509.c ****     return( 0 );
 187:Source\mbedtls_open\library/x509.c **** }
 188:Source\mbedtls_open\library/x509.c **** 
 189:Source\mbedtls_open\library/x509.c **** /*
 190:Source\mbedtls_open\library/x509.c ****  *    RSASSA-PSS-params  ::=  SEQUENCE  {
 191:Source\mbedtls_open\library/x509.c ****  *       hashAlgorithm     [0] HashAlgorithm DEFAULT sha1Identifier,
 192:Source\mbedtls_open\library/x509.c ****  *       maskGenAlgorithm  [1] MaskGenAlgorithm DEFAULT mgf1SHA1Identifier,
 193:Source\mbedtls_open\library/x509.c ****  *       saltLength        [2] INTEGER DEFAULT 20,
 194:Source\mbedtls_open\library/x509.c ****  *       trailerField      [3] INTEGER DEFAULT 1  }
 195:Source\mbedtls_open\library/x509.c ****  *    -- Note that the tags in this Sequence are explicit.
 196:Source\mbedtls_open\library/x509.c ****  *
 197:Source\mbedtls_open\library/x509.c ****  * RFC 4055 (which defines use of RSASSA-PSS in PKIX) states that the value
 198:Source\mbedtls_open\library/x509.c ****  * of trailerField MUST be 1, and PKCS#1 v2.2 doesn't even define any other
 199:Source\mbedtls_open\library/x509.c ****  * option. Enfore this at parsing time.
 200:Source\mbedtls_open\library/x509.c ****  */
 201:Source\mbedtls_open\library/x509.c **** int mbedtls_x509_get_rsassa_pss_params( const mbedtls_x509_buf *params,
 202:Source\mbedtls_open\library/x509.c ****                                 mbedtls_md_type_t *md_alg, mbedtls_md_type_t *mgf_md,
ARM GAS  C:\Users\Phuong\AppData\Local\Temp\cciPItDa.s 			page 5


 203:Source\mbedtls_open\library/x509.c ****                                 int *salt_len )
 204:Source\mbedtls_open\library/x509.c **** {
 205:Source\mbedtls_open\library/x509.c ****     int ret;
 206:Source\mbedtls_open\library/x509.c ****     unsigned char *p;
 207:Source\mbedtls_open\library/x509.c ****     const unsigned char *end, *end2;
 208:Source\mbedtls_open\library/x509.c ****     size_t len;
 209:Source\mbedtls_open\library/x509.c ****     mbedtls_x509_buf alg_id, alg_params;
 210:Source\mbedtls_open\library/x509.c **** 
 211:Source\mbedtls_open\library/x509.c ****     /* First set everything to defaults */
 212:Source\mbedtls_open\library/x509.c ****     *md_alg = MBEDTLS_MD_SHA1;
 213:Source\mbedtls_open\library/x509.c ****     *mgf_md = MBEDTLS_MD_SHA1;
 214:Source\mbedtls_open\library/x509.c ****     *salt_len = 20;
 215:Source\mbedtls_open\library/x509.c **** 
 216:Source\mbedtls_open\library/x509.c ****     /* Make sure params is a SEQUENCE and setup bounds */
 217:Source\mbedtls_open\library/x509.c ****     if( params->tag != ( MBEDTLS_ASN1_CONSTRUCTED | MBEDTLS_ASN1_SEQUENCE ) )
 218:Source\mbedtls_open\library/x509.c ****         return( MBEDTLS_ERR_X509_INVALID_ALG +
 219:Source\mbedtls_open\library/x509.c ****                 MBEDTLS_ERR_ASN1_UNEXPECTED_TAG );
 220:Source\mbedtls_open\library/x509.c **** 
 221:Source\mbedtls_open\library/x509.c ****     p = (unsigned char *) params->p;
 222:Source\mbedtls_open\library/x509.c ****     end = p + params->len;
 223:Source\mbedtls_open\library/x509.c **** 
 224:Source\mbedtls_open\library/x509.c ****     if( p == end )
 225:Source\mbedtls_open\library/x509.c ****         return( 0 );
 226:Source\mbedtls_open\library/x509.c **** 
 227:Source\mbedtls_open\library/x509.c ****     /*
 228:Source\mbedtls_open\library/x509.c ****      * HashAlgorithm
 229:Source\mbedtls_open\library/x509.c ****      */
 230:Source\mbedtls_open\library/x509.c ****     if( ( ret = mbedtls_asn1_get_tag( &p, end, &len,
 231:Source\mbedtls_open\library/x509.c ****                     MBEDTLS_ASN1_CONTEXT_SPECIFIC | MBEDTLS_ASN1_CONSTRUCTED | 0 ) ) == 0 )
 232:Source\mbedtls_open\library/x509.c ****     {
 233:Source\mbedtls_open\library/x509.c ****         end2 = p + len;
 234:Source\mbedtls_open\library/x509.c **** 
 235:Source\mbedtls_open\library/x509.c ****         /* HashAlgorithm ::= AlgorithmIdentifier (without parameters) */
 236:Source\mbedtls_open\library/x509.c ****         if( ( ret = mbedtls_x509_get_alg_null( &p, end2, &alg_id ) ) != 0 )
 237:Source\mbedtls_open\library/x509.c ****             return( ret );
 238:Source\mbedtls_open\library/x509.c **** 
 239:Source\mbedtls_open\library/x509.c ****         if( ( ret = mbedtls_oid_get_md_alg( &alg_id, md_alg ) ) != 0 )
 240:Source\mbedtls_open\library/x509.c ****             return( MBEDTLS_ERR_X509_INVALID_ALG + ret );
 241:Source\mbedtls_open\library/x509.c **** 
 242:Source\mbedtls_open\library/x509.c ****         if( p != end2 )
 243:Source\mbedtls_open\library/x509.c ****             return( MBEDTLS_ERR_X509_INVALID_ALG +
 244:Source\mbedtls_open\library/x509.c ****                     MBEDTLS_ERR_ASN1_LENGTH_MISMATCH );
 245:Source\mbedtls_open\library/x509.c ****     }
 246:Source\mbedtls_open\library/x509.c ****     else if( ret != MBEDTLS_ERR_ASN1_UNEXPECTED_TAG )
 247:Source\mbedtls_open\library/x509.c ****         return( MBEDTLS_ERR_X509_INVALID_ALG + ret );
 248:Source\mbedtls_open\library/x509.c **** 
 249:Source\mbedtls_open\library/x509.c ****     if( p == end )
 250:Source\mbedtls_open\library/x509.c ****         return( 0 );
 251:Source\mbedtls_open\library/x509.c **** 
 252:Source\mbedtls_open\library/x509.c ****     /*
 253:Source\mbedtls_open\library/x509.c ****      * MaskGenAlgorithm
 254:Source\mbedtls_open\library/x509.c ****      */
 255:Source\mbedtls_open\library/x509.c ****     if( ( ret = mbedtls_asn1_get_tag( &p, end, &len,
 256:Source\mbedtls_open\library/x509.c ****                     MBEDTLS_ASN1_CONTEXT_SPECIFIC | MBEDTLS_ASN1_CONSTRUCTED | 1 ) ) == 0 )
 257:Source\mbedtls_open\library/x509.c ****     {
 258:Source\mbedtls_open\library/x509.c ****         end2 = p + len;
 259:Source\mbedtls_open\library/x509.c **** 
ARM GAS  C:\Users\Phuong\AppData\Local\Temp\cciPItDa.s 			page 6


 260:Source\mbedtls_open\library/x509.c ****         /* MaskGenAlgorithm ::= AlgorithmIdentifier (params = HashAlgorithm) */
 261:Source\mbedtls_open\library/x509.c ****         if( ( ret = mbedtls_x509_get_alg( &p, end2, &alg_id, &alg_params ) ) != 0 )
 262:Source\mbedtls_open\library/x509.c ****             return( ret );
 263:Source\mbedtls_open\library/x509.c **** 
 264:Source\mbedtls_open\library/x509.c ****         /* Only MFG1 is recognised for now */
 265:Source\mbedtls_open\library/x509.c ****         if( MBEDTLS_OID_CMP( MBEDTLS_OID_MGF1, &alg_id ) != 0 )
 266:Source\mbedtls_open\library/x509.c ****             return( MBEDTLS_ERR_X509_FEATURE_UNAVAILABLE +
 267:Source\mbedtls_open\library/x509.c ****                     MBEDTLS_ERR_OID_NOT_FOUND );
 268:Source\mbedtls_open\library/x509.c **** 
 269:Source\mbedtls_open\library/x509.c ****         /* Parse HashAlgorithm */
 270:Source\mbedtls_open\library/x509.c ****         if( ( ret = x509_get_hash_alg( &alg_params, mgf_md ) ) != 0 )
 271:Source\mbedtls_open\library/x509.c ****             return( ret );
 272:Source\mbedtls_open\library/x509.c **** 
 273:Source\mbedtls_open\library/x509.c ****         if( p != end2 )
 274:Source\mbedtls_open\library/x509.c ****             return( MBEDTLS_ERR_X509_INVALID_ALG +
 275:Source\mbedtls_open\library/x509.c ****                     MBEDTLS_ERR_ASN1_LENGTH_MISMATCH );
 276:Source\mbedtls_open\library/x509.c ****     }
 277:Source\mbedtls_open\library/x509.c ****     else if( ret != MBEDTLS_ERR_ASN1_UNEXPECTED_TAG )
 278:Source\mbedtls_open\library/x509.c ****         return( MBEDTLS_ERR_X509_INVALID_ALG + ret );
 279:Source\mbedtls_open\library/x509.c **** 
 280:Source\mbedtls_open\library/x509.c ****     if( p == end )
 281:Source\mbedtls_open\library/x509.c ****         return( 0 );
 282:Source\mbedtls_open\library/x509.c **** 
 283:Source\mbedtls_open\library/x509.c ****     /*
 284:Source\mbedtls_open\library/x509.c ****      * salt_len
 285:Source\mbedtls_open\library/x509.c ****      */
 286:Source\mbedtls_open\library/x509.c ****     if( ( ret = mbedtls_asn1_get_tag( &p, end, &len,
 287:Source\mbedtls_open\library/x509.c ****                     MBEDTLS_ASN1_CONTEXT_SPECIFIC | MBEDTLS_ASN1_CONSTRUCTED | 2 ) ) == 0 )
 288:Source\mbedtls_open\library/x509.c ****     {
 289:Source\mbedtls_open\library/x509.c ****         end2 = p + len;
 290:Source\mbedtls_open\library/x509.c **** 
 291:Source\mbedtls_open\library/x509.c ****         if( ( ret = mbedtls_asn1_get_int( &p, end2, salt_len ) ) != 0 )
 292:Source\mbedtls_open\library/x509.c ****             return( MBEDTLS_ERR_X509_INVALID_ALG + ret );
 293:Source\mbedtls_open\library/x509.c **** 
 294:Source\mbedtls_open\library/x509.c ****         if( p != end2 )
 295:Source\mbedtls_open\library/x509.c ****             return( MBEDTLS_ERR_X509_INVALID_ALG +
 296:Source\mbedtls_open\library/x509.c ****                     MBEDTLS_ERR_ASN1_LENGTH_MISMATCH );
 297:Source\mbedtls_open\library/x509.c ****     }
 298:Source\mbedtls_open\library/x509.c ****     else if( ret != MBEDTLS_ERR_ASN1_UNEXPECTED_TAG )
 299:Source\mbedtls_open\library/x509.c ****         return( MBEDTLS_ERR_X509_INVALID_ALG + ret );
 300:Source\mbedtls_open\library/x509.c **** 
 301:Source\mbedtls_open\library/x509.c ****     if( p == end )
 302:Source\mbedtls_open\library/x509.c ****         return( 0 );
 303:Source\mbedtls_open\library/x509.c **** 
 304:Source\mbedtls_open\library/x509.c ****     /*
 305:Source\mbedtls_open\library/x509.c ****      * trailer_field (if present, must be 1)
 306:Source\mbedtls_open\library/x509.c ****      */
 307:Source\mbedtls_open\library/x509.c ****     if( ( ret = mbedtls_asn1_get_tag( &p, end, &len,
 308:Source\mbedtls_open\library/x509.c ****                     MBEDTLS_ASN1_CONTEXT_SPECIFIC | MBEDTLS_ASN1_CONSTRUCTED | 3 ) ) == 0 )
 309:Source\mbedtls_open\library/x509.c ****     {
 310:Source\mbedtls_open\library/x509.c ****         int trailer_field;
 311:Source\mbedtls_open\library/x509.c **** 
 312:Source\mbedtls_open\library/x509.c ****         end2 = p + len;
 313:Source\mbedtls_open\library/x509.c **** 
 314:Source\mbedtls_open\library/x509.c ****         if( ( ret = mbedtls_asn1_get_int( &p, end2, &trailer_field ) ) != 0 )
 315:Source\mbedtls_open\library/x509.c ****             return( MBEDTLS_ERR_X509_INVALID_ALG + ret );
 316:Source\mbedtls_open\library/x509.c **** 
ARM GAS  C:\Users\Phuong\AppData\Local\Temp\cciPItDa.s 			page 7


 317:Source\mbedtls_open\library/x509.c ****         if( p != end2 )
 318:Source\mbedtls_open\library/x509.c ****             return( MBEDTLS_ERR_X509_INVALID_ALG +
 319:Source\mbedtls_open\library/x509.c ****                     MBEDTLS_ERR_ASN1_LENGTH_MISMATCH );
 320:Source\mbedtls_open\library/x509.c **** 
 321:Source\mbedtls_open\library/x509.c ****         if( trailer_field != 1 )
 322:Source\mbedtls_open\library/x509.c ****             return( MBEDTLS_ERR_X509_INVALID_ALG );
 323:Source\mbedtls_open\library/x509.c ****     }
 324:Source\mbedtls_open\library/x509.c ****     else if( ret != MBEDTLS_ERR_ASN1_UNEXPECTED_TAG )
 325:Source\mbedtls_open\library/x509.c ****         return( MBEDTLS_ERR_X509_INVALID_ALG + ret );
 326:Source\mbedtls_open\library/x509.c **** 
 327:Source\mbedtls_open\library/x509.c ****     if( p != end )
 328:Source\mbedtls_open\library/x509.c ****         return( MBEDTLS_ERR_X509_INVALID_ALG +
 329:Source\mbedtls_open\library/x509.c ****                 MBEDTLS_ERR_ASN1_LENGTH_MISMATCH );
 330:Source\mbedtls_open\library/x509.c **** 
 331:Source\mbedtls_open\library/x509.c ****     return( 0 );
 332:Source\mbedtls_open\library/x509.c **** }
 333:Source\mbedtls_open\library/x509.c **** #endif /* MBEDTLS_X509_RSASSA_PSS_SUPPORT */
 334:Source\mbedtls_open\library/x509.c **** 
 335:Source\mbedtls_open\library/x509.c **** /*
 336:Source\mbedtls_open\library/x509.c ****  *  AttributeTypeAndValue ::= SEQUENCE {
 337:Source\mbedtls_open\library/x509.c ****  *    type     AttributeType,
 338:Source\mbedtls_open\library/x509.c ****  *    value    AttributeValue }
 339:Source\mbedtls_open\library/x509.c ****  *
 340:Source\mbedtls_open\library/x509.c ****  *  AttributeType ::= OBJECT IDENTIFIER
 341:Source\mbedtls_open\library/x509.c ****  *
 342:Source\mbedtls_open\library/x509.c ****  *  AttributeValue ::= ANY DEFINED BY AttributeType
 343:Source\mbedtls_open\library/x509.c ****  */
 344:Source\mbedtls_open\library/x509.c **** static int x509_get_attr_type_value( unsigned char **p,
 345:Source\mbedtls_open\library/x509.c ****                                      const unsigned char *end,
 346:Source\mbedtls_open\library/x509.c ****                                      mbedtls_x509_name *cur )
 347:Source\mbedtls_open\library/x509.c **** {
 348:Source\mbedtls_open\library/x509.c ****     int ret;
 349:Source\mbedtls_open\library/x509.c ****     size_t len;
 350:Source\mbedtls_open\library/x509.c ****     mbedtls_x509_buf *oid;
 351:Source\mbedtls_open\library/x509.c ****     mbedtls_x509_buf *val;
 352:Source\mbedtls_open\library/x509.c **** 
 353:Source\mbedtls_open\library/x509.c ****     if( ( ret = mbedtls_asn1_get_tag( p, end, &len,
 354:Source\mbedtls_open\library/x509.c ****             MBEDTLS_ASN1_CONSTRUCTED | MBEDTLS_ASN1_SEQUENCE ) ) != 0 )
 355:Source\mbedtls_open\library/x509.c ****         return( MBEDTLS_ERR_X509_INVALID_NAME + ret );
 356:Source\mbedtls_open\library/x509.c **** 
 357:Source\mbedtls_open\library/x509.c ****     if( ( end - *p ) < 1 )
 358:Source\mbedtls_open\library/x509.c ****         return( MBEDTLS_ERR_X509_INVALID_NAME +
 359:Source\mbedtls_open\library/x509.c ****                 MBEDTLS_ERR_ASN1_OUT_OF_DATA );
 360:Source\mbedtls_open\library/x509.c **** 
 361:Source\mbedtls_open\library/x509.c ****     oid = &cur->oid;
 362:Source\mbedtls_open\library/x509.c ****     oid->tag = **p;
 363:Source\mbedtls_open\library/x509.c **** 
 364:Source\mbedtls_open\library/x509.c ****     if( ( ret = mbedtls_asn1_get_tag( p, end, &oid->len, MBEDTLS_ASN1_OID ) ) != 0 )
 365:Source\mbedtls_open\library/x509.c ****         return( MBEDTLS_ERR_X509_INVALID_NAME + ret );
 366:Source\mbedtls_open\library/x509.c **** 
 367:Source\mbedtls_open\library/x509.c ****     oid->p = *p;
 368:Source\mbedtls_open\library/x509.c ****     *p += oid->len;
 369:Source\mbedtls_open\library/x509.c **** 
 370:Source\mbedtls_open\library/x509.c ****     if( ( end - *p ) < 1 )
 371:Source\mbedtls_open\library/x509.c ****         return( MBEDTLS_ERR_X509_INVALID_NAME +
 372:Source\mbedtls_open\library/x509.c ****                 MBEDTLS_ERR_ASN1_OUT_OF_DATA );
 373:Source\mbedtls_open\library/x509.c **** 
ARM GAS  C:\Users\Phuong\AppData\Local\Temp\cciPItDa.s 			page 8


 374:Source\mbedtls_open\library/x509.c ****     if( **p != MBEDTLS_ASN1_BMP_STRING && **p != MBEDTLS_ASN1_UTF8_STRING      &&
 375:Source\mbedtls_open\library/x509.c ****         **p != MBEDTLS_ASN1_T61_STRING && **p != MBEDTLS_ASN1_PRINTABLE_STRING &&
 376:Source\mbedtls_open\library/x509.c ****         **p != MBEDTLS_ASN1_IA5_STRING && **p != MBEDTLS_ASN1_UNIVERSAL_STRING &&
 377:Source\mbedtls_open\library/x509.c ****         **p != MBEDTLS_ASN1_BIT_STRING )
 378:Source\mbedtls_open\library/x509.c ****         return( MBEDTLS_ERR_X509_INVALID_NAME +
 379:Source\mbedtls_open\library/x509.c ****                 MBEDTLS_ERR_ASN1_UNEXPECTED_TAG );
 380:Source\mbedtls_open\library/x509.c **** 
 381:Source\mbedtls_open\library/x509.c ****     val = &cur->val;
 382:Source\mbedtls_open\library/x509.c ****     val->tag = *(*p)++;
 383:Source\mbedtls_open\library/x509.c **** 
 384:Source\mbedtls_open\library/x509.c ****     if( ( ret = mbedtls_asn1_get_len( p, end, &val->len ) ) != 0 )
 385:Source\mbedtls_open\library/x509.c ****         return( MBEDTLS_ERR_X509_INVALID_NAME + ret );
 386:Source\mbedtls_open\library/x509.c **** 
 387:Source\mbedtls_open\library/x509.c ****     val->p = *p;
 388:Source\mbedtls_open\library/x509.c ****     *p += val->len;
 389:Source\mbedtls_open\library/x509.c **** 
 390:Source\mbedtls_open\library/x509.c ****     cur->next = NULL;
 391:Source\mbedtls_open\library/x509.c **** 
 392:Source\mbedtls_open\library/x509.c ****     return( 0 );
 393:Source\mbedtls_open\library/x509.c **** }
 394:Source\mbedtls_open\library/x509.c **** 
 395:Source\mbedtls_open\library/x509.c **** /*
 396:Source\mbedtls_open\library/x509.c ****  *  Name ::= CHOICE { -- only one possibility for now --
 397:Source\mbedtls_open\library/x509.c ****  *       rdnSequence  RDNSequence }
 398:Source\mbedtls_open\library/x509.c ****  *
 399:Source\mbedtls_open\library/x509.c ****  *  RDNSequence ::= SEQUENCE OF RelativeDistinguishedName
 400:Source\mbedtls_open\library/x509.c ****  *
 401:Source\mbedtls_open\library/x509.c ****  *  RelativeDistinguishedName ::=
 402:Source\mbedtls_open\library/x509.c ****  *    SET OF AttributeTypeAndValue
 403:Source\mbedtls_open\library/x509.c ****  *
 404:Source\mbedtls_open\library/x509.c ****  *  AttributeTypeAndValue ::= SEQUENCE {
 405:Source\mbedtls_open\library/x509.c ****  *    type     AttributeType,
 406:Source\mbedtls_open\library/x509.c ****  *    value    AttributeValue }
 407:Source\mbedtls_open\library/x509.c ****  *
 408:Source\mbedtls_open\library/x509.c ****  *  AttributeType ::= OBJECT IDENTIFIER
 409:Source\mbedtls_open\library/x509.c ****  *
 410:Source\mbedtls_open\library/x509.c ****  *  AttributeValue ::= ANY DEFINED BY AttributeType
 411:Source\mbedtls_open\library/x509.c ****  *
 412:Source\mbedtls_open\library/x509.c ****  * The data structure is optimized for the common case where each RDN has only
 413:Source\mbedtls_open\library/x509.c ****  * one element, which is represented as a list of AttributeTypeAndValue.
 414:Source\mbedtls_open\library/x509.c ****  * For the general case we still use a flat list, but we mark elements of the
 415:Source\mbedtls_open\library/x509.c ****  * same set so that they are "merged" together in the functions that consume
 416:Source\mbedtls_open\library/x509.c ****  * this list, eg mbedtls_x509_dn_gets().
 417:Source\mbedtls_open\library/x509.c ****  */
 418:Source\mbedtls_open\library/x509.c **** int mbedtls_x509_get_name( unsigned char **p, const unsigned char *end,
 419:Source\mbedtls_open\library/x509.c ****                    mbedtls_x509_name *cur )
 420:Source\mbedtls_open\library/x509.c **** {
 421:Source\mbedtls_open\library/x509.c ****     int ret;
 422:Source\mbedtls_open\library/x509.c ****     size_t set_len;
 423:Source\mbedtls_open\library/x509.c ****     const unsigned char *end_set;
 424:Source\mbedtls_open\library/x509.c **** 
 425:Source\mbedtls_open\library/x509.c ****     /* don't use recursion, we'd risk stack overflow if not optimized */
 426:Source\mbedtls_open\library/x509.c ****     while( 1 )
 427:Source\mbedtls_open\library/x509.c ****     {
 428:Source\mbedtls_open\library/x509.c ****         /*
 429:Source\mbedtls_open\library/x509.c ****          * parse SET
 430:Source\mbedtls_open\library/x509.c ****          */
ARM GAS  C:\Users\Phuong\AppData\Local\Temp\cciPItDa.s 			page 9


 431:Source\mbedtls_open\library/x509.c ****         if( ( ret = mbedtls_asn1_get_tag( p, end, &set_len,
 432:Source\mbedtls_open\library/x509.c ****                 MBEDTLS_ASN1_CONSTRUCTED | MBEDTLS_ASN1_SET ) ) != 0 )
 433:Source\mbedtls_open\library/x509.c ****             return( MBEDTLS_ERR_X509_INVALID_NAME + ret );
 434:Source\mbedtls_open\library/x509.c **** 
 435:Source\mbedtls_open\library/x509.c ****         end_set  = *p + set_len;
 436:Source\mbedtls_open\library/x509.c **** 
 437:Source\mbedtls_open\library/x509.c ****         while( 1 )
 438:Source\mbedtls_open\library/x509.c ****         {
 439:Source\mbedtls_open\library/x509.c ****             if( ( ret = x509_get_attr_type_value( p, end_set, cur ) ) != 0 )
 440:Source\mbedtls_open\library/x509.c ****                 return( ret );
 441:Source\mbedtls_open\library/x509.c **** 
 442:Source\mbedtls_open\library/x509.c ****             if( *p == end_set )
 443:Source\mbedtls_open\library/x509.c ****                 break;
 444:Source\mbedtls_open\library/x509.c **** 
 445:Source\mbedtls_open\library/x509.c ****             /* Mark this item as being no the only one in a set */
 446:Source\mbedtls_open\library/x509.c ****             cur->next_merged = 1;
 447:Source\mbedtls_open\library/x509.c **** 
 448:Source\mbedtls_open\library/x509.c ****             cur->next = mbedtls_calloc( 1, sizeof( mbedtls_x509_name ) );
 449:Source\mbedtls_open\library/x509.c **** 
 450:Source\mbedtls_open\library/x509.c ****             if( cur->next == NULL )
 451:Source\mbedtls_open\library/x509.c ****                 return( MBEDTLS_ERR_X509_ALLOC_FAILED );
 452:Source\mbedtls_open\library/x509.c **** 
 453:Source\mbedtls_open\library/x509.c ****             cur = cur->next;
 454:Source\mbedtls_open\library/x509.c ****         }
 455:Source\mbedtls_open\library/x509.c **** 
 456:Source\mbedtls_open\library/x509.c ****         /*
 457:Source\mbedtls_open\library/x509.c ****          * continue until end of SEQUENCE is reached
 458:Source\mbedtls_open\library/x509.c ****          */
 459:Source\mbedtls_open\library/x509.c ****         if( *p == end )
 460:Source\mbedtls_open\library/x509.c ****             return( 0 );
 461:Source\mbedtls_open\library/x509.c **** 
 462:Source\mbedtls_open\library/x509.c ****         cur->next = mbedtls_calloc( 1, sizeof( mbedtls_x509_name ) );
 463:Source\mbedtls_open\library/x509.c **** 
 464:Source\mbedtls_open\library/x509.c ****         if( cur->next == NULL )
 465:Source\mbedtls_open\library/x509.c ****             return( MBEDTLS_ERR_X509_ALLOC_FAILED );
 466:Source\mbedtls_open\library/x509.c **** 
 467:Source\mbedtls_open\library/x509.c ****         cur = cur->next;
 468:Source\mbedtls_open\library/x509.c ****     }
 469:Source\mbedtls_open\library/x509.c **** }
 470:Source\mbedtls_open\library/x509.c **** 
 471:Source\mbedtls_open\library/x509.c **** static int x509_parse_int( unsigned char **p, size_t n, int *res )
 472:Source\mbedtls_open\library/x509.c **** {
  27              		.loc 1 472 0
  28              		.cfi_startproc
  29              		@ args = 0, pretend = 0, frame = 0
  30              		@ frame_needed = 0, uses_anonymous_args = 0
  31              	.LVL0:
  32 0000 10B5     		push	{r4, lr}
  33              		.cfi_def_cfa_offset 8
  34              		.cfi_offset 4, -8
  35              		.cfi_offset 14, -4
 473:Source\mbedtls_open\library/x509.c ****     *res = 0;
  36              		.loc 1 473 0
  37 0002 0023     		movs	r3, #0
  38 0004 1360     		str	r3, [r2]
 474:Source\mbedtls_open\library/x509.c **** 
 475:Source\mbedtls_open\library/x509.c ****     for( ; n > 0; --n )
ARM GAS  C:\Users\Phuong\AppData\Local\Temp\cciPItDa.s 			page 10


  39              		.loc 1 475 0
  40 0006 14E0     		b	.L2
  41              	.L4:
 476:Source\mbedtls_open\library/x509.c ****     {
 477:Source\mbedtls_open\library/x509.c ****         if( ( **p < '0') || ( **p > '9' ) )
  42              		.loc 1 477 0
  43 0008 0368     		ldr	r3, [r0]
  44 000a 1B78     		ldrb	r3, [r3]
  45 000c 303B     		subs	r3, r3, #48
  46 000e DBB2     		uxtb	r3, r3
  47 0010 092B     		cmp	r3, #9
  48 0012 12D8     		bhi	.L5
 478:Source\mbedtls_open\library/x509.c ****             return ( MBEDTLS_ERR_X509_INVALID_DATE );
 479:Source\mbedtls_open\library/x509.c **** 
 480:Source\mbedtls_open\library/x509.c ****         *res *= 10;
  49              		.loc 1 480 0
  50 0014 1368     		ldr	r3, [r2]
  51 0016 9C00     		lsls	r4, r3, #2
  52 0018 E318     		adds	r3, r4, r3
  53 001a 5C00     		lsls	r4, r3, #1
  54 001c 1460     		str	r4, [r2]
 481:Source\mbedtls_open\library/x509.c ****         *res += ( *(*p)++ - '0' );
  55              		.loc 1 481 0
  56 001e 0368     		ldr	r3, [r0]
  57 0020 5C1C     		adds	r4, r3, #1
  58 0022 0460     		str	r4, [r0]
  59 0024 1B78     		ldrb	r3, [r3]
  60 0026 303B     		subs	r3, r3, #48
  61 0028 1468     		ldr	r4, [r2]
  62 002a A446     		mov	ip, r4
  63 002c 6344     		add	r3, r3, ip
  64 002e 1360     		str	r3, [r2]
 475:Source\mbedtls_open\library/x509.c ****     {
  65              		.loc 1 475 0
  66 0030 0139     		subs	r1, r1, #1
  67              	.LVL1:
  68              	.L2:
 475:Source\mbedtls_open\library/x509.c ****     {
  69              		.loc 1 475 0 is_stmt 0 discriminator 1
  70 0032 0029     		cmp	r1, #0
  71 0034 E8D1     		bne	.L4
 482:Source\mbedtls_open\library/x509.c ****     }
 483:Source\mbedtls_open\library/x509.c **** 
 484:Source\mbedtls_open\library/x509.c ****     return( 0 );
  72              		.loc 1 484 0 is_stmt 1
  73 0036 0020     		movs	r0, #0
  74              	.LVL2:
  75 0038 00E0     		b	.L3
  76              	.LVL3:
  77              	.L5:
 478:Source\mbedtls_open\library/x509.c **** 
  78              		.loc 1 478 0
  79 003a 0148     		ldr	r0, .L6
  80              	.LVL4:
  81              	.L3:
 485:Source\mbedtls_open\library/x509.c **** }
  82              		.loc 1 485 0
ARM GAS  C:\Users\Phuong\AppData\Local\Temp\cciPItDa.s 			page 11


  83              		@ sp needed
  84 003c 10BD     		pop	{r4, pc}
  85              	.L7:
  86 003e C046     		.align	2
  87              	.L6:
  88 0040 00DCFFFF 		.word	-9216
  89              		.cfi_endproc
  90              	.LFE18:
  91              		.size	x509_parse_int, .-x509_parse_int
  92              		.global	__aeabi_idivmod
  93              		.section	.text.x509_date_is_valid,"ax",%progbits
  94              		.align	2
  95              		.code	16
  96              		.thumb_func
  97              		.type	x509_date_is_valid, %function
  98              	x509_date_is_valid:
  99              	.LFB19:
 486:Source\mbedtls_open\library/x509.c **** 
 487:Source\mbedtls_open\library/x509.c **** static int x509_date_is_valid(const mbedtls_x509_time *t )
 488:Source\mbedtls_open\library/x509.c **** {
 100              		.loc 1 488 0
 101              		.cfi_startproc
 102              		@ args = 0, pretend = 0, frame = 0
 103              		@ frame_needed = 0, uses_anonymous_args = 0
 104              	.LVL5:
 105 0000 70B5     		push	{r4, r5, r6, lr}
 106              		.cfi_def_cfa_offset 16
 107              		.cfi_offset 4, -16
 108              		.cfi_offset 5, -12
 109              		.cfi_offset 6, -8
 110              		.cfi_offset 14, -4
 111 0002 0400     		movs	r4, r0
 112              	.LVL6:
 489:Source\mbedtls_open\library/x509.c ****     int ret = MBEDTLS_ERR_X509_INVALID_DATE;
 490:Source\mbedtls_open\library/x509.c ****     int month_len;
 491:Source\mbedtls_open\library/x509.c **** 
 492:Source\mbedtls_open\library/x509.c ****     CHECK_RANGE( 0, 9999, t->year );
 113              		.loc 1 492 0
 114 0004 0568     		ldr	r5, [r0]
 115 0006 204B     		ldr	r3, .L25
 116 0008 9D42     		cmp	r5, r3
 117 000a 2ED8     		bhi	.L15
 493:Source\mbedtls_open\library/x509.c ****     CHECK_RANGE( 0, 23,   t->hour );
 118              		.loc 1 493 0
 119 000c C368     		ldr	r3, [r0, #12]
 120 000e 172B     		cmp	r3, #23
 121 0010 2DD8     		bhi	.L16
 494:Source\mbedtls_open\library/x509.c ****     CHECK_RANGE( 0, 59,   t->min  );
 122              		.loc 1 494 0
 123 0012 0369     		ldr	r3, [r0, #16]
 124 0014 3B2B     		cmp	r3, #59
 125 0016 2CD8     		bhi	.L17
 495:Source\mbedtls_open\library/x509.c ****     CHECK_RANGE( 0, 59,   t->sec  );
 126              		.loc 1 495 0
 127 0018 4369     		ldr	r3, [r0, #20]
 128 001a 3B2B     		cmp	r3, #59
 129 001c 2BD8     		bhi	.L18
ARM GAS  C:\Users\Phuong\AppData\Local\Temp\cciPItDa.s 			page 12


 496:Source\mbedtls_open\library/x509.c **** 
 497:Source\mbedtls_open\library/x509.c ****     switch( t->mon )
 130              		.loc 1 497 0
 131 001e 4368     		ldr	r3, [r0, #4]
 132 0020 0C2B     		cmp	r3, #12
 133 0022 2AD8     		bhi	.L19
 134 0024 9B00     		lsls	r3, r3, #2
 135 0026 194A     		ldr	r2, .L25+4
 136 0028 D358     		ldr	r3, [r2, r3]
 137 002a 9F46     		mov	pc, r3
 138              		.section	.rodata
 139              		.align	2
 140              	.L11:
 141 0000 7A000000 		.word	.L19
 142 0004 2C000000 		.word	.L10
 143 0008 30000000 		.word	.L12
 144 000c 2C000000 		.word	.L10
 145 0010 52000000 		.word	.L20
 146 0014 2C000000 		.word	.L10
 147 0018 52000000 		.word	.L20
 148 001c 2C000000 		.word	.L10
 149 0020 2C000000 		.word	.L10
 150 0024 52000000 		.word	.L20
 151 0028 2C000000 		.word	.L10
 152 002c 52000000 		.word	.L20
 153 0030 2C000000 		.word	.L10
 154              		.section	.text.x509_date_is_valid
 155              	.L10:
 498:Source\mbedtls_open\library/x509.c ****     {
 499:Source\mbedtls_open\library/x509.c ****         case 1: case 3: case 5: case 7: case 8: case 10: case 12:
 500:Source\mbedtls_open\library/x509.c ****             month_len = 31;
 156              		.loc 1 500 0
 157 002c 1F22     		movs	r2, #31
 158 002e 15E0     		b	.L13
 159              	.L12:
 501:Source\mbedtls_open\library/x509.c ****             break;
 502:Source\mbedtls_open\library/x509.c ****         case 4: case 6: case 9: case 11:
 503:Source\mbedtls_open\library/x509.c ****             month_len = 30;
 504:Source\mbedtls_open\library/x509.c ****             break;
 505:Source\mbedtls_open\library/x509.c ****         case 2:
 506:Source\mbedtls_open\library/x509.c ****             if( ( !( t->year % 4 ) && t->year % 100 ) ||
 160              		.loc 1 506 0
 161 0030 AB07     		lsls	r3, r5, #30
 162 0032 05D1     		bne	.L14
 163              		.loc 1 506 0 is_stmt 0 discriminator 1
 164 0034 6421     		movs	r1, #100
 165 0036 2800     		movs	r0, r5
 166              	.LVL7:
 167 0038 FFF7FEFF 		bl	__aeabi_idivmod
 168              	.LVL8:
 169 003c 0029     		cmp	r1, #0
 170 003e 0AD1     		bne	.L21
 171              	.L14:
 507:Source\mbedtls_open\library/x509.c ****                 !( t->year % 400 ) )
 172              		.loc 1 507 0 is_stmt 1 discriminator 3
 173 0040 C821     		movs	r1, #200
 174 0042 4900     		lsls	r1, r1, #1
ARM GAS  C:\Users\Phuong\AppData\Local\Temp\cciPItDa.s 			page 13


 175 0044 2800     		movs	r0, r5
 176 0046 FFF7FEFF 		bl	__aeabi_idivmod
 177              	.LVL9:
 506:Source\mbedtls_open\library/x509.c ****                 !( t->year % 400 ) )
 178              		.loc 1 506 0 discriminator 3
 179 004a 0029     		cmp	r1, #0
 180 004c 05D1     		bne	.L22
 508:Source\mbedtls_open\library/x509.c ****                 month_len = 29;
 181              		.loc 1 508 0
 182 004e 1D22     		movs	r2, #29
 183 0050 04E0     		b	.L13
 184              	.LVL10:
 185              	.L20:
 503:Source\mbedtls_open\library/x509.c ****             break;
 186              		.loc 1 503 0
 187 0052 1E22     		movs	r2, #30
 188 0054 02E0     		b	.L13
 189              	.LVL11:
 190              	.L21:
 191              		.loc 1 508 0
 192 0056 1D22     		movs	r2, #29
 193 0058 00E0     		b	.L13
 194              	.L22:
 509:Source\mbedtls_open\library/x509.c ****             else
 510:Source\mbedtls_open\library/x509.c ****                 month_len = 28;
 195              		.loc 1 510 0
 196 005a 1C22     		movs	r2, #28
 197              	.L13:
 198              	.LVL12:
 511:Source\mbedtls_open\library/x509.c ****             break;
 512:Source\mbedtls_open\library/x509.c ****         default:
 513:Source\mbedtls_open\library/x509.c ****             return( ret );
 514:Source\mbedtls_open\library/x509.c ****     }
 515:Source\mbedtls_open\library/x509.c ****     CHECK_RANGE( 1, month_len, t->day );
 199              		.loc 1 515 0
 200 005c A368     		ldr	r3, [r4, #8]
 201 005e 002B     		cmp	r3, #0
 202 0060 0DDD     		ble	.L23
 203              		.loc 1 515 0 is_stmt 0 discriminator 2
 204 0062 9A42     		cmp	r2, r3
 205 0064 0DDA     		bge	.L24
 206              		.loc 1 515 0
 207 0066 0A48     		ldr	r0, .L25+8
 208 0068 0CE0     		b	.L9
 209              	.LVL13:
 210              	.L15:
 492:Source\mbedtls_open\library/x509.c ****     CHECK_RANGE( 0, 23,   t->hour );
 211              		.loc 1 492 0 is_stmt 1
 212 006a 0948     		ldr	r0, .L25+8
 213              	.LVL14:
 214 006c 0AE0     		b	.L9
 215              	.LVL15:
 216              	.L16:
 493:Source\mbedtls_open\library/x509.c ****     CHECK_RANGE( 0, 59,   t->min  );
 217              		.loc 1 493 0
 218 006e 0848     		ldr	r0, .L25+8
 219              	.LVL16:
ARM GAS  C:\Users\Phuong\AppData\Local\Temp\cciPItDa.s 			page 14


 220 0070 08E0     		b	.L9
 221              	.LVL17:
 222              	.L17:
 494:Source\mbedtls_open\library/x509.c ****     CHECK_RANGE( 0, 59,   t->sec  );
 223              		.loc 1 494 0
 224 0072 0748     		ldr	r0, .L25+8
 225              	.LVL18:
 226 0074 06E0     		b	.L9
 227              	.LVL19:
 228              	.L18:
 495:Source\mbedtls_open\library/x509.c **** 
 229              		.loc 1 495 0
 230 0076 0648     		ldr	r0, .L25+8
 231              	.LVL20:
 232 0078 04E0     		b	.L9
 233              	.LVL21:
 234              	.L19:
 513:Source\mbedtls_open\library/x509.c ****     }
 235              		.loc 1 513 0
 236 007a 0548     		ldr	r0, .L25+8
 237              	.LVL22:
 238 007c 02E0     		b	.L9
 239              	.LVL23:
 240              	.L23:
 241              		.loc 1 515 0
 242 007e 0448     		ldr	r0, .L25+8
 243 0080 00E0     		b	.L9
 244              	.L24:
 516:Source\mbedtls_open\library/x509.c **** 
 517:Source\mbedtls_open\library/x509.c ****     return( 0 );
 245              		.loc 1 517 0
 246 0082 0020     		movs	r0, #0
 247              	.LVL24:
 248              	.L9:
 518:Source\mbedtls_open\library/x509.c **** }
 249              		.loc 1 518 0
 250              		@ sp needed
 251              	.LVL25:
 252 0084 70BD     		pop	{r4, r5, r6, pc}
 253              	.L26:
 254 0086 C046     		.align	2
 255              	.L25:
 256 0088 0F270000 		.word	9999
 257 008c 00000000 		.word	.L11
 258 0090 00DCFFFF 		.word	-9216
 259              		.cfi_endproc
 260              	.LFE19:
 261              		.size	x509_date_is_valid, .-x509_date_is_valid
 262              		.section	.text.x509_parse_time,"ax",%progbits
 263              		.align	2
 264              		.code	16
 265              		.thumb_func
 266              		.type	x509_parse_time, %function
 267              	x509_parse_time:
 268              	.LFB20:
 519:Source\mbedtls_open\library/x509.c **** 
 520:Source\mbedtls_open\library/x509.c **** /*
ARM GAS  C:\Users\Phuong\AppData\Local\Temp\cciPItDa.s 			page 15


 521:Source\mbedtls_open\library/x509.c ****  * Parse an ASN1_UTC_TIME (yearlen=2) or ASN1_GENERALIZED_TIME (yearlen=4)
 522:Source\mbedtls_open\library/x509.c ****  * field.
 523:Source\mbedtls_open\library/x509.c ****  */
 524:Source\mbedtls_open\library/x509.c **** static int x509_parse_time( unsigned char **p, size_t len, size_t yearlen,
 525:Source\mbedtls_open\library/x509.c ****                             mbedtls_x509_time *tm )
 526:Source\mbedtls_open\library/x509.c **** {
 269              		.loc 1 526 0
 270              		.cfi_startproc
 271              		@ args = 0, pretend = 0, frame = 8
 272              		@ frame_needed = 0, uses_anonymous_args = 0
 273              	.LVL26:
 274 0000 F0B5     		push	{r4, r5, r6, r7, lr}
 275              		.cfi_def_cfa_offset 20
 276              		.cfi_offset 4, -20
 277              		.cfi_offset 5, -16
 278              		.cfi_offset 6, -12
 279              		.cfi_offset 7, -8
 280              		.cfi_offset 14, -4
 281 0002 83B0     		sub	sp, sp, #12
 282              		.cfi_def_cfa_offset 32
 283 0004 0190     		str	r0, [sp, #4]
 284 0006 1400     		movs	r4, r2
 285 0008 1E00     		movs	r6, r3
 527:Source\mbedtls_open\library/x509.c ****     int ret;
 528:Source\mbedtls_open\library/x509.c **** 
 529:Source\mbedtls_open\library/x509.c ****     /*
 530:Source\mbedtls_open\library/x509.c ****      * Minimum length is 10 or 12 depending on yearlen
 531:Source\mbedtls_open\library/x509.c ****      */
 532:Source\mbedtls_open\library/x509.c ****     if ( len < yearlen + 8 )
 286              		.loc 1 532 0
 287 000a 1300     		movs	r3, r2
 288              	.LVL27:
 289 000c 0833     		adds	r3, r3, #8
 290 000e 8B42     		cmp	r3, r1
 291 0010 52D8     		bhi	.L32
 533:Source\mbedtls_open\library/x509.c ****         return ( MBEDTLS_ERR_X509_INVALID_DATE );
 534:Source\mbedtls_open\library/x509.c ****     len -= yearlen + 8;
 292              		.loc 1 534 0
 293 0012 8D1A     		subs	r5, r1, r2
 294 0014 2F00     		movs	r7, r5
 295 0016 083F     		subs	r7, r7, #8
 296              	.LVL28:
 535:Source\mbedtls_open\library/x509.c **** 
 536:Source\mbedtls_open\library/x509.c ****     /*
 537:Source\mbedtls_open\library/x509.c ****      * Parse year, month, day, hour, minute
 538:Source\mbedtls_open\library/x509.c ****      */
 539:Source\mbedtls_open\library/x509.c ****     CHECK( x509_parse_int( p, yearlen, &tm->year ) );
 297              		.loc 1 539 0
 298 0018 3200     		movs	r2, r6
 299              	.LVL29:
 300 001a 2100     		movs	r1, r4
 301 001c FFF7FEFF 		bl	x509_parse_int
 302              	.LVL30:
 303 0020 0028     		cmp	r0, #0
 304 0022 4ED1     		bne	.L28
 540:Source\mbedtls_open\library/x509.c ****     if ( 2 == yearlen )
 305              		.loc 1 540 0
ARM GAS  C:\Users\Phuong\AppData\Local\Temp\cciPItDa.s 			page 16


 306 0024 022C     		cmp	r4, #2
 307 0026 09D1     		bne	.L29
 541:Source\mbedtls_open\library/x509.c ****     {
 542:Source\mbedtls_open\library/x509.c ****         if ( tm->year < 50 )
 308              		.loc 1 542 0
 309 0028 3368     		ldr	r3, [r6]
 310 002a 312B     		cmp	r3, #49
 311 002c 01DC     		bgt	.L30
 543:Source\mbedtls_open\library/x509.c ****             tm->year += 100;
 312              		.loc 1 543 0
 313 002e 6433     		adds	r3, r3, #100
 314 0030 3360     		str	r3, [r6]
 315              	.L30:
 544:Source\mbedtls_open\library/x509.c **** 
 545:Source\mbedtls_open\library/x509.c ****         tm->year += 1900;
 316              		.loc 1 545 0
 317 0032 3368     		ldr	r3, [r6]
 318 0034 244A     		ldr	r2, .L42
 319 0036 9446     		mov	ip, r2
 320 0038 6344     		add	r3, r3, ip
 321 003a 3360     		str	r3, [r6]
 322              	.L29:
 546:Source\mbedtls_open\library/x509.c ****     }
 547:Source\mbedtls_open\library/x509.c **** 
 548:Source\mbedtls_open\library/x509.c ****     CHECK( x509_parse_int( p, 2, &tm->mon ) );
 323              		.loc 1 548 0
 324 003c 321D     		adds	r2, r6, #4
 325 003e 0221     		movs	r1, #2
 326 0040 0198     		ldr	r0, [sp, #4]
 327              	.LVL31:
 328 0042 FFF7FEFF 		bl	x509_parse_int
 329              	.LVL32:
 330 0046 0028     		cmp	r0, #0
 331 0048 3BD1     		bne	.L28
 549:Source\mbedtls_open\library/x509.c ****     CHECK( x509_parse_int( p, 2, &tm->day ) );
 332              		.loc 1 549 0
 333 004a 3200     		movs	r2, r6
 334 004c 0832     		adds	r2, r2, #8
 335 004e 0221     		movs	r1, #2
 336 0050 0198     		ldr	r0, [sp, #4]
 337              	.LVL33:
 338 0052 FFF7FEFF 		bl	x509_parse_int
 339              	.LVL34:
 340 0056 0028     		cmp	r0, #0
 341 0058 33D1     		bne	.L28
 550:Source\mbedtls_open\library/x509.c ****     CHECK( x509_parse_int( p, 2, &tm->hour ) );
 342              		.loc 1 550 0
 343 005a 3200     		movs	r2, r6
 344 005c 0C32     		adds	r2, r2, #12
 345 005e 0221     		movs	r1, #2
 346 0060 0198     		ldr	r0, [sp, #4]
 347              	.LVL35:
 348 0062 FFF7FEFF 		bl	x509_parse_int
 349              	.LVL36:
 350 0066 0028     		cmp	r0, #0
 351 0068 2BD1     		bne	.L28
 551:Source\mbedtls_open\library/x509.c ****     CHECK( x509_parse_int( p, 2, &tm->min ) );
ARM GAS  C:\Users\Phuong\AppData\Local\Temp\cciPItDa.s 			page 17


 352              		.loc 1 551 0
 353 006a 3200     		movs	r2, r6
 354 006c 1032     		adds	r2, r2, #16
 355 006e 0221     		movs	r1, #2
 356 0070 019C     		ldr	r4, [sp, #4]
 357              	.LVL37:
 358 0072 2000     		movs	r0, r4
 359              	.LVL38:
 360 0074 FFF7FEFF 		bl	x509_parse_int
 361              	.LVL39:
 362 0078 0028     		cmp	r0, #0
 363 007a 22D1     		bne	.L28
 552:Source\mbedtls_open\library/x509.c **** 
 553:Source\mbedtls_open\library/x509.c ****     /*
 554:Source\mbedtls_open\library/x509.c ****      * Parse seconds if present
 555:Source\mbedtls_open\library/x509.c ****      */
 556:Source\mbedtls_open\library/x509.c ****     if ( len >= 2 )
 364              		.loc 1 556 0
 365 007c 012F     		cmp	r7, #1
 366 007e 1DD9     		bls	.L38
 557:Source\mbedtls_open\library/x509.c ****     {
 558:Source\mbedtls_open\library/x509.c ****         CHECK( x509_parse_int( p, 2, &tm->sec ) );
 367              		.loc 1 558 0
 368 0080 3200     		movs	r2, r6
 369 0082 1432     		adds	r2, r2, #20
 370 0084 0221     		movs	r1, #2
 371 0086 2000     		movs	r0, r4
 372              	.LVL40:
 373 0088 FFF7FEFF 		bl	x509_parse_int
 374              	.LVL41:
 375 008c 0028     		cmp	r0, #0
 376 008e 18D1     		bne	.L28
 559:Source\mbedtls_open\library/x509.c ****         len -= 2;
 377              		.loc 1 559 0
 378 0090 2B00     		movs	r3, r5
 379 0092 0A3B     		subs	r3, r3, #10
 380              	.LVL42:
 560:Source\mbedtls_open\library/x509.c ****     }
 561:Source\mbedtls_open\library/x509.c ****     else
 562:Source\mbedtls_open\library/x509.c ****         return ( MBEDTLS_ERR_X509_INVALID_DATE );
 563:Source\mbedtls_open\library/x509.c **** 
 564:Source\mbedtls_open\library/x509.c ****     /*
 565:Source\mbedtls_open\library/x509.c ****      * Parse trailing 'Z' if present
 566:Source\mbedtls_open\library/x509.c ****      */
 567:Source\mbedtls_open\library/x509.c ****     if ( 1 == len && 'Z' == **p )
 381              		.loc 1 567 0
 382 0094 012B     		cmp	r3, #1
 383 0096 09D1     		bne	.L31
 384              		.loc 1 567 0 is_stmt 0 discriminator 1
 385 0098 019A     		ldr	r2, [sp, #4]
 386 009a 1268     		ldr	r2, [r2]
 387 009c 1178     		ldrb	r1, [r2]
 388 009e 5A29     		cmp	r1, #90
 389 00a0 04D1     		bne	.L31
 568:Source\mbedtls_open\library/x509.c ****     {
 569:Source\mbedtls_open\library/x509.c ****         (*p)++;
 390              		.loc 1 569 0 is_stmt 1
ARM GAS  C:\Users\Phuong\AppData\Local\Temp\cciPItDa.s 			page 18


 391 00a2 0132     		adds	r2, r2, #1
 392 00a4 019B     		ldr	r3, [sp, #4]
 393              	.LVL43:
 394 00a6 1A60     		str	r2, [r3]
 570:Source\mbedtls_open\library/x509.c ****         len--;
 395              		.loc 1 570 0
 396 00a8 2B00     		movs	r3, r5
 397 00aa 0B3B     		subs	r3, r3, #11
 398              	.LVL44:
 399              	.L31:
 571:Source\mbedtls_open\library/x509.c ****     }
 572:Source\mbedtls_open\library/x509.c **** 
 573:Source\mbedtls_open\library/x509.c ****     /*
 574:Source\mbedtls_open\library/x509.c ****      * We should have parsed all characters at this point
 575:Source\mbedtls_open\library/x509.c ****      */
 576:Source\mbedtls_open\library/x509.c ****     if ( 0 != len )
 400              		.loc 1 576 0
 401 00ac 002B     		cmp	r3, #0
 402 00ae 07D1     		bne	.L40
 577:Source\mbedtls_open\library/x509.c ****         return ( MBEDTLS_ERR_X509_INVALID_DATE );
 578:Source\mbedtls_open\library/x509.c **** 
 579:Source\mbedtls_open\library/x509.c ****     CHECK( x509_date_is_valid( tm ) );
 403              		.loc 1 579 0
 404 00b0 3000     		movs	r0, r6
 405              	.LVL45:
 406 00b2 FFF7FEFF 		bl	x509_date_is_valid
 407              	.LVL46:
 408 00b6 04E0     		b	.L28
 409              	.LVL47:
 410              	.L32:
 533:Source\mbedtls_open\library/x509.c ****     len -= yearlen + 8;
 411              		.loc 1 533 0
 412 00b8 0448     		ldr	r0, .L42+4
 413              	.LVL48:
 414 00ba 02E0     		b	.L28
 415              	.LVL49:
 416              	.L38:
 562:Source\mbedtls_open\library/x509.c **** 
 417              		.loc 1 562 0
 418 00bc 0348     		ldr	r0, .L42+4
 419              	.LVL50:
 420 00be 00E0     		b	.L28
 421              	.LVL51:
 422              	.L40:
 577:Source\mbedtls_open\library/x509.c ****         return ( MBEDTLS_ERR_X509_INVALID_DATE );
 423              		.loc 1 577 0
 424 00c0 0248     		ldr	r0, .L42+4
 425              	.LVL52:
 426              	.L28:
 580:Source\mbedtls_open\library/x509.c **** 
 581:Source\mbedtls_open\library/x509.c ****     return ( 0 );
 582:Source\mbedtls_open\library/x509.c **** }
 427              		.loc 1 582 0
 428 00c2 03B0     		add	sp, sp, #12
 429              		@ sp needed
 430              	.LVL53:
 431 00c4 F0BD     		pop	{r4, r5, r6, r7, pc}
ARM GAS  C:\Users\Phuong\AppData\Local\Temp\cciPItDa.s 			page 19


 432              	.L43:
 433 00c6 C046     		.align	2
 434              	.L42:
 435 00c8 6C070000 		.word	1900
 436 00cc 00DCFFFF 		.word	-9216
 437              		.cfi_endproc
 438              	.LFE20:
 439              		.size	x509_parse_time, .-x509_parse_time
 440              		.section	.text.x509_get_attr_type_value,"ax",%progbits
 441              		.align	2
 442              		.code	16
 443              		.thumb_func
 444              		.type	x509_get_attr_type_value, %function
 445              	x509_get_attr_type_value:
 446              	.LFB16:
 347:Source\mbedtls_open\library/x509.c ****     int ret;
 447              		.loc 1 347 0
 448              		.cfi_startproc
 449              		@ args = 0, pretend = 0, frame = 8
 450              		@ frame_needed = 0, uses_anonymous_args = 0
 451              	.LVL54:
 452 0000 70B5     		push	{r4, r5, r6, lr}
 453              		.cfi_def_cfa_offset 16
 454              		.cfi_offset 4, -16
 455              		.cfi_offset 5, -12
 456              		.cfi_offset 6, -8
 457              		.cfi_offset 14, -4
 458 0002 82B0     		sub	sp, sp, #8
 459              		.cfi_def_cfa_offset 24
 460 0004 0400     		movs	r4, r0
 461 0006 0D00     		movs	r5, r1
 462 0008 1600     		movs	r6, r2
 353:Source\mbedtls_open\library/x509.c ****             MBEDTLS_ASN1_CONSTRUCTED | MBEDTLS_ASN1_SEQUENCE ) ) != 0 )
 463              		.loc 1 353 0
 464 000a 3023     		movs	r3, #48
 465 000c 01AA     		add	r2, sp, #4
 466              	.LVL55:
 467 000e FFF7FEFF 		bl	mbedtls_asn1_get_tag
 468              	.LVL56:
 469 0012 0028     		cmp	r0, #0
 470 0014 03D0     		beq	.L45
 355:Source\mbedtls_open\library/x509.c **** 
 471              		.loc 1 355 0
 472 0016 284B     		ldr	r3, .L53
 473 0018 9C46     		mov	ip, r3
 474 001a 6044     		add	r0, r0, ip
 475              	.LVL57:
 476 001c 4AE0     		b	.L46
 477              	.LVL58:
 478              	.L45:
 357:Source\mbedtls_open\library/x509.c ****         return( MBEDTLS_ERR_X509_INVALID_NAME +
 479              		.loc 1 357 0
 480 001e 2368     		ldr	r3, [r4]
 481 0020 EA1A     		subs	r2, r5, r3
 482 0022 002A     		cmp	r2, #0
 483 0024 41DD     		ble	.L50
 484              	.LVL59:
ARM GAS  C:\Users\Phuong\AppData\Local\Temp\cciPItDa.s 			page 20


 362:Source\mbedtls_open\library/x509.c **** 
 485              		.loc 1 362 0
 486 0026 1B78     		ldrb	r3, [r3]
 487 0028 3200     		movs	r2, r6
 488 002a 08C2     		stmia	r2!, {r3}
 364:Source\mbedtls_open\library/x509.c ****         return( MBEDTLS_ERR_X509_INVALID_NAME + ret );
 489              		.loc 1 364 0
 490 002c 0623     		movs	r3, #6
 491 002e 2900     		movs	r1, r5
 492 0030 2000     		movs	r0, r4
 493              	.LVL60:
 494 0032 FFF7FEFF 		bl	mbedtls_asn1_get_tag
 495              	.LVL61:
 496 0036 0028     		cmp	r0, #0
 497 0038 03D0     		beq	.L47
 365:Source\mbedtls_open\library/x509.c **** 
 498              		.loc 1 365 0
 499 003a 1F4B     		ldr	r3, .L53
 500 003c 9C46     		mov	ip, r3
 501 003e 6044     		add	r0, r0, ip
 502              	.LVL62:
 503 0040 38E0     		b	.L46
 504              	.LVL63:
 505              	.L47:
 367:Source\mbedtls_open\library/x509.c ****     *p += oid->len;
 506              		.loc 1 367 0
 507 0042 2368     		ldr	r3, [r4]
 508 0044 B360     		str	r3, [r6, #8]
 368:Source\mbedtls_open\library/x509.c **** 
 509              		.loc 1 368 0
 510 0046 2368     		ldr	r3, [r4]
 511 0048 7268     		ldr	r2, [r6, #4]
 512 004a 9446     		mov	ip, r2
 513 004c 6344     		add	r3, r3, ip
 514 004e 2360     		str	r3, [r4]
 370:Source\mbedtls_open\library/x509.c ****         return( MBEDTLS_ERR_X509_INVALID_NAME +
 515              		.loc 1 370 0
 516 0050 EA1A     		subs	r2, r5, r3
 517 0052 002A     		cmp	r2, #0
 518 0054 2BDD     		ble	.L51
 374:Source\mbedtls_open\library/x509.c ****         **p != MBEDTLS_ASN1_T61_STRING && **p != MBEDTLS_ASN1_PRINTABLE_STRING &&
 519              		.loc 1 374 0
 520 0056 1A78     		ldrb	r2, [r3]
 521 0058 1E2A     		cmp	r2, #30
 522 005a 0BD0     		beq	.L48
 374:Source\mbedtls_open\library/x509.c ****         **p != MBEDTLS_ASN1_T61_STRING && **p != MBEDTLS_ASN1_PRINTABLE_STRING &&
 523              		.loc 1 374 0 is_stmt 0 discriminator 1
 524 005c 0C2A     		cmp	r2, #12
 525 005e 09D0     		beq	.L48
 374:Source\mbedtls_open\library/x509.c ****         **p != MBEDTLS_ASN1_T61_STRING && **p != MBEDTLS_ASN1_PRINTABLE_STRING &&
 526              		.loc 1 374 0 discriminator 2
 527 0060 142A     		cmp	r2, #20
 528 0062 07D0     		beq	.L48
 375:Source\mbedtls_open\library/x509.c ****         **p != MBEDTLS_ASN1_IA5_STRING && **p != MBEDTLS_ASN1_UNIVERSAL_STRING &&
 529              		.loc 1 375 0 is_stmt 1
 530 0064 132A     		cmp	r2, #19
 531 0066 05D0     		beq	.L48
ARM GAS  C:\Users\Phuong\AppData\Local\Temp\cciPItDa.s 			page 21


 375:Source\mbedtls_open\library/x509.c ****         **p != MBEDTLS_ASN1_IA5_STRING && **p != MBEDTLS_ASN1_UNIVERSAL_STRING &&
 532              		.loc 1 375 0 is_stmt 0 discriminator 1
 533 0068 162A     		cmp	r2, #22
 534 006a 03D0     		beq	.L48
 376:Source\mbedtls_open\library/x509.c ****         **p != MBEDTLS_ASN1_BIT_STRING )
 535              		.loc 1 376 0 is_stmt 1
 536 006c 1C2A     		cmp	r2, #28
 537 006e 01D0     		beq	.L48
 376:Source\mbedtls_open\library/x509.c ****         **p != MBEDTLS_ASN1_BIT_STRING )
 538              		.loc 1 376 0 is_stmt 0 discriminator 1
 539 0070 032A     		cmp	r2, #3
 540 0072 1ED1     		bne	.L52
 541              	.L48:
 542              	.LVL64:
 382:Source\mbedtls_open\library/x509.c **** 
 543              		.loc 1 382 0 is_stmt 1
 544 0074 5A1C     		adds	r2, r3, #1
 545 0076 2260     		str	r2, [r4]
 546 0078 1B78     		ldrb	r3, [r3]
 547 007a F360     		str	r3, [r6, #12]
 384:Source\mbedtls_open\library/x509.c ****         return( MBEDTLS_ERR_X509_INVALID_NAME + ret );
 548              		.loc 1 384 0
 549 007c 3200     		movs	r2, r6
 550 007e 1032     		adds	r2, r2, #16
 551 0080 2900     		movs	r1, r5
 552 0082 2000     		movs	r0, r4
 553              	.LVL65:
 554 0084 FFF7FEFF 		bl	mbedtls_asn1_get_len
 555              	.LVL66:
 556 0088 0028     		cmp	r0, #0
 557 008a 03D0     		beq	.L49
 385:Source\mbedtls_open\library/x509.c **** 
 558              		.loc 1 385 0
 559 008c 0A4B     		ldr	r3, .L53
 560 008e 9C46     		mov	ip, r3
 561 0090 6044     		add	r0, r0, ip
 562              	.LVL67:
 563 0092 0FE0     		b	.L46
 564              	.LVL68:
 565              	.L49:
 387:Source\mbedtls_open\library/x509.c ****     *p += val->len;
 566              		.loc 1 387 0
 567 0094 2368     		ldr	r3, [r4]
 568 0096 7361     		str	r3, [r6, #20]
 388:Source\mbedtls_open\library/x509.c **** 
 569              		.loc 1 388 0
 570 0098 2368     		ldr	r3, [r4]
 571 009a 3269     		ldr	r2, [r6, #16]
 572 009c 9446     		mov	ip, r2
 573 009e 6344     		add	r3, r3, ip
 574 00a0 2360     		str	r3, [r4]
 390:Source\mbedtls_open\library/x509.c **** 
 575              		.loc 1 390 0
 576 00a2 0023     		movs	r3, #0
 577 00a4 B361     		str	r3, [r6, #24]
 392:Source\mbedtls_open\library/x509.c **** }
 578              		.loc 1 392 0
ARM GAS  C:\Users\Phuong\AppData\Local\Temp\cciPItDa.s 			page 22


 579 00a6 0020     		movs	r0, #0
 580              	.LVL69:
 581 00a8 04E0     		b	.L46
 582              	.LVL70:
 583              	.L50:
 358:Source\mbedtls_open\library/x509.c ****                 MBEDTLS_ERR_ASN1_OUT_OF_DATA );
 584              		.loc 1 358 0
 585 00aa 0448     		ldr	r0, .L53+4
 586              	.LVL71:
 587 00ac 02E0     		b	.L46
 588              	.LVL72:
 589              	.L51:
 371:Source\mbedtls_open\library/x509.c ****                 MBEDTLS_ERR_ASN1_OUT_OF_DATA );
 590              		.loc 1 371 0
 591 00ae 0348     		ldr	r0, .L53+4
 592              	.LVL73:
 593 00b0 00E0     		b	.L46
 594              	.LVL74:
 595              	.L52:
 378:Source\mbedtls_open\library/x509.c ****                 MBEDTLS_ERR_ASN1_UNEXPECTED_TAG );
 596              		.loc 1 378 0
 597 00b2 0348     		ldr	r0, .L53+8
 598              	.LVL75:
 599              	.L46:
 393:Source\mbedtls_open\library/x509.c **** 
 600              		.loc 1 393 0
 601 00b4 02B0     		add	sp, sp, #8
 602              		@ sp needed
 603              	.LVL76:
 604              	.LVL77:
 605              	.LVL78:
 606 00b6 70BD     		pop	{r4, r5, r6, pc}
 607              	.L54:
 608              		.align	2
 609              	.L53:
 610 00b8 80DCFFFF 		.word	-9088
 611 00bc 20DCFFFF 		.word	-9184
 612 00c0 1EDCFFFF 		.word	-9186
 613              		.cfi_endproc
 614              	.LFE16:
 615              		.size	x509_get_attr_type_value, .-x509_get_attr_type_value
 616              		.section	.text.x509_get_hash_alg,"ax",%progbits
 617              		.align	2
 618              		.code	16
 619              		.thumb_func
 620              		.type	x509_get_hash_alg, %function
 621              	x509_get_hash_alg:
 622              	.LFB14:
 143:Source\mbedtls_open\library/x509.c ****     int ret;
 623              		.loc 1 143 0
 624              		.cfi_startproc
 625              		@ args = 0, pretend = 0, frame = 32
 626              		@ frame_needed = 0, uses_anonymous_args = 0
 627              	.LVL79:
 628 0000 30B5     		push	{r4, r5, lr}
 629              		.cfi_def_cfa_offset 12
 630              		.cfi_offset 4, -12
ARM GAS  C:\Users\Phuong\AppData\Local\Temp\cciPItDa.s 			page 23


 631              		.cfi_offset 5, -8
 632              		.cfi_offset 14, -4
 633 0002 89B0     		sub	sp, sp, #36
 634              		.cfi_def_cfa_offset 48
 635 0004 0D00     		movs	r5, r1
 151:Source\mbedtls_open\library/x509.c ****         return( MBEDTLS_ERR_X509_INVALID_ALG +
 636              		.loc 1 151 0
 637 0006 0368     		ldr	r3, [r0]
 638 0008 302B     		cmp	r3, #48
 639 000a 3BD1     		bne	.L61
 155:Source\mbedtls_open\library/x509.c ****     end = p + alg->len;
 640              		.loc 1 155 0
 641 000c 8368     		ldr	r3, [r0, #8]
 642 000e 0793     		str	r3, [sp, #28]
 156:Source\mbedtls_open\library/x509.c **** 
 643              		.loc 1 156 0
 644 0010 4468     		ldr	r4, [r0, #4]
 645 0012 1C19     		adds	r4, r3, r4
 646              	.LVL80:
 158:Source\mbedtls_open\library/x509.c ****         return( MBEDTLS_ERR_X509_INVALID_ALG +
 647              		.loc 1 158 0
 648 0014 A342     		cmp	r3, r4
 649 0016 37D2     		bcs	.L62
 163:Source\mbedtls_open\library/x509.c **** 
 650              		.loc 1 163 0
 651 0018 1B78     		ldrb	r3, [r3]
 652 001a 0493     		str	r3, [sp, #16]
 165:Source\mbedtls_open\library/x509.c ****         return( MBEDTLS_ERR_X509_INVALID_ALG + ret );
 653              		.loc 1 165 0
 654 001c 0623     		movs	r3, #6
 655 001e 05AA     		add	r2, sp, #20
 656 0020 2100     		movs	r1, r4
 657              	.LVL81:
 658 0022 07A8     		add	r0, sp, #28
 659              	.LVL82:
 660 0024 FFF7FEFF 		bl	mbedtls_asn1_get_tag
 661              	.LVL83:
 662 0028 0028     		cmp	r0, #0
 663 002a 03D0     		beq	.L57
 166:Source\mbedtls_open\library/x509.c **** 
 664              		.loc 1 166 0
 665 002c 1A4B     		ldr	r3, .L65
 666 002e 9C46     		mov	ip, r3
 667 0030 6044     		add	r0, r0, ip
 668              	.LVL84:
 669 0032 2EE0     		b	.L56
 670              	.LVL85:
 671              	.L57:
 168:Source\mbedtls_open\library/x509.c ****     p += md_oid.len;
 672              		.loc 1 168 0
 673 0034 079B     		ldr	r3, [sp, #28]
 674 0036 0693     		str	r3, [sp, #24]
 169:Source\mbedtls_open\library/x509.c **** 
 675              		.loc 1 169 0
 676 0038 059A     		ldr	r2, [sp, #20]
 677 003a 0192     		str	r2, [sp, #4]
 678 003c 9446     		mov	ip, r2
ARM GAS  C:\Users\Phuong\AppData\Local\Temp\cciPItDa.s 			page 24


 679 003e 6344     		add	r3, r3, ip
 680 0040 0793     		str	r3, [sp, #28]
 172:Source\mbedtls_open\library/x509.c ****         return( MBEDTLS_ERR_X509_INVALID_ALG + ret );
 681              		.loc 1 172 0
 682 0042 2900     		movs	r1, r5
 683 0044 04A8     		add	r0, sp, #16
 684              	.LVL86:
 685 0046 FFF7FEFF 		bl	mbedtls_oid_get_md_alg
 686              	.LVL87:
 687 004a 0028     		cmp	r0, #0
 688 004c 03D0     		beq	.L58
 173:Source\mbedtls_open\library/x509.c **** 
 689              		.loc 1 173 0
 690 004e 124B     		ldr	r3, .L65
 691 0050 9C46     		mov	ip, r3
 692 0052 6044     		add	r0, r0, ip
 693              	.LVL88:
 694 0054 1DE0     		b	.L56
 695              	.LVL89:
 696              	.L58:
 176:Source\mbedtls_open\library/x509.c ****         return( 0 );
 697              		.loc 1 176 0
 698 0056 079B     		ldr	r3, [sp, #28]
 699 0058 9C42     		cmp	r4, r3
 700 005a 17D0     		beq	.L63
 179:Source\mbedtls_open\library/x509.c ****         return( MBEDTLS_ERR_X509_INVALID_ALG + ret );
 701              		.loc 1 179 0
 702 005c 0523     		movs	r3, #5
 703 005e 03AA     		add	r2, sp, #12
 704 0060 2100     		movs	r1, r4
 705 0062 07A8     		add	r0, sp, #28
 706              	.LVL90:
 707 0064 FFF7FEFF 		bl	mbedtls_asn1_get_tag
 708              	.LVL91:
 709 0068 0028     		cmp	r0, #0
 710 006a 02D1     		bne	.L59
 179:Source\mbedtls_open\library/x509.c ****         return( MBEDTLS_ERR_X509_INVALID_ALG + ret );
 711              		.loc 1 179 0 is_stmt 0 discriminator 1
 712 006c 039B     		ldr	r3, [sp, #12]
 713 006e 002B     		cmp	r3, #0
 714 0070 03D0     		beq	.L60
 715              	.L59:
 180:Source\mbedtls_open\library/x509.c **** 
 716              		.loc 1 180 0 is_stmt 1
 717 0072 094B     		ldr	r3, .L65
 718 0074 9C46     		mov	ip, r3
 719 0076 6044     		add	r0, r0, ip
 720              	.LVL92:
 721 0078 0BE0     		b	.L56
 722              	.LVL93:
 723              	.L60:
 182:Source\mbedtls_open\library/x509.c ****         return( MBEDTLS_ERR_X509_INVALID_ALG +
 724              		.loc 1 182 0
 725 007a 079B     		ldr	r3, [sp, #28]
 726 007c 9C42     		cmp	r4, r3
 727 007e 07D0     		beq	.L64
 183:Source\mbedtls_open\library/x509.c ****                 MBEDTLS_ERR_ASN1_LENGTH_MISMATCH );
ARM GAS  C:\Users\Phuong\AppData\Local\Temp\cciPItDa.s 			page 25


 728              		.loc 1 183 0
 729 0080 0648     		ldr	r0, .L65+4
 730              	.LVL94:
 731 0082 06E0     		b	.L56
 732              	.LVL95:
 733              	.L61:
 152:Source\mbedtls_open\library/x509.c ****                 MBEDTLS_ERR_ASN1_UNEXPECTED_TAG );
 734              		.loc 1 152 0
 735 0084 0648     		ldr	r0, .L65+8
 736              	.LVL96:
 737 0086 04E0     		b	.L56
 738              	.LVL97:
 739              	.L62:
 159:Source\mbedtls_open\library/x509.c ****                 MBEDTLS_ERR_ASN1_OUT_OF_DATA );
 740              		.loc 1 159 0
 741 0088 0648     		ldr	r0, .L65+12
 742              	.LVL98:
 743 008a 02E0     		b	.L56
 744              	.LVL99:
 745              	.L63:
 177:Source\mbedtls_open\library/x509.c **** 
 746              		.loc 1 177 0
 747 008c 0020     		movs	r0, #0
 748              	.LVL100:
 749 008e 00E0     		b	.L56
 750              	.LVL101:
 751              	.L64:
 186:Source\mbedtls_open\library/x509.c **** }
 752              		.loc 1 186 0
 753 0090 0020     		movs	r0, #0
 754              	.LVL102:
 755              	.L56:
 187:Source\mbedtls_open\library/x509.c **** 
 756              		.loc 1 187 0
 757 0092 09B0     		add	sp, sp, #36
 758              		@ sp needed
 759              	.LVL103:
 760 0094 30BD     		pop	{r4, r5, pc}
 761              	.L66:
 762 0096 C046     		.align	2
 763              	.L65:
 764 0098 00DDFFFF 		.word	-8960
 765 009c 9ADCFFFF 		.word	-9062
 766 00a0 9EDCFFFF 		.word	-9058
 767 00a4 A0DCFFFF 		.word	-9056
 768              		.cfi_endproc
 769              	.LFE14:
 770              		.size	x509_get_hash_alg, .-x509_get_hash_alg
 771              		.section	.text.mbedtls_x509_get_serial,"ax",%progbits
 772              		.align	2
 773              		.global	mbedtls_x509_get_serial
 774              		.code	16
 775              		.thumb_func
 776              		.type	mbedtls_x509_get_serial, %function
 777              	mbedtls_x509_get_serial:
 778              	.LFB11:
  78:Source\mbedtls_open\library/x509.c ****     int ret;
ARM GAS  C:\Users\Phuong\AppData\Local\Temp\cciPItDa.s 			page 26


 779              		.loc 1 78 0
 780              		.cfi_startproc
 781              		@ args = 0, pretend = 0, frame = 0
 782              		@ frame_needed = 0, uses_anonymous_args = 0
 783              	.LVL104:
 784 0000 70B5     		push	{r4, r5, r6, lr}
 785              		.cfi_def_cfa_offset 16
 786              		.cfi_offset 4, -16
 787              		.cfi_offset 5, -12
 788              		.cfi_offset 6, -8
 789              		.cfi_offset 14, -4
 790 0002 0400     		movs	r4, r0
 791 0004 1500     		movs	r5, r2
  81:Source\mbedtls_open\library/x509.c ****         return( MBEDTLS_ERR_X509_INVALID_SERIAL +
 792              		.loc 1 81 0
 793 0006 0368     		ldr	r3, [r0]
 794 0008 CA1A     		subs	r2, r1, r3
 795              	.LVL105:
 796 000a 002A     		cmp	r2, #0
 797 000c 1BDD     		ble	.L71
  85:Source\mbedtls_open\library/x509.c ****         **p !=   MBEDTLS_ASN1_INTEGER )
 798              		.loc 1 85 0
 799 000e 1A78     		ldrb	r2, [r3]
 800 0010 822A     		cmp	r2, #130
 801 0012 01D0     		beq	.L69
  85:Source\mbedtls_open\library/x509.c ****         **p !=   MBEDTLS_ASN1_INTEGER )
 802              		.loc 1 85 0 is_stmt 0 discriminator 1
 803 0014 022A     		cmp	r2, #2
 804 0016 18D1     		bne	.L72
 805              	.L69:
  90:Source\mbedtls_open\library/x509.c **** 
 806              		.loc 1 90 0 is_stmt 1
 807 0018 5A1C     		adds	r2, r3, #1
 808 001a 2260     		str	r2, [r4]
 809 001c 1B78     		ldrb	r3, [r3]
 810 001e 2A00     		movs	r2, r5
 811 0020 08C2     		stmia	r2!, {r3}
  92:Source\mbedtls_open\library/x509.c ****         return( MBEDTLS_ERR_X509_INVALID_SERIAL + ret );
 812              		.loc 1 92 0
 813 0022 2000     		movs	r0, r4
 814              	.LVL106:
 815 0024 FFF7FEFF 		bl	mbedtls_asn1_get_len
 816              	.LVL107:
 817 0028 0028     		cmp	r0, #0
 818 002a 03D0     		beq	.L70
  93:Source\mbedtls_open\library/x509.c **** 
 819              		.loc 1 93 0
 820 002c 084B     		ldr	r3, .L73
 821 002e 9C46     		mov	ip, r3
 822 0030 6044     		add	r0, r0, ip
 823              	.LVL108:
 824 0032 0BE0     		b	.L68
 825              	.LVL109:
 826              	.L70:
  95:Source\mbedtls_open\library/x509.c ****     *p += serial->len;
 827              		.loc 1 95 0
 828 0034 2368     		ldr	r3, [r4]
ARM GAS  C:\Users\Phuong\AppData\Local\Temp\cciPItDa.s 			page 27


 829 0036 AB60     		str	r3, [r5, #8]
  96:Source\mbedtls_open\library/x509.c **** 
 830              		.loc 1 96 0
 831 0038 6B68     		ldr	r3, [r5, #4]
 832 003a 2268     		ldr	r2, [r4]
 833 003c 9446     		mov	ip, r2
 834 003e 6344     		add	r3, r3, ip
 835 0040 2360     		str	r3, [r4]
  98:Source\mbedtls_open\library/x509.c **** }
 836              		.loc 1 98 0
 837 0042 0020     		movs	r0, #0
 838              	.LVL110:
 839 0044 02E0     		b	.L68
 840              	.LVL111:
 841              	.L71:
  82:Source\mbedtls_open\library/x509.c ****                 MBEDTLS_ERR_ASN1_OUT_OF_DATA );
 842              		.loc 1 82 0
 843 0046 0348     		ldr	r0, .L73+4
 844              	.LVL112:
 845 0048 00E0     		b	.L68
 846              	.LVL113:
 847              	.L72:
  87:Source\mbedtls_open\library/x509.c ****                 MBEDTLS_ERR_ASN1_UNEXPECTED_TAG );
 848              		.loc 1 87 0
 849 004a 0348     		ldr	r0, .L73+8
 850              	.LVL114:
 851              	.L68:
  99:Source\mbedtls_open\library/x509.c **** 
 852              		.loc 1 99 0
 853              		@ sp needed
 854              	.LVL115:
 855              	.LVL116:
 856 004c 70BD     		pop	{r4, r5, r6, pc}
 857              	.L74:
 858 004e C046     		.align	2
 859              	.L73:
 860 0050 80DDFFFF 		.word	-8832
 861 0054 20DDFFFF 		.word	-8928
 862 0058 1EDDFFFF 		.word	-8930
 863              		.cfi_endproc
 864              	.LFE11:
 865              		.size	mbedtls_x509_get_serial, .-mbedtls_x509_get_serial
 866              		.section	.text.mbedtls_x509_get_alg_null,"ax",%progbits
 867              		.align	2
 868              		.global	mbedtls_x509_get_alg_null
 869              		.code	16
 870              		.thumb_func
 871              		.type	mbedtls_x509_get_alg_null, %function
 872              	mbedtls_x509_get_alg_null:
 873              	.LFB12:
 109:Source\mbedtls_open\library/x509.c ****     int ret;
 874              		.loc 1 109 0
 875              		.cfi_startproc
 876              		@ args = 0, pretend = 0, frame = 0
 877              		@ frame_needed = 0, uses_anonymous_args = 0
 878              	.LVL117:
 879 0000 10B5     		push	{r4, lr}
ARM GAS  C:\Users\Phuong\AppData\Local\Temp\cciPItDa.s 			page 28


 880              		.cfi_def_cfa_offset 8
 881              		.cfi_offset 4, -8
 882              		.cfi_offset 14, -4
 112:Source\mbedtls_open\library/x509.c ****         return( MBEDTLS_ERR_X509_INVALID_ALG + ret );
 883              		.loc 1 112 0
 884 0002 FFF7FEFF 		bl	mbedtls_asn1_get_alg_null
 885              	.LVL118:
 886 0006 0028     		cmp	r0, #0
 887 0008 03D0     		beq	.L77
 113:Source\mbedtls_open\library/x509.c **** 
 888              		.loc 1 113 0
 889 000a 034B     		ldr	r3, .L78
 890 000c 9C46     		mov	ip, r3
 891 000e 6044     		add	r0, r0, ip
 892              	.LVL119:
 893 0010 00E0     		b	.L76
 894              	.LVL120:
 895              	.L77:
 115:Source\mbedtls_open\library/x509.c **** }
 896              		.loc 1 115 0
 897 0012 0020     		movs	r0, #0
 898              	.LVL121:
 899              	.L76:
 116:Source\mbedtls_open\library/x509.c **** 
 900              		.loc 1 116 0
 901              		@ sp needed
 902 0014 10BD     		pop	{r4, pc}
 903              	.L79:
 904 0016 C046     		.align	2
 905              	.L78:
 906 0018 00DDFFFF 		.word	-8960
 907              		.cfi_endproc
 908              	.LFE12:
 909              		.size	mbedtls_x509_get_alg_null, .-mbedtls_x509_get_alg_null
 910              		.section	.text.mbedtls_x509_get_alg,"ax",%progbits
 911              		.align	2
 912              		.global	mbedtls_x509_get_alg
 913              		.code	16
 914              		.thumb_func
 915              		.type	mbedtls_x509_get_alg, %function
 916              	mbedtls_x509_get_alg:
 917              	.LFB13:
 123:Source\mbedtls_open\library/x509.c ****     int ret;
 918              		.loc 1 123 0
 919              		.cfi_startproc
 920              		@ args = 0, pretend = 0, frame = 0
 921              		@ frame_needed = 0, uses_anonymous_args = 0
 922              	.LVL122:
 923 0000 10B5     		push	{r4, lr}
 924              		.cfi_def_cfa_offset 8
 925              		.cfi_offset 4, -8
 926              		.cfi_offset 14, -4
 126:Source\mbedtls_open\library/x509.c ****         return( MBEDTLS_ERR_X509_INVALID_ALG + ret );
 927              		.loc 1 126 0
 928 0002 FFF7FEFF 		bl	mbedtls_asn1_get_alg
 929              	.LVL123:
 930 0006 0028     		cmp	r0, #0
ARM GAS  C:\Users\Phuong\AppData\Local\Temp\cciPItDa.s 			page 29


 931 0008 03D0     		beq	.L82
 127:Source\mbedtls_open\library/x509.c **** 
 932              		.loc 1 127 0
 933 000a 034B     		ldr	r3, .L83
 934 000c 9C46     		mov	ip, r3
 935 000e 6044     		add	r0, r0, ip
 936              	.LVL124:
 937 0010 00E0     		b	.L81
 938              	.LVL125:
 939              	.L82:
 129:Source\mbedtls_open\library/x509.c **** }
 940              		.loc 1 129 0
 941 0012 0020     		movs	r0, #0
 942              	.LVL126:
 943              	.L81:
 130:Source\mbedtls_open\library/x509.c **** 
 944              		.loc 1 130 0
 945              		@ sp needed
 946 0014 10BD     		pop	{r4, pc}
 947              	.L84:
 948 0016 C046     		.align	2
 949              	.L83:
 950 0018 00DDFFFF 		.word	-8960
 951              		.cfi_endproc
 952              	.LFE13:
 953              		.size	mbedtls_x509_get_alg, .-mbedtls_x509_get_alg
 954              		.section	.text.mbedtls_x509_get_rsassa_pss_params,"ax",%progbits
 955              		.align	2
 956              		.global	mbedtls_x509_get_rsassa_pss_params
 957              		.code	16
 958              		.thumb_func
 959              		.type	mbedtls_x509_get_rsassa_pss_params, %function
 960              	mbedtls_x509_get_rsassa_pss_params:
 961              	.LFB15:
 204:Source\mbedtls_open\library/x509.c ****     int ret;
 962              		.loc 1 204 0
 963              		.cfi_startproc
 964              		@ args = 0, pretend = 0, frame = 40
 965              		@ frame_needed = 0, uses_anonymous_args = 0
 966              	.LVL127:
 967 0000 F0B5     		push	{r4, r5, r6, r7, lr}
 968              		.cfi_def_cfa_offset 20
 969              		.cfi_offset 4, -20
 970              		.cfi_offset 5, -16
 971              		.cfi_offset 6, -12
 972              		.cfi_offset 7, -8
 973              		.cfi_offset 14, -4
 974 0002 4746     		mov	r7, r8
 975 0004 80B4     		push	{r7}
 976              		.cfi_def_cfa_offset 24
 977              		.cfi_offset 8, -24
 978 0006 8AB0     		sub	sp, sp, #40
 979              		.cfi_def_cfa_offset 64
 980 0008 0F00     		movs	r7, r1
 981 000a 1600     		movs	r6, r2
 982 000c 1D00     		movs	r5, r3
 212:Source\mbedtls_open\library/x509.c ****     *mgf_md = MBEDTLS_MD_SHA1;
ARM GAS  C:\Users\Phuong\AppData\Local\Temp\cciPItDa.s 			page 30


 983              		.loc 1 212 0
 984 000e 0423     		movs	r3, #4
 985              	.LVL128:
 986 0010 0B70     		strb	r3, [r1]
 213:Source\mbedtls_open\library/x509.c ****     *salt_len = 20;
 987              		.loc 1 213 0
 988 0012 1370     		strb	r3, [r2]
 214:Source\mbedtls_open\library/x509.c **** 
 989              		.loc 1 214 0
 990 0014 1033     		adds	r3, r3, #16
 991 0016 2B60     		str	r3, [r5]
 217:Source\mbedtls_open\library/x509.c ****         return( MBEDTLS_ERR_X509_INVALID_ALG +
 992              		.loc 1 217 0
 993 0018 0368     		ldr	r3, [r0]
 994 001a 302B     		cmp	r3, #48
 995 001c 00D0     		beq	.LCB1009
 996 001e C1E0     		b	.L100	@long jump
 997              	.LCB1009:
 221:Source\mbedtls_open\library/x509.c ****     end = p + params->len;
 998              		.loc 1 221 0
 999 0020 8368     		ldr	r3, [r0, #8]
 1000 0022 0993     		str	r3, [sp, #36]
 222:Source\mbedtls_open\library/x509.c **** 
 1001              		.loc 1 222 0
 1002 0024 4468     		ldr	r4, [r0, #4]
 1003 0026 1C19     		adds	r4, r3, r4
 1004              	.LVL129:
 224:Source\mbedtls_open\library/x509.c ****         return( 0 );
 1005              		.loc 1 224 0
 1006 0028 A342     		cmp	r3, r4
 1007 002a 00D1     		bne	.LCB1016
 1008 002c BCE0     		b	.L101	@long jump
 1009              	.LCB1016:
 230:Source\mbedtls_open\library/x509.c ****                     MBEDTLS_ASN1_CONTEXT_SPECIFIC | MBEDTLS_ASN1_CONSTRUCTED | 0 ) ) == 0 )
 1010              		.loc 1 230 0
 1011 002e A023     		movs	r3, #160
 1012 0030 08AA     		add	r2, sp, #32
 1013              	.LVL130:
 1014 0032 2100     		movs	r1, r4
 1015              	.LVL131:
 1016 0034 09A8     		add	r0, sp, #36
 1017              	.LVL132:
 1018 0036 FFF7FEFF 		bl	mbedtls_asn1_get_tag
 1019              	.LVL133:
 1020 003a 0028     		cmp	r0, #0
 1021 003c 1AD1     		bne	.L87
 233:Source\mbedtls_open\library/x509.c **** 
 1022              		.loc 1 233 0
 1023 003e 099B     		ldr	r3, [sp, #36]
 1024 0040 089A     		ldr	r2, [sp, #32]
 1025 0042 9446     		mov	ip, r2
 1026 0044 6344     		add	r3, r3, ip
 1027 0046 9846     		mov	r8, r3
 1028              	.LVL134:
 236:Source\mbedtls_open\library/x509.c ****             return( ret );
 1029              		.loc 1 236 0
 1030 0048 05AA     		add	r2, sp, #20
ARM GAS  C:\Users\Phuong\AppData\Local\Temp\cciPItDa.s 			page 31


 1031 004a 1900     		movs	r1, r3
 1032 004c 09A8     		add	r0, sp, #36
 1033              	.LVL135:
 1034 004e FFF7FEFF 		bl	mbedtls_x509_get_alg_null
 1035              	.LVL136:
 1036 0052 0028     		cmp	r0, #0
 1037 0054 00D0     		beq	.LCB1046
 1038 0056 B8E0     		b	.L86	@long jump
 1039              	.LCB1046:
 239:Source\mbedtls_open\library/x509.c ****             return( MBEDTLS_ERR_X509_INVALID_ALG + ret );
 1040              		.loc 1 239 0
 1041 0058 3900     		movs	r1, r7
 1042 005a 05A8     		add	r0, sp, #20
 1043              	.LVL137:
 1044 005c FFF7FEFF 		bl	mbedtls_oid_get_md_alg
 1045              	.LVL138:
 1046 0060 0028     		cmp	r0, #0
 1047 0062 03D0     		beq	.L88
 240:Source\mbedtls_open\library/x509.c **** 
 1048              		.loc 1 240 0
 1049 0064 5B4B     		ldr	r3, .L116
 1050 0066 9C46     		mov	ip, r3
 1051 0068 6044     		add	r0, r0, ip
 1052              	.LVL139:
 1053 006a AEE0     		b	.L86
 1054              	.LVL140:
 1055              	.L88:
 242:Source\mbedtls_open\library/x509.c ****             return( MBEDTLS_ERR_X509_INVALID_ALG +
 1056              		.loc 1 242 0
 1057 006c 099B     		ldr	r3, [sp, #36]
 1058 006e 9845     		cmp	r8, r3
 1059 0070 07D0     		beq	.L89
 1060 0072 9BE0     		b	.L103
 1061              	.LVL141:
 1062              	.L87:
 246:Source\mbedtls_open\library/x509.c ****         return( MBEDTLS_ERR_X509_INVALID_ALG + ret );
 1063              		.loc 1 246 0
 1064 0074 0300     		movs	r3, r0
 1065 0076 6233     		adds	r3, r3, #98
 1066 0078 03D0     		beq	.L89
 247:Source\mbedtls_open\library/x509.c **** 
 1067              		.loc 1 247 0
 1068 007a 564B     		ldr	r3, .L116
 1069 007c 9C46     		mov	ip, r3
 1070 007e 6044     		add	r0, r0, ip
 1071              	.LVL142:
 1072 0080 A3E0     		b	.L86
 1073              	.LVL143:
 1074              	.L89:
 249:Source\mbedtls_open\library/x509.c ****         return( 0 );
 1075              		.loc 1 249 0
 1076 0082 099B     		ldr	r3, [sp, #36]
 1077 0084 9C42     		cmp	r4, r3
 1078 0086 00D1     		bne	.LCB1089
 1079 0088 92E0     		b	.L104	@long jump
 1080              	.LCB1089:
 255:Source\mbedtls_open\library/x509.c ****                     MBEDTLS_ASN1_CONTEXT_SPECIFIC | MBEDTLS_ASN1_CONSTRUCTED | 1 ) ) == 0 )
ARM GAS  C:\Users\Phuong\AppData\Local\Temp\cciPItDa.s 			page 32


 1081              		.loc 1 255 0
 1082 008a A123     		movs	r3, #161
 1083 008c 08AA     		add	r2, sp, #32
 1084 008e 2100     		movs	r1, r4
 1085 0090 09A8     		add	r0, sp, #36
 1086              	.LVL144:
 1087 0092 FFF7FEFF 		bl	mbedtls_asn1_get_tag
 1088              	.LVL145:
 1089 0096 0028     		cmp	r0, #0
 1090 0098 25D1     		bne	.L90
 258:Source\mbedtls_open\library/x509.c **** 
 1091              		.loc 1 258 0
 1092 009a 099B     		ldr	r3, [sp, #36]
 1093 009c 089A     		ldr	r2, [sp, #32]
 1094 009e 9446     		mov	ip, r2
 1095 00a0 6344     		add	r3, r3, ip
 1096 00a2 1F00     		movs	r7, r3
 1097              	.LVL146:
 261:Source\mbedtls_open\library/x509.c ****             return( ret );
 1098              		.loc 1 261 0
 1099 00a4 02AB     		add	r3, sp, #8
 1100              	.LVL147:
 1101 00a6 05AA     		add	r2, sp, #20
 1102 00a8 3900     		movs	r1, r7
 1103 00aa 09A8     		add	r0, sp, #36
 1104              	.LVL148:
 1105 00ac FFF7FEFF 		bl	mbedtls_x509_get_alg
 1106              	.LVL149:
 1107 00b0 0028     		cmp	r0, #0
 1108 00b2 00D0     		beq	.LCB1119
 1109 00b4 89E0     		b	.L86	@long jump
 1110              	.LCB1119:
 265:Source\mbedtls_open\library/x509.c ****             return( MBEDTLS_ERR_X509_FEATURE_UNAVAILABLE +
 1111              		.loc 1 265 0
 1112 00b6 069A     		ldr	r2, [sp, #24]
 1113 00b8 092A     		cmp	r2, #9
 1114 00ba 07D1     		bne	.L106
 265:Source\mbedtls_open\library/x509.c ****             return( MBEDTLS_ERR_X509_FEATURE_UNAVAILABLE +
 1115              		.loc 1 265 0 is_stmt 0 discriminator 2
 1116 00bc 0799     		ldr	r1, [sp, #28]
 1117 00be 4648     		ldr	r0, .L116+4
 1118              	.LVL150:
 1119 00c0 FFF7FEFF 		bl	memcmp
 1120              	.LVL151:
 1121 00c4 0028     		cmp	r0, #0
 1122 00c6 02D0     		beq	.L91
 265:Source\mbedtls_open\library/x509.c ****             return( MBEDTLS_ERR_X509_FEATURE_UNAVAILABLE +
 1123              		.loc 1 265 0
 1124 00c8 0120     		movs	r0, #1
 1125 00ca 00E0     		b	.L91
 1126              	.LVL152:
 1127              	.L106:
 1128 00cc 0120     		movs	r0, #1
 1129              	.LVL153:
 1130              	.L91:
 265:Source\mbedtls_open\library/x509.c ****             return( MBEDTLS_ERR_X509_FEATURE_UNAVAILABLE +
 1131              		.loc 1 265 0 discriminator 6
ARM GAS  C:\Users\Phuong\AppData\Local\Temp\cciPItDa.s 			page 33


 1132 00ce 0028     		cmp	r0, #0
 1133 00d0 70D1     		bne	.L107
 270:Source\mbedtls_open\library/x509.c ****             return( ret );
 1134              		.loc 1 270 0 is_stmt 1
 1135 00d2 3100     		movs	r1, r6
 1136 00d4 02A8     		add	r0, sp, #8
 1137 00d6 FFF7FEFF 		bl	x509_get_hash_alg
 1138              	.LVL154:
 1139 00da 0028     		cmp	r0, #0
 1140 00dc 75D1     		bne	.L86
 273:Source\mbedtls_open\library/x509.c ****             return( MBEDTLS_ERR_X509_INVALID_ALG +
 1141              		.loc 1 273 0
 1142 00de 099B     		ldr	r3, [sp, #36]
 1143 00e0 9F42     		cmp	r7, r3
 1144 00e2 07D0     		beq	.L92
 1145 00e4 68E0     		b	.L109
 1146              	.LVL155:
 1147              	.L90:
 277:Source\mbedtls_open\library/x509.c ****         return( MBEDTLS_ERR_X509_INVALID_ALG + ret );
 1148              		.loc 1 277 0
 1149 00e6 0300     		movs	r3, r0
 1150 00e8 6233     		adds	r3, r3, #98
 1151 00ea 03D0     		beq	.L92
 278:Source\mbedtls_open\library/x509.c **** 
 1152              		.loc 1 278 0
 1153 00ec 394B     		ldr	r3, .L116
 1154 00ee 9C46     		mov	ip, r3
 1155 00f0 6044     		add	r0, r0, ip
 1156              	.LVL156:
 1157 00f2 6AE0     		b	.L86
 1158              	.LVL157:
 1159              	.L92:
 280:Source\mbedtls_open\library/x509.c ****         return( 0 );
 1160              		.loc 1 280 0
 1161 00f4 099B     		ldr	r3, [sp, #36]
 1162 00f6 9C42     		cmp	r4, r3
 1163 00f8 60D0     		beq	.L110
 286:Source\mbedtls_open\library/x509.c ****                     MBEDTLS_ASN1_CONTEXT_SPECIFIC | MBEDTLS_ASN1_CONSTRUCTED | 2 ) ) == 0 )
 1164              		.loc 1 286 0
 1165 00fa A223     		movs	r3, #162
 1166 00fc 08AA     		add	r2, sp, #32
 1167 00fe 2100     		movs	r1, r4
 1168 0100 09A8     		add	r0, sp, #36
 1169              	.LVL158:
 1170 0102 FFF7FEFF 		bl	mbedtls_asn1_get_tag
 1171              	.LVL159:
 1172 0106 0028     		cmp	r0, #0
 1173 0108 13D1     		bne	.L93
 289:Source\mbedtls_open\library/x509.c **** 
 1174              		.loc 1 289 0
 1175 010a 099B     		ldr	r3, [sp, #36]
 1176 010c 089A     		ldr	r2, [sp, #32]
 1177 010e 9446     		mov	ip, r2
 1178 0110 6344     		add	r3, r3, ip
 1179 0112 1E00     		movs	r6, r3
 1180              	.LVL160:
 291:Source\mbedtls_open\library/x509.c ****             return( MBEDTLS_ERR_X509_INVALID_ALG + ret );
ARM GAS  C:\Users\Phuong\AppData\Local\Temp\cciPItDa.s 			page 34


 1181              		.loc 1 291 0
 1182 0114 2A00     		movs	r2, r5
 1183 0116 1900     		movs	r1, r3
 1184 0118 09A8     		add	r0, sp, #36
 1185              	.LVL161:
 1186 011a FFF7FEFF 		bl	mbedtls_asn1_get_int
 1187              	.LVL162:
 1188 011e 0028     		cmp	r0, #0
 1189 0120 03D0     		beq	.L94
 292:Source\mbedtls_open\library/x509.c **** 
 1190              		.loc 1 292 0
 1191 0122 2C4B     		ldr	r3, .L116
 1192 0124 9C46     		mov	ip, r3
 1193 0126 6044     		add	r0, r0, ip
 1194              	.LVL163:
 1195 0128 4FE0     		b	.L86
 1196              	.LVL164:
 1197              	.L94:
 294:Source\mbedtls_open\library/x509.c ****             return( MBEDTLS_ERR_X509_INVALID_ALG +
 1198              		.loc 1 294 0
 1199 012a 099B     		ldr	r3, [sp, #36]
 1200 012c 9E42     		cmp	r6, r3
 1201 012e 07D0     		beq	.L95
 1202 0130 46E0     		b	.L111
 1203              	.LVL165:
 1204              	.L93:
 298:Source\mbedtls_open\library/x509.c ****         return( MBEDTLS_ERR_X509_INVALID_ALG + ret );
 1205              		.loc 1 298 0
 1206 0132 0300     		movs	r3, r0
 1207 0134 6233     		adds	r3, r3, #98
 1208 0136 03D0     		beq	.L95
 299:Source\mbedtls_open\library/x509.c **** 
 1209              		.loc 1 299 0
 1210 0138 264B     		ldr	r3, .L116
 1211 013a 9C46     		mov	ip, r3
 1212 013c 6044     		add	r0, r0, ip
 1213              	.LVL166:
 1214 013e 44E0     		b	.L86
 1215              	.LVL167:
 1216              	.L95:
 301:Source\mbedtls_open\library/x509.c ****         return( 0 );
 1217              		.loc 1 301 0
 1218 0140 099B     		ldr	r3, [sp, #36]
 1219 0142 9C42     		cmp	r4, r3
 1220 0144 3ED0     		beq	.L112
 307:Source\mbedtls_open\library/x509.c ****                     MBEDTLS_ASN1_CONTEXT_SPECIFIC | MBEDTLS_ASN1_CONSTRUCTED | 3 ) ) == 0 )
 1221              		.loc 1 307 0
 1222 0146 A323     		movs	r3, #163
 1223 0148 08AA     		add	r2, sp, #32
 1224 014a 2100     		movs	r1, r4
 1225 014c 09A8     		add	r0, sp, #36
 1226              	.LVL168:
 1227 014e FFF7FEFF 		bl	mbedtls_asn1_get_tag
 1228              	.LVL169:
 1229 0152 0028     		cmp	r0, #0
 1230 0154 1AD1     		bne	.L96
 1231              	.LBB2:
ARM GAS  C:\Users\Phuong\AppData\Local\Temp\cciPItDa.s 			page 35


 312:Source\mbedtls_open\library/x509.c **** 
 1232              		.loc 1 312 0
 1233 0156 099B     		ldr	r3, [sp, #36]
 1234 0158 089A     		ldr	r2, [sp, #32]
 1235 015a 9446     		mov	ip, r2
 1236 015c 6344     		add	r3, r3, ip
 1237 015e 1D00     		movs	r5, r3
 1238              	.LVL170:
 314:Source\mbedtls_open\library/x509.c ****             return( MBEDTLS_ERR_X509_INVALID_ALG + ret );
 1239              		.loc 1 314 0
 1240 0160 01AA     		add	r2, sp, #4
 1241 0162 1900     		movs	r1, r3
 1242 0164 09A8     		add	r0, sp, #36
 1243              	.LVL171:
 1244 0166 FFF7FEFF 		bl	mbedtls_asn1_get_int
 1245              	.LVL172:
 1246 016a 0028     		cmp	r0, #0
 1247 016c 03D0     		beq	.L97
 315:Source\mbedtls_open\library/x509.c **** 
 1248              		.loc 1 315 0
 1249 016e 194B     		ldr	r3, .L116
 1250 0170 9C46     		mov	ip, r3
 1251 0172 6044     		add	r0, r0, ip
 1252              	.LVL173:
 1253 0174 29E0     		b	.L86
 1254              	.LVL174:
 1255              	.L97:
 317:Source\mbedtls_open\library/x509.c ****             return( MBEDTLS_ERR_X509_INVALID_ALG +
 1256              		.loc 1 317 0
 1257 0176 099B     		ldr	r3, [sp, #36]
 1258 0178 9D42     		cmp	r5, r3
 1259 017a 03D1     		bne	.L113
 321:Source\mbedtls_open\library/x509.c ****             return( MBEDTLS_ERR_X509_INVALID_ALG );
 1260              		.loc 1 321 0
 1261 017c 019B     		ldr	r3, [sp, #4]
 1262 017e 012B     		cmp	r3, #1
 1263 0180 02D1     		bne	.L114
 1264 0182 0AE0     		b	.L99
 1265              	.L113:
 318:Source\mbedtls_open\library/x509.c ****                     MBEDTLS_ERR_ASN1_LENGTH_MISMATCH );
 1266              		.loc 1 318 0
 1267 0184 1548     		ldr	r0, .L116+8
 1268              	.LVL175:
 1269 0186 20E0     		b	.L86
 1270              	.LVL176:
 1271              	.L114:
 322:Source\mbedtls_open\library/x509.c ****     }
 1272              		.loc 1 322 0
 1273 0188 1248     		ldr	r0, .L116
 1274              	.LVL177:
 1275 018a 1EE0     		b	.L86
 1276              	.LVL178:
 1277              	.L96:
 1278              	.LBE2:
 324:Source\mbedtls_open\library/x509.c ****         return( MBEDTLS_ERR_X509_INVALID_ALG + ret );
 1279              		.loc 1 324 0
 1280 018c 0300     		movs	r3, r0
ARM GAS  C:\Users\Phuong\AppData\Local\Temp\cciPItDa.s 			page 36


 1281 018e 6233     		adds	r3, r3, #98
 1282 0190 03D0     		beq	.L99
 325:Source\mbedtls_open\library/x509.c **** 
 1283              		.loc 1 325 0
 1284 0192 104B     		ldr	r3, .L116
 1285 0194 9C46     		mov	ip, r3
 1286 0196 6044     		add	r0, r0, ip
 1287              	.LVL179:
 1288 0198 17E0     		b	.L86
 1289              	.LVL180:
 1290              	.L99:
 327:Source\mbedtls_open\library/x509.c ****         return( MBEDTLS_ERR_X509_INVALID_ALG +
 1291              		.loc 1 327 0
 1292 019a 099B     		ldr	r3, [sp, #36]
 1293 019c 9C42     		cmp	r4, r3
 1294 019e 13D0     		beq	.L115
 328:Source\mbedtls_open\library/x509.c ****                 MBEDTLS_ERR_ASN1_LENGTH_MISMATCH );
 1295              		.loc 1 328 0
 1296 01a0 0E48     		ldr	r0, .L116+8
 1297              	.LVL181:
 1298 01a2 12E0     		b	.L86
 1299              	.LVL182:
 1300              	.L100:
 218:Source\mbedtls_open\library/x509.c ****                 MBEDTLS_ERR_ASN1_UNEXPECTED_TAG );
 1301              		.loc 1 218 0
 1302 01a4 0E48     		ldr	r0, .L116+12
 1303              	.LVL183:
 1304 01a6 10E0     		b	.L86
 1305              	.LVL184:
 1306              	.L101:
 225:Source\mbedtls_open\library/x509.c **** 
 1307              		.loc 1 225 0
 1308 01a8 0020     		movs	r0, #0
 1309              	.LVL185:
 1310 01aa 0EE0     		b	.L86
 1311              	.LVL186:
 1312              	.L103:
 243:Source\mbedtls_open\library/x509.c ****                     MBEDTLS_ERR_ASN1_LENGTH_MISMATCH );
 1313              		.loc 1 243 0
 1314 01ac 0B48     		ldr	r0, .L116+8
 1315              	.LVL187:
 1316 01ae 0CE0     		b	.L86
 1317              	.LVL188:
 1318              	.L104:
 250:Source\mbedtls_open\library/x509.c **** 
 1319              		.loc 1 250 0
 1320 01b0 0020     		movs	r0, #0
 1321              	.LVL189:
 1322 01b2 0AE0     		b	.L86
 1323              	.LVL190:
 1324              	.L107:
 266:Source\mbedtls_open\library/x509.c ****                     MBEDTLS_ERR_OID_NOT_FOUND );
 1325              		.loc 1 266 0
 1326 01b4 0B48     		ldr	r0, .L116+16
 1327 01b6 08E0     		b	.L86
 1328              	.LVL191:
 1329              	.L109:
ARM GAS  C:\Users\Phuong\AppData\Local\Temp\cciPItDa.s 			page 37


 274:Source\mbedtls_open\library/x509.c ****                     MBEDTLS_ERR_ASN1_LENGTH_MISMATCH );
 1330              		.loc 1 274 0
 1331 01b8 0848     		ldr	r0, .L116+8
 1332              	.LVL192:
 1333 01ba 06E0     		b	.L86
 1334              	.LVL193:
 1335              	.L110:
 281:Source\mbedtls_open\library/x509.c **** 
 1336              		.loc 1 281 0
 1337 01bc 0020     		movs	r0, #0
 1338              	.LVL194:
 1339 01be 04E0     		b	.L86
 1340              	.LVL195:
 1341              	.L111:
 295:Source\mbedtls_open\library/x509.c ****                     MBEDTLS_ERR_ASN1_LENGTH_MISMATCH );
 1342              		.loc 1 295 0
 1343 01c0 0648     		ldr	r0, .L116+8
 1344              	.LVL196:
 1345 01c2 02E0     		b	.L86
 1346              	.LVL197:
 1347              	.L112:
 302:Source\mbedtls_open\library/x509.c **** 
 1348              		.loc 1 302 0
 1349 01c4 0020     		movs	r0, #0
 1350              	.LVL198:
 1351 01c6 00E0     		b	.L86
 1352              	.LVL199:
 1353              	.L115:
 331:Source\mbedtls_open\library/x509.c **** }
 1354              		.loc 1 331 0
 1355 01c8 0020     		movs	r0, #0
 1356              	.LVL200:
 1357              	.L86:
 332:Source\mbedtls_open\library/x509.c **** #endif /* MBEDTLS_X509_RSASSA_PSS_SUPPORT */
 1358              		.loc 1 332 0
 1359 01ca 0AB0     		add	sp, sp, #40
 1360              		@ sp needed
 1361 01cc 04BC     		pop	{r2}
 1362 01ce 9046     		mov	r8, r2
 1363 01d0 F0BD     		pop	{r4, r5, r6, r7, pc}
 1364              	.L117:
 1365 01d2 C046     		.align	2
 1366              	.L116:
 1367 01d4 00DDFFFF 		.word	-8960
 1368 01d8 00000000 		.word	.LC1
 1369 01dc 9ADCFFFF 		.word	-9062
 1370 01e0 9EDCFFFF 		.word	-9058
 1371 01e4 52DFFFFF 		.word	-8366
 1372              		.cfi_endproc
 1373              	.LFE15:
 1374              		.size	mbedtls_x509_get_rsassa_pss_params, .-mbedtls_x509_get_rsassa_pss_params
 1375              		.section	.text.mbedtls_x509_get_name,"ax",%progbits
 1376              		.align	2
 1377              		.global	mbedtls_x509_get_name
 1378              		.code	16
 1379              		.thumb_func
 1380              		.type	mbedtls_x509_get_name, %function
ARM GAS  C:\Users\Phuong\AppData\Local\Temp\cciPItDa.s 			page 38


 1381              	mbedtls_x509_get_name:
 1382              	.LFB17:
 420:Source\mbedtls_open\library/x509.c ****     int ret;
 1383              		.loc 1 420 0
 1384              		.cfi_startproc
 1385              		@ args = 0, pretend = 0, frame = 8
 1386              		@ frame_needed = 0, uses_anonymous_args = 0
 1387              	.LVL201:
 1388 0000 F0B5     		push	{r4, r5, r6, r7, lr}
 1389              		.cfi_def_cfa_offset 20
 1390              		.cfi_offset 4, -20
 1391              		.cfi_offset 5, -16
 1392              		.cfi_offset 6, -12
 1393              		.cfi_offset 7, -8
 1394              		.cfi_offset 14, -4
 1395 0002 83B0     		sub	sp, sp, #12
 1396              		.cfi_def_cfa_offset 32
 1397 0004 0700     		movs	r7, r0
 1398 0006 0D00     		movs	r5, r1
 1399 0008 1400     		movs	r4, r2
 1400 000a 00E0     		b	.L123
 1401              	.LVL202:
 1402              	.L127:
 467:Source\mbedtls_open\library/x509.c ****     }
 1403              		.loc 1 467 0
 1404 000c 0400     		movs	r4, r0
 1405              	.LVL203:
 1406              	.L123:
 431:Source\mbedtls_open\library/x509.c ****                 MBEDTLS_ASN1_CONSTRUCTED | MBEDTLS_ASN1_SET ) ) != 0 )
 1407              		.loc 1 431 0
 1408 000e 3123     		movs	r3, #49
 1409 0010 01AA     		add	r2, sp, #4
 1410 0012 2900     		movs	r1, r5
 1411 0014 3800     		movs	r0, r7
 1412 0016 FFF7FEFF 		bl	mbedtls_asn1_get_tag
 1413              	.LVL204:
 1414 001a 0028     		cmp	r0, #0
 1415 001c 03D0     		beq	.L119
 433:Source\mbedtls_open\library/x509.c **** 
 1416              		.loc 1 433 0
 1417 001e 174B     		ldr	r3, .L128
 1418 0020 9C46     		mov	ip, r3
 1419 0022 6044     		add	r0, r0, ip
 1420              	.LVL205:
 1421 0024 27E0     		b	.L120
 1422              	.LVL206:
 1423              	.L119:
 435:Source\mbedtls_open\library/x509.c **** 
 1424              		.loc 1 435 0
 1425 0026 3B68     		ldr	r3, [r7]
 1426 0028 019A     		ldr	r2, [sp, #4]
 1427 002a 9446     		mov	ip, r2
 1428 002c 6344     		add	r3, r3, ip
 1429 002e 1E00     		movs	r6, r3
 1430              	.LVL207:
 1431              	.L122:
 439:Source\mbedtls_open\library/x509.c ****                 return( ret );
ARM GAS  C:\Users\Phuong\AppData\Local\Temp\cciPItDa.s 			page 39


 1432              		.loc 1 439 0
 1433 0030 2200     		movs	r2, r4
 1434 0032 3100     		movs	r1, r6
 1435 0034 3800     		movs	r0, r7
 1436 0036 FFF7FEFF 		bl	x509_get_attr_type_value
 1437              	.LVL208:
 1438 003a 0028     		cmp	r0, #0
 1439 003c 1BD1     		bne	.L120
 442:Source\mbedtls_open\library/x509.c ****                 break;
 1440              		.loc 1 442 0
 1441 003e 3B68     		ldr	r3, [r7]
 1442 0040 9E42     		cmp	r6, r3
 1443 0042 0AD0     		beq	.L121
 446:Source\mbedtls_open\library/x509.c **** 
 1444              		.loc 1 446 0
 1445 0044 0123     		movs	r3, #1
 1446 0046 2377     		strb	r3, [r4, #28]
 448:Source\mbedtls_open\library/x509.c **** 
 1447              		.loc 1 448 0
 1448 0048 2021     		movs	r1, #32
 1449 004a 0130     		adds	r0, r0, #1
 1450              	.LVL209:
 1451 004c FFF7FEFF 		bl	calloc
 1452              	.LVL210:
 1453 0050 A061     		str	r0, [r4, #24]
 450:Source\mbedtls_open\library/x509.c ****                 return( MBEDTLS_ERR_X509_ALLOC_FAILED );
 1454              		.loc 1 450 0
 1455 0052 0028     		cmp	r0, #0
 1456 0054 0CD0     		beq	.L125
 453:Source\mbedtls_open\library/x509.c ****         }
 1457              		.loc 1 453 0
 1458 0056 0400     		movs	r4, r0
 1459              	.LVL211:
 1460 0058 EAE7     		b	.L122
 1461              	.LVL212:
 1462              	.L121:
 459:Source\mbedtls_open\library/x509.c ****             return( 0 );
 1463              		.loc 1 459 0
 1464 005a 9D42     		cmp	r5, r3
 1465 005c 0AD0     		beq	.L126
 462:Source\mbedtls_open\library/x509.c **** 
 1466              		.loc 1 462 0
 1467 005e 2021     		movs	r1, #32
 1468 0060 0120     		movs	r0, #1
 1469              	.LVL213:
 1470 0062 FFF7FEFF 		bl	calloc
 1471              	.LVL214:
 1472 0066 A061     		str	r0, [r4, #24]
 464:Source\mbedtls_open\library/x509.c ****             return( MBEDTLS_ERR_X509_ALLOC_FAILED );
 1473              		.loc 1 464 0
 1474 0068 0028     		cmp	r0, #0
 1475 006a CFD1     		bne	.L127
 465:Source\mbedtls_open\library/x509.c **** 
 1476              		.loc 1 465 0
 1477 006c 0448     		ldr	r0, .L128+4
 1478 006e 02E0     		b	.L120
 1479              	.L125:
ARM GAS  C:\Users\Phuong\AppData\Local\Temp\cciPItDa.s 			page 40


 451:Source\mbedtls_open\library/x509.c **** 
 1480              		.loc 1 451 0
 1481 0070 0348     		ldr	r0, .L128+4
 1482 0072 00E0     		b	.L120
 1483              	.LVL215:
 1484              	.L126:
 460:Source\mbedtls_open\library/x509.c **** 
 1485              		.loc 1 460 0
 1486 0074 0020     		movs	r0, #0
 1487              	.LVL216:
 1488              	.L120:
 469:Source\mbedtls_open\library/x509.c **** 
 1489              		.loc 1 469 0
 1490 0076 03B0     		add	sp, sp, #12
 1491              		@ sp needed
 1492              	.LVL217:
 1493              	.LVL218:
 1494              	.LVL219:
 1495 0078 F0BD     		pop	{r4, r5, r6, r7, pc}
 1496              	.L129:
 1497 007a C046     		.align	2
 1498              	.L128:
 1499 007c 80DCFFFF 		.word	-9088
 1500 0080 80D7FFFF 		.word	-10368
 1501              		.cfi_endproc
 1502              	.LFE17:
 1503              		.size	mbedtls_x509_get_name, .-mbedtls_x509_get_name
 1504              		.section	.text.mbedtls_x509_get_time,"ax",%progbits
 1505              		.align	2
 1506              		.global	mbedtls_x509_get_time
 1507              		.code	16
 1508              		.thumb_func
 1509              		.type	mbedtls_x509_get_time, %function
 1510              	mbedtls_x509_get_time:
 1511              	.LFB21:
 583:Source\mbedtls_open\library/x509.c **** 
 584:Source\mbedtls_open\library/x509.c **** /*
 585:Source\mbedtls_open\library/x509.c ****  *  Time ::= CHOICE {
 586:Source\mbedtls_open\library/x509.c ****  *       utcTime        UTCTime,
 587:Source\mbedtls_open\library/x509.c ****  *       generalTime    GeneralizedTime }
 588:Source\mbedtls_open\library/x509.c ****  */
 589:Source\mbedtls_open\library/x509.c **** int mbedtls_x509_get_time( unsigned char **p, const unsigned char *end,
 590:Source\mbedtls_open\library/x509.c ****                            mbedtls_x509_time *tm )
 591:Source\mbedtls_open\library/x509.c **** {
 1512              		.loc 1 591 0
 1513              		.cfi_startproc
 1514              		@ args = 0, pretend = 0, frame = 8
 1515              		@ frame_needed = 0, uses_anonymous_args = 0
 1516              	.LVL220:
 1517 0000 70B5     		push	{r4, r5, r6, lr}
 1518              		.cfi_def_cfa_offset 16
 1519              		.cfi_offset 4, -16
 1520              		.cfi_offset 5, -12
 1521              		.cfi_offset 6, -8
 1522              		.cfi_offset 14, -4
 1523 0002 82B0     		sub	sp, sp, #8
 1524              		.cfi_def_cfa_offset 24
ARM GAS  C:\Users\Phuong\AppData\Local\Temp\cciPItDa.s 			page 41


 1525 0004 0600     		movs	r6, r0
 1526 0006 1400     		movs	r4, r2
 592:Source\mbedtls_open\library/x509.c ****     int ret;
 593:Source\mbedtls_open\library/x509.c ****     size_t len, year_len;
 594:Source\mbedtls_open\library/x509.c ****     unsigned char tag;
 595:Source\mbedtls_open\library/x509.c **** 
 596:Source\mbedtls_open\library/x509.c ****     if( ( end - *p ) < 1 )
 1527              		.loc 1 596 0
 1528 0008 0368     		ldr	r3, [r0]
 1529 000a CA1A     		subs	r2, r1, r3
 1530              	.LVL221:
 1531 000c 002A     		cmp	r2, #0
 1532 000e 1ADD     		ble	.L134
 597:Source\mbedtls_open\library/x509.c ****         return( MBEDTLS_ERR_X509_INVALID_DATE +
 598:Source\mbedtls_open\library/x509.c ****                 MBEDTLS_ERR_ASN1_OUT_OF_DATA );
 599:Source\mbedtls_open\library/x509.c **** 
 600:Source\mbedtls_open\library/x509.c ****     tag = **p;
 1533              		.loc 1 600 0
 1534 0010 1A78     		ldrb	r2, [r3]
 1535              	.LVL222:
 601:Source\mbedtls_open\library/x509.c **** 
 602:Source\mbedtls_open\library/x509.c ****     if( tag == MBEDTLS_ASN1_UTC_TIME )
 1536              		.loc 1 602 0
 1537 0012 172A     		cmp	r2, #23
 1538 0014 03D0     		beq	.L135
 603:Source\mbedtls_open\library/x509.c ****         year_len = 2;
 604:Source\mbedtls_open\library/x509.c ****     else if( tag == MBEDTLS_ASN1_GENERALIZED_TIME )
 1539              		.loc 1 604 0
 1540 0016 182A     		cmp	r2, #24
 1541 0018 17D1     		bne	.L136
 605:Source\mbedtls_open\library/x509.c ****         year_len = 4;
 1542              		.loc 1 605 0
 1543 001a 0425     		movs	r5, #4
 1544 001c 00E0     		b	.L132
 1545              	.L135:
 603:Source\mbedtls_open\library/x509.c ****         year_len = 2;
 1546              		.loc 1 603 0
 1547 001e 0225     		movs	r5, #2
 1548              	.L132:
 1549              	.LVL223:
 606:Source\mbedtls_open\library/x509.c ****     else
 607:Source\mbedtls_open\library/x509.c ****         return( MBEDTLS_ERR_X509_INVALID_DATE +
 608:Source\mbedtls_open\library/x509.c ****                 MBEDTLS_ERR_ASN1_UNEXPECTED_TAG );
 609:Source\mbedtls_open\library/x509.c **** 
 610:Source\mbedtls_open\library/x509.c ****     (*p)++;
 1550              		.loc 1 610 0
 1551 0020 0133     		adds	r3, r3, #1
 1552 0022 3360     		str	r3, [r6]
 611:Source\mbedtls_open\library/x509.c ****     ret = mbedtls_asn1_get_len( p, end, &len );
 1553              		.loc 1 611 0
 1554 0024 01AA     		add	r2, sp, #4
 1555              	.LVL224:
 1556 0026 3000     		movs	r0, r6
 1557              	.LVL225:
 1558 0028 FFF7FEFF 		bl	mbedtls_asn1_get_len
 1559              	.LVL226:
 612:Source\mbedtls_open\library/x509.c **** 
ARM GAS  C:\Users\Phuong\AppData\Local\Temp\cciPItDa.s 			page 42


 613:Source\mbedtls_open\library/x509.c ****     if( ret != 0 )
 1560              		.loc 1 613 0
 1561 002c 0028     		cmp	r0, #0
 1562 002e 03D0     		beq	.L133
 614:Source\mbedtls_open\library/x509.c ****         return( MBEDTLS_ERR_X509_INVALID_DATE + ret );
 1563              		.loc 1 614 0
 1564 0030 074B     		ldr	r3, .L137
 1565 0032 9C46     		mov	ip, r3
 1566 0034 6044     		add	r0, r0, ip
 1567              	.LVL227:
 1568 0036 09E0     		b	.L131
 1569              	.LVL228:
 1570              	.L133:
 615:Source\mbedtls_open\library/x509.c **** 
 616:Source\mbedtls_open\library/x509.c ****     return x509_parse_time( p, len, year_len, tm );
 1571              		.loc 1 616 0
 1572 0038 2300     		movs	r3, r4
 1573 003a 2A00     		movs	r2, r5
 1574 003c 0199     		ldr	r1, [sp, #4]
 1575 003e 3000     		movs	r0, r6
 1576              	.LVL229:
 1577 0040 FFF7FEFF 		bl	x509_parse_time
 1578              	.LVL230:
 1579 0044 02E0     		b	.L131
 1580              	.LVL231:
 1581              	.L134:
 597:Source\mbedtls_open\library/x509.c ****                 MBEDTLS_ERR_ASN1_OUT_OF_DATA );
 1582              		.loc 1 597 0
 1583 0046 0348     		ldr	r0, .L137+4
 1584              	.LVL232:
 1585 0048 00E0     		b	.L131
 1586              	.LVL233:
 1587              	.L136:
 607:Source\mbedtls_open\library/x509.c ****                 MBEDTLS_ERR_ASN1_UNEXPECTED_TAG );
 1588              		.loc 1 607 0
 1589 004a 0348     		ldr	r0, .L137+8
 1590              	.LVL234:
 1591              	.L131:
 617:Source\mbedtls_open\library/x509.c **** }
 1592              		.loc 1 617 0
 1593 004c 02B0     		add	sp, sp, #8
 1594              		@ sp needed
 1595              	.LVL235:
 1596              	.LVL236:
 1597 004e 70BD     		pop	{r4, r5, r6, pc}
 1598              	.L138:
 1599              		.align	2
 1600              	.L137:
 1601 0050 00DCFFFF 		.word	-9216
 1602 0054 A0DBFFFF 		.word	-9312
 1603 0058 9EDBFFFF 		.word	-9314
 1604              		.cfi_endproc
 1605              	.LFE21:
 1606              		.size	mbedtls_x509_get_time, .-mbedtls_x509_get_time
 1607              		.section	.text.mbedtls_x509_get_sig,"ax",%progbits
 1608              		.align	2
 1609              		.global	mbedtls_x509_get_sig
ARM GAS  C:\Users\Phuong\AppData\Local\Temp\cciPItDa.s 			page 43


 1610              		.code	16
 1611              		.thumb_func
 1612              		.type	mbedtls_x509_get_sig, %function
 1613              	mbedtls_x509_get_sig:
 1614              	.LFB22:
 618:Source\mbedtls_open\library/x509.c **** 
 619:Source\mbedtls_open\library/x509.c **** int mbedtls_x509_get_sig( unsigned char **p, const unsigned char *end, mbedtls_x509_buf *sig )
 620:Source\mbedtls_open\library/x509.c **** {
 1615              		.loc 1 620 0
 1616              		.cfi_startproc
 1617              		@ args = 0, pretend = 0, frame = 8
 1618              		@ frame_needed = 0, uses_anonymous_args = 0
 1619              	.LVL237:
 1620 0000 70B5     		push	{r4, r5, r6, lr}
 1621              		.cfi_def_cfa_offset 16
 1622              		.cfi_offset 4, -16
 1623              		.cfi_offset 5, -12
 1624              		.cfi_offset 6, -8
 1625              		.cfi_offset 14, -4
 1626 0002 82B0     		sub	sp, sp, #8
 1627              		.cfi_def_cfa_offset 24
 1628 0004 0400     		movs	r4, r0
 1629 0006 1500     		movs	r5, r2
 621:Source\mbedtls_open\library/x509.c ****     int ret;
 622:Source\mbedtls_open\library/x509.c ****     size_t len;
 623:Source\mbedtls_open\library/x509.c ****     int tag_type;
 624:Source\mbedtls_open\library/x509.c **** 
 625:Source\mbedtls_open\library/x509.c ****     if( ( end - *p ) < 1 )
 1630              		.loc 1 625 0
 1631 0008 0368     		ldr	r3, [r0]
 1632 000a CA1A     		subs	r2, r1, r3
 1633              	.LVL238:
 1634 000c 002A     		cmp	r2, #0
 1635 000e 14DD     		ble	.L142
 626:Source\mbedtls_open\library/x509.c ****         return( MBEDTLS_ERR_X509_INVALID_SIGNATURE +
 627:Source\mbedtls_open\library/x509.c ****                 MBEDTLS_ERR_ASN1_OUT_OF_DATA );
 628:Source\mbedtls_open\library/x509.c **** 
 629:Source\mbedtls_open\library/x509.c ****     tag_type = **p;
 1636              		.loc 1 629 0
 1637 0010 1E78     		ldrb	r6, [r3]
 1638              	.LVL239:
 630:Source\mbedtls_open\library/x509.c **** 
 631:Source\mbedtls_open\library/x509.c ****     if( ( ret = mbedtls_asn1_get_bitstring_null( p, end, &len ) ) != 0 )
 1639              		.loc 1 631 0
 1640 0012 01AA     		add	r2, sp, #4
 1641 0014 FFF7FEFF 		bl	mbedtls_asn1_get_bitstring_null
 1642              	.LVL240:
 1643 0018 0028     		cmp	r0, #0
 1644 001a 03D0     		beq	.L141
 632:Source\mbedtls_open\library/x509.c ****         return( MBEDTLS_ERR_X509_INVALID_SIGNATURE + ret );
 1645              		.loc 1 632 0
 1646 001c 084B     		ldr	r3, .L143
 1647 001e 9C46     		mov	ip, r3
 1648 0020 6044     		add	r0, r0, ip
 1649              	.LVL241:
 1650 0022 0BE0     		b	.L140
 1651              	.LVL242:
ARM GAS  C:\Users\Phuong\AppData\Local\Temp\cciPItDa.s 			page 44


 1652              	.L141:
 633:Source\mbedtls_open\library/x509.c **** 
 634:Source\mbedtls_open\library/x509.c ****     sig->tag = tag_type;
 1653              		.loc 1 634 0
 1654 0024 2E60     		str	r6, [r5]
 635:Source\mbedtls_open\library/x509.c ****     sig->len = len;
 1655              		.loc 1 635 0
 1656 0026 019B     		ldr	r3, [sp, #4]
 1657 0028 6B60     		str	r3, [r5, #4]
 636:Source\mbedtls_open\library/x509.c ****     sig->p = *p;
 1658              		.loc 1 636 0
 1659 002a 2268     		ldr	r2, [r4]
 1660 002c AA60     		str	r2, [r5, #8]
 637:Source\mbedtls_open\library/x509.c **** 
 638:Source\mbedtls_open\library/x509.c ****     *p += len;
 1661              		.loc 1 638 0
 1662 002e 2268     		ldr	r2, [r4]
 1663 0030 9446     		mov	ip, r2
 1664 0032 6344     		add	r3, r3, ip
 1665 0034 2360     		str	r3, [r4]
 639:Source\mbedtls_open\library/x509.c **** 
 640:Source\mbedtls_open\library/x509.c ****     return( 0 );
 1666              		.loc 1 640 0
 1667 0036 0020     		movs	r0, #0
 1668              	.LVL243:
 1669 0038 00E0     		b	.L140
 1670              	.LVL244:
 1671              	.L142:
 626:Source\mbedtls_open\library/x509.c ****                 MBEDTLS_ERR_ASN1_OUT_OF_DATA );
 1672              		.loc 1 626 0
 1673 003a 0248     		ldr	r0, .L143+4
 1674              	.LVL245:
 1675              	.L140:
 641:Source\mbedtls_open\library/x509.c **** }
 1676              		.loc 1 641 0
 1677 003c 02B0     		add	sp, sp, #8
 1678              		@ sp needed
 1679              	.LVL246:
 1680              	.LVL247:
 1681 003e 70BD     		pop	{r4, r5, r6, pc}
 1682              	.L144:
 1683              		.align	2
 1684              	.L143:
 1685 0040 80DBFFFF 		.word	-9344
 1686 0044 20DBFFFF 		.word	-9440
 1687              		.cfi_endproc
 1688              	.LFE22:
 1689              		.size	mbedtls_x509_get_sig, .-mbedtls_x509_get_sig
 1690              		.section	.text.mbedtls_x509_get_sig_alg,"ax",%progbits
 1691              		.align	2
 1692              		.global	mbedtls_x509_get_sig_alg
 1693              		.code	16
 1694              		.thumb_func
 1695              		.type	mbedtls_x509_get_sig_alg, %function
 1696              	mbedtls_x509_get_sig_alg:
 1697              	.LFB23:
 642:Source\mbedtls_open\library/x509.c **** 
ARM GAS  C:\Users\Phuong\AppData\Local\Temp\cciPItDa.s 			page 45


 643:Source\mbedtls_open\library/x509.c **** /*
 644:Source\mbedtls_open\library/x509.c ****  * Get signature algorithm from alg OID and optional parameters
 645:Source\mbedtls_open\library/x509.c ****  */
 646:Source\mbedtls_open\library/x509.c **** int mbedtls_x509_get_sig_alg( const mbedtls_x509_buf *sig_oid, const mbedtls_x509_buf *sig_params,
 647:Source\mbedtls_open\library/x509.c ****                       mbedtls_md_type_t *md_alg, mbedtls_pk_type_t *pk_alg,
 648:Source\mbedtls_open\library/x509.c ****                       void **sig_opts )
 649:Source\mbedtls_open\library/x509.c **** {
 1698              		.loc 1 649 0
 1699              		.cfi_startproc
 1700              		@ args = 4, pretend = 0, frame = 0
 1701              		@ frame_needed = 0, uses_anonymous_args = 0
 1702              	.LVL248:
 1703 0000 F8B5     		push	{r3, r4, r5, r6, r7, lr}
 1704              		.cfi_def_cfa_offset 24
 1705              		.cfi_offset 3, -24
 1706              		.cfi_offset 4, -20
 1707              		.cfi_offset 5, -16
 1708              		.cfi_offset 6, -12
 1709              		.cfi_offset 7, -8
 1710              		.cfi_offset 14, -4
 1711 0002 0F00     		movs	r7, r1
 1712 0004 1600     		movs	r6, r2
 1713 0006 1C00     		movs	r4, r3
 1714 0008 069D     		ldr	r5, [sp, #24]
 650:Source\mbedtls_open\library/x509.c ****     int ret;
 651:Source\mbedtls_open\library/x509.c **** 
 652:Source\mbedtls_open\library/x509.c ****     if( *sig_opts != NULL )
 1715              		.loc 1 652 0
 1716 000a 2B68     		ldr	r3, [r5]
 1717              	.LVL249:
 1718 000c 002B     		cmp	r3, #0
 1719 000e 2CD1     		bne	.L151
 653:Source\mbedtls_open\library/x509.c ****         return( MBEDTLS_ERR_X509_BAD_INPUT_DATA );
 654:Source\mbedtls_open\library/x509.c **** 
 655:Source\mbedtls_open\library/x509.c ****     if( ( ret = mbedtls_oid_get_sig_alg( sig_oid, md_alg, pk_alg ) ) != 0 )
 1720              		.loc 1 655 0
 1721 0010 2200     		movs	r2, r4
 1722              	.LVL250:
 1723 0012 3100     		movs	r1, r6
 1724              	.LVL251:
 1725 0014 FFF7FEFF 		bl	mbedtls_oid_get_sig_alg
 1726              	.LVL252:
 1727 0018 0028     		cmp	r0, #0
 1728 001a 03D0     		beq	.L147
 656:Source\mbedtls_open\library/x509.c ****         return( MBEDTLS_ERR_X509_UNKNOWN_SIG_ALG + ret );
 1729              		.loc 1 656 0
 1730 001c 174B     		ldr	r3, .L155
 1731 001e 9C46     		mov	ip, r3
 1732 0020 6044     		add	r0, r0, ip
 1733              	.LVL253:
 1734 0022 29E0     		b	.L146
 1735              	.LVL254:
 1736              	.L147:
 657:Source\mbedtls_open\library/x509.c **** 
 658:Source\mbedtls_open\library/x509.c **** #if defined(MBEDTLS_X509_RSASSA_PSS_SUPPORT)
 659:Source\mbedtls_open\library/x509.c ****     if( *pk_alg == MBEDTLS_PK_RSASSA_PSS )
 1737              		.loc 1 659 0
ARM GAS  C:\Users\Phuong\AppData\Local\Temp\cciPItDa.s 			page 46


 1738 0024 2378     		ldrb	r3, [r4]
 1739 0026 062B     		cmp	r3, #6
 1740 0028 15D1     		bne	.L148
 1741              	.LBB3:
 660:Source\mbedtls_open\library/x509.c ****     {
 661:Source\mbedtls_open\library/x509.c ****         mbedtls_pk_rsassa_pss_options *pss_opts;
 662:Source\mbedtls_open\library/x509.c **** 
 663:Source\mbedtls_open\library/x509.c ****         pss_opts = mbedtls_calloc( 1, sizeof( mbedtls_pk_rsassa_pss_options ) );
 1742              		.loc 1 663 0
 1743 002a 0821     		movs	r1, #8
 1744 002c 0120     		movs	r0, #1
 1745              	.LVL255:
 1746 002e FFF7FEFF 		bl	calloc
 1747              	.LVL256:
 1748 0032 041E     		subs	r4, r0, #0
 1749              	.LVL257:
 664:Source\mbedtls_open\library/x509.c ****         if( pss_opts == NULL )
 1750              		.loc 1 664 0
 1751 0034 1BD0     		beq	.L152
 665:Source\mbedtls_open\library/x509.c ****             return( MBEDTLS_ERR_X509_ALLOC_FAILED );
 666:Source\mbedtls_open\library/x509.c **** 
 667:Source\mbedtls_open\library/x509.c ****         ret = mbedtls_x509_get_rsassa_pss_params( sig_params,
 1752              		.loc 1 667 0
 1753 0036 031D     		adds	r3, r0, #4
 1754 0038 0200     		movs	r2, r0
 1755 003a 3100     		movs	r1, r6
 1756 003c 3800     		movs	r0, r7
 1757              	.LVL258:
 1758 003e FFF7FEFF 		bl	mbedtls_x509_get_rsassa_pss_params
 1759              	.LVL259:
 1760 0042 061E     		subs	r6, r0, #0
 1761              	.LVL260:
 668:Source\mbedtls_open\library/x509.c ****                                           md_alg,
 669:Source\mbedtls_open\library/x509.c ****                                           &pss_opts->mgf1_hash_id,
 670:Source\mbedtls_open\library/x509.c ****                                           &pss_opts->expected_salt_len );
 671:Source\mbedtls_open\library/x509.c ****         if( ret != 0 )
 1762              		.loc 1 671 0
 1763 0044 04D0     		beq	.L149
 672:Source\mbedtls_open\library/x509.c ****         {
 673:Source\mbedtls_open\library/x509.c ****             mbedtls_free( pss_opts );
 1764              		.loc 1 673 0
 1765 0046 2000     		movs	r0, r4
 1766              	.LVL261:
 1767 0048 FFF7FEFF 		bl	free
 1768              	.LVL262:
 674:Source\mbedtls_open\library/x509.c ****             return( ret );
 1769              		.loc 1 674 0
 1770 004c 3000     		movs	r0, r6
 1771 004e 13E0     		b	.L146
 1772              	.L149:
 675:Source\mbedtls_open\library/x509.c ****         }
 676:Source\mbedtls_open\library/x509.c **** 
 677:Source\mbedtls_open\library/x509.c ****         *sig_opts = (void *) pss_opts;
 1773              		.loc 1 677 0
 1774 0050 2C60     		str	r4, [r5]
 1775              	.LBE3:
 678:Source\mbedtls_open\library/x509.c ****     }
ARM GAS  C:\Users\Phuong\AppData\Local\Temp\cciPItDa.s 			page 47


 679:Source\mbedtls_open\library/x509.c ****     else
 680:Source\mbedtls_open\library/x509.c **** #endif /* MBEDTLS_X509_RSASSA_PSS_SUPPORT */
 681:Source\mbedtls_open\library/x509.c ****     {
 682:Source\mbedtls_open\library/x509.c ****         /* Make sure parameters are absent or NULL */
 683:Source\mbedtls_open\library/x509.c ****         if( ( sig_params->tag != MBEDTLS_ASN1_NULL && sig_params->tag != 0 ) ||
 684:Source\mbedtls_open\library/x509.c ****               sig_params->len != 0 )
 685:Source\mbedtls_open\library/x509.c ****         return( MBEDTLS_ERR_X509_INVALID_ALG );
 686:Source\mbedtls_open\library/x509.c ****     }
 687:Source\mbedtls_open\library/x509.c **** 
 688:Source\mbedtls_open\library/x509.c ****     return( 0 );
 1776              		.loc 1 688 0
 1777 0052 0020     		movs	r0, #0
 1778 0054 10E0     		b	.L146
 1779              	.LVL263:
 1780              	.L148:
 683:Source\mbedtls_open\library/x509.c ****               sig_params->len != 0 )
 1781              		.loc 1 683 0
 1782 0056 3B68     		ldr	r3, [r7]
 1783 0058 052B     		cmp	r3, #5
 1784 005a 01D0     		beq	.L150
 683:Source\mbedtls_open\library/x509.c ****               sig_params->len != 0 )
 1785              		.loc 1 683 0 is_stmt 0 discriminator 1
 1786 005c 002B     		cmp	r3, #0
 1787 005e 08D1     		bne	.L153
 1788              	.L150:
 684:Source\mbedtls_open\library/x509.c ****         return( MBEDTLS_ERR_X509_INVALID_ALG );
 1789              		.loc 1 684 0 is_stmt 1 discriminator 3
 1790 0060 7B68     		ldr	r3, [r7, #4]
 683:Source\mbedtls_open\library/x509.c ****               sig_params->len != 0 )
 1791              		.loc 1 683 0 discriminator 3
 1792 0062 002B     		cmp	r3, #0
 1793 0064 07D0     		beq	.L154
 685:Source\mbedtls_open\library/x509.c ****     }
 1794              		.loc 1 685 0
 1795 0066 0648     		ldr	r0, .L155+4
 1796              	.LVL264:
 1797 0068 06E0     		b	.L146
 1798              	.LVL265:
 1799              	.L151:
 653:Source\mbedtls_open\library/x509.c **** 
 1800              		.loc 1 653 0
 1801 006a 0648     		ldr	r0, .L155+8
 1802              	.LVL266:
 1803 006c 04E0     		b	.L146
 1804              	.LVL267:
 1805              	.L152:
 1806              	.LBB4:
 665:Source\mbedtls_open\library/x509.c **** 
 1807              		.loc 1 665 0
 1808 006e 0648     		ldr	r0, .L155+12
 1809              	.LVL268:
 1810 0070 02E0     		b	.L146
 1811              	.LVL269:
 1812              	.L153:
 1813              	.LBE4:
 685:Source\mbedtls_open\library/x509.c ****     }
 1814              		.loc 1 685 0
ARM GAS  C:\Users\Phuong\AppData\Local\Temp\cciPItDa.s 			page 48


 1815 0072 0348     		ldr	r0, .L155+4
 1816              	.LVL270:
 1817 0074 00E0     		b	.L146
 1818              	.LVL271:
 1819              	.L154:
 1820              		.loc 1 688 0
 1821 0076 0020     		movs	r0, #0
 1822              	.LVL272:
 1823              	.L146:
 689:Source\mbedtls_open\library/x509.c **** }
 1824              		.loc 1 689 0
 1825              		@ sp needed
 1826              	.LVL273:
 1827 0078 F8BD     		pop	{r3, r4, r5, r6, r7, pc}
 1828              	.L156:
 1829 007a C046     		.align	2
 1830              	.L155:
 1831 007c 00DAFFFF 		.word	-9728
 1832 0080 00DDFFFF 		.word	-8960
 1833 0084 00D8FFFF 		.word	-10240
 1834 0088 80D7FFFF 		.word	-10368
 1835              		.cfi_endproc
 1836              	.LFE23:
 1837              		.size	mbedtls_x509_get_sig_alg, .-mbedtls_x509_get_sig_alg
 1838              		.section	.text.mbedtls_x509_get_ext,"ax",%progbits
 1839              		.align	2
 1840              		.global	mbedtls_x509_get_ext
 1841              		.code	16
 1842              		.thumb_func
 1843              		.type	mbedtls_x509_get_ext, %function
 1844              	mbedtls_x509_get_ext:
 1845              	.LFB24:
 690:Source\mbedtls_open\library/x509.c **** 
 691:Source\mbedtls_open\library/x509.c **** /*
 692:Source\mbedtls_open\library/x509.c ****  * X.509 Extensions (No parsing of extensions, pointer should
 693:Source\mbedtls_open\library/x509.c ****  * be either manually updated or extensions should be parsed!)
 694:Source\mbedtls_open\library/x509.c ****  */
 695:Source\mbedtls_open\library/x509.c **** int mbedtls_x509_get_ext( unsigned char **p, const unsigned char *end,
 696:Source\mbedtls_open\library/x509.c ****                   mbedtls_x509_buf *ext, int tag )
 697:Source\mbedtls_open\library/x509.c **** {
 1846              		.loc 1 697 0
 1847              		.cfi_startproc
 1848              		@ args = 0, pretend = 0, frame = 8
 1849              		@ frame_needed = 0, uses_anonymous_args = 0
 1850              	.LVL274:
 1851 0000 30B5     		push	{r4, r5, lr}
 1852              		.cfi_def_cfa_offset 12
 1853              		.cfi_offset 4, -12
 1854              		.cfi_offset 5, -8
 1855              		.cfi_offset 14, -4
 1856 0002 83B0     		sub	sp, sp, #12
 1857              		.cfi_def_cfa_offset 24
 1858 0004 0400     		movs	r4, r0
 1859 0006 1500     		movs	r5, r2
 698:Source\mbedtls_open\library/x509.c ****     int ret;
 699:Source\mbedtls_open\library/x509.c ****     size_t len;
 700:Source\mbedtls_open\library/x509.c **** 
ARM GAS  C:\Users\Phuong\AppData\Local\Temp\cciPItDa.s 			page 49


 701:Source\mbedtls_open\library/x509.c ****     if( *p == end )
 1860              		.loc 1 701 0
 1861 0008 0268     		ldr	r2, [r0]
 1862              	.LVL275:
 1863 000a 8A42     		cmp	r2, r1
 1864 000c 23D0     		beq	.L160
 702:Source\mbedtls_open\library/x509.c ****         return( 0 );
 703:Source\mbedtls_open\library/x509.c **** 
 704:Source\mbedtls_open\library/x509.c ****     ext->tag = **p;
 1865              		.loc 1 704 0
 1866 000e 1078     		ldrb	r0, [r2]
 1867              	.LVL276:
 1868 0010 2A00     		movs	r2, r5
 1869 0012 01C2     		stmia	r2!, {r0}
 705:Source\mbedtls_open\library/x509.c **** 
 706:Source\mbedtls_open\library/x509.c ****     if( ( ret = mbedtls_asn1_get_tag( p, end, &ext->len,
 1870              		.loc 1 706 0
 1871 0014 A020     		movs	r0, #160
 1872 0016 0343     		orrs	r3, r0
 1873              	.LVL277:
 1874 0018 2000     		movs	r0, r4
 1875 001a FFF7FEFF 		bl	mbedtls_asn1_get_tag
 1876              	.LVL278:
 1877 001e 0028     		cmp	r0, #0
 1878 0020 1CD1     		bne	.L158
 707:Source\mbedtls_open\library/x509.c ****             MBEDTLS_ASN1_CONTEXT_SPECIFIC | MBEDTLS_ASN1_CONSTRUCTED | tag ) ) != 0 )
 708:Source\mbedtls_open\library/x509.c ****         return( ret );
 709:Source\mbedtls_open\library/x509.c **** 
 710:Source\mbedtls_open\library/x509.c ****     ext->p = *p;
 1879              		.loc 1 710 0
 1880 0022 2368     		ldr	r3, [r4]
 1881 0024 AB60     		str	r3, [r5, #8]
 711:Source\mbedtls_open\library/x509.c ****     end = *p + ext->len;
 1882              		.loc 1 711 0
 1883 0026 6D68     		ldr	r5, [r5, #4]
 1884              	.LVL279:
 1885 0028 2368     		ldr	r3, [r4]
 1886 002a 9C46     		mov	ip, r3
 1887 002c 6544     		add	r5, r5, ip
 1888              	.LVL280:
 712:Source\mbedtls_open\library/x509.c **** 
 713:Source\mbedtls_open\library/x509.c ****     /*
 714:Source\mbedtls_open\library/x509.c ****      * Extensions  ::=  SEQUENCE SIZE (1..MAX) OF Extension
 715:Source\mbedtls_open\library/x509.c ****      *
 716:Source\mbedtls_open\library/x509.c ****      * Extension  ::=  SEQUENCE  {
 717:Source\mbedtls_open\library/x509.c ****      *      extnID      OBJECT IDENTIFIER,
 718:Source\mbedtls_open\library/x509.c ****      *      critical    BOOLEAN DEFAULT FALSE,
 719:Source\mbedtls_open\library/x509.c ****      *      extnValue   OCTET STRING  }
 720:Source\mbedtls_open\library/x509.c ****      */
 721:Source\mbedtls_open\library/x509.c ****     if( ( ret = mbedtls_asn1_get_tag( p, end, &len,
 1889              		.loc 1 721 0
 1890 002e 3023     		movs	r3, #48
 1891 0030 01AA     		add	r2, sp, #4
 1892 0032 2900     		movs	r1, r5
 1893 0034 2000     		movs	r0, r4
 1894              	.LVL281:
 1895 0036 FFF7FEFF 		bl	mbedtls_asn1_get_tag
ARM GAS  C:\Users\Phuong\AppData\Local\Temp\cciPItDa.s 			page 50


 1896              	.LVL282:
 1897 003a 0028     		cmp	r0, #0
 1898 003c 03D0     		beq	.L159
 722:Source\mbedtls_open\library/x509.c ****             MBEDTLS_ASN1_CONSTRUCTED | MBEDTLS_ASN1_SEQUENCE ) ) != 0 )
 723:Source\mbedtls_open\library/x509.c ****         return( MBEDTLS_ERR_X509_INVALID_EXTENSIONS + ret );
 1899              		.loc 1 723 0
 1900 003e 084B     		ldr	r3, .L163
 1901 0040 9C46     		mov	ip, r3
 1902 0042 6044     		add	r0, r0, ip
 1903              	.LVL283:
 1904 0044 0AE0     		b	.L158
 1905              	.LVL284:
 1906              	.L159:
 724:Source\mbedtls_open\library/x509.c **** 
 725:Source\mbedtls_open\library/x509.c ****     if( end != *p + len )
 1907              		.loc 1 725 0
 1908 0046 2368     		ldr	r3, [r4]
 1909 0048 019A     		ldr	r2, [sp, #4]
 1910 004a 9446     		mov	ip, r2
 1911 004c 6344     		add	r3, r3, ip
 1912 004e 9D42     		cmp	r5, r3
 1913 0050 03D0     		beq	.L162
 726:Source\mbedtls_open\library/x509.c ****         return( MBEDTLS_ERR_X509_INVALID_EXTENSIONS +
 1914              		.loc 1 726 0
 1915 0052 0448     		ldr	r0, .L163+4
 1916              	.LVL285:
 1917 0054 02E0     		b	.L158
 1918              	.LVL286:
 1919              	.L160:
 702:Source\mbedtls_open\library/x509.c **** 
 1920              		.loc 1 702 0
 1921 0056 0020     		movs	r0, #0
 1922              	.LVL287:
 1923 0058 00E0     		b	.L158
 1924              	.LVL288:
 1925              	.L162:
 727:Source\mbedtls_open\library/x509.c ****                 MBEDTLS_ERR_ASN1_LENGTH_MISMATCH );
 728:Source\mbedtls_open\library/x509.c **** 
 729:Source\mbedtls_open\library/x509.c ****     return( 0 );
 1926              		.loc 1 729 0
 1927 005a 0020     		movs	r0, #0
 1928              	.LVL289:
 1929              	.L158:
 730:Source\mbedtls_open\library/x509.c **** }
 1930              		.loc 1 730 0
 1931 005c 03B0     		add	sp, sp, #12
 1932              		@ sp needed
 1933              	.LVL290:
 1934 005e 30BD     		pop	{r4, r5, pc}
 1935              	.L164:
 1936              		.align	2
 1937              	.L163:
 1938 0060 00DBFFFF 		.word	-9472
 1939 0064 9ADAFFFF 		.word	-9574
 1940              		.cfi_endproc
 1941              	.LFE24:
 1942              		.size	mbedtls_x509_get_ext, .-mbedtls_x509_get_ext
ARM GAS  C:\Users\Phuong\AppData\Local\Temp\cciPItDa.s 			page 51


 1943              		.section	.text.mbedtls_x509_dn_gets,"ax",%progbits
 1944              		.align	2
 1945              		.global	mbedtls_x509_dn_gets
 1946              		.code	16
 1947              		.thumb_func
 1948              		.type	mbedtls_x509_dn_gets, %function
 1949              	mbedtls_x509_dn_gets:
 1950              	.LFB25:
 731:Source\mbedtls_open\library/x509.c **** 
 732:Source\mbedtls_open\library/x509.c **** /*
 733:Source\mbedtls_open\library/x509.c ****  * Store the name in printable form into buf; no more
 734:Source\mbedtls_open\library/x509.c ****  * than size characters will be written
 735:Source\mbedtls_open\library/x509.c ****  */
 736:Source\mbedtls_open\library/x509.c **** int mbedtls_x509_dn_gets( char *buf, size_t size, const mbedtls_x509_name *dn )
 737:Source\mbedtls_open\library/x509.c **** {
 1951              		.loc 1 737 0
 1952              		.cfi_startproc
 1953              		@ args = 0, pretend = 0, frame = 272
 1954              		@ frame_needed = 0, uses_anonymous_args = 0
 1955              	.LVL291:
 1956 0000 F0B5     		push	{r4, r5, r6, r7, lr}
 1957              		.cfi_def_cfa_offset 20
 1958              		.cfi_offset 4, -20
 1959              		.cfi_offset 5, -16
 1960              		.cfi_offset 6, -12
 1961              		.cfi_offset 7, -8
 1962              		.cfi_offset 14, -4
 1963 0002 C5B0     		sub	sp, sp, #276
 1964              		.cfi_def_cfa_offset 296
 1965 0004 0700     		movs	r7, r0
 1966 0006 0E00     		movs	r6, r1
 1967 0008 0191     		str	r1, [sp, #4]
 1968 000a 1500     		movs	r5, r2
 1969              	.LVL292:
 738:Source\mbedtls_open\library/x509.c ****     int ret;
 739:Source\mbedtls_open\library/x509.c ****     size_t i, n;
 740:Source\mbedtls_open\library/x509.c ****     unsigned char c, merge = 0;
 741:Source\mbedtls_open\library/x509.c ****     const mbedtls_x509_name *name;
 742:Source\mbedtls_open\library/x509.c ****     const char *short_name = NULL;
 1970              		.loc 1 742 0
 1971 000c 0023     		movs	r3, #0
 1972 000e 4393     		str	r3, [sp, #268]
 743:Source\mbedtls_open\library/x509.c ****     char s[MBEDTLS_X509_MAX_DN_NAME_SIZE], *p;
 744:Source\mbedtls_open\library/x509.c **** 
 745:Source\mbedtls_open\library/x509.c ****     memset( s, 0, sizeof( s ) );
 1973              		.loc 1 745 0
 1974 0010 8022     		movs	r2, #128
 1975              	.LVL293:
 1976 0012 5200     		lsls	r2, r2, #1
 1977 0014 0021     		movs	r1, #0
 1978              	.LVL294:
 1979 0016 03A8     		add	r0, sp, #12
 1980              	.LVL295:
 1981 0018 FFF7FEFF 		bl	memset
 1982              	.LVL296:
 746:Source\mbedtls_open\library/x509.c **** 
 747:Source\mbedtls_open\library/x509.c ****     name = dn;
ARM GAS  C:\Users\Phuong\AppData\Local\Temp\cciPItDa.s 			page 52


 1983              		.loc 1 747 0
 1984 001c 2C00     		movs	r4, r5
 740:Source\mbedtls_open\library/x509.c ****     const mbedtls_x509_name *name;
 1985              		.loc 1 740 0
 1986 001e 0023     		movs	r3, #0
 748:Source\mbedtls_open\library/x509.c ****     p = buf;
 749:Source\mbedtls_open\library/x509.c ****     n = size;
 750:Source\mbedtls_open\library/x509.c **** 
 751:Source\mbedtls_open\library/x509.c ****     while( name != NULL )
 1987              		.loc 1 751 0
 1988 0020 57E0     		b	.L166
 1989              	.LVL297:
 1990              	.L180:
 752:Source\mbedtls_open\library/x509.c ****     {
 753:Source\mbedtls_open\library/x509.c ****         if( !name->oid.p )
 1991              		.loc 1 753 0
 1992 0022 A268     		ldr	r2, [r4, #8]
 1993 0024 002A     		cmp	r2, #0
 1994 0026 01D1     		bne	.L167
 754:Source\mbedtls_open\library/x509.c ****         {
 755:Source\mbedtls_open\library/x509.c ****             name = name->next;
 1995              		.loc 1 755 0
 1996 0028 A469     		ldr	r4, [r4, #24]
 1997              	.LVL298:
 756:Source\mbedtls_open\library/x509.c ****             continue;
 1998              		.loc 1 756 0
 1999 002a 52E0     		b	.L166
 2000              	.L167:
 757:Source\mbedtls_open\library/x509.c ****         }
 758:Source\mbedtls_open\library/x509.c **** 
 759:Source\mbedtls_open\library/x509.c ****         if( name != dn )
 2001              		.loc 1 759 0
 2002 002c AC42     		cmp	r4, r5
 2003 002e 0ED0     		beq	.L169
 760:Source\mbedtls_open\library/x509.c ****         {
 761:Source\mbedtls_open\library/x509.c ****             ret = mbedtls_snprintf( p, n, merge ? " + " : ", " );
 2004              		.loc 1 761 0
 2005 0030 002B     		cmp	r3, #0
 2006 0032 01D0     		beq	.L181
 2007 0034 304A     		ldr	r2, .L188
 2008 0036 00E0     		b	.L170
 2009              	.L181:
 2010 0038 304A     		ldr	r2, .L188+4
 2011              	.L170:
 2012              		.loc 1 761 0 is_stmt 0 discriminator 4
 2013 003a 3100     		movs	r1, r6
 2014 003c 3800     		movs	r0, r7
 2015 003e FFF7FEFF 		bl	snprintf
 2016              	.LVL299:
 762:Source\mbedtls_open\library/x509.c ****             MBEDTLS_X509_SAFE_SNPRINTF;
 2017              		.loc 1 762 0 is_stmt 1 discriminator 4
 2018 0042 0028     		cmp	r0, #0
 2019 0044 4ADB     		blt	.L182
 2020              		.loc 1 762 0 is_stmt 0 discriminator 2
 2021 0046 8642     		cmp	r6, r0
 2022 0048 4AD9     		bls	.L183
 2023              		.loc 1 762 0 discriminator 4
ARM GAS  C:\Users\Phuong\AppData\Local\Temp\cciPItDa.s 			page 53


 2024 004a 361A     		subs	r6, r6, r0
 2025              	.LVL300:
 2026 004c 3F18     		adds	r7, r7, r0
 2027              	.LVL301:
 2028              	.L169:
 763:Source\mbedtls_open\library/x509.c ****         }
 764:Source\mbedtls_open\library/x509.c **** 
 765:Source\mbedtls_open\library/x509.c ****         ret = mbedtls_oid_get_attr_short_name( &name->oid, &short_name );
 2029              		.loc 1 765 0 is_stmt 1
 2030 004e 43A9     		add	r1, sp, #268
 2031 0050 2000     		movs	r0, r4
 2032 0052 FFF7FEFF 		bl	mbedtls_oid_get_attr_short_name
 2033              	.LVL302:
 766:Source\mbedtls_open\library/x509.c **** 
 767:Source\mbedtls_open\library/x509.c ****         if( ret == 0 )
 2034              		.loc 1 767 0
 2035 0056 0028     		cmp	r0, #0
 2036 0058 06D1     		bne	.L172
 768:Source\mbedtls_open\library/x509.c ****             ret = mbedtls_snprintf( p, n, "%s=", short_name );
 2037              		.loc 1 768 0
 2038 005a 439B     		ldr	r3, [sp, #268]
 2039 005c 284A     		ldr	r2, .L188+8
 2040 005e 3100     		movs	r1, r6
 2041 0060 3800     		movs	r0, r7
 2042              	.LVL303:
 2043 0062 FFF7FEFF 		bl	snprintf
 2044              	.LVL304:
 2045 0066 04E0     		b	.L173
 2046              	.L172:
 769:Source\mbedtls_open\library/x509.c ****         else
 770:Source\mbedtls_open\library/x509.c ****             ret = mbedtls_snprintf( p, n, "\?\?=" );
 2047              		.loc 1 770 0
 2048 0068 264A     		ldr	r2, .L188+12
 2049 006a 3100     		movs	r1, r6
 2050 006c 3800     		movs	r0, r7
 2051              	.LVL305:
 2052 006e FFF7FEFF 		bl	snprintf
 2053              	.LVL306:
 2054              	.L173:
 771:Source\mbedtls_open\library/x509.c ****         MBEDTLS_X509_SAFE_SNPRINTF;
 2055              		.loc 1 771 0
 2056 0072 0028     		cmp	r0, #0
 2057 0074 36DB     		blt	.L184
 2058              		.loc 1 771 0 is_stmt 0 discriminator 2
 2059 0076 8642     		cmp	r6, r0
 2060 0078 36D9     		bls	.L185
 2061              		.loc 1 771 0 discriminator 4
 2062 007a 361A     		subs	r6, r6, r0
 2063              	.LVL307:
 2064 007c 3F18     		adds	r7, r7, r0
 2065              	.LVL308:
 772:Source\mbedtls_open\library/x509.c **** 
 773:Source\mbedtls_open\library/x509.c ****         for( i = 0; i < name->val.len; i++ )
 2066              		.loc 1 773 0 is_stmt 1 discriminator 4
 2067 007e 0023     		movs	r3, #0
 2068 0080 13E0     		b	.L174
 2069              	.LVL309:
ARM GAS  C:\Users\Phuong\AppData\Local\Temp\cciPItDa.s 			page 54


 2070              	.L179:
 774:Source\mbedtls_open\library/x509.c ****         {
 775:Source\mbedtls_open\library/x509.c ****             if( i >= sizeof( s ) - 1 )
 2071              		.loc 1 775 0
 2072 0082 FE2B     		cmp	r3, #254
 2073 0084 14D8     		bhi	.L175
 776:Source\mbedtls_open\library/x509.c ****                 break;
 777:Source\mbedtls_open\library/x509.c **** 
 778:Source\mbedtls_open\library/x509.c ****             c = name->val.p[i];
 2074              		.loc 1 778 0
 2075 0086 6269     		ldr	r2, [r4, #20]
 2076 0088 D25C     		ldrb	r2, [r2, r3]
 2077              	.LVL310:
 779:Source\mbedtls_open\library/x509.c ****             if( c < 32 || c == 127 || ( c > 128 && c < 160 ) )
 2078              		.loc 1 779 0
 2079 008a 1F2A     		cmp	r2, #31
 2080 008c 06D9     		bls	.L176
 2081              		.loc 1 779 0 is_stmt 0 discriminator 1
 2082 008e 7F2A     		cmp	r2, #127
 2083 0090 04D0     		beq	.L176
 2084              		.loc 1 779 0 discriminator 2
 2085 0092 1100     		movs	r1, r2
 2086 0094 7F31     		adds	r1, r1, #127
 2087 0096 C9B2     		uxtb	r1, r1
 2088 0098 1E29     		cmp	r1, #30
 2089 009a 03D8     		bhi	.L177
 2090              	.L176:
 780:Source\mbedtls_open\library/x509.c ****                  s[i] = '?';
 2091              		.loc 1 780 0 is_stmt 1
 2092 009c 3F21     		movs	r1, #63
 2093 009e 03AA     		add	r2, sp, #12
 2094              	.LVL311:
 2095 00a0 D154     		strb	r1, [r2, r3]
 2096              	.LVL312:
 2097 00a2 01E0     		b	.L178
 2098              	.LVL313:
 2099              	.L177:
 781:Source\mbedtls_open\library/x509.c ****             else s[i] = c;
 2100              		.loc 1 781 0
 2101 00a4 03A9     		add	r1, sp, #12
 2102 00a6 CA54     		strb	r2, [r1, r3]
 2103              	.LVL314:
 2104              	.L178:
 773:Source\mbedtls_open\library/x509.c ****         {
 2105              		.loc 1 773 0 discriminator 2
 2106 00a8 0133     		adds	r3, r3, #1
 2107              	.LVL315:
 2108              	.L174:
 773:Source\mbedtls_open\library/x509.c ****         {
 2109              		.loc 1 773 0 is_stmt 0 discriminator 1
 2110 00aa 2269     		ldr	r2, [r4, #16]
 2111 00ac 9342     		cmp	r3, r2
 2112 00ae E8D3     		bcc	.L179
 2113              	.L175:
 782:Source\mbedtls_open\library/x509.c ****         }
 783:Source\mbedtls_open\library/x509.c ****         s[i] = '\0';
 2114              		.loc 1 783 0 is_stmt 1
ARM GAS  C:\Users\Phuong\AppData\Local\Temp\cciPItDa.s 			page 55


 2115 00b0 0021     		movs	r1, #0
 2116 00b2 03AA     		add	r2, sp, #12
 2117 00b4 D154     		strb	r1, [r2, r3]
 784:Source\mbedtls_open\library/x509.c ****         ret = mbedtls_snprintf( p, n, "%s", s );
 2118              		.loc 1 784 0
 2119 00b6 1300     		movs	r3, r2
 2120              	.LVL316:
 2121 00b8 134A     		ldr	r2, .L188+16
 2122 00ba 3100     		movs	r1, r6
 2123 00bc 3800     		movs	r0, r7
 2124              	.LVL317:
 2125 00be FFF7FEFF 		bl	snprintf
 2126              	.LVL318:
 785:Source\mbedtls_open\library/x509.c ****         MBEDTLS_X509_SAFE_SNPRINTF;
 2127              		.loc 1 785 0
 2128 00c2 0028     		cmp	r0, #0
 2129 00c4 12DB     		blt	.L186
 2130              		.loc 1 785 0 is_stmt 0 discriminator 2
 2131 00c6 8642     		cmp	r6, r0
 2132 00c8 12D9     		bls	.L187
 2133              		.loc 1 785 0 discriminator 4
 2134 00ca 361A     		subs	r6, r6, r0
 2135              	.LVL319:
 2136 00cc 3F18     		adds	r7, r7, r0
 2137              	.LVL320:
 786:Source\mbedtls_open\library/x509.c **** 
 787:Source\mbedtls_open\library/x509.c ****         merge = name->next_merged;
 2138              		.loc 1 787 0 is_stmt 1 discriminator 4
 2139 00ce 237F     		ldrb	r3, [r4, #28]
 2140              	.LVL321:
 788:Source\mbedtls_open\library/x509.c ****         name = name->next;
 2141              		.loc 1 788 0 discriminator 4
 2142 00d0 A469     		ldr	r4, [r4, #24]
 2143              	.LVL322:
 2144              	.L166:
 751:Source\mbedtls_open\library/x509.c ****     {
 2145              		.loc 1 751 0
 2146 00d2 002C     		cmp	r4, #0
 2147 00d4 A5D1     		bne	.L180
 789:Source\mbedtls_open\library/x509.c ****     }
 790:Source\mbedtls_open\library/x509.c **** 
 791:Source\mbedtls_open\library/x509.c ****     return( (int) ( size - n ) );
 2148              		.loc 1 791 0
 2149 00d6 019B     		ldr	r3, [sp, #4]
 2150              	.LVL323:
 2151 00d8 981B     		subs	r0, r3, r6
 2152 00da 0AE0     		b	.L171
 2153              	.LVL324:
 2154              	.L182:
 762:Source\mbedtls_open\library/x509.c ****         }
 2155              		.loc 1 762 0
 2156 00dc 0B48     		ldr	r0, .L188+20
 2157              	.LVL325:
 2158 00de 08E0     		b	.L171
 2159              	.LVL326:
 2160              	.L183:
 2161 00e0 0A48     		ldr	r0, .L188+20
ARM GAS  C:\Users\Phuong\AppData\Local\Temp\cciPItDa.s 			page 56


 2162              	.LVL327:
 2163 00e2 06E0     		b	.L171
 2164              	.LVL328:
 2165              	.L184:
 771:Source\mbedtls_open\library/x509.c **** 
 2166              		.loc 1 771 0
 2167 00e4 0948     		ldr	r0, .L188+20
 2168              	.LVL329:
 2169 00e6 04E0     		b	.L171
 2170              	.LVL330:
 2171              	.L185:
 2172 00e8 0848     		ldr	r0, .L188+20
 2173              	.LVL331:
 2174 00ea 02E0     		b	.L171
 2175              	.LVL332:
 2176              	.L186:
 785:Source\mbedtls_open\library/x509.c **** 
 2177              		.loc 1 785 0
 2178 00ec 0748     		ldr	r0, .L188+20
 2179              	.LVL333:
 2180 00ee 00E0     		b	.L171
 2181              	.LVL334:
 2182              	.L187:
 2183 00f0 0648     		ldr	r0, .L188+20
 2184              	.LVL335:
 2185              	.L171:
 792:Source\mbedtls_open\library/x509.c **** }
 2186              		.loc 1 792 0
 2187 00f2 45B0     		add	sp, sp, #276
 2188              		@ sp needed
 2189              	.LVL336:
 2190              	.LVL337:
 2191              	.LVL338:
 2192              	.LVL339:
 2193 00f4 F0BD     		pop	{r4, r5, r6, r7, pc}
 2194              	.L189:
 2195 00f6 C046     		.align	2
 2196              	.L188:
 2197 00f8 0C000000 		.word	.LC3
 2198 00fc 10000000 		.word	.LC5
 2199 0100 14000000 		.word	.LC7
 2200 0104 18000000 		.word	.LC9
 2201 0108 1C000000 		.word	.LC11
 2202 010c 80D6FFFF 		.word	-10624
 2203              		.cfi_endproc
 2204              	.LFE25:
 2205              		.size	mbedtls_x509_dn_gets, .-mbedtls_x509_dn_gets
 2206              		.section	.text.mbedtls_x509_serial_gets,"ax",%progbits
 2207              		.align	2
 2208              		.global	mbedtls_x509_serial_gets
 2209              		.code	16
 2210              		.thumb_func
 2211              		.type	mbedtls_x509_serial_gets, %function
 2212              	mbedtls_x509_serial_gets:
 2213              	.LFB26:
 793:Source\mbedtls_open\library/x509.c **** 
 794:Source\mbedtls_open\library/x509.c **** /*
ARM GAS  C:\Users\Phuong\AppData\Local\Temp\cciPItDa.s 			page 57


 795:Source\mbedtls_open\library/x509.c ****  * Store the serial in printable form into buf; no more
 796:Source\mbedtls_open\library/x509.c ****  * than size characters will be written
 797:Source\mbedtls_open\library/x509.c ****  */
 798:Source\mbedtls_open\library/x509.c **** int mbedtls_x509_serial_gets( char *buf, size_t size, const mbedtls_x509_buf *serial )
 799:Source\mbedtls_open\library/x509.c **** {
 2214              		.loc 1 799 0
 2215              		.cfi_startproc
 2216              		@ args = 0, pretend = 0, frame = 8
 2217              		@ frame_needed = 0, uses_anonymous_args = 0
 2218              	.LVL340:
 2219 0000 F0B5     		push	{r4, r5, r6, r7, lr}
 2220              		.cfi_def_cfa_offset 20
 2221              		.cfi_offset 4, -20
 2222              		.cfi_offset 5, -16
 2223              		.cfi_offset 6, -12
 2224              		.cfi_offset 7, -8
 2225              		.cfi_offset 14, -4
 2226 0002 4F46     		mov	r7, r9
 2227 0004 80B4     		push	{r7}
 2228              		.cfi_def_cfa_offset 24
 2229              		.cfi_offset 9, -24
 2230 0006 84B0     		sub	sp, sp, #16
 2231              		.cfi_def_cfa_offset 40
 2232 0008 0700     		movs	r7, r0
 2233 000a 0391     		str	r1, [sp, #12]
 2234 000c 9146     		mov	r9, r2
 2235              	.LVL341:
 800:Source\mbedtls_open\library/x509.c ****     int ret;
 801:Source\mbedtls_open\library/x509.c ****     size_t i, n, nr;
 802:Source\mbedtls_open\library/x509.c ****     char *p;
 803:Source\mbedtls_open\library/x509.c **** 
 804:Source\mbedtls_open\library/x509.c ****     p = buf;
 805:Source\mbedtls_open\library/x509.c ****     n = size;
 806:Source\mbedtls_open\library/x509.c **** 
 807:Source\mbedtls_open\library/x509.c ****     nr = ( serial->len <= 32 )
 2236              		.loc 1 807 0
 2237 000e 5668     		ldr	r6, [r2, #4]
 808:Source\mbedtls_open\library/x509.c ****         ? serial->len  : 28;
 2238              		.loc 1 808 0
 2239 0010 202E     		cmp	r6, #32
 2240 0012 00D9     		bls	.L191
 2241 0014 1C26     		movs	r6, #28
 2242              	.L191:
 2243              	.LVL342:
 805:Source\mbedtls_open\library/x509.c **** 
 2244              		.loc 1 805 0
 2245 0016 039D     		ldr	r5, [sp, #12]
 809:Source\mbedtls_open\library/x509.c **** 
 810:Source\mbedtls_open\library/x509.c ****     for( i = 0; i < nr; i++ )
 2246              		.loc 1 810 0
 2247 0018 0024     		movs	r4, #0
 2248 001a 1EE0     		b	.L192
 2249              	.LVL343:
 2250              	.L197:
 811:Source\mbedtls_open\library/x509.c ****     {
 812:Source\mbedtls_open\library/x509.c ****         if( i == 0 && nr > 1 && serial->p[i] == 0x0 )
 2251              		.loc 1 812 0
ARM GAS  C:\Users\Phuong\AppData\Local\Temp\cciPItDa.s 			page 58


 2252 001c 002C     		cmp	r4, #0
 2253 001e 06D1     		bne	.L193
 2254              		.loc 1 812 0 is_stmt 0 discriminator 1
 2255 0020 012E     		cmp	r6, #1
 2256 0022 04D9     		bls	.L193
 2257              		.loc 1 812 0 discriminator 2
 2258 0024 4B46     		mov	r3, r9
 2259 0026 9B68     		ldr	r3, [r3, #8]
 2260 0028 1B5D     		ldrb	r3, [r3, r4]
 2261 002a 002B     		cmp	r3, #0
 2262 002c 14D0     		beq	.L194
 2263              	.L193:
 813:Source\mbedtls_open\library/x509.c ****             continue;
 814:Source\mbedtls_open\library/x509.c **** 
 815:Source\mbedtls_open\library/x509.c ****         ret = mbedtls_snprintf( p, n, "%02X%s",
 816:Source\mbedtls_open\library/x509.c ****                 serial->p[i], ( i < nr - 1 ) ? ":" : "" );
 2264              		.loc 1 816 0 is_stmt 1
 2265 002e 4B46     		mov	r3, r9
 2266 0030 9B68     		ldr	r3, [r3, #8]
 2267 0032 1B5D     		ldrb	r3, [r3, r4]
 2268 0034 721E     		subs	r2, r6, #1
 815:Source\mbedtls_open\library/x509.c ****                 serial->p[i], ( i < nr - 1 ) ? ":" : "" );
 2269              		.loc 1 815 0
 2270 0036 9442     		cmp	r4, r2
 2271 0038 01D2     		bcs	.L199
 2272 003a 174A     		ldr	r2, .L204
 2273 003c 00E0     		b	.L195
 2274              	.L199:
 2275 003e 174A     		ldr	r2, .L204+4
 2276              	.L195:
 815:Source\mbedtls_open\library/x509.c ****                 serial->p[i], ( i < nr - 1 ) ? ":" : "" );
 2277              		.loc 1 815 0 is_stmt 0 discriminator 4
 2278 0040 0092     		str	r2, [sp]
 2279 0042 174A     		ldr	r2, .L204+8
 2280 0044 2900     		movs	r1, r5
 2281 0046 3800     		movs	r0, r7
 2282 0048 FFF7FEFF 		bl	snprintf
 2283              	.LVL344:
 817:Source\mbedtls_open\library/x509.c ****         MBEDTLS_X509_SAFE_SNPRINTF;
 2284              		.loc 1 817 0 is_stmt 1 discriminator 4
 2285 004c 0028     		cmp	r0, #0
 2286 004e 17DB     		blt	.L200
 2287              		.loc 1 817 0 is_stmt 0 discriminator 2
 2288 0050 8542     		cmp	r5, r0
 2289 0052 17D9     		bls	.L201
 2290              		.loc 1 817 0 discriminator 4
 2291 0054 2D1A     		subs	r5, r5, r0
 2292              	.LVL345:
 2293 0056 3F18     		adds	r7, r7, r0
 2294              	.LVL346:
 2295              	.L194:
 810:Source\mbedtls_open\library/x509.c ****     {
 2296              		.loc 1 810 0 is_stmt 1 discriminator 2
 2297 0058 0134     		adds	r4, r4, #1
 2298              	.LVL347:
 2299              	.L192:
 810:Source\mbedtls_open\library/x509.c ****     {
ARM GAS  C:\Users\Phuong\AppData\Local\Temp\cciPItDa.s 			page 59


 2300              		.loc 1 810 0 is_stmt 0 discriminator 1
 2301 005a B442     		cmp	r4, r6
 2302 005c DED3     		bcc	.L197
 818:Source\mbedtls_open\library/x509.c ****     }
 819:Source\mbedtls_open\library/x509.c **** 
 820:Source\mbedtls_open\library/x509.c ****     if( nr != serial->len )
 2303              		.loc 1 820 0 is_stmt 1
 2304 005e 4B46     		mov	r3, r9
 2305 0060 5B68     		ldr	r3, [r3, #4]
 2306 0062 9E42     		cmp	r6, r3
 2307 0064 09D0     		beq	.L198
 821:Source\mbedtls_open\library/x509.c ****     {
 822:Source\mbedtls_open\library/x509.c ****         ret = mbedtls_snprintf( p, n, "...." );
 2308              		.loc 1 822 0
 2309 0066 0F4A     		ldr	r2, .L204+12
 2310 0068 2900     		movs	r1, r5
 2311 006a 3800     		movs	r0, r7
 2312 006c FFF7FEFF 		bl	snprintf
 2313              	.LVL348:
 823:Source\mbedtls_open\library/x509.c ****         MBEDTLS_X509_SAFE_SNPRINTF;
 2314              		.loc 1 823 0
 2315 0070 0028     		cmp	r0, #0
 2316 0072 09DB     		blt	.L202
 2317              		.loc 1 823 0 is_stmt 0 discriminator 2
 2318 0074 8542     		cmp	r5, r0
 2319 0076 09D9     		bls	.L203
 2320              		.loc 1 823 0 discriminator 4
 2321 0078 2D1A     		subs	r5, r5, r0
 2322              	.LVL349:
 2323              	.L198:
 824:Source\mbedtls_open\library/x509.c ****     }
 825:Source\mbedtls_open\library/x509.c **** 
 826:Source\mbedtls_open\library/x509.c ****     return( (int) ( size - n ) );
 2324              		.loc 1 826 0 is_stmt 1
 2325 007a 039B     		ldr	r3, [sp, #12]
 2326 007c 581B     		subs	r0, r3, r5
 2327 007e 06E0     		b	.L196
 2328              	.LVL350:
 2329              	.L200:
 817:Source\mbedtls_open\library/x509.c ****     }
 2330              		.loc 1 817 0
 2331 0080 0948     		ldr	r0, .L204+16
 2332              	.LVL351:
 2333 0082 04E0     		b	.L196
 2334              	.LVL352:
 2335              	.L201:
 2336 0084 0848     		ldr	r0, .L204+16
 2337              	.LVL353:
 2338 0086 02E0     		b	.L196
 2339              	.LVL354:
 2340              	.L202:
 823:Source\mbedtls_open\library/x509.c ****         MBEDTLS_X509_SAFE_SNPRINTF;
 2341              		.loc 1 823 0
 2342 0088 0748     		ldr	r0, .L204+16
 2343              	.LVL355:
 2344 008a 00E0     		b	.L196
 2345              	.LVL356:
ARM GAS  C:\Users\Phuong\AppData\Local\Temp\cciPItDa.s 			page 60


 2346              	.L203:
 2347 008c 0648     		ldr	r0, .L204+16
 2348              	.LVL357:
 2349              	.L196:
 827:Source\mbedtls_open\library/x509.c **** }
 2350              		.loc 1 827 0
 2351 008e 04B0     		add	sp, sp, #16
 2352              		@ sp needed
 2353              	.LVL358:
 2354              	.LVL359:
 2355              	.LVL360:
 2356              	.LVL361:
 2357 0090 04BC     		pop	{r2}
 2358 0092 9146     		mov	r9, r2
 2359 0094 F0BD     		pop	{r4, r5, r6, r7, pc}
 2360              	.L205:
 2361 0096 C046     		.align	2
 2362              	.L204:
 2363 0098 20000000 		.word	.LC13
 2364 009c 24000000 		.word	.LC15
 2365 00a0 28000000 		.word	.LC17
 2366 00a4 30000000 		.word	.LC19
 2367 00a8 80D6FFFF 		.word	-10624
 2368              		.cfi_endproc
 2369              	.LFE26:
 2370              		.size	mbedtls_x509_serial_gets, .-mbedtls_x509_serial_gets
 2371              		.section	.text.mbedtls_x509_sig_alg_gets,"ax",%progbits
 2372              		.align	2
 2373              		.global	mbedtls_x509_sig_alg_gets
 2374              		.code	16
 2375              		.thumb_func
 2376              		.type	mbedtls_x509_sig_alg_gets, %function
 2377              	mbedtls_x509_sig_alg_gets:
 2378              	.LFB27:
 828:Source\mbedtls_open\library/x509.c **** 
 829:Source\mbedtls_open\library/x509.c **** /*
 830:Source\mbedtls_open\library/x509.c ****  * Helper for writing signature algorithms
 831:Source\mbedtls_open\library/x509.c ****  */
 832:Source\mbedtls_open\library/x509.c **** int mbedtls_x509_sig_alg_gets( char *buf, size_t size, const mbedtls_x509_buf *sig_oid,
 833:Source\mbedtls_open\library/x509.c ****                        mbedtls_pk_type_t pk_alg, mbedtls_md_type_t md_alg,
 834:Source\mbedtls_open\library/x509.c ****                        const void *sig_opts )
 835:Source\mbedtls_open\library/x509.c **** {
 2379              		.loc 1 835 0
 2380              		.cfi_startproc
 2381              		@ args = 8, pretend = 0, frame = 8
 2382              		@ frame_needed = 0, uses_anonymous_args = 0
 2383              	.LVL362:
 2384 0000 F0B5     		push	{r4, r5, r6, r7, lr}
 2385              		.cfi_def_cfa_offset 20
 2386              		.cfi_offset 4, -20
 2387              		.cfi_offset 5, -16
 2388              		.cfi_offset 6, -12
 2389              		.cfi_offset 7, -8
 2390              		.cfi_offset 14, -4
 2391 0002 4746     		mov	r7, r8
 2392 0004 80B4     		push	{r7}
 2393              		.cfi_def_cfa_offset 24
ARM GAS  C:\Users\Phuong\AppData\Local\Temp\cciPItDa.s 			page 61


 2394              		.cfi_offset 8, -24
 2395 0006 84B0     		sub	sp, sp, #16
 2396              		.cfi_def_cfa_offset 40
 2397 0008 0500     		movs	r5, r0
 2398 000a 0C00     		movs	r4, r1
 2399 000c 1E00     		movs	r6, r3
 2400 000e 0AAB     		add	r3, sp, #40
 2401              	.LVL363:
 2402 0010 1F78     		ldrb	r7, [r3]
 2403              	.LVL364:
 836:Source\mbedtls_open\library/x509.c ****     int ret;
 837:Source\mbedtls_open\library/x509.c ****     char *p = buf;
 838:Source\mbedtls_open\library/x509.c ****     size_t n = size;
 839:Source\mbedtls_open\library/x509.c ****     const char *desc = NULL;
 2404              		.loc 1 839 0
 2405 0012 0023     		movs	r3, #0
 2406              	.LVL365:
 2407 0014 0393     		str	r3, [sp, #12]
 840:Source\mbedtls_open\library/x509.c **** 
 841:Source\mbedtls_open\library/x509.c ****     ret = mbedtls_oid_get_sig_alg_desc( sig_oid, &desc );
 2408              		.loc 1 841 0
 2409 0016 03A9     		add	r1, sp, #12
 2410              	.LVL366:
 2411 0018 1000     		movs	r0, r2
 2412              	.LVL367:
 2413 001a FFF7FEFF 		bl	mbedtls_oid_get_sig_alg_desc
 2414              	.LVL368:
 842:Source\mbedtls_open\library/x509.c ****     if( ret != 0 )
 2415              		.loc 1 842 0
 2416 001e 0028     		cmp	r0, #0
 2417 0020 05D0     		beq	.L207
 843:Source\mbedtls_open\library/x509.c ****         ret = mbedtls_snprintf( p, n, "???"  );
 2418              		.loc 1 843 0
 2419 0022 264A     		ldr	r2, .L219
 2420 0024 2100     		movs	r1, r4
 2421 0026 2800     		movs	r0, r5
 2422              	.LVL369:
 2423 0028 FFF7FEFF 		bl	snprintf
 2424              	.LVL370:
 2425 002c 05E0     		b	.L208
 2426              	.L207:
 844:Source\mbedtls_open\library/x509.c ****     else
 845:Source\mbedtls_open\library/x509.c ****         ret = mbedtls_snprintf( p, n, "%s", desc );
 2427              		.loc 1 845 0
 2428 002e 039B     		ldr	r3, [sp, #12]
 2429 0030 234A     		ldr	r2, .L219+4
 2430 0032 2100     		movs	r1, r4
 2431 0034 2800     		movs	r0, r5
 2432              	.LVL371:
 2433 0036 FFF7FEFF 		bl	snprintf
 2434              	.LVL372:
 2435              	.L208:
 846:Source\mbedtls_open\library/x509.c ****     MBEDTLS_X509_SAFE_SNPRINTF;
 2436              		.loc 1 846 0
 2437 003a 0028     		cmp	r0, #0
 2438 003c 32DB     		blt	.L213
 2439              		.loc 1 846 0 is_stmt 0 discriminator 2
ARM GAS  C:\Users\Phuong\AppData\Local\Temp\cciPItDa.s 			page 62


 2440 003e 8442     		cmp	r4, r0
 2441 0040 32D9     		bls	.L214
 2442              		.loc 1 846 0 discriminator 4
 2443 0042 231A     		subs	r3, r4, r0
 2444 0044 9846     		mov	r8, r3
 2445              	.LVL373:
 2446 0046 2D18     		adds	r5, r5, r0
 2447              	.LVL374:
 847:Source\mbedtls_open\library/x509.c **** 
 848:Source\mbedtls_open\library/x509.c **** #if defined(MBEDTLS_X509_RSASSA_PSS_SUPPORT)
 849:Source\mbedtls_open\library/x509.c ****     if( pk_alg == MBEDTLS_PK_RSASSA_PSS )
 2448              		.loc 1 849 0 is_stmt 1 discriminator 4
 2449 0048 062E     		cmp	r6, #6
 2450 004a 28D1     		bne	.L210
 2451              	.LVL375:
 2452              	.LBB5:
 850:Source\mbedtls_open\library/x509.c ****     {
 851:Source\mbedtls_open\library/x509.c ****         const mbedtls_pk_rsassa_pss_options *pss_opts;
 852:Source\mbedtls_open\library/x509.c ****         const mbedtls_md_info_t *md_info, *mgf_md_info;
 853:Source\mbedtls_open\library/x509.c **** 
 854:Source\mbedtls_open\library/x509.c ****         pss_opts = (const mbedtls_pk_rsassa_pss_options *) sig_opts;
 855:Source\mbedtls_open\library/x509.c **** 
 856:Source\mbedtls_open\library/x509.c ****         md_info = mbedtls_md_info_from_type( md_alg );
 2453              		.loc 1 856 0
 2454 004c 3800     		movs	r0, r7
 2455              	.LVL376:
 2456 004e FFF7FEFF 		bl	mbedtls_md_info_from_type
 2457              	.LVL377:
 2458 0052 0700     		movs	r7, r0
 2459              	.LVL378:
 857:Source\mbedtls_open\library/x509.c ****         mgf_md_info = mbedtls_md_info_from_type( pss_opts->mgf1_hash_id );
 2460              		.loc 1 857 0
 2461 0054 0B9B     		ldr	r3, [sp, #44]
 2462 0056 1878     		ldrb	r0, [r3]
 2463              	.LVL379:
 2464 0058 FFF7FEFF 		bl	mbedtls_md_info_from_type
 2465              	.LVL380:
 2466 005c 0600     		movs	r6, r0
 2467              	.LVL381:
 858:Source\mbedtls_open\library/x509.c **** 
 859:Source\mbedtls_open\library/x509.c ****         ret = mbedtls_snprintf( p, n, " (%s, MGF1-%s, 0x%02X)",
 2468              		.loc 1 859 0
 2469 005e 002F     		cmp	r7, #0
 2470 0060 04D0     		beq	.L215
 2471              		.loc 1 859 0 is_stmt 0 discriminator 1
 2472 0062 3800     		movs	r0, r7
 2473              	.LVL382:
 2474 0064 FFF7FEFF 		bl	mbedtls_md_get_name
 2475              	.LVL383:
 2476 0068 0700     		movs	r7, r0
 2477              	.LVL384:
 2478 006a 00E0     		b	.L211
 2479              	.LVL385:
 2480              	.L215:
 2481              		.loc 1 859 0
 2482 006c 134F     		ldr	r7, .L219
 2483              	.LVL386:
ARM GAS  C:\Users\Phuong\AppData\Local\Temp\cciPItDa.s 			page 63


 2484              	.L211:
 2485              		.loc 1 859 0 discriminator 4
 2486 006e 002E     		cmp	r6, #0
 2487 0070 03D0     		beq	.L216
 2488              		.loc 1 859 0 discriminator 5
 2489 0072 3000     		movs	r0, r6
 2490 0074 FFF7FEFF 		bl	mbedtls_md_get_name
 2491              	.LVL387:
 2492 0078 00E0     		b	.L212
 2493              	.L216:
 2494              		.loc 1 859 0
 2495 007a 1048     		ldr	r0, .L219
 2496              	.L212:
 2497              		.loc 1 859 0 discriminator 8
 2498 007c 0B9B     		ldr	r3, [sp, #44]
 2499 007e 5B68     		ldr	r3, [r3, #4]
 2500 0080 0193     		str	r3, [sp, #4]
 2501 0082 0090     		str	r0, [sp]
 2502 0084 3B00     		movs	r3, r7
 2503 0086 0F4A     		ldr	r2, .L219+8
 2504 0088 4146     		mov	r1, r8
 2505 008a 2800     		movs	r0, r5
 2506 008c FFF7FEFF 		bl	snprintf
 2507              	.LVL388:
 860:Source\mbedtls_open\library/x509.c ****                               md_info ? mbedtls_md_get_name( md_info ) : "???",
 861:Source\mbedtls_open\library/x509.c ****                               mgf_md_info ? mbedtls_md_get_name( mgf_md_info ) : "???",
 862:Source\mbedtls_open\library/x509.c ****                               pss_opts->expected_salt_len );
 863:Source\mbedtls_open\library/x509.c ****         MBEDTLS_X509_SAFE_SNPRINTF;
 2508              		.loc 1 863 0 is_stmt 1 discriminator 8
 2509 0090 0028     		cmp	r0, #0
 2510 0092 0BDB     		blt	.L217
 2511              		.loc 1 863 0 is_stmt 0 discriminator 2
 2512 0094 8045     		cmp	r8, r0
 2513 0096 0BD9     		bls	.L218
 2514              		.loc 1 863 0 discriminator 4
 2515 0098 4346     		mov	r3, r8
 2516 009a 1B1A     		subs	r3, r3, r0
 2517 009c 9846     		mov	r8, r3
 2518              	.LVL389:
 2519              	.L210:
 2520              	.LBE5:
 864:Source\mbedtls_open\library/x509.c ****     }
 865:Source\mbedtls_open\library/x509.c **** #else
 866:Source\mbedtls_open\library/x509.c ****     ((void) pk_alg);
 867:Source\mbedtls_open\library/x509.c ****     ((void) md_alg);
 868:Source\mbedtls_open\library/x509.c ****     ((void) sig_opts);
 869:Source\mbedtls_open\library/x509.c **** #endif /* MBEDTLS_X509_RSASSA_PSS_SUPPORT */
 870:Source\mbedtls_open\library/x509.c **** 
 871:Source\mbedtls_open\library/x509.c ****     return( (int)( size - n ) );
 2521              		.loc 1 871 0 is_stmt 1
 2522 009e 4346     		mov	r3, r8
 2523 00a0 E01A     		subs	r0, r4, r3
 2524              	.LVL390:
 2525 00a2 06E0     		b	.L209
 2526              	.LVL391:
 2527              	.L213:
 846:Source\mbedtls_open\library/x509.c **** 
ARM GAS  C:\Users\Phuong\AppData\Local\Temp\cciPItDa.s 			page 64


 2528              		.loc 1 846 0
 2529 00a4 0848     		ldr	r0, .L219+12
 2530              	.LVL392:
 2531 00a6 04E0     		b	.L209
 2532              	.LVL393:
 2533              	.L214:
 2534 00a8 0748     		ldr	r0, .L219+12
 2535              	.LVL394:
 2536 00aa 02E0     		b	.L209
 2537              	.LVL395:
 2538              	.L217:
 2539              	.LBB6:
 863:Source\mbedtls_open\library/x509.c ****     }
 2540              		.loc 1 863 0
 2541 00ac 0648     		ldr	r0, .L219+12
 2542              	.LVL396:
 2543 00ae 00E0     		b	.L209
 2544              	.LVL397:
 2545              	.L218:
 2546 00b0 0548     		ldr	r0, .L219+12
 2547              	.LVL398:
 2548              	.L209:
 2549              	.LBE6:
 872:Source\mbedtls_open\library/x509.c **** }
 2550              		.loc 1 872 0
 2551 00b2 04B0     		add	sp, sp, #16
 2552              		@ sp needed
 2553              	.LVL399:
 2554 00b4 04BC     		pop	{r2}
 2555 00b6 9046     		mov	r8, r2
 2556 00b8 F0BD     		pop	{r4, r5, r6, r7, pc}
 2557              	.L220:
 2558 00ba C046     		.align	2
 2559              	.L219:
 2560 00bc 38000000 		.word	.LC21
 2561 00c0 1C000000 		.word	.LC11
 2562 00c4 3C000000 		.word	.LC24
 2563 00c8 80D6FFFF 		.word	-10624
 2564              		.cfi_endproc
 2565              	.LFE27:
 2566              		.size	mbedtls_x509_sig_alg_gets, .-mbedtls_x509_sig_alg_gets
 2567              		.section	.text.mbedtls_x509_key_size_helper,"ax",%progbits
 2568              		.align	2
 2569              		.global	mbedtls_x509_key_size_helper
 2570              		.code	16
 2571              		.thumb_func
 2572              		.type	mbedtls_x509_key_size_helper, %function
 2573              	mbedtls_x509_key_size_helper:
 2574              	.LFB28:
 873:Source\mbedtls_open\library/x509.c **** 
 874:Source\mbedtls_open\library/x509.c **** /*
 875:Source\mbedtls_open\library/x509.c ****  * Helper for writing "RSA key size", "EC key size", etc
 876:Source\mbedtls_open\library/x509.c ****  */
 877:Source\mbedtls_open\library/x509.c **** int mbedtls_x509_key_size_helper( char *buf, size_t buf_size, const char *name )
 878:Source\mbedtls_open\library/x509.c **** {
 2575              		.loc 1 878 0
 2576              		.cfi_startproc
ARM GAS  C:\Users\Phuong\AppData\Local\Temp\cciPItDa.s 			page 65


 2577              		@ args = 0, pretend = 0, frame = 0
 2578              		@ frame_needed = 0, uses_anonymous_args = 0
 2579              	.LVL400:
 2580 0000 10B5     		push	{r4, lr}
 2581              		.cfi_def_cfa_offset 8
 2582              		.cfi_offset 4, -8
 2583              		.cfi_offset 14, -4
 2584 0002 0C00     		movs	r4, r1
 2585 0004 1300     		movs	r3, r2
 2586              	.LVL401:
 879:Source\mbedtls_open\library/x509.c ****     char *p = buf;
 880:Source\mbedtls_open\library/x509.c ****     size_t n = buf_size;
 881:Source\mbedtls_open\library/x509.c ****     int ret;
 882:Source\mbedtls_open\library/x509.c **** 
 883:Source\mbedtls_open\library/x509.c ****     ret = mbedtls_snprintf( p, n, "%s key size", name );
 2587              		.loc 1 883 0
 2588 0006 064A     		ldr	r2, .L225
 2589              	.LVL402:
 2590 0008 FFF7FEFF 		bl	snprintf
 2591              	.LVL403:
 884:Source\mbedtls_open\library/x509.c ****     MBEDTLS_X509_SAFE_SNPRINTF;
 2592              		.loc 1 884 0
 2593 000c 0028     		cmp	r0, #0
 2594 000e 03DB     		blt	.L223
 2595              		.loc 1 884 0 is_stmt 0 discriminator 2
 2596 0010 8442     		cmp	r4, r0
 2597 0012 03D8     		bhi	.L224
 2598              		.loc 1 884 0
 2599 0014 0348     		ldr	r0, .L225+4
 2600              	.LVL404:
 2601 0016 02E0     		b	.L222
 2602              	.LVL405:
 2603              	.L223:
 2604 0018 0248     		ldr	r0, .L225+4
 2605              	.LVL406:
 2606 001a 00E0     		b	.L222
 2607              	.LVL407:
 2608              	.L224:
 885:Source\mbedtls_open\library/x509.c **** 
 886:Source\mbedtls_open\library/x509.c ****     return( 0 );
 2609              		.loc 1 886 0 is_stmt 1
 2610 001c 0020     		movs	r0, #0
 2611              	.LVL408:
 2612              	.L222:
 887:Source\mbedtls_open\library/x509.c **** }
 2613              		.loc 1 887 0
 2614              		@ sp needed
 2615              	.LVL409:
 2616 001e 10BD     		pop	{r4, pc}
 2617              	.L226:
 2618              		.align	2
 2619              	.L225:
 2620 0020 54000000 		.word	.LC26
 2621 0024 80D6FFFF 		.word	-10624
 2622              		.cfi_endproc
 2623              	.LFE28:
 2624              		.size	mbedtls_x509_key_size_helper, .-mbedtls_x509_key_size_helper
ARM GAS  C:\Users\Phuong\AppData\Local\Temp\cciPItDa.s 			page 66


 2625              		.section	.text.mbedtls_x509_time_is_past,"ax",%progbits
 2626              		.align	2
 2627              		.global	mbedtls_x509_time_is_past
 2628              		.code	16
 2629              		.thumb_func
 2630              		.type	mbedtls_x509_time_is_past, %function
 2631              	mbedtls_x509_time_is_past:
 2632              	.LFB29:
 888:Source\mbedtls_open\library/x509.c **** 
 889:Source\mbedtls_open\library/x509.c **** #if defined(MBEDTLS_HAVE_TIME_DATE)
 890:Source\mbedtls_open\library/x509.c **** /*
 891:Source\mbedtls_open\library/x509.c ****  * Set the time structure to the current time.
 892:Source\mbedtls_open\library/x509.c ****  * Return 0 on success, non-zero on failure.
 893:Source\mbedtls_open\library/x509.c ****  */
 894:Source\mbedtls_open\library/x509.c **** static int x509_get_current_time( mbedtls_x509_time *now )
 895:Source\mbedtls_open\library/x509.c **** {
 896:Source\mbedtls_open\library/x509.c ****     struct tm *lt, tm_buf;
 897:Source\mbedtls_open\library/x509.c ****     mbedtls_time_t tt;
 898:Source\mbedtls_open\library/x509.c ****     int ret = 0;
 899:Source\mbedtls_open\library/x509.c **** 
 900:Source\mbedtls_open\library/x509.c ****     tt = mbedtls_time( NULL );
 901:Source\mbedtls_open\library/x509.c ****     lt = mbedtls_platform_gmtime_r( &tt, &tm_buf );
 902:Source\mbedtls_open\library/x509.c **** 
 903:Source\mbedtls_open\library/x509.c ****     if( lt == NULL )
 904:Source\mbedtls_open\library/x509.c ****         ret = -1;
 905:Source\mbedtls_open\library/x509.c ****     else
 906:Source\mbedtls_open\library/x509.c ****     {
 907:Source\mbedtls_open\library/x509.c ****         now->year = lt->tm_year + 1900;
 908:Source\mbedtls_open\library/x509.c ****         now->mon  = lt->tm_mon  + 1;
 909:Source\mbedtls_open\library/x509.c ****         now->day  = lt->tm_mday;
 910:Source\mbedtls_open\library/x509.c ****         now->hour = lt->tm_hour;
 911:Source\mbedtls_open\library/x509.c ****         now->min  = lt->tm_min;
 912:Source\mbedtls_open\library/x509.c ****         now->sec  = lt->tm_sec;
 913:Source\mbedtls_open\library/x509.c ****     }
 914:Source\mbedtls_open\library/x509.c **** 
 915:Source\mbedtls_open\library/x509.c ****     return( ret );
 916:Source\mbedtls_open\library/x509.c **** }
 917:Source\mbedtls_open\library/x509.c **** 
 918:Source\mbedtls_open\library/x509.c **** /*
 919:Source\mbedtls_open\library/x509.c ****  * Return 0 if before <= after, 1 otherwise
 920:Source\mbedtls_open\library/x509.c ****  */
 921:Source\mbedtls_open\library/x509.c **** static int x509_check_time( const mbedtls_x509_time *before, const mbedtls_x509_time *after )
 922:Source\mbedtls_open\library/x509.c **** {
 923:Source\mbedtls_open\library/x509.c ****     if( before->year  > after->year )
 924:Source\mbedtls_open\library/x509.c ****         return( 1 );
 925:Source\mbedtls_open\library/x509.c **** 
 926:Source\mbedtls_open\library/x509.c ****     if( before->year == after->year &&
 927:Source\mbedtls_open\library/x509.c ****         before->mon   > after->mon )
 928:Source\mbedtls_open\library/x509.c ****         return( 1 );
 929:Source\mbedtls_open\library/x509.c **** 
 930:Source\mbedtls_open\library/x509.c ****     if( before->year == after->year &&
 931:Source\mbedtls_open\library/x509.c ****         before->mon  == after->mon  &&
 932:Source\mbedtls_open\library/x509.c ****         before->day   > after->day )
 933:Source\mbedtls_open\library/x509.c ****         return( 1 );
 934:Source\mbedtls_open\library/x509.c **** 
 935:Source\mbedtls_open\library/x509.c ****     if( before->year == after->year &&
 936:Source\mbedtls_open\library/x509.c ****         before->mon  == after->mon  &&
ARM GAS  C:\Users\Phuong\AppData\Local\Temp\cciPItDa.s 			page 67


 937:Source\mbedtls_open\library/x509.c ****         before->day  == after->day  &&
 938:Source\mbedtls_open\library/x509.c ****         before->hour  > after->hour )
 939:Source\mbedtls_open\library/x509.c ****         return( 1 );
 940:Source\mbedtls_open\library/x509.c **** 
 941:Source\mbedtls_open\library/x509.c ****     if( before->year == after->year &&
 942:Source\mbedtls_open\library/x509.c ****         before->mon  == after->mon  &&
 943:Source\mbedtls_open\library/x509.c ****         before->day  == after->day  &&
 944:Source\mbedtls_open\library/x509.c ****         before->hour == after->hour &&
 945:Source\mbedtls_open\library/x509.c ****         before->min   > after->min  )
 946:Source\mbedtls_open\library/x509.c ****         return( 1 );
 947:Source\mbedtls_open\library/x509.c **** 
 948:Source\mbedtls_open\library/x509.c ****     if( before->year == after->year &&
 949:Source\mbedtls_open\library/x509.c ****         before->mon  == after->mon  &&
 950:Source\mbedtls_open\library/x509.c ****         before->day  == after->day  &&
 951:Source\mbedtls_open\library/x509.c ****         before->hour == after->hour &&
 952:Source\mbedtls_open\library/x509.c ****         before->min  == after->min  &&
 953:Source\mbedtls_open\library/x509.c ****         before->sec   > after->sec  )
 954:Source\mbedtls_open\library/x509.c ****         return( 1 );
 955:Source\mbedtls_open\library/x509.c **** 
 956:Source\mbedtls_open\library/x509.c ****     return( 0 );
 957:Source\mbedtls_open\library/x509.c **** }
 958:Source\mbedtls_open\library/x509.c **** 
 959:Source\mbedtls_open\library/x509.c **** int mbedtls_x509_time_is_past( const mbedtls_x509_time *to )
 960:Source\mbedtls_open\library/x509.c **** {
 961:Source\mbedtls_open\library/x509.c ****     mbedtls_x509_time now;
 962:Source\mbedtls_open\library/x509.c **** 
 963:Source\mbedtls_open\library/x509.c ****     if( x509_get_current_time( &now ) != 0 )
 964:Source\mbedtls_open\library/x509.c ****         return( 1 );
 965:Source\mbedtls_open\library/x509.c **** 
 966:Source\mbedtls_open\library/x509.c ****     return( x509_check_time( &now, to ) );
 967:Source\mbedtls_open\library/x509.c **** }
 968:Source\mbedtls_open\library/x509.c **** 
 969:Source\mbedtls_open\library/x509.c **** int mbedtls_x509_time_is_future( const mbedtls_x509_time *from )
 970:Source\mbedtls_open\library/x509.c **** {
 971:Source\mbedtls_open\library/x509.c ****     mbedtls_x509_time now;
 972:Source\mbedtls_open\library/x509.c **** 
 973:Source\mbedtls_open\library/x509.c ****     if( x509_get_current_time( &now ) != 0 )
 974:Source\mbedtls_open\library/x509.c ****         return( 1 );
 975:Source\mbedtls_open\library/x509.c **** 
 976:Source\mbedtls_open\library/x509.c ****     return( x509_check_time( from, &now ) );
 977:Source\mbedtls_open\library/x509.c **** }
 978:Source\mbedtls_open\library/x509.c **** 
 979:Source\mbedtls_open\library/x509.c **** #else  /* MBEDTLS_HAVE_TIME_DATE */
 980:Source\mbedtls_open\library/x509.c **** 
 981:Source\mbedtls_open\library/x509.c **** int mbedtls_x509_time_is_past( const mbedtls_x509_time *to )
 982:Source\mbedtls_open\library/x509.c **** {
 2633              		.loc 1 982 0
 2634              		.cfi_startproc
 2635              		@ args = 0, pretend = 0, frame = 0
 2636              		@ frame_needed = 0, uses_anonymous_args = 0
 2637              		@ link register save eliminated.
 2638              	.LVL410:
 983:Source\mbedtls_open\library/x509.c ****     ((void) to);
 984:Source\mbedtls_open\library/x509.c ****     return( 0 );
 985:Source\mbedtls_open\library/x509.c **** }
 2639              		.loc 1 985 0
 2640 0000 0020     		movs	r0, #0
ARM GAS  C:\Users\Phuong\AppData\Local\Temp\cciPItDa.s 			page 68


 2641              	.LVL411:
 2642              		@ sp needed
 2643 0002 7047     		bx	lr
 2644              		.cfi_endproc
 2645              	.LFE29:
 2646              		.size	mbedtls_x509_time_is_past, .-mbedtls_x509_time_is_past
 2647              		.section	.text.mbedtls_x509_time_is_future,"ax",%progbits
 2648              		.align	2
 2649              		.global	mbedtls_x509_time_is_future
 2650              		.code	16
 2651              		.thumb_func
 2652              		.type	mbedtls_x509_time_is_future, %function
 2653              	mbedtls_x509_time_is_future:
 2654              	.LFB30:
 986:Source\mbedtls_open\library/x509.c **** 
 987:Source\mbedtls_open\library/x509.c **** int mbedtls_x509_time_is_future( const mbedtls_x509_time *from )
 988:Source\mbedtls_open\library/x509.c **** {
 2655              		.loc 1 988 0
 2656              		.cfi_startproc
 2657              		@ args = 0, pretend = 0, frame = 0
 2658              		@ frame_needed = 0, uses_anonymous_args = 0
 2659              		@ link register save eliminated.
 2660              	.LVL412:
 989:Source\mbedtls_open\library/x509.c ****     ((void) from);
 990:Source\mbedtls_open\library/x509.c ****     return( 0 );
 991:Source\mbedtls_open\library/x509.c **** }
 2661              		.loc 1 991 0
 2662 0000 0020     		movs	r0, #0
 2663              	.LVL413:
 2664              		@ sp needed
 2665 0002 7047     		bx	lr
 2666              		.cfi_endproc
 2667              	.LFE30:
 2668              		.size	mbedtls_x509_time_is_future, .-mbedtls_x509_time_is_future
 2669              		.section	.text.mbedtls_x509_self_test,"ax",%progbits
 2670              		.align	2
 2671              		.global	mbedtls_x509_self_test
 2672              		.code	16
 2673              		.thumb_func
 2674              		.type	mbedtls_x509_self_test, %function
 2675              	mbedtls_x509_self_test:
 2676              	.LFB31:
 992:Source\mbedtls_open\library/x509.c **** #endif /* MBEDTLS_HAVE_TIME_DATE */
 993:Source\mbedtls_open\library/x509.c **** 
 994:Source\mbedtls_open\library/x509.c **** #if defined(MBEDTLS_SELF_TEST)
 995:Source\mbedtls_open\library/x509.c **** 
 996:Source\mbedtls_open\library/x509.c **** #include "mbedtls/x509_crt.h"
 997:Source\mbedtls_open\library/x509.c **** #include "mbedtls/certs.h"
 998:Source\mbedtls_open\library/x509.c **** 
 999:Source\mbedtls_open\library/x509.c **** /*
1000:Source\mbedtls_open\library/x509.c ****  * Checkup routine
1001:Source\mbedtls_open\library/x509.c ****  */
1002:Source\mbedtls_open\library/x509.c **** int mbedtls_x509_self_test( int verbose )
1003:Source\mbedtls_open\library/x509.c **** {
 2677              		.loc 1 1003 0
 2678              		.cfi_startproc
 2679              		@ args = 0, pretend = 0, frame = 624
ARM GAS  C:\Users\Phuong\AppData\Local\Temp\cciPItDa.s 			page 69


 2680              		@ frame_needed = 0, uses_anonymous_args = 0
 2681              	.LVL414:
 2682 0000 30B5     		push	{r4, r5, lr}
 2683              		.cfi_def_cfa_offset 12
 2684              		.cfi_offset 4, -12
 2685              		.cfi_offset 5, -8
 2686              		.cfi_offset 14, -4
 2687 0002 2C4C     		ldr	r4, .L240
 2688 0004 A544     		add	sp, sp, r4
 2689              		.cfi_def_cfa_offset 656
 2690 0006 051E     		subs	r5, r0, #0
1004:Source\mbedtls_open\library/x509.c **** #if defined(MBEDTLS_CERTS_C) && defined(MBEDTLS_SHA256_C)
1005:Source\mbedtls_open\library/x509.c ****     int ret;
1006:Source\mbedtls_open\library/x509.c ****     uint32_t flags;
1007:Source\mbedtls_open\library/x509.c ****     mbedtls_x509_crt cacert;
1008:Source\mbedtls_open\library/x509.c ****     mbedtls_x509_crt clicert;
1009:Source\mbedtls_open\library/x509.c **** 
1010:Source\mbedtls_open\library/x509.c ****     if( verbose != 0 )
 2691              		.loc 1 1010 0
 2692 0008 02D0     		beq	.L230
1011:Source\mbedtls_open\library/x509.c ****         mbedtls_printf( "  X.509 certificate load: " );
 2693              		.loc 1 1011 0
 2694 000a 2B48     		ldr	r0, .L240+4
 2695              	.LVL415:
 2696 000c FFF7FEFF 		bl	printf
 2697              	.LVL416:
 2698              	.L230:
1012:Source\mbedtls_open\library/x509.c **** 
1013:Source\mbedtls_open\library/x509.c ****     mbedtls_x509_crt_init( &clicert );
 2699              		.loc 1 1013 0
 2700 0010 05A8     		add	r0, sp, #20
 2701 0012 FFF7FEFF 		bl	mbedtls_x509_crt_init
 2702              	.LVL417:
1014:Source\mbedtls_open\library/x509.c **** 
1015:Source\mbedtls_open\library/x509.c ****     ret = mbedtls_x509_crt_parse( &clicert, (const unsigned char *) mbedtls_test_cli_crt,
 2703              		.loc 1 1015 0
 2704 0016 294B     		ldr	r3, .L240+8
 2705 0018 1968     		ldr	r1, [r3]
 2706 001a 294B     		ldr	r3, .L240+12
 2707 001c 1A68     		ldr	r2, [r3]
 2708 001e 05A8     		add	r0, sp, #20
 2709 0020 FFF7FEFF 		bl	mbedtls_x509_crt_parse
 2710              	.LVL418:
 2711 0024 041E     		subs	r4, r0, #0
 2712              	.LVL419:
1016:Source\mbedtls_open\library/x509.c ****                            mbedtls_test_cli_crt_len );
1017:Source\mbedtls_open\library/x509.c ****     if( ret != 0 )
 2713              		.loc 1 1017 0
 2714 0026 06D0     		beq	.L231
1018:Source\mbedtls_open\library/x509.c ****     {
1019:Source\mbedtls_open\library/x509.c ****         if( verbose != 0 )
 2715              		.loc 1 1019 0
 2716 0028 002D     		cmp	r5, #0
 2717 002a 3DD0     		beq	.L237
1020:Source\mbedtls_open\library/x509.c ****             mbedtls_printf( "failed\n" );
 2718              		.loc 1 1020 0
 2719 002c 2548     		ldr	r0, .L240+16
ARM GAS  C:\Users\Phuong\AppData\Local\Temp\cciPItDa.s 			page 70


 2720              	.LVL420:
 2721 002e FFF7FEFF 		bl	puts
 2722              	.LVL421:
1021:Source\mbedtls_open\library/x509.c **** 
1022:Source\mbedtls_open\library/x509.c ****         return( ret );
 2723              		.loc 1 1022 0
 2724 0032 2000     		movs	r0, r4
 2725 0034 3AE0     		b	.L232
 2726              	.L231:
1023:Source\mbedtls_open\library/x509.c ****     }
1024:Source\mbedtls_open\library/x509.c **** 
1025:Source\mbedtls_open\library/x509.c ****     mbedtls_x509_crt_init( &cacert );
 2727              		.loc 1 1025 0
 2728 0036 52A8     		add	r0, sp, #328
 2729 0038 FFF7FEFF 		bl	mbedtls_x509_crt_init
 2730              	.LVL422:
1026:Source\mbedtls_open\library/x509.c **** 
1027:Source\mbedtls_open\library/x509.c ****     ret = mbedtls_x509_crt_parse( &cacert, (const unsigned char *) mbedtls_test_ca_crt,
 2731              		.loc 1 1027 0
 2732 003c 224B     		ldr	r3, .L240+20
 2733 003e 1968     		ldr	r1, [r3]
 2734 0040 224B     		ldr	r3, .L240+24
 2735 0042 1A68     		ldr	r2, [r3]
 2736 0044 52A8     		add	r0, sp, #328
 2737 0046 FFF7FEFF 		bl	mbedtls_x509_crt_parse
 2738              	.LVL423:
 2739 004a 041E     		subs	r4, r0, #0
 2740              	.LVL424:
1028:Source\mbedtls_open\library/x509.c ****                           mbedtls_test_ca_crt_len );
1029:Source\mbedtls_open\library/x509.c ****     if( ret != 0 )
 2741              		.loc 1 1029 0
 2742 004c 06D0     		beq	.L233
1030:Source\mbedtls_open\library/x509.c ****     {
1031:Source\mbedtls_open\library/x509.c ****         if( verbose != 0 )
 2743              		.loc 1 1031 0
 2744 004e 002D     		cmp	r5, #0
 2745 0050 2BD0     		beq	.L238
1032:Source\mbedtls_open\library/x509.c ****             mbedtls_printf( "failed\n" );
 2746              		.loc 1 1032 0
 2747 0052 1C48     		ldr	r0, .L240+16
 2748              	.LVL425:
 2749 0054 FFF7FEFF 		bl	puts
 2750              	.LVL426:
1033:Source\mbedtls_open\library/x509.c **** 
1034:Source\mbedtls_open\library/x509.c ****         return( ret );
 2751              		.loc 1 1034 0
 2752 0058 2000     		movs	r0, r4
 2753 005a 27E0     		b	.L232
 2754              	.L233:
1035:Source\mbedtls_open\library/x509.c ****     }
1036:Source\mbedtls_open\library/x509.c **** 
1037:Source\mbedtls_open\library/x509.c ****     if( verbose != 0 )
 2755              		.loc 1 1037 0
 2756 005c 002D     		cmp	r5, #0
 2757 005e 02D0     		beq	.L234
1038:Source\mbedtls_open\library/x509.c ****         mbedtls_printf( "passed\n  X.509 signature verify: ");
 2758              		.loc 1 1038 0
ARM GAS  C:\Users\Phuong\AppData\Local\Temp\cciPItDa.s 			page 71


 2759 0060 1B48     		ldr	r0, .L240+28
 2760 0062 FFF7FEFF 		bl	printf
 2761              	.LVL427:
 2762              	.L234:
1039:Source\mbedtls_open\library/x509.c **** 
1040:Source\mbedtls_open\library/x509.c ****     ret = mbedtls_x509_crt_verify( &clicert, &cacert, NULL, NULL, &flags, NULL, NULL );
 2763              		.loc 1 1040 0
 2764 0066 0023     		movs	r3, #0
 2765 0068 0293     		str	r3, [sp, #8]
 2766 006a 0193     		str	r3, [sp, #4]
 2767 006c 9FAB     		add	r3, sp, #636
 2768 006e 0093     		str	r3, [sp]
 2769 0070 0023     		movs	r3, #0
 2770 0072 0022     		movs	r2, #0
 2771 0074 52A9     		add	r1, sp, #328
 2772 0076 05A8     		add	r0, sp, #20
 2773 0078 FFF7FEFF 		bl	mbedtls_x509_crt_verify
 2774              	.LVL428:
 2775 007c 041E     		subs	r4, r0, #0
 2776              	.LVL429:
1041:Source\mbedtls_open\library/x509.c ****     if( ret != 0 )
 2777              		.loc 1 1041 0
 2778 007e 06D0     		beq	.L235
1042:Source\mbedtls_open\library/x509.c ****     {
1043:Source\mbedtls_open\library/x509.c ****         if( verbose != 0 )
 2779              		.loc 1 1043 0
 2780 0080 002D     		cmp	r5, #0
 2781 0082 13D0     		beq	.L239
1044:Source\mbedtls_open\library/x509.c ****             mbedtls_printf( "failed\n" );
 2782              		.loc 1 1044 0
 2783 0084 0F48     		ldr	r0, .L240+16
 2784              	.LVL430:
 2785 0086 FFF7FEFF 		bl	puts
 2786              	.LVL431:
1045:Source\mbedtls_open\library/x509.c **** 
1046:Source\mbedtls_open\library/x509.c ****         return( ret );
 2787              		.loc 1 1046 0
 2788 008a 2000     		movs	r0, r4
 2789 008c 0EE0     		b	.L232
 2790              	.L235:
1047:Source\mbedtls_open\library/x509.c ****     }
1048:Source\mbedtls_open\library/x509.c **** 
1049:Source\mbedtls_open\library/x509.c ****     if( verbose != 0 )
 2791              		.loc 1 1049 0
 2792 008e 002D     		cmp	r5, #0
 2793 0090 02D0     		beq	.L236
1050:Source\mbedtls_open\library/x509.c ****         mbedtls_printf( "passed\n\n");
 2794              		.loc 1 1050 0
 2795 0092 1048     		ldr	r0, .L240+32
 2796 0094 FFF7FEFF 		bl	puts
 2797              	.LVL432:
 2798              	.L236:
1051:Source\mbedtls_open\library/x509.c **** 
1052:Source\mbedtls_open\library/x509.c ****     mbedtls_x509_crt_free( &cacert  );
 2799              		.loc 1 1052 0
 2800 0098 52A8     		add	r0, sp, #328
 2801 009a FFF7FEFF 		bl	mbedtls_x509_crt_free
ARM GAS  C:\Users\Phuong\AppData\Local\Temp\cciPItDa.s 			page 72


 2802              	.LVL433:
1053:Source\mbedtls_open\library/x509.c ****     mbedtls_x509_crt_free( &clicert );
 2803              		.loc 1 1053 0
 2804 009e 05A8     		add	r0, sp, #20
 2805 00a0 FFF7FEFF 		bl	mbedtls_x509_crt_free
 2806              	.LVL434:
1054:Source\mbedtls_open\library/x509.c **** 
1055:Source\mbedtls_open\library/x509.c ****     return( 0 );
 2807              		.loc 1 1055 0
 2808 00a4 0020     		movs	r0, #0
 2809 00a6 01E0     		b	.L232
 2810              	.LVL435:
 2811              	.L237:
 2812 00a8 00E0     		b	.L232
 2813              	.L238:
 2814 00aa FFE7     		b	.L232
 2815              	.L239:
 2816              	.LVL436:
 2817              	.L232:
1056:Source\mbedtls_open\library/x509.c **** #else
1057:Source\mbedtls_open\library/x509.c ****     ((void) verbose);
1058:Source\mbedtls_open\library/x509.c ****     return( 0 );
1059:Source\mbedtls_open\library/x509.c **** #endif /* MBEDTLS_CERTS_C && MBEDTLS_SHA1_C */
1060:Source\mbedtls_open\library/x509.c **** }
 2818              		.loc 1 1060 0
 2819 00ac A123     		movs	r3, #161
 2820 00ae 9B00     		lsls	r3, r3, #2
 2821 00b0 9D44     		add	sp, sp, r3
 2822              		@ sp needed
 2823              	.LVL437:
 2824              	.LVL438:
 2825 00b2 30BD     		pop	{r4, r5, pc}
 2826              	.L241:
 2827              		.align	2
 2828              	.L240:
 2829 00b4 7CFDFFFF 		.word	-644
 2830 00b8 60000000 		.word	.LC28
 2831 00bc 00000000 		.word	mbedtls_test_cli_crt
 2832 00c0 00000000 		.word	mbedtls_test_cli_crt_len
 2833 00c4 7C000000 		.word	.LC32
 2834 00c8 00000000 		.word	mbedtls_test_ca_crt
 2835 00cc 00000000 		.word	mbedtls_test_ca_crt_len
 2836 00d0 84000000 		.word	.LC36
 2837 00d4 A8000000 		.word	.LC38
 2838              		.cfi_endproc
 2839              	.LFE31:
 2840              		.size	mbedtls_x509_self_test, .-mbedtls_x509_self_test
 2841              		.section	.rodata.str1.4,"aMS",%progbits,1
 2842              		.align	2
 2843              	.LC1:
 2844 0000 2A864886 		.ascii	"*\206H\206\367\015\001\001\010\000"
 2844      F70D0101 
 2844      0800
 2845 000a 0000     		.space	2
 2846              	.LC3:
 2847 000c 202B2000 		.ascii	" + \000"
 2848              	.LC5:
ARM GAS  C:\Users\Phuong\AppData\Local\Temp\cciPItDa.s 			page 73


 2849 0010 2C2000   		.ascii	", \000"
 2850 0013 00       		.space	1
 2851              	.LC7:
 2852 0014 25733D00 		.ascii	"%s=\000"
 2853              	.LC9:
 2854 0018 3F3F3D00 		.ascii	"??=\000"
 2855              	.LC11:
 2856 001c 257300   		.ascii	"%s\000"
 2857 001f 00       		.space	1
 2858              	.LC13:
 2859 0020 3A00     		.ascii	":\000"
 2860 0022 0000     		.space	2
 2861              	.LC15:
 2862 0024 00       		.ascii	"\000"
 2863 0025 000000   		.space	3
 2864              	.LC17:
 2865 0028 25303258 		.ascii	"%02X%s\000"
 2865      257300
 2866 002f 00       		.space	1
 2867              	.LC19:
 2868 0030 2E2E2E2E 		.ascii	"....\000"
 2868      00
 2869 0035 000000   		.space	3
 2870              	.LC21:
 2871 0038 3F3F3F00 		.ascii	"???\000"
 2872              	.LC24:
 2873 003c 20282573 		.ascii	" (%s, MGF1-%s, 0x%02X)\000"
 2873      2C204D47 
 2873      46312D25 
 2873      732C2030 
 2873      78253032 
 2874 0053 00       		.space	1
 2875              	.LC26:
 2876 0054 2573206B 		.ascii	"%s key size\000"
 2876      65792073 
 2876      697A6500 
 2877              	.LC28:
 2878 0060 2020582E 		.ascii	"  X.509 certificate load: \000"
 2878      35303920 
 2878      63657274 
 2878      69666963 
 2878      61746520 
 2879 007b 00       		.space	1
 2880              	.LC32:
 2881 007c 6661696C 		.ascii	"failed\000"
 2881      656400
 2882 0083 00       		.space	1
 2883              	.LC36:
 2884 0084 70617373 		.ascii	"passed\012  X.509 signature verify: \000"
 2884      65640A20 
 2884      20582E35 
 2884      30392073 
 2884      69676E61 
 2885 00a6 0000     		.space	2
 2886              	.LC38:
 2887 00a8 70617373 		.ascii	"passed\012\000"
 2887      65640A00 
ARM GAS  C:\Users\Phuong\AppData\Local\Temp\cciPItDa.s 			page 74


 2888              		.text
 2889              	.Letext0:
 2890              		.file 2 "c:\\program files (x86)\\cypress\\psoc creator\\4.2\\psoc creator\\import\\gnu\\arm\\5.4.
 2891              		.file 3 "c:\\program files (x86)\\cypress\\psoc creator\\4.2\\psoc creator\\import\\gnu\\arm\\5.4.
 2892              		.file 4 "c:\\program files (x86)\\cypress\\psoc creator\\4.2\\psoc creator\\import\\gnu\\arm\\5.4.
 2893              		.file 5 ".\\Source\\mbedtls_open\\include/mbedtls/asn1.h"
 2894              		.file 6 ".\\Source\\mbedtls_open\\include/mbedtls/md.h"
 2895              		.file 7 ".\\Source\\mbedtls_open\\include/mbedtls/pk.h"
 2896              		.file 8 ".\\Source\\mbedtls_open\\include/mbedtls/x509.h"
 2897              		.file 9 ".\\Source\\mbedtls_open\\include/mbedtls/x509_crt.h"
 2898              		.file 10 ".\\Source\\mbedtls_open\\include/mbedtls/certs.h"
 2899              		.file 11 ".\\Source\\mbedtls_open\\include/mbedtls/oid.h"
 2900              		.file 12 "c:\\program files (x86)\\cypress\\psoc creator\\4.2\\psoc creator\\import\\gnu\\arm\\5.4
 2901              		.file 13 "c:\\program files (x86)\\cypress\\psoc creator\\4.2\\psoc creator\\import\\gnu\\arm\\5.4
 2902              		.file 14 "c:\\program files (x86)\\cypress\\psoc creator\\4.2\\psoc creator\\import\\gnu\\arm\\5.4
 2903              		.file 15 "<built-in>"