ARM GAS  C:\Users\Phuong\AppData\Local\Temp\cciPItDa.s 			page 1


   1              		.syntax unified
   2              		.cpu cortex-m0plus
   3              		.fpu softvfp
   4              		.eabi_attribute 20, 1
   5              		.eabi_attribute 21, 1
   6              		.eabi_attribute 23, 3
   7              		.eabi_attribute 24, 1
   8              		.eabi_attribute 25, 1
   9              		.eabi_attribute 26, 1
  10              		.eabi_attribute 30, 1
  11              		.eabi_attribute 34, 0
  12              		.eabi_attribute 18, 4
  13              		.thumb
  14              		.syntax unified
  15              		.file	"x509.c"
  16              		.text
  17              	.Ltext0:
  18              		.cfi_sections	.debug_frame
  19              		.section	.text.x509_parse_int,"ax",%progbits
  20              		.align	2
  21              		.code	16
  22              		.thumb_func
  23              		.type	x509_parse_int, %function
  24              	x509_parse_int:
  25              	.LFB18:
  26              		.file 1 "Source\\mbedtls_open\\library\\x509.c"
   1:Source\mbedtls_open\library/x509.c **** /*
   2:Source\mbedtls_open\library/x509.c ****  *  X.509 common functions for parsing and verification
   3:Source\mbedtls_open\library/x509.c ****  *
   4:Source\mbedtls_open\library/x509.c ****  *  Copyright (C) 2006-2015, ARM Limited, All Rights Reserved
   5:Source\mbedtls_open\library/x509.c ****  *  SPDX-License-Identifier: Apache-2.0
   6:Source\mbedtls_open\library/x509.c ****  *
   7:Source\mbedtls_open\library/x509.c ****  *  Licensed under the Apache License, Version 2.0 (the "License"); you may
   8:Source\mbedtls_open\library/x509.c ****  *  not use this file except in compliance with the License.
   9:Source\mbedtls_open\library/x509.c ****  *  You may obtain a copy of the License at
  10:Source\mbedtls_open\library/x509.c ****  *
  11:Source\mbedtls_open\library/x509.c ****  *  http://www.apache.org/licenses/LICENSE-2.0
  12:Source\mbedtls_open\library/x509.c ****  *
  13:Source\mbedtls_open\library/x509.c ****  *  Unless required by applicable law or agreed to in writing, software
  14:Source\mbedtls_open\library/x509.c ****  *  distributed under the License is distributed on an "AS IS" BASIS, WITHOUT
  15:Source\mbedtls_open\library/x509.c ****  *  WARRANTIES OR CONDITIONS OF ANY KIND, either express or implied.
  16:Source\mbedtls_open\library/x509.c ****  *  See the License for the specific language governing permissions and
  17:Source\mbedtls_open\library/x509.c ****  *  limitations under the License.
  18:Source\mbedtls_open\library/x509.c ****  *
  19:Source\mbedtls_open\library/x509.c ****  *  This file is part of mbed TLS (https://tls.mbed.org)
  20:Source\mbedtls_open\library/x509.c ****  */
  21:Source\mbedtls_open\library/x509.c **** /*
  22:Source\mbedtls_open\library/x509.c ****  *  The ITU-T X.509 standard defines a certificate format for PKI.
  23:Source\mbedtls_open\library/x509.c ****  *
  24:Source\mbedtls_open\library/x509.c ****  *  http://www.ietf.org/rfc/rfc5280.txt (Certificates and CRLs)
  25:Source\mbedtls_open\library/x509.c ****  *  http://www.ietf.org/rfc/rfc3279.txt (Alg IDs for CRLs)
  26:Source\mbedtls_open\library/x509.c ****  *  http://www.ietf.org/rfc/rfc2986.txt (CSRs, aka PKCS#10)
  27:Source\mbedtls_open\library/x509.c ****  *
  28:Source\mbedtls_open\library/x509.c ****  *  http://www.itu.int/ITU-T/studygroups/com17/languages/X.680-0207.pdf
  29:Source\mbedtls_open\library/x509.c ****  *  http://www.itu.int/ITU-T/studygroups/com17/languages/X.690-0207.pdf
  30:Source\mbedtls_open\library/x509.c ****  */
  31:Source\mbedtls_open\library/x509.c **** 
ARM GAS  C:\Users\Phuong\AppData\Local\Temp\cciPItDa.s 			page 2


  32:Source\mbedtls_open\library/x509.c **** #if !defined(MBEDTLS_CONFIG_FILE)
  33:Source\mbedtls_open\library/x509.c **** #include "mbedtls/config.h"
  34:Source\mbedtls_open\library/x509.c **** #else
  35:Source\mbedtls_open\library/x509.c **** #include MBEDTLS_CONFIG_FILE
  36:Source\mbedtls_open\library/x509.c **** #endif
  37:Source\mbedtls_open\library/x509.c **** 
  38:Source\mbedtls_open\library/x509.c **** #if defined(MBEDTLS_X509_USE_C)
  39:Source\mbedtls_open\library/x509.c **** 
  40:Source\mbedtls_open\library/x509.c **** #include "mbedtls/x509.h"
  41:Source\mbedtls_open\library/x509.c **** #include "mbedtls/asn1.h"
  42:Source\mbedtls_open\library/x509.c **** #include "mbedtls/oid.h"
  43:Source\mbedtls_open\library/x509.c **** 
  44:Source\mbedtls_open\library/x509.c **** #include <stdio.h>
  45:Source\mbedtls_open\library/x509.c **** #include <string.h>
  46:Source\mbedtls_open\library/x509.c **** 
  47:Source\mbedtls_open\library/x509.c **** #if defined(MBEDTLS_PEM_PARSE_C)
  48:Source\mbedtls_open\library/x509.c **** #include "mbedtls/pem.h"
  49:Source\mbedtls_open\library/x509.c **** #endif
  50:Source\mbedtls_open\library/x509.c **** 
  51:Source\mbedtls_open\library/x509.c **** #if defined(MBEDTLS_PLATFORM_C)
  52:Source\mbedtls_open\library/x509.c **** #include "mbedtls/platform.h"
  53:Source\mbedtls_open\library/x509.c **** #else
  54:Source\mbedtls_open\library/x509.c **** #include <stdio.h>
  55:Source\mbedtls_open\library/x509.c **** #include <stdlib.h>
  56:Source\mbedtls_open\library/x509.c **** #define mbedtls_free      free
  57:Source\mbedtls_open\library/x509.c **** #define mbedtls_calloc    calloc
  58:Source\mbedtls_open\library/x509.c **** #define mbedtls_printf    printf
  59:Source\mbedtls_open\library/x509.c **** #define mbedtls_snprintf  snprintf
  60:Source\mbedtls_open\library/x509.c **** #endif
  61:Source\mbedtls_open\library/x509.c **** 
  62:Source\mbedtls_open\library/x509.c **** #if defined(MBEDTLS_HAVE_TIME)
  63:Source\mbedtls_open\library/x509.c **** #include "mbedtls/platform_time.h"
  64:Source\mbedtls_open\library/x509.c **** #endif
  65:Source\mbedtls_open\library/x509.c **** #if defined(MBEDTLS_HAVE_TIME_DATE)
  66:Source\mbedtls_open\library/x509.c **** #include "mbedtls/platform_util.h"
  67:Source\mbedtls_open\library/x509.c **** #include <time.h>
  68:Source\mbedtls_open\library/x509.c **** #endif
  69:Source\mbedtls_open\library/x509.c **** 
  70:Source\mbedtls_open\library/x509.c **** #define CHECK(code) if( ( ret = code ) != 0 ){ return( ret ); }
  71:Source\mbedtls_open\library/x509.c **** #define CHECK_RANGE(min, max, val) if( val < min || val > max ){ return( ret ); }
  72:Source\mbedtls_open\library/x509.c **** 
  73:Source\mbedtls_open\library/x509.c **** /*
  74:Source\mbedtls_open\library/x509.c ****  *  CertificateSerialNumber  ::=  INTEGER
  75:Source\mbedtls_open\library/x509.c ****  */
  76:Source\mbedtls_open\library/x509.c **** int mbedtls_x509_get_serial( unsigned char **p, const unsigned char *end,
  77:Source\mbedtls_open\library/x509.c ****                      mbedtls_x509_buf *serial )
  78:Source\mbedtls_open\library/x509.c **** {
  79:Source\mbedtls_open\library/x509.c ****     int ret;
  80:Source\mbedtls_open\library/x509.c **** 
  81:Source\mbedtls_open\library/x509.c ****     if( ( end - *p ) < 1 )
  82:Source\mbedtls_open\library/x509.c ****         return( MBEDTLS_ERR_X509_INVALID_SERIAL +
  83:Source\mbedtls_open\library/x509.c ****                 MBEDTLS_ERR_ASN1_OUT_OF_DATA );
  84:Source\mbedtls_open\library/x509.c **** 
  85:Source\mbedtls_open\library/x509.c ****     if( **p != ( MBEDTLS_ASN1_CONTEXT_SPECIFIC | MBEDTLS_ASN1_PRIMITIVE | 2 ) &&
  86:Source\mbedtls_open\library/x509.c ****         **p !=   MBEDTLS_ASN1_INTEGER )
  87:Source\mbedtls_open\library/x509.c ****         return( MBEDTLS_ERR_X509_INVALID_SERIAL +
  88:Source\mbedtls_open\library/x509.c ****                 MBEDTLS_ERR_ASN1_UNEXPECTED_TAG );
ARM GAS  C:\Users\Phuong\AppData\Local\Temp\cciPItDa.s 			page 3


  89:Source\mbedtls_open\library/x509.c **** 
  90:Source\mbedtls_open\library/x509.c ****     serial->tag = *(*p)++;
  91:Source\mbedtls_open\library/x509.c **** 
  92:Source\mbedtls_open\library/x509.c ****     if( ( ret = mbedtls_asn1_get_len( p, end, &serial->len ) ) != 0 )
  93:Source\mbedtls_open\library/x509.c ****         return( MBEDTLS_ERR_X509_INVALID_SERIAL + ret );
  94:Source\mbedtls_open\library/x509.c **** 
  95:Source\mbedtls_open\library/x509.c ****     serial->p = *p;
  96:Source\mbedtls_open\library/x509.c ****     *p += serial->len;
  97:Source\mbedtls_open\library/x509.c **** 
  98:Source\mbedtls_open\library/x509.c ****     return( 0 );
  99:Source\mbedtls_open\library/x509.c **** }
 100:Source\mbedtls_open\library/x509.c **** 
 101:Source\mbedtls_open\library/x509.c **** /* Get an algorithm identifier without parameters (eg for signatures)
 102:Source\mbedtls_open\library/x509.c ****  *
 103:Source\mbedtls_open\library/x509.c ****  *  AlgorithmIdentifier  ::=  SEQUENCE  {
 104:Source\mbedtls_open\library/x509.c ****  *       algorithm               OBJECT IDENTIFIER,
 105:Source\mbedtls_open\library/x509.c ****  *       parameters              ANY DEFINED BY algorithm OPTIONAL  }
 106:Source\mbedtls_open\library/x509.c ****  */
 107:Source\mbedtls_open\library/x509.c **** int mbedtls_x509_get_alg_null( unsigned char **p, const unsigned char *end,
 108:Source\mbedtls_open\library/x509.c ****                        mbedtls_x509_buf *alg )
 109:Source\mbedtls_open\library/x509.c **** {
 110:Source\mbedtls_open\library/x509.c ****     int ret;
 111:Source\mbedtls_open\library/x509.c **** 
 112:Source\mbedtls_open\library/x509.c ****     if( ( ret = mbedtls_asn1_get_alg_null( p, end, alg ) ) != 0 )
 113:Source\mbedtls_open\library/x509.c ****         return( MBEDTLS_ERR_X509_INVALID_ALG + ret );
 114:Source\mbedtls_open\library/x509.c **** 
 115:Source\mbedtls_open\library/x509.c ****     return( 0 );
 116:Source\mbedtls_open\library/x509.c **** }
 117:Source\mbedtls_open\library/x509.c **** 
 118:Source\mbedtls_open\library/x509.c **** /*
 119:Source\mbedtls_open\library/x509.c ****  * Parse an algorithm identifier with (optional) paramaters
 120:Source\mbedtls_open\library/x509.c ****  */
 121:Source\mbedtls_open\library/x509.c **** int mbedtls_x509_get_alg( unsigned char **p, const unsigned char *end,
 122:Source\mbedtls_open\library/x509.c ****                   mbedtls_x509_buf *alg, mbedtls_x509_buf *params )
 123:Source\mbedtls_open\library/x509.c **** {
 124:Source\mbedtls_open\library/x509.c ****     int ret;
 125:Source\mbedtls_open\library/x509.c **** 
 126:Source\mbedtls_open\library/x509.c ****     if( ( ret = mbedtls_asn1_get_alg( p, end, alg, params ) ) != 0 )
 127:Source\mbedtls_open\library/x509.c ****         return( MBEDTLS_ERR_X509_INVALID_ALG + ret );
 128:Source\mbedtls_open\library/x509.c **** 
 129:Source\mbedtls_open\library/x509.c ****     return( 0 );
 130:Source\mbedtls_open\library/x509.c **** }
 131:Source\mbedtls_open\library/x509.c **** 
 132:Source\mbedtls_open\library/x509.c **** #if defined(MBEDTLS_X509_RSASSA_PSS_SUPPORT)
 133:Source\mbedtls_open\library/x509.c **** /*
 134:Source\mbedtls_open\library/x509.c ****  * HashAlgorithm ::= AlgorithmIdentifier
 135:Source\mbedtls_open\library/x509.c ****  *
 136:Source\mbedtls_open\library/x509.c ****  * AlgorithmIdentifier  ::=  SEQUENCE  {
 137:Source\mbedtls_open\library/x509.c ****  *      algorithm               OBJECT IDENTIFIER,
 138:Source\mbedtls_open\library/x509.c ****  *      parameters              ANY DEFINED BY algorithm OPTIONAL  }
 139:Source\mbedtls_open\library/x509.c ****  *
 140:Source\mbedtls_open\library/x509.c ****  * For HashAlgorithm, parameters MUST be NULL or absent.
 141:Source\mbedtls_open\library/x509.c ****  */
 142:Source\mbedtls_open\library/x509.c **** static int x509_get_hash_alg( const mbedtls_x509_buf *alg, mbedtls_md_type_t *md_alg )
 143:Source\mbedtls_open\library/x509.c **** {
 144:Source\mbedtls_open\library/x509.c ****     int ret;
 145:Source\mbedtls_open\library/x509.c ****     unsigned char *p;
ARM GAS  C:\Users\Phuong\AppData\Local\Temp\cciPItDa.s 			page 4


 146:Source\mbedtls_open\library/x509.c ****     const unsigned char *end;
 147:Source\mbedtls_open\library/x509.c ****     mbedtls_x509_buf md_oid;
 148:Source\mbedtls_open\library/x509.c ****     size_t len;
 149:Source\mbedtls_open\library/x509.c **** 
 150:Source\mbedtls_open\library/x509.c ****     /* Make sure we got a SEQUENCE and setup bounds */
 151:Source\mbedtls_open\library/x509.c ****     if( alg->tag != ( MBEDTLS_ASN1_CONSTRUCTED | MBEDTLS_ASN1_SEQUENCE ) )
 152:Source\mbedtls_open\library/x509.c ****         return( MBEDTLS_ERR_X509_INVALID_ALG +
 153:Source\mbedtls_open\library/x509.c ****                 MBEDTLS_ERR_ASN1_UNEXPECTED_TAG );
 154:Source\mbedtls_open\library/x509.c **** 
 155:Source\mbedtls_open\library/x509.c ****     p = (unsigned char *) alg->p;
 156:Source\mbedtls_open\library/x509.c ****     end = p + alg->len;
 157:Source\mbedtls_open\library/x509.c **** 
 158:Source\mbedtls_open\library/x509.c ****     if( p >= end )
 159:Source\mbedtls_open\library/x509.c ****         return( MBEDTLS_ERR_X509_INVALID_ALG +
 160:Source\mbedtls_open\library/x509.c ****                 MBEDTLS_ERR_ASN1_OUT_OF_DATA );
 161:Source\mbedtls_open\library/x509.c **** 
 162:Source\mbedtls_open\library/x509.c ****     /* Parse md_oid */
 163:Source\mbedtls_open\library/x509.c ****     md_oid.tag = *p;
 164:Source\mbedtls_open\library/x509.c **** 
 165:Source\mbedtls_open\library/x509.c ****     if( ( ret = mbedtls_asn1_get_tag( &p, end, &md_oid.len, MBEDTLS_ASN1_OID ) ) != 0 )
 166:Source\mbedtls_open\library/x509.c ****         return( MBEDTLS_ERR_X509_INVALID_ALG + ret );
 167:Source\mbedtls_open\library/x509.c **** 
 168:Source\mbedtls_open\library/x509.c ****     md_oid.p = p;
 169:Source\mbedtls_open\library/x509.c ****     p += md_oid.len;
 170:Source\mbedtls_open\library/x509.c **** 
 171:Source\mbedtls_open\library/x509.c ****     /* Get md_alg from md_oid */
 172:Source\mbedtls_open\library/x509.c ****     if( ( ret = mbedtls_oid_get_md_alg( &md_oid, md_alg ) ) != 0 )
 173:Source\mbedtls_open\library/x509.c ****         return( MBEDTLS_ERR_X509_INVALID_ALG + ret );
 174:Source\mbedtls_open\library/x509.c **** 
 175:Source\mbedtls_open\library/x509.c ****     /* Make sure params is absent of NULL */
 176:Source\mbedtls_open\library/x509.c ****     if( p == end )
 177:Source\mbedtls_open\library/x509.c ****         return( 0 );
 178:Source\mbedtls_open\library/x509.c **** 
 179:Source\mbedtls_open\library/x509.c ****     if( ( ret = mbedtls_asn1_get_tag( &p, end, &len, MBEDTLS_ASN1_NULL ) ) != 0 || len != 0 )
 180:Source\mbedtls_open\library/x509.c ****         return( MBEDTLS_ERR_X509_INVALID_ALG + ret );
 181:Source\mbedtls_open\library/x509.c **** 
 182:Source\mbedtls_open\library/x509.c ****     if( p != end )
 183:Source\mbedtls_open\library/x509.c ****         return( MBEDTLS_ERR_X509_INVALID_ALG +
 184:Source\mbedtls_open\library/x509.c ****                 MBEDTLS_ERR_ASN1_LENGTH_MISMATCH );
 185:Source\mbedtls_open\library/x509.c **** 
 186:Source\mbedtls_open\library/x509.c ****     return( 0 );
 187:Source\mbedtls_open\library/x509.c **** }
 188:Source\mbedtls_open\library/x509.c **** 
 189:Source\mbedtls_open\library/x509.c **** /*
 190:Source\mbedtls_open\library/x509.c ****  *    RSASSA-PSS-params  ::=  SEQUENCE  {
 191:Source\mbedtls_open\library/x509.c ****  *       hashAlgorithm     [0] HashAlgorithm DEFAULT sha1Identifier,
 192:Source\mbedtls_open\library/x509.c ****  *       maskGenAlgorithm  [1] MaskGenAlgorithm DEFAULT mgf1SHA1Identifier,
 193:Source\mbedtls_open\library/x509.c ****  *       saltLength        [2] INTEGER DEFAULT 20,
 194:Source\mbedtls_open\library/x509.c ****  *       trailerField      [3] INTEGER DEFAULT 1  }
 195:Source\mbedtls_open\library/x509.c ****  *    -- Note that the tags in this Sequence are explicit.
 196:Source\mbedtls_open\library/x509.c ****  *
 197:Source\mbedtls_open\library/x509.c ****  * RFC 4055 (which defines use of RSASSA-PSS in PKIX) states that the value
 198:Source\mbedtls_open\library/x509.c ****  * of trailerField MUST be 1, and PKCS#1 v2.2 doesn't even define any other
 199:Source\mbedtls_open\library/x509.c ****  * option. Enfore this at parsing time.
 200:Source\mbedtls_open\library/x509.c ****  */
 201:Source\mbedtls_open\library/x509.c **** int mbedtls_x509_get_rsassa_pss_params( const mbedtls_x509_buf *params,
 202:Source\mbedtls_open\library/x509.c ****                                 mbedtls_md_type_t *md_alg, mbedtls_md_type_t *mgf_md,
ARM GAS  C:\Users\Phuong\AppData\Local\Temp\cciPItDa.s 			page 5


 203:Source\mbedtls_open\library/x509.c ****                                 int *salt_len )
 204:Source\mbedtls_open\library/x509.c **** {
 205:Source\mbedtls_open\library/x509.c ****     int ret;
 206:Source\mbedtls_open\library/x509.c ****     unsigned char *p;
 207:Source\mbedtls_open\library/x509.c ****     const unsigned char *end, *end2;
 208:Source\mbedtls_open\library/x509.c ****     size_t len;
 209:Source\mbedtls_open\library/x509.c ****     mbedtls_x509_buf alg_id, alg_params;
 210:Source\mbedtls_open\library/x509.c **** 
 211:Source\mbedtls_open\library/x509.c ****     /* First set everything to defaults */
 212:Source\mbedtls_open\library/x509.c ****     *md_alg = MBEDTLS_MD_SHA1;
 213:Source\mbedtls_open\library/x509.c ****     *mgf_md = MBEDTLS_MD_SHA1;
 214:Source\mbedtls_open\library/x509.c ****     *salt_len = 20;
 215:Source\mbedtls_open\library/x509.c **** 
 216:Source\mbedtls_open\library/x509.c ****     /* Make sure params is a SEQUENCE and setup bounds */
 217:Source\mbedtls_open\library/x509.c ****     if( params->tag != ( MBEDTLS_ASN1_CONSTRUCTED | MBEDTLS_ASN1_SEQUENCE ) )
 218:Source\mbedtls_open\library/x509.c ****         return( MBEDTLS_ERR_X509_INVALID_ALG +
 219:Source\mbedtls_open\library/x509.c ****                 MBEDTLS_ERR_ASN1_UNEXPECTED_TAG );
 220:Source\mbedtls_open\library/x509.c **** 
 221:Source\mbedtls_open\library/x509.c ****     p = (unsigned char *) params->p;
 222:Source\mbedtls_open\library/x509.c ****     end = p + params->len;
 223:Source\mbedtls_open\library/x509.c **** 
 224:Source\mbedtls_open\library/x509.c ****     if( p == end )
 225:Source\mbedtls_open\library/x509.c ****         return( 0 );
 226:Source\mbedtls_open\library/x509.c **** 
 227:Source\mbedtls_open\library/x509.c ****     /*
 228:Source\mbedtls_open\library/x509.c ****      * HashAlgorithm
 229:Source\mbedtls_open\library/x509.c ****      */
 230:Source\mbedtls_open\library/x509.c ****     if( ( ret = mbedtls_asn1_get_tag( &p, end, &len,
 231:Source\mbedtls_open\library/x509.c ****                     MBEDTLS_ASN1_CONTEXT_SPECIFIC | MBEDTLS_ASN1_CONSTRUCTED | 0 ) ) == 0 )
 232:Source\mbedtls_open\library/x509.c ****     {
 233:Source\mbedtls_open\library/x509.c ****         end2 = p + len;
 234:Source\mbedtls_open\library/x509.c **** 
 235:Source\mbedtls_open\library/x509.c ****         /* HashAlgorithm ::= AlgorithmIdentifier (without parameters) */
 236:Source\mbedtls_open\library/x509.c ****         if( ( ret = mbedtls_x509_get_alg_null( &p, end2, &alg_id ) ) != 0 )
 237:Source\mbedtls_open\library/x509.c ****             return( ret );
 238:Source\mbedtls_open\library/x509.c **** 
 239:Source\mbedtls_open\library/x509.c ****         if( ( ret = mbedtls_oid_get_md_alg( &alg_id, md_alg ) ) != 0 )
 240:Source\mbedtls_open\library/x509.c ****             return( MBEDTLS_ERR_X509_INVALID_ALG + ret );
 241:Source\mbedtls_open\library/x509.c **** 
 242:Source\mbedtls_open\library/x509.c ****         if( p != end2 )
 243:Source\mbedtls_open\library/x509.c ****             return( MBEDTLS_ERR_X509_INVALID_ALG +
 244:Source\mbedtls_open\library/x509.c ****                     MBEDTLS_ERR_ASN1_LENGTH_MISMATCH );
 245:Source\mbedtls_open\library/x509.c ****     }
 246:Source\mbedtls_open\library/x509.c ****     else if( ret != MBEDTLS_ERR_ASN1_UNEXPECTED_TAG )
 247:Source\mbedtls_open\library/x509.c ****         return( MBEDTLS_ERR_X509_INVALID_ALG + ret );
 248:Source\mbedtls_open\library/x509.c **** 
 249:Source\mbedtls_open\library/x509.c ****     if( p == end )
 250:Source\mbedtls_open\library/x509.c ****         return( 0 );
 251:Source\mbedtls_open\library/x509.c **** 
 252:Source\mbedtls_open\library/x509.c ****     /*
 253:Source\mbedtls_open\library/x509.c ****      * MaskGenAlgorithm
 254:Source\mbedtls_open\library/x509.c ****      */
 255:Source\mbedtls_open\library/x509.c ****     if( ( ret = mbedtls_asn1_get_tag( &p, end, &len,
 256:Source\mbedtls_open\library/x509.c ****                     MBEDTLS_ASN1_CONTEXT_SPECIFIC | MBEDTLS_ASN1_CONSTRUCTED | 1 ) ) == 0 )
 257:Source\mbedtls_open\library/x509.c ****     {
 258:Source\mbedtls_open\library/x509.c ****         end2 = p + len;
 259:Source\mbedtls_open\library/x509.c **** 
ARM GAS  C:\Users\Phuong\AppData\Local\Temp\cciPItDa.s 			page 6


 260:Source\mbedtls_open\library/x509.c ****         /* MaskGenAlgorithm ::= AlgorithmIdentifier (params = HashAlgorithm) */
 261:Source\mbedtls_open\library/x509.c ****         if( ( ret = mbedtls_x509_get_alg( &p, end2, &alg_id, &alg_params ) ) != 0 )
 262:Source\mbedtls_open\library/x509.c ****             return( ret );
 263:Source\mbedtls_open\library/x509.c **** 
 264:Source\mbedtls_open\library/x509.c ****         /* Only MFG1 is recognised for now */
 265:Source\mbedtls_open\library/x509.c ****         if( MBEDTLS_OID_CMP( MBEDTLS_OID_MGF1, &alg_id ) != 0 )
 266:Source\mbedtls_open\library/x509.c ****             return( MBEDTLS_ERR_X509_FEATURE_UNAVAILABLE +
 267:Source\mbedtls_open\library/x509.c ****                     MBEDTLS_ERR_OID_NOT_FOUND );
 268:Source\mbedtls_open\library/x509.c **** 
 269:Source\mbedtls_open\library/x509.c ****         /* Parse HashAlgorithm */
 270:Source\mbedtls_open\library/x509.c ****         if( ( ret = x509_get_hash_alg( &alg_params, mgf_md ) ) != 0 )
 271:Source\mbedtls_open\library/x509.c ****             return( ret );
 272:Source\mbedtls_open\library/x509.c **** 
 273:Source\mbedtls_open\library/x509.c ****         if( p != end2 )
 274:Source\mbedtls_open\library/x509.c ****             return( MBEDTLS_ERR_X509_INVALID_ALG +
 275:Source\mbedtls_open\library/x509.c ****                     MBEDTLS_ERR_ASN1_LENGTH_MISMATCH );
 276:Source\mbedtls_open\library/x509.c ****     }
 277:Source\mbedtls_open\library/x509.c ****     else if( ret != MBEDTLS_ERR_ASN1_UNEXPECTED_TAG )
 278:Source\mbedtls_open\library/x509.c ****         return( MBEDTLS_ERR_X509_INVALID_ALG + ret );
 279:Source\mbedtls_open\library/x509.c **** 
 280:Source\mbedtls_open\library/x509.c ****     if( p == end )
 281:Source\mbedtls_open\library/x509.c ****         return( 0 );
 282:Source\mbedtls_open\library/x509.c **** 
 283:Source\mbedtls_open\library/x509.c ****     /*
 284:Source\mbedtls_open\library/x509.c ****      * salt_len
 285:Source\mbedtls_open\library/x509.c ****      */
 286:Source\mbedtls_open\library/x509.c ****     if( ( ret = mbedtls_asn1_get_tag( &p, end, &len,
 287:Source\mbedtls_open\library/x509.c ****                     MBEDTLS_ASN1_CONTEXT_SPECIFIC | MBEDTLS_ASN1_CONSTRUCTED | 2 ) ) == 0 )
 288:Source\mbedtls_open\library/x509.c ****     {
 289:Source\mbedtls_open\library/x509.c ****         end2 = p + len;
 290:Source\mbedtls_open\library/x509.c **** 
 291:Source\mbedtls_open\library/x509.c ****         if( ( ret = mbedtls_asn1_get_int( &p, end2, salt_len ) ) != 0 )
 292:Source\mbedtls_open\library/x509.c ****             return( MBEDTLS_ERR_X509_INVALID_ALG + ret );
 293:Source\mbedtls_open\library/x509.c **** 
 294:Source\mbedtls_open\library/x509.c ****         if( p != end2 )
 295:Source\mbedtls_open\library/x509.c ****             return( MBEDTLS_ERR_X509_INVALID_ALG +
 296:Source\mbedtls_open\library/x509.c ****                     MBEDTLS_ERR_ASN1_LENGTH_MISMATCH );
 297:Source\mbedtls_open\library/x509.c ****     }
 298:Source\mbedtls_open\library/x509.c ****     else if( ret != MBEDTLS_ERR_ASN1_UNEXPECTED_TAG )
 299:Source\mbedtls_open\library/x509.c ****         return( MBEDTLS_ERR_X509_INVALID_ALG + ret );
 300:Source\mbedtls_open\library/x509.c **** 
 301:Source\mbedtls_open\library/x509.c ****     if( p == end )
 302:Source\mbedtls_open\library/x509.c ****         return( 0 );
 303:Source\mbedtls_open\library/x509.c **** 
 304:Source\mbedtls_open\library/x509.c ****     /*
 305:Source\mbedtls_open\library/x509.c ****      * trailer_field (if present, must be 1)
 306:Source\mbedtls_open\library/x509.c ****      */
 307:Source\mbedtls_open\library/x509.c ****     if( ( ret = mbedtls_asn1_get_tag( &p, end, &len,
 308:Source\mbedtls_open\library/x509.c ****                     MBEDTLS_ASN1_CONTEXT_SPECIFIC | MBEDTLS_ASN1_CONSTRUCTED | 3 ) ) == 0 )
 309:Source\mbedtls_open\library/x509.c ****     {
 310:Source\mbedtls_open\library/x509.c ****         int trailer_field;
 311:Source\mbedtls_open\library/x509.c **** 
 312:Source\mbedtls_open\library/x509.c ****         end2 = p + len;
 313:Source\mbedtls_open\library/x509.c **** 
 314:Source\mbedtls_open\library/x509.c ****         if( ( ret = mbedtls_asn1_get_int( &p, end2, &trailer_field ) ) != 0 )
 315:Source\mbedtls_open\library/x509.c ****             return( MBEDTLS_ERR_X509_INVALID_ALG + ret );
 316:Source\mbedtls_open\library/x509.c **** 
ARM GAS  C:\Users\Phuong\AppData\Local\Temp\cciPItDa.s 			page 7


 317:Source\mbedtls_open\library/x509.c ****         if( p != end2 )
 318:Source\mbedtls_open\library/x509.c ****             return( MBEDTLS_ERR_X509_INVALID_ALG +
 319:Source\mbedtls_open\library/x509.c ****                     MBEDTLS_ERR_ASN1_LENGTH_MISMATCH );
 320:Source\mbedtls_open\library/x509.c **** 
 321:Source\mbedtls_open\library/x509.c ****         if( trailer_field != 1 )
 322:Source\mbedtls_open\library/x509.c ****             return( MBEDTLS_ERR_X509_INVALID_ALG );
 323:Source\mbedtls_open\library/x509.c ****     }
 324:Source\mbedtls_open\library/x509.c ****     else if( ret != MBEDTLS_ERR_ASN1_UNEXPECTED_TAG )
 325:Source\mbedtls_open\library/x509.c ****         return( MBEDTLS_ERR_X509_INVALID_ALG + ret );
 326:Source\mbedtls_open\library/x509.c **** 
 327:Source\mbedtls_open\library/x509.c ****     if( p != end )
 328:Source\mbedtls_open\library/x509.c ****         return( MBEDTLS_ERR_X509_INVALID_ALG +
 329:Source\mbedtls_open\library/x509.c ****                 MBEDTLS_ERR_ASN1_LENGTH_MISMATCH );
 330:Source\mbedtls_open\library/x509.c **** 
 331:Source\mbedtls_open\library/x509.c ****     return( 0 );
 332:Source\mbedtls_open\library/x509.c **** }
 333:Source\mbedtls_open\library/x509.c **** #endif /* MBEDTLS_X509_RSASSA_PSS_SUPPORT */
 334:Source\mbedtls_open\library/x509.c **** 
 335:Source\mbedtls_open\library/x509.c **** /*
 336:Source\mbedtls_open\library/x509.c ****  *  AttributeTypeAndValue ::= SEQUENCE {
 337:Source\mbedtls_open\library/x509.c ****  *    type     AttributeType,
 338:Source\mbedtls_open\library/x509.c ****  *    value    AttributeValue }
 339:Source\mbedtls_open\library/x509.c ****  *
 340:Source\mbedtls_open\library/x509.c ****  *  AttributeType ::= OBJECT IDENTIFIER
 341:Source\mbedtls_open\library/x509.c ****  *
 342:Source\mbedtls_open\library/x509.c ****  *  AttributeValue ::= ANY DEFINED BY AttributeType
 343:Source\mbedtls_open\library/x509.c ****  */
 344:Source\mbedtls_open\library/x509.c **** static int x509_get_attr_type_value( unsigned char **p,
 345:Source\mbedtls_open\library/x509.c ****                                      const unsigned char *end,
 346:Source\mbedtls_open\library/x509.c ****                                      mbedtls_x509_name *cur )
 347:Source\mbedtls_open\library/x509.c **** {
 348:Source\mbedtls_open\library/x509.c ****     int ret;
 349:Source\mbedtls_open\library/x509.c ****     size_t len;
 350:Source\mbedtls_open\library/x509.c ****     mbedtls_x509_buf *oid;
 351:Source\mbedtls_open\library/x509.c ****     mbedtls_x509_buf *val;
 352:Source\mbedtls_open\library/x509.c **** 
 353:Source\mbedtls_open\library/x509.c ****     if( ( ret = mbedtls_asn1_get_tag( p, end, &len,
 354:Source\mbedtls_open\library/x509.c ****             MBEDTLS_ASN1_CONSTRUCTED | MBEDTLS_ASN1_SEQUENCE ) ) != 0 )
 355:Source\mbedtls_open\library/x509.c ****         return( MBEDTLS_ERR_X509_INVALID_NAME + ret );
 356:Source\mbedtls_open\library/x509.c **** 
 357:Source\mbedtls_open\library/x509.c ****     if( ( end - *p ) < 1 )
 358:Source\mbedtls_open\library/x509.c ****         return( MBEDTLS_ERR_X509_INVALID_NAME +
 359:Source\mbedtls_open\library/x509.c ****                 MBEDTLS_ERR_ASN1_OUT_OF_DATA );
 360:Source\mbedtls_open\library/x509.c **** 
 361:Source\mbedtls_open\library/x509.c ****     oid = &cur->oid;
 362:Source\mbedtls_open\library/x509.c ****     oid->tag = **p;
 363:Source\mbedtls_open\library/x509.c **** 
 364:Source\mbedtls_open\library/x509.c ****     if( ( ret = mbedtls_asn1_get_tag( p, end, &oid->len, MBEDTLS_ASN1_OID ) ) != 0 )
 365:Source\mbedtls_open\library/x509.c ****         return( MBEDTLS_ERR_X509_INVALID_NAME + ret );
 366:Source\mbedtls_open\library/x509.c **** 
 367:Source\mbedtls_open\library/x509.c ****     oid->p = *p;
 368:Source\mbedtls_open\library/x509.c ****     *p += oid->len;
 369:Source\mbedtls_open\library/x509.c **** 
 370:Source\mbedtls_open\library/x509.c ****     if( ( end - *p ) < 1 )
 371:Source\mbedtls_open\library/x509.c ****         return( MBEDTLS_ERR_X509_INVALID_NAME +
 372:Source\mbedtls_open\library/x509.c ****                 MBEDTLS_ERR_ASN1_OUT_OF_DATA );
 373:Source\mbedtls_open\library/x509.c **** 
ARM GAS  C:\Users\Phuong\AppData\Local\Temp\cciPItDa.s 			page 8


 374:Source\mbedtls_open\library/x509.c ****     if( **p != MBEDTLS_ASN1_BMP_STRING && **p != MBEDTLS_ASN1_UTF8_STRING      &&
 375:Source\mbedtls_open\library/x509.c ****         **p != MBEDTLS_ASN1_T61_STRING && **p != MBEDTLS_ASN1_PRINTABLE_STRING &&
 376:Source\mbedtls_open\library/x509.c ****         **p != MBEDTLS_ASN1_IA5_STRING && **p != MBEDTLS_ASN1_UNIVERSAL_STRING &&
 377:Source\mbedtls_open\library/x509.c ****         **p != MBEDTLS_ASN1_BIT_STRING )
 378:Source\mbedtls_open\library/x509.c ****         return( MBEDTLS_ERR_X509_INVALID_NAME +
 379:Source\mbedtls_open\library/x509.c ****                 MBEDTLS_ERR_ASN1_UNEXPECTED_TAG );
 380:Source\mbedtls_open\library/x509.c **** 
 381:Source\mbedtls_open\library/x509.c ****     val = &cur->val;
 382:Source\mbedtls_open\library/x509.c ****     val->tag = *(*p)++;
 383:Source\mbedtls_open\library/x509.c **** 
 384:Source\mbedtls_open\library/x509.c ****     if( ( ret = mbedtls_asn1_get_len( p, end, &val->len ) ) != 0 )
 385:Source\mbedtls_open\library/x509.c ****         return( MBEDTLS_ERR_X509_INVALID_NAME + ret );
 386:Source\mbedtls_open\library/x509.c **** 
 387:Source\mbedtls_open\library/x509.c ****     val->p = *p;
 388:Source\mbedtls_open\library/x509.c ****     *p += val->len;
 389:Source\mbedtls_open\library/x509.c **** 
 390:Source\mbedtls_open\library/x509.c ****     cur->next = NULL;
 391:Source\mbedtls_open\library/x509.c **** 
 392:Source\mbedtls_open\library/x509.c ****     return( 0 );
 393:Source\mbedtls_open\library/x509.c **** }
 394:Source\mbedtls_open\library/x509.c **** 
 395:Source\mbedtls_open\library/x509.c **** /*
 396:Source\mbedtls_open\library/x509.c ****  *  Name ::= CHOICE { -- only one possibility for now --
 397:Source\mbedtls_open\library/x509.c ****  *       rdnSequence  RDNSequence }
 398:Source\mbedtls_open\library/x509.c ****  *
 399:Source\mbedtls_open\library/x509.c ****  *  RDNSequence ::= SEQUENCE OF RelativeDistinguishedName
 400:Source\mbedtls_open\library/x509.c ****  *
 401:Source\mbedtls_open\library/x509.c ****  *  RelativeDistinguishedName ::=
 402:Source\mbedtls_open\library/x509.c ****  *    SET OF AttributeTypeAndValue
 403:Source\mbedtls_open\library/x509.c ****  *
 404:Source\mbedtls_open\library/x509.c ****  *  AttributeTypeAndValue ::= SEQUENCE {
 405:Source\mbedtls_open\library/x509.c ****  *    type     AttributeType,
 406:Source\mbedtls_open\library/x509.c ****  *    value    AttributeValue }
 407:Source\mbedtls_open\library/x509.c ****  *
 408:Source\mbedtls_open\library/x509.c ****  *  AttributeType ::= OBJECT IDENTIFIER
 409:Source\mbedtls_open\library/x509.c ****  *
 410:Source\mbedtls_open\library/x509.c ****  *  AttributeValue ::= ANY DEFINED BY AttributeType
 411:Source\mbedtls_open\library/x509.c ****  *
 412:Source\mbedtls_open\library/x509.c ****  * The data structure is optimized for the common case where each RDN has only
 413:Source\mbedtls_open\library/x509.c ****  * one element, which is represented as a list of AttributeTypeAndValue.
 414:Source\mbedtls_open\library/x509.c ****  * For the general case we still use a flat list, but we mark elements of the
 415:Source\mbedtls_open\library/x509.c ****  * same set so that they are "merged" together in the functions that consume
 416:Source\mbedtls_open\library/x509.c ****  * this list, eg mbedtls_x509_dn_gets().
 417:Source\mbedtls_open\library/x509.c ****  */
 418:Source\mbedtls_open\library/x509.c **** int mbedtls_x509_get_name( unsigned char **p, const unsigned char *end,
 419:Source\mbedtls_open\library/x509.c ****                    mbedtls_x509_name *cur )
 420:Source\mbedtls_open\library/x509.c **** {
 421:Source\mbedtls_open\library/x509.c ****     int ret;
 422:Source\mbedtls_open\library/x509.c ****     size_t set_len;
 423:Source\mbedtls_open\library/x509.c ****     const unsigned char *end_set;
 424:Source\mbedtls_open\library/x509.c **** 
 425:Source\mbedtls_open\library/x509.c ****     /* don't use recursion, we'd risk stack overflow if not optimized */
 426:Source\mbedtls_open\library/x509.c ****     while( 1 )
 427:Source\mbedtls_open\library/x509.c ****     {
 428:Source\mbedtls_open\library/x509.c ****         /*
 429:Source\mbedtls_open\library/x509.c ****          * parse SET
 430:Source\mbedtls_open\library/x509.c ****          */
ARM GAS  C:\Users\Phuong\AppData\Local\Temp\cciPItDa.s 			page 9


 431:Source\mbedtls_open\library/x509.c ****         if( ( ret = mbedtls_asn1_get_tag( p, end, &set_len,
 432:Source\mbedtls_open\library/x509.c ****                 MBEDTLS_ASN1_CONSTRUCTED | MBEDTLS_ASN1_SET ) ) != 0 )
 433:Source\mbedtls_open\library/x509.c ****             return( MBEDTLS_ERR_X509_INVALID_NAME + ret );
 434:Source\mbedtls_open\library/x509.c **** 
 435:Source\mbedtls_open\library/x509.c ****         end_set  = *p + set_len;
 436:Source\mbedtls_open\library/x509.c **** 
 437:Source\mbedtls_open\library/x509.c ****         while( 1 )
 438:Source\mbedtls_open\library/x509.c ****         {
 439:Source\mbedtls_open\library/x509.c ****             if( ( ret = x509_get_attr_type_value( p, end_set, cur ) ) != 0 )
 440:Source\mbedtls_open\library/x509.c ****                 return( ret );
 441:Source\mbedtls_open\library/x509.c **** 
 442:Source\mbedtls_open\library/x509.c ****             if( *p == end_set )
 443:Source\mbedtls_open\library/x509.c ****                 break;
 444:Source\mbedtls_open\library/x509.c **** 
 445:Source\mbedtls_open\library/x509.c ****             /* Mark this item as being no the only one in a set */
 446:Source\mbedtls_open\library/x509.c ****             cur->next_merged = 1;
 447:Source\mbedtls_open\library/x509.c **** 
 448:Source\mbedtls_open\library/x509.c ****             cur->next = mbedtls_calloc( 1, sizeof( mbedtls_x509_name ) );
 449:Source\mbedtls_open\library/x509.c **** 
 450:Source\mbedtls_open\library/x509.c ****             if( cur->next == NULL )
 451:Source\mbedtls_open\library/x509.c ****                 return( MBEDTLS_ERR_X509_ALLOC_FAILED );
 452:Source\mbedtls_open\library/x509.c **** 
 453:Source\mbedtls_open\library/x509.c ****             cur = cur->next;
 454:Source\mbedtls_open\library/x509.c ****         }
 455:Source\mbedtls_open\library/x509.c **** 
 456:Source\mbedtls_open\library/x509.c ****         /*
 457:Source\mbedtls_open\library/x509.c ****          * continue until end of SEQUENCE is reached
 458:Source\mbedtls_open\library/x509.c ****          */
 459:Source\mbedtls_open\library/x509.c ****         if( *p == end )
 460:Source\mbedtls_open\library/x509.c ****             return( 0 );
 461:Source\mbedtls_open\library/x509.c **** 
 462:Source\mbedtls_open\library/x509.c ****         cur->next = mbedtls_calloc( 1, sizeof( mbedtls_x509_name ) );
 463:Source\mbedtls_open\library/x509.c **** 
 464:Source\mbedtls_open\library/x509.c ****         if( cur->next == NULL )
 465:Source\mbedtls_open\library/x509.c ****             return( MBEDTLS_ERR_X509_ALLOC_FAILED );
 466:Source\mbedtls_open\library/x509.c **** 
 467:Source\mbedtls_open\library/x509.c ****         cur = cur->next;
 468:Source\mbedtls_open\library/x509.c ****     }
 469:Source\mbedtls_open\library/x509.c **** }
 470:Source\mbedtls_open\library/x509.c **** 
 471:Source\mbedtls_open\library/x509.c **** static int x509_parse_int( unsigned char **p, size_t n, int *res )
 472:Source\mbedtls_open\library/x509.c **** {
  27              		.loc 1 472 0
  28              		.cfi_startproc
  29              		@ args = 0, pretend = 0, frame = 0
  30              		@ frame_needed = 0, uses_anonymous_args = 0
  31              	.LVL0:
  32 0000 10B5     		push	{r4, lr}
  33              		.cfi_def_cfa_offset 8
  34              		.cfi_offset 4, -8
  35              		.cfi_offset 14, -4
 473:Source\mbedtls_open\library/x509.c ****     *res = 0;
  36              		.loc 1 473 0
  37 0002 0023     		movs	r3, #0
  38 0004 1360     		str	r3, [r2]
 474:Source\mbedtls_open\library/x509.c **** 
 475:Source\mbedtls_open\library/x509.c ****     for( ; n > 0; --n )
ARM GAS  C:\Users\Phuong\AppData\Local\Temp\cciPItDa.s 			page 10


  39              		.loc 1 475 0
  40 0006 14E0     		b	.L2
  41              	.L4:
 476:Source\mbedtls_open\library/x509.c ****     {
 477:Source\mbedtls_open\library/x509.c ****         if( ( **p < '0') || ( **p > '9' ) )
  42              		.loc 1 477 0
  43 0008 0368     		ldr	r3, [r0]
  44 000a 1B78     		ldrb	r3, [r3]
  45 000c 303B     		subs	r3, r3, #48
  46 000e DBB2     		uxtb	r3, r3
  47 0010 092B     		cmp	r3, #9
  48 0012 12D8     		bhi	.L5
 478:Source\mbedtls_open\library/x509.c ****             return ( MBEDTLS_ERR_X509_INVALID_DATE );
 479:Source\mbedtls_open\library/x509.c **** 
 480:Source\mbedtls_open\library/x509.c ****         *res *= 10;
  49              		.loc 1 480 0
  50 0014 1368     		ldr	r3, [r2]
  51 0016 9C00     		lsls	r4, r3, #2
  52 0018 E318     		adds	r3, r4, r3
  53 001a 5C00     		lsls	r4, r3, #1
  54 001c 1460     		str	r4, [r2]
 481:Source\mbedtls_open\library/x509.c ****         *res += ( *(*p)++ - '0' );
  55              		.loc 1 481 0
  56 001e 0368     		ldr	r3, [r0]
  57 0020 5C1C     		adds	r4, r3, #1
  58 0022 0460     		str	r4, [r0]
  59 0024 1B78     		ldrb	r3, [r3]
  60 0026 303B     		subs	r3, r3, #48
  61 0028 1468     		ldr	r4, [r2]
  62 002a A446     		mov	ip, r4
  63 002c 6344     		add	r3, r3, ip
  64 002e 1360     		str	r3, [r2]
 475:Source\mbedtls_open\library/x509.c ****     {
  65              		.loc 1 475 0
  66 0030 0139     		subs	r1, r1, #1
  67              	.LVL1:
  68              	.L2:
 475:Source\mbedtls_open\library/x509.c ****     {
  69              		.loc 1 475 0 is_stmt 0 discriminator 1
  70 0032 0029     		cmp	r1, #0
  71 0034 E8D1     		bne	.L4
 482:Source\mbedtls_open\library/x509.c ****     }
 483:Source\mbedtls_open\library/x509.c **** 
 484:Source\mbedtls_open\library/x509.c ****     return( 0 );
  72              		.loc 1 484 0 is_stmt 1
  73 0036 0020     		movs	r0, #0
  74              	.LVL2:
  75 0038 00E0     		b	.L3
  76              	.LVL3:
  77              	.L5:
 478:Source\mbedtls_open\library/x509.c **** 
  78              		.loc 1 478 0
  79 003a 0148     		ldr	r0, .L6
  80              	.LVL4:
  81              	.L3:
 485:Source\mbedtls_open\library/x509.c **** }
  82              		.loc 1 485 0
ARM GAS  C:\Users\Phuong\AppData\Local\Temp\cciPItDa.s 			page 11


  83              		@ sp needed
  84 003c 10BD     		pop	{r4, pc}
  85              	.L7:
  86 003e C046     		.align	2
  87              	.L6:
  88 0040 00DCFFFF 		.word	-9216
  89              		.cfi_endproc
  90              	.LFE18:
  91              		.size	x509_parse_int, .-x509_parse_int
  92              		.global	__aeabi_idivmod
  93              		.section	.text.x509_date_is_valid,"ax",%progbits
  94              		.align	2
  95              		.code	16
  96              		.thumb_func
  97              		.type	x509_date_is_valid, %function
  98              	x509_date_is_valid:
  99              	.LFB19:
 486:Source\mbedtls_open\library/x509.c **** 
 487:Source\mbedtls_open\library/x509.c **** static int x509_date_is_valid(const mbedtls_x509_time *t )
 488:Source\mbedtls_open\library/x509.c **** {
 100              		.loc 1 488 0
 101              		.cfi_startproc
 102              		@ args = 0, pretend = 0, frame = 0
 103              		@ frame_needed = 0, uses_anonymous_args = 0
 104              	.LVL5:
 105 0000 70B5     		push	{r4, r5, r6, lr}
 106              		.cfi_def_cfa_offset 16
 107              		.cfi_offset 4, -16
 108              		.cfi_offset 5, -12
 109              		.cfi_offset 6, -8
 110              		.cfi_offset 14, -4
 111 0002 0400     		movs	r4, r0
 112              	.LVL6:
 489:Source\mbedtls_open\library/x509.c ****     int ret = MBEDTLS_ERR_X509_INVALID_DATE;
 490:Source\mbedtls_open\library/x509.c ****     int month_len;
 491:Source\mbedtls_open\library/x509.c **** 
 492:Source\mbedtls_open\library/x509.c ****     CHECK_RANGE( 0, 9999, t->year );
 113              		.loc 1 492 0
 114 0004 0568     		ldr	r5, [r0]
 115 0006 204B     		ldr	r3, .L25
 116 0008 9D42     		cmp	r5, r3
 117 000a 2ED8     		bhi	.L15
 493:Source\mbedtls_open\library/x509.c ****     CHECK_RANGE( 0, 23,   t->hour );
 118              		.loc 1 493 0
 119 000c C368     		ldr	r3, [r0, #12]
 120 000e 172B     		cmp	r3, #23
 121 0010 2DD8     		bhi	.L16
 494:Source\mbedtls_open\library/x509.c ****     CHECK_RANGE( 0, 59,   t->min  );
 122              		.loc 1 494 0
 123 0012 0369     		ldr	r3, [r0, #16]
 124 0014 3B2B     		cmp	r3, #59
 125 0016 2CD8     		bhi	.L17
 495:Source\mbedtls_open\library/x509.c ****     CHECK_RANGE( 0, 59,   t->sec  );
 126              		.loc 1 495 0
 127 0018 4369     		ldr	r3, [r0, #20]
 128 001a 3B2B     		cmp	r3, #59
 129 001c 2BD8     		bhi	.L18
ARM GAS  C:\Users\Phuong\AppData\Local\Temp\cciPItDa.s 			page 12


 496:Source\mbedtls_open\library/x509.c **** 
 497:Source\mbedtls_open\library/x509.c ****     switch( t->mon )
 130              		.loc 1 497 0
 131 001e 4368     		ldr	r3, [r0, #4]
 132 0020 0C2B     		cmp	r3, #12
 133 0022 2AD8     		bhi	.L19
 134 0024 9B00     		lsls	r3, r3, #2
 135 0026 194A     		ldr	r2, .L25+4
 136 0028 D358     		ldr	r3, [r2, r3]
 137 002a 9F46     		mov	pc, r3
 138              		.section	.rodata
 139              		.align	2
 140              	.L11:
 141 0000 7A000000 		.word	.L19
 142 0004 2C000000 		.word	.L10
 143 0008 30000000 		.word	.L12
 144 000c 2C000000 		.word	.L10
 145 0010 52000000 		.word	.L20
 146 0014 2C000000 		.word	.L10
 147 0018 52000000 		.word	.L20
 148 001c 2C000000 		.word	.L10
 149 0020 2C000000 		.word	.L10
 150 0024 52000000 		.word	.L20
 151 0028 2C000000 		.word	.L10
 152 002c 52000000 		.word	.L20
 153 0030 2C000000 		.word	.L10
 154              		.section	.text.x509_date_is_valid
 155              	.L10:
 498:Source\mbedtls_open\library/x509.c ****     {
 499:Source\mbedtls_open\library/x509.c ****         case 1: case 3: case 5: case 7: case 8: case 10: case 12:
 500:Source\mbedtls_open\library/x509.c ****             month_len = 31;
 156              		.loc 1 500 0
 157 002c 1F22     		movs	r2, #31
 158 002e 15E0     		b	.L13
 159              	.L12:
 501:Source\mbedtls_open\library/x509.c ****             break;
 502:Source\mbedtls_open\library/x509.c ****         case 4: case 6: case 9: case 11:
 503:Source\mbedtls_open\library/x509.c ****             month_len = 30;
 504:Source\mbedtls_open\library/x509.c ****             break;
 505:Source\mbedtls_open\library/x509.c ****         case 2:
 506:Source\mbedtls_open\library/x509.c ****             if( ( !( t->year % 4 ) && t->year % 100 ) ||
 160              		.loc 1 506 0
 161 0030 AB07     		lsls	r3, r5, #30
 162 0032 05D1     		bne	.L14
 163              		.loc 1 506 0 is_stmt 0 discriminator 1
 164 0034 6421     		movs	r1, #100
 165 0036 2800     		movs	r0, r5
 166              	.LVL7:
 167 0038 FFF7FEFF 		bl	__aeabi_idivmod
 168              	.LVL8:
 169 003c 0029     		cmp	r1, #0
 170 003e 0AD1     		bne	.L21
 171              	.L14:
 507:Source\mbedtls_open\library/x509.c ****                 !( t->year % 400 ) )
 172              		.loc 1 507 0 is_stmt 1 discriminator 3
 173 0040 C821     		movs	r1, #200
 174 0042 4900     		lsls	r1, r1, #1
ARM GAS  C:\Users\Phuong\AppData\Local\Temp\cciPItDa.s 			page 13


 175 0044 2800     		movs	r0, r5
 176 0046 FFF7FEFF 		bl	__aeabi_idivmod
 177              	.LVL9:
 506:Source\mbedtls_open\library/x509.c ****                 !( t->year % 400 ) )
 178              		.loc 1 506 0 discriminator 3
 179 004a 0029     		cmp	r1, #0
 180 004c 05D1     		bne	.L22
 508:Source\mbedtls_open\library/x509.c ****                 month_len = 29;
 181              		.loc 1 508 0
 182 004e 1D22     		movs	r2, #29
 183 0050 04E0     		b	.L13
 184              	.LVL10:
 185              	.L20:
 503:Source\mbedtls_open\library/x509.c ****             break;
 186              		.loc 1 503 0
 187 0052 1E22     		movs	r2, #30
 188 0054 02E0     		b	.L13
 189              	.LVL11:
 190              	.L21:
 191              		.loc 1 508 0
 192 0056 1D22     		movs	r2, #29
 193 0058 00E0     		b	.L13
 194              	.L22:
 509:Source\mbedtls_open\library/x509.c ****             else
 510:Source\mbedtls_open\library/x509.c ****                 month_len = 28;
 195              		.loc 1 510 0
 196 005a 1C22     		movs	r2, #28
 197              	.L13:
 198              	.LVL12:
 511:Source\mbedtls_open\library/x509.c ****             break;
 512:Source\mbedtls_open\library/x509.c ****         default:
 513:Source\mbedtls_open\library/x509.c ****             return( ret );
 514:Source\mbedtls_open\library/x509.c ****     }
 515:Source\mbedtls_open\library/x509.c ****     CHECK_RANGE( 1, month_len, t->day );
 199              		.loc 1 515 0
 200 005c A368     		ldr	r3, [r4, #8]
 201 005e 002B     		cmp	r3, #0
 202 0060 0DDD     		ble	.L23
 203              		.loc 1 515 0 is_stmt 0 discriminator 2
 204 0062 9A42     		cmp	r2, r3
 205 0064 0DDA     		bge	.L24
 206              		.loc 1 515 0
 207 0066 0A48     		ldr	r0, .L25+8
 208 0068 0CE0     		b	.L9
 209              	.LVL13:
 210              	.L15:
 492:Source\mbedtls_open\library/x509.c ****     CHECK_RANGE( 0, 23,   t->hour );
 211              		.loc 1 492 0 is_stmt 1
 212 006a 0948     		ldr	r0, .L25+8
 213              	.LVL14:
 214 006c 0AE0     		b	.L9
 215              	.LVL15:
 216              	.L16:
 493:Source\mbedtls_open\library/x509.c ****     CHECK_RANGE( 0, 59,   t->min  );
 217              		.loc 1 493 0
 218 006e 0848     		ldr	r0, .L25+8
 219              	.LVL16:
ARM GAS  C:\Users\Phuong\AppData\Local\Temp\cciPItDa.s 			page 14


 220 0070 08E0     		b	.L9
 221              	.LVL17:
 222              	.L17:
 494:Source\mbedtls_open\library/x509.c ****     CHECK_RANGE( 0, 59,   t->sec  );
 223              		.loc 1 494 0
 224 0072 0748     		ldr	r0, .L25+8
 225              	.LVL18:
 226 0074 06E0     		b	.L9
 227              	.LVL19:
 228              	.L18:
 495:Source\mbedtls_open\library/x509.c **** 
 229              		.loc 1 495 0
 230 0076 0648     		ldr	r0, .L25+8
 231              	.LVL20:
 232 0078 04E0     		b	.L9
 233              	.LVL21:
 234              	.L19:
 513:Source\mbedtls_open\library/x509.c ****     }
 235              		.loc 1 513 0
 236 007a 0548     		ldr	r0, .L25+8
 237              	.LVL22:
 238 007c 02E0     		b	.L9
 239              	.LVL23:
 240              	.L23:
 241              		.loc 1 515 0
 242 007e 0448     		ldr	r0, .L25+8
 243 0080 00E0     		b	.L9
 244              	.L24:
 516:Source\mbedtls_open\library/x509.c **** 
 517:Source\mbedtls_open\library/x509.c ****     return( 0 );
 245              		.loc 1 517 0
 246 0082 0020     		movs	r0, #0
 247              	.LVL24:
 248              	.L9:
 518:Source\mbedtls_open\library/x509.c **** }
 249              		.loc 1 518 0
 250              		@ sp needed
 251              	.LVL25:
 252 0084 70BD     		pop	{r4, r5, r6, pc}
 253              	.L26:
 254 0086 C046     		.align	2
 255              	.L25:
 256 0088 0F270000 		.word	9999
 257 008c 00000000 		.word	.L11
 258 0090 00DCFFFF 		.word	-9216
 259              		.cfi_endproc
 260              	.LFE19:
 261              		.size	x509_date_is_valid, .-x509_date_is_valid
 262              		.section	.text.x509_parse_time,"ax",%progbits
 263              		.align	2
 264              		.code	16
 265              		.thumb_func
 266              		.type	x509_parse_time, %function
 267              	x509_parse_time:
 268              	.LFB20:
 519:Source\mbedtls_open\library/x509.c **** 
 520:Source\mbedtls_open\library/x509.c **** /*
ARM GAS  C:\Users\Phuong\AppData\Local\Temp\cciPItDa.s 			page 15


 521:Source\mbedtls_open\library/x509.c ****  * Parse an ASN1_UTC_TIME (yearlen=2) or ASN1_GENERALIZED_TIME (yearlen=4)
 522:Source\mbedtls_open\library/x509.c ****  * field.
 523:Source\mbedtls_open\library/x509.c ****  */
 524:Source\mbedtls_open\library/x509.c **** static int x509_parse_time( unsigned char **p, size_t len, size_t yearlen,
 525:Source\mbedtls_open\library/x509.c ****                             mbedtls_x509_time *tm )
 526:Source\mbedtls_open\library/x509.c **** {
 269              		.loc 1 526 0
 270              		.cfi_startproc
 271              		@ args = 0, pretend = 0, frame = 8
 272              		@ frame_needed = 0, uses_anonymous_args = 0
 273              	.LVL26:
 274 0000 F0B5     		push	{r4, r5, r6, r7, lr}
 275              		.cfi_def_cfa_offset 20
 276              		.cfi_offset 4, -20
 277              		.cfi_offset 5, -16
 278              		.cfi_offset 6, -12
 279              		.cfi_offset 7, -8
 280              		.cfi_offset 14, -4
 281 0002 83B0     		sub	sp, sp, #12
 282              		.cfi_def_cfa_offset 32
 283 0004 0190     		str	r0, [sp, #4]
 284 0006 1400     		movs	r4, r2
 285 0008 1E00     		movs	r6, r3
 527:Source\mbedtls_open\library/x509.c ****     int ret;
 528:Source\mbedtls_open\library/x509.c **** 
 529:Source\mbedtls_open\library/x509.c ****     /*
 530:Source\mbedtls_open\library/x509.c ****      * Minimum length is 10 or 12 depending on yearlen
 531:Source\mbedtls_open\library/x509.c ****      */
 532:Source\mbedtls_open\library/x509.c ****     if ( len < yearlen + 8 )
 286              		.loc 1 532 0
 287 000a 1300     		movs	r3, r2
 288              	.LVL27:
 289 000c 0833     		adds	r3, r3, #8
 290 000e 8B42     		cmp	r3, r1
 291 0010 52D8     		bhi	.L32
 533:Source\mbedtls_open\library/x509.c ****         return ( MBEDTLS_ERR_X509_INVALID_DATE );
 534:Source\mbedtls_open\library/x509.c ****     len -= yearlen + 8;
 292              		.loc 1 534 0
 293 0012 8D1A     		subs	r5, r1, r2
 294 0014 2F00     		movs	r7, r5
 295 0016 083F     		subs	r7, r7, #8
 296              	.LVL28:
 535:Source\mbedtls_open\library/x509.c **** 
 536:Source\mbedtls_open\library/x509.c ****     /*
 537:Source\mbedtls_open\library/x509.c ****      * Parse year, month, day, hour, minute
 538:Source\mbedtls_open\library/x509.c ****      */
 539:Source\mbedtls_open\library/x509.c ****     CHECK( x509_parse_int( p, yearlen, &tm->year ) );
 297              		.loc 1 539 0
 298 0018 3200     		movs	r2, r6
 299              	.LVL29:
 300 001a 2100     		movs	r1, r4
 301 001c FFF7FEFF 		bl	x509_parse_int
 302              	.LVL30:
 303 0020 0028     		cmp	r0, #0
 304 0022 4ED1     		bne	.L28
 540:Source\mbedtls_open\library/x509.c ****     if ( 2 == yearlen )
 305              		.loc 1 540 0
ARM GAS  C:\Users\Phuong\AppData\Local\Temp\cciPItDa.s 			page 16


 306 0024 022C     		cmp	r4, #2
 307 0026 09D1     		bne	.L29
 541:Source\mbedtls_open\library/x509.c ****     {
 542:Source\mbedtls_open\library/x509.c ****         if ( tm->year < 50 )
 308              		.loc 1 542 0
 309 0028 3368     		ldr	r3, [r6]
 310 002a 312B     		cmp	r3, #49
 311 002c 01DC     		bgt	.L30
 543:Source\mbedtls_open\library/x509.c ****             tm->year += 100;
 312              		.loc 1 543 0
 313 002e 6433     		adds	r3, r3, #100
 314 0030 3360     		str	r3, [r6]
 315              	.L30:
 544:Source\mbedtls_open\library/x509.c **** 
 545:Source\mbedtls_open\library/x509.c ****         tm->year += 1900;
 316              		.loc 1 545 0
 317 0032 3368     		ldr	r3, [r6]
 318 0034 244A     		ldr	r2, .L42
 319 0036 9446     		mov	ip, r2
 320 0038 6344     		add	r3, r3, ip
 321 003a 3360     		str	r3, [r6]
 322              	.L29:
 546:Source\mbedtls_open\library/x509.c ****     }
 547:Source\mbedtls_open\library/x509.c **** 
 548:Source\mbedtls_open\library/x509.c ****     CHECK( x509_parse_int( p, 2, &tm->mon ) );
 323              		.loc 1 548 0
 324 003c 321D     		adds	r2, r6, #4
 325 003e 0221     		movs	r1, #2
 326 0040 0198     		ldr	r0, [sp, #4]
 327              	.LVL31:
 328 0042 FFF7FEFF 		bl	x509_parse_int
 329              	.LVL32:
 330 0046 0028     		cmp	r0, #0
 331 0048 3BD1     		bne	.L28
 549:Source\mbedtls_open\library/x509.c ****     CHECK( x509_parse_int( p, 2, &tm->day ) );
 332              		.loc 1 549 0
 333 004a 3200     		movs	r2, r6
 334 004c 0832     		adds	r2, r2, #8
 335 004e 0221     		movs	r1, #2
 336 0050 0198     		ldr	r0, [sp, #4]
 337              	.LVL33:
 338 0052 FFF7FEFF 		bl	x509_parse_int
 339              	.LVL34:
 340 0056 0028     		cmp	r0, #0
 341 0058 33D1     		bne	.L28
 550:Source\mbedtls_open\library/x509.c ****     CHECK( x509_parse_int( p, 2, &tm->hour ) );
 342              		.loc 1 550 0
 343 005a 3200     		movs	r2, r6
 344 005c 0C32     		adds	r2, r2, #12
 345 005e 0221     		movs	r1, #2
 346 0060 0198     		ldr	r0, [sp, #4]
 347              	.LVL35:
 348 0062 FFF7FEFF 		bl	x509_parse_int
 349              	.LVL36:
 350 0066 0028     		cmp	r0, #0
 351 0068 2BD1     		bne	.L28
 551:Source\mbedtls_open\library/x509.c ****     CHECK( x509_parse_int( p, 2, &tm->min ) );
ARM GAS  C:\Users\Phuong\AppData\Local\Temp\cciPItDa.s 			page 17


 352              		.loc 1 551 0
 353 006a 3200     		movs	r2, r6
 354 006c 1032     		adds	r2, r2, #16
 355 006e 0221     		movs	r1, #2
 356 0070 019C     		ldr	r4, [sp, #4]
 357              	.LVL37:
 358 0072 2000     		movs	r0, r4
 359              	.LVL38:
 360 0074 FFF7FEFF 		bl	x509_parse_int
 361              	.LVL39:
 362 0078 0028     		cmp	r0, #0
 363 007a 22D1     		bne	.L28
 552:Source\mbedtls_open\library/x509.c **** 
 553:Source\mbedtls_open\library/x509.c ****     /*
 554:Source\mbedtls_open\library/x509.c ****      * Parse seconds if present
 555:Source\mbedtls_open\library/x509.c ****      */
 556:Source\mbedtls_open\library/x509.c ****     if ( len >= 2 )
 364              		.loc 1 556 0
 365 007c 012F     		cmp	r7, #1
 366 007e 1DD9     		bls	.L38
 557:Source\mbedtls_open\library/x509.c ****     {
 558:Source\mbedtls_open\library/x509.c ****         CHECK( x509_parse_int( p, 2, &tm->sec ) );
 367              		.loc 1 558 0
 368 0080 3200     		movs	r2, r6
 369 0082 1432     		adds	r2, r2, #20
 370 0084 0221     		movs	r1, #2
 371 0086 2000     		movs	r0, r4
 372              	.LVL40:
 373 0088 FFF7FEFF 		bl	x509_parse_int
 374              	.LVL41:
 375 008c 0028     		cmp	r0, #0
 376 008e 18D1     		bne	.L28
 559:Source\mbedtls_open\library/x509.c ****         len -= 2;
 377              		.loc 1 559 0
 378 0090 2B00     		movs	r3, r5
 379 0092 0A3B     		subs	r3, r3, #10
 380              	.LVL42:
 560:Source\mbedtls_open\library/x509.c ****     }
 561:Source\mbedtls_open\library/x509.c ****     else
 562:Source\mbedtls_open\library/x509.c ****         return ( MBEDTLS_ERR_X509_INVALID_DATE );
 563:Source\mbedtls_open\library/x509.c **** 
 564:Source\mbedtls_open\library/x509.c ****     /*
 565:Source\mbedtls_open\library/x509.c ****      * Parse trailing 'Z' if present
 566:Source\mbedtls_open\library/x509.c ****      */
 567:Source\mbedtls_open\library/x509.c ****     if ( 1 == len && 'Z' == **p )
 381              		.loc 1 567 0
 382 0094 012B     		cmp	r3, #1
 383 0096 09D1     		bne	.L31
 384              		.loc 1 567 0 is_stmt 0 discriminator 1
 385 0098 019A     		ldr	r2, [sp, #4]
 386 009a 1268     		ldr	r2, [r2]
 387 009c 1178     		ldrb	r1, [r2]
 388 009e 5A29     		cmp	r1, #90
 389 00a0 04D1     		bne	.L31
 568:Source\mbedtls_open\library/x509.c ****     {
 569:Source\mbedtls_open\library/x509.c ****         (*p)++;
 390              		.loc 1 569 0 is_stmt 1
ARM GAS  C:\Users\Phuong\AppData\Local\Temp\cciPItDa.s 			page 18


 391 00a2 0132     		adds	r2, r2, #1
 392 00a4 019B     		ldr	r3, [sp, #4]
 393              	.LVL43:
 394 00a6 1A60     		str	r2, [r3]
 570:Source\mbedtls_open\library/x509.c ****         len--;
 395              		.loc 1 570 0
 396 00a8 2B00     		movs	r3, r5
 397 00aa 0B3B     		subs	r3, r3, #11
 398              	.LVL44:
 399              	.L31:
 571:Source\mbedtls_open\library/x509.c ****     }
 572:Source\mbedtls_open\library/x509.c **** 
 573:Source\mbedtls_open\library/x509.c ****     /*
 574:Source\mbedtls_open\library/x509.c ****      * We should have parsed all characters at this point
 575:Source\mbedtls_open\library/x509.c ****      */
 576:Source\mbedtls_open\library/x509.c ****     if ( 0 != len )
 400              		.loc 1 576 0
 401 00ac 002B     		cmp	r3, #0
 402 00ae 07D1     		bne	.L40
 577:Source\mbedtls_open\library/x509.c ****         return ( MBEDTLS_ERR_X509_INVALID_DATE );
 578:Source\mbedtls_open\library/x509.c **** 
 579:Source\mbedtls_open\library/x509.c ****     CHECK( x509_date_is_valid( tm ) );
 403              		.loc 1 579 0
 404 00b0 3000     		movs	r0, r6
 405              	.LVL45:
 406 00b2 FFF7FEFF 		bl	x509_date_is_valid
 407              	.LVL46:
 408 00b6 04E0     		b	.L28
 409              	.LVL47:
 410              	.L32:
 533:Source\mbedtls_open\library/x509.c ****     len -= yearlen + 8;
 411              		.loc 1 533 0
 412 00b8 0448     		ldr	r0, .L42+4
 413              	.LVL48:
 414 00ba 02E0     		b	.L28
 415              	.LVL49:
 416              	.L38:
 562:Source\mbedtls_open\library/x509.c **** 
 417              		.loc 1 562 0
 418 00bc 0348     		ldr	r0, .L42+4
 419              	.LVL50:
 420 00be 00E0     		b	.L28
 421              	.LVL51:
 422              	.L40:
 577:Source\mbedtls_open\library/x509.c ****         return ( MBEDTLS_ERR_X509_INVALID_DATE );
 423              		.loc 1 577 0
 424 00c0 0248     		ldr	r0, .L42+4
 425              	.LVL52:
 426              	.L28:
 580:Source\mbedtls_open\library/x509.c **** 
 581:Source\mbedtls_open\library/x509.c ****     return ( 0 );
 582:Source\mbedtls_open\library/x509.c **** }
 427              		.loc 1 582 0
 428 00c2 03B0     		add	sp, sp, #12
 429              		@ sp needed
 430              	.LVL53:
 431 00c4 F0BD     		pop	{r4, r5, r6, r7, pc}
ARM GAS  C:\Users\Phuong\AppData\Local\Temp\cciPItDa.s 			page 19


 432              	.L43:
 433 00c6 C046     		.align	2
 434              	.L42:
 435 00c8 6C070000 		.word	1900
 436 00cc 00DCFFFF 		.word	-9216
 437              		.cfi_endproc
 438              	.LFE20:
 439              		.size	x509_parse_time, .-x509_parse_time
 440              		.section	.text.x509_get_attr_type_value,"ax",%progbits
 441              		.align	2
 442              		.code	16
 443              		.thumb_func
 444              		.type	x509_get_attr_type_value, %function
 445              	x509_get_attr_type_value:
 446              	.LFB16:
 347:Source\mbedtls_open\library/x509.c ****     int ret;
 447              		.loc 1 347 0
 448              		.cfi_startproc
 449              		@ args = 0, pretend = 0, frame = 8
 450              		@ frame_needed = 0, uses_anonymous_args = 0
 451              	.LVL54:
 452 0000 70B5     		push	{r4, r5, r6, lr}
 453              		.cfi_def_cfa_offset 16
 454              		.cfi_offset 4, -16
 455              		.cfi_offset 5, -12
 456              		.cfi_offset 6, -8
 457              		.cfi_offset 14, -4
 458 0002 82B0     		sub	sp, sp, #8
 459              		.cfi_def_cfa_offset 24
 460 0004 0400     		movs	r4, r0
 461 0006 0D00     		movs	r5, r1
 462 0008 1600     		movs	r6, r2
 353:Source\mbedtls_open\library/x509.c ****             MBEDTLS_ASN1_CONSTRUCTED | MBEDTLS_ASN1_SEQUENCE ) ) != 0 )
 463              		.loc 1 353 0
 464 000a 3023     		movs	r3, #48
 465 000c 01AA     		add	r2, sp, #4
 466              	.LVL55:
 467 000e FFF7FEFF 		bl	mbedtls_asn1_get_tag
 468              	.LVL56:
 469 0012 0028     		cmp	r0, #0
 470 0014 03D0     		beq	.L45
 355:Source\mbedtls_open\library/x509.c **** 
 471              		.loc 1 355 0
 472 0016 284B     		ldr	r3, .L53
 473 0018 9C46     		mov	ip, r3
 474 001a 6044     		add	r0, r0, ip
 475              	.LVL57:
 476 001c 4AE0     		b	.L46
 477              	.LVL58:
 478              	.L45:
 357:Source\mbedtls_open\library/x509.c ****         return( MBEDTLS_ERR_X509_INVALID_NAME +
 479              		.loc 1 357 0
 480 001e 2368     		ldr	r3, [r4]
 481 0020 EA1A     		subs	r2, r5, r3
 482 0022 002A     		cmp	r2, #0
 483 0024 41DD     		ble	.L50
 484              	.LVL59:
ARM GAS  C:\Users\Phuong\AppData\Local\Temp\cciPItDa.s 			page 20


 362:Source\mbedtls_open\library/x509.c **** 
 485              		.loc 1 362 0
 486 0026 1B78     		ldrb	r3, [r3]
 487 0028 3200     		movs	r2, r6
 488 002a 08C2     		stmia	r2!, {r3}
 364:Source\mbedtls_open\library/x509.c ****         return( MBEDTLS_ERR_X509_INVALID_NAME + ret );
 489              		.loc 1 364 0
 490 002c 0623     		movs	r3, #6
 491 002e 2900     		movs	r1, r5
 492 0030 2000     		movs	r0, r4
 493              	.LVL60:
 494 0032 FFF7FEFF 		bl	mbedtls_asn1_get_tag
 495              	.LVL61:
 496 0036 0028     		cmp	r0, #0
 497 0038 03D0     		beq	.L47
 365:Source\mbedtls_open\library/x509.c **** 
 498              		.loc 1 365 0
 499 003a 1F4B     		ldr	r3, .L53
 500 003c 9C46     		mov	ip, r3
 501 003e 6044     		add	r0, r0, ip
 502              	.LVL62:
 503 0040 38E0     		b	.L46
 504              	.LVL63:
 505              	.L47:
 367:Source\mbedtls_open\library/x509.c ****     *p += oid->len;
 506              		.loc 1 367 0
 507 0042 2368     		ldr	r3, [r4]
 508 0044 B360     		str	r3, [r6, #8]
 368:Source\mbedtls_open\library/x509.c **** 
 509              		.loc 1 368 0
 510 0046 2368     		ldr	r3, [r4]
 511 0048 7268     		ldr	r2, [r6, #4]
 512 004a 9446     		mov	ip, r2
 513 004c 6344     		add	r3, r3, ip
 514 004e 2360     		str	r3, [r4]
 370:Source\mbedtls_open\library/x509.c ****         return( MBEDTLS_ERR_X509_INVALID_NAME +
 515              		.loc 1 370 0
 516 0050 EA1A     		subs	r2, r5, r3
 517 0052 002A     		cmp	r2, #0
 518 0054 2BDD     		ble	.L51
 374:Source\mbedtls_open\library/x509.c ****         **p != MBEDTLS_ASN1_T61_STRING && **p != MBEDTLS_ASN1_PRINTABLE_STRING &&
 519              		.loc 1 374 0
 520 0056 1A78     		ldrb	r2, [r3]
 521 0058 1E2A     		cmp	r2, #30
 522 005a 0BD0     		beq	.L48
 374:Source\mbedtls_open\library/x509.c ****         **p != MBEDTLS_ASN1_T61_STRING && **p != MBEDTLS_ASN1_PRINTABLE_STRING &&
 523              		.loc 1 374 0 is_stmt 0 discriminator 1
 524 005c 0C2A     		cmp	r2, #12
 525 005e 09D0     		beq	.L48
 374:Source\mbedtls_open\library/x509.c ****         **p != MBEDTLS_ASN1_T61_STRING && **p != MBEDTLS_ASN1_PRINTABLE_STRING &&
 526              		.loc 1 374 0 discriminator 2
 527 0060 142A     		cmp	r2, #20
 528 0062 07D0     		beq	.L48
 375:Source\mbedtls_open\library/x509.c ****         **p != MBEDTLS_ASN1_IA5_STRING && **p != MBEDTLS_ASN1_UNIVERSAL_STRING &&
 529              		.loc 1 375 0 is_stmt 1
 530 0064 132A     		cmp	r2, #19
 531 0066 05D0     		beq	.L48
ARM GAS  C:\Users\Phuong\AppData\Local\Temp\cciPItDa.s 			page 21


 375:Source\mbedtls_open\library/x509.c ****         **p != MBEDTLS_ASN1_IA5_STRING && **p != MBEDTLS_ASN1_UNIVERSAL_STRING &&
 532              		.loc 1 375 0 is_stmt 0 discriminator 1
 533 0068 162A     		cmp	r2, #22
 534 006a 03D0     		beq	.L48
 376:Source\mbedtls_open\library/x509.c ****         **p != MBEDTLS_ASN1_BIT_STRING )
 535              		.loc 1 376 0 is_stmt 1
 536 006c 1C2A     		cmp	r2, #28
 537 006e 01D0     		beq	.L48
 376:Source\mbedtls_open\library/x509.c ****         **p != MBEDTLS_ASN1_BIT_STRING )
 538              		.loc 1 376 0 is_stmt 0 discriminator 1
 539 0070 032A     		cmp	r2, #3
 540 0072 1ED1     		bne	.L52
 541              	.L48:
 542              	.LVL64:
 382:Source\mbedtls_open\library/x509.c **** 
 543              		.loc 1 382 0 is_stmt 1
 544 0074 5A1C     		adds	r2, r3, #1
 545 0076 2260     		str	r2, [r4]
 546 0078 1B78     		ldrb	r3, [r3]
 547 007a F360     		str	r3, [r6, #12]
 384:Source\mbedtls_open\library/x509.c ****         return( MBEDTLS_ERR_X509_INVALID_NAME + ret );
 548              		.loc 1 384 0
 549 007c 3200     		movs	r2, r6
 550 007e 1032     		adds	r2, r2, #16
 551 0080 2900     		movs	r1, r5
 552 0082 2000     		movs	r0, r4
 553              	.LVL65:
 554 0084 FFF7FEFF 		bl	mbedtls_asn1_get_len
 555              	.LVL66:
 556 0088 0028     		cmp	r0, #0
 557 008a 03D0     		beq	.L49
 385:Source\mbedtls_open\library/x509.c **** 
 558              		.loc 1 385 0
 559 008c 0A4B     		ldr	r3, .L53
 560 008e 9C46     		mov	ip, r3
 561 0090 6044     		add	r0, r0, ip
 562              	.LVL67:
 563 0092 0FE0     		b	.L46
 564              	.LVL68:
 565              	.L49:
 387:Source\mbedtls_open\library/x509.c ****     *p += val->len;
 566              		.loc 1 387 0
 567 0094 2368     		ldr	r3, [r4]
 568 0096 7361     		str	r3, [r6, #20]
 388:Source\mbedtls_open\library/x509.c **** 
 569              		.loc 1 388 0
 570 0098 2368     		ldr	r3, [r4]
 571 009a 3269     		ldr	r2, [r6, #16]
 572 009c 9446     		mov	ip, r2
 573 009e 6344     		add	r3, r3, ip
 574 00a0 2360     		str	r3, [r4]
 390:Source\mbedtls_open\library/x509.c **** 
 575              		.loc 1 390 0
 576 00a2 0023     		movs	r3, #0
 577 00a4 B361     		str	r3, [r6, #24]
 392:Source\mbedtls_open\library/x509.c **** }
 578              		.loc 1 392 0
ARM GAS  C:\Users\Phuong\AppData\Local\Temp\cciPItDa.s 			page 22


 579 00a6 0020     		movs	r0, #0
 580              	.LVL69:
 581 00a8 04E0     		b	.L46
 582              	.LVL70:
 583              	.L50:
 358:Source\mbedtls_open\library/x509.c ****                 MBEDTLS_ERR_ASN1_OUT_OF_DATA );
 584              		.loc 1 358 0
 585 00aa 0448     		ldr	r0, .L53+4
 586              	.LVL71:
 587 00ac 02E0     		b	.L46
 588              	.LVL72:
 589              	.L51:
 371:Source\mbedtls_open\library/x509.c ****                 MBEDTLS_ERR_ASN1_OUT_OF_DATA );
 590              		.loc 1 371 0
 591 00ae 0348     		ldr	r0, .L53+4
 592              	.LVL73:
 593 00b0 00E0     		b	.L46
 594              	.LVL74:
 595              	.L52:
 378:Source\mbedtls_open\library/x509.c ****                 MBEDTLS_ERR_ASN1_UNEXPECTED_TAG );
 596              		.loc 1 378 0
 597 00b2 0348     		ldr	r0, .L53+8
 598              	.LVL75:
 599              	.L46:
 393:Source\mbedtls_open\library/x509.c **** 
 600              		.loc 1 393 0
 601 00b4 02B0     		add	sp, sp, #8
 602              		@ sp needed
 603              	.LVL76:
 604              	.LVL77:
 605              	.LVL78:
 606 00b6 70BD     		pop	{r4, r5, r6, pc}
 607              	.L54:
 608              		.align	2
 609              	.L53:
 610 00b8 80DCFFFF 		.word	-9088
 611 00bc 20DCFFFF 		.word	-9184
 612 00c0 1EDCFFFF 		.word	-9186
 613              		.cfi_endproc
 614              	.LFE16:
 615              		.size	x509_get_attr_type_value, .-x509_get_attr_type_value
 616              		.section	.text.x509_get_hash_alg,"ax",%progbits
 617              		.align	2
 618              		.code	16
 619              		.thumb_func
 620              		.type	x509_get_hash_alg, %function
 621              	x509_get_hash_alg:
 622              	.LFB14:
 143:Source\mbedtls_open\library/x509.c ****     int ret;
 623              		.loc 1 143 0
 624              		.cfi_startproc
 625              		@ args = 0, pretend = 0, frame = 32
 626              		@ frame_needed = 0, uses_anonymous_args = 0
 627              	.LVL79:
 628 0000 30B5     		push	{r4, r5, lr}
 629              		.cfi_def_cfa_offset 12
 630              		.cfi_offset 4, -12
ARM GAS  C:\Users\Phuong\AppData\Local\Temp\cciPItDa.s 			page 23


 631              		.cfi_offset 5, -8
 632              		.cfi_offset 14, -4
 633 0002 89B0     		sub	sp, sp, #36
 634              		.cfi_def_cfa_offset 48
 635 0004 0D00     		movs	r5, r1
 151:Source\mbedtls_open\library/x509.c ****         return( MBEDTLS_ERR_X509_INVALID_ALG +
 636              		.loc 1 151 0
 637 0006 0368     		ldr	r3, [r0]
 638 0008 302B     		cmp	r3, #48
 639 000a 3BD1     		bne	.L61
 155:Source\mbedtls_open\library/x509.c ****     end = p + alg->len;
 640              		.loc 1 155 0
 641 000c 8368     		ldr	r3, [r0, #8]
 642 000e 0793     		str	r3, [sp, #28]
 156:Source\mbedtls_open\library/x509.c **** 
 643              		.loc 1 156 0
 644 0010 4468     		ldr	r4, [r0, #4]
 645 0012 1C19     		adds	r4, r3, r4
 646              	.LVL80:
 158:Source\mbedtls_open\library/x509.c ****         return( MBEDTLS_ERR_X509_INVALID_ALG +
 647              		.loc 1 158 0
 648 0014 A342     		cmp	r3, r4
 649 0016 37D2     		bcs	.L62
 163:Source\mbedtls_open\library/x509.c **** 
 650              		.loc 1 163 0
 651 0018 1B78     		ldrb	r3, [r3]
 652 001a 0493     		str	r3, [sp, #16]
 165:Source\mbedtls_open\library/x509.c ****         return( MBEDTLS_ERR_X509_INVALID_ALG + ret );
 653              		.loc 1 165 0
 654 001c 0623     		movs	r3, #6
 655 001e 05AA     		add	r2, sp, #20
 656 0020 2100     		movs	r1, r4
 657              	.LVL81:
 658 0022 07A8     		add	r0, sp, #28
 659              	.LVL82:
 660 0024 FFF7FEFF 		bl	mbedtls_asn1_get_tag
 661              	.LVL83:
 662 0028 0028     		cmp	r0, #0
 663 002a 03D0     		beq	.L57
 166:Source\mbedtls_open\library/x509.c **** 
 664              		.loc 1 166 0
 665 002c 1A4B     		ldr	r3, .L65
 666 002e 9C46     		mov	ip, r3
 667 0030 6044     		add	r0, r0, ip
 668              	.LVL84:
 669 0032 2EE0     		b	.L56
 670              	.LVL85:
 671              	.L57:
 168:Source\mbedtls_open\library/x509.c ****     p += md_oid.len;
 672              		.loc 1 168 0
 673 0034 079B     		ldr	r3, [sp, #28]
 674 0036 0693     		str	r3, [sp, #24]
 169:Source\mbedtls_open\library/x509.c **** 
 675              		.loc 1 169 0
 676 0038 059A     		ldr	r2, [sp, #20]
 677 003a 0192     		str	r2, [sp, #4]
 678 003c 9446     		mov	ip, r2
ARM GAS  C:\Users\Phuong\AppData\Local\Temp\cciPItDa.s 			page 24


 679 003e 6344     		add	r3, r3, ip
 680 0040 0793     		str	r3, [sp, #28]
 172:Source\mbedtls_open\library/x509.c ****         return( MBEDTLS_ERR_X509_INVALID_ALG + ret );
 681              		.loc 1 172 0
 682 0042 2900     		movs	r1, r5
 683 0044 04A8     		add	r0, sp, #16
 684              	.LVL86:
 685 0046 FFF7FEFF 		bl	mbedtls_oid_get_md_alg
 686              	.LVL87:
 687 004a 0028     		cmp	r0, #0
 688 004c 03D0     		beq	.L58
 173:Source\mbedtls_open\library/x509.c **** 
 689              		.loc 1 173 0
 690 004e 124B     		ldr	r3, .L65
 691 0050 9C46     		mov	ip, r3
 692 0052 6044     		add	r0, r0, ip
 693              	.LVL88:
 694 0054 1DE0     		b	.L56
 695              	.LVL89:
 696              	.L58:
 176:Source\mbedtls_open\library/x509.c ****         return( 0 );
 697              		.loc 1 176 0
 698 0056 079B     		ldr	r3, [sp, #28]
 699 0058 9C42     		cmp	r4, r3
 700 005a 17D0     		beq	.L63
 179:Source\mbedtls_open\library/x509.c ****         return( MBEDTLS_ERR_X509_INVALID_ALG + ret );
 701              		.loc 1 179 0
 702 005c 0523     		movs	r3, #5
 703 005e 03AA     		add	r2, sp, #12
 704 0060 2100     		movs	r1, r4
 705 0062 07A8     		add	r0, sp, #28
 706              	.LVL90:
 707 0064 FFF7FEFF 		bl	mbedtls_asn1_get_tag
 708              	.LVL91:
 709 0068 0028     		cmp	r0, #0
 710 006a 02D1     		bne	.L59
 179:Source\mbedtls_open\library/x509.c ****         return( MBEDTLS_ERR_X509_INVALID_ALG + ret );
 711              		.loc 1 179 0 is_stmt 0 discriminator 1
 712 006c 039B     		ldr	r3, [sp, #12]
 713 006e 002B     		cmp	r3, #0
 714 0070 03D0     		beq	.L60
 715              	.L59:
 180:Source\mbedtls_open\library/x509.c **** 
 716              		.loc 1 180 0 is_stmt 1
 717 0072 094B     		ldr	r3, .L65
 718 0074 9C46     		mov	ip, r3
 719 0076 6044     		add	r0, r0, ip
 720              	.LVL92:
 721 0078 0BE0     		b	.L56
 722              	.LVL93:
 723              	.L60:
 182:Source\mbedtls_open\library/x509.c ****         return( MBEDTLS_ERR_X509_INVALID_ALG +
 724              		.loc 1 182 0
 725 007a 079B     		ldr	r3, [sp, #28]
 726 007c 9C42     		cmp	r4, r3
 727 007e 07D0     		beq	.L64
 183:Source\mbedtls_open\library/x509.c ****                 MBEDTLS_ERR_ASN1_LENGTH_MISMATCH );
ARM GAS  C:\Users\Phuong\AppData\Local\Temp\cciPItDa.s 			page 25


 728              		.loc 1 183 0
 729 0080 0648     		ldr	r0, .L65+4
 730              	.LVL94:
 731 0082 06E0     		b	.L56
 732              	.LVL95:
 733              	.L61:
 152:Source\mbedtls_open\library/x509.c ****                 MBEDTLS_ERR_ASN1_UNEXPECTED_TAG );
 734              		.loc 1 152 0
 735 0084 0648     		ldr	r0, .L65+8
 736              	.LVL96:
 737 0086 04E0     		b	.L56
 738              	.LVL97:
 739              	.L62:
 159:Source\mbedtls_open\library/x509.c ****                 MBEDTLS_ERR_ASN1_OUT_OF_DATA );
 740              		.loc 1 159 0
 741 0088 0648     		ldr	r0, .L65+12
 742              	.LVL98:
 743 008a 02E0     		b	.L56
 744              	.LVL99:
 745              	.L63:
 177:Source\mbedtls_open\library/x509.c **** 
 746              		.loc 1 177 0
 747 008c 0020     		movs	r0, #0
 748              	.LVL100:
 749 008e 00E0     		b	.L56
 750              	.LVL101:
 751              	.L64:
 186:Source\mbedtls_open\library/x509.c **** }
 752              		.loc 1 186 0
 753 0090 0020     		movs	r0, #0
 754              	.LVL102:
 755              	.L56:
 187:Source\mbedtls_open\library/x509.c **** 
 756              		.loc 1 187 0
 757 0092 09B0     		add	sp, sp, #36
 758              		@ sp needed
 759              	.LVL103:
 760 0094 30BD     		pop	{r4, r5, pc}
 761              	.L66:
 762 0096 C046     		.align	2
 763              	.L65:
 764 0098 00DDFFFF 		.word	-8960
 765 009c 9ADCFFFF 		.word	-9062
 766 00a0 9EDCFFFF 		.word	-9058
 767 00a4 A0DCFFFF 		.word	-9056
 768              		.cfi_endproc
 769              	.LFE14:
 770              		.size	x509_get_hash_alg, .-x509_get_hash_alg
 771              		.section	.text.mbedtls_x509_get_serial,"ax",%progbits
 772              		.align	2
 773              		.global	mbedtls_x509_get_serial
 774              		.code	16
 775              		.thumb_func
 776              		.type	mbedtls_x509_get_serial, %function
 777              	mbedtls_x509_get_serial:
 778              	.LFB11:
  78:Source\mbedtls_open\library/x509.c ****     int ret;
ARM GAS  C:\Users\Phuong\AppData\Local\Temp\cciPItDa.s 			page 26


 779              		.loc 1 78 0
 780              		.cfi_startproc
 781              		@ args = 0, pretend = 0, frame = 0
 782              		@ frame_needed = 0, uses_anonymous_args = 0
 783              	.LVL104:
 784 0000 70B5     		push	{r4, r5, r6, lr}
 785              		.cfi_def_cfa_offset 16
 786              		.cfi_offset 4, -16
 787              		.cfi_offset 5, -12
 788              		.cfi_offset 6, -8
 789              		.cfi_offset 14, -4
 790 0002 0400     		movs	r4, r0
 791 0004 1500     		movs	r5, r2
  81:Source\mbedtls_open\library/x509.c ****         return( MBEDTLS_ERR_X509_INVALID_SERIAL +
 792              		.loc 1 81 0
 793 0006 0368     		ldr	r3, [r0]
 794 0008 CA1A     		subs	r2, r1, r3
 795              	.LVL105:
 796 000a 002A     		cmp	r2, #0
 797 000c 1BDD     		ble	.L71
  85:Source\mbedtls_open\library/x509.c ****         **p !=   MBEDTLS_ASN1_INTEGER )
 798              		.loc 1 85 0
 799 000e 1A78     		ldrb	r2, [r3]
 800 0010 822A     		cmp	r2, #130
 801 0012 01D0     		beq	.L69
  85:Source\mbedtls_open\library/x509.c ****         **p !=   MBEDTLS_ASN1_INTEGER )
 802              		.loc 1 85 0 is_stmt 0 discriminator 1
 803 0014 022A     		cmp	r2, #2
 804 0016 18D1     		bne	.L72
 805              	.L69:
  90:Source\mbedtls_open\library/x509.c **** 
 806              		.loc 1 90 0 is_stmt 1
 807 0018 5A1C     		adds	r2, r3, #1
 808 001a 2260     		str	r2, [r4]
 809 001c 1B78     		ldrb	r3, [r3]
 810 001e 2A00     		movs	r2, r5
 811 0020 08C2     		stmia	r2!, {r3}
  92:Source\mbedtls_open\library/x509.c ****         return( MBEDTLS_ERR_X509_INVALID_SERIAL + ret );
 812              		.loc 1 92 0
 813 0022 2000     		movs	r0, r4
 814              	.LVL106:
 815 0024 FFF7FEFF 		bl	mbedtls_asn1_get_len
 816              	.LVL107:
 817 0028 0028     		cmp	r0, #0
 818 002a 03D0     		beq	.L70
  93:Source\mbedtls_open\library/x509.c **** 
 819              		.loc 1 93 0
 820 002c 084B     		ldr	r3, .L73
 821 002e 9C46     		mov	ip, r3
 822 0030 6044     		add	r0, r0, ip
 823              	.LVL108:
 824 0032 0BE0     		b	.L68
 825              	.LVL109:
 826              	.L70:
  95:Source\mbedtls_open\library/x509.c ****     *p += serial->len;
 827              		.loc 1 95 0
 828 0034 2368     		ldr	r3, [r4]
ARM GAS  C:\Users\Phuong\AppData\Local\Temp\cciPItDa.s 			page 27


 829 0036 AB60     		str	r3, [r5, #8]
  96:Source\mbedtls_open\library/x509.c **** 
 830              		.loc 1 96 0
 831 0038 6B68     		ldr	r3, [r5, #4]
 832 003a 2268     		ldr	r2, [r4]
 833 003c 9446     		mov	ip, r2
 834 003e 6344     		add	r3, r3, ip
 835 0040 2360     		str	r3, [r4]
  98:Source\mbedtls_open\library/x509.c **** }
 836              		.loc 1 98 0
 837 0042 0020     		movs	r0, #0
 838              	.LVL110:
 839 0044 02E0     		b	.L68
 840              	.LVL111:
 841              	.L71:
  82:Source\mbedtls_open\library/x509.c ****                 MBEDTLS_ERR_ASN1_OUT_OF_DATA );
 842              		.loc 1 82 0
 843 0046 0348     		ldr	r0, .L73+4
 844              	.LVL112:
 845 0048 00E0     		b	.L68
 846              	.LVL113:
 847              	.L72:
  87:Source\mbedtls_open\library/x509.c ****                 MBEDTLS_ERR_ASN1_UNEXPECTED_TAG );
 848              		.loc 1 87 0
 849 004a 0348     		ldr	r0, .L73+8
 850              	.LVL114:
 851              	.L68:
  99:Source\mbedtls_open\library/x509.c **** 
 852              		.loc 1 99 0
 853              		@ sp needed
 854              	.LVL115:
 855              	.LVL116:
 856 004c 70BD     		pop	{r4, r5, r6, pc}
 857              	.L74:
 858 004e C046     		.align	2
 859              	.L73:
 860 0050 80DDFFFF 		.word	-8832
 861 0054 20DDFFFF 		.word	-8928
 862 0058 1EDDFFFF 		.word	-8930
 863              		.cfi_endproc
 864              	.LFE11:
 865              		.size	mbedtls_x509_get_serial, .-mbedtls_x509_get_serial
 866              		.section	.text.mbedtls_x509_get_alg_null,"ax",%progbits
 867              		.align	2
 868              		.global	mbedtls_x509_get_alg_null
 869              		.code	16
 870              		.thumb_func
 871              		.type	mbedtls_x509_get_alg_null, %function
 872              	mbedtls_x509_get_alg_null:
 873              	.LFB12:
 109:Source\mbedtls_open\library/x509.c ****     int ret;
 874              		.loc 1 109 0
 875              		.cfi_startproc
 876              		@ args = 0, pretend = 0, frame = 0
 877              		@ frame_needed = 0, uses_anonymous_args = 0
 878              	.LVL117:
 879 0000 10B5     		push	{r4, lr}
ARM GAS  C:\Users\Phuong\AppData\Local\Temp\cciPItDa.s 			page 28


 880              		.cfi_def_cfa_offset 8
 881              		.cfi_offset 4, -8
 882              		.cfi_offset 14, -4
 112:Source\mbedtls_open\library/x509.c ****         return( MBEDTLS_ERR_X509_INVALID_ALG + ret );
 883              		.loc 1 112 0
 884 0002 FFF7FEFF 		bl	mbedtls_asn1_get_alg_null
 885              	.LVL118:
 886 0006 0028     		cmp	r0, #0
 887 0008 03D0     		beq	.L77
 113:Source\mbedtls_open\library/x509.c **** 
 888              		.loc 1 113 0
 889 000a 034B     		ldr	r3, .L78
 890 000c 9C46     		mov	ip, r3
 891 000e 6044     		add	r0, r0, ip
 892              	.LVL119:
 893 0010 00E0     		b	.L76
 894              	.LVL120:
 895              	.L77:
 115:Source\mbedtls_open\library/x509.c **** }
 896              		.loc 1 115 0
 897 0012 0020     		movs	r0, #0
 898              	.LVL121:
 899              	.L76:
 116:Source\mbedtls_open\library/x509.c **** 
 900              		.loc 1 116 0
 901              		@ sp needed
 902 0014 10BD     		pop	{r4, pc}
 903              	.L79:
 904 0016 C046     		.align	2
 905              	.L78:
 906 0018 00DDFFFF 		.word	-8960
 907              		.cfi_endproc
 908              	.LFE12:
 909              		.size	mbedtls_x509_get_alg_null, .-mbedtls_x509_get_alg_null
 910              		.section	.text.mbedtls_x509_get_alg,"ax",%progbits
 911              		.align	2
 912              		.global	mbedtls_x509_get_alg
 913              		.code	16
 914              		.thumb_func
 915              		.type	mbedtls_x509_get_alg, %function
 916              	mbedtls_x509_get_alg:
 917              	.LFB13:
 123:Source\mbedtls_open\library/x509.c ****     int ret;
 918              		.loc 1 123 0
 919              		.cfi_startproc
 920              		@ args = 0, pretend = 0, frame = 0
 921              		@ frame_needed = 0, uses_anonymous_args = 0
 922              	.LVL122:
 923 0000 10B5     		push	{r4, lr}
 924              		.cfi_def_cfa_offset 8
 925              		.cfi_offset 4, -8
 926              		.cfi_offset 14, -4
 126:Source\mbedtls_open\library/x509.c ****         return( MBEDTLS_ERR_X509_INVALID_ALG + ret );
 927              		.loc 1 126 0
 928 0002 FFF7FEFF 		bl	mbedtls_asn1_get_alg
 929              	.LVL123:
 930 0006 0028     		cmp	r0, #0
ARM GAS  C:\Users\Phuong\AppData\Local\Temp\cciPItDa.s 			page 29


 931 0008 03D0     		beq	.L82
 127:Source\mbedtls_open\library/x509.c **** 
 932              		.loc 1 127 0
 933 000a 034B     		ldr	r3, .L83
 934 000c 9C46     		mov	ip, r3
 935 000e 6044     		add	r0, r0, ip
 936              	.LVL124:
 937 0010 00E0     		b	.L81
 938              	.LVL125:
 939              	.L82:
 129:Source\mbedtls_open\library/x509.c **** }
 940              		.loc 1 129 0
 941 0012 0020     		movs	r0, #0
 942              	.LVL126:
 943              	.L81:
 130:Source\mbedtls_open\library/x509.c **** 
 944              		.loc 1 130 0
 945              		@ sp needed
 946 0014 10BD     		pop	{r4, pc}
 947              	.L84:
 948 0016 C046     		.align	2
 949              	.L83:
 950 0018 00DDFFFF 		.word	-8960
 951              		.cfi_endproc
 952              	.LFE13:
 953              		.size	mbedtls_x509_get_alg, .-mbedtls_x509_get_alg
 954              		.section	.text.mbedtls_x509_get_rsassa_pss_params,"ax",%progbits
 955              		.align	2
 956              		.global	mbedtls_x509_get_rsassa_pss_params
 957              		.code	16
 958              		.thumb_func
 959              		.type	mbedtls_x509_get_rsassa_pss_params, %function
 960              	mbedtls_x509_get_rsassa_pss_params:
 961              	.LFB15:
 204:Source\mbedtls_open\library/x509.c ****     int ret;
 962              		.loc 1 204 0
 963              		.cfi_startproc
 964              		@ args = 0, pretend = 0, frame = 40
 965              		@ frame_needed = 0, uses_anonymous_args = 0
 966              	.LVL127:
 967 0000 F0B5     		push	{r4, r5, r6, r7, lr}
 968              		.cfi_def_cfa_offset 20
 969              		.cfi_offset 4, -20
 970              		.cfi_offset 5, -16
 971              		.cfi_offset 6, -12
 972              		.cfi_offset 7, -8
 973              		.cfi_offset 14, -4
 974 0002 4746     		mov	r7, r8
 975 0004 80B4     		push	{r7}
 976              		.cfi_def_cfa_offset 24
 977              		.cfi_offset 8, -24
 978 0006 8AB0     		sub	sp, sp, #40
 979              		.cfi_def_cfa_offset 64
 980 0008 0F00     		movs	r7, r1
 981 000a 1600     		movs	r6, r2
 982 000c 1D00     		movs	r5, r3
 212:Source\mbedtls_open\library/x509.c ****     *mgf_md = MBEDTLS_MD_SHA1;
ARM GAS  C:\Users\Phuong\AppData\Local\Temp\cciPItDa.s 			page 30


 983              		.loc 1 212 0
 984 000e 0423     		movs	r3, #4
 985              	.LVL128:
 986 0010 0B70     		strb	r3, [r1]
 213:Source\mbedtls_open\library/x509.c ****     *salt_len = 20;
 987              		.loc 1 213 0
 988 0012 1370     		strb	r3, [r2]
 214:Source\mbedtls_open\library/x509.c **** 
 989              		.loc 1 214 0
 990 0014 1033     		adds	r3, r3, #16
 991 0016 2B60     		str	r3, [r5]
 217:Source\mbedtls_open\library/x509.c ****         return( MBEDTLS_ERR_X509_INVALID_ALG +
 992              		.loc 1 217 0
 993 0018 0368     		ldr	r3, [r0]
 994 001a 302B     		cmp	r3, #48
 995 001c 00D0     		beq	.LCB1009
 996 001e C1E0     		b	.L100	@long jump
 997              	.LCB1009:
 221:Source\mbedtls_open\library/x509.c ****     end = p + params->len;
 998              		.loc 1 221 0
 999 0020 8368     		ldr	r3, [r0, #8]
 1000 0022 0993     		str	r3, [sp, #36]
 222:Source\mbedtls_open\library/x509.c **** 
 1001              		.loc 1 222 0
 1002 0024 4468     		ldr	r4, [r0, #4]
 1003 0026 1C19     		adds	r4, r3, r4
 1004              	.LVL129:
 224:Source\mbedtls_open\library/x509.c ****         return( 0 );
 1005              		.loc 1 224 0
 1006 0028 A342     		cmp	r3, r4
 1007 002a 00D1     		bne	.LCB1016
 1008 002c BCE0     		b	.L101	@long jump
 1009              	.LCB1016:
 230:Source\mbedtls_open\library/x509.c ****                     MBEDTLS_ASN1_CONTEXT_SPECIFIC | MBEDTLS_ASN1_CONSTRUCTED | 0 ) ) == 0 )
 1010              		.loc 1 230 0
 1011 002e A023     		movs	r3, #160
 1012 0030 08AA     		add	r2, sp, #32
 1013              	.LVL130:
 1014 0032 2100     		movs	r1, r4
 1015              	.LVL131:
 1016 0034 09A8     		add	r0, sp, #36
 1017              	.LVL132:
 1018 0036 FFF7FEFF 		bl	mbedtls_asn1_get_tag
 1019              	.LVL133:
 1020 003a 0028     		cmp	r0, #0
 1021 003c 1AD1     		bne	.L87
 233:Source\mbedtls_open\library/x509.c **** 
 1022              		.loc 1 233 0
 1023 003e 099B     		ldr	r3, [sp, #36]
 1024 0040 089A     		ldr	r2, [sp, #32]
 1025 0042 9446     		mov	ip, r2
 1026 0044 6344     		add	r3, r3, ip
 1027 0046 9846     		mov	r8, r3
 1028              	.LVL134:
 236:Source\mbedtls_open\library/x509.c ****             return( ret );
 1029              		.loc 1 236 0
 1030 0048 05AA     		add	r2, sp, #20
ARM GAS  C:\Users\Phuong\AppData\Local\Temp\cciPItDa.s 			page 31


 1031 004a 1900     		movs	r1, r3
 1032 004c 09A8     		add	r0, sp, #36
 1033              	.LVL135:
 1034 004e FFF7FEFF 		bl	mbedtls_x509_get_alg_null
 1035              	.LVL136:
 1036 0052 0028     		cmp	r0, #0
 1037 0054 00D0     		beq	.LCB1046
 1038 0056 B8E0     		b	.L86	@long jump
 1039              	.LCB1046:
 239:Source\mbedtls_open\library/x509.c ****             return( MBEDTLS_ERR_X509_INVALID_ALG + ret );
 1040              		.loc 1 239 0
 1041 0058 3900     		movs	r1, r7
 1042 005a 05A8     		add	r0, sp, #20
 1043              	.LVL137:
 1044 005c FFF7FEFF 		bl	mbedtls_oid_get_md_alg
 1045              	.LVL138:
 1046 0060 0028     		cmp	r0, #0
 1047 0062 03D0     		beq	.L88
 240:Source\mbedtls_open\library/x509.c **** 
 1048              		.loc 1 240 0
 1049 0064 5B4B     		ldr	r3, .L116
 1050 0066 9C46     		mov	ip, r3
 1051 0068 6044     		add	r0, r0, ip
 1052              	.LVL139:
 1053 006a AEE0     		b	.L86
 1054              	.LVL140:
 1055              	.L88:
 242:Source\mbedtls_open\library/x509.c ****             return( MBEDTLS_ERR_X509_INVALID_ALG +
 1056              		.loc 1 242 0
 1057 006c 099B     		ldr	r3, [sp, #36]
 1058 006e 9845     		cmp	r8, r3
 1059 0070 07D0     		beq	.L89
 1060 0072 9BE0     		b	.L103
 1061              	.LVL141:
 1062              	.L87:
 246:Source\mbedtls_open\library/x509.c ****         return( MBEDTLS_ERR_X509_INVALID_ALG + ret );
 1063              		.loc 1 246 0
 1064 0074 0300     		movs	r3, r0
 1065 0076 6233     		adds	r3, r3, #98
 1066 0078 03D0     		beq	.L89
 247:Source\mbedtls_open\library/x509.c **** 
 1067              		.loc 1 247 0
 1068 007a 564B     		ldr	r3, .L116
 1069 007c 9C46     		mov	ip, r3
 1070 007e 6044     		add	r0, r0, ip
 1071              	.LVL142:
 1072 0080 A3E0     		b	.L86
 1073              	.LVL143:
 1074              	.L89:
 249:Source\mbedtls_open\library/x509.c ****         return( 0 );
 1075              		.loc 1 249 0
 1076 0082 099B     		ldr	r3, [sp, #36]
 1077 0084 9C42     		cmp	r4, r3
 1078 0086 00D1     		bne	.LCB1089
 1079 0088 92E0     		b	.L104	@long jump
 1080              	.LCB1089:
 255:Source\mbedtls_open\library/x509.c ****                     MBEDTLS_ASN1_CONTEXT_SPECIFIC | MBEDTLS_ASN1_CONSTRUCTED | 1 ) ) == 0 )
ARM GAS  C:\Users\Phuong\AppData\Local\Temp\cciPItDa.s 			page 32


 1081              		.loc 1 255 0
 1082 008a A123     		movs	r3, #161
 1083 008c 08AA     		add	r2, sp, #32
 1084 008e 2100     		movs	r1, r4
 1085 0090 09A8     		add	r0, sp, #36
 1086              	.LVL144:
 1087 0092 FFF7FEFF 		bl	mbedtls_asn1_get_tag
 1088              	.LVL145:
 1089 0096 0028     		cmp	r0, #0
 1090 0098 25D1     		bne	.L90
 258:Source\mbedtls_open\library/x509.c **** 
 1091              		.loc 1 258 0
 1092 009a 099B     		ldr	r3, [sp, #36]
 1093 009c 089A     		ldr	r2, [sp, #32]
 1094 009e 9446     		mov	ip, r2
 1095 00a0 6344     		add	r3, r3, ip
 1096 00a2 1F00     		movs	r7, r3
 1097              	.LVL146:
 261:Source\mbedtls_open\library/x509.c ****             return( ret );
 1098              		.loc 1 261 0
 1099 00a4 02AB     		add	r3, sp, #8
 1100              	.LVL147:
 1101 00a6 05AA     		add	r2, sp, #20
 1102 00a8 3900     		movs	r1, r7
 1103 00aa 09A8     		add	r0, sp, #36
 1104              	.LVL148:
 1105 00ac FFF7FEFF 		bl	mbedtls_x509_get_alg
 1106              	.LVL149:
 1107 00b0 0028     		cmp	r0, #0
 1108 00b2 00D0     		beq	.LCB1119
 1109 00b4 89E0     		b	.L86	@long jump
 1110              	.LCB1119:
 265:Source\mbedtls_open\library/x509.c ****             return( MBEDTLS_ERR_X509_FEATURE_UNAVAILABLE +
 1111              		.loc 1 265 0
 1112 00b6 069A     		ldr	r2, [sp, #24]
 1113 00b8 092A     		cmp	r2, #9
 1114 00ba 07D1     		bne	.L106
 265:Source\mbedtls_open\library/x509.c ****             return( MBEDTLS_ERR_X509_FEATURE_UNAVAILABLE +
 1115              		.loc 1 265 0 is_stmt 0 discriminator 2
 1116 00bc 0799     		ldr	r1, [sp, #28]
 1117 00be 4648     		ldr	r0, .L116+4
 1118              	.LVL150:
 1119 00c0 FFF7FEFF 		bl	memcmp
 1120              	.LVL151:
 1121 00c4 0028     		cmp	r0, #0
 1122 00c6 02D0     		beq	.L91
 265:Source\mbedtls_open\library/x509.c ****             return( MBEDTLS_ERR_X509_FEATURE_UNAVAILABLE +
 1123              		.loc 1 265 0
 1124 00c8 0120     		movs	r0, #1
 1125 00ca 00E0     		b	.L91
 1126              	.LVL152:
 1127              	.L106:
 1128 00cc 0120     		movs	r0, #1
 1129              	.LVL153:
 1130              	.L91:
 265:Source\mbedtls_open\library/x509.c ****             return( MBEDTLS_ERR_X509_FEATURE_UNAVAILABLE +
 1131              		.loc 1 265 0 discriminator 6
ARM GAS  C:\Users\Phuong\AppData\Local\Temp\cciPItDa.s 			page 33


 1132 00ce 0028     		cmp	r0, #0
 1133 00d0 70D1     		bne	.L107
 270:Source\mbedtls_open\library/x509.c ****             return( ret );
 1134              		.loc 1 270 0 is_stmt 1
 1135 00d2 3100     		movs	r1, r6
 1136 00d4 02A8     		add	r0, sp, #8
 1137 00d6 FFF7FEFF 		bl	x509_get_hash_alg
 1138              	.LVL154:
 1139 00da 0028     		cmp	r0, #0
 1140 00dc 75D1     		bne	.L86
 273:Source\mbedtls_open\library/x509.c ****             return( MBEDTLS_ERR_X509_INVALID_ALG +
 1141              		.loc 1 273 0
 1142 00de 099B     		ldr	r3, [sp, #36]
 1143 00e0 9F42     		cmp	r7, r3
 1144 00e2 07D0     		beq	.L92
 1145 00e4 68E0     		b	.L109
 1146              	.LVL155:
 1147              	.L90:
 277:Source\mbedtls_open\library/x509.c ****         return( MBEDTLS_ERR_X509_INVALID_ALG + ret );
 1148              		.loc 1 277 0
 1149 00e6 0300     		movs	r3, r0
 1150 00e8 6233     		adds	r3, r3, #98
 1151 00ea 03D0     		beq	.L92
 278:Source\mbedtls_open\library/x509.c **** 
 1152              		.loc 1 278 0
 1153 00ec 394B     		ldr	r3, .L116
 1154 00ee 9C46     		mov	ip, r3
 1155 00f0 6044     		add	r0, r0, ip
 1156              	.LVL156:
 1157 00f2 6AE0     		b	.L86
 1158              	.LVL157:
 1159              	.L92:
 280:Source\mbedtls_open\library/x509.c ****         return( 0 );
 1160              		.loc 1 280 0
 1161 00f4 099B     		ldr	r3, [sp, #36]
 1162 00f6 9C42     		cmp	r4, r3
 1163 00f8 60D0     		beq	.L110
 286:Source\mbedtls_open\library/x509.c ****                     MBEDTLS_ASN1_CONTEXT_SPECIFIC | MBEDTLS_ASN1_CONSTRUCTED | 2 ) ) == 0 )
 1164              		.loc 1 286 0
 1165 00fa A223     		movs	r3, #162
 1166 00fc 08AA     		add	r2, sp, #32
 1167 00fe 2100     		movs	r1, r4
 1168 0100 09A8     		add	r0, sp, #36
 1169              	.LVL158:
 1170 0102 FFF7FEFF 		bl	mbedtls_asn1_get_tag
 1171              	.LVL159:
 1172 0106 0028     		cmp	r0, #0
 1173 0108 13D1     		bne	.L93
 289:Source\mbedtls_open\library/x509.c **** 
 1174              		.loc 1 289 0
 1175 010a 099B     		ldr	r3, [sp, #36]
 1176 010c 089A     		ldr	r2, [sp, #32]
 1177 010e 9446     		mov	ip, r2
 1178 0110 6344     		add	r3, r3, ip
 1179 0112 1E00     		movs	r6, r3
 1180              	.LVL160:
 291:Source\mbedtls_open\library/x509.c ****             return( MBEDTLS_ERR_X509_INVALID_ALG + ret );
ARM GAS  C:\Users\Phuong\AppData\Local\Temp\cciPItDa.s 			page 34


 1181              		.loc 1 291 0
 1182 0114 2A00     		movs	r2, r5
 1183 0116 1900     		movs	r1, r3
 1184 0118 09A8     		add	r0, sp, #36
 1185              	.LVL161:
 1186 011a FFF7FEFF 		bl	mbedtls_asn1_get_int
 1187              	.LVL162:
 1188 011e 0028     		cmp	r0, #0
 1189 0120 03D0     		beq	.L94
 292:Source\mbedtls_open\library/x509.c **** 
 1190              		.loc 1 292 0
 1191 0122 2C4B     		ldr	r3, .L116
 1192 0124 9C46     		mov	ip, r3
 1193 0126 6044     		add	r0, r0, ip
 1194              	.LVL163:
 1195 0128 4FE0     		b	.L86
 1196              	.LVL164:
 1197              	.L94:
 294:Source\mbedtls_open\library/x509.c ****             return( MBEDTLS_ERR_X509_INVALID_ALG +
 1198              		.loc 1 294 0
 1199 012a 099B     		ldr	r3, [sp, #36]
 1200 012c 9E42     		cmp	r6, r3
 1201 012e 07D0     		beq	.L95
 1202 0130 46E0     		b	.L111
 1203              	.LVL165:
 1204              	.L93:
 298:Source\mbedtls_open\library/x509.c ****         return( MBEDTLS_ERR_X509_INVALID_ALG + ret );
 1205              		.loc 1 298 0
 1206 0132 0300     		movs	r3, r0
 1207 0134 6233     		adds	r3, r3, #98
 1208 0136 03D0     		beq	.L95
 299:Source\mbedtls_open\library/x509.c **** 
 1209              		.loc 1 299 0
 1210 0138 264B     		ldr	r3, .L116
 1211 013a 9C46     		mov	ip, r3
 1212 013c 6044     		add	r0, r0, ip
 1213              	.LVL166:
 1214 013e 44E0     		b	.L86
 1215              	.LVL167:
 1216              	.L95:
 301:Source\mbedtls_open\library/x509.c ****         return( 0 );
 1217              		.loc 1 301 0
 1218 0140 099B     		ldr	r3, [sp, #36]
 1219 0142 9C42     		cmp	r4, r3
 1220 0144 3ED0     		beq	.L112
 307:Source\mbedtls_open\library/x509.c ****                     MBEDTLS_ASN1_CONTEXT_SPECIFIC | MBEDTLS_ASN1_CONSTRUCTED | 3 ) ) == 0 )
 1221              		.loc 1 307 0
 1222 0146 A323     		movs	r3, #163
 1223 0148 08AA     		add	r2, sp, #32
 1224 014a 2100     		movs	r1, r4
 1225 014c 09A8     		add	r0, sp, #36
 1226              	.LVL168:
 1227 014e FFF7FEFF 		bl	mbedtls_asn1_get_tag
 1228              	.LVL169:
 1229 0152 0028     		cmp	r0, #0
 1230 0154 1AD1     		bne	.L96
 1231              	.LBB2:
ARM GAS  C:\Users\Phuong\AppData\Local\Temp\cciPItDa.s 			page 35


 312:Source\mbedtls_open\library/x509.c **** 
 1232              		.loc 1 312 0
 1233 0156 099B     		ldr	r3, [sp, #36]
 1234 0158 089A     		ldr	r2, [sp, #32]
 1235 015a 9446     		mov	ip, r2
 1236 015c 6344     		add	r3, r3, ip
 1237 015e 1D00     		movs	r5, r3
 1238              	.LVL170:
 314:Source\mbedtls_open\library/x509.c ****             return( MBEDTLS_ERR_X509_INVALID_ALG + ret );
 1239              		.loc 1 314 0
 1240 0160 01AA     		add	r2, sp, #4
 1241 0162 1900     		movs	r1, r3
 1242 0164 09A8     		add	r0, sp, #36
 1243              	.LVL171:
 1244 0166 FFF7FEFF 		bl	mbedtls_asn1_get_int
 1245              	.LVL172:
 1246 016a 0028     		cmp	r0, #0
 1247 016c 03D0     		beq	.L97
 315:Source\mbedtls_open\library/x509.c **** 
 1248              		.loc 1 315 0
 1249 016e 194B     		ldr	r3, .L116
 1250 0170 9C46     		mov	ip, r3
 1251 0172 6044     		add	r0, r0, ip
 1252              	.LVL173:
 1253 0174 29E0     		b	.L86
 1254              	.LVL174:
 1255              	.L97:
 317:Source\mbedtls_open\library/x509.c ****             return( MBEDTLS_ERR_X509_INVALID_ALG +
 1256              		.loc 1 317 0
 1257 0176 099B     		ldr	r3, [sp, #36]
 1258 0178 9D42     		cmp	r5, r3
 1259 017a 03D1     		bne	.L113
 321:Source\mbedtls_open\library/x509.c ****             return( MBEDTLS_ERR_X509_INVALID_ALG );
 1260              		.loc 1 321 0
 1261 017c 019B     		ldr	r3, [sp, #4]
 1262 017e 012B     		cmp	r3, #1
 1263 0180 02D1     		bne	.L114
 1264 0182 0AE0     		b	.L99
 1265              	.L113:
 318:Source\mbedtls_open\library/x509.c ****                     MBEDTLS_ERR_ASN1_LENGTH_MISMATCH );
 1266              		.loc 1 318 0
 1267 0184 1548     		ldr	r0, .L116+8
 1268              	.LVL175:
 1269 0186 20E0     		b	.L86
 1270              	.LVL176:
 1271              	.L114:
 322:Source\mbedtls_open\library/x509.c ****     }
 1272              		.loc 1 322 0
 1273 0188 1248     		ldr	r0, .L116
 1274              	.LVL177:
 1275 018a 1EE0     		b	.L86
 1276              	.LVL178:
 1277              	.L96:
 1278              	.LBE2:
 324:Source\mbedtls_open\library/x509.c ****         return( MBEDTLS_ERR_X509_INVALID_ALG + ret );
 1279              		.loc 1 324 0
 1280 018c 0300     		movs	r3, r0
ARM GAS  C:\Users\Phuong\AppData\Local\Temp\cciPItDa.s 			page 36


 1281 018e 6233     		adds	r3, r3, #98
 1282 0190 03D0     		beq	.L99
 325:Source\mbedtls_open\library/x509.c **** 
 1283              		.loc 1 325 0
 1284 0192 104B     		ldr	r3, .L116
 1285 0194 9C46     		mov	ip, r3
 1286 0196 6044     		add	r0, r0, ip
 1287              	.LVL179:
 1288 0198 17E0     		b	.L86
 1289              	.LVL180:
 1290              	.L99:
 327:Source\mbedtls_open\library/x509.c ****         return( MBEDTLS_ERR_X509_INVALID_ALG +
 1291              		.loc 1 327 0
 1292 019a 099B     		ldr	r3, [sp, #36]
 1293 019c 9C42     		cmp	r4, r3
 1294 019e 13D0     		beq	.L115
 328:Source\mbedtls_open\library/x509.c ****                 MBEDTLS_ERR_ASN1_LENGTH_MISMATCH );
 1295              		.loc 1 328 0
 1296 01a0 0E48     		ldr	r0, .L116+8
 1297              	.LVL181:
 1298 01a2 12E0     		b	.L86
 1299              	.LVL182:
 1300              	.L100:
 218:Source\mbedtls_open\library/x509.c ****                 MBEDTLS_ERR_ASN1_UNEXPECTED_TAG );
 1301              		.loc 1 218 0
 1302 01a4 0E48     		ldr	r0, .L116+12
 1303              	.LVL183:
 1304 01a6 10E0     		b	.L86
 1305              	.LVL184:
 1306              	.L101:
 225:Source\mbedtls_open\library/x509.c **** 
 1307              		.loc 1 225 0
 1308 01a8 0020     		movs	r0, #0
 1309              	.LVL185:
 1310 01aa 0EE0     		b	.L86
 1311              	.LVL186:
 1312              	.L103:
 243:Source\mbedtls_open\library/x509.c ****                     MBEDTLS_ERR_ASN1_LENGTH_MISMATCH );
 1313              		.loc 1 243 0
 1314 01ac 0B48     		ldr	r0, .L116+8
 1315              	.LVL187:
 1316 01ae 0CE0     		b	.L86
 1317              	.LVL188:
 1318              	.L104:
 250:Source\mbedtls_open\library/x509.c **** 
 1319              		.loc 1 250 0
 1320 01b0 0020     		movs	r0, #0
 1321              	.LVL189:
 1322 01b2 0AE0     		b	.L86
 1323              	.LVL190:
 1324              	.L107:
 266:Source\mbedtls_open\library/x509.c ****                     MBEDTLS_ERR_OID_NOT_FOUND );
 1325              		.loc 1 266 0
 1326 01b4 0B48     		ldr	r0, .L116+16
 1327 01b6 08E0     		b	.L86
 1328              	.LVL191:
 1329              	.L109:
ARM GAS  C:\Users\Phuong\AppData\Local\Temp\cciPItDa.s 			page 37


 274:Source\mbedtls_open\library/x509.c ****                     MBEDTLS_ERR_ASN1_LENGTH_MISMATCH );
 1330              		.loc 1 274 0
 1331 01b8 0848     		ldr	r0, .L116+8
 1332              	.LVL192:
 1333 01ba 06E0     		b	.L86
 1334              	.LVL193:
 1335              	.L110:
 281:Source\mbedtls_open\library/x509.c **** 
 1336              		.loc 1 281 0
 1337 01bc 0020     		movs	r0, #0
 1338              	.LVL194:
 1339 01be 04E0     		b	.L86
 1340              	.LVL195:
 1341              	.L111:
 295:Source\mbedtls_open\library/x509.c ****                     MBEDTLS_ERR_ASN1_LENGTH_MISMATCH );
 1342              		.loc 1 295 0
 1343 01c0 0648     		ldr	r0, .L116+8
 1344              	.LVL196:
 1345 01c2 02E0     		b	.L86
 1346              	.LVL197:
 1347              	.L112:
 302:Source\mbedtls_open\library/x509.c **** 
 1348              		.loc 1 302 0
 1349 01c4 0020     		movs	r0, #0
 1350              	.LVL198:
 1351 01c6 00E0     		b	.L86
 1352              	.LVL199:
 1353              	.L115:
 331:Source\mbedtls_open\library/x509.c **** }
 1354              		.loc 1 331 0
 1355 01c8 0020     		movs	r0, #0
 1356              	.LVL200:
 1357              	.L86:
 332:Source\mbedtls_open\library/x509.c **** #endif /* MBEDTLS_X509_RSASSA_PSS_SUPPORT */
 1358              		.loc 1 332 0
 1359 01ca 0AB0     		add	sp, sp, #40
 1360              		@ sp needed
 1361 01cc 04BC     		pop	{r2}
 1362 01ce 9046     		mov	r8, r2
 1363 01d0 F0BD     		pop	{r4, r5, r6, r7, pc}
 1364              	.L117:
 1365 01d2 C046     		.align	2
 1366              	.L116:
 1367 01d4 00DDFFFF 		.word	-8960
 1368 01d8 00000000 		.word	.LC1
 1369 01dc 9ADCFFFF 		.word	-9062
 1370 01e0 9EDCFFFF 		.word	-9058
 1371 01e4 52DFFFFF 		.word	-8366
 1372              		.cfi_endproc
 1373              	.LFE15:
 1374              		.size	mbedtls_x509_get_rsassa_pss_params, .-mbedtls_x509_get_rsassa_pss_params
 1375              		.section	.text.mbedtls_x509_get_name,"ax",%progbits
 1376              		.align	2
 1377              		.global	mbedtls_x509_get_name
 1378              		.code	16
 1379              		.thumb_func
 1380              		.type	mbedtls_x509_get_name, %function
ARM GAS  C:\Users\Phuong\AppData\Local\Temp\cciPItDa.s 			page 38


 1381              	mbedtls_x509_get_name:
 1382              	.LFB17:
 420:Source\mbedtls_open\library/x509.c ****     int ret;
 1383              		.loc 1 420 0
 1384              		.cfi_startproc
 1385              		@ args = 0, pretend = 0, frame = 8
 1386              		@ frame_needed = 0, uses_anonymous_args = 0
 1387              	.LVL201:
 1388 0000 F0B5     		push	{r4, r5, r6, r7, lr}
 1389              		.cfi_def_cfa_offset 20
 1390              		.cfi_offset 4, -20
 1391              		.cfi_offset 5, -16
 1392              		.cfi_offset 6, -12
 1393              		.cfi_offset 7, -8
 1394              		.cfi_offset 14, -4
 1395 0002 83B0     		sub	sp, sp, #12
 1396              		.cfi_def_cfa_offset 32
 1397 0004 0700     		movs	r7, r0
 1398 0006 0D00     		movs	r5, r1
 1399 0008 1400     		movs	r4, r2
 1400 000a 00E0     		b	.L123
 1401              	.LVL202:
 1402              	.L127:
 467:Source\mbedtls_open\library/x509.c ****     }
 1403              		.loc 1 467 0
 1404 000c 0400     		movs	r4, r0
 1405              	.LVL203:
 1406              	.L123:
 431:Source\mbedtls_open\library/x509.c ****                 MBEDTLS_ASN1_CONSTRUCTED | MBEDTLS_ASN1_SET ) ) != 0 )
 1407              		.loc 1 431 0
 1408 000e 3123     		movs	r3, #49
 1409 0010 01AA     		add	r2, sp, #4
 1410 0012 2900     		movs	r1, r5
 1411 0014 3800     		movs	r0, r7
 1412 0016 FFF7FEFF 		bl	mbedtls_asn1_get_tag
 1413              	.LVL204:
 1414 001a 0028     		cmp	r0, #0
 1415 001c 03D0     		beq	.L119
 433:Source\mbedtls_open\library/x509.c **** 
 1416              		.loc 1 433 0
 1417 001e 174B     		ldr	r3, .L128
 1418 0020 9C46     		mov	ip, r3
 1419 0022 6044     		add	r0, r0, ip
 1420              	.LVL205:
 1421 0024 27E0     		b	.L120
 1422              	.LVL206:
 1423              	.L119:
 435:Source\mbedtls_open\library/x509.c **** 
 1424              		.loc 1 435 0
 1425 0026 3B68     		ldr	r3, [r7]
 1426 0028 019A     		ldr	r2, [sp, #4]
 1427 002a 9446     		mov	ip, r2
 1428 002c 6344     		add	r3, r3, ip
 1429 002e 1E00     		movs	r6, r3
 1430              	.LVL207:
 1431              	.L122:
 439:Source\mbedtls_open\library/x509.c ****                 return( ret );
ARM GAS  C:\Users\Phuong\AppData\Local\Temp\cciPItDa.s 			page 39


 1432              		.loc 1 439 0
 1433 0030 2200     		movs	r2, r4
 1434 0032 3100     		movs	r1, r6
 1435 0034 3800     		movs	r0, r7
 1436 0036 FFF7FEFF 		bl	x509_get_attr_type_value
 1437              	.LVL208:
 1438 003a 0028     		cmp	r0, #0
 1439 003c 1BD1     		bne	.L120
 442:Source\mbedtls_open\library/x509.c ****                 break;
 1440              		.loc 1 442 0
 1441 003e 3B68     		ldr	r3, [r7]
 1442 0040 9E42     		cmp	r6, r3
 1443 0042 0AD0     		beq	.L121
 446:Source\mbedtls_open\library/x509.c **** 
 1444              		.loc 1 446 0
 1445 0044 0123     		movs	r3, #1
 1446 0046 2377     		strb	r3, [r4, #28]
 448:Source\mbedtls_open\library/x509.c **** 
 1447              		.loc 1 448 0
 1448 0048 2021     		movs	r1, #32
 1449 004a 0130     		adds	r0, r0, #1
 1450              	.LVL209:
 1451 004c FFF7FEFF 		bl	calloc
 1452              	.LVL210:
 1453 0050 A061     		str	r0, [r4, #24]
 450:Source\mbedtls_open\library/x509.c ****                 return( MBEDTLS_ERR_X509_ALLOC_FAILED );
 1454              		.loc 1 450 0
 1455 0052 0028     		cmp	r0, #0
 1456 0054 0CD0     		beq	.L125
 453:Source\mbedtls_open\library/x509.c ****         }
 1457              		.loc 1 453 0
 1458 0056 0400     		movs	r4, r0
 1459              	.LVL211:
 1460 0058 EAE7     		b	.L122
 1461              	.LVL212:
 1462              	.L121:
 459:Source\mbedtls_open\library/x509.c ****             return( 0 );
 1463              		.loc 1 459 0
 1464 005a 9D42     		cmp	r5, r3
 1465 005c 0AD0     		beq	.L126
 462:Source\mbedtls_open\library/x509.c **** 
 1466              		.loc 1 462 0
 1467 005e 2021     		movs	r1, #32
 1468 0060 0120     		movs	r0, #1
 1469              	.LVL213:
 1470 0062 FFF7FEFF 		bl	calloc
 1471              	.LVL214:
 1472 0066 A061     		str	r0, [r4, #24]
 464:Source\mbedtls_open\library/x509.c ****             return( MBEDTLS_ERR_X509_ALLOC_FAILED );
 1473              		.loc 1 464 0
 1474 0068 0028     		cmp	r0, #0
 1475 006a CFD1     		bne	.L127
 465:Source\mbedtls_open\library/x509.c **** 
 1476              		.loc 1 465 0
 1477 006c 0448     		ldr	r0, .L128+4
 1478 006e 02E0     		b	.L120
 1479              	.L125:
ARM GAS  C:\Users\Phuong\AppData\Local\Temp\cciPItDa.s 			page 40


 451:Source\mbedtls_open\library/x509.c **** 
 1480              		.loc 1 451 0
 1481 0070 0348     		ldr	r0, .L128+4
 1482 0072 00E0     		b	.L120
 1483              	.LVL215:
 1484              	.L126:
 460:Source\mbedtls_open\library/x509.c **** 
 1485              		.loc 1 460 0
 1486 0074 0020     		movs	r0, #0
 1487              	.LVL216:
 1488              	.L120:
 469:Source\mbedtls_open\library/x509.c **** 
 1489              		.loc 1 469 0
 1490 0076 03B0     		add	sp, sp, #12
 1491              		@ sp needed
 1492              	.LVL217:
 1493              	.LVL218:
 1494              	.LVL219:
 1495 0078 F0BD     		pop	{r4, r5, r6, r7, pc}
 1496              	.L129:
 1497 007a C046     		.align	2
 1498              	.L128:
 1499 007c 80DCFFFF 		.word	-9088
 1500 0080 80D7FFFF 		.word	-10368
 1501              		.cfi_endproc
 1502              	.LFE17:
 1503              		.size	mbedtls_x509_get_name, .-mbedtls_x509_get_name
 1504              		.section	.text.mbedtls_x509_get_time,"ax",%progbits
 1505              		.align	2
 1506              		.global	mbedtls_x509_get_time
 1507              		.code	16
 1508              		.thumb_func
 1509              		.type	mbedtls_x509_get_time, %function
 1510              	mbedtls_x509_get_time:
 1511              	.LFB21:
 583:Source\mbedtls_open\library/x509.c **** 
 584:Source\mbedtls_open\library/x509.c **** /*
 585:Source\mbedtls_open\library/x509.c ****  *  Time ::= CHOICE {
 586:Source\mbedtls_open\library/x509.c ****  *       utcTime        UTCTime,
 587:Source\mbedtls_open\library/x509.c ****  *       generalTime    GeneralizedTime }
 588:Source\mbedtls_open\library/x509.c ****  */
 589:Source\mbedtls_open\library/x509.c **** int mbedtls_x509_get_time( unsigned char **p, const unsigned char *end,
 590:Source\mbedtls_open\library/x509.c ****                            mbedtls_x509_time *tm )
 591:Source\mbedtls_open\library/x509.c **** {
 1512              		.loc 1 591 0
 1513              		.cfi_startproc
 1514              		@ args = 0, pretend = 0, frame = 8
 1515              		@ frame_needed = 0, uses_anonymous_args = 0
 1516              	.LVL220:
 1517 0000 70B5     		push	{r4, r5, r6, lr}
 1518              		.cfi_def_cfa_offset 16
 1519              		.cfi_offset 4, -16
 1520              		.cfi_offset 5, -12
 1521              		.cfi_offset 6, -8
 1522              		.cfi_offset 14, -4
 1523 0002 82B0     		sub	sp, sp, #8
 1524              		.cfi_def_cfa_offset 24
ARM GAS  C:\Users\Phuong\AppData\Local\Temp\cciPItDa.s 			page 41


 1525 0004 0600     		movs	r6, r0
 1526 0006 1400     		movs	r4, r2
 592:Source\mbedtls_open\library/x509.c ****     int ret;
 593:Source\mbedtls_open\library/x509.c ****     size_t len, year_len;
 594:Source\mbedtls_open\library/x509.c ****     unsigned char tag;
 595:Source\mbedtls_open\library/x509.c **** 
 596:Source\mbedtls_open\library/x509.c ****     if( ( end - *p ) < 1 )
 1527              		.loc 1 596 0
 1528 0008 0368     		ldr	r3, [r0]
 1529 000a CA1A     		subs	r2, r1, r3
 1530              	.LVL221:
 1531 000c 002A     		cmp	r2, #0
 1532 000e 1ADD     		ble	.L134
 597:Source\mbedtls_open\library/x509.c ****         return( MBEDTLS_ERR_X509_INVALID_DATE +
 598:Source\mbedtls_open\library/x509.c ****                 MBEDTLS_ERR_ASN1_OUT_OF_DATA );
 599:Source\mbedtls_open\library/x509.c **** 
 600:Source\mbedtls_open\library/x509.c ****     tag = **p;
 1533              		.loc 1 600 0
 1534 0010 1A78     		ldrb	r2, [r3]
 1535              	.LVL222:
 601:Source\mbedtls_open\library/x509.c **** 
 602:Source\mbedtls_open\library/x509.c ****     if( tag == MBEDTLS_ASN1_UTC_TIME )
 1536              		.loc 1 602 0
 1537 0012 172A     		cmp	r2, #23
 1538 0014 03D0     		beq	.L135
 603:Source\mbedtls_open\library/x509.c ****         year_len = 2;
 604:Source\mbedtls_open\library/x509.c ****     else if( tag == MBEDTLS_ASN1_GENERALIZED_TIME )
 1539              		.loc 1 604 0
 1540 0016 182A     		cmp	r2, #24
 1541 0018 17D1     		bne	.L136
 605:Source\mbedtls_open\library/x509.c ****         year_len = 4;
 1542              		.loc 1 605 0
 1543 001a 0425     		movs	r5, #4
 1544 001c 00E0     		b	.L132
 1545              	.L135:
 603:Source\mbedtls_open\library/x509.c ****         year_len = 2;
 1546              		.loc 1 603 0
 1547 001e 0225     		movs	r5, #2
 1548              	.L132:
 1549              	.LVL223:
 606:Source\mbedtls_open\library/x509.c ****     else
 607:Source\mbedtls_open\library/x509.c ****         return( MBEDTLS_ERR_X509_INVALID_DATE +
 608:Source\mbedtls_open\library/x509.c ****                 MBEDTLS_ERR_ASN1_UNEXPECTED_TAG );
 609:Source\mbedtls_open\library/x509.c **** 
 610:Source\mbedtls_open\library/x509.c ****     (*p)++;
 1550              		.loc 1 610 0
 1551 0020 0133     		adds	r3, r3, #1
 1552 0022 3360     		str	r3, [r6]
 611:Source\mbedtls_open\library/x509.c ****     ret = mbedtls_asn1_get_len( p, end, &len );
 1553              		.loc 1 611 0
 1554 0024 01AA     		add	r2, sp, #4
 1555              	.LVL224:
 1556 0026 3000     		movs	r0, r6
 1557              	.LVL225:
 1558 0028 FFF7FEFF 		bl	mbedtls_asn1_get_len
 1559              	.LVL226:
 612:Source\mbedtls_open\library/x509.c **** 
ARM GAS  C:\Users\Phuong\AppData\Local\Temp\cciPItDa.s 			page 42


 613:Source\mbedtls_open\library/x509.c ****     if( ret != 0 )
 1560              		.loc 1 613 0
 1561 002c 0028     		cmp	r0, #0
 1562 002e 03D0     		beq	.L133
 614:Source\mbedtls_open\library/x509.c ****         return( MBEDTLS_ERR_X509_INVALID_DATE + ret );
 1563              		.loc 1 614 0
 1564 0030 074B     		ldr	r3, .L137
 1565 0032 9C46     		mov	ip, r3
 1566 0034 6044     		add	r0, r0, ip
 1567              	.LVL227:
 1568 0036 09E0     		b	.L131
 1569              	.LVL228:
 1570              	.L133:
 615:Source\mbedtls_open\library/x509.c **** 
 616:Source\mbedtls_open\library/x509.c ****     return x509_parse_time( p, len, year_len, tm );
 1571              		.loc 1 616 0
 1572 0038 2300     		movs	r3, r4
 1573 003a 2A00     		movs	r2, r5
 1574 003c 0199     		ldr	r1, [sp, #4]
 1575 003e 3000     		movs	r0, r6
 1576              	.LVL229:
 1577 0040 FFF7FEFF 		bl	x509_parse_time
 1578              	.LVL230:
 1579 0044 02E0     		b	.L131
 1580              	.LVL231:
 1581              	.L134:
 597:Source\mbedtls_open\library/x509.c ****                 MBEDTLS_ERR_ASN1_OUT_OF_DATA );
 1582              		.loc 1 597 0
 1583 0046 0348     		ldr	r0, .L137+4
 1584              	.LVL232:
 1585 0048 00E0     		b	.L131
 1586              	.LVL233:
 1587              	.L136:
 607:Source\mbedtls_open\library/x509.c ****                 MBEDTLS_ERR_ASN1_UNEXPECTED_TAG );
 1588              		.loc 1 607 0
 1589 004a 0348     		ldr	r0, .L137+8
 1590              	.LVL234:
 1591              	.L131:
 617:Source\mbedtls_open\library/x509.c **** }
 1592              		.loc 1 617 0
 1593 004c 02B0     		add	sp, sp, #8
 1594              		@ sp needed
 1595              	.LVL235:
 1596              	.LVL236:
 1597 004e 70BD     		pop	{r4, r5, r6, pc}
 1598              	.L138:
 1599              		.align	2
 1600              	.L137:
 1601 0050 00DCFFFF 		.word	-9216
 1602 0054 A0DBFFFF 		.word	-9312
 1603 0058 9EDBFFFF 		.word	-9314
 1604              		.cfi_endproc
 1605              	.LFE21:
 1606              		.size	mbedtls_x509_get_time, .-mbedtls_x509_get_time
 1607              		.section	.text.mbedtls_x509_get_sig,"ax",%progbits
 1608              		.align	2
 1609              		.global	mbedtls_x509_get_sig
ARM GAS  C:\Users\Phuong\AppData\Local\Temp\cciPItDa.s 			page 43


 1610              		.code	16
 1611              		.thumb_func
 1612              		.type	mbedtls_x509_get_sig, %function
 1613              	mbedtls_x509_get_sig:
 1614              	.LFB22:
 618:Source\mbedtls_open\library/x509.c **** 
 619:Source\mbedtls_open\library/x509.c **** int mbedtls_x509_get_sig( unsigned char **p, const unsigned char *end, mbedtls_x509_buf *sig )
 620:Source\mbedtls_open\library/x509.c **** {
 1615              		.loc 1 620 0
 1616              		.cfi_startproc
 1617              		@ args = 0, pretend = 0, frame = 8
 1618              		@ frame_needed = 0, uses_anonymous_args = 0
 1619              	.LVL237:
 1620 0000 70B5     		push	{r4, r5, r6, lr}
 1621              		.cfi_def_cfa_offset 16
 1622              		.cfi_offset 4, -16
 1623              		.cfi_offset 5, -12
 1624              		.cfi_offset 6, -8
 1625              		.cfi_offset 14, -4
 1626 0002 82B0     		sub	sp, sp, #8
 1627              		.cfi_def_cfa_offset 24
 1628 0004 0400     		movs	r4, r0
 1629 0006 1500     		movs	r5, r2
 621:Source\mbedtls_open\library/x509.c ****     int ret;
 622:Source\mbedtls_open\library/x509.c ****     size_t len;
 623:Source\mbedtls_open\library/x509.c ****     int tag_type;
 624:Source\mbedtls_open\library/x509.c **** 
 625:Source\mbedtls_open\library/x509.c ****     if( ( end - *p ) < 1 )
 1630              		.loc 1 625 0
 1631 0008 0368     		ldr	r3, [r0]
 1632 000a CA1A     		subs	r2, r1, r3
 1633              	.LVL238:
 1634 000c 002A     		cmp	r2, #0
 1635 000e 14DD     		ble	.L142
 626:Source\mbedtls_open\library/x509.c ****         return( MBEDTLS_ERR_X509_INVALID_SIGNATURE +
 627:Source\mbedtls_open\library/x509.c ****                 MBEDTLS_ERR_ASN1_OUT_OF_DATA );
 628:Source\mbedtls_open\library/x509.c **** 
 629:Source\mbedtls_open\library/x509.c ****     tag_type = **p;
 1636              		.loc 1 629 0
 1637 0010 1E78     		ldrb	r6, [r3]
 1638              	.LVL239:
 630:Source\mbedtls_open\library/x509.c **** 
 631:Source\mbedtls_open\library/x509.c ****     if( ( ret = mbedtls_asn1_get_bitstring_null( p, end, &len ) ) != 0 )
 1639              		.loc 1 631 0
 1640 0012 01AA     		add	r2, sp, #4
 1641 0014 FFF7FEFF 		bl	mbedtls_asn1_get_bitstring_null
 1642              	.LVL240:
 1643 0018 0028     		cmp	r0, #0
 1644 001a 03D0     		beq	.L141
 632:Source\mbedtls_open\library/x509.c ****         return( MBEDTLS_ERR_X509_INVALID_SIGNATURE + ret );
 1645              		.loc 1 632 0
 1646 001c 084B     		ldr	r3, .L143
 1647 001e 9C46     		mov	ip, r3
 1648 0020 6044     		add	r0, r0, ip
 1649              	.LVL241:
 1650 0022 0BE0     		b	.L140
 1651              	.LVL242:
ARM GAS  C:\Users\Phuong\AppData\Local\Temp\cciPItDa.s 			page 44


 1652              	.L141:
 633:Source\mbedtls_open\library/x509.c **** 
 634:Source\mbedtls_open\library/x509.c ****     sig->tag = tag_type;
 1653              		.loc 1 634 0
 1654 0024 2E60     		str	r6, [r5]
 635:Source\mbedtls_open\library/x509.c ****     sig->len = len;
 1655              		.loc 1 635 0
 1656 0026 019B     		ldr	r3, [sp, #4]
 1657 0028 6B60     		str	r3, [r5, #4]
 636:Source\mbedtls_open\library/x509.c ****     sig->p = *p;
 1658              		.loc 1 636 0
 1659 002a 2268     		ldr	r2, [r4]
 1660 002c AA60     		str	r2, [r5, #8]
 637:Source\mbedtls_open\library/x509.c **** 
 638:Source\mbedtls_open\library/x509.c ****     *p += len;
 1661              		.loc 1 638 0
 1662 002e 2268     		ldr	r2, [r4]
 1663 0030 9446     		mov	ip, r2
 1664 0032 6344     		add	r3, r3, ip
 1665 0034 2360     		str	r3, [r4]
 639:Source\mbedtls_open\library/x509.c **** 
 640:Source\mbedtls_open\library/x509.c ****     return( 0 );
 1666              		.loc 1 640 0
 1667 0036 0020     		movs	r0, #0
 1668              	.LVL243:
 1669 0038 00E0     		b	.L140
 1670              	.LVL244:
 1671              	.L142:
 626:Source\mbedtls_open\library/x509.c ****                 MBEDTLS_ERR_ASN1_OUT_OF_DATA );
 1672              		.loc 1 626 0
 1673 003a 0248     		ldr	r0, .L143+4
 1674              	.LVL245:
 1675              	.L140:
 641:Source\mbedtls_open\library/x509.c **** }
 1676              		.loc 1 641 0
 1677 003c 02B0     		add	sp, sp, #8
 1678              		@ sp needed
 1679              	.LVL246:
 1680              	.LVL247:
 1681 003e 70BD     		pop	{r4, r5, r6, pc}
 1682              	.L144:
 1683              		.align	2
 1684              	.L143:
 1685 0040 80DBFFFF 		.word	-9344
 1686 0044 20DBFFFF 		.word	-9440
 1687              		.cfi_endproc
 1688              	.LFE22:
 1689              		.size	mbedtls_x509_get_sig, .-mbedtls_x509_get_sig
 1690              		.section	.text.mbedtls_x509_get_sig_alg,"ax",%progbits
 1691              		.align	2
 1692              		.global	mbedtls_x509_get_sig_alg
 1693              		.code	16
 1694              		.thumb_func
 1695              		.type	mbedtls_x509_get_sig_alg, %function
 1696              	mbedtls_x509_get_sig_alg:
 1697              	.LFB23:
 642:Source\mbedtls_open\library/x509.c **** 
ARM GAS  C:\Users\Phuong\AppData\Local\Temp\cciPItDa.s 			page 45


 643:Source\mbedtls_open\library/x509.c **** /*
 644:Source\mbedtls_open\library/x509.c ****  * Get signature algorithm from alg OID and optional parameters
 645:Source\mbedtls_open\library/x509.c ****  */
 646:Source\mbedtls_open\library/x509.c **** int mbedtls_x509_get_sig_alg( const mbedtls_x509_buf *sig_oid, const mbedtls_x509_buf *sig_params,
 647:Source\mbedtls_open\library/x509.c ****                       mbedtls_md_type_t *md_alg, mbedtls_pk_type_t *pk_alg,
 648:Source\mbedtls_open\library/x509.c ****                       void **sig_opts )
 649:Source\mbedtls_open\library/x509.c **** {
 1698              		.loc 1 649 0
 1699              		.cfi_startproc
 1700              		@ args = 4, pretend = 0, frame = 0
 1701              		@ frame_needed = 0, uses_anonymous_args = 0
 1702              	.LVL248:
 1703 0000 F8B5     		push	{r3, r4, r5, r6, r7, lr}
 1704              		.cfi_def_cfa_offset 24
 1705              		.cfi_offset 3, -24
 1706              		.cfi_offset 4, -20
 1707              		.cfi_offset 5, -16
 1708              		.cfi_offset 6, -12
 1709              		.cfi_offset 7, -8
 1710              		.cfi_offset 14, -4
 1711 0002 0F00     		movs	r7, r1
 1712 0004 1600     		movs	r6, r2
 1713 0006 1C00     		movs	r4, r3
 1714 0008 069D     		ldr	r5, [sp, #24]
 650:Source\mbedtls_open\library/x509.c ****     int ret;
 651:Source\mbedtls_open\library/x509.c **** 
 652:Source\mbedtls_open\library/x509.c ****     if( *sig_opts != NULL )
 1715              		.loc 1 652 0
 1716 000a 2B68     		ldr	r3, [r5]
 1717              	.LVL249:
 1718 000c 002B     		cmp	r3, #0
 1719 000e 2CD1     		bne	.L151
 653:Source\mbedtls_open\library/x509.c ****         return( MBEDTLS_ERR_X509_BAD_INPUT_DATA );
 654:Source\mbedtls_open\library/x509.c **** 
 655:Source\mbedtls_open\library/x509.c ****     if( ( ret = mbedtls_oid_get_sig_alg( sig_oid, md_alg, pk_alg ) ) != 0 )
 1720              		.loc 1 655 0
 1721 0010 2200     		movs	r2, r4
 1722              	.LVL250:
 1723 0012 3100     		movs	r1, r6
 1724              	.LVL251:
 1725 0014 FFF7FEFF 		bl	mbedtls_oid_get_sig_alg
 1726              	.LVL252:
 1727 0018 0028     		cmp	r0, #0
 1728 001a 03D0     		beq	.L147
 656:Source\mbedtls_open\library/x509.c ****         return( MBEDTLS_ERR_X509_UNKNOWN_SIG_ALG + ret );
 1729              		.loc 1 656 0
 1730 001c 174B     		ldr	r3, .L155
 1731 001e 9C46     		mov	ip, r3
 1732 0020 6044     		add	r0, r0, ip
 1733              	.LVL253:
 1734 0022 29E0     		b	.L146
 1735              	.LVL254:
 1736              	.L147:
 657:Source\mbedtls_open\library/x509.c **** 
 658:Source\mbedtls_open\library/x509.c **** #if defined(MBEDTLS_X509_RSASSA_PSS_SUPPORT)
 659:Source\mbedtls_open\library/x509.c ****     if( *pk_alg == MBEDTLS_PK_RSASSA_PSS )
 1737              		.loc 1 659 0
ARM GAS  C:\Users\Phuong\AppData\Local\Temp\cciPItDa.s 			page 46


 1738 0024 2378     		ldrb	r3, [r4]
 1739 0026 062B     		cmp	r3, #6
 1740 0028 15D1     		bne	.L148
 1741              	.LBB3:
 660:Source\mbedtls_open\library/x509.c ****     {
 661:Source\mbedtls_open\library/x509.c ****         mbedtls_pk_rsassa_pss_options *pss_opts;
 662:Source\mbedtls_open\library/x509.c **** 
 663:Source\mbedtls_open\library/x509.c ****         pss_opts = mbedtls_calloc( 1, sizeof( mbedtls_pk_rsassa_pss_options ) );
 1742              		.loc 1 663 0
 1743 002a 0821     		movs	r1, #8
 1744 002c 0120     		movs	r0, #1
 1745              	.LVL255:
 1746 002e FFF7FEFF 		bl	calloc
 1747              	.LVL256:
 1748 0032 041E     		subs	r4, r0, #0
 1749              	.LVL257:
 664:Source\mbedtls_open\library/x509.c ****         if( pss_opts == NULL )
 1750              		.loc 1 664 0
 1751 0034 1BD0     		beq	.L152
 665:Source\mbedtls_open\library/x509.c ****             return( MBEDTLS_ERR_X509_ALLOC_FAILED );
 666:Source\mbedtls_open\library/x509.c **** 
 667:Source\mbedtls_open\library/x509.c ****         ret = mbedtls_x509_get_rsassa_pss_params( sig_params,
 1752              		.loc 1 667 0
 1753 0036 031D     		adds	r3, r0, #4
 1754 0038 0200     		movs	r2, r0
 1755 003a 3100     		movs	r1, r6
 1756 003c 3800     		movs	r0, r7
 1757              	.LVL258:
 1758 003e FFF7FEFF 		bl	mbedtls_x509_get_rsassa_pss_params
 1759              	.LVL259:
 1760 0042 061E     		subs	r6, r0, #0
 1761              	.LVL260:
 668:Source\mbedtls_open\library/x509.c ****                                           md_alg,
 669:Source\mbedtls_open\library/x509.c ****                                           &pss_opts->mgf1_hash_id,
 670:Source\mbedtls_open\library/x509.c ****                                           &pss_opts->expected_salt_len );
 671:Source\mbedtls_open\library/x509.c ****         if( ret != 0 )
 1762              		.loc 1 671 0
 1763 0044 04D0     		beq	.L149
 672:Source\mbedtls_open\library/x509.c ****         {
 673:Source\mbedtls_open\library/x509.c ****             mbedtls_free( pss_opts );
 1764              		.loc 1 673 0
 1765 0046 2000     		movs	r0, r4
 1766              	.LVL261:
 1767 0048 FFF7FEFF 		bl	free
 1768              	.LVL262:
 674:Source\mbedtls_open\library/x509.c ****             return( ret );
 1769              		.loc 1 674 0
 1770 004c 3000     		movs	r0, r6
 1771 004e 13E0     		b	.L146
 1772              	.L149:
 675:Source\mbedtls_open\library/x509.c ****         }
 676:Source\mbedtls_open\library/x509.c **** 
 677:Source\mbedtls_open\library/x509.c ****         *sig_opts = (void *) pss_opts;
 1773              		.loc 1 677 0
 1774 0050 2C60     		str	r4, [r5]
 1775              	.LBE3:
 678:Source\mbedtls_open\library/x509.c ****     }
ARM GAS  C:\Users\Phuong\AppData\Local\Temp\cciPItDa.s 			page 47


 679:Source\mbedtls_open\library/x509.c ****     else
 680:Source\mbedtls_open\library/x509.c **** #endif /* MBEDTLS_X509_RSASSA_PSS_SUPPORT */
 681:Source\mbedtls_open\library/x509.c ****     {
 682:Source\mbedtls_open\library/x509.c ****         /* Make sure parameters are absent or NULL */
 683:Source\mbedtls_open\library/x509.c ****         if( ( sig_params->tag != MBEDTLS_ASN1_NULL && sig_params->tag != 0 ) ||
 684:Source\mbedtls_open\library/x509.c ****               sig_params->len != 0 )
 685:Source\mbedtls_open\library/x509.c ****         return( MBEDTLS_ERR_X509_INVALID_ALG );
 686:Source\mbedtls_open\library/x509.c ****     }
 687:Source\mbedtls_open\library/x509.c **** 
 688:Source\mbedtls_open\library/x509.c ****     return( 0 );
 1776              		.loc 1 688 0
 1777 0052 0020     		movs	r0, #0
 1778 0054 10E0     		b	.L146
 1779              	.LVL263:
 1780              	.L148:
 683:Source\mbedtls_open\library/x509.c ****               sig_params->len != 0 )
 1781              		.loc 1 683 0
 1782 0056 3B68     		ldr	r3, [r7]
 1783 0058 052B     		cmp	r3, #5
 1784 005a 01D0     		beq	.L150
 683:Source\mbedtls_open\library/x509.c ****               sig_params->len != 0 )
 1785              		.loc 1 683 0 is_stmt 0 discriminator 1
 1786 005c 002B     		cmp	r3, #0
 1787 005e 08D1     		bne	.L153
 1788              	.L150:
 684:Source\mbedtls_open\library/x509.c ****         return( MBEDTLS_ERR_X509_INVALID_ALG );
 1789              		.loc 1 684 0 is_stmt 1 discriminator 3
 1790 0060 7B68     		ldr	r3, [r7, #4]
 683:Source\mbedtls_open\library/x509.c ****               sig_params->len != 0 )
 1791              		.loc 1 683 0 discriminator 3
 1792 0062 002B     		cmp	r3, #0
 1793 0064 07D0     		beq	.L154
 685:Source\mbedtls_open\library/x509.c ****     }
 1794              		.loc 1 685 0
 1795 0066 0648     		ldr	r0, .L155+4
 1796              	.LVL264:
 1797 0068 06E0     		b	.L146
 1798              	.LVL265:
 1799              	.L151:
 653:Source\mbedtls_open\library/x509.c **** 
 1800              		.loc 1 653 0
 1801 006a 0648     		ldr	r0, .L155+8
 1802              	.LVL266:
 1803 006c 04E0     		b	.L146
 1804              	.LVL267:
 1805              	.L152:
 1806              	.LBB4:
 665:Source\mbedtls_open\library/x509.c **** 
 1807              		.loc 1 665 0
 1808 006e 0648     		ldr	r0, .L155+12
 1809              	.LVL268:
 1810 0070 02E0     		b	.L146
 1811              	.LVL269:
 1812              	.L153:
 1813              	.LBE4:
 685:Source\mbedtls_open\library/x509.c ****     }
 1814              		.loc 1 685 0
ARM GAS  C:\Users\Phuong\AppData\Local\Temp\cciPItDa.s 			page 48


 1815 0072 0348     		ldr	r0, .L155+4
 1816              	.LVL270:
 1817 0074 00E0     		b	.L146
 1818              	.LVL271:
 1819              	.L154:
 1820              		.loc 1 688 0
 1821 0076 0020     		movs	r0, #0
 1822              	.LVL272:
 1823              	.L146:
 689:Source\mbedtls_open\library/x509.c **** }
 1824              		.loc 1 689 0
 1825              		@ sp needed
 1826              	.LVL273:
 1827 0078 F8BD     		pop	{r3, r4, r5, r6, r7, pc}
 1828              	.L156:
 1829 007a C046     		.align	2
 1830              	.L155:
 1831 007c 00DAFFFF 		.word	-9728
 1832 0080 00DDFFFF 		.word	-8960
 1833 0084 00D8FFFF 		.word	-10240
 1834 0088 80D7FFFF 		.word	-10368
 1835              		.cfi_endproc
 1836              	.LFE23:
 1837              		.size	mbedtls_x509_get_sig_alg, .-mbedtls_x509_get_sig_alg
 1838              		.section	.text.mbedtls_x509_get_ext,"ax",%progbits
 1839              		.align	2
 1840              		.global	mbedtls_x509_get_ext
 1841              		.code	16
 1842              		.thumb_func
 1843              		.type	mbedtls_x509_get_ext, %function
 1844              	mbedtls_x509_get_ext:
 1845              	.LFB24:
 690:Source\mbedtls_open\library/x509.c **** 
 691:Source\mbedtls_open\library/x509.c **** /*
 692:Source\mbedtls_open\library/x509.c ****  * X.509 Extensions (No parsing of extensions, pointer should
 693:Source\mbedtls_open\library/x509.c ****  * be either manually updated or extensions should be parsed!)
 694:Source\mbedtls_open\library/x509.c ****  */
 695:Source\mbedtls_open\library/x509.c **** int mbedtls_x509_get_ext( unsigned char **p, const unsigned char *end,
 696:Source\mbedtls_open\library/x509.c ****                   mbedtls_x509_buf *ext, int tag )
 697:Source\mbedtls_open\library/x509.c **** {
 1846              		.loc 1 697 0
 1847              		.cfi_startproc
 1848              		@ args = 0, pretend = 0, frame = 8
 1849              		@ frame_needed = 0, uses_anonymous_args = 0
 1850              	.LVL274:
 1851 0000 30B5     		push	{r4, r5, lr}
 1852              		.cfi_def_cfa_offset 12
 1853              		.cfi_offset 4, -12
 1854              		.cfi_offset 5, -8
 1855              		.cfi_offset 14, -4
 1856 0002 83B0     		sub	sp, sp, #12
 1857              		.cfi_def_cfa_offset 24
 1858 0004 0400     		movs	r4, r0
 1859 0006 1500     		movs	r5, r2
 698:Source\mbedtls_open\library/x509.c ****     int ret;
 699:Source\mbedtls_open\library/x509.c ****     size_t len;
 700:Source\mbedtls_open\library/x509.c **** 
ARM GAS  C:\Users\Phuong\AppData\Local\Temp\cciPItDa.s 			page 49


 701:Source\mbedtls_open\library/x509.c ****     if( *p == end )
 1860              		.loc 1 701 0
 1861 0008 0268     		ldr	r2, [r0]
 1862              	.LVL275:
 1863 000a 8A42     		cmp	r2, r1
 1864 000c 23D0     		beq	.L160
 702:Source\mbedtls_open\library/x509.c ****         return( 0 );
 703:Source\mbedtls_open\library/x509.c **** 
 704:Source\mbedtls_open\library/x509.c ****     ext->tag = **p;
 1865              		.loc 1 704 0
 1866 000e 1078     		ldrb	r0, [r2]
 1867              	.LVL276:
 1868 0010 2A00     		movs	r2, r5
 1869 0012 01C2     		stmia	r2!, {r0}
 705:Source\mbedtls_open\library/x509.c **** 
 706:Source\mbedtls_open\library/x509.c ****     if( ( ret = mbedtls_asn1_get_tag( p, end, &ext->len,
 1870              		.loc 1 706 0
 1871 0014 A020     		movs	r0, #160
 1872 0016 0343     		orrs	r3, r0
 1873              	.LVL277:
 1874 0018 2000     		movs	r0, r4
 1875 001a FFF7FEFF 		bl	mbedtls_asn1_get_tag
 1876              	.LVL278:
 1877 001e 0028     		cmp	r0, #0
 1878 0020 1CD1     		bne	.L158
 707:Source\mbedtls_open\library/x509.c ****             MBEDTLS_ASN1_CONTEXT_SPECIFIC | MBEDTLS_ASN1_CONSTRUCTED | tag ) ) != 0 )
 708:Source\mbedtls_open\library/x509.c ****         return( ret );
 709:Source\mbedtls_open\library/x509.c **** 
 710:Source\mbedtls_open\library/x509.c ****     ext->p = *p;
 1879              		.loc 1 710 0
 1880 0022 2368     		ldr	r3, [r4]
 1881 0024 AB60     		str	r3, [r5, #8]
 711:Source\mbedtls_open\library/x509.c ****     end = *p + ext->len;
 1882              		.loc 1 711 0
 1883 0026 6D68     		ldr	r5, [r5, #4]
 1884              	.LVL279:
 1885 0028 2368     		ldr	r3, [r4]
 1886 002a 9C46     		mov	ip, r3
 1887 002c 6544     		add	r5, r5, ip
 1888              	.LVL280:
 712:Source\mbedtls_open\library/x509.c **** 
 713:Source\mbedtls_open\library/x509.c ****     /*
 714:Source\mbedtls_open\library/x509.c ****      * Extensions  ::=  SEQUENCE SIZE (1..MAX) OF Extension
 715:Source\mbedtls_open\library/x509.c ****      *
 716:Source\mbedtls_open\library/x509.c ****      * Extension  ::=  SEQUENCE  {
 717:Source\mbedtls_open\library/x509.c ****      *      extnID      OBJECT IDENTIFIER,
 718:Source\mbedtls_open\library/x509.c ****      *      critical    BOOLEAN DEFAULT FALSE,
 719:Source\mbedtls_open\library/x509.c ****      *      extnValue   OCTET STRING  }
 720:Source\mbedtls_open\library/x509.c ****      */
 721:Source\mbedtls_open\library/x509.c ****     if( ( ret = mbedtls_asn1_get_tag( p, end, &len,
 1889              		.loc 1 721 0
 1890 002e 3023     		movs	r3, #48
 1891 0030 01AA     		add	r2, sp, #4
 1892 0032 2900     		movs	r1, r5
 1893 0034 2000     		movs	r0, r4
 1894              	.LVL281:
 1895 0036 FFF7FEFF 		bl	mbedtls_asn1_get_tag
ARM GAS  C:\Users\Phuong\AppData\Local\Temp\cciPItDa.s 			page 50


 1896              	.LVL282:
 1897 003a 0028     		cmp	r0, #0
 1898 003c 03D0     		beq	.L159
 722:Source\mbedtls_open\library/x509.c ****             MBEDTLS_ASN1_CONSTRUCTED | MBEDTLS_ASN1_SEQUENCE ) ) != 0 )
 723:Source\mbedtls_open\library/x509.c ****         return( MBEDTLS_ERR_X509_INVALID_EXTENSIONS + ret );
 1899              		.loc 1 723 0
 1900 003e 084B     		ldr	r3, .L163
 1901 0040 9C46     		mov	ip, r3
 1902 0042 6044     		add	r0, r0, ip
 1903              	.LVL283:
 1904 0044 0AE0     		b	.L158
 1905              	.LVL284:
 1906              	.L159:
 724:Source\mbedtls_open\library/x509.c **** 
 725:Source\mbedtls_open\library/x509.c ****     if( end != *p + len )
 1907              		.loc 1 725 0
 1908 0046 2368     		ldr	r3, [r4]
 1909 0048 019A     		ldr	r2, [sp, #4]
 1910 004a 9446     		mov	ip, r2
 1911 004c 6344     		add	r3, r3, ip
 1912 004e 9D42     		cmp	r5, r3
 1913 0050 03D0     		beq	.L162
 726:Source\mbedtls_open\library/x509.c ****         return( MBEDTLS_ERR_X509_INVALID_EXTENSIONS +
 1914              		.loc 1 726 0
 1915 0052 0448     		ldr	r0, .L163+4
 1916              	.LVL285:
 1917 0054 02E0     		b	.L158
 1918              	.LVL286:
 1919              	.L160:
 702:Source\mbedtls_open\library/x509.c **** 
 1920              		.loc 1 702 0
 1921 0056 0020     		movs	r0, #0
 1922              	.LVL287:
 1923 0058 00E0     		b	.L158
 1924              	.LVL288:
 1925              	.L162:
 727:Source\mbedtls_open\library/x509.c ****                 MBEDTLS_ERR_ASN1_LENGTH_MISMATCH );
 728:Source\mbedtls_open\library/x509.c **** 
 729:Source\mbedtls_open\library/x509.c ****     return( 0 );
 1926              		.loc 1 729 0
 1927 005a 0020     		movs	r0, #0
 1928              	.LVL289:
 1929              	.L158:
 730:Source\mbedtls_open\library/x509.c **** }
 1930              		.loc 1 730 0
 1931 005c 03B0     		add	sp, sp, #12
 1932              		@ sp needed
 1933              	.LVL290:
 1934 005e 30BD     		pop	{r4, r5, pc}
 1935              	.L164:
 1936              		.align	2
 1937              	.L163:
 1938 0060 00DBFFFF 		.word	-9472
 1939 0064 9ADAFFFF 		.word	-9574
 1940              		.cfi_endproc
 1941              	.LFE24:
 1942              		.size	mbedtls_x509_get_ext, .-mbedtls_x509_get_ext
ARM GAS  C:\Users\Phuong\AppData\Local\Temp\cciPItDa.s 			page 51


 1943              		.section	.text.mbedtls_x509_dn_gets,"ax",%progbits
 1944              		.align	2
 1945              		.global	mbedtls_x509_dn_gets
 1946              		.code	16
 1947              		.thumb_func
 1948              		.type	mbedtls_x509_dn_gets, %function
 1949              	mbedtls_x509_dn_gets:
 1950              	.LFB25:
 731:Source\mbedtls_open\library/x509.c **** 
 732:Source\mbedtls_open\library/x509.c **** /*
 733:Source\mbedtls_open\library/x509.c ****  * Store the name in printable form into buf; no more
 734:Source\mbedtls_open\library/x509.c ****  * than size characters will be written
 735:Source\mbedtls_open\library/x509.c ****  */
 736:Source\mbedtls_open\library/x509.c **** int mbedtls_x509_dn_gets( char *buf, size_t size, const mbedtls_x509_name *dn )
 737:Source\mbedtls_open\library/x509.c **** {
 1951              		.loc 1 737 0
 1952              		.cfi_startproc
 1953              		@ args = 0, pretend = 0, frame = 272
 1954              		@ frame_needed = 0, uses_anonymous_args = 0
 1955              	.LVL291:
 1956 0000 F0B5     		push	{r4, r5, r6, r7, lr}
 1957              		.cfi_def_cfa_offset 20
 1958              		.cfi_offset 4, -20
 1959              		.cfi_offset 5, -16
 1960              		.cfi_offset 6, -12
 1961              		.cfi_offset 7, -8
 1962              		.cfi_offset 14, -4
 1963 0002 C5B0     		sub	sp, sp, #276
 1964              		.cfi_def_cfa_offset 296
 1965 0004 0700     		movs	r7, r0
 1966 0006 0E00     		movs	r6, r1
 1967 0008 0191     		str	r1, [sp, #4]
 1968 000a 1500     		movs	r5, r2
 1969              	.LVL292:
 738:Source\mbedtls_open\library/x509.c ****     int ret;
 739:Source\mbedtls_open\library/x509.c ****     size_t i, n;
 740:Source\mbedtls_open\library/x509.c ****     unsigned char c, merge = 0;
 741:Source\mbedtls_open\library/x509.c ****     const mbedtls_x509_name *name;
 742:Source\mbedtls_open\library/x509.c ****     const char *short_name = NULL;
 1970              		.loc 1 742 0
 1971 000c 0023     		movs	r3, #0
 1972 000e 4393     		str	r3, [sp, #268]
 743:Source\mbedtls_open\library/x509.c ****     char s[MBEDTLS_X509_MAX_DN_NAME_SIZE], *p;
 744:Source\mbedtls_open\library/x509.c **** 
 745:Source\mbedtls_open\library/x509.c ****     memset( s, 0, sizeof( s ) );
 1973              		.loc 1 745 0
 1974 0010 8022     		movs	r2, #128
 1975              	.LVL293:
 1976 0012 5200     		lsls	r2, r2, #1
 1977 0014 0021     		movs	r1, #0
 1978              	.LVL294:
 1979 0016 03A8     		add	r0, sp, #12
 1980              	.LVL295:
 1981 0018 FFF7FEFF 		bl	memset
 1982              	.LVL296:
 746:Source\mbedtls_open\library/x509.c **** 
 747:Source\mbedtls_open\library/x509.c ****     name = dn;
ARM GAS  C:\Users\Phuong\AppData\Local\Temp\cciPItDa.s 			page 52


 1983              		.loc 1 747 0
 1984 001c 2C00     		movs	r4, r5
 740:Source\mbedtls_open\library/x509.c ****     const mbedtls_x509_name *name;
 1985              		.loc 1 740 0
 1986 001e 0023     		movs	r3, #0
 748:Source\mbedtls_open\library/x509.c ****     p = buf;
 749:Source\mbedtls_open\library/x509.c ****     n = size;
 750:Source\mbedtls_open\library/x509.c **** 
 751:Source\mbedtls_open\library/x509.c ****     while( name != NULL )
 1987              		.loc 1 751 0
 1988 0020 57E0     		b	.L166
 1989              	.LVL297:
 1990              	.L180:
 752:Source\mbedtls_open\library/x509.c ****     {
 753:Source\mbedtls_open\library/x509.c ****         if( !name->oid.p )
 1991              		.loc 1 753 0
 1992 0022 A268     		ldr	r2, [r4, #8]
 1993 0024 002A     		cmp	r2, #0
 1994 0026 01D1     		bne	.L167
 754:Source\mbedtls_open\library/x509.c ****         {
 755:Source\mbedtls_open\library/x509.c ****             name = name->next;
 1995              		.loc 1 755 0
 1996 0028 A469     		ldr	r4, [r4, #24]
 1997              	.LVL298:
 756:Source\mbedtls_open\library/x509.c ****             continue;
 1998              		.loc 1 756 0
 1999 002a 52E0     		b	.L166
 2000              	.L167:
 757:Source\mbedtls_open\library/x509.c ****         }
 758:Source\mbedtls_open\library/x509.c **** 
 759:Source\mbedtls_open\library/x509.c ****         if( name != dn )
 2001              		.loc 1 759 0
 2002 002c AC42     		cmp	r4, r5
 2003 002e 0ED0     		beq	.L169
 760:Source\mbedtls_open\library/x509.c ****         {
 761:Source\mbedtls_open\library/x509.c ****             ret = mbedtls_snprintf( p, n, merge ? " + " : ", " );
 2004              		.loc 1 761 0
 2005 0030 002B     		cmp	r3, #0
 2006 0032 01D0     		beq	.L181
 2007 0034 304A     		ldr	r2, .L188
 2008 0036 00E0     		b	.L170
 2009              	.L181:
 2010 0038 304A     		ldr	r2, .L188+4
 2011              	.L170:
 2012              		.loc 1 761 0 is_stmt 0 discriminator 4
 2013 003a 3100     		movs	r1, r6
 2014 003c 3800     		movs	r0, r7
 2015 003e FFF7FEFF 		bl	snprintf
 2016              	.LVL299:
 762:Source\mbedtls_open\library/x509.c ****             MBEDTLS_X509_SAFE_SNPRINTF;
 2017              		.loc 1 762 0 is_stmt 1 discriminator 4
 2018 0042 0028     		cmp	r0, #0
 2019 0044 4ADB     		blt	.L182
 2020              		.loc 1 762 0 is_stmt 0 discriminator 2
 2021 0046 8642     		cmp	r6, r0
 2022 0048 4AD9     		bls	.L183
 2023              		.loc 1 762 0 discriminator 4
ARM GAS  C:\Users\Phuong\AppData\Local\Temp\cciPItDa.s 			page 53


 2024 004a 361A     		subs	r6, r6, r0
 2025              	.LVL300:
 2026 004c 3F18     		adds	r7, r7, r0
 2027              	.LVL301:
 2028              	.L169:
 763:Source\mbedtls_open\library/x509.c ****         }
 764:Source\mbedtls_open\library/x509.c **** 
 765:Source\mbedtls_open\library/x509.c ****         ret = mbedtls_oid_get_attr_short_name( &name->oid, &short_name );
 2029              		.loc 1 765 0 is_stmt 1
 2030 004e 43A9     		add	r1, sp, #268
 2031 0050 2000     		movs	r0, r4
 2032 0052 FFF7FEFF 		bl	mbedtls_oid_get_attr_short_name
 2033              	.LVL302:
 766:Source\mbedtls_open\library/x509.c **** 
 767:Source\mbedtls_open\library/x509.c ****         if( ret == 0 )
 2034              		.loc 1 767 0
 2035 0056 0028     		cmp	r0, #0
 2036 0058 06D1     		bne	.L172
 768:Source\mbedtls_open\library/x509.c ****             ret = mbedtls_snprintf( p, n, "%s=", short_name );
 2037              		.loc 1 768 0
 2038 005a 439B     		ldr	r3, [sp, #268]
 2039 005c 284A     		ldr	r2, .L188+8
 2040 005e 3100     		movs	r1, r6
 2041 0060 3800     		movs	r0, r7
 2042              	.LVL303:
 2043 0062 FFF7FEFF 		bl	snprintf
 2044              	.LVL304:
 2045 0066 04E0     		b	.L173
 2046              	.L172:
 769:Source\mbedtls_open\library/x509.c ****         else
 770:Source\mbedtls_open\library/x509.c ****             ret = mbedtls_snprintf( p, n, "\?\?=" );
 2047              		.loc 1 770 0
 2048 0068 264A     		ldr	r2, .L188+12
 2049 006a 3100     		movs	r1, r6
 2050 006c 3800     		movs	r0, r7
 2051              	.LVL305:
 2052 006e FFF7FEFF 		bl	snprintf
 2053              	.LVL306:
 2054              	.L173:
 771:Source\mbedtls_open\library/x509.c ****         MBEDTLS_X509_SAFE_SNPRINTF;
 2055              		.loc 1 771 0
 2056 0072 0028     		cmp	r0, #0
 2057 0074 36DB     		blt	.L184
 2058              		.loc 1 771 0 is_stmt 0 discriminator 2
 2059 0076 8642     		cmp	r6, r0
 2060 0078 36D9     		bls	.L185
 2061              		.loc 1 771 0 discriminator 4
 2062 007a 361A     		subs	r6, r6, r0
 2063              	.LVL307:
 2064 007c 3F18     		adds	r7, r7, r0
 2065              	.LVL308:
 772:Source\mbedtls_open\library/x509.c **** 
 773:Source\mbedtls_open\library/x509.c ****         for( i = 0; i < name->val.len; i++ )
 2066              		.loc 1 773 0 is_stmt 1 discriminator 4
 2067 007e 0023     		movs	r3, #0
 2068 0080 13E0     		b	.L174
 2069              	.LVL309:
ARM GAS  C:\Users\Phuong\AppData\Local\Temp\cciPItDa.s 			page 54


 2070              	.L179:
 774:Source\mbedtls_open\library/x509.c ****         {
 775:Source\mbedtls_open\library/x509.c ****             if( i >= sizeof( s ) - 1 )
 2071              		.loc 1 775 0
 2072 0082 FE2B     		cmp	r3, #254
 2073 0084 14D8     		bhi	.L175
 776:Source\mbedtls_open\library/x509.c ****                 break;
 777:Source\mbedtls_open\library/x509.c **** 
 778:Source\mbedtls_open\library/x509.c ****             c = name->val.p[i];
 2074              		.loc 1 778 0
 2075 0086 6269     		ldr	r2, [r4, #20]
 2076 0088 D25C     		ldrb	r2, [r2, r3]
 2077              	.LVL310:
 779:Source\mbedtls_open\library/x509.c ****             if( c < 32 || c == 127 || ( c > 128 && c < 160 ) )
 2078              		.loc 1 779 0
 2079 008a 1F2A     		cmp	r2, #31
 2080 008c 06D9     		bls	.L176
 2081              		.loc 1 779 0 is_stmt 0 discriminator 1
 2082 008e 7F2A     		cmp	r2, #127
 2083 0090 04D0     		beq	.L176
 2084              		.loc 1 779 0 discriminator 2
 2085 0092 1100     		movs	r1, r2
 2086 0094 7F31     		adds	r1, r1, #127
 2087 0096 C9B2     		uxtb	r1, r1
 2088 0098 1E29     		cmp	r1, #30
 2089 009a 03D8     		bhi	.L177
 2090              	.L176:
 780:Source\mbedtls_open\library/x509.c ****                  s[i] = '?';
 2091              		.loc 1 780 0 is_stmt 1
 2092 009c 3F21     		movs	r1, #63
 2093 009e 03AA     		add	r2, sp, #12
 2094              	.LVL311:
 2095 00a0 D154     		strb	r1, [r2, r3]
 2096              	.LVL312:
 2097 00a2 01E0     		b	.L178
 2098              	.LVL313:
 2099              	.L177:
 781:Source\mbedtls_open\library/x509.c ****             else s[i] = c;
 2100              		.loc 1 781 0
 2101 00a4 03A9     		add	r1, sp, #12
 2102 00a6 CA54     		strb	r2, [r1, r3]
 2103              	.LVL314:
 2104              	.L178:
 773:Source\mbedtls_open\library/x509.c ****         {
 2105              		.loc 1 773 0 discriminator 2
 2106 00a8 0133     		adds	r3, r3, #1
 2107              	.LVL315:
 2108              	.L174:
 773:Source\mbedtls_open\library/x509.c ****         {
 2109              		.loc 1 773 0 is_stmt 0 discriminator 1
 2110 00aa 2269     		ldr	r2, [r4, #16]
 2111 00ac 9342     		cmp	r3, r2
 2112 00ae E8D3     		bcc	.L179
 2113              	.L175:
 782:Source\mbedtls_open\library/x509.c ****         }
 783:Source\mbedtls_open\library/x509.c ****         s[i] = '\0';
 2114              		.loc 1 783 0 is_stmt 1
ARM GAS  C:\Users\Phuong\AppData\Local\Temp\cciPItDa.s 			page 55


 2115 00b0 0021     		movs	r1, #0
 2116 00b2 03AA     		add	r2, sp, #12
 2117 00b4 D154     		strb	r1, [r2, r3]
 784:Source\mbedtls_open\library/x509.c ****         ret = mbedtls_snprintf( p, n, "%s", s );
 2118              		.loc 1 784 0
 2119 00b6 1300     		movs	r3, r2
 2120              	.LVL316:
 2121 00b8 134A     		ldr	r2, .L188+16
 2122 00ba 3100     		movs	r1, r6
 2123 00bc 3800     		movs	r0, r7
 2124              	.LVL317:
 2125 00be FFF7FEFF 		bl	snprintf
 2126              	.LVL318:
 785:Source\mbedtls_open\library/x509.c ****         MBEDTLS_X509_SAFE_SNPRINTF;
 2127              		.loc 1 785 0
 2128 00c2 0028     		cmp	r0, #0
 2129 00c4 12DB     		blt	.L186
 2130              		.loc 1 785 0 is_stmt 0 discriminator 2
 2131 00c6 8642     		cmp	r6, r0
 2132 00c8 12D9     		bls	.L187
 2133              		.loc 1 785 0 discriminator 4
 2134 00ca 361A     		subs	r6, r6, r0
 2135              	.LVL319:
 2136 00cc 3F18     		adds	r7, r7, r0
 2137              	.LVL320:
 786:Source\mbedtls_open\library/x509.c **** 
 787:Source\mbedtls_open\library/x509.c ****         merge = name->next_merged;
 2138              		.loc 1 787 0 is_stmt 1 discriminator 4
 2139 00ce 237F     		ldrb	r3, [r4, #28]
 2140              	.LVL321:
 788:Source\mbedtls_open\library/x509.c ****         name = name->next;
 2141              		.loc 1 788 0 discriminator 4
 2142 00d0 A469     		ldr	r4, [r4, #24]
 2143              	.LVL322:
 2144              	.L166:
 751:Source\mbedtls_open\library/x509.c ****     {
 2145              		.loc 1 751 0
 2146 00d2 002C     		cmp	r4, #0
 2147 00d4 A5D1     		bne	.L180
 789:Source\mbedtls_open\library/x509.c ****     }
 790:Source\mbedtls_open\library/x509.c **** 
 791:Source\mbedtls_open\library/x509.c ****     return( (int) ( size - n ) );
 2148              		.loc 1 791 0
 2149 00d6 019B     		ldr	r3, [sp, #4]
 2150              	.LVL323:
 2151 00d8 981B     		subs	r0, r3, r6
 2152 00da 0AE0     		b	.L171
 2153              	.LVL324:
 2154              	.L182:
 762:Source\mbedtls_open\library/x509.c ****         }
 2155              		.loc 1 762 0
 2156 00dc 0B48     		ldr	r0, .L188+20
 2157              	.LVL325:
 2158 00de 08E0     		b	.L171
 2159              	.LVL326:
 2160              	.L183:
 2161 00e0 0A48     		ldr	r0, .L188+20
ARM GAS  C:\Users\Phuong\AppData\Local\Temp\cciPItDa.s 			page 56


 2162              	.LVL327:
 2163 00e2 06E0     		b	.L171
 2164              	.LVL328:
 2165              	.L184:
 771:Source\mbedtls_open\library/x509.c **** 
 2166              		.loc 1 771 0
 2167 00e4 0948     		ldr	r0, .L188+20
 2168              	.LVL329:
 2169 00e6 04E0     		b	.L171
 2170              	.LVL330:
 2171              	.L185:
 2172 00e8 0848     		ldr	r0, .L188+20
 2173              	.LVL331:
 2174 00ea 02E0     		b	.L171
 2175              	.LVL332:
 2176              	.L186:
 785:Source\mbedtls_open\library/x509.c **** 
 2177              		.loc 1 785 0
 2178 00ec 0748     		ldr	r0, .L188+20
 2179              	.LVL333:
 2180 00ee 00E0     		b	.L171
 2181              	.LVL334:
 2182              	.L187:
 2183 00f0 0648     		ldr	r0, .L188+20
 2184              	.LVL335:
 2185              	.L171:
 792:Source\mbedtls_open\library/x509.c **** }
 2186              		.loc 1 792 0
 2187 00f2 45B0     		add	sp, sp, #276
 2188              		@ sp needed
 2189              	.LVL336:
 2190              	.LVL337:
 2191              	.LVL338:
 2192              	.LVL339:
 2193 00f4 F0BD     		pop	{r4, r5, r6, r7, pc}
 2194              	.L189:
 2195 00f6 C046     		.align	2
 2196              	.L188:
 2197 00f8 0C000000 		.word	.LC3
 2198 00fc 10000000 		.word	.LC5
 2199 0100 14000000 		.word	.LC7
 2200 0104 18000000 		.word	.LC9
 2201 0108 1C000000 		.word	.LC11
 2202 010c 80D6FFFF 		.word	-10624
 2203              		.cfi_endproc
 2204              	.LFE25:
 2205              		.size	mbedtls_x509_dn_gets, .-mbedtls_x509_dn_gets
 2206              		.section	.text.mbedtls_x509_serial_gets,"ax",%progbits
 2207              		.align	2
 2208              		.global	mbedtls_x509_serial_gets
 2209              		.code	16
 2210              		.thumb_func
 2211              		.type	mbedtls_x509_serial_gets, %function
 2212              	mbedtls_x509_serial_gets:
 2213              	.LFB26:
 793:Source\mbedtls_open\library/x509.c **** 
 794:Source\mbedtls_open\library/x509.c **** /*
ARM GAS  C:\Users\Phuong\AppData\Local\Temp\cciPItDa.s 			page 57


 795:Source\mbedtls_open\library/x509.c ****  * Store the serial in printable form into buf; no more
 796:Source\mbedtls_open\library/x509.c ****  * than size characters will be written
 797:Source\mbedtls_open\library/x509.c ****  */
 798:Source\mbedtls_open\library/x509.c **** int mbedtls_x509_serial_gets( char *buf, size_t size, const mbedtls_x509_buf *serial )
 799:Source\mbedtls_open\library/x509.c **** {
 2214              		.loc 1 799 0
 2215              		.cfi_startproc
 2216              		@ args = 0, pretend = 0, frame = 8
 2217              		@ frame_needed = 0, uses_anonymous_args = 0
 2218              	.LVL340:
 2219 0000 F0B5     		push	{r4, r5, r6, r7, lr}
 2220              		.cfi_def_cfa_offset 20
 2221              		.cfi_offset 4, -20
 2222              		.cfi_offset 5, -16
 2223              		.cfi_offset 6, -12
 2224              		.cfi_offset 7, -8
 2225              		.cfi_offset 14, -4
 2226 0002 4F46     		mov	r7, r9
 2227 0004 80B4     		push	{r7}
 2228              		.cfi_def_cfa_offset 24
 2229              		.cfi_offset 9, -24
 2230 0006 84B0     		sub	sp, sp, #16
 2231              		.cfi_def_cfa_offset 40
 2232 0008 0700     		movs	r7, r0
 2233 000a 0391     		str	r1, [sp, #12]
 2234 000c 9146     		mov	r9, r2
 2235              	.LVL341:
 800:Source\mbedtls_open\library/x509.c ****     int ret;
 801:Source\mbedtls_open\library/x509.c ****     size_t i, n, nr;
 802:Source\mbedtls_open\library/x509.c ****     char *p;
 803:Source\mbedtls_open\library/x509.c **** 
 804:Source\mbedtls_open\library/x509.c ****     p = buf;
 805:Source\mbedtls_open\library/x509.c ****     n = size;
 806:Source\mbedtls_open\library/x509.c **** 
 807:Source\mbedtls_open\library/x509.c ****     nr = ( serial->len <= 32 )
 2236              		.loc 1 807 0
 2237 000e 5668     		ldr	r6, [r2, #4]
 808:Source\mbedtls_open\library/x509.c ****         ? serial->len  : 28;
 2238              		.loc 1 808 0
 2239 0010 202E     		cmp	r6, #32
 2240 0012 00D9     		bls	.L191
 2241 0014 1C26     		movs	r6, #28
 2242              	.L191:
 2243              	.LVL342:
 805:Source\mbedtls_open\library/x509.c **** 
 2244              		.loc 1 805 0
 2245 0016 039D     		ldr	r5, [sp, #12]
 809:Source\mbedtls_open\library/x509.c **** 
 810:Source\mbedtls_open\library/x509.c ****     for( i = 0; i < nr; i++ )
 2246              		.loc 1 810 0
 2247 0018 0024     		movs	r4, #0
 2248 001a 1EE0     		b	.L192
 2249              	.LVL343:
 2250              	.L197:
 811:Source\mbedtls_open\library/x509.c ****     {
 812:Source\mbedtls_open\library/x509.c ****         if( i == 0 && nr > 1 && serial->p[i] == 0x0 )
 2251              		.loc 1 812 0
ARM GAS  C:\Users\Phuong\AppData\Local\Temp\cciPItDa.s 			page 58


 2252 001c 002C     		cmp	r4, #0
 2253 001e 06D1     		bne	.L193
 2254              		.loc 1 812 0 is_stmt 0 discriminator 1
 2255 0020 012E     		cmp	r6, #1
 2256 0022 04D9     		bls	.L193
 2257              		.loc 1 812 0 discriminator 2
 2258 0024 4B46     		mov	r3, r9
 2259 0026 9B68     		ldr	r3, [r3, #8]
 2260 0028 1B5D     		ldrb	r3, [r3, r4]
 2261 002a 002B     		cmp	r3, #0
 2262 002c 14D0     		beq	.L194
 2263              	.L193:
 813:Source\mbedtls_open\library/x509.c ****             continue;
 814:Source\mbedtls_open\library/x509.c **** 
 815:Source\mbedtls_open\library/x509.c ****         ret = mbedtls_snprintf( p, n, "%02X%s",
 816:Source\mbedtls_open\library/x509.c ****                 serial->p[i], ( i < nr - 1 ) ? ":" : "" );
 2264              		.loc 1 816 0 is_stmt 1
 2265 002e 4B46     		mov	r3, r9
 2266 0030 9B68     		ldr	r3, [r3, #8]
 2267 0032 1B5D     		ldrb	r3, [r3, r4]
 2268 0034 721E     		subs	r2, r6, #1
 815:Source\mbedtls_open\library/x509.c ****                 serial->p[i], ( i < nr - 1 ) ? ":" : "" );
 2269              		.loc 1 815 0
 2270 0036 9442     		cmp	r4, r2
 2271 0038 01D2     		bcs	.L199
 2272 003a 174A     		ldr	r2, .L204
 2273 003c 00E0     		b	.L195
 2274              	.L199:
 2275 003e 174A     		ldr	r2, .L204+4
 2276              	.L195:
 815:Source\mbedtls_open\library/x509.c ****                 serial->p[i], ( i < nr - 1 ) ? ":" : "" );
 2277              		.loc 1 815 0 is_stmt 0 discriminator 4
 2278 0040 0092     		str	r2, [sp]
 2279 0042 174A     		ldr	r2, .L204+8
 2280 0044 2900     		movs	r1, r5
 2281 0046 3800     		movs	r0, r7
 2282 0048 FFF7FEFF 		bl	snprintf
 2283              	.LVL344:
 817:Source\mbedtls_open\library/x509.c ****         MBEDTLS_X509_SAFE_SNPRINTF;
 2284              		.loc 1 817 0 is_stmt 1 discriminator 4
 2285 004c 0028     		cmp	r0, #0
 2286 004e 17DB     		blt	.L200
 2287              		.loc 1 817 0 is_stmt 0 discriminator 2
 2288 0050 8542     		cmp	r5, r0
 2289 0052 17D9     		bls	.L201
 2290              		.loc 1 817 0 discriminator 4
 2291 0054 2D1A     		subs	r5, r5, r0
 2292              	.LVL345:
 2293 0056 3F18     		adds	r7, r7, r0
 2294              	.LVL346:
 2295              	.L194:
 810:Source\mbedtls_open\library/x509.c ****     {
 2296              		.loc 1 810 0 is_stmt 1 discriminator 2
 2297 0058 0134     		adds	r4, r4, #1
 2298              	.LVL347:
 2299              	.L192:
 810:Source\mbedtls_open\library/x509.c ****     {
ARM GAS  C:\Users\Phuong\AppData\Local\Temp\cciPItDa.s 			page 59


 2300              		.loc 1 810 0 is_stmt 0 discriminator 1
 2301 005a B442     		cmp	r4, r6
 2302 005c DED3     		bcc	.L197
 818:Source\mbedtls_open\library/x509.c ****     }
 819:Source\mbedtls_open\library/x509.c **** 
 820:Source\mbedtls_open\library/x509.c ****     if( nr != serial->len )
 2303              		.loc 1 820 0 is_stmt 1
 2304 005e 4B46     		mov	r3, r9
 2305 0060 5B68     		ldr	r3, [r3, #4]
 2306 0062 9E42     		cmp	r6, r3
 2307 0064 09D0     		beq	.L198
 821:Source\mbedtls_open\library/x509.c ****     {
 822:Source\mbedtls_open\library/x509.c ****         ret = mbedtls_snprintf( p, n, "...." );
 2308              		.loc 1 822 0
 2309 0066 0F4A     		ldr	r2, .L204+12
 2310 0068 2900     		movs	r1, r5
 2311 006a 3800     		movs	r0, r7
 2312 006c FFF7FEFF 		bl	snprintf
 2313              	.LVL348:
 823:Source\mbedtls_open\library/x509.c ****         MBEDTLS_X509_SAFE_SNPRINTF;
 2314              		.loc 1 823 0
 2315 0070 0028     		cmp	r0, #0
 2316 0072 09DB     		blt	.L202
 2317              		.loc 1 823 0 is_stmt 0 discriminator 2
 2318 0074 8542     		cmp	r5, r0
 2319 0076 09D9     		bls	.L203
 2320              		.loc 1 823 0 discriminator 4
 2321 0078 2D1A     		subs	r5, r5, r0
 2322              	.LVL349:
 2323              	.L198:
 824:Source\mbedtls_open\library/x509.c ****     }
 825:Source\mbedtls_open\library/x509.c **** 
 826:Source\mbedtls_open\library/x509.c ****     return( (int) ( size - n ) );
 2324              		.loc 1 826 0 is_stmt 1
 2325 007a 039B     		ldr	r3, [sp, #12]
 2326 007c 581B     		subs	r0, r3, r5
 2327 007e 06E0     		b	.L196
 2328              	.LVL350:
 2329              	.L200:
 817:Source\mbedtls_open\library/x509.c ****     }
 2330              		.loc 1 817 0
 2331 0080 0948     		ldr	r0, .L204+16
 2332              	.LVL351:
 2333 0082 04E0     		b	.L196
 2334              	.LVL352:
 2335              	.L201:
 2336 0084 0848     		ldr	r0, .L204+16
 2337              	.LVL353:
 2338 0086 02E0     		b	.L196
 2339              	.LVL354:
 2340              	.L202:
 823:Source\mbedtls_open\library/x509.c ****         MBEDTLS_X509_SAFE_SNPRINTF;
 2341              		.loc 1 823 0
 2342 0088 0748     		ldr	r0, .L204+16
 2343              	.LVL355:
 2344 008a 00E0     		b	.L196
 2345              	.LVL356:
ARM GAS  C:\Users\Phuong\AppData\Local\Temp\cciPItDa.s 			page 60


 2346              	.L203:
 2347 008c 0648     		ldr	r0, .L204+16
 2348              	.LVL357:
 2349              	.L196:
 827:Source\mbedtls_open\library/x509.c **** }
 2350              		.loc 1 827 0
 2351 008e 04B0     		add	sp, sp, #16
 2352              		@ sp needed
 2353              	.LVL358:
 2354              	.LVL359:
 2355              	.LVL360:
 2356              	.LVL361:
 2357 0090 04BC     		pop	{r2}
 2358 0092 9146     		mov	r9, r2
 2359 0094 F0BD     		pop	{r4, r5, r6, r7, pc}
 2360              	.L205:
 2361 0096 C046     		.align	2
 2362              	.L204:
 2363 0098 20000000 		.word	.LC13
 2364 009c 24000000 		.word	.LC15
 2365 00a0 28000000 		.word	.LC17
 2366 00a4 30000000 		.word	.LC19
 2367 00a8 80D6FFFF 		.word	-10624
 2368              		.cfi_endproc
 2369              	.LFE26:
 2370              		.size	mbedtls_x509_serial_gets, .-mbedtls_x509_serial_gets
 2371              		.section	.text.mbedtls_x509_sig_alg_gets,"ax",%progbits
 2372              		.align	2
 2373              		.global	mbedtls_x509_sig_alg_gets
 2374              		.code	16
 2375              		.thumb_func
 2376              		.type	mbedtls_x509_sig_alg_gets, %function
 2377              	mbedtls_x509_sig_alg_gets:
 2378              	.LFB27:
 828:Source\mbedtls_open\library/x509.c **** 
 829:Source\mbedtls_open\library/x509.c **** /*
 830:Source\mbedtls_open\library/x509.c ****  * Helper for writing signature algorithms
 831:Source\mbedtls_open\library/x509.c ****  */
 832:Source\mbedtls_open\library/x509.c **** int mbedtls_x509_sig_alg_gets( char *buf, size_t size, const mbedtls_x509_buf *sig_oid,
 833:Source\mbedtls_open\library/x509.c ****                        mbedtls_pk_type_t pk_alg, mbedtls_md_type_t md_alg,
 834:Source\mbedtls_open\library/x509.c ****                        const void *sig_opts )
 835:Source\mbedtls_open\library/x509.c **** {
 2379              		.loc 1 835 0
 2380              		.cfi_startproc
 2381              		@ args = 8, pretend = 0, frame = 8
 2382              		@ frame_needed = 0, uses_anonymous_args = 0
 2383              	.LVL362:
 2384 0000 F0B5     		push	{r4, r5, r6, r7, lr}
 2385              		.cfi_def_cfa_offset 20
 2386              		.cfi_offset 4, -20
 2387              		.cfi_offset 5, -16
 2388              		.cfi_offset 6, -12
 2389              		.cfi_offset 7, -8
 2390              		.cfi_offset 14, -4
 2391 0002 4746     		mov	r7, r8
 2392 0004 80B4     		push	{r7}
 2393              		.cfi_def_cfa_offset 24
ARM GAS  C:\Users\Phuong\AppData\Local\Temp\cciPItDa.s 			page 61


 2394              		.cfi_offset 8, -24
 2395 0006 84B0     		sub	sp, sp, #16
 2396              		.cfi_def_cfa_offset 40
 2397 0008 0500     		movs	r5, r0
 2398 000a 0C00     		movs	r4, r1
 2399 000c 1E00     		movs	r6, r3
 2400 000e 0AAB     		add	r3, sp, #40
 2401              	.LVL363:
 2402 0010 1F78     		ldrb	r7, [r3]
 2403              	.LVL364:
 836:Source\mbedtls_open\library/x509.c ****     int ret;
 837:Source\mbedtls_open\library/x509.c ****     char *p = buf;
 838:Source\mbedtls_open\library/x509.c ****     size_t n = size;
 839:Source\mbedtls_open\library/x509.c ****     const char *desc = NULL;
 2404              		.loc 1 839 0
 2405 0012 0023     		movs	r3, #0
 2406              	.LVL365:
 2407 0014 0393     		str	r3, [sp, #12]
 840:Source\mbedtls_open\library/x509.c **** 
 841:Source\mbedtls_open\library/x509.c ****     ret = mbedtls_oid_get_sig_alg_desc( sig_oid, &desc );
 2408              		.loc 1 841 0
 2409 0016 03A9     		add	r1, sp, #12
 2410              	.LVL366:
 2411 0018 1000     		movs	r0, r2
 2412              	.LVL367:
 2413 001a FFF7FEFF 		bl	mbedtls_oid_get_sig_alg_desc
 2414              	.LVL368:
 842:Source\mbedtls_open\library/x509.c ****     if( ret != 0 )
 2415              		.loc 1 842 0
 2416 001e 0028     		cmp	r0, #0
 2417 0020 05D0     		beq	.L207
 843:Source\mbedtls_open\library/x509.c ****         ret = mbedtls_snprintf( p, n, "???"  );
 2418              		.loc 1 843 0
 2419 0022 264A     		ldr	r2, .L219
 2420 0024 2100     		movs	r1, r4
 2421 0026 2800     		movs	r0, r5
 2422              	.LVL369:
 2423 0028 FFF7FEFF 		bl	snprintf
 2424              	.LVL370:
 2425 002c 05E0     		b	.L208
 2426              	.L207:
 844:Source\mbedtls_open\library/x509.c ****     else
 845:Source\mbedtls_open\library/x509.c ****         ret = mbedtls_snprintf( p, n, "%s", desc );
 2427              		.loc 1 845 0
 2428 002e 039B     		ldr	r3, [sp, #12]
 2429 0030 234A     		ldr	r2, .L219+4
 2430 0032 2100     		movs	r1, r4
 2431 0034 2800     		movs	r0, r5
 2432              	.LVL371:
 2433 0036 FFF7FEFF 		bl	snprintf
 2434              	.LVL372:
 2435              	.L208:
 846:Source\mbedtls_open\library/x509.c ****     MBEDTLS_X509_SAFE_SNPRINTF;
 2436              		.loc 1 846 0
 2437 003a 0028     		cmp	r0, #0
 2438 003c 32DB     		blt	.L213
 2439              		.loc 1 846 0 is_stmt 0 discriminator 2
ARM GAS  C:\Users\Phuong\AppData\Local\Temp\cciPItDa.s 			page 62


 2440 003e 8442     		cmp	r4, r0
 2441 0040 32D9     		bls	.L214
 2442              		.loc 1 846 0 discriminator 4
 2443 0042 231A     		subs	r3, r4, r0
 2444 0044 9846     		mov	r8, r3
 2445              	.LVL373:
 2446 0046 2D18     		adds	r5, r5, r0
 2447              	.LVL374:
 847:Source\mbedtls_open\library/x509.c **** 
 848:Source\mbedtls_open\library/x509.c **** #if defined(MBEDTLS_X509_RSASSA_PSS_SUPPORT)
 849:Source\mbedtls_open\library/x509.c ****     if( pk_alg == MBEDTLS_PK_RSASSA_PSS )
 2448              		.loc 1 849 0 is_stmt 1 discriminator 4
 2449 0048 062E     		cmp	r6, #6
 2450 004a 28D1     		bne	.L210
 2451              	.LVL375:
 2452              	.LBB5:
 850:Source\mbedtls_open\library/x509.c ****     {
 851:Source\mbedtls_open\library/x509.c ****         const mbedtls_pk_rsassa_pss_options *pss_opts;
 852:Source\mbedtls_open\library/x509.c ****         const mbedtls_md_info_t *md_info, *mgf_md_info;
 853:Source\mbedtls_open\library/x509.c **** 
 854:Source\mbedtls_open\library/x509.c ****         pss_opts = (const mbedtls_pk_rsassa_pss_options *) sig_opts;
 855:Source\mbedtls_open\library/x509.c **** 
 856:Source\mbedtls_open\library/x509.c ****         md_info = mbedtls_md_info_from_type( md_alg );
 2453              		.loc 1 856 0
 2454 004c 3800     		movs	r0, r7
 2455              	.LVL376:
 2456 004e FFF7FEFF 		bl	mbedtls_md_info_from_type
 2457              	.LVL377:
 2458 0052 0700     		movs	r7, r0
 2459              	.LVL378:
 857:Source\mbedtls_open\library/x509.c ****         mgf_md_info = mbedtls_md_info_from_type( pss_opts->mgf1_hash_id );
 2460              		.loc 1 857 0
 2461 0054 0B9B     		ldr	r3, [sp, #44]
 2462 0056 1878     		ldrb	r0, [r3]
 2463              	.LVL379:
 2464 0058 FFF7FEFF 		bl	mbedtls_md_info_from_type
 2465              	.LVL380:
 2466 005c 0600     		movs	r6, r0
 2467              	.LVL381:
 858:Source\mbedtls_open\library/x509.c **** 
 859:Source\mbedtls_open\library/x509.c ****         ret = mbedtls_snprintf( p, n, " (%s, MGF1-%s, 0x%02X)",
 2468              		.loc 1 859 0
 2469 005e 002F     		cmp	r7, #0
 2470 0060 04D0     		beq	.L215
 2471              		.loc 1 859 0 is_stmt 0 discriminator 1
 2472 0062 3800     		movs	r0, r7
 2473              	.LVL382:
 2474 0064 FFF7FEFF 		bl	mbedtls_md_get_name
 2475              	.LVL383:
 2476 0068 0700     		movs	r7, r0
 2477              	.LVL384:
 2478 006a 00E0     		b	.L211
 2479              	.LVL385:
 2480              	.L215:
 2481              		.loc 1 859 0
 2482 006c 134F     		ldr	r7, .L219
 2483              	.LVL386:
ARM GAS  C:\Users\Phuong\AppData\Local\Temp\cciPItDa.s 			page 63


 2484              	.L211:
 2485              		.loc 1 859 0 discriminator 4
 2486 006e 002E     		cmp	r6, #0
 2487 0070 03D0     		beq	.L216
 2488              		.loc 1 859 0 discriminator 5
 2489 0072 3000     		movs	r0, r6
 2490 0074 FFF7FEFF 		bl	mbedtls_md_get_name
 2491              	.LVL387:
 2492 0078 00E0     		b	.L212
 2493              	.L216:
 2494              		.loc 1 859 0
 2495 007a 1048     		ldr	r0, .L219
 2496              	.L212:
 2497              		.loc 1 859 0 discriminator 8
 2498 007c 0B9B     		ldr	r3, [sp, #44]
 2499 007e 5B68     		ldr	r3, [r3, #4]
 2500 0080 0193     		str	r3, [sp, #4]
 2501 0082 0090     		str	r0, [sp]
 2502 0084 3B00     		movs	r3, r7
 2503 0086 0F4A     		ldr	r2, .L219+8
 2504 0088 4146     		mov	r1, r8
 2505 008a 2800     		movs	r0, r5
 2506 008c FFF7FEFF 		bl	snprintf
 2507              	.LVL388:
 860:Source\mbedtls_open\library/x509.c ****                               md_info ? mbedtls_md_get_name( md_info ) : "???",
 861:Source\mbedtls_open\library/x509.c ****                               mgf_md_info ? mbedtls_md_get_name( mgf_md_info ) : "???",
 862:Source\mbedtls_open\library/x509.c ****                               pss_opts->expected_salt_len );
 863:Source\mbedtls_open\library/x509.c ****         MBEDTLS_X509_SAFE_SNPRINTF;
 2508              		.loc 1 863 0 is_stmt 1 discriminator 8
 2509 0090 0028     		cmp	r0, #0
 2510 0092 0BDB     		blt	.L217
 2511              		.loc 1 863 0 is_stmt 0 discriminator 2
 2512 0094 8045     		cmp	r8, r0
 2513 0096 0BD9     		bls	.L218
 2514              		.loc 1 863 0 discriminator 4
 2515 0098 4346     		mov	r3, r8
 2516 009a 1B1A     		subs	r3, r3, r0
 2517 009c 9846     		mov	r8, r3
 2518              	.LVL389:
 2519              	.L210:
 2520              	.LBE5:
 864:Source\mbedtls_open\library/x509.c ****     }
 865:Source\mbedtls_open\library/x509.c **** #else
 866:Source\mbedtls_open\library/x509.c ****     ((void) pk_alg);
 867:Source\mbedtls_open\library/x509.c ****     ((void) md_alg);
 868:Source\mbedtls_open\library/x509.c ****     ((void) sig_opts);
 869:Source\mbedtls_open\library/x509.c **** #endif /* MBEDTLS_X509_RSASSA_PSS_SUPPORT */
 870:Source\mbedtls_open\library/x509.c **** 
 871:Source\mbedtls_open\library/x509.c ****     return( (int)( size - n ) );
 2521              		.loc 1 871 0 is_stmt 1
 2522 009e 4346     		mov	r3, r8
 2523 00a0 E01A     		subs	r0, r4, r3
 2524              	.LVL390:
 2525 00a2 06E0     		b	.L209
 2526              	.LVL391:
 2527              	.L213:
 846:Source\mbedtls_open\library/x509.c **** 
ARM GAS  C:\Users\Phuong\AppData\Local\Temp\cciPItDa.s 			page 64


 2528              		.loc 1 846 0
 2529 00a4 0848     		ldr	r0, .L219+12
 2530              	.LVL392:
 2531 00a6 04E0     		b	.L209
 2532              	.LVL393:
 2533              	.L214:
 2534 00a8 0748     		ldr	r0, .L219+12
 2535              	.LVL394:
 2536 00aa 02E0     		b	.L209
 2537              	.LVL395:
 2538              	.L217:
 2539              	.LBB6:
 863:Source\mbedtls_open\library/x509.c ****     }
 2540              		.loc 1 863 0
 2541 00ac 0648     		ldr	r0, .L219+12
 2542              	.LVL396:
 2543 00ae 00E0     		b	.L209
 2544              	.LVL397:
 2545              	.L218:
 2546 00b0 0548     		ldr	r0, .L219+12
 2547              	.LVL398:
 2548              	.L209:
 2549              	.LBE6:
 872:Source\mbedtls_open\library/x509.c **** }
 2550              		.loc 1 872 0
 2551 00b2 04B0     		add	sp, sp, #16
 2552              		@ sp needed
 2553              	.LVL399:
 2554 00b4 04BC     		pop	{r2}
 2555 00b6 9046     		mov	r8, r2
 2556 00b8 F0BD     		pop	{r4, r5, r6, r7, pc}
 2557              	.L220:
 2558 00ba C046     		.align	2
 2559              	.L219:
 2560 00bc 38000000 		.word	.LC21
 2561 00c0 1C000000 		.word	.LC11
 2562 00c4 3C000000 		.word	.LC24
 2563 00c8 80D6FFFF 		.word	-10624
 2564              		.cfi_endproc
 2565              	.LFE27:
 2566              		.size	mbedtls_x509_sig_alg_gets, .-mbedtls_x509_sig_alg_gets
 2567              		.section	.text.mbedtls_x509_key_size_helper,"ax",%progbits
 2568              		.align	2
 2569              		.global	mbedtls_x509_key_size_helper
 2570              		.code	16
 2571              		.thumb_func
 2572              		.type	mbedtls_x509_key_size_helper, %function
 2573              	mbedtls_x509_key_size_helper:
 2574              	.LFB28:
 873:Source\mbedtls_open\library/x509.c **** 
 874:Source\mbedtls_open\library/x509.c **** /*
 875:Source\mbedtls_open\library/x509.c ****  * Helper for writing "RSA key size", "EC key size", etc
 876:Source\mbedtls_open\library/x509.c ****  */
 877:Source\mbedtls_open\library/x509.c **** int mbedtls_x509_key_size_helper( char *buf, size_t buf_size, const char *name )
 878:Source\mbedtls_open\library/x509.c **** {
 2575              		.loc 1 878 0
 2576              		.cfi_startproc
ARM GAS  C:\Users\Phuong\AppData\Local\Temp\cciPItDa.s 			page 65


 2577              		@ args = 0, pretend = 0, frame = 0
 2578              		@ frame_needed = 0, uses_anonymous_args = 0
 2579              	.LVL400:
 2580 0000 10B5     		push	{r4, lr}
 2581              		.cfi_def_cfa_offset 8
 2582              		.cfi_offset 4, -8
 2583              		.cfi_offset 14, -4
 2584 0002 0C00     		movs	r4, r1
 2585 0004 1300     		movs	r3, r2
 2586              	.LVL401:
 879:Source\mbedtls_open\library/x509.c ****     char *p = buf;
 880:Source\mbedtls_open\library/x509.c ****     size_t n = buf_size;
 881:Source\mbedtls_open\library/x509.c ****     int ret;
 882:Source\mbedtls_open\library/x509.c **** 
 883:Source\mbedtls_open\library/x509.c ****     ret = mbedtls_snprintf( p, n, "%s key size", name );
 2587              		.loc 1 883 0
 2588 0006 064A     		ldr	r2, .L225
 2589              	.LVL402:
 2590 0008 FFF7FEFF 		bl	snprintf
 2591              	.LVL403:
 884:Source\mbedtls_open\library/x509.c ****     MBEDTLS_X509_SAFE_SNPRINTF;
 2592              		.loc 1 884 0
 2593 000c 0028     		cmp	r0, #0
 2594 000e 03DB     		blt	.L223
 2595              		.loc 1 884 0 is_stmt 0 discriminator 2
 2596 0010 8442     		cmp	r4, r0
 2597 0012 03D8     		bhi	.L224
 2598              		.loc 1 884 0
 2599 0014 0348     		ldr	r0, .L225+4
 2600              	.LVL404:
 2601 0016 02E0     		b	.L222
 2602              	.LVL405:
 2603              	.L223:
 2604 0018 0248     		ldr	r0, .L225+4
 2605              	.LVL406:
 2606 001a 00E0     		b	.L222
 2607              	.LVL407:
 2608              	.L224:
 885:Source\mbedtls_open\library/x509.c **** 
 886:Source\mbedtls_open\library/x509.c ****     return( 0 );
 2609              		.loc 1 886 0 is_stmt 1
 2610 001c 0020     		movs	r0, #0
 2611              	.LVL408:
 2612              	.L222:
 887:Source\mbedtls_open\library/x509.c **** }
 2613              		.loc 1 887 0
 2614              		@ sp needed
 2615              	.LVL409:
 2616 001e 10BD     		pop	{r4, pc}
 2617              	.L226:
 2618              		.align	2
 2619              	.L225:
 2620 0020 54000000 		.word	.LC26
 2621 0024 80D6FFFF 		.word	-10624
 2622              		.cfi_endproc
 2623              	.LFE28:
 2624              		.size	mbedtls_x509_key_size_helper, .-mbedtls_x509_key_size_helper
ARM GAS  C:\Users\Phuong\AppData\Local\Temp\cciPItDa.s 			page 66


 2625              		.section	.text.mbedtls_x509_time_is_past,"ax",%progbits
 2626              		.align	2
 2627              		.global	mbedtls_x509_time_is_past
 2628              		.code	16
 2629              		.thumb_func
 2630              		.type	mbedtls_x509_time_is_past, %function
 2631              	mbedtls_x509_time_is_past:
 2632              	.LFB29:
 888:Source\mbedtls_open\library/x509.c **** 
 889:Source\mbedtls_open\library/x509.c **** #if defined(MBEDTLS_HAVE_TIME_DATE)
 890:Source\mbedtls_open\library/x509.c **** /*
 891:Source\mbedtls_open\library/x509.c ****  * Set the time structure to the current time.
 892:Source\mbedtls_open\library/x509.c ****  * Return 0 on success, non-zero on failure.
 893:Source\mbedtls_open\library/x509.c ****  */
 894:Source\mbedtls_open\library/x509.c **** static int x509_get_current_time( mbedtls_x509_time *now )
 895:Source\mbedtls_open\library/x509.c **** {
 896:Source\mbedtls_open\library/x509.c ****     struct tm *lt, tm_buf;
 897:Source\mbedtls_open\library/x509.c ****     mbedtls_time_t tt;
 898:Source\mbedtls_open\library/x509.c ****     int ret = 0;
 899:Source\mbedtls_open\library/x509.c **** 
 900:Source\mbedtls_open\library/x509.c ****     tt = mbedtls_time( NULL );
 901:Source\mbedtls_open\library/x509.c ****     lt = mbedtls_platform_gmtime_r( &tt, &tm_buf );
 902:Source\mbedtls_open\library/x509.c **** 
 903:Source\mbedtls_open\library/x509.c ****     if( lt == NULL )
 904:Source\mbedtls_open\library/x509.c ****         ret = -1;
 905:Source\mbedtls_open\library/x509.c ****     else
 906:Source\mbedtls_open\library/x509.c ****     {
 907:Source\mbedtls_open\library/x509.c ****         now->year = lt->tm_year + 1900;
 908:Source\mbedtls_open\library/x509.c ****         now->mon  = lt->tm_mon  + 1;
 909:Source\mbedtls_open\library/x509.c ****         now->day  = lt->tm_mday;
 910:Source\mbedtls_open\library/x509.c ****         now->hour = lt->tm_hour;
 911:Source\mbedtls_open\library/x509.c ****         now->min  = lt->tm_min;
 912:Source\mbedtls_open\library/x509.c ****         now->sec  = lt->tm_sec;
 913:Source\mbedtls_open\library/x509.c ****     }
 914:Source\mbedtls_open\library/x509.c **** 
 915:Source\mbedtls_open\library/x509.c ****     return( ret );
 916:Source\mbedtls_open\library/x509.c **** }
 917:Source\mbedtls_open\library/x509.c **** 
 918:Source\mbedtls_open\library/x509.c **** /*
 919:Source\mbedtls_open\library/x509.c ****  * Return 0 if before <= after, 1 otherwise
 920:Source\mbedtls_open\library/x509.c ****  */
 921:Source\mbedtls_open\library/x509.c **** static int x509_check_time( const mbedtls_x509_time *before, const mbedtls_x509_time *after )
 922:Source\mbedtls_open\library/x509.c **** {
 923:Source\mbedtls_open\library/x509.c ****     if( before->year  > after->year )
 924:Source\mbedtls_open\library/x509.c ****         return( 1 );
 925:Source\mbedtls_open\library/x509.c **** 
 926:Source\mbedtls_open\library/x509.c ****     if( before->year == after->year &&
 927:Source\mbedtls_open\library/x509.c ****         before->mon   > after->mon )
 928:Source\mbedtls_open\library/x509.c ****         return( 1 );
 929:Source\mbedtls_open\library/x509.c **** 
 930:Source\mbedtls_open\library/x509.c ****     if( before->year == after->year &&
 931:Source\mbedtls_open\library/x509.c ****         before->mon  == after->mon  &&
 932:Source\mbedtls_open\library/x509.c ****         before->day   > after->day )
 933:Source\mbedtls_open\library/x509.c ****         return( 1 );
 934:Source\mbedtls_open\library/x509.c **** 
 935:Source\mbedtls_open\library/x509.c ****     if( before->year == after->year &&
 936:Source\mbedtls_open\library/x509.c ****         before->mon  == after->mon  &&
ARM GAS  C:\Users\Phuong\AppData\Local\Temp\cciPItDa.s 			page 67


 937:Source\mbedtls_open\library/x509.c ****         before->day  == after->day  &&
 938:Source\mbedtls_open\library/x509.c ****         before->hour  > after->hour )
 939:Source\mbedtls_open\library/x509.c ****         return( 1 );
 940:Source\mbedtls_open\library/x509.c **** 
 941:Source\mbedtls_open\library/x509.c ****     if( before->year == after->year &&
 942:Source\mbedtls_open\library/x509.c ****         before->mon  == after->mon  &&
 943:Source\mbedtls_open\library/x509.c ****         before->day  == after->day  &&
 944:Source\mbedtls_open\library/x509.c ****         before->hour == after->hour &&
 945:Source\mbedtls_open\library/x509.c ****         before->min   > after->min  )
 946:Source\mbedtls_open\library/x509.c ****         return( 1 );
 947:Source\mbedtls_open\library/x509.c **** 
 948:Source\mbedtls_open\library/x509.c ****     if( before->year == after->year &&
 949:Source\mbedtls_open\library/x509.c ****         before->mon  == after->mon  &&
 950:Source\mbedtls_open\library/x509.c ****         before->day  == after->day  &&
 951:Source\mbedtls_open\library/x509.c ****         before->hour == after->hour &&
 952:Source\mbedtls_open\library/x509.c ****         before->min  == after->min  &&
 953:Source\mbedtls_open\library/x509.c ****         before->sec   > after->sec  )
 954:Source\mbedtls_open\library/x509.c ****         return( 1 );
 955:Source\mbedtls_open\library/x509.c **** 
 956:Source\mbedtls_open\library/x509.c ****     return( 0 );
 957:Source\mbedtls_open\library/x509.c **** }
 958:Source\mbedtls_open\library/x509.c **** 
 959:Source\mbedtls_open\library/x509.c **** int mbedtls_x509_time_is_past( const mbedtls_x509_time *to )
 960:Source\mbedtls_open\library/x509.c **** {
 961:Source\mbedtls_open\library/x509.c ****     mbedtls_x509_time now;
 962:Source\mbedtls_open\library/x509.c **** 
 963:Source\mbedtls_open\library/x509.c ****     if( x509_get_current_time( &now ) != 0 )
 964:Source\mbedtls_open\library/x509.c ****         return( 1 );
 965:Source\mbedtls_open\library/x509.c **** 
 966:Source\mbedtls_open\library/x509.c ****     return( x509_check_time( &now, to ) );
 967:Source\mbedtls_open\library/x509.c **** }
 968:Source\mbedtls_open\library/x509.c **** 
 969:Source\mbedtls_open\library/x509.c **** int mbedtls_x509_time_is_future( const mbedtls_x509_time *from )
 970:Source\mbedtls_open\library/x509.c **** {
 971:Source\mbedtls_open\library/x509.c ****     mbedtls_x509_time now;
 972:Source\mbedtls_open\library/x509.c **** 
 973:Source\mbedtls_open\library/x509.c ****     if( x509_get_current_time( &now ) != 0 )
 974:Source\mbedtls_open\library/x509.c ****         return( 1 );
 975:Source\mbedtls_open\library/x509.c **** 
 976:Source\mbedtls_open\library/x509.c ****     return( x509_check_time( from, &now ) );
 977:Source\mbedtls_open\library/x509.c **** }
 978:Source\mbedtls_open\library/x509.c **** 
 979:Source\mbedtls_open\library/x509.c **** #else  /* MBEDTLS_HAVE_TIME_DATE */
 980:Source\mbedtls_open\library/x509.c **** 
 981:Source\mbedtls_open\library/x509.c **** int mbedtls_x509_time_is_past( const mbedtls_x509_time *to )
 982:Source\mbedtls_open\library/x509.c **** {
 2633              		.loc 1 982 0
 2634              		.cfi_startproc
 2635              		@ args = 0, pretend = 0, frame = 0
 2636              		@ frame_needed = 0, uses_anonymous_args = 0
 2637              		@ link register save eliminated.
 2638              	.LVL410:
 983:Source\mbedtls_open\library/x509.c ****     ((void) to);
 984:Source\mbedtls_open\library/x509.c ****     return( 0 );
 985:Source\mbedtls_open\library/x509.c **** }
 2639              		.loc 1 985 0
 2640 0000 0020     		movs	r0, #0
ARM GAS  C:\Users\Phuong\AppData\Local\Temp\cciPItDa.s 			page 68


 2641              	.LVL411:
 2642              		@ sp needed
 2643 0002 7047     		bx	lr
 2644              		.cfi_endproc
 2645              	.LFE29:
 2646              		.size	mbedtls_x509_time_is_past, .-mbedtls_x509_time_is_past
 2647              		.section	.text.mbedtls_x509_time_is_future,"ax",%progbits
 2648              		.align	2
 2649              		.global	mbedtls_x509_time_is_future
 2650              		.code	16
 2651              		.thumb_func
 2652              		.type	mbedtls_x509_time_is_future, %function
 2653              	mbedtls_x509_time_is_future:
 2654              	.LFB30:
 986:Source\mbedtls_open\library/x509.c **** 
 987:Source\mbedtls_open\library/x509.c **** int mbedtls_x509_time_is_future( const mbedtls_x509_time *from )
 988:Source\mbedtls_open\library/x509.c **** {
 2655              		.loc 1 988 0
 2656              		.cfi_startproc
 2657              		@ args = 0, pretend = 0, frame = 0
 2658              		@ frame_needed = 0, uses_anonymous_args = 0
 2659              		@ link register save eliminated.
 2660              	.LVL412:
 989:Source\mbedtls_open\library/x509.c ****     ((void) from);
 990:Source\mbedtls_open\library/x509.c ****     return( 0 );
 991:Source\mbedtls_open\library/x509.c **** }
 2661              		.loc 1 991 0
 2662 0000 0020     		movs	r0, #0
 2663              	.LVL413:
 2664              		@ sp needed
 2665 0002 7047     		bx	lr
 2666              		.cfi_endproc
 2667              	.LFE30:
 2668              		.size	mbedtls_x509_time_is_future, .-mbedtls_x509_time_is_future
 2669              		.section	.text.mbedtls_x509_self_test,"ax",%progbits
 2670              		.align	2
 2671              		.global	mbedtls_x509_self_test
 2672              		.code	16
 2673              		.thumb_func
 2674              		.type	mbedtls_x509_self_test, %function
 2675              	mbedtls_x509_self_test:
 2676              	.LFB31:
 992:Source\mbedtls_open\library/x509.c **** #endif /* MBEDTLS_HAVE_TIME_DATE */
 993:Source\mbedtls_open\library/x509.c **** 
 994:Source\mbedtls_open\library/x509.c **** #if defined(MBEDTLS_SELF_TEST)
 995:Source\mbedtls_open\library/x509.c **** 
 996:Source\mbedtls_open\library/x509.c **** #include "mbedtls/x509_crt.h"
 997:Source\mbedtls_open\library/x509.c **** #include "mbedtls/certs.h"
 998:Source\mbedtls_open\library/x509.c **** 
 999:Source\mbedtls_open\library/x509.c **** /*
1000:Source\mbedtls_open\library/x509.c ****  * Checkup routine
1001:Source\mbedtls_open\library/x509.c ****  */
1002:Source\mbedtls_open\library/x509.c **** int mbedtls_x509_self_test( int verbose )
1003:Source\mbedtls_open\library/x509.c **** {
 2677              		.loc 1 1003 0
 2678              		.cfi_startproc
 2679              		@ args = 0, pretend = 0, frame = 624
ARM GAS  C:\Users\Phuong\AppData\Local\Temp\cciPItDa.s 			page 69


 2680              		@ frame_needed = 0, uses_anonymous_args = 0
 2681              	.LVL414:
 2682 0000 30B5     		push	{r4, r5, lr}
 2683              		.cfi_def_cfa_offset 12
 2684              		.cfi_offset 4, -12
 2685              		.cfi_offset 5, -8
 2686              		.cfi_offset 14, -4
 2687 0002 2C4C     		ldr	r4, .L240
 2688 0004 A544     		add	sp, sp, r4
 2689              		.cfi_def_cfa_offset 656
 2690 0006 051E     		subs	r5, r0, #0
1004:Source\mbedtls_open\library/x509.c **** #if defined(MBEDTLS_CERTS_C) && defined(MBEDTLS_SHA256_C)
1005:Source\mbedtls_open\library/x509.c ****     int ret;
1006:Source\mbedtls_open\library/x509.c ****     uint32_t flags;
1007:Source\mbedtls_open\library/x509.c ****     mbedtls_x509_crt cacert;
1008:Source\mbedtls_open\library/x509.c ****     mbedtls_x509_crt clicert;
1009:Source\mbedtls_open\library/x509.c **** 
1010:Source\mbedtls_open\library/x509.c ****     if( verbose != 0 )
 2691              		.loc 1 1010 0
 2692 0008 02D0     		beq	.L230
1011:Source\mbedtls_open\library/x509.c ****         mbedtls_printf( "  X.509 certificate load: " );
 2693              		.loc 1 1011 0
 2694 000a 2B48     		ldr	r0, .L240+4
 2695              	.LVL415:
 2696 000c FFF7FEFF 		bl	printf
 2697              	.LVL416:
 2698              	.L230:
1012:Source\mbedtls_open\library/x509.c **** 
1013:Source\mbedtls_open\library/x509.c ****     mbedtls_x509_crt_init( &clicert );
 2699              		.loc 1 1013 0
 2700 0010 05A8     		add	r0, sp, #20
 2701 0012 FFF7FEFF 		bl	mbedtls_x509_crt_init
 2702              	.LVL417:
1014:Source\mbedtls_open\library/x509.c **** 
1015:Source\mbedtls_open\library/x509.c ****     ret = mbedtls_x509_crt_parse( &clicert, (const unsigned char *) mbedtls_test_cli_crt,
 2703              		.loc 1 1015 0
 2704 0016 294B     		ldr	r3, .L240+8
 2705 0018 1968     		ldr	r1, [r3]
 2706 001a 294B     		ldr	r3, .L240+12
 2707 001c 1A68     		ldr	r2, [r3]
 2708 001e 05A8     		add	r0, sp, #20
 2709 0020 FFF7FEFF 		bl	mbedtls_x509_crt_parse
 2710              	.LVL418:
 2711 0024 041E     		subs	r4, r0, #0
 2712              	.LVL419:
1016:Source\mbedtls_open\library/x509.c ****                            mbedtls_test_cli_crt_len );
1017:Source\mbedtls_open\library/x509.c ****     if( ret != 0 )
 2713              		.loc 1 1017 0
 2714 0026 06D0     		beq	.L231
1018:Source\mbedtls_open\library/x509.c ****     {
1019:Source\mbedtls_open\library/x509.c ****         if( verbose != 0 )
 2715              		.loc 1 1019 0
 2716 0028 002D     		cmp	r5, #0
 2717 002a 3DD0     		beq	.L237
1020:Source\mbedtls_open\library/x509.c ****             mbedtls_printf( "failed\n" );
 2718              		.loc 1 1020 0
 2719 002c 2548     		ldr	r0, .L240+16
ARM GAS  C:\Users\Phuong\AppData\Local\Temp\cciPItDa.s 			page 70


 2720              	.LVL420:
 2721 002e FFF7FEFF 		bl	puts
 2722              	.LVL421:
1021:Source\mbedtls_open\library/x509.c **** 
1022:Source\mbedtls_open\library/x509.c ****         return( ret );
 2723              		.loc 1 1022 0
 2724 0032 2000     		movs	r0, r4
 2725 0034 3AE0     		b	.L232
 2726              	.L231:
1023:Source\mbedtls_open\library/x509.c ****     }
1024:Source\mbedtls_open\library/x509.c **** 
1025:Source\mbedtls_open\library/x509.c ****     mbedtls_x509_crt_init( &cacert );
 2727              		.loc 1 1025 0
 2728 0036 52A8     		add	r0, sp, #328
 2729 0038 FFF7FEFF 		bl	mbedtls_x509_crt_init
 2730              	.LVL422:
1026:Source\mbedtls_open\library/x509.c **** 
1027:Source\mbedtls_open\library/x509.c ****     ret = mbedtls_x509_crt_parse( &cacert, (const unsigned char *) mbedtls_test_ca_crt,
 2731              		.loc 1 1027 0
 2732 003c 224B     		ldr	r3, .L240+20
 2733 003e 1968     		ldr	r1, [r3]
 2734 0040 224B     		ldr	r3, .L240+24
 2735 0042 1A68     		ldr	r2, [r3]
 2736 0044 52A8     		add	r0, sp, #328
 2737 0046 FFF7FEFF 		bl	mbedtls_x509_crt_parse
 2738              	.LVL423:
 2739 004a 041E     		subs	r4, r0, #0
 2740              	.LVL424:
1028:Source\mbedtls_open\library/x509.c ****                           mbedtls_test_ca_crt_len );
1029:Source\mbedtls_open\library/x509.c ****     if( ret != 0 )
 2741              		.loc 1 1029 0
 2742 004c 06D0     		beq	.L233
1030:Source\mbedtls_open\library/x509.c ****     {
1031:Source\mbedtls_open\library/x509.c ****         if( verbose != 0 )
 2743              		.loc 1 1031 0
 2744 004e 002D     		cmp	r5, #0
 2745 0050 2BD0     		beq	.L238
1032:Source\mbedtls_open\library/x509.c ****             mbedtls_printf( "failed\n" );
 2746              		.loc 1 1032 0
 2747 0052 1C48     		ldr	r0, .L240+16
 2748              	.LVL425:
 2749 0054 FFF7FEFF 		bl	puts
 2750              	.LVL426:
1033:Source\mbedtls_open\library/x509.c **** 
1034:Source\mbedtls_open\library/x509.c ****         return( ret );
 2751              		.loc 1 1034 0
 2752 0058 2000     		movs	r0, r4
 2753 005a 27E0     		b	.L232
 2754              	.L233:
1035:Source\mbedtls_open\library/x509.c ****     }
1036:Source\mbedtls_open\library/x509.c **** 
1037:Source\mbedtls_open\library/x509.c ****     if( verbose != 0 )
 2755              		.loc 1 1037 0
 2756 005c 002D     		cmp	r5, #0
 2757 005e 02D0     		beq	.L234
1038:Source\mbedtls_open\library/x509.c ****         mbedtls_printf( "passed\n  X.509 signature verify: ");
 2758              		.loc 1 1038 0
ARM GAS  C:\Users\Phuong\AppData\Local\Temp\cciPItDa.s 			page 71


 2759 0060 1B48     		ldr	r0, .L240+28
 2760 0062 FFF7FEFF 		bl	printf
 2761              	.LVL427:
 2762              	.L234:
1039:Source\mbedtls_open\library/x509.c **** 
1040:Source\mbedtls_open\library/x509.c ****     ret = mbedtls_x509_crt_verify( &clicert, &cacert, NULL, NULL, &flags, NULL, NULL );
 2763              		.loc 1 1040 0
 2764 0066 0023     		movs	r3, #0
 2765 0068 0293     		str	r3, [sp, #8]
 2766 006a 0193     		str	r3, [sp, #4]
 2767 006c 9FAB     		add	r3, sp, #636
 2768 006e 0093     		str	r3, [sp]
 2769 0070 0023     		movs	r3, #0
 2770 0072 0022     		movs	r2, #0
 2771 0074 52A9     		add	r1, sp, #328
 2772 0076 05A8     		add	r0, sp, #20
 2773 0078 FFF7FEFF 		bl	mbedtls_x509_crt_verify
 2774              	.LVL428:
 2775 007c 041E     		subs	r4, r0, #0
 2776              	.LVL429:
1041:Source\mbedtls_open\library/x509.c ****     if( ret != 0 )
 2777              		.loc 1 1041 0
 2778 007e 06D0     		beq	.L235
1042:Source\mbedtls_open\library/x509.c ****     {
1043:Source\mbedtls_open\library/x509.c ****         if( verbose != 0 )
 2779              		.loc 1 1043 0
 2780 0080 002D     		cmp	r5, #0
 2781 0082 13D0     		beq	.L239
1044:Source\mbedtls_open\library/x509.c ****             mbedtls_printf( "failed\n" );
 2782              		.loc 1 1044 0
 2783 0084 0F48     		ldr	r0, .L240+16
 2784              	.LVL430:
 2785 0086 FFF7FEFF 		bl	puts
 2786              	.LVL431:
1045:Source\mbedtls_open\library/x509.c **** 
1046:Source\mbedtls_open\library/x509.c ****         return( ret );
 2787              		.loc 1 1046 0
 2788 008a 2000     		movs	r0, r4
 2789 008c 0EE0     		b	.L232
 2790              	.L235:
1047:Source\mbedtls_open\library/x509.c ****     }
1048:Source\mbedtls_open\library/x509.c **** 
1049:Source\mbedtls_open\library/x509.c ****     if( verbose != 0 )
 2791              		.loc 1 1049 0
 2792 008e 002D     		cmp	r5, #0
 2793 0090 02D0     		beq	.L236
1050:Source\mbedtls_open\library/x509.c ****         mbedtls_printf( "passed\n\n");
 2794              		.loc 1 1050 0
 2795 0092 1048     		ldr	r0, .L240+32
 2796 0094 FFF7FEFF 		bl	puts
 2797              	.LVL432:
 2798              	.L236:
1051:Source\mbedtls_open\library/x509.c **** 
1052:Source\mbedtls_open\library/x509.c ****     mbedtls_x509_crt_free( &cacert  );
 2799              		.loc 1 1052 0
 2800 0098 52A8     		add	r0, sp, #328
 2801 009a FFF7FEFF 		bl	mbedtls_x509_crt_free
ARM GAS  C:\Users\Phuong\AppData\Local\Temp\cciPItDa.s 			page 72


 2802              	.LVL433:
1053:Source\mbedtls_open\library/x509.c ****     mbedtls_x509_crt_free( &clicert );
 2803              		.loc 1 1053 0
 2804 009e 05A8     		add	r0, sp, #20
 2805 00a0 FFF7FEFF 		bl	mbedtls_x509_crt_free
 2806              	.LVL434:
1054:Source\mbedtls_open\library/x509.c **** 
1055:Source\mbedtls_open\library/x509.c ****     return( 0 );
 2807              		.loc 1 1055 0
 2808 00a4 0020     		movs	r0, #0
 2809 00a6 01E0     		b	.L232
 2810              	.LVL435:
 2811              	.L237:
 2812 00a8 00E0     		b	.L232
 2813              	.L238:
 2814 00aa FFE7     		b	.L232
 2815              	.L239:
 2816              	.LVL436:
 2817              	.L232:
1056:Source\mbedtls_open\library/x509.c **** #else
1057:Source\mbedtls_open\library/x509.c ****     ((void) verbose);
1058:Source\mbedtls_open\library/x509.c ****     return( 0 );
1059:Source\mbedtls_open\library/x509.c **** #endif /* MBEDTLS_CERTS_C && MBEDTLS_SHA1_C */
1060:Source\mbedtls_open\library/x509.c **** }
 2818              		.loc 1 1060 0
 2819 00ac A123     		movs	r3, #161
 2820 00ae 9B00     		lsls	r3, r3, #2
 2821 00b0 9D44     		add	sp, sp, r3
 2822              		@ sp needed
 2823              	.LVL437:
 2824              	.LVL438:
 2825 00b2 30BD     		pop	{r4, r5, pc}
 2826              	.L241:
 2827              		.align	2
 2828              	.L240:
 2829 00b4 7CFDFFFF 		.word	-644
 2830 00b8 60000000 		.word	.LC28
 2831 00bc 00000000 		.word	mbedtls_test_cli_crt
 2832 00c0 00000000 		.word	mbedtls_test_cli_crt_len
 2833 00c4 7C000000 		.word	.LC32
 2834 00c8 00000000 		.word	mbedtls_test_ca_crt
 2835 00cc 00000000 		.word	mbedtls_test_ca_crt_len
 2836 00d0 84000000 		.word	.LC36
 2837 00d4 A8000000 		.word	.LC38
 2838              		.cfi_endproc
 2839              	.LFE31:
 2840              		.size	mbedtls_x509_self_test, .-mbedtls_x509_self_test
 2841              		.section	.rodata.str1.4,"aMS",%progbits,1
 2842              		.align	2
 2843              	.LC1:
 2844 0000 2A864886 		.ascii	"*\206H\206\367\015\001\001\010\000"
 2844      F70D0101 
 2844      0800
 2845 000a 0000     		.space	2
 2846              	.LC3:
 2847 000c 202B2000 		.ascii	" + \000"
 2848              	.LC5:
ARM GAS  C:\Users\Phuong\AppData\Local\Temp\cciPItDa.s 			page 73


 2849 0010 2C2000   		.ascii	", \000"
 2850 0013 00       		.space	1
 2851              	.LC7:
 2852 0014 25733D00 		.ascii	"%s=\000"
 2853              	.LC9:
 2854 0018 3F3F3D00 		.ascii	"??=\000"
 2855              	.LC11:
 2856 001c 257300   		.ascii	"%s\000"
 2857 001f 00       		.space	1
 2858              	.LC13:
 2859 0020 3A00     		.ascii	":\000"
 2860 0022 0000     		.space	2
 2861              	.LC15:
 2862 0024 00       		.ascii	"\000"
 2863 0025 000000   		.space	3
 2864              	.LC17:
 2865 0028 25303258 		.ascii	"%02X%s\000"
 2865      257300
 2866 002f 00       		.space	1
 2867              	.LC19:
 2868 0030 2E2E2E2E 		.ascii	"....\000"
 2868      00
 2869 0035 000000   		.space	3
 2870              	.LC21:
 2871 0038 3F3F3F00 		.ascii	"???\000"
 2872              	.LC24:
 2873 003c 20282573 		.ascii	" (%s, MGF1-%s, 0x%02X)\000"
 2873      2C204D47 
 2873      46312D25 
 2873      732C2030 
 2873      78253032 
 2874 0053 00       		.space	1
 2875              	.LC26:
 2876 0054 2573206B 		.ascii	"%s key size\000"
 2876      65792073 
 2876      697A6500 
 2877              	.LC28:
 2878 0060 2020582E 		.ascii	"  X.509 certificate load: \000"
 2878      35303920 
 2878      63657274 
 2878      69666963 
 2878      61746520 
 2879 007b 00       		.space	1
 2880              	.LC32:
 2881 007c 6661696C 		.ascii	"failed\000"
 2881      656400
 2882 0083 00       		.space	1
 2883              	.LC36:
 2884 0084 70617373 		.ascii	"passed\012  X.509 signature verify: \000"
 2884      65640A20 
 2884      20582E35 
 2884      30392073 
 2884      69676E61 
 2885 00a6 0000     		.space	2
 2886              	.LC38:
 2887 00a8 70617373 		.ascii	"passed\012\000"
 2887      65640A00 
ARM GAS  C:\Users\Phuong\AppData\Local\Temp\cciPItDa.s 			page 74


 2888              		.text
 2889              	.Letext0:
 2890              		.file 2 "c:\\program files (x86)\\cypress\\psoc creator\\4.2\\psoc creator\\import\\gnu\\arm\\5.4.
 2891              		.file 3 "c:\\program files (x86)\\cypress\\psoc creator\\4.2\\psoc creator\\import\\gnu\\arm\\5.4.
 2892              		.file 4 "c:\\program files (x86)\\cypress\\psoc creator\\4.2\\psoc creator\\import\\gnu\\arm\\5.4.
 2893              		.file 5 ".\\Source\\mbedtls_open\\include/mbedtls/asn1.h"
 2894              		.file 6 ".\\Source\\mbedtls_open\\include/mbedtls/md.h"
 2895              		.file 7 ".\\Source\\mbedtls_open\\include/mbedtls/pk.h"
 2896              		.file 8 ".\\Source\\mbedtls_open\\include/mbedtls/x509.h"
 2897              		.file 9 ".\\Source\\mbedtls_open\\include/mbedtls/x509_crt.h"
 2898              		.file 10 ".\\Source\\mbedtls_open\\include/mbedtls/certs.h"
 2899              		.file 11 ".\\Source\\mbedtls_open\\include/mbedtls/oid.h"
 2900              		.file 12 "c:\\program files (x86)\\cypress\\psoc creator\\4.2\\psoc creator\\import\\gnu\\arm\\5.4
 2901              		.file 13 "c:\\program files (x86)\\cypress\\psoc creator\\4.2\\psoc creator\\import\\gnu\\arm\\5.4
 2902              		.file 14 "c:\\program files (x86)\\cypress\\psoc creator\\4.2\\psoc creator\\import\\gnu\\arm\\5.4
 2903              		.file 15 "<built-in>"
 2904              		.section	.debug_info,"",%progbits
 2905              	.Ldebug_info0:
 2906 0000 2D180000 		.4byte	0x182d
 2907 0004 0400     		.2byte	0x4
 2908 0006 00000000 		.4byte	.Ldebug_abbrev0
 2909 000a 04       		.byte	0x4
 2910 000b 01       		.uleb128 0x1
 2911 000c 1D020000 		.4byte	.LASF153
 2912 0010 0C       		.byte	0xc
 2913 0011 D6010000 		.4byte	.LASF154
 2914 0015 50030000 		.4byte	.LASF155
 2915 0019 30000000 		.4byte	.Ldebug_ranges0+0x30
 2916 001d 00000000 		.4byte	0
 2917 0021 00000000 		.4byte	.Ldebug_line0
 2918 0025 02       		.uleb128 0x2
 2919 0026 01       		.byte	0x1
 2920 0027 06       		.byte	0x6
 2921 0028 A6090000 		.4byte	.LASF0
 2922 002c 02       		.uleb128 0x2
 2923 002d 01       		.byte	0x1
 2924 002e 08       		.byte	0x8
 2925 002f CC080000 		.4byte	.LASF1
 2926 0033 02       		.uleb128 0x2
 2927 0034 02       		.byte	0x2
 2928 0035 05       		.byte	0x5
 2929 0036 84070000 		.4byte	.LASF2
 2930 003a 02       		.uleb128 0x2
 2931 003b 02       		.byte	0x2
 2932 003c 07       		.byte	0x7
 2933 003d C7090000 		.4byte	.LASF3
 2934 0041 02       		.uleb128 0x2
 2935 0042 04       		.byte	0x4
 2936 0043 05       		.byte	0x5
 2937 0044 99070000 		.4byte	.LASF4
 2938 0048 03       		.uleb128 0x3
 2939 0049 DA080000 		.4byte	.LASF9
 2940 004d 02       		.byte	0x2
 2941 004e 41       		.byte	0x41
 2942 004f 53000000 		.4byte	0x53
 2943 0053 02       		.uleb128 0x2
 2944 0054 04       		.byte	0x4
ARM GAS  C:\Users\Phuong\AppData\Local\Temp\cciPItDa.s 			page 75


 2945 0055 07       		.byte	0x7
 2946 0056 A7080000 		.4byte	.LASF5
 2947 005a 02       		.uleb128 0x2
 2948 005b 08       		.byte	0x8
 2949 005c 05       		.byte	0x5
 2950 005d 22060000 		.4byte	.LASF6
 2951 0061 02       		.uleb128 0x2
 2952 0062 08       		.byte	0x8
 2953 0063 07       		.byte	0x7
 2954 0064 D7020000 		.4byte	.LASF7
 2955 0068 04       		.uleb128 0x4
 2956 0069 04       		.byte	0x4
 2957 006a 05       		.byte	0x5
 2958 006b 696E7400 		.ascii	"int\000"
 2959 006f 02       		.uleb128 0x2
 2960 0070 04       		.byte	0x4
 2961 0071 07       		.byte	0x7
 2962 0072 AF000000 		.4byte	.LASF8
 2963 0076 03       		.uleb128 0x3
 2964 0077 40040000 		.4byte	.LASF10
 2965 007b 03       		.byte	0x3
 2966 007c D8       		.byte	0xd8
 2967 007d 6F000000 		.4byte	0x6f
 2968 0081 02       		.uleb128 0x2
 2969 0082 08       		.byte	0x8
 2970 0083 04       		.byte	0x4
 2971 0084 2A070000 		.4byte	.LASF11
 2972 0088 03       		.uleb128 0x3
 2973 0089 BB010000 		.4byte	.LASF12
 2974 008d 04       		.byte	0x4
 2975 008e 30       		.byte	0x30
 2976 008f 48000000 		.4byte	0x48
 2977 0093 05       		.uleb128 0x5
 2978 0094 AA070000 		.4byte	.LASF13
 2979 0098 0C       		.byte	0xc
 2980 0099 05       		.byte	0x5
 2981 009a 86       		.byte	0x86
 2982 009b C2000000 		.4byte	0xc2
 2983 009f 06       		.uleb128 0x6
 2984 00a0 74616700 		.ascii	"tag\000"
 2985 00a4 05       		.byte	0x5
 2986 00a5 88       		.byte	0x88
 2987 00a6 68000000 		.4byte	0x68
 2988 00aa 00       		.byte	0
 2989 00ab 06       		.uleb128 0x6
 2990 00ac 6C656E00 		.ascii	"len\000"
 2991 00b0 05       		.byte	0x5
 2992 00b1 89       		.byte	0x89
 2993 00b2 76000000 		.4byte	0x76
 2994 00b6 04       		.byte	0x4
 2995 00b7 06       		.uleb128 0x6
 2996 00b8 7000     		.ascii	"p\000"
 2997 00ba 05       		.byte	0x5
 2998 00bb 8A       		.byte	0x8a
 2999 00bc C2000000 		.4byte	0xc2
 3000 00c0 08       		.byte	0x8
 3001 00c1 00       		.byte	0
ARM GAS  C:\Users\Phuong\AppData\Local\Temp\cciPItDa.s 			page 76


 3002 00c2 07       		.uleb128 0x7
 3003 00c3 04       		.byte	0x4
 3004 00c4 2C000000 		.4byte	0x2c
 3005 00c8 03       		.uleb128 0x3
 3006 00c9 AA070000 		.4byte	.LASF13
 3007 00cd 05       		.byte	0x5
 3008 00ce 8C       		.byte	0x8c
 3009 00cf 93000000 		.4byte	0x93
 3010 00d3 05       		.uleb128 0x5
 3011 00d4 3D080000 		.4byte	.LASF14
 3012 00d8 10       		.byte	0x10
 3013 00d9 05       		.byte	0x5
 3014 00da 9C       		.byte	0x9c
 3015 00db F8000000 		.4byte	0xf8
 3016 00df 06       		.uleb128 0x6
 3017 00e0 62756600 		.ascii	"buf\000"
 3018 00e4 05       		.byte	0x5
 3019 00e5 9E       		.byte	0x9e
 3020 00e6 C8000000 		.4byte	0xc8
 3021 00ea 00       		.byte	0
 3022 00eb 08       		.uleb128 0x8
 3023 00ec BC000000 		.4byte	.LASF15
 3024 00f0 05       		.byte	0x5
 3025 00f1 9F       		.byte	0x9f
 3026 00f2 F8000000 		.4byte	0xf8
 3027 00f6 0C       		.byte	0xc
 3028 00f7 00       		.byte	0
 3029 00f8 07       		.uleb128 0x7
 3030 00f9 04       		.byte	0x4
 3031 00fa D3000000 		.4byte	0xd3
 3032 00fe 03       		.uleb128 0x3
 3033 00ff 3D080000 		.4byte	.LASF14
 3034 0103 05       		.byte	0x5
 3035 0104 A1       		.byte	0xa1
 3036 0105 D3000000 		.4byte	0xd3
 3037 0109 05       		.uleb128 0x5
 3038 010a 56090000 		.4byte	.LASF16
 3039 010e 20       		.byte	0x20
 3040 010f 05       		.byte	0x5
 3041 0110 A6       		.byte	0xa6
 3042 0111 46010000 		.4byte	0x146
 3043 0115 06       		.uleb128 0x6
 3044 0116 6F696400 		.ascii	"oid\000"
 3045 011a 05       		.byte	0x5
 3046 011b A8       		.byte	0xa8
 3047 011c C8000000 		.4byte	0xc8
 3048 0120 00       		.byte	0
 3049 0121 06       		.uleb128 0x6
 3050 0122 76616C00 		.ascii	"val\000"
 3051 0126 05       		.byte	0x5
 3052 0127 A9       		.byte	0xa9
 3053 0128 C8000000 		.4byte	0xc8
 3054 012c 0C       		.byte	0xc
 3055 012d 08       		.uleb128 0x8
 3056 012e BC000000 		.4byte	.LASF15
 3057 0132 05       		.byte	0x5
 3058 0133 AA       		.byte	0xaa
ARM GAS  C:\Users\Phuong\AppData\Local\Temp\cciPItDa.s 			page 77


 3059 0134 46010000 		.4byte	0x146
 3060 0138 18       		.byte	0x18
 3061 0139 08       		.uleb128 0x8
 3062 013a 47040000 		.4byte	.LASF17
 3063 013e 05       		.byte	0x5
 3064 013f AB       		.byte	0xab
 3065 0140 2C000000 		.4byte	0x2c
 3066 0144 1C       		.byte	0x1c
 3067 0145 00       		.byte	0
 3068 0146 07       		.uleb128 0x7
 3069 0147 04       		.byte	0x4
 3070 0148 09010000 		.4byte	0x109
 3071 014c 03       		.uleb128 0x3
 3072 014d 56090000 		.4byte	.LASF16
 3073 0151 05       		.byte	0x5
 3074 0152 AD       		.byte	0xad
 3075 0153 09010000 		.4byte	0x109
 3076 0157 09       		.uleb128 0x9
 3077 0158 01       		.byte	0x1
 3078 0159 2C000000 		.4byte	0x2c
 3079 015d 06       		.byte	0x6
 3080 015e 38       		.byte	0x38
 3081 015f A0010000 		.4byte	0x1a0
 3082 0163 0A       		.uleb128 0xa
 3083 0164 7A060000 		.4byte	.LASF18
 3084 0168 00       		.byte	0
 3085 0169 0A       		.uleb128 0xa
 3086 016a 71080000 		.4byte	.LASF19
 3087 016e 01       		.byte	0x1
 3088 016f 0A       		.uleb128 0xa
 3089 0170 80080000 		.4byte	.LASF20
 3090 0174 02       		.byte	0x2
 3091 0175 0A       		.uleb128 0xa
 3092 0176 8F080000 		.4byte	.LASF21
 3093 017a 03       		.byte	0x3
 3094 017b 0A       		.uleb128 0xa
 3095 017c 53080000 		.4byte	.LASF22
 3096 0180 04       		.byte	0x4
 3097 0181 0A       		.uleb128 0xa
 3098 0182 74010000 		.4byte	.LASF23
 3099 0186 05       		.byte	0x5
 3100 0187 0A       		.uleb128 0xa
 3101 0188 6D040000 		.4byte	.LASF24
 3102 018c 06       		.byte	0x6
 3103 018d 0A       		.uleb128 0xa
 3104 018e DA090000 		.4byte	.LASF25
 3105 0192 07       		.byte	0x7
 3106 0193 0A       		.uleb128 0xa
 3107 0194 F6020000 		.4byte	.LASF26
 3108 0198 08       		.byte	0x8
 3109 0199 0A       		.uleb128 0xa
 3110 019a B2090000 		.4byte	.LASF27
 3111 019e 09       		.byte	0x9
 3112 019f 00       		.byte	0
 3113 01a0 03       		.uleb128 0x3
 3114 01a1 96000000 		.4byte	.LASF28
 3115 01a5 06       		.byte	0x6
ARM GAS  C:\Users\Phuong\AppData\Local\Temp\cciPItDa.s 			page 78


 3116 01a6 43       		.byte	0x43
 3117 01a7 57010000 		.4byte	0x157
 3118 01ab 03       		.uleb128 0x3
 3119 01ac F3040000 		.4byte	.LASF29
 3120 01b0 06       		.byte	0x6
 3121 01b1 4E       		.byte	0x4e
 3122 01b2 B6010000 		.4byte	0x1b6
 3123 01b6 0B       		.uleb128 0xb
 3124 01b7 F3040000 		.4byte	.LASF29
 3125 01bb 07       		.uleb128 0x7
 3126 01bc 04       		.byte	0x4
 3127 01bd C1010000 		.4byte	0x1c1
 3128 01c1 0C       		.uleb128 0xc
 3129 01c2 AB010000 		.4byte	0x1ab
 3130 01c6 0D       		.uleb128 0xd
 3131 01c7 04       		.byte	0x4
 3132 01c8 07       		.uleb128 0x7
 3133 01c9 04       		.byte	0x4
 3134 01ca D5010000 		.4byte	0x1d5
 3135 01ce 02       		.uleb128 0x2
 3136 01cf 01       		.byte	0x1
 3137 01d0 08       		.byte	0x8
 3138 01d1 2F050000 		.4byte	.LASF30
 3139 01d5 0C       		.uleb128 0xc
 3140 01d6 CE010000 		.4byte	0x1ce
 3141 01da 09       		.uleb128 0x9
 3142 01db 01       		.byte	0x1
 3143 01dc 2C000000 		.4byte	0x2c
 3144 01e0 07       		.byte	0x7
 3145 01e1 4C       		.byte	0x4c
 3146 01e2 11020000 		.4byte	0x211
 3147 01e6 0A       		.uleb128 0xa
 3148 01e7 D7040000 		.4byte	.LASF31
 3149 01eb 00       		.byte	0
 3150 01ec 0A       		.uleb128 0xa
 3151 01ed 65010000 		.4byte	.LASF32
 3152 01f1 01       		.byte	0x1
 3153 01f2 0A       		.uleb128 0xa
 3154 01f3 08030000 		.4byte	.LASF33
 3155 01f7 02       		.byte	0x2
 3156 01f8 0A       		.uleb128 0xa
 3157 01f9 40000000 		.4byte	.LASF34
 3158 01fd 03       		.byte	0x3
 3159 01fe 0A       		.uleb128 0xa
 3160 01ff C6040000 		.4byte	.LASF35
 3161 0203 04       		.byte	0x4
 3162 0204 0A       		.uleb128 0xa
 3163 0205 3D030000 		.4byte	.LASF36
 3164 0209 05       		.byte	0x5
 3165 020a 0A       		.uleb128 0xa
 3166 020b A3060000 		.4byte	.LASF37
 3167 020f 06       		.byte	0x6
 3168 0210 00       		.byte	0
 3169 0211 03       		.uleb128 0x3
 3170 0212 A2050000 		.4byte	.LASF38
 3171 0216 07       		.byte	0x7
 3172 0217 54       		.byte	0x54
ARM GAS  C:\Users\Phuong\AppData\Local\Temp\cciPItDa.s 			page 79


 3173 0218 DA010000 		.4byte	0x1da
 3174 021c 05       		.uleb128 0x5
 3175 021d F5030000 		.4byte	.LASF39
 3176 0221 08       		.byte	0x8
 3177 0222 07       		.byte	0x7
 3178 0223 5A       		.byte	0x5a
 3179 0224 41020000 		.4byte	0x241
 3180 0228 08       		.uleb128 0x8
 3181 0229 C7060000 		.4byte	.LASF40
 3182 022d 07       		.byte	0x7
 3183 022e 5C       		.byte	0x5c
 3184 022f A0010000 		.4byte	0x1a0
 3185 0233 00       		.byte	0
 3186 0234 08       		.uleb128 0x8
 3187 0235 91060000 		.4byte	.LASF41
 3188 0239 07       		.byte	0x7
 3189 023a 5D       		.byte	0x5d
 3190 023b 68000000 		.4byte	0x68
 3191 023f 04       		.byte	0x4
 3192 0240 00       		.byte	0
 3193 0241 03       		.uleb128 0x3
 3194 0242 F5030000 		.4byte	.LASF39
 3195 0246 07       		.byte	0x7
 3196 0247 5F       		.byte	0x5f
 3197 0248 1C020000 		.4byte	0x21c
 3198 024c 03       		.uleb128 0x3
 3199 024d D9060000 		.4byte	.LASF42
 3200 0251 07       		.byte	0x7
 3201 0252 7B       		.byte	0x7b
 3202 0253 57020000 		.4byte	0x257
 3203 0257 0B       		.uleb128 0xb
 3204 0258 D9060000 		.4byte	.LASF42
 3205 025c 05       		.uleb128 0x5
 3206 025d AF020000 		.4byte	.LASF43
 3207 0261 08       		.byte	0x8
 3208 0262 07       		.byte	0x7
 3209 0263 80       		.byte	0x80
 3210 0264 81020000 		.4byte	0x281
 3211 0268 08       		.uleb128 0x8
 3212 0269 7C070000 		.4byte	.LASF44
 3213 026d 07       		.byte	0x7
 3214 026e 82       		.byte	0x82
 3215 026f 81020000 		.4byte	0x281
 3216 0273 00       		.byte	0
 3217 0274 08       		.uleb128 0x8
 3218 0275 C5080000 		.4byte	.LASF45
 3219 0279 07       		.byte	0x7
 3220 027a 83       		.byte	0x83
 3221 027b C6010000 		.4byte	0x1c6
 3222 027f 04       		.byte	0x4
 3223 0280 00       		.byte	0
 3224 0281 07       		.uleb128 0x7
 3225 0282 04       		.byte	0x4
 3226 0283 87020000 		.4byte	0x287
 3227 0287 0C       		.uleb128 0xc
 3228 0288 4C020000 		.4byte	0x24c
 3229 028c 03       		.uleb128 0x3
ARM GAS  C:\Users\Phuong\AppData\Local\Temp\cciPItDa.s 			page 80


 3230 028d AF020000 		.4byte	.LASF43
 3231 0291 07       		.byte	0x7
 3232 0292 84       		.byte	0x84
 3233 0293 5C020000 		.4byte	0x25c
 3234 0297 07       		.uleb128 0x7
 3235 0298 04       		.byte	0x4
 3236 0299 9D020000 		.4byte	0x29d
 3237 029d 0C       		.uleb128 0xc
 3238 029e 2C000000 		.4byte	0x2c
 3239 02a2 03       		.uleb128 0x3
 3240 02a3 AA010000 		.4byte	.LASF46
 3241 02a7 08       		.byte	0x8
 3242 02a8 BD       		.byte	0xbd
 3243 02a9 C8000000 		.4byte	0xc8
 3244 02ad 03       		.uleb128 0x3
 3245 02ae FC050000 		.4byte	.LASF47
 3246 02b2 08       		.byte	0x8
 3247 02b3 C8       		.byte	0xc8
 3248 02b4 4C010000 		.4byte	0x14c
 3249 02b8 03       		.uleb128 0x3
 3250 02b9 24010000 		.4byte	.LASF48
 3251 02bd 08       		.byte	0x8
 3252 02be CD       		.byte	0xcd
 3253 02bf FE000000 		.4byte	0xfe
 3254 02c3 05       		.uleb128 0x5
 3255 02c4 53010000 		.4byte	.LASF49
 3256 02c8 18       		.byte	0x18
 3257 02c9 08       		.byte	0x8
 3258 02ca D0       		.byte	0xd0
 3259 02cb 18030000 		.4byte	0x318
 3260 02cf 08       		.uleb128 0x8
 3261 02d0 B9080000 		.4byte	.LASF50
 3262 02d4 08       		.byte	0x8
 3263 02d5 D2       		.byte	0xd2
 3264 02d6 68000000 		.4byte	0x68
 3265 02da 00       		.byte	0
 3266 02db 06       		.uleb128 0x6
 3267 02dc 6D6F6E00 		.ascii	"mon\000"
 3268 02e0 08       		.byte	0x8
 3269 02e1 D2       		.byte	0xd2
 3270 02e2 68000000 		.4byte	0x68
 3271 02e6 04       		.byte	0x4
 3272 02e7 06       		.uleb128 0x6
 3273 02e8 64617900 		.ascii	"day\000"
 3274 02ec 08       		.byte	0x8
 3275 02ed D2       		.byte	0xd2
 3276 02ee 68000000 		.4byte	0x68
 3277 02f2 08       		.byte	0x8
 3278 02f3 08       		.uleb128 0x8
 3279 02f4 EE040000 		.4byte	.LASF51
 3280 02f8 08       		.byte	0x8
 3281 02f9 D3       		.byte	0xd3
 3282 02fa 68000000 		.4byte	0x68
 3283 02fe 0C       		.byte	0xc
 3284 02ff 06       		.uleb128 0x6
 3285 0300 6D696E00 		.ascii	"min\000"
 3286 0304 08       		.byte	0x8
ARM GAS  C:\Users\Phuong\AppData\Local\Temp\cciPItDa.s 			page 81


 3287 0305 D3       		.byte	0xd3
 3288 0306 68000000 		.4byte	0x68
 3289 030a 10       		.byte	0x10
 3290 030b 06       		.uleb128 0x6
 3291 030c 73656300 		.ascii	"sec\000"
 3292 0310 08       		.byte	0x8
 3293 0311 D3       		.byte	0xd3
 3294 0312 68000000 		.4byte	0x68
 3295 0316 14       		.byte	0x14
 3296 0317 00       		.byte	0
 3297 0318 03       		.uleb128 0x3
 3298 0319 53010000 		.4byte	.LASF49
 3299 031d 08       		.byte	0x8
 3300 031e D5       		.byte	0xd5
 3301 031f C3020000 		.4byte	0x2c3
 3302 0323 02       		.uleb128 0x2
 3303 0324 04       		.byte	0x4
 3304 0325 07       		.byte	0x7
 3305 0326 9E080000 		.4byte	.LASF52
 3306 032a 07       		.uleb128 0x7
 3307 032b 04       		.byte	0x4
 3308 032c CE010000 		.4byte	0x1ce
 3309 0330 07       		.uleb128 0x7
 3310 0331 04       		.byte	0x4
 3311 0332 36030000 		.4byte	0x336
 3312 0336 0E       		.uleb128 0xe
 3313 0337 0F       		.uleb128 0xf
 3314 0338 1E050000 		.4byte	.LASF53
 3315 033c 3401     		.2byte	0x134
 3316 033e 09       		.byte	0x9
 3317 033f 35       		.byte	0x35
 3318 0340 91040000 		.4byte	0x491
 3319 0344 06       		.uleb128 0x6
 3320 0345 72617700 		.ascii	"raw\000"
 3321 0349 09       		.byte	0x9
 3322 034a 37       		.byte	0x37
 3323 034b A2020000 		.4byte	0x2a2
 3324 034f 00       		.byte	0
 3325 0350 06       		.uleb128 0x6
 3326 0351 74627300 		.ascii	"tbs\000"
 3327 0355 09       		.byte	0x9
 3328 0356 38       		.byte	0x38
 3329 0357 A2020000 		.4byte	0x2a2
 3330 035b 0C       		.byte	0xc
 3331 035c 08       		.uleb128 0x8
 3332 035d C1000000 		.4byte	.LASF54
 3333 0361 09       		.byte	0x9
 3334 0362 3A       		.byte	0x3a
 3335 0363 68000000 		.4byte	0x68
 3336 0367 18       		.byte	0x18
 3337 0368 08       		.uleb128 0x8
 3338 0369 BE080000 		.4byte	.LASF55
 3339 036d 09       		.byte	0x9
 3340 036e 3B       		.byte	0x3b
 3341 036f A2020000 		.4byte	0x2a2
 3342 0373 1C       		.byte	0x1c
 3343 0374 08       		.uleb128 0x8
ARM GAS  C:\Users\Phuong\AppData\Local\Temp\cciPItDa.s 			page 82


 3344 0375 3A010000 		.4byte	.LASF56
 3345 0379 09       		.byte	0x9
 3346 037a 3C       		.byte	0x3c
 3347 037b A2020000 		.4byte	0x2a2
 3348 037f 28       		.byte	0x28
 3349 0380 08       		.uleb128 0x8
 3350 0381 5D000000 		.4byte	.LASF57
 3351 0385 09       		.byte	0x9
 3352 0386 3E       		.byte	0x3e
 3353 0387 A2020000 		.4byte	0x2a2
 3354 038b 34       		.byte	0x34
 3355 038c 08       		.uleb128 0x8
 3356 038d 08020000 		.4byte	.LASF58
 3357 0391 09       		.byte	0x9
 3358 0392 3F       		.byte	0x3f
 3359 0393 A2020000 		.4byte	0x2a2
 3360 0397 40       		.byte	0x40
 3361 0398 08       		.uleb128 0x8
 3362 0399 E3050000 		.4byte	.LASF59
 3363 039d 09       		.byte	0x9
 3364 039e 41       		.byte	0x41
 3365 039f AD020000 		.4byte	0x2ad
 3366 03a3 4C       		.byte	0x4c
 3367 03a4 08       		.uleb128 0x8
 3368 03a5 1C010000 		.4byte	.LASF60
 3369 03a9 09       		.byte	0x9
 3370 03aa 42       		.byte	0x42
 3371 03ab AD020000 		.4byte	0x2ad
 3372 03af 6C       		.byte	0x6c
 3373 03b0 08       		.uleb128 0x8
 3374 03b1 8E070000 		.4byte	.LASF61
 3375 03b5 09       		.byte	0x9
 3376 03b6 44       		.byte	0x44
 3377 03b7 18030000 		.4byte	0x318
 3378 03bb 8C       		.byte	0x8c
 3379 03bc 08       		.uleb128 0x8
 3380 03bd 14020000 		.4byte	.LASF62
 3381 03c1 09       		.byte	0x9
 3382 03c2 45       		.byte	0x45
 3383 03c3 18030000 		.4byte	0x318
 3384 03c7 A4       		.byte	0xa4
 3385 03c8 06       		.uleb128 0x6
 3386 03c9 706B00   		.ascii	"pk\000"
 3387 03cc 09       		.byte	0x9
 3388 03cd 47       		.byte	0x47
 3389 03ce 8C020000 		.4byte	0x28c
 3390 03d2 BC       		.byte	0xbc
 3391 03d3 08       		.uleb128 0x8
 3392 03d4 42010000 		.4byte	.LASF63
 3393 03d8 09       		.byte	0x9
 3394 03d9 49       		.byte	0x49
 3395 03da A2020000 		.4byte	0x2a2
 3396 03de C4       		.byte	0xc4
 3397 03df 08       		.uleb128 0x8
 3398 03e0 68000000 		.4byte	.LASF64
 3399 03e4 09       		.byte	0x9
 3400 03e5 4A       		.byte	0x4a
ARM GAS  C:\Users\Phuong\AppData\Local\Temp\cciPItDa.s 			page 83


 3401 03e6 A2020000 		.4byte	0x2a2
 3402 03ea D0       		.byte	0xd0
 3403 03eb 08       		.uleb128 0x8
 3404 03ec 11000000 		.4byte	.LASF65
 3405 03f0 09       		.byte	0x9
 3406 03f1 4B       		.byte	0x4b
 3407 03f2 A2020000 		.4byte	0x2a2
 3408 03f6 DC       		.byte	0xdc
 3409 03f7 08       		.uleb128 0x8
 3410 03f8 4C050000 		.4byte	.LASF66
 3411 03fc 09       		.byte	0x9
 3412 03fd 4C       		.byte	0x4c
 3413 03fe B8020000 		.4byte	0x2b8
 3414 0402 E8       		.byte	0xe8
 3415 0403 08       		.uleb128 0x8
 3416 0404 05050000 		.4byte	.LASF67
 3417 0408 09       		.byte	0x9
 3418 0409 4E       		.byte	0x4e
 3419 040a 68000000 		.4byte	0x68
 3420 040e F8       		.byte	0xf8
 3421 040f 08       		.uleb128 0x8
 3422 0410 36000000 		.4byte	.LASF68
 3423 0414 09       		.byte	0x9
 3424 0415 4F       		.byte	0x4f
 3425 0416 68000000 		.4byte	0x68
 3426 041a FC       		.byte	0xfc
 3427 041b 10       		.uleb128 0x10
 3428 041c C2020000 		.4byte	.LASF69
 3429 0420 09       		.byte	0x9
 3430 0421 50       		.byte	0x50
 3431 0422 68000000 		.4byte	0x68
 3432 0426 0001     		.2byte	0x100
 3433 0428 10       		.uleb128 0x10
 3434 0429 33030000 		.4byte	.LASF70
 3435 042d 09       		.byte	0x9
 3436 042e 52       		.byte	0x52
 3437 042f 6F000000 		.4byte	0x6f
 3438 0433 0401     		.2byte	0x104
 3439 0435 10       		.uleb128 0x10
 3440 0436 28000000 		.4byte	.LASF71
 3441 043a 09       		.byte	0x9
 3442 043b 54       		.byte	0x54
 3443 043c B8020000 		.4byte	0x2b8
 3444 0440 0801     		.2byte	0x108
 3445 0442 10       		.uleb128 0x10
 3446 0443 15060000 		.4byte	.LASF72
 3447 0447 09       		.byte	0x9
 3448 0448 56       		.byte	0x56
 3449 0449 2C000000 		.4byte	0x2c
 3450 044d 1801     		.2byte	0x118
 3451 044f 11       		.uleb128 0x11
 3452 0450 73696700 		.ascii	"sig\000"
 3453 0454 09       		.byte	0x9
 3454 0455 58       		.byte	0x58
 3455 0456 A2020000 		.4byte	0x2a2
 3456 045a 1C01     		.2byte	0x11c
 3457 045c 10       		.uleb128 0x10
ARM GAS  C:\Users\Phuong\AppData\Local\Temp\cciPItDa.s 			page 84


 3458 045d 6E090000 		.4byte	.LASF73
 3459 0461 09       		.byte	0x9
 3460 0462 59       		.byte	0x59
 3461 0463 A0010000 		.4byte	0x1a0
 3462 0467 2801     		.2byte	0x128
 3463 0469 10       		.uleb128 0x10
 3464 046a FC000000 		.4byte	.LASF74
 3465 046e 09       		.byte	0x9
 3466 046f 5A       		.byte	0x5a
 3467 0470 11020000 		.4byte	0x211
 3468 0474 2901     		.2byte	0x129
 3469 0476 10       		.uleb128 0x10
 3470 0477 C4010000 		.4byte	.LASF75
 3471 047b 09       		.byte	0x9
 3472 047c 5B       		.byte	0x5b
 3473 047d C6010000 		.4byte	0x1c6
 3474 0481 2C01     		.2byte	0x12c
 3475 0483 10       		.uleb128 0x10
 3476 0484 BC000000 		.4byte	.LASF15
 3477 0488 09       		.byte	0x9
 3478 0489 5D       		.byte	0x5d
 3479 048a 91040000 		.4byte	0x491
 3480 048e 3001     		.2byte	0x130
 3481 0490 00       		.byte	0
 3482 0491 07       		.uleb128 0x7
 3483 0492 04       		.byte	0x4
 3484 0493 37030000 		.4byte	0x337
 3485 0497 03       		.uleb128 0x3
 3486 0498 1E050000 		.4byte	.LASF53
 3487 049c 09       		.byte	0x9
 3488 049d 5F       		.byte	0x5f
 3489 049e 37030000 		.4byte	0x337
 3490 04a2 12       		.uleb128 0x12
 3491 04a3 F9010000 		.4byte	.LASF76
 3492 04a7 01       		.byte	0x1
 3493 04a8 D701     		.2byte	0x1d7
 3494 04aa 68000000 		.4byte	0x68
 3495 04ae 00000000 		.4byte	.LFB18
 3496 04b2 44000000 		.4byte	.LFE18-.LFB18
 3497 04b6 01       		.uleb128 0x1
 3498 04b7 9C       		.byte	0x9c
 3499 04b8 E7040000 		.4byte	0x4e7
 3500 04bc 13       		.uleb128 0x13
 3501 04bd 7000     		.ascii	"p\000"
 3502 04bf 01       		.byte	0x1
 3503 04c0 D701     		.2byte	0x1d7
 3504 04c2 E7040000 		.4byte	0x4e7
 3505 04c6 00000000 		.4byte	.LLST0
 3506 04ca 13       		.uleb128 0x13
 3507 04cb 6E00     		.ascii	"n\000"
 3508 04cd 01       		.byte	0x1
 3509 04ce D701     		.2byte	0x1d7
 3510 04d0 76000000 		.4byte	0x76
 3511 04d4 3A000000 		.4byte	.LLST1
 3512 04d8 14       		.uleb128 0x14
 3513 04d9 72657300 		.ascii	"res\000"
 3514 04dd 01       		.byte	0x1
ARM GAS  C:\Users\Phuong\AppData\Local\Temp\cciPItDa.s 			page 85


 3515 04de D701     		.2byte	0x1d7
 3516 04e0 ED040000 		.4byte	0x4ed
 3517 04e4 01       		.uleb128 0x1
 3518 04e5 52       		.byte	0x52
 3519 04e6 00       		.byte	0
 3520 04e7 07       		.uleb128 0x7
 3521 04e8 04       		.byte	0x4
 3522 04e9 C2000000 		.4byte	0xc2
 3523 04ed 07       		.uleb128 0x7
 3524 04ee 04       		.byte	0x4
 3525 04ef 68000000 		.4byte	0x68
 3526 04f3 15       		.uleb128 0x15
 3527 04f4 EB060000 		.4byte	.LASF77
 3528 04f8 01       		.byte	0x1
 3529 04f9 E701     		.2byte	0x1e7
 3530 04fb 68000000 		.4byte	0x68
 3531 04ff 00000000 		.4byte	.LFB19
 3532 0503 94000000 		.4byte	.LFE19-.LFB19
 3533 0507 01       		.uleb128 0x1
 3534 0508 9C       		.byte	0x9c
 3535 0509 3B050000 		.4byte	0x53b
 3536 050d 13       		.uleb128 0x13
 3537 050e 7400     		.ascii	"t\000"
 3538 0510 01       		.byte	0x1
 3539 0511 E701     		.2byte	0x1e7
 3540 0513 3B050000 		.4byte	0x53b
 3541 0517 58000000 		.4byte	.LLST2
 3542 051b 16       		.uleb128 0x16
 3543 051c 72657400 		.ascii	"ret\000"
 3544 0520 01       		.byte	0x1
 3545 0521 E901     		.2byte	0x1e9
 3546 0523 68000000 		.4byte	0x68
 3547 0527 80B87F   		.sleb128 -9216
 3548 052a 17       		.uleb128 0x17
 3549 052b B7040000 		.4byte	.LASF78
 3550 052f 01       		.byte	0x1
 3551 0530 EA01     		.2byte	0x1ea
 3552 0532 68000000 		.4byte	0x68
 3553 0536 08010000 		.4byte	.LLST3
 3554 053a 00       		.byte	0
 3555 053b 07       		.uleb128 0x7
 3556 053c 04       		.byte	0x4
 3557 053d 41050000 		.4byte	0x541
 3558 0541 0C       		.uleb128 0xc
 3559 0542 18030000 		.4byte	0x318
 3560 0546 12       		.uleb128 0x12
 3561 0547 18000000 		.4byte	.LASF79
 3562 054b 01       		.byte	0x1
 3563 054c 0C02     		.2byte	0x20c
 3564 054e 68000000 		.4byte	0x68
 3565 0552 00000000 		.4byte	.LFB20
 3566 0556 D0000000 		.4byte	.LFE20-.LFB20
 3567 055a 01       		.uleb128 0x1
 3568 055b 9C       		.byte	0x9c
 3569 055c 7D060000 		.4byte	0x67d
 3570 0560 13       		.uleb128 0x13
 3571 0561 7000     		.ascii	"p\000"
ARM GAS  C:\Users\Phuong\AppData\Local\Temp\cciPItDa.s 			page 86


 3572 0563 01       		.byte	0x1
 3573 0564 0C02     		.2byte	0x20c
 3574 0566 E7040000 		.4byte	0x4e7
 3575 056a 26010000 		.4byte	.LLST4
 3576 056e 13       		.uleb128 0x13
 3577 056f 6C656E00 		.ascii	"len\000"
 3578 0573 01       		.byte	0x1
 3579 0574 0C02     		.2byte	0x20c
 3580 0576 76000000 		.4byte	0x76
 3581 057a 5C010000 		.4byte	.LLST5
 3582 057e 18       		.uleb128 0x18
 3583 057f 58070000 		.4byte	.LASF80
 3584 0583 01       		.byte	0x1
 3585 0584 0C02     		.2byte	0x20c
 3586 0586 76000000 		.4byte	0x76
 3587 058a BE010000 		.4byte	.LLST6
 3588 058e 13       		.uleb128 0x13
 3589 058f 746D00   		.ascii	"tm\000"
 3590 0592 01       		.byte	0x1
 3591 0593 0D02     		.2byte	0x20d
 3592 0595 7D060000 		.4byte	0x67d
 3593 0599 03020000 		.4byte	.LLST7
 3594 059d 19       		.uleb128 0x19
 3595 059e 72657400 		.ascii	"ret\000"
 3596 05a2 01       		.byte	0x1
 3597 05a3 0F02     		.2byte	0x20f
 3598 05a5 68000000 		.4byte	0x68
 3599 05a9 2F020000 		.4byte	.LLST8
 3600 05ad 1A       		.uleb128 0x1a
 3601 05ae 20000000 		.4byte	.LVL30
 3602 05b2 A2040000 		.4byte	0x4a2
 3603 05b6 CE050000 		.4byte	0x5ce
 3604 05ba 1B       		.uleb128 0x1b
 3605 05bb 01       		.uleb128 0x1
 3606 05bc 50       		.byte	0x50
 3607 05bd 03       		.uleb128 0x3
 3608 05be 91       		.byte	0x91
 3609 05bf 64       		.sleb128 -28
 3610 05c0 06       		.byte	0x6
 3611 05c1 1B       		.uleb128 0x1b
 3612 05c2 01       		.uleb128 0x1
 3613 05c3 51       		.byte	0x51
 3614 05c4 02       		.uleb128 0x2
 3615 05c5 74       		.byte	0x74
 3616 05c6 00       		.sleb128 0
 3617 05c7 1B       		.uleb128 0x1b
 3618 05c8 01       		.uleb128 0x1
 3619 05c9 52       		.byte	0x52
 3620 05ca 02       		.uleb128 0x2
 3621 05cb 76       		.byte	0x76
 3622 05cc 00       		.sleb128 0
 3623 05cd 00       		.byte	0
 3624 05ce 1A       		.uleb128 0x1a
 3625 05cf 46000000 		.4byte	.LVL32
 3626 05d3 A2040000 		.4byte	0x4a2
 3627 05d7 EE050000 		.4byte	0x5ee
 3628 05db 1B       		.uleb128 0x1b
ARM GAS  C:\Users\Phuong\AppData\Local\Temp\cciPItDa.s 			page 87


 3629 05dc 01       		.uleb128 0x1
 3630 05dd 50       		.byte	0x50
 3631 05de 03       		.uleb128 0x3
 3632 05df 91       		.byte	0x91
 3633 05e0 64       		.sleb128 -28
 3634 05e1 06       		.byte	0x6
 3635 05e2 1B       		.uleb128 0x1b
 3636 05e3 01       		.uleb128 0x1
 3637 05e4 51       		.byte	0x51
 3638 05e5 01       		.uleb128 0x1
 3639 05e6 32       		.byte	0x32
 3640 05e7 1B       		.uleb128 0x1b
 3641 05e8 01       		.uleb128 0x1
 3642 05e9 52       		.byte	0x52
 3643 05ea 02       		.uleb128 0x2
 3644 05eb 76       		.byte	0x76
 3645 05ec 04       		.sleb128 4
 3646 05ed 00       		.byte	0
 3647 05ee 1A       		.uleb128 0x1a
 3648 05ef 56000000 		.4byte	.LVL34
 3649 05f3 A2040000 		.4byte	0x4a2
 3650 05f7 0E060000 		.4byte	0x60e
 3651 05fb 1B       		.uleb128 0x1b
 3652 05fc 01       		.uleb128 0x1
 3653 05fd 50       		.byte	0x50
 3654 05fe 03       		.uleb128 0x3
 3655 05ff 91       		.byte	0x91
 3656 0600 64       		.sleb128 -28
 3657 0601 06       		.byte	0x6
 3658 0602 1B       		.uleb128 0x1b
 3659 0603 01       		.uleb128 0x1
 3660 0604 51       		.byte	0x51
 3661 0605 01       		.uleb128 0x1
 3662 0606 32       		.byte	0x32
 3663 0607 1B       		.uleb128 0x1b
 3664 0608 01       		.uleb128 0x1
 3665 0609 52       		.byte	0x52
 3666 060a 02       		.uleb128 0x2
 3667 060b 76       		.byte	0x76
 3668 060c 08       		.sleb128 8
 3669 060d 00       		.byte	0
 3670 060e 1A       		.uleb128 0x1a
 3671 060f 66000000 		.4byte	.LVL36
 3672 0613 A2040000 		.4byte	0x4a2
 3673 0617 2E060000 		.4byte	0x62e
 3674 061b 1B       		.uleb128 0x1b
 3675 061c 01       		.uleb128 0x1
 3676 061d 50       		.byte	0x50
 3677 061e 03       		.uleb128 0x3
 3678 061f 91       		.byte	0x91
 3679 0620 64       		.sleb128 -28
 3680 0621 06       		.byte	0x6
 3681 0622 1B       		.uleb128 0x1b
 3682 0623 01       		.uleb128 0x1
 3683 0624 51       		.byte	0x51
 3684 0625 01       		.uleb128 0x1
 3685 0626 32       		.byte	0x32
ARM GAS  C:\Users\Phuong\AppData\Local\Temp\cciPItDa.s 			page 88


 3686 0627 1B       		.uleb128 0x1b
 3687 0628 01       		.uleb128 0x1
 3688 0629 52       		.byte	0x52
 3689 062a 02       		.uleb128 0x2
 3690 062b 76       		.byte	0x76
 3691 062c 0C       		.sleb128 12
 3692 062d 00       		.byte	0
 3693 062e 1A       		.uleb128 0x1a
 3694 062f 78000000 		.4byte	.LVL39
 3695 0633 A2040000 		.4byte	0x4a2
 3696 0637 4D060000 		.4byte	0x64d
 3697 063b 1B       		.uleb128 0x1b
 3698 063c 01       		.uleb128 0x1
 3699 063d 50       		.byte	0x50
 3700 063e 02       		.uleb128 0x2
 3701 063f 74       		.byte	0x74
 3702 0640 00       		.sleb128 0
 3703 0641 1B       		.uleb128 0x1b
 3704 0642 01       		.uleb128 0x1
 3705 0643 51       		.byte	0x51
 3706 0644 01       		.uleb128 0x1
 3707 0645 32       		.byte	0x32
 3708 0646 1B       		.uleb128 0x1b
 3709 0647 01       		.uleb128 0x1
 3710 0648 52       		.byte	0x52
 3711 0649 02       		.uleb128 0x2
 3712 064a 76       		.byte	0x76
 3713 064b 10       		.sleb128 16
 3714 064c 00       		.byte	0
 3715 064d 1A       		.uleb128 0x1a
 3716 064e 8C000000 		.4byte	.LVL41
 3717 0652 A2040000 		.4byte	0x4a2
 3718 0656 6C060000 		.4byte	0x66c
 3719 065a 1B       		.uleb128 0x1b
 3720 065b 01       		.uleb128 0x1
 3721 065c 50       		.byte	0x50
 3722 065d 02       		.uleb128 0x2
 3723 065e 74       		.byte	0x74
 3724 065f 00       		.sleb128 0
 3725 0660 1B       		.uleb128 0x1b
 3726 0661 01       		.uleb128 0x1
 3727 0662 51       		.byte	0x51
 3728 0663 01       		.uleb128 0x1
 3729 0664 32       		.byte	0x32
 3730 0665 1B       		.uleb128 0x1b
 3731 0666 01       		.uleb128 0x1
 3732 0667 52       		.byte	0x52
 3733 0668 02       		.uleb128 0x2
 3734 0669 76       		.byte	0x76
 3735 066a 14       		.sleb128 20
 3736 066b 00       		.byte	0
 3737 066c 1C       		.uleb128 0x1c
 3738 066d B6000000 		.4byte	.LVL46
 3739 0671 F3040000 		.4byte	0x4f3
 3740 0675 1B       		.uleb128 0x1b
 3741 0676 01       		.uleb128 0x1
 3742 0677 50       		.byte	0x50
ARM GAS  C:\Users\Phuong\AppData\Local\Temp\cciPItDa.s 			page 89


 3743 0678 02       		.uleb128 0x2
 3744 0679 76       		.byte	0x76
 3745 067a 00       		.sleb128 0
 3746 067b 00       		.byte	0
 3747 067c 00       		.byte	0
 3748 067d 07       		.uleb128 0x7
 3749 067e 04       		.byte	0x4
 3750 067f 18030000 		.4byte	0x318
 3751 0683 12       		.uleb128 0x12
 3752 0684 0E080000 		.4byte	.LASF81
 3753 0688 01       		.byte	0x1
 3754 0689 5801     		.2byte	0x158
 3755 068b 68000000 		.4byte	0x68
 3756 068f 00000000 		.4byte	.LFB16
 3757 0693 C4000000 		.4byte	.LFE16-.LFB16
 3758 0697 01       		.uleb128 0x1
 3759 0698 9C       		.byte	0x9c
 3760 0699 72070000 		.4byte	0x772
 3761 069d 13       		.uleb128 0x13
 3762 069e 7000     		.ascii	"p\000"
 3763 06a0 01       		.byte	0x1
 3764 06a1 5801     		.2byte	0x158
 3765 06a3 E7040000 		.4byte	0x4e7
 3766 06a7 9A020000 		.4byte	.LLST9
 3767 06ab 13       		.uleb128 0x13
 3768 06ac 656E6400 		.ascii	"end\000"
 3769 06b0 01       		.byte	0x1
 3770 06b1 5901     		.2byte	0x159
 3771 06b3 97020000 		.4byte	0x297
 3772 06b7 C6020000 		.4byte	.LLST10
 3773 06bb 13       		.uleb128 0x13
 3774 06bc 63757200 		.ascii	"cur\000"
 3775 06c0 01       		.byte	0x1
 3776 06c1 5A01     		.2byte	0x15a
 3777 06c3 72070000 		.4byte	0x772
 3778 06c7 F2020000 		.4byte	.LLST11
 3779 06cb 19       		.uleb128 0x19
 3780 06cc 72657400 		.ascii	"ret\000"
 3781 06d0 01       		.byte	0x1
 3782 06d1 5C01     		.2byte	0x15c
 3783 06d3 68000000 		.4byte	0x68
 3784 06d7 1E030000 		.4byte	.LLST12
 3785 06db 1D       		.uleb128 0x1d
 3786 06dc 6C656E00 		.ascii	"len\000"
 3787 06e0 01       		.byte	0x1
 3788 06e1 5D01     		.2byte	0x15d
 3789 06e3 76000000 		.4byte	0x76
 3790 06e7 02       		.uleb128 0x2
 3791 06e8 91       		.byte	0x91
 3792 06e9 6C       		.sleb128 -20
 3793 06ea 19       		.uleb128 0x19
 3794 06eb 6F696400 		.ascii	"oid\000"
 3795 06ef 01       		.byte	0x1
 3796 06f0 5E01     		.2byte	0x15e
 3797 06f2 78070000 		.4byte	0x778
 3798 06f6 B6030000 		.4byte	.LLST13
 3799 06fa 19       		.uleb128 0x19
ARM GAS  C:\Users\Phuong\AppData\Local\Temp\cciPItDa.s 			page 90


 3800 06fb 76616C00 		.ascii	"val\000"
 3801 06ff 01       		.byte	0x1
 3802 0700 5F01     		.2byte	0x15f
 3803 0702 78070000 		.4byte	0x778
 3804 0706 D4030000 		.4byte	.LLST14
 3805 070a 1A       		.uleb128 0x1a
 3806 070b 12000000 		.4byte	.LVL56
 3807 070f 27170000 		.4byte	0x1727
 3808 0713 30070000 		.4byte	0x730
 3809 0717 1B       		.uleb128 0x1b
 3810 0718 01       		.uleb128 0x1
 3811 0719 50       		.byte	0x50
 3812 071a 02       		.uleb128 0x2
 3813 071b 74       		.byte	0x74
 3814 071c 00       		.sleb128 0
 3815 071d 1B       		.uleb128 0x1b
 3816 071e 01       		.uleb128 0x1
 3817 071f 51       		.byte	0x51
 3818 0720 02       		.uleb128 0x2
 3819 0721 75       		.byte	0x75
 3820 0722 00       		.sleb128 0
 3821 0723 1B       		.uleb128 0x1b
 3822 0724 01       		.uleb128 0x1
 3823 0725 52       		.byte	0x52
 3824 0726 02       		.uleb128 0x2
 3825 0727 91       		.byte	0x91
 3826 0728 6C       		.sleb128 -20
 3827 0729 1B       		.uleb128 0x1b
 3828 072a 01       		.uleb128 0x1
 3829 072b 53       		.byte	0x53
 3830 072c 02       		.uleb128 0x2
 3831 072d 08       		.byte	0x8
 3832 072e 30       		.byte	0x30
 3833 072f 00       		.byte	0
 3834 0730 1A       		.uleb128 0x1a
 3835 0731 36000000 		.4byte	.LVL61
 3836 0735 27170000 		.4byte	0x1727
 3837 0739 55070000 		.4byte	0x755
 3838 073d 1B       		.uleb128 0x1b
 3839 073e 01       		.uleb128 0x1
 3840 073f 50       		.byte	0x50
 3841 0740 02       		.uleb128 0x2
 3842 0741 74       		.byte	0x74
 3843 0742 00       		.sleb128 0
 3844 0743 1B       		.uleb128 0x1b
 3845 0744 01       		.uleb128 0x1
 3846 0745 51       		.byte	0x51
 3847 0746 02       		.uleb128 0x2
 3848 0747 75       		.byte	0x75
 3849 0748 00       		.sleb128 0
 3850 0749 1B       		.uleb128 0x1b
 3851 074a 01       		.uleb128 0x1
 3852 074b 52       		.byte	0x52
 3853 074c 02       		.uleb128 0x2
 3854 074d 76       		.byte	0x76
 3855 074e 04       		.sleb128 4
 3856 074f 1B       		.uleb128 0x1b
ARM GAS  C:\Users\Phuong\AppData\Local\Temp\cciPItDa.s 			page 91


 3857 0750 01       		.uleb128 0x1
 3858 0751 53       		.byte	0x53
 3859 0752 01       		.uleb128 0x1
 3860 0753 36       		.byte	0x36
 3861 0754 00       		.byte	0
 3862 0755 1C       		.uleb128 0x1c
 3863 0756 88000000 		.4byte	.LVL66
 3864 075a 32170000 		.4byte	0x1732
 3865 075e 1B       		.uleb128 0x1b
 3866 075f 01       		.uleb128 0x1
 3867 0760 50       		.byte	0x50
 3868 0761 02       		.uleb128 0x2
 3869 0762 74       		.byte	0x74
 3870 0763 00       		.sleb128 0
 3871 0764 1B       		.uleb128 0x1b
 3872 0765 01       		.uleb128 0x1
 3873 0766 51       		.byte	0x51
 3874 0767 02       		.uleb128 0x2
 3875 0768 75       		.byte	0x75
 3876 0769 00       		.sleb128 0
 3877 076a 1B       		.uleb128 0x1b
 3878 076b 01       		.uleb128 0x1
 3879 076c 52       		.byte	0x52
 3880 076d 02       		.uleb128 0x2
 3881 076e 76       		.byte	0x76
 3882 076f 10       		.sleb128 16
 3883 0770 00       		.byte	0
 3884 0771 00       		.byte	0
 3885 0772 07       		.uleb128 0x7
 3886 0773 04       		.byte	0x4
 3887 0774 AD020000 		.4byte	0x2ad
 3888 0778 07       		.uleb128 0x7
 3889 0779 04       		.byte	0x4
 3890 077a A2020000 		.4byte	0x2a2
 3891 077e 1E       		.uleb128 0x1e
 3892 077f 98010000 		.4byte	.LASF82
 3893 0783 01       		.byte	0x1
 3894 0784 8E       		.byte	0x8e
 3895 0785 68000000 		.4byte	0x68
 3896 0789 00000000 		.4byte	.LFB14
 3897 078d A8000000 		.4byte	.LFE14-.LFB14
 3898 0791 01       		.uleb128 0x1
 3899 0792 9C       		.byte	0x9c
 3900 0793 5C080000 		.4byte	0x85c
 3901 0797 1F       		.uleb128 0x1f
 3902 0798 616C6700 		.ascii	"alg\000"
 3903 079c 01       		.byte	0x1
 3904 079d 8E       		.byte	0x8e
 3905 079e 5C080000 		.4byte	0x85c
 3906 07a2 E9030000 		.4byte	.LLST15
 3907 07a6 20       		.uleb128 0x20
 3908 07a7 4C010000 		.4byte	.LASF83
 3909 07ab 01       		.byte	0x1
 3910 07ac 8E       		.byte	0x8e
 3911 07ad 67080000 		.4byte	0x867
 3912 07b1 3C040000 		.4byte	.LLST16
 3913 07b5 21       		.uleb128 0x21
ARM GAS  C:\Users\Phuong\AppData\Local\Temp\cciPItDa.s 			page 92


 3914 07b6 72657400 		.ascii	"ret\000"
 3915 07ba 01       		.byte	0x1
 3916 07bb 90       		.byte	0x90
 3917 07bc 68000000 		.4byte	0x68
 3918 07c0 7E040000 		.4byte	.LLST17
 3919 07c4 22       		.uleb128 0x22
 3920 07c5 7000     		.ascii	"p\000"
 3921 07c7 01       		.byte	0x1
 3922 07c8 91       		.byte	0x91
 3923 07c9 C2000000 		.4byte	0xc2
 3924 07cd 02       		.uleb128 0x2
 3925 07ce 91       		.byte	0x91
 3926 07cf 6C       		.sleb128 -20
 3927 07d0 21       		.uleb128 0x21
 3928 07d1 656E6400 		.ascii	"end\000"
 3929 07d5 01       		.byte	0x1
 3930 07d6 92       		.byte	0x92
 3931 07d7 97020000 		.4byte	0x297
 3932 07db 0B050000 		.4byte	.LLST18
 3933 07df 23       		.uleb128 0x23
 3934 07e0 EA050000 		.4byte	.LASF84
 3935 07e4 01       		.byte	0x1
 3936 07e5 93       		.byte	0x93
 3937 07e6 A2020000 		.4byte	0x2a2
 3938 07ea 02       		.uleb128 0x2
 3939 07eb 91       		.byte	0x91
 3940 07ec 60       		.sleb128 -32
 3941 07ed 22       		.uleb128 0x22
 3942 07ee 6C656E00 		.ascii	"len\000"
 3943 07f2 01       		.byte	0x1
 3944 07f3 94       		.byte	0x94
 3945 07f4 76000000 		.4byte	0x76
 3946 07f8 02       		.uleb128 0x2
 3947 07f9 91       		.byte	0x91
 3948 07fa 5C       		.sleb128 -36
 3949 07fb 1A       		.uleb128 0x1a
 3950 07fc 28000000 		.4byte	.LVL83
 3951 0800 27170000 		.4byte	0x1727
 3952 0804 20080000 		.4byte	0x820
 3953 0808 1B       		.uleb128 0x1b
 3954 0809 01       		.uleb128 0x1
 3955 080a 50       		.byte	0x50
 3956 080b 02       		.uleb128 0x2
 3957 080c 91       		.byte	0x91
 3958 080d 6C       		.sleb128 -20
 3959 080e 1B       		.uleb128 0x1b
 3960 080f 01       		.uleb128 0x1
 3961 0810 51       		.byte	0x51
 3962 0811 02       		.uleb128 0x2
 3963 0812 74       		.byte	0x74
 3964 0813 00       		.sleb128 0
 3965 0814 1B       		.uleb128 0x1b
 3966 0815 01       		.uleb128 0x1
 3967 0816 52       		.byte	0x52
 3968 0817 02       		.uleb128 0x2
 3969 0818 91       		.byte	0x91
 3970 0819 64       		.sleb128 -28
ARM GAS  C:\Users\Phuong\AppData\Local\Temp\cciPItDa.s 			page 93


 3971 081a 1B       		.uleb128 0x1b
 3972 081b 01       		.uleb128 0x1
 3973 081c 53       		.byte	0x53
 3974 081d 01       		.uleb128 0x1
 3975 081e 36       		.byte	0x36
 3976 081f 00       		.byte	0
 3977 0820 1A       		.uleb128 0x1a
 3978 0821 4A000000 		.4byte	.LVL87
 3979 0825 3D170000 		.4byte	0x173d
 3980 0829 3A080000 		.4byte	0x83a
 3981 082d 1B       		.uleb128 0x1b
 3982 082e 01       		.uleb128 0x1
 3983 082f 50       		.byte	0x50
 3984 0830 02       		.uleb128 0x2
 3985 0831 91       		.byte	0x91
 3986 0832 60       		.sleb128 -32
 3987 0833 1B       		.uleb128 0x1b
 3988 0834 01       		.uleb128 0x1
 3989 0835 51       		.byte	0x51
 3990 0836 02       		.uleb128 0x2
 3991 0837 75       		.byte	0x75
 3992 0838 00       		.sleb128 0
 3993 0839 00       		.byte	0
 3994 083a 1C       		.uleb128 0x1c
 3995 083b 68000000 		.4byte	.LVL91
 3996 083f 27170000 		.4byte	0x1727
 3997 0843 1B       		.uleb128 0x1b
 3998 0844 01       		.uleb128 0x1
 3999 0845 50       		.byte	0x50
 4000 0846 02       		.uleb128 0x2
 4001 0847 91       		.byte	0x91
 4002 0848 6C       		.sleb128 -20
 4003 0849 1B       		.uleb128 0x1b
 4004 084a 01       		.uleb128 0x1
 4005 084b 51       		.byte	0x51
 4006 084c 02       		.uleb128 0x2
 4007 084d 74       		.byte	0x74
 4008 084e 00       		.sleb128 0
 4009 084f 1B       		.uleb128 0x1b
 4010 0850 01       		.uleb128 0x1
 4011 0851 52       		.byte	0x52
 4012 0852 02       		.uleb128 0x2
 4013 0853 91       		.byte	0x91
 4014 0854 5C       		.sleb128 -36
 4015 0855 1B       		.uleb128 0x1b
 4016 0856 01       		.uleb128 0x1
 4017 0857 53       		.byte	0x53
 4018 0858 01       		.uleb128 0x1
 4019 0859 35       		.byte	0x35
 4020 085a 00       		.byte	0
 4021 085b 00       		.byte	0
 4022 085c 07       		.uleb128 0x7
 4023 085d 04       		.byte	0x4
 4024 085e 62080000 		.4byte	0x862
 4025 0862 0C       		.uleb128 0xc
 4026 0863 A2020000 		.4byte	0x2a2
 4027 0867 07       		.uleb128 0x7
ARM GAS  C:\Users\Phuong\AppData\Local\Temp\cciPItDa.s 			page 94


 4028 0868 04       		.byte	0x4
 4029 0869 A0010000 		.4byte	0x1a0
 4030 086d 24       		.uleb128 0x24
 4031 086e 8A050000 		.4byte	.LASF85
 4032 0872 01       		.byte	0x1
 4033 0873 4C       		.byte	0x4c
 4034 0874 68000000 		.4byte	0x68
 4035 0878 00000000 		.4byte	.LFB11
 4036 087c 5C000000 		.4byte	.LFE11-.LFB11
 4037 0880 01       		.uleb128 0x1
 4038 0881 9C       		.byte	0x9c
 4039 0882 D7080000 		.4byte	0x8d7
 4040 0886 1F       		.uleb128 0x1f
 4041 0887 7000     		.ascii	"p\000"
 4042 0889 01       		.byte	0x1
 4043 088a 4C       		.byte	0x4c
 4044 088b E7040000 		.4byte	0x4e7
 4045 088f 29050000 		.4byte	.LLST19
 4046 0893 1F       		.uleb128 0x1f
 4047 0894 656E6400 		.ascii	"end\000"
 4048 0898 01       		.byte	0x1
 4049 0899 4C       		.byte	0x4c
 4050 089a 97020000 		.4byte	0x297
 4051 089e 81050000 		.4byte	.LLST20
 4052 08a2 20       		.uleb128 0x20
 4053 08a3 BE080000 		.4byte	.LASF55
 4054 08a7 01       		.byte	0x1
 4055 08a8 4D       		.byte	0x4d
 4056 08a9 78070000 		.4byte	0x778
 4057 08ad BB050000 		.4byte	.LLST21
 4058 08b1 21       		.uleb128 0x21
 4059 08b2 72657400 		.ascii	"ret\000"
 4060 08b6 01       		.byte	0x1
 4061 08b7 4F       		.byte	0x4f
 4062 08b8 68000000 		.4byte	0x68
 4063 08bc E7050000 		.4byte	.LLST22
 4064 08c0 1C       		.uleb128 0x1c
 4065 08c1 28000000 		.4byte	.LVL107
 4066 08c5 32170000 		.4byte	0x1732
 4067 08c9 1B       		.uleb128 0x1b
 4068 08ca 01       		.uleb128 0x1
 4069 08cb 50       		.byte	0x50
 4070 08cc 02       		.uleb128 0x2
 4071 08cd 74       		.byte	0x74
 4072 08ce 00       		.sleb128 0
 4073 08cf 1B       		.uleb128 0x1b
 4074 08d0 01       		.uleb128 0x1
 4075 08d1 52       		.byte	0x52
 4076 08d2 02       		.uleb128 0x2
 4077 08d3 75       		.byte	0x75
 4078 08d4 04       		.sleb128 4
 4079 08d5 00       		.byte	0
 4080 08d6 00       		.byte	0
 4081 08d7 24       		.uleb128 0x24
 4082 08d8 19030000 		.4byte	.LASF86
 4083 08dc 01       		.byte	0x1
 4084 08dd 6B       		.byte	0x6b
ARM GAS  C:\Users\Phuong\AppData\Local\Temp\cciPItDa.s 			page 95


 4085 08de 68000000 		.4byte	0x68
 4086 08e2 00000000 		.4byte	.LFB12
 4087 08e6 1C000000 		.4byte	.LFE12-.LFB12
 4088 08ea 01       		.uleb128 0x1
 4089 08eb 9C       		.byte	0x9c
 4090 08ec 4A090000 		.4byte	0x94a
 4091 08f0 1F       		.uleb128 0x1f
 4092 08f1 7000     		.ascii	"p\000"
 4093 08f3 01       		.byte	0x1
 4094 08f4 6B       		.byte	0x6b
 4095 08f5 E7040000 		.4byte	0x4e7
 4096 08f9 14060000 		.4byte	.LLST23
 4097 08fd 1F       		.uleb128 0x1f
 4098 08fe 656E6400 		.ascii	"end\000"
 4099 0902 01       		.byte	0x1
 4100 0903 6B       		.byte	0x6b
 4101 0904 97020000 		.4byte	0x297
 4102 0908 35060000 		.4byte	.LLST24
 4103 090c 1F       		.uleb128 0x1f
 4104 090d 616C6700 		.ascii	"alg\000"
 4105 0911 01       		.byte	0x1
 4106 0912 6C       		.byte	0x6c
 4107 0913 78070000 		.4byte	0x778
 4108 0917 56060000 		.4byte	.LLST25
 4109 091b 21       		.uleb128 0x21
 4110 091c 72657400 		.ascii	"ret\000"
 4111 0920 01       		.byte	0x1
 4112 0921 6E       		.byte	0x6e
 4113 0922 68000000 		.4byte	0x68
 4114 0926 77060000 		.4byte	.LLST26
 4115 092a 1C       		.uleb128 0x1c
 4116 092b 06000000 		.4byte	.LVL118
 4117 092f 49170000 		.4byte	0x1749
 4118 0933 1B       		.uleb128 0x1b
 4119 0934 01       		.uleb128 0x1
 4120 0935 50       		.byte	0x50
 4121 0936 03       		.uleb128 0x3
 4122 0937 F3       		.byte	0xf3
 4123 0938 01       		.uleb128 0x1
 4124 0939 50       		.byte	0x50
 4125 093a 1B       		.uleb128 0x1b
 4126 093b 01       		.uleb128 0x1
 4127 093c 51       		.byte	0x51
 4128 093d 03       		.uleb128 0x3
 4129 093e F3       		.byte	0xf3
 4130 093f 01       		.uleb128 0x1
 4131 0940 51       		.byte	0x51
 4132 0941 1B       		.uleb128 0x1b
 4133 0942 01       		.uleb128 0x1
 4134 0943 52       		.byte	0x52
 4135 0944 03       		.uleb128 0x3
 4136 0945 F3       		.byte	0xf3
 4137 0946 01       		.uleb128 0x1
 4138 0947 52       		.byte	0x52
 4139 0948 00       		.byte	0
 4140 0949 00       		.byte	0
 4141 094a 24       		.uleb128 0x24
ARM GAS  C:\Users\Phuong\AppData\Local\Temp\cciPItDa.s 			page 96


 4142 094b 1E0A0000 		.4byte	.LASF87
 4143 094f 01       		.byte	0x1
 4144 0950 79       		.byte	0x79
 4145 0951 68000000 		.4byte	0x68
 4146 0955 00000000 		.4byte	.LFB13
 4147 0959 1C000000 		.4byte	.LFE13-.LFB13
 4148 095d 01       		.uleb128 0x1
 4149 095e 9C       		.byte	0x9c
 4150 095f D3090000 		.4byte	0x9d3
 4151 0963 1F       		.uleb128 0x1f
 4152 0964 7000     		.ascii	"p\000"
 4153 0966 01       		.byte	0x1
 4154 0967 79       		.byte	0x79
 4155 0968 E7040000 		.4byte	0x4e7
 4156 096c A4060000 		.4byte	.LLST27
 4157 0970 1F       		.uleb128 0x1f
 4158 0971 656E6400 		.ascii	"end\000"
 4159 0975 01       		.byte	0x1
 4160 0976 79       		.byte	0x79
 4161 0977 97020000 		.4byte	0x297
 4162 097b C5060000 		.4byte	.LLST28
 4163 097f 1F       		.uleb128 0x1f
 4164 0980 616C6700 		.ascii	"alg\000"
 4165 0984 01       		.byte	0x1
 4166 0985 7A       		.byte	0x7a
 4167 0986 78070000 		.4byte	0x778
 4168 098a E6060000 		.4byte	.LLST29
 4169 098e 20       		.uleb128 0x20
 4170 098f 00000000 		.4byte	.LASF88
 4171 0993 01       		.byte	0x1
 4172 0994 7A       		.byte	0x7a
 4173 0995 78070000 		.4byte	0x778
 4174 0999 07070000 		.4byte	.LLST30
 4175 099d 21       		.uleb128 0x21
 4176 099e 72657400 		.ascii	"ret\000"
 4177 09a2 01       		.byte	0x1
 4178 09a3 7C       		.byte	0x7c
 4179 09a4 68000000 		.4byte	0x68
 4180 09a8 28070000 		.4byte	.LLST31
 4181 09ac 1C       		.uleb128 0x1c
 4182 09ad 06000000 		.4byte	.LVL123
 4183 09b1 55170000 		.4byte	0x1755
 4184 09b5 1B       		.uleb128 0x1b
 4185 09b6 01       		.uleb128 0x1
 4186 09b7 50       		.byte	0x50
 4187 09b8 03       		.uleb128 0x3
 4188 09b9 F3       		.byte	0xf3
 4189 09ba 01       		.uleb128 0x1
 4190 09bb 50       		.byte	0x50
 4191 09bc 1B       		.uleb128 0x1b
 4192 09bd 01       		.uleb128 0x1
 4193 09be 51       		.byte	0x51
 4194 09bf 03       		.uleb128 0x3
 4195 09c0 F3       		.byte	0xf3
 4196 09c1 01       		.uleb128 0x1
 4197 09c2 51       		.byte	0x51
 4198 09c3 1B       		.uleb128 0x1b
ARM GAS  C:\Users\Phuong\AppData\Local\Temp\cciPItDa.s 			page 97


 4199 09c4 01       		.uleb128 0x1
 4200 09c5 52       		.byte	0x52
 4201 09c6 03       		.uleb128 0x3
 4202 09c7 F3       		.byte	0xf3
 4203 09c8 01       		.uleb128 0x1
 4204 09c9 52       		.byte	0x52
 4205 09ca 1B       		.uleb128 0x1b
 4206 09cb 01       		.uleb128 0x1
 4207 09cc 53       		.byte	0x53
 4208 09cd 03       		.uleb128 0x3
 4209 09ce F3       		.byte	0xf3
 4210 09cf 01       		.uleb128 0x1
 4211 09d0 53       		.byte	0x53
 4212 09d1 00       		.byte	0
 4213 09d2 00       		.byte	0
 4214 09d3 24       		.uleb128 0x24
 4215 09d4 7F040000 		.4byte	.LASF89
 4216 09d8 01       		.byte	0x1
 4217 09d9 C9       		.byte	0xc9
 4218 09da 68000000 		.4byte	0x68
 4219 09de 00000000 		.4byte	.LFB15
 4220 09e2 E8010000 		.4byte	.LFE15-.LFB15
 4221 09e6 01       		.uleb128 0x1
 4222 09e7 9C       		.byte	0x9c
 4223 09e8 0A0C0000 		.4byte	0xc0a
 4224 09ec 20       		.uleb128 0x20
 4225 09ed 00000000 		.4byte	.LASF88
 4226 09f1 01       		.byte	0x1
 4227 09f2 C9       		.byte	0xc9
 4228 09f3 5C080000 		.4byte	0x85c
 4229 09f7 55070000 		.4byte	.LLST32
 4230 09fb 20       		.uleb128 0x20
 4231 09fc 4C010000 		.4byte	.LASF83
 4232 0a00 01       		.byte	0x1
 4233 0a01 CA       		.byte	0xca
 4234 0a02 67080000 		.4byte	0x867
 4235 0a06 A8070000 		.4byte	.LLST33
 4236 0a0a 20       		.uleb128 0x20
 4237 0a0b E7040000 		.4byte	.LASF90
 4238 0a0f 01       		.byte	0x1
 4239 0a10 CA       		.byte	0xca
 4240 0a11 67080000 		.4byte	0x867
 4241 0a15 11080000 		.4byte	.LLST34
 4242 0a19 20       		.uleb128 0x20
 4243 0a1a 4F070000 		.4byte	.LASF91
 4244 0a1e 01       		.byte	0x1
 4245 0a1f CB       		.byte	0xcb
 4246 0a20 ED040000 		.4byte	0x4ed
 4247 0a24 7A080000 		.4byte	.LLST35
 4248 0a28 21       		.uleb128 0x21
 4249 0a29 72657400 		.ascii	"ret\000"
 4250 0a2d 01       		.byte	0x1
 4251 0a2e CD       		.byte	0xcd
 4252 0a2f 68000000 		.4byte	0x68
 4253 0a33 D8080000 		.4byte	.LLST36
 4254 0a37 22       		.uleb128 0x22
 4255 0a38 7000     		.ascii	"p\000"
ARM GAS  C:\Users\Phuong\AppData\Local\Temp\cciPItDa.s 			page 98


 4256 0a3a 01       		.byte	0x1
 4257 0a3b CE       		.byte	0xce
 4258 0a3c C2000000 		.4byte	0xc2
 4259 0a40 02       		.uleb128 0x2
 4260 0a41 91       		.byte	0x91
 4261 0a42 64       		.sleb128 -28
 4262 0a43 21       		.uleb128 0x21
 4263 0a44 656E6400 		.ascii	"end\000"
 4264 0a48 01       		.byte	0x1
 4265 0a49 CF       		.byte	0xcf
 4266 0a4a 97020000 		.4byte	0x297
 4267 0a4e 720A0000 		.4byte	.LLST37
 4268 0a52 25       		.uleb128 0x25
 4269 0a53 D4060000 		.4byte	.LASF92
 4270 0a57 01       		.byte	0x1
 4271 0a58 CF       		.byte	0xcf
 4272 0a59 97020000 		.4byte	0x297
 4273 0a5d 900A0000 		.4byte	.LLST38
 4274 0a61 22       		.uleb128 0x22
 4275 0a62 6C656E00 		.ascii	"len\000"
 4276 0a66 01       		.byte	0x1
 4277 0a67 D0       		.byte	0xd0
 4278 0a68 76000000 		.4byte	0x76
 4279 0a6c 02       		.uleb128 0x2
 4280 0a6d 91       		.byte	0x91
 4281 0a6e 60       		.sleb128 -32
 4282 0a6f 23       		.uleb128 0x23
 4283 0a70 DB070000 		.4byte	.LASF93
 4284 0a74 01       		.byte	0x1
 4285 0a75 D1       		.byte	0xd1
 4286 0a76 A2020000 		.4byte	0x2a2
 4287 0a7a 02       		.uleb128 0x2
 4288 0a7b 91       		.byte	0x91
 4289 0a7c 54       		.sleb128 -44
 4290 0a7d 23       		.uleb128 0x23
 4291 0a7e 86010000 		.4byte	.LASF94
 4292 0a82 01       		.byte	0x1
 4293 0a83 D1       		.byte	0xd1
 4294 0a84 A2020000 		.4byte	0x2a2
 4295 0a88 02       		.uleb128 0x2
 4296 0a89 91       		.byte	0x91
 4297 0a8a 48       		.sleb128 -56
 4298 0a8b 26       		.uleb128 0x26
 4299 0a8c 56010000 		.4byte	.LBB2
 4300 0a90 36000000 		.4byte	.LBE2-.LBB2
 4301 0a94 C40A0000 		.4byte	0xac4
 4302 0a98 27       		.uleb128 0x27
 4303 0a99 63080000 		.4byte	.LASF95
 4304 0a9d 01       		.byte	0x1
 4305 0a9e 3601     		.2byte	0x136
 4306 0aa0 68000000 		.4byte	0x68
 4307 0aa4 02       		.uleb128 0x2
 4308 0aa5 91       		.byte	0x91
 4309 0aa6 44       		.sleb128 -60
 4310 0aa7 1C       		.uleb128 0x1c
 4311 0aa8 6A010000 		.4byte	.LVL172
 4312 0aac 61170000 		.4byte	0x1761
ARM GAS  C:\Users\Phuong\AppData\Local\Temp\cciPItDa.s 			page 99


 4313 0ab0 1B       		.uleb128 0x1b
 4314 0ab1 01       		.uleb128 0x1
 4315 0ab2 50       		.byte	0x50
 4316 0ab3 02       		.uleb128 0x2
 4317 0ab4 91       		.byte	0x91
 4318 0ab5 64       		.sleb128 -28
 4319 0ab6 1B       		.uleb128 0x1b
 4320 0ab7 01       		.uleb128 0x1
 4321 0ab8 51       		.byte	0x51
 4322 0ab9 02       		.uleb128 0x2
 4323 0aba 75       		.byte	0x75
 4324 0abb 00       		.sleb128 0
 4325 0abc 1B       		.uleb128 0x1b
 4326 0abd 01       		.uleb128 0x1
 4327 0abe 52       		.byte	0x52
 4328 0abf 02       		.uleb128 0x2
 4329 0ac0 91       		.byte	0x91
 4330 0ac1 44       		.sleb128 -60
 4331 0ac2 00       		.byte	0
 4332 0ac3 00       		.byte	0
 4333 0ac4 1A       		.uleb128 0x1a
 4334 0ac5 3A000000 		.4byte	.LVL133
 4335 0ac9 27170000 		.4byte	0x1727
 4336 0acd EA0A0000 		.4byte	0xaea
 4337 0ad1 1B       		.uleb128 0x1b
 4338 0ad2 01       		.uleb128 0x1
 4339 0ad3 50       		.byte	0x50
 4340 0ad4 02       		.uleb128 0x2
 4341 0ad5 91       		.byte	0x91
 4342 0ad6 64       		.sleb128 -28
 4343 0ad7 1B       		.uleb128 0x1b
 4344 0ad8 01       		.uleb128 0x1
 4345 0ad9 51       		.byte	0x51
 4346 0ada 02       		.uleb128 0x2
 4347 0adb 74       		.byte	0x74
 4348 0adc 00       		.sleb128 0
 4349 0add 1B       		.uleb128 0x1b
 4350 0ade 01       		.uleb128 0x1
 4351 0adf 52       		.byte	0x52
 4352 0ae0 02       		.uleb128 0x2
 4353 0ae1 91       		.byte	0x91
 4354 0ae2 60       		.sleb128 -32
 4355 0ae3 1B       		.uleb128 0x1b
 4356 0ae4 01       		.uleb128 0x1
 4357 0ae5 53       		.byte	0x53
 4358 0ae6 02       		.uleb128 0x2
 4359 0ae7 08       		.byte	0x8
 4360 0ae8 A0       		.byte	0xa0
 4361 0ae9 00       		.byte	0
 4362 0aea 1A       		.uleb128 0x1a
 4363 0aeb 52000000 		.4byte	.LVL136
 4364 0aef D7080000 		.4byte	0x8d7
 4365 0af3 0A0B0000 		.4byte	0xb0a
 4366 0af7 1B       		.uleb128 0x1b
 4367 0af8 01       		.uleb128 0x1
 4368 0af9 50       		.byte	0x50
 4369 0afa 02       		.uleb128 0x2
ARM GAS  C:\Users\Phuong\AppData\Local\Temp\cciPItDa.s 			page 100


 4370 0afb 91       		.byte	0x91
 4371 0afc 64       		.sleb128 -28
 4372 0afd 1B       		.uleb128 0x1b
 4373 0afe 01       		.uleb128 0x1
 4374 0aff 51       		.byte	0x51
 4375 0b00 02       		.uleb128 0x2
 4376 0b01 78       		.byte	0x78
 4377 0b02 00       		.sleb128 0
 4378 0b03 1B       		.uleb128 0x1b
 4379 0b04 01       		.uleb128 0x1
 4380 0b05 52       		.byte	0x52
 4381 0b06 02       		.uleb128 0x2
 4382 0b07 91       		.byte	0x91
 4383 0b08 54       		.sleb128 -44
 4384 0b09 00       		.byte	0
 4385 0b0a 1A       		.uleb128 0x1a
 4386 0b0b 60000000 		.4byte	.LVL138
 4387 0b0f 3D170000 		.4byte	0x173d
 4388 0b13 240B0000 		.4byte	0xb24
 4389 0b17 1B       		.uleb128 0x1b
 4390 0b18 01       		.uleb128 0x1
 4391 0b19 50       		.byte	0x50
 4392 0b1a 02       		.uleb128 0x2
 4393 0b1b 91       		.byte	0x91
 4394 0b1c 54       		.sleb128 -44
 4395 0b1d 1B       		.uleb128 0x1b
 4396 0b1e 01       		.uleb128 0x1
 4397 0b1f 51       		.byte	0x51
 4398 0b20 02       		.uleb128 0x2
 4399 0b21 77       		.byte	0x77
 4400 0b22 00       		.sleb128 0
 4401 0b23 00       		.byte	0
 4402 0b24 1A       		.uleb128 0x1a
 4403 0b25 96000000 		.4byte	.LVL145
 4404 0b29 27170000 		.4byte	0x1727
 4405 0b2d 4A0B0000 		.4byte	0xb4a
 4406 0b31 1B       		.uleb128 0x1b
 4407 0b32 01       		.uleb128 0x1
 4408 0b33 50       		.byte	0x50
 4409 0b34 02       		.uleb128 0x2
 4410 0b35 91       		.byte	0x91
 4411 0b36 64       		.sleb128 -28
 4412 0b37 1B       		.uleb128 0x1b
 4413 0b38 01       		.uleb128 0x1
 4414 0b39 51       		.byte	0x51
 4415 0b3a 02       		.uleb128 0x2
 4416 0b3b 74       		.byte	0x74
 4417 0b3c 00       		.sleb128 0
 4418 0b3d 1B       		.uleb128 0x1b
 4419 0b3e 01       		.uleb128 0x1
 4420 0b3f 52       		.byte	0x52
 4421 0b40 02       		.uleb128 0x2
 4422 0b41 91       		.byte	0x91
 4423 0b42 60       		.sleb128 -32
 4424 0b43 1B       		.uleb128 0x1b
 4425 0b44 01       		.uleb128 0x1
 4426 0b45 53       		.byte	0x53
ARM GAS  C:\Users\Phuong\AppData\Local\Temp\cciPItDa.s 			page 101


 4427 0b46 02       		.uleb128 0x2
 4428 0b47 08       		.byte	0x8
 4429 0b48 A1       		.byte	0xa1
 4430 0b49 00       		.byte	0
 4431 0b4a 1A       		.uleb128 0x1a
 4432 0b4b B0000000 		.4byte	.LVL149
 4433 0b4f 4A090000 		.4byte	0x94a
 4434 0b53 700B0000 		.4byte	0xb70
 4435 0b57 1B       		.uleb128 0x1b
 4436 0b58 01       		.uleb128 0x1
 4437 0b59 50       		.byte	0x50
 4438 0b5a 02       		.uleb128 0x2
 4439 0b5b 91       		.byte	0x91
 4440 0b5c 64       		.sleb128 -28
 4441 0b5d 1B       		.uleb128 0x1b
 4442 0b5e 01       		.uleb128 0x1
 4443 0b5f 51       		.byte	0x51
 4444 0b60 02       		.uleb128 0x2
 4445 0b61 77       		.byte	0x77
 4446 0b62 00       		.sleb128 0
 4447 0b63 1B       		.uleb128 0x1b
 4448 0b64 01       		.uleb128 0x1
 4449 0b65 52       		.byte	0x52
 4450 0b66 02       		.uleb128 0x2
 4451 0b67 91       		.byte	0x91
 4452 0b68 54       		.sleb128 -44
 4453 0b69 1B       		.uleb128 0x1b
 4454 0b6a 01       		.uleb128 0x1
 4455 0b6b 53       		.byte	0x53
 4456 0b6c 02       		.uleb128 0x2
 4457 0b6d 91       		.byte	0x91
 4458 0b6e 48       		.sleb128 -56
 4459 0b6f 00       		.byte	0
 4460 0b70 1A       		.uleb128 0x1a
 4461 0b71 C4000000 		.4byte	.LVL151
 4462 0b75 6C170000 		.4byte	0x176c
 4463 0b79 870B0000 		.4byte	0xb87
 4464 0b7d 1B       		.uleb128 0x1b
 4465 0b7e 01       		.uleb128 0x1
 4466 0b7f 50       		.byte	0x50
 4467 0b80 05       		.uleb128 0x5
 4468 0b81 03       		.byte	0x3
 4469 0b82 00000000 		.4byte	.LC1
 4470 0b86 00       		.byte	0
 4471 0b87 1A       		.uleb128 0x1a
 4472 0b88 DA000000 		.4byte	.LVL154
 4473 0b8c 7E070000 		.4byte	0x77e
 4474 0b90 A10B0000 		.4byte	0xba1
 4475 0b94 1B       		.uleb128 0x1b
 4476 0b95 01       		.uleb128 0x1
 4477 0b96 50       		.byte	0x50
 4478 0b97 02       		.uleb128 0x2
 4479 0b98 91       		.byte	0x91
 4480 0b99 48       		.sleb128 -56
 4481 0b9a 1B       		.uleb128 0x1b
 4482 0b9b 01       		.uleb128 0x1
 4483 0b9c 51       		.byte	0x51
ARM GAS  C:\Users\Phuong\AppData\Local\Temp\cciPItDa.s 			page 102


 4484 0b9d 02       		.uleb128 0x2
 4485 0b9e 76       		.byte	0x76
 4486 0b9f 00       		.sleb128 0
 4487 0ba0 00       		.byte	0
 4488 0ba1 1A       		.uleb128 0x1a
 4489 0ba2 06010000 		.4byte	.LVL159
 4490 0ba6 27170000 		.4byte	0x1727
 4491 0baa C70B0000 		.4byte	0xbc7
 4492 0bae 1B       		.uleb128 0x1b
 4493 0baf 01       		.uleb128 0x1
 4494 0bb0 50       		.byte	0x50
 4495 0bb1 02       		.uleb128 0x2
 4496 0bb2 91       		.byte	0x91
 4497 0bb3 64       		.sleb128 -28
 4498 0bb4 1B       		.uleb128 0x1b
 4499 0bb5 01       		.uleb128 0x1
 4500 0bb6 51       		.byte	0x51
 4501 0bb7 02       		.uleb128 0x2
 4502 0bb8 74       		.byte	0x74
 4503 0bb9 00       		.sleb128 0
 4504 0bba 1B       		.uleb128 0x1b
 4505 0bbb 01       		.uleb128 0x1
 4506 0bbc 52       		.byte	0x52
 4507 0bbd 02       		.uleb128 0x2
 4508 0bbe 91       		.byte	0x91
 4509 0bbf 60       		.sleb128 -32
 4510 0bc0 1B       		.uleb128 0x1b
 4511 0bc1 01       		.uleb128 0x1
 4512 0bc2 53       		.byte	0x53
 4513 0bc3 02       		.uleb128 0x2
 4514 0bc4 08       		.byte	0x8
 4515 0bc5 A2       		.byte	0xa2
 4516 0bc6 00       		.byte	0
 4517 0bc7 1A       		.uleb128 0x1a
 4518 0bc8 1E010000 		.4byte	.LVL162
 4519 0bcc 61170000 		.4byte	0x1761
 4520 0bd0 E70B0000 		.4byte	0xbe7
 4521 0bd4 1B       		.uleb128 0x1b
 4522 0bd5 01       		.uleb128 0x1
 4523 0bd6 50       		.byte	0x50
 4524 0bd7 02       		.uleb128 0x2
 4525 0bd8 91       		.byte	0x91
 4526 0bd9 64       		.sleb128 -28
 4527 0bda 1B       		.uleb128 0x1b
 4528 0bdb 01       		.uleb128 0x1
 4529 0bdc 51       		.byte	0x51
 4530 0bdd 02       		.uleb128 0x2
 4531 0bde 76       		.byte	0x76
 4532 0bdf 00       		.sleb128 0
 4533 0be0 1B       		.uleb128 0x1b
 4534 0be1 01       		.uleb128 0x1
 4535 0be2 52       		.byte	0x52
 4536 0be3 02       		.uleb128 0x2
 4537 0be4 75       		.byte	0x75
 4538 0be5 00       		.sleb128 0
 4539 0be6 00       		.byte	0
 4540 0be7 1C       		.uleb128 0x1c
ARM GAS  C:\Users\Phuong\AppData\Local\Temp\cciPItDa.s 			page 103


 4541 0be8 52010000 		.4byte	.LVL169
 4542 0bec 27170000 		.4byte	0x1727
 4543 0bf0 1B       		.uleb128 0x1b
 4544 0bf1 01       		.uleb128 0x1
 4545 0bf2 50       		.byte	0x50
 4546 0bf3 02       		.uleb128 0x2
 4547 0bf4 91       		.byte	0x91
 4548 0bf5 64       		.sleb128 -28
 4549 0bf6 1B       		.uleb128 0x1b
 4550 0bf7 01       		.uleb128 0x1
 4551 0bf8 51       		.byte	0x51
 4552 0bf9 02       		.uleb128 0x2
 4553 0bfa 74       		.byte	0x74
 4554 0bfb 00       		.sleb128 0
 4555 0bfc 1B       		.uleb128 0x1b
 4556 0bfd 01       		.uleb128 0x1
 4557 0bfe 52       		.byte	0x52
 4558 0bff 02       		.uleb128 0x2
 4559 0c00 91       		.byte	0x91
 4560 0c01 60       		.sleb128 -32
 4561 0c02 1B       		.uleb128 0x1b
 4562 0c03 01       		.uleb128 0x1
 4563 0c04 53       		.byte	0x53
 4564 0c05 02       		.uleb128 0x2
 4565 0c06 08       		.byte	0x8
 4566 0c07 A3       		.byte	0xa3
 4567 0c08 00       		.byte	0
 4568 0c09 00       		.byte	0
 4569 0c0a 28       		.uleb128 0x28
 4570 0c0b 40090000 		.4byte	.LASF96
 4571 0c0f 01       		.byte	0x1
 4572 0c10 A201     		.2byte	0x1a2
 4573 0c12 68000000 		.4byte	0x68
 4574 0c16 00000000 		.4byte	.LFB17
 4575 0c1a 84000000 		.4byte	.LFE17-.LFB17
 4576 0c1e 01       		.uleb128 0x1
 4577 0c1f 9C       		.byte	0x9c
 4578 0c20 F10C0000 		.4byte	0xcf1
 4579 0c24 13       		.uleb128 0x13
 4580 0c25 7000     		.ascii	"p\000"
 4581 0c27 01       		.byte	0x1
 4582 0c28 A201     		.2byte	0x1a2
 4583 0c2a E7040000 		.4byte	0x4e7
 4584 0c2e 110B0000 		.4byte	.LLST39
 4585 0c32 13       		.uleb128 0x13
 4586 0c33 656E6400 		.ascii	"end\000"
 4587 0c37 01       		.byte	0x1
 4588 0c38 A201     		.2byte	0x1a2
 4589 0c3a 97020000 		.4byte	0x297
 4590 0c3e 3D0B0000 		.4byte	.LLST40
 4591 0c42 13       		.uleb128 0x13
 4592 0c43 63757200 		.ascii	"cur\000"
 4593 0c47 01       		.byte	0x1
 4594 0c48 A301     		.2byte	0x1a3
 4595 0c4a 72070000 		.4byte	0x772
 4596 0c4e 690B0000 		.4byte	.LLST41
 4597 0c52 19       		.uleb128 0x19
ARM GAS  C:\Users\Phuong\AppData\Local\Temp\cciPItDa.s 			page 104


 4598 0c53 72657400 		.ascii	"ret\000"
 4599 0c57 01       		.byte	0x1
 4600 0c58 A501     		.2byte	0x1a5
 4601 0c5a 68000000 		.4byte	0x68
 4602 0c5e 920B0000 		.4byte	.LLST42
 4603 0c62 27       		.uleb128 0x27
 4604 0c63 A2070000 		.4byte	.LASF97
 4605 0c67 01       		.byte	0x1
 4606 0c68 A601     		.2byte	0x1a6
 4607 0c6a 76000000 		.4byte	0x76
 4608 0c6e 02       		.uleb128 0x2
 4609 0c6f 91       		.byte	0x91
 4610 0c70 64       		.sleb128 -28
 4611 0c71 17       		.uleb128 0x17
 4612 0c72 16050000 		.4byte	.LASF98
 4613 0c76 01       		.byte	0x1
 4614 0c77 A701     		.2byte	0x1a7
 4615 0c79 97020000 		.4byte	0x297
 4616 0c7d ED0B0000 		.4byte	.LLST43
 4617 0c81 1A       		.uleb128 0x1a
 4618 0c82 1A000000 		.4byte	.LVL204
 4619 0c86 27170000 		.4byte	0x1727
 4620 0c8a A70C0000 		.4byte	0xca7
 4621 0c8e 1B       		.uleb128 0x1b
 4622 0c8f 01       		.uleb128 0x1
 4623 0c90 50       		.byte	0x50
 4624 0c91 02       		.uleb128 0x2
 4625 0c92 77       		.byte	0x77
 4626 0c93 00       		.sleb128 0
 4627 0c94 1B       		.uleb128 0x1b
 4628 0c95 01       		.uleb128 0x1
 4629 0c96 51       		.byte	0x51
 4630 0c97 02       		.uleb128 0x2
 4631 0c98 75       		.byte	0x75
 4632 0c99 00       		.sleb128 0
 4633 0c9a 1B       		.uleb128 0x1b
 4634 0c9b 01       		.uleb128 0x1
 4635 0c9c 52       		.byte	0x52
 4636 0c9d 02       		.uleb128 0x2
 4637 0c9e 91       		.byte	0x91
 4638 0c9f 64       		.sleb128 -28
 4639 0ca0 1B       		.uleb128 0x1b
 4640 0ca1 01       		.uleb128 0x1
 4641 0ca2 53       		.byte	0x53
 4642 0ca3 02       		.uleb128 0x2
 4643 0ca4 08       		.byte	0x8
 4644 0ca5 31       		.byte	0x31
 4645 0ca6 00       		.byte	0
 4646 0ca7 1A       		.uleb128 0x1a
 4647 0ca8 3A000000 		.4byte	.LVL208
 4648 0cac 83060000 		.4byte	0x683
 4649 0cb0 C70C0000 		.4byte	0xcc7
 4650 0cb4 1B       		.uleb128 0x1b
 4651 0cb5 01       		.uleb128 0x1
 4652 0cb6 50       		.byte	0x50
 4653 0cb7 02       		.uleb128 0x2
 4654 0cb8 77       		.byte	0x77
ARM GAS  C:\Users\Phuong\AppData\Local\Temp\cciPItDa.s 			page 105


 4655 0cb9 00       		.sleb128 0
 4656 0cba 1B       		.uleb128 0x1b
 4657 0cbb 01       		.uleb128 0x1
 4658 0cbc 51       		.byte	0x51
 4659 0cbd 02       		.uleb128 0x2
 4660 0cbe 76       		.byte	0x76
 4661 0cbf 00       		.sleb128 0
 4662 0cc0 1B       		.uleb128 0x1b
 4663 0cc1 01       		.uleb128 0x1
 4664 0cc2 52       		.byte	0x52
 4665 0cc3 02       		.uleb128 0x2
 4666 0cc4 74       		.byte	0x74
 4667 0cc5 00       		.sleb128 0
 4668 0cc6 00       		.byte	0
 4669 0cc7 1A       		.uleb128 0x1a
 4670 0cc8 50000000 		.4byte	.LVL210
 4671 0ccc 77170000 		.4byte	0x1777
 4672 0cd0 DB0C0000 		.4byte	0xcdb
 4673 0cd4 1B       		.uleb128 0x1b
 4674 0cd5 01       		.uleb128 0x1
 4675 0cd6 51       		.byte	0x51
 4676 0cd7 02       		.uleb128 0x2
 4677 0cd8 08       		.byte	0x8
 4678 0cd9 20       		.byte	0x20
 4679 0cda 00       		.byte	0
 4680 0cdb 1C       		.uleb128 0x1c
 4681 0cdc 66000000 		.4byte	.LVL214
 4682 0ce0 77170000 		.4byte	0x1777
 4683 0ce4 1B       		.uleb128 0x1b
 4684 0ce5 01       		.uleb128 0x1
 4685 0ce6 50       		.byte	0x50
 4686 0ce7 01       		.uleb128 0x1
 4687 0ce8 31       		.byte	0x31
 4688 0ce9 1B       		.uleb128 0x1b
 4689 0cea 01       		.uleb128 0x1
 4690 0ceb 51       		.byte	0x51
 4691 0cec 02       		.uleb128 0x2
 4692 0ced 08       		.byte	0x8
 4693 0cee 20       		.byte	0x20
 4694 0cef 00       		.byte	0
 4695 0cf0 00       		.byte	0
 4696 0cf1 28       		.uleb128 0x28
 4697 0cf2 44060000 		.4byte	.LASF99
 4698 0cf6 01       		.byte	0x1
 4699 0cf7 4D02     		.2byte	0x24d
 4700 0cf9 68000000 		.4byte	0x68
 4701 0cfd 00000000 		.4byte	.LFB21
 4702 0d01 5C000000 		.4byte	.LFE21-.LFB21
 4703 0d05 01       		.uleb128 0x1
 4704 0d06 9C       		.byte	0x9c
 4705 0d07 AE0D0000 		.4byte	0xdae
 4706 0d0b 13       		.uleb128 0x13
 4707 0d0c 7000     		.ascii	"p\000"
 4708 0d0e 01       		.byte	0x1
 4709 0d0f 4D02     		.2byte	0x24d
 4710 0d11 E7040000 		.4byte	0x4e7
 4711 0d15 0B0C0000 		.4byte	.LLST44
ARM GAS  C:\Users\Phuong\AppData\Local\Temp\cciPItDa.s 			page 106


 4712 0d19 13       		.uleb128 0x13
 4713 0d1a 656E6400 		.ascii	"end\000"
 4714 0d1e 01       		.byte	0x1
 4715 0d1f 4D02     		.2byte	0x24d
 4716 0d21 97020000 		.4byte	0x297
 4717 0d25 630C0000 		.4byte	.LLST45
 4718 0d29 13       		.uleb128 0x13
 4719 0d2a 746D00   		.ascii	"tm\000"
 4720 0d2d 01       		.byte	0x1
 4721 0d2e 4E02     		.2byte	0x24e
 4722 0d30 7D060000 		.4byte	0x67d
 4723 0d34 9D0C0000 		.4byte	.LLST46
 4724 0d38 19       		.uleb128 0x19
 4725 0d39 72657400 		.ascii	"ret\000"
 4726 0d3d 01       		.byte	0x1
 4727 0d3e 5002     		.2byte	0x250
 4728 0d40 68000000 		.4byte	0x68
 4729 0d44 C90C0000 		.4byte	.LLST47
 4730 0d48 1D       		.uleb128 0x1d
 4731 0d49 6C656E00 		.ascii	"len\000"
 4732 0d4d 01       		.byte	0x1
 4733 0d4e 5102     		.2byte	0x251
 4734 0d50 76000000 		.4byte	0x76
 4735 0d54 02       		.uleb128 0x2
 4736 0d55 91       		.byte	0x91
 4737 0d56 6C       		.sleb128 -20
 4738 0d57 17       		.uleb128 0x17
 4739 0d58 54000000 		.4byte	.LASF100
 4740 0d5c 01       		.byte	0x1
 4741 0d5d 5102     		.2byte	0x251
 4742 0d5f 76000000 		.4byte	0x76
 4743 0d63 F60C0000 		.4byte	.LLST48
 4744 0d67 19       		.uleb128 0x19
 4745 0d68 74616700 		.ascii	"tag\000"
 4746 0d6c 01       		.byte	0x1
 4747 0d6d 5202     		.2byte	0x252
 4748 0d6f 2C000000 		.4byte	0x2c
 4749 0d73 090D0000 		.4byte	.LLST49
 4750 0d77 1A       		.uleb128 0x1a
 4751 0d78 2C000000 		.4byte	.LVL226
 4752 0d7c 32170000 		.4byte	0x1732
 4753 0d80 910D0000 		.4byte	0xd91
 4754 0d84 1B       		.uleb128 0x1b
 4755 0d85 01       		.uleb128 0x1
 4756 0d86 50       		.byte	0x50
 4757 0d87 02       		.uleb128 0x2
 4758 0d88 76       		.byte	0x76
 4759 0d89 00       		.sleb128 0
 4760 0d8a 1B       		.uleb128 0x1b
 4761 0d8b 01       		.uleb128 0x1
 4762 0d8c 52       		.byte	0x52
 4763 0d8d 02       		.uleb128 0x2
 4764 0d8e 91       		.byte	0x91
 4765 0d8f 6C       		.sleb128 -20
 4766 0d90 00       		.byte	0
 4767 0d91 1C       		.uleb128 0x1c
 4768 0d92 44000000 		.4byte	.LVL230
ARM GAS  C:\Users\Phuong\AppData\Local\Temp\cciPItDa.s 			page 107


 4769 0d96 46050000 		.4byte	0x546
 4770 0d9a 1B       		.uleb128 0x1b
 4771 0d9b 01       		.uleb128 0x1
 4772 0d9c 50       		.byte	0x50
 4773 0d9d 02       		.uleb128 0x2
 4774 0d9e 76       		.byte	0x76
 4775 0d9f 00       		.sleb128 0
 4776 0da0 1B       		.uleb128 0x1b
 4777 0da1 01       		.uleb128 0x1
 4778 0da2 52       		.byte	0x52
 4779 0da3 02       		.uleb128 0x2
 4780 0da4 75       		.byte	0x75
 4781 0da5 00       		.sleb128 0
 4782 0da6 1B       		.uleb128 0x1b
 4783 0da7 01       		.uleb128 0x1
 4784 0da8 53       		.byte	0x53
 4785 0da9 02       		.uleb128 0x2
 4786 0daa 74       		.byte	0x74
 4787 0dab 00       		.sleb128 0
 4788 0dac 00       		.byte	0
 4789 0dad 00       		.byte	0
 4790 0dae 28       		.uleb128 0x28
 4791 0daf 89090000 		.4byte	.LASF101
 4792 0db3 01       		.byte	0x1
 4793 0db4 6B02     		.2byte	0x26b
 4794 0db6 68000000 		.4byte	0x68
 4795 0dba 00000000 		.4byte	.LFB22
 4796 0dbe 48000000 		.4byte	.LFE22-.LFB22
 4797 0dc2 01       		.uleb128 0x1
 4798 0dc3 9C       		.byte	0x9c
 4799 0dc4 430E0000 		.4byte	0xe43
 4800 0dc8 13       		.uleb128 0x13
 4801 0dc9 7000     		.ascii	"p\000"
 4802 0dcb 01       		.byte	0x1
 4803 0dcc 6B02     		.2byte	0x26b
 4804 0dce E7040000 		.4byte	0x4e7
 4805 0dd2 270D0000 		.4byte	.LLST50
 4806 0dd6 13       		.uleb128 0x13
 4807 0dd7 656E6400 		.ascii	"end\000"
 4808 0ddb 01       		.byte	0x1
 4809 0ddc 6B02     		.2byte	0x26b
 4810 0dde 97020000 		.4byte	0x297
 4811 0de2 690D0000 		.4byte	.LLST51
 4812 0de6 13       		.uleb128 0x13
 4813 0de7 73696700 		.ascii	"sig\000"
 4814 0deb 01       		.byte	0x1
 4815 0dec 6B02     		.2byte	0x26b
 4816 0dee 78070000 		.4byte	0x778
 4817 0df2 A30D0000 		.4byte	.LLST52
 4818 0df6 19       		.uleb128 0x19
 4819 0df7 72657400 		.ascii	"ret\000"
 4820 0dfb 01       		.byte	0x1
 4821 0dfc 6D02     		.2byte	0x26d
 4822 0dfe 68000000 		.4byte	0x68
 4823 0e02 CF0D0000 		.4byte	.LLST53
 4824 0e06 1D       		.uleb128 0x1d
 4825 0e07 6C656E00 		.ascii	"len\000"
ARM GAS  C:\Users\Phuong\AppData\Local\Temp\cciPItDa.s 			page 108


 4826 0e0b 01       		.byte	0x1
 4827 0e0c 6E02     		.2byte	0x26e
 4828 0e0e 76000000 		.4byte	0x76
 4829 0e12 02       		.uleb128 0x2
 4830 0e13 91       		.byte	0x91
 4831 0e14 6C       		.sleb128 -20
 4832 0e15 17       		.uleb128 0x17
 4833 0e16 CE020000 		.4byte	.LASF102
 4834 0e1a 01       		.byte	0x1
 4835 0e1b 6F02     		.2byte	0x26f
 4836 0e1d 68000000 		.4byte	0x68
 4837 0e21 FC0D0000 		.4byte	.LLST54
 4838 0e25 1C       		.uleb128 0x1c
 4839 0e26 18000000 		.4byte	.LVL240
 4840 0e2a 82170000 		.4byte	0x1782
 4841 0e2e 1B       		.uleb128 0x1b
 4842 0e2f 01       		.uleb128 0x1
 4843 0e30 50       		.byte	0x50
 4844 0e31 02       		.uleb128 0x2
 4845 0e32 74       		.byte	0x74
 4846 0e33 00       		.sleb128 0
 4847 0e34 1B       		.uleb128 0x1b
 4848 0e35 01       		.uleb128 0x1
 4849 0e36 51       		.byte	0x51
 4850 0e37 03       		.uleb128 0x3
 4851 0e38 F3       		.byte	0xf3
 4852 0e39 01       		.uleb128 0x1
 4853 0e3a 51       		.byte	0x51
 4854 0e3b 1B       		.uleb128 0x1b
 4855 0e3c 01       		.uleb128 0x1
 4856 0e3d 52       		.byte	0x52
 4857 0e3e 02       		.uleb128 0x2
 4858 0e3f 91       		.byte	0x91
 4859 0e40 6C       		.sleb128 -20
 4860 0e41 00       		.byte	0
 4861 0e42 00       		.byte	0
 4862 0e43 28       		.uleb128 0x28
 4863 0e44 36070000 		.4byte	.LASF103
 4864 0e48 01       		.byte	0x1
 4865 0e49 8602     		.2byte	0x286
 4866 0e4b 68000000 		.4byte	0x68
 4867 0e4f 00000000 		.4byte	.LFB23
 4868 0e53 8C000000 		.4byte	.LFE23-.LFB23
 4869 0e57 01       		.uleb128 0x1
 4870 0e58 9C       		.byte	0x9c
 4871 0e59 420F0000 		.4byte	0xf42
 4872 0e5d 18       		.uleb128 0x18
 4873 0e5e 3A010000 		.4byte	.LASF56
 4874 0e62 01       		.byte	0x1
 4875 0e63 8602     		.2byte	0x286
 4876 0e65 5C080000 		.4byte	0x85c
 4877 0e69 0F0E0000 		.4byte	.LLST55
 4878 0e6d 18       		.uleb128 0x18
 4879 0e6e F1050000 		.4byte	.LASF104
 4880 0e72 01       		.byte	0x1
 4881 0e73 8602     		.2byte	0x286
 4882 0e75 5C080000 		.4byte	0x85c
ARM GAS  C:\Users\Phuong\AppData\Local\Temp\cciPItDa.s 			page 109


 4883 0e79 490E0000 		.4byte	.LLST56
 4884 0e7d 18       		.uleb128 0x18
 4885 0e7e 4C010000 		.4byte	.LASF83
 4886 0e82 01       		.byte	0x1
 4887 0e83 8702     		.2byte	0x287
 4888 0e85 67080000 		.4byte	0x867
 4889 0e89 8B0E0000 		.4byte	.LLST57
 4890 0e8d 18       		.uleb128 0x18
 4891 0e8e 0E060000 		.4byte	.LASF105
 4892 0e92 01       		.byte	0x1
 4893 0e93 8702     		.2byte	0x287
 4894 0e95 420F0000 		.4byte	0xf42
 4895 0e99 E60E0000 		.4byte	.LLST58
 4896 0e9d 29       		.uleb128 0x29
 4897 0e9e C4010000 		.4byte	.LASF75
 4898 0ea2 01       		.byte	0x1
 4899 0ea3 8802     		.2byte	0x288
 4900 0ea5 480F0000 		.4byte	0xf48
 4901 0ea9 02       		.uleb128 0x2
 4902 0eaa 91       		.byte	0x91
 4903 0eab 00       		.sleb128 0
 4904 0eac 19       		.uleb128 0x19
 4905 0ead 72657400 		.ascii	"ret\000"
 4906 0eb1 01       		.byte	0x1
 4907 0eb2 8A02     		.2byte	0x28a
 4908 0eb4 68000000 		.4byte	0x68
 4909 0eb8 440F0000 		.4byte	.LLST59
 4910 0ebc 2A       		.uleb128 0x2a
 4911 0ebd 00000000 		.4byte	.Ldebug_ranges0+0
 4912 0ec1 240F0000 		.4byte	0xf24
 4913 0ec5 17       		.uleb128 0x17
 4914 0ec6 330A0000 		.4byte	.LASF106
 4915 0eca 01       		.byte	0x1
 4916 0ecb 9502     		.2byte	0x295
 4917 0ecd 4E0F0000 		.4byte	0xf4e
 4918 0ed1 A80F0000 		.4byte	.LLST60
 4919 0ed5 1A       		.uleb128 0x1a
 4920 0ed6 32000000 		.4byte	.LVL256
 4921 0eda 77170000 		.4byte	0x1777
 4922 0ede ED0E0000 		.4byte	0xeed
 4923 0ee2 1B       		.uleb128 0x1b
 4924 0ee3 01       		.uleb128 0x1
 4925 0ee4 50       		.byte	0x50
 4926 0ee5 01       		.uleb128 0x1
 4927 0ee6 31       		.byte	0x31
 4928 0ee7 1B       		.uleb128 0x1b
 4929 0ee8 01       		.uleb128 0x1
 4930 0ee9 51       		.byte	0x51
 4931 0eea 01       		.uleb128 0x1
 4932 0eeb 38       		.byte	0x38
 4933 0eec 00       		.byte	0
 4934 0eed 1A       		.uleb128 0x1a
 4935 0eee 42000000 		.4byte	.LVL259
 4936 0ef2 D3090000 		.4byte	0x9d3
 4937 0ef6 130F0000 		.4byte	0xf13
 4938 0efa 1B       		.uleb128 0x1b
 4939 0efb 01       		.uleb128 0x1
ARM GAS  C:\Users\Phuong\AppData\Local\Temp\cciPItDa.s 			page 110


 4940 0efc 50       		.byte	0x50
 4941 0efd 02       		.uleb128 0x2
 4942 0efe 77       		.byte	0x77
 4943 0eff 00       		.sleb128 0
 4944 0f00 1B       		.uleb128 0x1b
 4945 0f01 01       		.uleb128 0x1
 4946 0f02 51       		.byte	0x51
 4947 0f03 02       		.uleb128 0x2
 4948 0f04 76       		.byte	0x76
 4949 0f05 00       		.sleb128 0
 4950 0f06 1B       		.uleb128 0x1b
 4951 0f07 01       		.uleb128 0x1
 4952 0f08 52       		.byte	0x52
 4953 0f09 02       		.uleb128 0x2
 4954 0f0a 74       		.byte	0x74
 4955 0f0b 00       		.sleb128 0
 4956 0f0c 1B       		.uleb128 0x1b
 4957 0f0d 01       		.uleb128 0x1
 4958 0f0e 53       		.byte	0x53
 4959 0f0f 02       		.uleb128 0x2
 4960 0f10 74       		.byte	0x74
 4961 0f11 04       		.sleb128 4
 4962 0f12 00       		.byte	0
 4963 0f13 1C       		.uleb128 0x1c
 4964 0f14 4C000000 		.4byte	.LVL262
 4965 0f18 8E170000 		.4byte	0x178e
 4966 0f1c 1B       		.uleb128 0x1b
 4967 0f1d 01       		.uleb128 0x1
 4968 0f1e 50       		.byte	0x50
 4969 0f1f 02       		.uleb128 0x2
 4970 0f20 74       		.byte	0x74
 4971 0f21 00       		.sleb128 0
 4972 0f22 00       		.byte	0
 4973 0f23 00       		.byte	0
 4974 0f24 1C       		.uleb128 0x1c
 4975 0f25 18000000 		.4byte	.LVL252
 4976 0f29 99170000 		.4byte	0x1799
 4977 0f2d 1B       		.uleb128 0x1b
 4978 0f2e 01       		.uleb128 0x1
 4979 0f2f 50       		.byte	0x50
 4980 0f30 03       		.uleb128 0x3
 4981 0f31 F3       		.byte	0xf3
 4982 0f32 01       		.uleb128 0x1
 4983 0f33 50       		.byte	0x50
 4984 0f34 1B       		.uleb128 0x1b
 4985 0f35 01       		.uleb128 0x1
 4986 0f36 51       		.byte	0x51
 4987 0f37 02       		.uleb128 0x2
 4988 0f38 76       		.byte	0x76
 4989 0f39 00       		.sleb128 0
 4990 0f3a 1B       		.uleb128 0x1b
 4991 0f3b 01       		.uleb128 0x1
 4992 0f3c 52       		.byte	0x52
 4993 0f3d 02       		.uleb128 0x2
 4994 0f3e 74       		.byte	0x74
 4995 0f3f 00       		.sleb128 0
 4996 0f40 00       		.byte	0
ARM GAS  C:\Users\Phuong\AppData\Local\Temp\cciPItDa.s 			page 111


 4997 0f41 00       		.byte	0
 4998 0f42 07       		.uleb128 0x7
 4999 0f43 04       		.byte	0x4
 5000 0f44 11020000 		.4byte	0x211
 5001 0f48 07       		.uleb128 0x7
 5002 0f49 04       		.byte	0x4
 5003 0f4a C6010000 		.4byte	0x1c6
 5004 0f4e 07       		.uleb128 0x7
 5005 0f4f 04       		.byte	0x4
 5006 0f50 41020000 		.4byte	0x241
 5007 0f54 28       		.uleb128 0x28
 5008 0f55 15070000 		.4byte	.LASF107
 5009 0f59 01       		.byte	0x1
 5010 0f5a B702     		.2byte	0x2b7
 5011 0f5c 68000000 		.4byte	0x68
 5012 0f60 00000000 		.4byte	.LFB24
 5013 0f64 68000000 		.4byte	.LFE24-.LFB24
 5014 0f68 01       		.uleb128 0x1
 5015 0f69 9C       		.byte	0x9c
 5016 0f6a 19100000 		.4byte	0x1019
 5017 0f6e 13       		.uleb128 0x13
 5018 0f6f 7000     		.ascii	"p\000"
 5019 0f71 01       		.byte	0x1
 5020 0f72 B702     		.2byte	0x2b7
 5021 0f74 E7040000 		.4byte	0x4e7
 5022 0f78 E70F0000 		.4byte	.LLST61
 5023 0f7c 13       		.uleb128 0x13
 5024 0f7d 656E6400 		.ascii	"end\000"
 5025 0f81 01       		.byte	0x1
 5026 0f82 B702     		.2byte	0x2b7
 5027 0f84 97020000 		.4byte	0x297
 5028 0f88 29100000 		.4byte	.LLST62
 5029 0f8c 13       		.uleb128 0x13
 5030 0f8d 65787400 		.ascii	"ext\000"
 5031 0f91 01       		.byte	0x1
 5032 0f92 B802     		.2byte	0x2b8
 5033 0f94 78070000 		.4byte	0x778
 5034 0f98 6B100000 		.4byte	.LLST63
 5035 0f9c 13       		.uleb128 0x13
 5036 0f9d 74616700 		.ascii	"tag\000"
 5037 0fa1 01       		.byte	0x1
 5038 0fa2 B802     		.2byte	0x2b8
 5039 0fa4 68000000 		.4byte	0x68
 5040 0fa8 B0100000 		.4byte	.LLST64
 5041 0fac 19       		.uleb128 0x19
 5042 0fad 72657400 		.ascii	"ret\000"
 5043 0fb1 01       		.byte	0x1
 5044 0fb2 BA02     		.2byte	0x2ba
 5045 0fb4 68000000 		.4byte	0x68
 5046 0fb8 EA100000 		.4byte	.LLST65
 5047 0fbc 1D       		.uleb128 0x1d
 5048 0fbd 6C656E00 		.ascii	"len\000"
 5049 0fc1 01       		.byte	0x1
 5050 0fc2 BB02     		.2byte	0x2bb
 5051 0fc4 76000000 		.4byte	0x76
 5052 0fc8 02       		.uleb128 0x2
 5053 0fc9 91       		.byte	0x91
ARM GAS  C:\Users\Phuong\AppData\Local\Temp\cciPItDa.s 			page 112


 5054 0fca 6C       		.sleb128 -20
 5055 0fcb 1A       		.uleb128 0x1a
 5056 0fcc 1E000000 		.4byte	.LVL278
 5057 0fd0 27170000 		.4byte	0x1727
 5058 0fd4 F60F0000 		.4byte	0xff6
 5059 0fd8 1B       		.uleb128 0x1b
 5060 0fd9 01       		.uleb128 0x1
 5061 0fda 50       		.byte	0x50
 5062 0fdb 02       		.uleb128 0x2
 5063 0fdc 74       		.byte	0x74
 5064 0fdd 00       		.sleb128 0
 5065 0fde 1B       		.uleb128 0x1b
 5066 0fdf 01       		.uleb128 0x1
 5067 0fe0 51       		.byte	0x51
 5068 0fe1 03       		.uleb128 0x3
 5069 0fe2 F3       		.byte	0xf3
 5070 0fe3 01       		.uleb128 0x1
 5071 0fe4 51       		.byte	0x51
 5072 0fe5 1B       		.uleb128 0x1b
 5073 0fe6 01       		.uleb128 0x1
 5074 0fe7 52       		.byte	0x52
 5075 0fe8 02       		.uleb128 0x2
 5076 0fe9 75       		.byte	0x75
 5077 0fea 04       		.sleb128 4
 5078 0feb 1B       		.uleb128 0x1b
 5079 0fec 01       		.uleb128 0x1
 5080 0fed 53       		.byte	0x53
 5081 0fee 06       		.uleb128 0x6
 5082 0fef F3       		.byte	0xf3
 5083 0ff0 01       		.uleb128 0x1
 5084 0ff1 53       		.byte	0x53
 5085 0ff2 08       		.byte	0x8
 5086 0ff3 A0       		.byte	0xa0
 5087 0ff4 21       		.byte	0x21
 5088 0ff5 00       		.byte	0
 5089 0ff6 1C       		.uleb128 0x1c
 5090 0ff7 3A000000 		.4byte	.LVL282
 5091 0ffb 27170000 		.4byte	0x1727
 5092 0fff 1B       		.uleb128 0x1b
 5093 1000 01       		.uleb128 0x1
 5094 1001 50       		.byte	0x50
 5095 1002 02       		.uleb128 0x2
 5096 1003 74       		.byte	0x74
 5097 1004 00       		.sleb128 0
 5098 1005 1B       		.uleb128 0x1b
 5099 1006 01       		.uleb128 0x1
 5100 1007 51       		.byte	0x51
 5101 1008 02       		.uleb128 0x2
 5102 1009 75       		.byte	0x75
 5103 100a 00       		.sleb128 0
 5104 100b 1B       		.uleb128 0x1b
 5105 100c 01       		.uleb128 0x1
 5106 100d 52       		.byte	0x52
 5107 100e 02       		.uleb128 0x2
 5108 100f 91       		.byte	0x91
 5109 1010 6C       		.sleb128 -20
 5110 1011 1B       		.uleb128 0x1b
ARM GAS  C:\Users\Phuong\AppData\Local\Temp\cciPItDa.s 			page 113


 5111 1012 01       		.uleb128 0x1
 5112 1013 53       		.byte	0x53
 5113 1014 02       		.uleb128 0x2
 5114 1015 08       		.byte	0x8
 5115 1016 30       		.byte	0x30
 5116 1017 00       		.byte	0
 5117 1018 00       		.byte	0
 5118 1019 28       		.uleb128 0x28
 5119 101a 2B090000 		.4byte	.LASF108
 5120 101e 01       		.byte	0x1
 5121 101f E002     		.2byte	0x2e0
 5122 1021 68000000 		.4byte	0x68
 5123 1025 00000000 		.4byte	.LFB25
 5124 1029 10010000 		.4byte	.LFE25-.LFB25
 5125 102d 01       		.uleb128 0x1
 5126 102e 9C       		.byte	0x9c
 5127 102f A9110000 		.4byte	0x11a9
 5128 1033 13       		.uleb128 0x13
 5129 1034 62756600 		.ascii	"buf\000"
 5130 1038 01       		.byte	0x1
 5131 1039 E002     		.2byte	0x2e0
 5132 103b 2A030000 		.4byte	0x32a
 5133 103f 2D110000 		.4byte	.LLST66
 5134 1043 18       		.uleb128 0x18
 5135 1044 C2060000 		.4byte	.LASF109
 5136 1048 01       		.byte	0x1
 5137 1049 E002     		.2byte	0x2e0
 5138 104b 76000000 		.4byte	0x76
 5139 104f 59110000 		.4byte	.LLST67
 5140 1053 13       		.uleb128 0x13
 5141 1054 646E00   		.ascii	"dn\000"
 5142 1057 01       		.byte	0x1
 5143 1058 E002     		.2byte	0x2e0
 5144 105a A9110000 		.4byte	0x11a9
 5145 105e 84110000 		.4byte	.LLST68
 5146 1062 19       		.uleb128 0x19
 5147 1063 72657400 		.ascii	"ret\000"
 5148 1067 01       		.byte	0x1
 5149 1068 E202     		.2byte	0x2e2
 5150 106a 68000000 		.4byte	0x68
 5151 106e B0110000 		.4byte	.LLST69
 5152 1072 19       		.uleb128 0x19
 5153 1073 6900     		.ascii	"i\000"
 5154 1075 01       		.byte	0x1
 5155 1076 E302     		.2byte	0x2e3
 5156 1078 76000000 		.4byte	0x76
 5157 107c 31120000 		.4byte	.LLST70
 5158 1080 19       		.uleb128 0x19
 5159 1081 6E00     		.ascii	"n\000"
 5160 1083 01       		.byte	0x1
 5161 1084 E302     		.2byte	0x2e3
 5162 1086 76000000 		.4byte	0x76
 5163 108a 50120000 		.4byte	.LLST71
 5164 108e 19       		.uleb128 0x19
 5165 108f 6300     		.ascii	"c\000"
 5166 1091 01       		.byte	0x1
 5167 1092 E402     		.2byte	0x2e4
ARM GAS  C:\Users\Phuong\AppData\Local\Temp\cciPItDa.s 			page 114


 5168 1094 2C000000 		.4byte	0x2c
 5169 1098 63120000 		.4byte	.LLST72
 5170 109c 17       		.uleb128 0x17
 5171 109d 13040000 		.4byte	.LASF110
 5172 10a1 01       		.byte	0x1
 5173 10a2 E402     		.2byte	0x2e4
 5174 10a4 2C000000 		.4byte	0x2c
 5175 10a8 91120000 		.4byte	.LLST73
 5176 10ac 17       		.uleb128 0x17
 5177 10ad 07000000 		.4byte	.LASF111
 5178 10b1 01       		.byte	0x1
 5179 10b2 E502     		.2byte	0x2e5
 5180 10b4 A9110000 		.4byte	0x11a9
 5181 10b8 BB120000 		.4byte	.LLST74
 5182 10bc 27       		.uleb128 0x27
 5183 10bd 6F060000 		.4byte	.LASF112
 5184 10c1 01       		.byte	0x1
 5185 10c2 E602     		.2byte	0x2e6
 5186 10c4 C8010000 		.4byte	0x1c8
 5187 10c8 02       		.uleb128 0x2
 5188 10c9 91       		.byte	0x91
 5189 10ca 64       		.sleb128 -28
 5190 10cb 1D       		.uleb128 0x1d
 5191 10cc 7300     		.ascii	"s\000"
 5192 10ce 01       		.byte	0x1
 5193 10cf E702     		.2byte	0x2e7
 5194 10d1 B4110000 		.4byte	0x11b4
 5195 10d5 03       		.uleb128 0x3
 5196 10d6 91       		.byte	0x91
 5197 10d7 E47D     		.sleb128 -284
 5198 10d9 19       		.uleb128 0x19
 5199 10da 7000     		.ascii	"p\000"
 5200 10dc 01       		.byte	0x1
 5201 10dd E702     		.2byte	0x2e7
 5202 10df 2A030000 		.4byte	0x32a
 5203 10e3 D9120000 		.4byte	.LLST75
 5204 10e7 1A       		.uleb128 0x1a
 5205 10e8 1C000000 		.4byte	.LVL296
 5206 10ec A5170000 		.4byte	0x17a5
 5207 10f0 08110000 		.4byte	0x1108
 5208 10f4 1B       		.uleb128 0x1b
 5209 10f5 01       		.uleb128 0x1
 5210 10f6 50       		.byte	0x50
 5211 10f7 03       		.uleb128 0x3
 5212 10f8 91       		.byte	0x91
 5213 10f9 E47D     		.sleb128 -284
 5214 10fb 1B       		.uleb128 0x1b
 5215 10fc 01       		.uleb128 0x1
 5216 10fd 51       		.byte	0x51
 5217 10fe 01       		.uleb128 0x1
 5218 10ff 30       		.byte	0x30
 5219 1100 1B       		.uleb128 0x1b
 5220 1101 01       		.uleb128 0x1
 5221 1102 52       		.byte	0x52
 5222 1103 03       		.uleb128 0x3
 5223 1104 0A       		.byte	0xa
 5224 1105 0001     		.2byte	0x100
ARM GAS  C:\Users\Phuong\AppData\Local\Temp\cciPItDa.s 			page 115


 5225 1107 00       		.byte	0
 5226 1108 1A       		.uleb128 0x1a
 5227 1109 42000000 		.4byte	.LVL299
 5228 110d AE170000 		.4byte	0x17ae
 5229 1111 22110000 		.4byte	0x1122
 5230 1115 1B       		.uleb128 0x1b
 5231 1116 01       		.uleb128 0x1
 5232 1117 50       		.byte	0x50
 5233 1118 02       		.uleb128 0x2
 5234 1119 77       		.byte	0x77
 5235 111a 00       		.sleb128 0
 5236 111b 1B       		.uleb128 0x1b
 5237 111c 01       		.uleb128 0x1
 5238 111d 51       		.byte	0x51
 5239 111e 02       		.uleb128 0x2
 5240 111f 76       		.byte	0x76
 5241 1120 00       		.sleb128 0
 5242 1121 00       		.byte	0
 5243 1122 1A       		.uleb128 0x1a
 5244 1123 56000000 		.4byte	.LVL302
 5245 1127 B9170000 		.4byte	0x17b9
 5246 112b 3C110000 		.4byte	0x113c
 5247 112f 1B       		.uleb128 0x1b
 5248 1130 01       		.uleb128 0x1
 5249 1131 50       		.byte	0x50
 5250 1132 02       		.uleb128 0x2
 5251 1133 74       		.byte	0x74
 5252 1134 00       		.sleb128 0
 5253 1135 1B       		.uleb128 0x1b
 5254 1136 01       		.uleb128 0x1
 5255 1137 51       		.byte	0x51
 5256 1138 02       		.uleb128 0x2
 5257 1139 91       		.byte	0x91
 5258 113a 64       		.sleb128 -28
 5259 113b 00       		.byte	0
 5260 113c 1A       		.uleb128 0x1a
 5261 113d 66000000 		.4byte	.LVL304
 5262 1141 AE170000 		.4byte	0x17ae
 5263 1145 5F110000 		.4byte	0x115f
 5264 1149 1B       		.uleb128 0x1b
 5265 114a 01       		.uleb128 0x1
 5266 114b 50       		.byte	0x50
 5267 114c 02       		.uleb128 0x2
 5268 114d 77       		.byte	0x77
 5269 114e 00       		.sleb128 0
 5270 114f 1B       		.uleb128 0x1b
 5271 1150 01       		.uleb128 0x1
 5272 1151 51       		.byte	0x51
 5273 1152 02       		.uleb128 0x2
 5274 1153 76       		.byte	0x76
 5275 1154 00       		.sleb128 0
 5276 1155 1B       		.uleb128 0x1b
 5277 1156 01       		.uleb128 0x1
 5278 1157 52       		.byte	0x52
 5279 1158 05       		.uleb128 0x5
 5280 1159 03       		.byte	0x3
 5281 115a 14000000 		.4byte	.LC7
ARM GAS  C:\Users\Phuong\AppData\Local\Temp\cciPItDa.s 			page 116


 5282 115e 00       		.byte	0
 5283 115f 1A       		.uleb128 0x1a
 5284 1160 72000000 		.4byte	.LVL306
 5285 1164 AE170000 		.4byte	0x17ae
 5286 1168 82110000 		.4byte	0x1182
 5287 116c 1B       		.uleb128 0x1b
 5288 116d 01       		.uleb128 0x1
 5289 116e 50       		.byte	0x50
 5290 116f 02       		.uleb128 0x2
 5291 1170 77       		.byte	0x77
 5292 1171 00       		.sleb128 0
 5293 1172 1B       		.uleb128 0x1b
 5294 1173 01       		.uleb128 0x1
 5295 1174 51       		.byte	0x51
 5296 1175 02       		.uleb128 0x2
 5297 1176 76       		.byte	0x76
 5298 1177 00       		.sleb128 0
 5299 1178 1B       		.uleb128 0x1b
 5300 1179 01       		.uleb128 0x1
 5301 117a 52       		.byte	0x52
 5302 117b 05       		.uleb128 0x5
 5303 117c 03       		.byte	0x3
 5304 117d 18000000 		.4byte	.LC9
 5305 1181 00       		.byte	0
 5306 1182 1C       		.uleb128 0x1c
 5307 1183 C2000000 		.4byte	.LVL318
 5308 1187 AE170000 		.4byte	0x17ae
 5309 118b 1B       		.uleb128 0x1b
 5310 118c 01       		.uleb128 0x1
 5311 118d 50       		.byte	0x50
 5312 118e 02       		.uleb128 0x2
 5313 118f 77       		.byte	0x77
 5314 1190 00       		.sleb128 0
 5315 1191 1B       		.uleb128 0x1b
 5316 1192 01       		.uleb128 0x1
 5317 1193 51       		.byte	0x51
 5318 1194 02       		.uleb128 0x2
 5319 1195 76       		.byte	0x76
 5320 1196 00       		.sleb128 0
 5321 1197 1B       		.uleb128 0x1b
 5322 1198 01       		.uleb128 0x1
 5323 1199 52       		.byte	0x52
 5324 119a 05       		.uleb128 0x5
 5325 119b 03       		.byte	0x3
 5326 119c 1C000000 		.4byte	.LC11
 5327 11a0 1B       		.uleb128 0x1b
 5328 11a1 01       		.uleb128 0x1
 5329 11a2 53       		.byte	0x53
 5330 11a3 03       		.uleb128 0x3
 5331 11a4 91       		.byte	0x91
 5332 11a5 E47D     		.sleb128 -284
 5333 11a7 00       		.byte	0
 5334 11a8 00       		.byte	0
 5335 11a9 07       		.uleb128 0x7
 5336 11aa 04       		.byte	0x4
 5337 11ab AF110000 		.4byte	0x11af
 5338 11af 0C       		.uleb128 0xc
ARM GAS  C:\Users\Phuong\AppData\Local\Temp\cciPItDa.s 			page 117


 5339 11b0 AD020000 		.4byte	0x2ad
 5340 11b4 2B       		.uleb128 0x2b
 5341 11b5 CE010000 		.4byte	0x1ce
 5342 11b9 C4110000 		.4byte	0x11c4
 5343 11bd 2C       		.uleb128 0x2c
 5344 11be 23030000 		.4byte	0x323
 5345 11c2 FF       		.byte	0xff
 5346 11c3 00       		.byte	0
 5347 11c4 28       		.uleb128 0x28
 5348 11c5 03010000 		.4byte	.LASF113
 5349 11c9 01       		.byte	0x1
 5350 11ca 1E03     		.2byte	0x31e
 5351 11cc 68000000 		.4byte	0x68
 5352 11d0 00000000 		.4byte	.LFB26
 5353 11d4 AC000000 		.4byte	.LFE26-.LFB26
 5354 11d8 01       		.uleb128 0x1
 5355 11d9 9C       		.byte	0x9c
 5356 11da 9A120000 		.4byte	0x129a
 5357 11de 13       		.uleb128 0x13
 5358 11df 62756600 		.ascii	"buf\000"
 5359 11e3 01       		.byte	0x1
 5360 11e4 1E03     		.2byte	0x31e
 5361 11e6 2A030000 		.4byte	0x32a
 5362 11ea EC120000 		.4byte	.LLST76
 5363 11ee 18       		.uleb128 0x18
 5364 11ef C2060000 		.4byte	.LASF109
 5365 11f3 01       		.byte	0x1
 5366 11f4 1E03     		.2byte	0x31e
 5367 11f6 76000000 		.4byte	0x76
 5368 11fa 0D130000 		.4byte	.LLST77
 5369 11fe 18       		.uleb128 0x18
 5370 11ff BE080000 		.4byte	.LASF55
 5371 1203 01       		.byte	0x1
 5372 1204 1E03     		.2byte	0x31e
 5373 1206 5C080000 		.4byte	0x85c
 5374 120a 2C130000 		.4byte	.LLST78
 5375 120e 19       		.uleb128 0x19
 5376 120f 72657400 		.ascii	"ret\000"
 5377 1213 01       		.byte	0x1
 5378 1214 2003     		.2byte	0x320
 5379 1216 68000000 		.4byte	0x68
 5380 121a 58130000 		.4byte	.LLST79
 5381 121e 19       		.uleb128 0x19
 5382 121f 6900     		.ascii	"i\000"
 5383 1221 01       		.byte	0x1
 5384 1222 2103     		.2byte	0x321
 5385 1224 76000000 		.4byte	0x76
 5386 1228 A2130000 		.4byte	.LLST80
 5387 122c 19       		.uleb128 0x19
 5388 122d 6E00     		.ascii	"n\000"
 5389 122f 01       		.byte	0x1
 5390 1230 2103     		.2byte	0x321
 5391 1232 76000000 		.4byte	0x76
 5392 1236 C1130000 		.4byte	.LLST81
 5393 123a 19       		.uleb128 0x19
 5394 123b 6E7200   		.ascii	"nr\000"
 5395 123e 01       		.byte	0x1
ARM GAS  C:\Users\Phuong\AppData\Local\Temp\cciPItDa.s 			page 118


 5396 123f 2103     		.2byte	0x321
 5397 1241 76000000 		.4byte	0x76
 5398 1245 DF130000 		.4byte	.LLST82
 5399 1249 19       		.uleb128 0x19
 5400 124a 7000     		.ascii	"p\000"
 5401 124c 01       		.byte	0x1
 5402 124d 2203     		.2byte	0x322
 5403 124f 2A030000 		.4byte	0x32a
 5404 1253 F2130000 		.4byte	.LLST83
 5405 1257 1A       		.uleb128 0x1a
 5406 1258 4C000000 		.4byte	.LVL344
 5407 125c AE170000 		.4byte	0x17ae
 5408 1260 7A120000 		.4byte	0x127a
 5409 1264 1B       		.uleb128 0x1b
 5410 1265 01       		.uleb128 0x1
 5411 1266 50       		.byte	0x50
 5412 1267 02       		.uleb128 0x2
 5413 1268 77       		.byte	0x77
 5414 1269 00       		.sleb128 0
 5415 126a 1B       		.uleb128 0x1b
 5416 126b 01       		.uleb128 0x1
 5417 126c 51       		.byte	0x51
 5418 126d 02       		.uleb128 0x2
 5419 126e 75       		.byte	0x75
 5420 126f 00       		.sleb128 0
 5421 1270 1B       		.uleb128 0x1b
 5422 1271 01       		.uleb128 0x1
 5423 1272 52       		.byte	0x52
 5424 1273 05       		.uleb128 0x5
 5425 1274 03       		.byte	0x3
 5426 1275 28000000 		.4byte	.LC17
 5427 1279 00       		.byte	0
 5428 127a 1C       		.uleb128 0x1c
 5429 127b 70000000 		.4byte	.LVL348
 5430 127f AE170000 		.4byte	0x17ae
 5431 1283 1B       		.uleb128 0x1b
 5432 1284 01       		.uleb128 0x1
 5433 1285 50       		.byte	0x50
 5434 1286 02       		.uleb128 0x2
 5435 1287 77       		.byte	0x77
 5436 1288 00       		.sleb128 0
 5437 1289 1B       		.uleb128 0x1b
 5438 128a 01       		.uleb128 0x1
 5439 128b 51       		.byte	0x51
 5440 128c 02       		.uleb128 0x2
 5441 128d 75       		.byte	0x75
 5442 128e 00       		.sleb128 0
 5443 128f 1B       		.uleb128 0x1b
 5444 1290 01       		.uleb128 0x1
 5445 1291 52       		.byte	0x52
 5446 1292 05       		.uleb128 0x5
 5447 1293 03       		.byte	0x3
 5448 1294 30000000 		.4byte	.LC19
 5449 1298 00       		.byte	0
 5450 1299 00       		.byte	0
 5451 129a 28       		.uleb128 0x28
 5452 129b C9000000 		.4byte	.LASF114
ARM GAS  C:\Users\Phuong\AppData\Local\Temp\cciPItDa.s 			page 119


 5453 129f 01       		.byte	0x1
 5454 12a0 4003     		.2byte	0x340
 5455 12a2 68000000 		.4byte	0x68
 5456 12a6 00000000 		.4byte	.LFB27
 5457 12aa CC000000 		.4byte	.LFE27-.LFB27
 5458 12ae 01       		.uleb128 0x1
 5459 12af 9C       		.byte	0x9c
 5460 12b0 51140000 		.4byte	0x1451
 5461 12b4 13       		.uleb128 0x13
 5462 12b5 62756600 		.ascii	"buf\000"
 5463 12b9 01       		.byte	0x1
 5464 12ba 4003     		.2byte	0x340
 5465 12bc 2A030000 		.4byte	0x32a
 5466 12c0 36140000 		.4byte	.LLST84
 5467 12c4 18       		.uleb128 0x18
 5468 12c5 C2060000 		.4byte	.LASF109
 5469 12c9 01       		.byte	0x1
 5470 12ca 4003     		.2byte	0x340
 5471 12cc 76000000 		.4byte	0x76
 5472 12d0 7B140000 		.4byte	.LLST85
 5473 12d4 18       		.uleb128 0x18
 5474 12d5 3A010000 		.4byte	.LASF56
 5475 12d9 01       		.byte	0x1
 5476 12da 4003     		.2byte	0x340
 5477 12dc 5C080000 		.4byte	0x85c
 5478 12e0 A7140000 		.4byte	.LLST86
 5479 12e4 18       		.uleb128 0x18
 5480 12e5 0E060000 		.4byte	.LASF105
 5481 12e9 01       		.byte	0x1
 5482 12ea 4103     		.2byte	0x341
 5483 12ec 11020000 		.4byte	0x211
 5484 12f0 C8140000 		.4byte	.LLST87
 5485 12f4 18       		.uleb128 0x18
 5486 12f5 4C010000 		.4byte	.LASF83
 5487 12f9 01       		.byte	0x1
 5488 12fa 4103     		.2byte	0x341
 5489 12fc A0010000 		.4byte	0x1a0
 5490 1300 E9140000 		.4byte	.LLST88
 5491 1304 18       		.uleb128 0x18
 5492 1305 C4010000 		.4byte	.LASF75
 5493 1309 01       		.byte	0x1
 5494 130a 4203     		.2byte	0x342
 5495 130c 30030000 		.4byte	0x330
 5496 1310 15150000 		.4byte	.LLST89
 5497 1314 19       		.uleb128 0x19
 5498 1315 72657400 		.ascii	"ret\000"
 5499 1319 01       		.byte	0x1
 5500 131a 4403     		.2byte	0x344
 5501 131c 68000000 		.4byte	0x68
 5502 1320 41150000 		.4byte	.LLST90
 5503 1324 19       		.uleb128 0x19
 5504 1325 7000     		.ascii	"p\000"
 5505 1327 01       		.byte	0x1
 5506 1328 4503     		.2byte	0x345
 5507 132a 2A030000 		.4byte	0x32a
 5508 132e A1150000 		.4byte	.LLST91
 5509 1332 19       		.uleb128 0x19
ARM GAS  C:\Users\Phuong\AppData\Local\Temp\cciPItDa.s 			page 120


 5510 1333 6E00     		.ascii	"n\000"
 5511 1335 01       		.byte	0x1
 5512 1336 4603     		.2byte	0x346
 5513 1338 76000000 		.4byte	0x76
 5514 133c CA150000 		.4byte	.LLST92
 5515 1340 27       		.uleb128 0x27
 5516 1341 3C0A0000 		.4byte	.LASF115
 5517 1345 01       		.byte	0x1
 5518 1346 4703     		.2byte	0x347
 5519 1348 C8010000 		.4byte	0x1c8
 5520 134c 02       		.uleb128 0x2
 5521 134d 91       		.byte	0x91
 5522 134e 64       		.sleb128 -28
 5523 134f 2A       		.uleb128 0x2a
 5524 1350 18000000 		.4byte	.Ldebug_ranges0+0x18
 5525 1354 F3130000 		.4byte	0x13f3
 5526 1358 17       		.uleb128 0x17
 5527 1359 330A0000 		.4byte	.LASF106
 5528 135d 01       		.byte	0x1
 5529 135e 5303     		.2byte	0x353
 5530 1360 51140000 		.4byte	0x1451
 5531 1364 1F160000 		.4byte	.LLST93
 5532 1368 17       		.uleb128 0x17
 5533 1369 E9070000 		.4byte	.LASF116
 5534 136d 01       		.byte	0x1
 5535 136e 5403     		.2byte	0x354
 5536 1370 BB010000 		.4byte	0x1bb
 5537 1374 3F160000 		.4byte	.LLST94
 5538 1378 17       		.uleb128 0x17
 5539 1379 19040000 		.4byte	.LASF117
 5540 137d 01       		.byte	0x1
 5541 137e 5403     		.2byte	0x354
 5542 1380 BB010000 		.4byte	0x1bb
 5543 1384 68160000 		.4byte	.LLST95
 5544 1388 1A       		.uleb128 0x1a
 5545 1389 52000000 		.4byte	.LVL377
 5546 138d C5170000 		.4byte	0x17c5
 5547 1391 9C130000 		.4byte	0x139c
 5548 1395 1B       		.uleb128 0x1b
 5549 1396 01       		.uleb128 0x1
 5550 1397 50       		.byte	0x50
 5551 1398 02       		.uleb128 0x2
 5552 1399 77       		.byte	0x77
 5553 139a 00       		.sleb128 0
 5554 139b 00       		.byte	0
 5555 139c 2D       		.uleb128 0x2d
 5556 139d 5C000000 		.4byte	.LVL380
 5557 13a1 C5170000 		.4byte	0x17c5
 5558 13a5 1A       		.uleb128 0x1a
 5559 13a6 68000000 		.4byte	.LVL383
 5560 13aa D0170000 		.4byte	0x17d0
 5561 13ae B9130000 		.4byte	0x13b9
 5562 13b2 1B       		.uleb128 0x1b
 5563 13b3 01       		.uleb128 0x1
 5564 13b4 50       		.byte	0x50
 5565 13b5 02       		.uleb128 0x2
 5566 13b6 77       		.byte	0x77
ARM GAS  C:\Users\Phuong\AppData\Local\Temp\cciPItDa.s 			page 121


 5567 13b7 00       		.sleb128 0
 5568 13b8 00       		.byte	0
 5569 13b9 1A       		.uleb128 0x1a
 5570 13ba 78000000 		.4byte	.LVL387
 5571 13be D0170000 		.4byte	0x17d0
 5572 13c2 CD130000 		.4byte	0x13cd
 5573 13c6 1B       		.uleb128 0x1b
 5574 13c7 01       		.uleb128 0x1
 5575 13c8 50       		.byte	0x50
 5576 13c9 02       		.uleb128 0x2
 5577 13ca 76       		.byte	0x76
 5578 13cb 00       		.sleb128 0
 5579 13cc 00       		.byte	0
 5580 13cd 1C       		.uleb128 0x1c
 5581 13ce 90000000 		.4byte	.LVL388
 5582 13d2 AE170000 		.4byte	0x17ae
 5583 13d6 1B       		.uleb128 0x1b
 5584 13d7 01       		.uleb128 0x1
 5585 13d8 50       		.byte	0x50
 5586 13d9 02       		.uleb128 0x2
 5587 13da 75       		.byte	0x75
 5588 13db 00       		.sleb128 0
 5589 13dc 1B       		.uleb128 0x1b
 5590 13dd 01       		.uleb128 0x1
 5591 13de 51       		.byte	0x51
 5592 13df 02       		.uleb128 0x2
 5593 13e0 78       		.byte	0x78
 5594 13e1 00       		.sleb128 0
 5595 13e2 1B       		.uleb128 0x1b
 5596 13e3 01       		.uleb128 0x1
 5597 13e4 52       		.byte	0x52
 5598 13e5 05       		.uleb128 0x5
 5599 13e6 03       		.byte	0x3
 5600 13e7 3C000000 		.4byte	.LC24
 5601 13eb 1B       		.uleb128 0x1b
 5602 13ec 01       		.uleb128 0x1
 5603 13ed 53       		.byte	0x53
 5604 13ee 02       		.uleb128 0x2
 5605 13ef 77       		.byte	0x77
 5606 13f0 00       		.sleb128 0
 5607 13f1 00       		.byte	0
 5608 13f2 00       		.byte	0
 5609 13f3 1A       		.uleb128 0x1a
 5610 13f4 1E000000 		.4byte	.LVL368
 5611 13f8 DB170000 		.4byte	0x17db
 5612 13fc 0E140000 		.4byte	0x140e
 5613 1400 1B       		.uleb128 0x1b
 5614 1401 01       		.uleb128 0x1
 5615 1402 50       		.byte	0x50
 5616 1403 03       		.uleb128 0x3
 5617 1404 F3       		.byte	0xf3
 5618 1405 01       		.uleb128 0x1
 5619 1406 52       		.byte	0x52
 5620 1407 1B       		.uleb128 0x1b
 5621 1408 01       		.uleb128 0x1
 5622 1409 51       		.byte	0x51
 5623 140a 02       		.uleb128 0x2
ARM GAS  C:\Users\Phuong\AppData\Local\Temp\cciPItDa.s 			page 122


 5624 140b 91       		.byte	0x91
 5625 140c 64       		.sleb128 -28
 5626 140d 00       		.byte	0
 5627 140e 1A       		.uleb128 0x1a
 5628 140f 2C000000 		.4byte	.LVL370
 5629 1413 AE170000 		.4byte	0x17ae
 5630 1417 31140000 		.4byte	0x1431
 5631 141b 1B       		.uleb128 0x1b
 5632 141c 01       		.uleb128 0x1
 5633 141d 50       		.byte	0x50
 5634 141e 02       		.uleb128 0x2
 5635 141f 75       		.byte	0x75
 5636 1420 00       		.sleb128 0
 5637 1421 1B       		.uleb128 0x1b
 5638 1422 01       		.uleb128 0x1
 5639 1423 51       		.byte	0x51
 5640 1424 02       		.uleb128 0x2
 5641 1425 74       		.byte	0x74
 5642 1426 00       		.sleb128 0
 5643 1427 1B       		.uleb128 0x1b
 5644 1428 01       		.uleb128 0x1
 5645 1429 52       		.byte	0x52
 5646 142a 05       		.uleb128 0x5
 5647 142b 03       		.byte	0x3
 5648 142c 38000000 		.4byte	.LC21
 5649 1430 00       		.byte	0
 5650 1431 1C       		.uleb128 0x1c
 5651 1432 3A000000 		.4byte	.LVL372
 5652 1436 AE170000 		.4byte	0x17ae
 5653 143a 1B       		.uleb128 0x1b
 5654 143b 01       		.uleb128 0x1
 5655 143c 50       		.byte	0x50
 5656 143d 02       		.uleb128 0x2
 5657 143e 75       		.byte	0x75
 5658 143f 00       		.sleb128 0
 5659 1440 1B       		.uleb128 0x1b
 5660 1441 01       		.uleb128 0x1
 5661 1442 51       		.byte	0x51
 5662 1443 02       		.uleb128 0x2
 5663 1444 74       		.byte	0x74
 5664 1445 00       		.sleb128 0
 5665 1446 1B       		.uleb128 0x1b
 5666 1447 01       		.uleb128 0x1
 5667 1448 52       		.byte	0x52
 5668 1449 05       		.uleb128 0x5
 5669 144a 03       		.byte	0x3
 5670 144b 1C000000 		.4byte	.LC11
 5671 144f 00       		.byte	0
 5672 1450 00       		.byte	0
 5673 1451 07       		.uleb128 0x7
 5674 1452 04       		.byte	0x4
 5675 1453 57140000 		.4byte	0x1457
 5676 1457 0C       		.uleb128 0xc
 5677 1458 41020000 		.4byte	0x241
 5678 145c 28       		.uleb128 0x28
 5679 145d 73000000 		.4byte	.LASF118
 5680 1461 01       		.byte	0x1
ARM GAS  C:\Users\Phuong\AppData\Local\Temp\cciPItDa.s 			page 123


 5681 1462 6D03     		.2byte	0x36d
 5682 1464 68000000 		.4byte	0x68
 5683 1468 00000000 		.4byte	.LFB28
 5684 146c 28000000 		.4byte	.LFE28-.LFB28
 5685 1470 01       		.uleb128 0x1
 5686 1471 9C       		.byte	0x9c
 5687 1472 FA140000 		.4byte	0x14fa
 5688 1476 13       		.uleb128 0x13
 5689 1477 62756600 		.ascii	"buf\000"
 5690 147b 01       		.byte	0x1
 5691 147c 6D03     		.2byte	0x36d
 5692 147e 2A030000 		.4byte	0x32a
 5693 1482 A7160000 		.4byte	.LLST96
 5694 1486 18       		.uleb128 0x18
 5695 1487 CD010000 		.4byte	.LASF119
 5696 148b 01       		.byte	0x1
 5697 148c 6D03     		.2byte	0x36d
 5698 148e 76000000 		.4byte	0x76
 5699 1492 C8160000 		.4byte	.LLST97
 5700 1496 18       		.uleb128 0x18
 5701 1497 07000000 		.4byte	.LASF111
 5702 149b 01       		.byte	0x1
 5703 149c 6D03     		.2byte	0x36d
 5704 149e C8010000 		.4byte	0x1c8
 5705 14a2 F4160000 		.4byte	.LLST98
 5706 14a6 19       		.uleb128 0x19
 5707 14a7 7000     		.ascii	"p\000"
 5708 14a9 01       		.byte	0x1
 5709 14aa 6F03     		.2byte	0x36f
 5710 14ac 2A030000 		.4byte	0x32a
 5711 14b0 20170000 		.4byte	.LLST99
 5712 14b4 19       		.uleb128 0x19
 5713 14b5 6E00     		.ascii	"n\000"
 5714 14b7 01       		.byte	0x1
 5715 14b8 7003     		.2byte	0x370
 5716 14ba 76000000 		.4byte	0x76
 5717 14be 41170000 		.4byte	.LLST100
 5718 14c2 19       		.uleb128 0x19
 5719 14c3 72657400 		.ascii	"ret\000"
 5720 14c7 01       		.byte	0x1
 5721 14c8 7103     		.2byte	0x371
 5722 14ca 68000000 		.4byte	0x68
 5723 14ce 6D170000 		.4byte	.LLST101
 5724 14d2 1C       		.uleb128 0x1c
 5725 14d3 0C000000 		.4byte	.LVL403
 5726 14d7 AE170000 		.4byte	0x17ae
 5727 14db 1B       		.uleb128 0x1b
 5728 14dc 01       		.uleb128 0x1
 5729 14dd 50       		.byte	0x50
 5730 14de 03       		.uleb128 0x3
 5731 14df F3       		.byte	0xf3
 5732 14e0 01       		.uleb128 0x1
 5733 14e1 50       		.byte	0x50
 5734 14e2 1B       		.uleb128 0x1b
 5735 14e3 01       		.uleb128 0x1
 5736 14e4 51       		.byte	0x51
 5737 14e5 02       		.uleb128 0x2
ARM GAS  C:\Users\Phuong\AppData\Local\Temp\cciPItDa.s 			page 124


 5738 14e6 74       		.byte	0x74
 5739 14e7 00       		.sleb128 0
 5740 14e8 1B       		.uleb128 0x1b
 5741 14e9 01       		.uleb128 0x1
 5742 14ea 52       		.byte	0x52
 5743 14eb 05       		.uleb128 0x5
 5744 14ec 03       		.byte	0x3
 5745 14ed 54000000 		.4byte	.LC26
 5746 14f1 1B       		.uleb128 0x1b
 5747 14f2 01       		.uleb128 0x1
 5748 14f3 53       		.byte	0x53
 5749 14f4 03       		.uleb128 0x3
 5750 14f5 F3       		.byte	0xf3
 5751 14f6 01       		.uleb128 0x1
 5752 14f7 52       		.byte	0x52
 5753 14f8 00       		.byte	0
 5754 14f9 00       		.byte	0
 5755 14fa 28       		.uleb128 0x28
 5756 14fb EC090000 		.4byte	.LASF120
 5757 14ff 01       		.byte	0x1
 5758 1500 D503     		.2byte	0x3d5
 5759 1502 68000000 		.4byte	0x68
 5760 1506 00000000 		.4byte	.LFB29
 5761 150a 04000000 		.4byte	.LFE29-.LFB29
 5762 150e 01       		.uleb128 0x1
 5763 150f 9C       		.byte	0x9c
 5764 1510 24150000 		.4byte	0x1524
 5765 1514 13       		.uleb128 0x13
 5766 1515 746F00   		.ascii	"to\000"
 5767 1518 01       		.byte	0x1
 5768 1519 D503     		.2byte	0x3d5
 5769 151b 3B050000 		.4byte	0x53b
 5770 151f 96170000 		.4byte	.LLST102
 5771 1523 00       		.byte	0
 5772 1524 28       		.uleb128 0x28
 5773 1525 60070000 		.4byte	.LASF121
 5774 1529 01       		.byte	0x1
 5775 152a DB03     		.2byte	0x3db
 5776 152c 68000000 		.4byte	0x68
 5777 1530 00000000 		.4byte	.LFB30
 5778 1534 04000000 		.4byte	.LFE30-.LFB30
 5779 1538 01       		.uleb128 0x1
 5780 1539 9C       		.byte	0x9c
 5781 153a 4F150000 		.4byte	0x154f
 5782 153e 18       		.uleb128 0x18
 5783 153f 0C000000 		.4byte	.LASF122
 5784 1543 01       		.byte	0x1
 5785 1544 DB03     		.2byte	0x3db
 5786 1546 3B050000 		.4byte	0x53b
 5787 154a B7170000 		.4byte	.LLST103
 5788 154e 00       		.byte	0
 5789 154f 28       		.uleb128 0x28
 5790 1550 14090000 		.4byte	.LASF123
 5791 1554 01       		.byte	0x1
 5792 1555 EA03     		.2byte	0x3ea
 5793 1557 68000000 		.4byte	0x68
 5794 155b 00000000 		.4byte	.LFB31
ARM GAS  C:\Users\Phuong\AppData\Local\Temp\cciPItDa.s 			page 125


 5795 155f D8000000 		.4byte	.LFE31-.LFB31
 5796 1563 01       		.uleb128 0x1
 5797 1564 9C       		.byte	0x9c
 5798 1565 F6160000 		.4byte	0x16f6
 5799 1569 18       		.uleb128 0x18
 5800 156a 9E090000 		.4byte	.LASF124
 5801 156e 01       		.byte	0x1
 5802 156f EA03     		.2byte	0x3ea
 5803 1571 68000000 		.4byte	0x68
 5804 1575 D8170000 		.4byte	.LLST104
 5805 1579 19       		.uleb128 0x19
 5806 157a 72657400 		.ascii	"ret\000"
 5807 157e 01       		.byte	0x1
 5808 157f ED03     		.2byte	0x3ed
 5809 1581 68000000 		.4byte	0x68
 5810 1585 04180000 		.4byte	.LLST105
 5811 1589 27       		.uleb128 0x27
 5812 158a 90000000 		.4byte	.LASF125
 5813 158e 01       		.byte	0x1
 5814 158f EE03     		.2byte	0x3ee
 5815 1591 88000000 		.4byte	0x88
 5816 1595 02       		.uleb128 0x2
 5817 1596 91       		.byte	0x91
 5818 1597 6C       		.sleb128 -20
 5819 1598 27       		.uleb128 0x27
 5820 1599 0F050000 		.4byte	.LASF126
 5821 159d 01       		.byte	0x1
 5822 159e EF03     		.2byte	0x3ef
 5823 15a0 97040000 		.4byte	0x497
 5824 15a4 03       		.uleb128 0x3
 5825 15a5 91       		.byte	0x91
 5826 15a6 B87D     		.sleb128 -328
 5827 15a8 27       		.uleb128 0x27
 5828 15a9 EE020000 		.4byte	.LASF127
 5829 15ad 01       		.byte	0x1
 5830 15ae F003     		.2byte	0x3f0
 5831 15b0 97040000 		.4byte	0x497
 5832 15b4 03       		.uleb128 0x3
 5833 15b5 91       		.byte	0x91
 5834 15b6 847B     		.sleb128 -636
 5835 15b8 1A       		.uleb128 0x1a
 5836 15b9 10000000 		.4byte	.LVL416
 5837 15bd E7170000 		.4byte	0x17e7
 5838 15c1 CF150000 		.4byte	0x15cf
 5839 15c5 1B       		.uleb128 0x1b
 5840 15c6 01       		.uleb128 0x1
 5841 15c7 50       		.byte	0x50
 5842 15c8 05       		.uleb128 0x5
 5843 15c9 03       		.byte	0x3
 5844 15ca 60000000 		.4byte	.LC28
 5845 15ce 00       		.byte	0
 5846 15cf 1A       		.uleb128 0x1a
 5847 15d0 16000000 		.4byte	.LVL417
 5848 15d4 F2170000 		.4byte	0x17f2
 5849 15d8 E4150000 		.4byte	0x15e4
 5850 15dc 1B       		.uleb128 0x1b
 5851 15dd 01       		.uleb128 0x1
ARM GAS  C:\Users\Phuong\AppData\Local\Temp\cciPItDa.s 			page 126


 5852 15de 50       		.byte	0x50
 5853 15df 03       		.uleb128 0x3
 5854 15e0 91       		.byte	0x91
 5855 15e1 847B     		.sleb128 -636
 5856 15e3 00       		.byte	0
 5857 15e4 1A       		.uleb128 0x1a
 5858 15e5 24000000 		.4byte	.LVL418
 5859 15e9 FE170000 		.4byte	0x17fe
 5860 15ed F9150000 		.4byte	0x15f9
 5861 15f1 1B       		.uleb128 0x1b
 5862 15f2 01       		.uleb128 0x1
 5863 15f3 50       		.byte	0x50
 5864 15f4 03       		.uleb128 0x3
 5865 15f5 91       		.byte	0x91
 5866 15f6 847B     		.sleb128 -636
 5867 15f8 00       		.byte	0
 5868 15f9 1A       		.uleb128 0x1a
 5869 15fa 32000000 		.4byte	.LVL421
 5870 15fe 09180000 		.4byte	0x1809
 5871 1602 10160000 		.4byte	0x1610
 5872 1606 1B       		.uleb128 0x1b
 5873 1607 01       		.uleb128 0x1
 5874 1608 50       		.byte	0x50
 5875 1609 05       		.uleb128 0x5
 5876 160a 03       		.byte	0x3
 5877 160b 7C000000 		.4byte	.LC32
 5878 160f 00       		.byte	0
 5879 1610 1A       		.uleb128 0x1a
 5880 1611 3C000000 		.4byte	.LVL422
 5881 1615 F2170000 		.4byte	0x17f2
 5882 1619 25160000 		.4byte	0x1625
 5883 161d 1B       		.uleb128 0x1b
 5884 161e 01       		.uleb128 0x1
 5885 161f 50       		.byte	0x50
 5886 1620 03       		.uleb128 0x3
 5887 1621 91       		.byte	0x91
 5888 1622 B87D     		.sleb128 -328
 5889 1624 00       		.byte	0
 5890 1625 1A       		.uleb128 0x1a
 5891 1626 4A000000 		.4byte	.LVL423
 5892 162a FE170000 		.4byte	0x17fe
 5893 162e 3A160000 		.4byte	0x163a
 5894 1632 1B       		.uleb128 0x1b
 5895 1633 01       		.uleb128 0x1
 5896 1634 50       		.byte	0x50
 5897 1635 03       		.uleb128 0x3
 5898 1636 91       		.byte	0x91
 5899 1637 B87D     		.sleb128 -328
 5900 1639 00       		.byte	0
 5901 163a 1A       		.uleb128 0x1a
 5902 163b 58000000 		.4byte	.LVL426
 5903 163f 09180000 		.4byte	0x1809
 5904 1643 51160000 		.4byte	0x1651
 5905 1647 1B       		.uleb128 0x1b
 5906 1648 01       		.uleb128 0x1
 5907 1649 50       		.byte	0x50
 5908 164a 05       		.uleb128 0x5
ARM GAS  C:\Users\Phuong\AppData\Local\Temp\cciPItDa.s 			page 127


 5909 164b 03       		.byte	0x3
 5910 164c 7C000000 		.4byte	.LC32
 5911 1650 00       		.byte	0
 5912 1651 1A       		.uleb128 0x1a
 5913 1652 66000000 		.4byte	.LVL427
 5914 1656 E7170000 		.4byte	0x17e7
 5915 165a 68160000 		.4byte	0x1668
 5916 165e 1B       		.uleb128 0x1b
 5917 165f 01       		.uleb128 0x1
 5918 1660 50       		.byte	0x50
 5919 1661 05       		.uleb128 0x5
 5920 1662 03       		.byte	0x3
 5921 1663 84000000 		.4byte	.LC36
 5922 1667 00       		.byte	0
 5923 1668 1A       		.uleb128 0x1a
 5924 1669 7C000000 		.4byte	.LVL428
 5925 166d 18180000 		.4byte	0x1818
 5926 1671 A1160000 		.4byte	0x16a1
 5927 1675 1B       		.uleb128 0x1b
 5928 1676 01       		.uleb128 0x1
 5929 1677 50       		.byte	0x50
 5930 1678 03       		.uleb128 0x3
 5931 1679 91       		.byte	0x91
 5932 167a 847B     		.sleb128 -636
 5933 167c 1B       		.uleb128 0x1b
 5934 167d 01       		.uleb128 0x1
 5935 167e 51       		.byte	0x51
 5936 167f 03       		.uleb128 0x3
 5937 1680 91       		.byte	0x91
 5938 1681 B87D     		.sleb128 -328
 5939 1683 1B       		.uleb128 0x1b
 5940 1684 01       		.uleb128 0x1
 5941 1685 52       		.byte	0x52
 5942 1686 01       		.uleb128 0x1
 5943 1687 30       		.byte	0x30
 5944 1688 1B       		.uleb128 0x1b
 5945 1689 01       		.uleb128 0x1
 5946 168a 53       		.byte	0x53
 5947 168b 01       		.uleb128 0x1
 5948 168c 30       		.byte	0x30
 5949 168d 1B       		.uleb128 0x1b
 5950 168e 02       		.uleb128 0x2
 5951 168f 7D       		.byte	0x7d
 5952 1690 00       		.sleb128 0
 5953 1691 02       		.uleb128 0x2
 5954 1692 91       		.byte	0x91
 5955 1693 6C       		.sleb128 -20
 5956 1694 1B       		.uleb128 0x1b
 5957 1695 02       		.uleb128 0x2
 5958 1696 7D       		.byte	0x7d
 5959 1697 04       		.sleb128 4
 5960 1698 01       		.uleb128 0x1
 5961 1699 30       		.byte	0x30
 5962 169a 1B       		.uleb128 0x1b
 5963 169b 02       		.uleb128 0x2
 5964 169c 7D       		.byte	0x7d
 5965 169d 08       		.sleb128 8
ARM GAS  C:\Users\Phuong\AppData\Local\Temp\cciPItDa.s 			page 128


 5966 169e 01       		.uleb128 0x1
 5967 169f 30       		.byte	0x30
 5968 16a0 00       		.byte	0
 5969 16a1 1A       		.uleb128 0x1a
 5970 16a2 8A000000 		.4byte	.LVL431
 5971 16a6 09180000 		.4byte	0x1809
 5972 16aa B8160000 		.4byte	0x16b8
 5973 16ae 1B       		.uleb128 0x1b
 5974 16af 01       		.uleb128 0x1
 5975 16b0 50       		.byte	0x50
 5976 16b1 05       		.uleb128 0x5
 5977 16b2 03       		.byte	0x3
 5978 16b3 7C000000 		.4byte	.LC32
 5979 16b7 00       		.byte	0
 5980 16b8 1A       		.uleb128 0x1a
 5981 16b9 98000000 		.4byte	.LVL432
 5982 16bd 09180000 		.4byte	0x1809
 5983 16c1 CF160000 		.4byte	0x16cf
 5984 16c5 1B       		.uleb128 0x1b
 5985 16c6 01       		.uleb128 0x1
 5986 16c7 50       		.byte	0x50
 5987 16c8 05       		.uleb128 0x5
 5988 16c9 03       		.byte	0x3
 5989 16ca A8000000 		.4byte	.LC38
 5990 16ce 00       		.byte	0
 5991 16cf 1A       		.uleb128 0x1a
 5992 16d0 9E000000 		.4byte	.LVL433
 5993 16d4 24180000 		.4byte	0x1824
 5994 16d8 E4160000 		.4byte	0x16e4
 5995 16dc 1B       		.uleb128 0x1b
 5996 16dd 01       		.uleb128 0x1
 5997 16de 50       		.byte	0x50
 5998 16df 03       		.uleb128 0x3
 5999 16e0 91       		.byte	0x91
 6000 16e1 B87D     		.sleb128 -328
 6001 16e3 00       		.byte	0
 6002 16e4 1C       		.uleb128 0x1c
 6003 16e5 A4000000 		.4byte	.LVL434
 6004 16e9 24180000 		.4byte	0x1824
 6005 16ed 1B       		.uleb128 0x1b
 6006 16ee 01       		.uleb128 0x1
 6007 16ef 50       		.byte	0x50
 6008 16f0 03       		.uleb128 0x3
 6009 16f1 91       		.byte	0x91
 6010 16f2 847B     		.sleb128 -636
 6011 16f4 00       		.byte	0
 6012 16f5 00       		.byte	0
 6013 16f6 2E       		.uleb128 0x2e
 6014 16f7 30060000 		.4byte	.LASF128
 6015 16fb 0A       		.byte	0xa
 6016 16fc 2F       		.byte	0x2f
 6017 16fd C8010000 		.4byte	0x1c8
 6018 1701 2E       		.uleb128 0x2e
 6019 1702 410A0000 		.4byte	.LASF129
 6020 1706 0A       		.byte	0xa
 6021 1707 30       		.byte	0x30
 6022 1708 0C170000 		.4byte	0x170c
ARM GAS  C:\Users\Phuong\AppData\Local\Temp\cciPItDa.s 			page 129


 6023 170c 0C       		.uleb128 0xc
 6024 170d 76000000 		.4byte	0x76
 6025 1711 2E       		.uleb128 0x2e
 6026 1712 590A0000 		.4byte	.LASF130
 6027 1716 0A       		.byte	0xa
 6028 1717 39       		.byte	0x39
 6029 1718 C8010000 		.4byte	0x1c8
 6030 171c 2E       		.uleb128 0x2e
 6031 171d E3000000 		.4byte	.LASF131
 6032 1721 0A       		.byte	0xa
 6033 1722 3A       		.byte	0x3a
 6034 1723 0C170000 		.4byte	0x170c
 6035 1727 2F       		.uleb128 0x2f
 6036 1728 A2040000 		.4byte	.LASF132
 6037 172c A2040000 		.4byte	.LASF132
 6038 1730 05       		.byte	0x5
 6039 1731 CB       		.byte	0xcb
 6040 1732 2F       		.uleb128 0x2f
 6041 1733 75050000 		.4byte	.LASF133
 6042 1737 75050000 		.4byte	.LASF133
 6043 173b 05       		.byte	0x5
 6044 173c BB       		.byte	0xbb
 6045 173d 30       		.uleb128 0x30
 6046 173e FE060000 		.4byte	.LASF134
 6047 1742 FE060000 		.4byte	.LASF134
 6048 1746 0B       		.byte	0xb
 6049 1747 1C02     		.2byte	0x21c
 6050 1749 30       		.uleb128 0x30
 6051 174a 53040000 		.4byte	.LASF135
 6052 174e 53040000 		.4byte	.LASF135
 6053 1752 05       		.byte	0x5
 6054 1753 4201     		.2byte	0x142
 6055 1755 30       		.uleb128 0x30
 6056 1756 5A060000 		.4byte	.LASF136
 6057 175a 5A060000 		.4byte	.LASF136
 6058 175e 05       		.byte	0x5
 6059 175f 3201     		.2byte	0x132
 6060 1761 2F       		.uleb128 0x2f
 6061 1762 FF080000 		.4byte	.LASF137
 6062 1766 FF080000 		.4byte	.LASF137
 6063 176a 05       		.byte	0x5
 6064 176b E7       		.byte	0xe7
 6065 176c 2F       		.uleb128 0x2f
 6066 176d E2070000 		.4byte	.LASF138
 6067 1771 E2070000 		.4byte	.LASF138
 6068 1775 0C       		.byte	0xc
 6069 1776 16       		.byte	0x16
 6070 1777 2F       		.uleb128 0x2f
 6071 1778 91010000 		.4byte	.LASF139
 6072 177c 91010000 		.4byte	.LASF139
 6073 1780 0D       		.byte	0xd
 6074 1781 56       		.byte	0x56
 6075 1782 30       		.uleb128 0x30
 6076 1783 C3050000 		.4byte	.LASF140
 6077 1787 C3050000 		.4byte	.LASF140
 6078 178b 05       		.byte	0x5
 6079 178c 0301     		.2byte	0x103
ARM GAS  C:\Users\Phuong\AppData\Local\Temp\cciPItDa.s 			page 130


 6080 178e 2F       		.uleb128 0x2f
 6081 178f C1040000 		.4byte	.LASF141
 6082 1793 C1040000 		.4byte	.LASF141
 6083 1797 0D       		.byte	0xd
 6084 1798 59       		.byte	0x59
 6085 1799 30       		.uleb128 0x30
 6086 179a 060A0000 		.4byte	.LASF142
 6087 179e 060A0000 		.4byte	.LASF142
 6088 17a2 0B       		.byte	0xb
 6089 17a3 FA01     		.2byte	0x1fa
 6090 17a5 31       		.uleb128 0x31
 6091 17a6 8A060000 		.4byte	.LASF156
 6092 17aa 8A060000 		.4byte	.LASF156
 6093 17ae 2F       		.uleb128 0x2f
 6094 17af B9060000 		.4byte	.LASF143
 6095 17b3 B9060000 		.4byte	.LASF143
 6096 17b7 0E       		.byte	0xe
 6097 17b8 FD       		.byte	0xfd
 6098 17b9 30       		.uleb128 0x30
 6099 17ba BB070000 		.4byte	.LASF144
 6100 17be BB070000 		.4byte	.LASF144
 6101 17c2 0B       		.byte	0xb
 6102 17c3 C001     		.2byte	0x1c0
 6103 17c5 2F       		.uleb128 0x2f
 6104 17c6 E5080000 		.4byte	.LASF145
 6105 17ca E5080000 		.4byte	.LASF145
 6106 17ce 06       		.byte	0x6
 6107 17cf 7E       		.byte	0x7e
 6108 17d0 2F       		.uleb128 0x2f
 6109 17d1 75090000 		.4byte	.LASF146
 6110 17d5 75090000 		.4byte	.LASF146
 6111 17d9 06       		.byte	0x6
 6112 17da FF       		.byte	0xff
 6113 17db 30       		.uleb128 0x30
 6114 17dc F1070000 		.4byte	.LASF147
 6115 17e0 F1070000 		.4byte	.LASF147
 6116 17e4 0B       		.byte	0xb
 6117 17e5 0502     		.2byte	0x205
 6118 17e7 2F       		.uleb128 0x2f
 6119 17e8 A8000000 		.4byte	.LASF148
 6120 17ec A8000000 		.4byte	.LASF148
 6121 17f0 0E       		.byte	0xe
 6122 17f1 BB       		.byte	0xbb
 6123 17f2 30       		.uleb128 0x30
 6124 17f3 27080000 		.4byte	.LASF149
 6125 17f7 27080000 		.4byte	.LASF149
 6126 17fb 09       		.byte	0x9
 6127 17fc FB01     		.2byte	0x1fb
 6128 17fe 2F       		.uleb128 0x2f
 6129 17ff 5E050000 		.4byte	.LASF150
 6130 1803 5E050000 		.4byte	.LASF150
 6131 1807 09       		.byte	0x9
 6132 1808 F9       		.byte	0xf9
 6133 1809 32       		.uleb128 0x32
 6134 180a 3B040000 		.4byte	.LASF157
 6135 180e B4050000 		.4byte	.LASF158
 6136 1812 0F       		.byte	0xf
ARM GAS  C:\Users\Phuong\AppData\Local\Temp\cciPItDa.s 			page 131


 6137 1813 00       		.byte	0
 6138 1814 3B040000 		.4byte	.LASF157
 6139 1818 30       		.uleb128 0x30
 6140 1819 34050000 		.4byte	.LASF151
 6141 181d 34050000 		.4byte	.LASF151
 6142 1821 09       		.byte	0x9
 6143 1822 7301     		.2byte	0x173
 6144 1824 30       		.uleb128 0x30
 6145 1825 25040000 		.4byte	.LASF152
 6146 1829 25040000 		.4byte	.LASF152
 6147 182d 09       		.byte	0x9
 6148 182e 0202     		.2byte	0x202
 6149 1830 00       		.byte	0
 6150              		.section	.debug_abbrev,"",%progbits
 6151              	.Ldebug_abbrev0:
 6152 0000 01       		.uleb128 0x1
 6153 0001 11       		.uleb128 0x11
 6154 0002 01       		.byte	0x1
 6155 0003 25       		.uleb128 0x25
 6156 0004 0E       		.uleb128 0xe
 6157 0005 13       		.uleb128 0x13
 6158 0006 0B       		.uleb128 0xb
 6159 0007 03       		.uleb128 0x3
 6160 0008 0E       		.uleb128 0xe
 6161 0009 1B       		.uleb128 0x1b
 6162 000a 0E       		.uleb128 0xe
 6163 000b 55       		.uleb128 0x55
 6164 000c 17       		.uleb128 0x17
 6165 000d 11       		.uleb128 0x11
 6166 000e 01       		.uleb128 0x1
 6167 000f 10       		.uleb128 0x10
 6168 0010 17       		.uleb128 0x17
 6169 0011 00       		.byte	0
 6170 0012 00       		.byte	0
 6171 0013 02       		.uleb128 0x2
 6172 0014 24       		.uleb128 0x24
 6173 0015 00       		.byte	0
 6174 0016 0B       		.uleb128 0xb
 6175 0017 0B       		.uleb128 0xb
 6176 0018 3E       		.uleb128 0x3e
 6177 0019 0B       		.uleb128 0xb
 6178 001a 03       		.uleb128 0x3
 6179 001b 0E       		.uleb128 0xe
 6180 001c 00       		.byte	0
 6181 001d 00       		.byte	0
 6182 001e 03       		.uleb128 0x3
 6183 001f 16       		.uleb128 0x16
 6184 0020 00       		.byte	0
 6185 0021 03       		.uleb128 0x3
 6186 0022 0E       		.uleb128 0xe
 6187 0023 3A       		.uleb128 0x3a
 6188 0024 0B       		.uleb128 0xb
 6189 0025 3B       		.uleb128 0x3b
 6190 0026 0B       		.uleb128 0xb
 6191 0027 49       		.uleb128 0x49
 6192 0028 13       		.uleb128 0x13
 6193 0029 00       		.byte	0
ARM GAS  C:\Users\Phuong\AppData\Local\Temp\cciPItDa.s 			page 132


 6194 002a 00       		.byte	0
 6195 002b 04       		.uleb128 0x4
 6196 002c 24       		.uleb128 0x24
 6197 002d 00       		.byte	0
 6198 002e 0B       		.uleb128 0xb
 6199 002f 0B       		.uleb128 0xb
 6200 0030 3E       		.uleb128 0x3e
 6201 0031 0B       		.uleb128 0xb
 6202 0032 03       		.uleb128 0x3
 6203 0033 08       		.uleb128 0x8
 6204 0034 00       		.byte	0
 6205 0035 00       		.byte	0
 6206 0036 05       		.uleb128 0x5
 6207 0037 13       		.uleb128 0x13
 6208 0038 01       		.byte	0x1
 6209 0039 03       		.uleb128 0x3
 6210 003a 0E       		.uleb128 0xe
 6211 003b 0B       		.uleb128 0xb
 6212 003c 0B       		.uleb128 0xb
 6213 003d 3A       		.uleb128 0x3a
 6214 003e 0B       		.uleb128 0xb
 6215 003f 3B       		.uleb128 0x3b
 6216 0040 0B       		.uleb128 0xb
 6217 0041 01       		.uleb128 0x1
 6218 0042 13       		.uleb128 0x13
 6219 0043 00       		.byte	0
 6220 0044 00       		.byte	0
 6221 0045 06       		.uleb128 0x6
 6222 0046 0D       		.uleb128 0xd
 6223 0047 00       		.byte	0
 6224 0048 03       		.uleb128 0x3
 6225 0049 08       		.uleb128 0x8
 6226 004a 3A       		.uleb128 0x3a
 6227 004b 0B       		.uleb128 0xb
 6228 004c 3B       		.uleb128 0x3b
 6229 004d 0B       		.uleb128 0xb
 6230 004e 49       		.uleb128 0x49
 6231 004f 13       		.uleb128 0x13
 6232 0050 38       		.uleb128 0x38
 6233 0051 0B       		.uleb128 0xb
 6234 0052 00       		.byte	0
 6235 0053 00       		.byte	0
 6236 0054 07       		.uleb128 0x7
 6237 0055 0F       		.uleb128 0xf
 6238 0056 00       		.byte	0
 6239 0057 0B       		.uleb128 0xb
 6240 0058 0B       		.uleb128 0xb
 6241 0059 49       		.uleb128 0x49
 6242 005a 13       		.uleb128 0x13
 6243 005b 00       		.byte	0
 6244 005c 00       		.byte	0
 6245 005d 08       		.uleb128 0x8
 6246 005e 0D       		.uleb128 0xd
 6247 005f 00       		.byte	0
 6248 0060 03       		.uleb128 0x3
 6249 0061 0E       		.uleb128 0xe
 6250 0062 3A       		.uleb128 0x3a
ARM GAS  C:\Users\Phuong\AppData\Local\Temp\cciPItDa.s 			page 133


 6251 0063 0B       		.uleb128 0xb
 6252 0064 3B       		.uleb128 0x3b
 6253 0065 0B       		.uleb128 0xb
 6254 0066 49       		.uleb128 0x49
 6255 0067 13       		.uleb128 0x13
 6256 0068 38       		.uleb128 0x38
 6257 0069 0B       		.uleb128 0xb
 6258 006a 00       		.byte	0
 6259 006b 00       		.byte	0
 6260 006c 09       		.uleb128 0x9
 6261 006d 04       		.uleb128 0x4
 6262 006e 01       		.byte	0x1
 6263 006f 0B       		.uleb128 0xb
 6264 0070 0B       		.uleb128 0xb
 6265 0071 49       		.uleb128 0x49
 6266 0072 13       		.uleb128 0x13
 6267 0073 3A       		.uleb128 0x3a
 6268 0074 0B       		.uleb128 0xb
 6269 0075 3B       		.uleb128 0x3b
 6270 0076 0B       		.uleb128 0xb
 6271 0077 01       		.uleb128 0x1
 6272 0078 13       		.uleb128 0x13
 6273 0079 00       		.byte	0
 6274 007a 00       		.byte	0
 6275 007b 0A       		.uleb128 0xa
 6276 007c 28       		.uleb128 0x28
 6277 007d 00       		.byte	0
 6278 007e 03       		.uleb128 0x3
 6279 007f 0E       		.uleb128 0xe
 6280 0080 1C       		.uleb128 0x1c
 6281 0081 0B       		.uleb128 0xb
 6282 0082 00       		.byte	0
 6283 0083 00       		.byte	0
 6284 0084 0B       		.uleb128 0xb
 6285 0085 13       		.uleb128 0x13
 6286 0086 00       		.byte	0
 6287 0087 03       		.uleb128 0x3
 6288 0088 0E       		.uleb128 0xe
 6289 0089 3C       		.uleb128 0x3c
 6290 008a 19       		.uleb128 0x19
 6291 008b 00       		.byte	0
 6292 008c 00       		.byte	0
 6293 008d 0C       		.uleb128 0xc
 6294 008e 26       		.uleb128 0x26
 6295 008f 00       		.byte	0
 6296 0090 49       		.uleb128 0x49
 6297 0091 13       		.uleb128 0x13
 6298 0092 00       		.byte	0
 6299 0093 00       		.byte	0
 6300 0094 0D       		.uleb128 0xd
 6301 0095 0F       		.uleb128 0xf
 6302 0096 00       		.byte	0
 6303 0097 0B       		.uleb128 0xb
 6304 0098 0B       		.uleb128 0xb
 6305 0099 00       		.byte	0
 6306 009a 00       		.byte	0
 6307 009b 0E       		.uleb128 0xe
ARM GAS  C:\Users\Phuong\AppData\Local\Temp\cciPItDa.s 			page 134


 6308 009c 26       		.uleb128 0x26
 6309 009d 00       		.byte	0
 6310 009e 00       		.byte	0
 6311 009f 00       		.byte	0
 6312 00a0 0F       		.uleb128 0xf
 6313 00a1 13       		.uleb128 0x13
 6314 00a2 01       		.byte	0x1
 6315 00a3 03       		.uleb128 0x3
 6316 00a4 0E       		.uleb128 0xe
 6317 00a5 0B       		.uleb128 0xb
 6318 00a6 05       		.uleb128 0x5
 6319 00a7 3A       		.uleb128 0x3a
 6320 00a8 0B       		.uleb128 0xb
 6321 00a9 3B       		.uleb128 0x3b
 6322 00aa 0B       		.uleb128 0xb
 6323 00ab 01       		.uleb128 0x1
 6324 00ac 13       		.uleb128 0x13
 6325 00ad 00       		.byte	0
 6326 00ae 00       		.byte	0
 6327 00af 10       		.uleb128 0x10
 6328 00b0 0D       		.uleb128 0xd
 6329 00b1 00       		.byte	0
 6330 00b2 03       		.uleb128 0x3
 6331 00b3 0E       		.uleb128 0xe
 6332 00b4 3A       		.uleb128 0x3a
 6333 00b5 0B       		.uleb128 0xb
 6334 00b6 3B       		.uleb128 0x3b
 6335 00b7 0B       		.uleb128 0xb
 6336 00b8 49       		.uleb128 0x49
 6337 00b9 13       		.uleb128 0x13
 6338 00ba 38       		.uleb128 0x38
 6339 00bb 05       		.uleb128 0x5
 6340 00bc 00       		.byte	0
 6341 00bd 00       		.byte	0
 6342 00be 11       		.uleb128 0x11
 6343 00bf 0D       		.uleb128 0xd
 6344 00c0 00       		.byte	0
 6345 00c1 03       		.uleb128 0x3
 6346 00c2 08       		.uleb128 0x8
 6347 00c3 3A       		.uleb128 0x3a
 6348 00c4 0B       		.uleb128 0xb
 6349 00c5 3B       		.uleb128 0x3b
 6350 00c6 0B       		.uleb128 0xb
 6351 00c7 49       		.uleb128 0x49
 6352 00c8 13       		.uleb128 0x13
 6353 00c9 38       		.uleb128 0x38
 6354 00ca 05       		.uleb128 0x5
 6355 00cb 00       		.byte	0
 6356 00cc 00       		.byte	0
 6357 00cd 12       		.uleb128 0x12
 6358 00ce 2E       		.uleb128 0x2e
 6359 00cf 01       		.byte	0x1
 6360 00d0 03       		.uleb128 0x3
 6361 00d1 0E       		.uleb128 0xe
 6362 00d2 3A       		.uleb128 0x3a
 6363 00d3 0B       		.uleb128 0xb
 6364 00d4 3B       		.uleb128 0x3b
ARM GAS  C:\Users\Phuong\AppData\Local\Temp\cciPItDa.s 			page 135


 6365 00d5 05       		.uleb128 0x5
 6366 00d6 27       		.uleb128 0x27
 6367 00d7 19       		.uleb128 0x19
 6368 00d8 49       		.uleb128 0x49
 6369 00d9 13       		.uleb128 0x13
 6370 00da 11       		.uleb128 0x11
 6371 00db 01       		.uleb128 0x1
 6372 00dc 12       		.uleb128 0x12
 6373 00dd 06       		.uleb128 0x6
 6374 00de 40       		.uleb128 0x40
 6375 00df 18       		.uleb128 0x18
 6376 00e0 9742     		.uleb128 0x2117
 6377 00e2 19       		.uleb128 0x19
 6378 00e3 01       		.uleb128 0x1
 6379 00e4 13       		.uleb128 0x13
 6380 00e5 00       		.byte	0
 6381 00e6 00       		.byte	0
 6382 00e7 13       		.uleb128 0x13
 6383 00e8 05       		.uleb128 0x5
 6384 00e9 00       		.byte	0
 6385 00ea 03       		.uleb128 0x3
 6386 00eb 08       		.uleb128 0x8
 6387 00ec 3A       		.uleb128 0x3a
 6388 00ed 0B       		.uleb128 0xb
 6389 00ee 3B       		.uleb128 0x3b
 6390 00ef 05       		.uleb128 0x5
 6391 00f0 49       		.uleb128 0x49
 6392 00f1 13       		.uleb128 0x13
 6393 00f2 02       		.uleb128 0x2
 6394 00f3 17       		.uleb128 0x17
 6395 00f4 00       		.byte	0
 6396 00f5 00       		.byte	0
 6397 00f6 14       		.uleb128 0x14
 6398 00f7 05       		.uleb128 0x5
 6399 00f8 00       		.byte	0
 6400 00f9 03       		.uleb128 0x3
 6401 00fa 08       		.uleb128 0x8
 6402 00fb 3A       		.uleb128 0x3a
 6403 00fc 0B       		.uleb128 0xb
 6404 00fd 3B       		.uleb128 0x3b
 6405 00fe 05       		.uleb128 0x5
 6406 00ff 49       		.uleb128 0x49
 6407 0100 13       		.uleb128 0x13
 6408 0101 02       		.uleb128 0x2
 6409 0102 18       		.uleb128 0x18
 6410 0103 00       		.byte	0
 6411 0104 00       		.byte	0
 6412 0105 15       		.uleb128 0x15
 6413 0106 2E       		.uleb128 0x2e
 6414 0107 01       		.byte	0x1
 6415 0108 03       		.uleb128 0x3
 6416 0109 0E       		.uleb128 0xe
 6417 010a 3A       		.uleb128 0x3a
 6418 010b 0B       		.uleb128 0xb
 6419 010c 3B       		.uleb128 0x3b
 6420 010d 05       		.uleb128 0x5
 6421 010e 27       		.uleb128 0x27
ARM GAS  C:\Users\Phuong\AppData\Local\Temp\cciPItDa.s 			page 136


 6422 010f 19       		.uleb128 0x19
 6423 0110 49       		.uleb128 0x49
 6424 0111 13       		.uleb128 0x13
 6425 0112 11       		.uleb128 0x11
 6426 0113 01       		.uleb128 0x1
 6427 0114 12       		.uleb128 0x12
 6428 0115 06       		.uleb128 0x6
 6429 0116 40       		.uleb128 0x40
 6430 0117 18       		.uleb128 0x18
 6431 0118 9642     		.uleb128 0x2116
 6432 011a 19       		.uleb128 0x19
 6433 011b 01       		.uleb128 0x1
 6434 011c 13       		.uleb128 0x13
 6435 011d 00       		.byte	0
 6436 011e 00       		.byte	0
 6437 011f 16       		.uleb128 0x16
 6438 0120 34       		.uleb128 0x34
 6439 0121 00       		.byte	0
 6440 0122 03       		.uleb128 0x3
 6441 0123 08       		.uleb128 0x8
 6442 0124 3A       		.uleb128 0x3a
 6443 0125 0B       		.uleb128 0xb
 6444 0126 3B       		.uleb128 0x3b
 6445 0127 05       		.uleb128 0x5
 6446 0128 49       		.uleb128 0x49
 6447 0129 13       		.uleb128 0x13
 6448 012a 1C       		.uleb128 0x1c
 6449 012b 0D       		.uleb128 0xd
 6450 012c 00       		.byte	0
 6451 012d 00       		.byte	0
 6452 012e 17       		.uleb128 0x17
 6453 012f 34       		.uleb128 0x34
 6454 0130 00       		.byte	0
 6455 0131 03       		.uleb128 0x3
 6456 0132 0E       		.uleb128 0xe
 6457 0133 3A       		.uleb128 0x3a
 6458 0134 0B       		.uleb128 0xb
 6459 0135 3B       		.uleb128 0x3b
 6460 0136 05       		.uleb128 0x5
 6461 0137 49       		.uleb128 0x49
 6462 0138 13       		.uleb128 0x13
 6463 0139 02       		.uleb128 0x2
 6464 013a 17       		.uleb128 0x17
 6465 013b 00       		.byte	0
 6466 013c 00       		.byte	0
 6467 013d 18       		.uleb128 0x18
 6468 013e 05       		.uleb128 0x5
 6469 013f 00       		.byte	0
 6470 0140 03       		.uleb128 0x3
 6471 0141 0E       		.uleb128 0xe
 6472 0142 3A       		.uleb128 0x3a
 6473 0143 0B       		.uleb128 0xb
 6474 0144 3B       		.uleb128 0x3b
 6475 0145 05       		.uleb128 0x5
 6476 0146 49       		.uleb128 0x49
 6477 0147 13       		.uleb128 0x13
 6478 0148 02       		.uleb128 0x2
ARM GAS  C:\Users\Phuong\AppData\Local\Temp\cciPItDa.s 			page 137


 6479 0149 17       		.uleb128 0x17
 6480 014a 00       		.byte	0
 6481 014b 00       		.byte	0
 6482 014c 19       		.uleb128 0x19
 6483 014d 34       		.uleb128 0x34
 6484 014e 00       		.byte	0
 6485 014f 03       		.uleb128 0x3
 6486 0150 08       		.uleb128 0x8
 6487 0151 3A       		.uleb128 0x3a
 6488 0152 0B       		.uleb128 0xb
 6489 0153 3B       		.uleb128 0x3b
 6490 0154 05       		.uleb128 0x5
 6491 0155 49       		.uleb128 0x49
 6492 0156 13       		.uleb128 0x13
 6493 0157 02       		.uleb128 0x2
 6494 0158 17       		.uleb128 0x17
 6495 0159 00       		.byte	0
 6496 015a 00       		.byte	0
 6497 015b 1A       		.uleb128 0x1a
 6498 015c 898201   		.uleb128 0x4109
 6499 015f 01       		.byte	0x1
 6500 0160 11       		.uleb128 0x11
 6501 0161 01       		.uleb128 0x1
 6502 0162 31       		.uleb128 0x31
 6503 0163 13       		.uleb128 0x13
 6504 0164 01       		.uleb128 0x1
 6505 0165 13       		.uleb128 0x13
 6506 0166 00       		.byte	0
 6507 0167 00       		.byte	0
 6508 0168 1B       		.uleb128 0x1b
 6509 0169 8A8201   		.uleb128 0x410a
 6510 016c 00       		.byte	0
 6511 016d 02       		.uleb128 0x2
 6512 016e 18       		.uleb128 0x18
 6513 016f 9142     		.uleb128 0x2111
 6514 0171 18       		.uleb128 0x18
 6515 0172 00       		.byte	0
 6516 0173 00       		.byte	0
 6517 0174 1C       		.uleb128 0x1c
 6518 0175 898201   		.uleb128 0x4109
 6519 0178 01       		.byte	0x1
 6520 0179 11       		.uleb128 0x11
 6521 017a 01       		.uleb128 0x1
 6522 017b 31       		.uleb128 0x31
 6523 017c 13       		.uleb128 0x13
 6524 017d 00       		.byte	0
 6525 017e 00       		.byte	0
 6526 017f 1D       		.uleb128 0x1d
 6527 0180 34       		.uleb128 0x34
 6528 0181 00       		.byte	0
 6529 0182 03       		.uleb128 0x3
 6530 0183 08       		.uleb128 0x8
 6531 0184 3A       		.uleb128 0x3a
 6532 0185 0B       		.uleb128 0xb
 6533 0186 3B       		.uleb128 0x3b
 6534 0187 05       		.uleb128 0x5
 6535 0188 49       		.uleb128 0x49
ARM GAS  C:\Users\Phuong\AppData\Local\Temp\cciPItDa.s 			page 138


 6536 0189 13       		.uleb128 0x13
 6537 018a 02       		.uleb128 0x2
 6538 018b 18       		.uleb128 0x18
 6539 018c 00       		.byte	0
 6540 018d 00       		.byte	0
 6541 018e 1E       		.uleb128 0x1e
 6542 018f 2E       		.uleb128 0x2e
 6543 0190 01       		.byte	0x1
 6544 0191 03       		.uleb128 0x3
 6545 0192 0E       		.uleb128 0xe
 6546 0193 3A       		.uleb128 0x3a
 6547 0194 0B       		.uleb128 0xb
 6548 0195 3B       		.uleb128 0x3b
 6549 0196 0B       		.uleb128 0xb
 6550 0197 27       		.uleb128 0x27
 6551 0198 19       		.uleb128 0x19
 6552 0199 49       		.uleb128 0x49
 6553 019a 13       		.uleb128 0x13
 6554 019b 11       		.uleb128 0x11
 6555 019c 01       		.uleb128 0x1
 6556 019d 12       		.uleb128 0x12
 6557 019e 06       		.uleb128 0x6
 6558 019f 40       		.uleb128 0x40
 6559 01a0 18       		.uleb128 0x18
 6560 01a1 9742     		.uleb128 0x2117
 6561 01a3 19       		.uleb128 0x19
 6562 01a4 01       		.uleb128 0x1
 6563 01a5 13       		.uleb128 0x13
 6564 01a6 00       		.byte	0
 6565 01a7 00       		.byte	0
 6566 01a8 1F       		.uleb128 0x1f
 6567 01a9 05       		.uleb128 0x5
 6568 01aa 00       		.byte	0
 6569 01ab 03       		.uleb128 0x3
 6570 01ac 08       		.uleb128 0x8
 6571 01ad 3A       		.uleb128 0x3a
 6572 01ae 0B       		.uleb128 0xb
 6573 01af 3B       		.uleb128 0x3b
 6574 01b0 0B       		.uleb128 0xb
 6575 01b1 49       		.uleb128 0x49
 6576 01b2 13       		.uleb128 0x13
 6577 01b3 02       		.uleb128 0x2
 6578 01b4 17       		.uleb128 0x17
 6579 01b5 00       		.byte	0
 6580 01b6 00       		.byte	0
 6581 01b7 20       		.uleb128 0x20
 6582 01b8 05       		.uleb128 0x5
 6583 01b9 00       		.byte	0
 6584 01ba 03       		.uleb128 0x3
 6585 01bb 0E       		.uleb128 0xe
 6586 01bc 3A       		.uleb128 0x3a
 6587 01bd 0B       		.uleb128 0xb
 6588 01be 3B       		.uleb128 0x3b
 6589 01bf 0B       		.uleb128 0xb
 6590 01c0 49       		.uleb128 0x49
 6591 01c1 13       		.uleb128 0x13
 6592 01c2 02       		.uleb128 0x2
ARM GAS  C:\Users\Phuong\AppData\Local\Temp\cciPItDa.s 			page 139


 6593 01c3 17       		.uleb128 0x17
 6594 01c4 00       		.byte	0
 6595 01c5 00       		.byte	0
 6596 01c6 21       		.uleb128 0x21
 6597 01c7 34       		.uleb128 0x34
 6598 01c8 00       		.byte	0
 6599 01c9 03       		.uleb128 0x3
 6600 01ca 08       		.uleb128 0x8
 6601 01cb 3A       		.uleb128 0x3a
 6602 01cc 0B       		.uleb128 0xb
 6603 01cd 3B       		.uleb128 0x3b
 6604 01ce 0B       		.uleb128 0xb
 6605 01cf 49       		.uleb128 0x49
 6606 01d0 13       		.uleb128 0x13
 6607 01d1 02       		.uleb128 0x2
 6608 01d2 17       		.uleb128 0x17
 6609 01d3 00       		.byte	0
 6610 01d4 00       		.byte	0
 6611 01d5 22       		.uleb128 0x22
 6612 01d6 34       		.uleb128 0x34
 6613 01d7 00       		.byte	0
 6614 01d8 03       		.uleb128 0x3
 6615 01d9 08       		.uleb128 0x8
 6616 01da 3A       		.uleb128 0x3a
 6617 01db 0B       		.uleb128 0xb
 6618 01dc 3B       		.uleb128 0x3b
 6619 01dd 0B       		.uleb128 0xb
 6620 01de 49       		.uleb128 0x49
 6621 01df 13       		.uleb128 0x13
 6622 01e0 02       		.uleb128 0x2
 6623 01e1 18       		.uleb128 0x18
 6624 01e2 00       		.byte	0
 6625 01e3 00       		.byte	0
 6626 01e4 23       		.uleb128 0x23
 6627 01e5 34       		.uleb128 0x34
 6628 01e6 00       		.byte	0
 6629 01e7 03       		.uleb128 0x3
 6630 01e8 0E       		.uleb128 0xe
 6631 01e9 3A       		.uleb128 0x3a
 6632 01ea 0B       		.uleb128 0xb
 6633 01eb 3B       		.uleb128 0x3b
 6634 01ec 0B       		.uleb128 0xb
 6635 01ed 49       		.uleb128 0x49
 6636 01ee 13       		.uleb128 0x13
 6637 01ef 02       		.uleb128 0x2
 6638 01f0 18       		.uleb128 0x18
 6639 01f1 00       		.byte	0
 6640 01f2 00       		.byte	0
 6641 01f3 24       		.uleb128 0x24
 6642 01f4 2E       		.uleb128 0x2e
 6643 01f5 01       		.byte	0x1
 6644 01f6 3F       		.uleb128 0x3f
 6645 01f7 19       		.uleb128 0x19
 6646 01f8 03       		.uleb128 0x3
 6647 01f9 0E       		.uleb128 0xe
 6648 01fa 3A       		.uleb128 0x3a
 6649 01fb 0B       		.uleb128 0xb
ARM GAS  C:\Users\Phuong\AppData\Local\Temp\cciPItDa.s 			page 140


 6650 01fc 3B       		.uleb128 0x3b
 6651 01fd 0B       		.uleb128 0xb
 6652 01fe 27       		.uleb128 0x27
 6653 01ff 19       		.uleb128 0x19
 6654 0200 49       		.uleb128 0x49
 6655 0201 13       		.uleb128 0x13
 6656 0202 11       		.uleb128 0x11
 6657 0203 01       		.uleb128 0x1
 6658 0204 12       		.uleb128 0x12
 6659 0205 06       		.uleb128 0x6
 6660 0206 40       		.uleb128 0x40
 6661 0207 18       		.uleb128 0x18
 6662 0208 9742     		.uleb128 0x2117
 6663 020a 19       		.uleb128 0x19
 6664 020b 01       		.uleb128 0x1
 6665 020c 13       		.uleb128 0x13
 6666 020d 00       		.byte	0
 6667 020e 00       		.byte	0
 6668 020f 25       		.uleb128 0x25
 6669 0210 34       		.uleb128 0x34
 6670 0211 00       		.byte	0
 6671 0212 03       		.uleb128 0x3
 6672 0213 0E       		.uleb128 0xe
 6673 0214 3A       		.uleb128 0x3a
 6674 0215 0B       		.uleb128 0xb
 6675 0216 3B       		.uleb128 0x3b
 6676 0217 0B       		.uleb128 0xb
 6677 0218 49       		.uleb128 0x49
 6678 0219 13       		.uleb128 0x13
 6679 021a 02       		.uleb128 0x2
 6680 021b 17       		.uleb128 0x17
 6681 021c 00       		.byte	0
 6682 021d 00       		.byte	0
 6683 021e 26       		.uleb128 0x26
 6684 021f 0B       		.uleb128 0xb
 6685 0220 01       		.byte	0x1
 6686 0221 11       		.uleb128 0x11
 6687 0222 01       		.uleb128 0x1
 6688 0223 12       		.uleb128 0x12
 6689 0224 06       		.uleb128 0x6
 6690 0225 01       		.uleb128 0x1
 6691 0226 13       		.uleb128 0x13
 6692 0227 00       		.byte	0
 6693 0228 00       		.byte	0
 6694 0229 27       		.uleb128 0x27
 6695 022a 34       		.uleb128 0x34
 6696 022b 00       		.byte	0
 6697 022c 03       		.uleb128 0x3
 6698 022d 0E       		.uleb128 0xe
 6699 022e 3A       		.uleb128 0x3a
 6700 022f 0B       		.uleb128 0xb
 6701 0230 3B       		.uleb128 0x3b
 6702 0231 05       		.uleb128 0x5
 6703 0232 49       		.uleb128 0x49
 6704 0233 13       		.uleb128 0x13
 6705 0234 02       		.uleb128 0x2
 6706 0235 18       		.uleb128 0x18
ARM GAS  C:\Users\Phuong\AppData\Local\Temp\cciPItDa.s 			page 141


 6707 0236 00       		.byte	0
 6708 0237 00       		.byte	0
 6709 0238 28       		.uleb128 0x28
 6710 0239 2E       		.uleb128 0x2e
 6711 023a 01       		.byte	0x1
 6712 023b 3F       		.uleb128 0x3f
 6713 023c 19       		.uleb128 0x19
 6714 023d 03       		.uleb128 0x3
 6715 023e 0E       		.uleb128 0xe
 6716 023f 3A       		.uleb128 0x3a
 6717 0240 0B       		.uleb128 0xb
 6718 0241 3B       		.uleb128 0x3b
 6719 0242 05       		.uleb128 0x5
 6720 0243 27       		.uleb128 0x27
 6721 0244 19       		.uleb128 0x19
 6722 0245 49       		.uleb128 0x49
 6723 0246 13       		.uleb128 0x13
 6724 0247 11       		.uleb128 0x11
 6725 0248 01       		.uleb128 0x1
 6726 0249 12       		.uleb128 0x12
 6727 024a 06       		.uleb128 0x6
 6728 024b 40       		.uleb128 0x40
 6729 024c 18       		.uleb128 0x18
 6730 024d 9742     		.uleb128 0x2117
 6731 024f 19       		.uleb128 0x19
 6732 0250 01       		.uleb128 0x1
 6733 0251 13       		.uleb128 0x13
 6734 0252 00       		.byte	0
 6735 0253 00       		.byte	0
 6736 0254 29       		.uleb128 0x29
 6737 0255 05       		.uleb128 0x5
 6738 0256 00       		.byte	0
 6739 0257 03       		.uleb128 0x3
 6740 0258 0E       		.uleb128 0xe
 6741 0259 3A       		.uleb128 0x3a
 6742 025a 0B       		.uleb128 0xb
 6743 025b 3B       		.uleb128 0x3b
 6744 025c 05       		.uleb128 0x5
 6745 025d 49       		.uleb128 0x49
 6746 025e 13       		.uleb128 0x13
 6747 025f 02       		.uleb128 0x2
 6748 0260 18       		.uleb128 0x18
 6749 0261 00       		.byte	0
 6750 0262 00       		.byte	0
 6751 0263 2A       		.uleb128 0x2a
 6752 0264 0B       		.uleb128 0xb
 6753 0265 01       		.byte	0x1
 6754 0266 55       		.uleb128 0x55
 6755 0267 17       		.uleb128 0x17
 6756 0268 01       		.uleb128 0x1
 6757 0269 13       		.uleb128 0x13
 6758 026a 00       		.byte	0
 6759 026b 00       		.byte	0
 6760 026c 2B       		.uleb128 0x2b
 6761 026d 01       		.uleb128 0x1
 6762 026e 01       		.byte	0x1
 6763 026f 49       		.uleb128 0x49
ARM GAS  C:\Users\Phuong\AppData\Local\Temp\cciPItDa.s 			page 142


 6764 0270 13       		.uleb128 0x13
 6765 0271 01       		.uleb128 0x1
 6766 0272 13       		.uleb128 0x13
 6767 0273 00       		.byte	0
 6768 0274 00       		.byte	0
 6769 0275 2C       		.uleb128 0x2c
 6770 0276 21       		.uleb128 0x21
 6771 0277 00       		.byte	0
 6772 0278 49       		.uleb128 0x49
 6773 0279 13       		.uleb128 0x13
 6774 027a 2F       		.uleb128 0x2f
 6775 027b 0B       		.uleb128 0xb
 6776 027c 00       		.byte	0
 6777 027d 00       		.byte	0
 6778 027e 2D       		.uleb128 0x2d
 6779 027f 898201   		.uleb128 0x4109
 6780 0282 00       		.byte	0
 6781 0283 11       		.uleb128 0x11
 6782 0284 01       		.uleb128 0x1
 6783 0285 31       		.uleb128 0x31
 6784 0286 13       		.uleb128 0x13
 6785 0287 00       		.byte	0
 6786 0288 00       		.byte	0
 6787 0289 2E       		.uleb128 0x2e
 6788 028a 34       		.uleb128 0x34
 6789 028b 00       		.byte	0
 6790 028c 03       		.uleb128 0x3
 6791 028d 0E       		.uleb128 0xe
 6792 028e 3A       		.uleb128 0x3a
 6793 028f 0B       		.uleb128 0xb
 6794 0290 3B       		.uleb128 0x3b
 6795 0291 0B       		.uleb128 0xb
 6796 0292 49       		.uleb128 0x49
 6797 0293 13       		.uleb128 0x13
 6798 0294 3F       		.uleb128 0x3f
 6799 0295 19       		.uleb128 0x19
 6800 0296 3C       		.uleb128 0x3c
 6801 0297 19       		.uleb128 0x19
 6802 0298 00       		.byte	0
 6803 0299 00       		.byte	0
 6804 029a 2F       		.uleb128 0x2f
 6805 029b 2E       		.uleb128 0x2e
 6806 029c 00       		.byte	0
 6807 029d 3F       		.uleb128 0x3f
 6808 029e 19       		.uleb128 0x19
 6809 029f 3C       		.uleb128 0x3c
 6810 02a0 19       		.uleb128 0x19
 6811 02a1 6E       		.uleb128 0x6e
 6812 02a2 0E       		.uleb128 0xe
 6813 02a3 03       		.uleb128 0x3
 6814 02a4 0E       		.uleb128 0xe
 6815 02a5 3A       		.uleb128 0x3a
 6816 02a6 0B       		.uleb128 0xb
 6817 02a7 3B       		.uleb128 0x3b
 6818 02a8 0B       		.uleb128 0xb
 6819 02a9 00       		.byte	0
 6820 02aa 00       		.byte	0
ARM GAS  C:\Users\Phuong\AppData\Local\Temp\cciPItDa.s 			page 143


 6821 02ab 30       		.uleb128 0x30
 6822 02ac 2E       		.uleb128 0x2e
 6823 02ad 00       		.byte	0
 6824 02ae 3F       		.uleb128 0x3f
 6825 02af 19       		.uleb128 0x19
 6826 02b0 3C       		.uleb128 0x3c
 6827 02b1 19       		.uleb128 0x19
 6828 02b2 6E       		.uleb128 0x6e
 6829 02b3 0E       		.uleb128 0xe
 6830 02b4 03       		.uleb128 0x3
 6831 02b5 0E       		.uleb128 0xe
 6832 02b6 3A       		.uleb128 0x3a
 6833 02b7 0B       		.uleb128 0xb
 6834 02b8 3B       		.uleb128 0x3b
 6835 02b9 05       		.uleb128 0x5
 6836 02ba 00       		.byte	0
 6837 02bb 00       		.byte	0
 6838 02bc 31       		.uleb128 0x31
 6839 02bd 2E       		.uleb128 0x2e
 6840 02be 00       		.byte	0
 6841 02bf 3F       		.uleb128 0x3f
 6842 02c0 19       		.uleb128 0x19
 6843 02c1 3C       		.uleb128 0x3c
 6844 02c2 19       		.uleb128 0x19
 6845 02c3 6E       		.uleb128 0x6e
 6846 02c4 0E       		.uleb128 0xe
 6847 02c5 03       		.uleb128 0x3
 6848 02c6 0E       		.uleb128 0xe
 6849 02c7 00       		.byte	0
 6850 02c8 00       		.byte	0
 6851 02c9 32       		.uleb128 0x32
 6852 02ca 2E       		.uleb128 0x2e
 6853 02cb 00       		.byte	0
 6854 02cc 3F       		.uleb128 0x3f
 6855 02cd 19       		.uleb128 0x19
 6856 02ce 3C       		.uleb128 0x3c
 6857 02cf 19       		.uleb128 0x19
 6858 02d0 6E       		.uleb128 0x6e
 6859 02d1 0E       		.uleb128 0xe
 6860 02d2 03       		.uleb128 0x3
 6861 02d3 0E       		.uleb128 0xe
 6862 02d4 3A       		.uleb128 0x3a
 6863 02d5 0B       		.uleb128 0xb
 6864 02d6 3B       		.uleb128 0x3b
 6865 02d7 0B       		.uleb128 0xb
 6866 02d8 6E       		.uleb128 0x6e
 6867 02d9 0E       		.uleb128 0xe
 6868 02da 00       		.byte	0
 6869 02db 00       		.byte	0
 6870 02dc 00       		.byte	0
 6871              		.section	.debug_loc,"",%progbits
 6872              	.Ldebug_loc0:
 6873              	.LLST0:
 6874 0000 00000000 		.4byte	.LVL0
 6875 0004 38000000 		.4byte	.LVL2
 6876 0008 0100     		.2byte	0x1
 6877 000a 50       		.byte	0x50
ARM GAS  C:\Users\Phuong\AppData\Local\Temp\cciPItDa.s 			page 144


 6878 000b 38000000 		.4byte	.LVL2
 6879 000f 3A000000 		.4byte	.LVL3
 6880 0013 0400     		.2byte	0x4
 6881 0015 F3       		.byte	0xf3
 6882 0016 01       		.uleb128 0x1
 6883 0017 50       		.byte	0x50
 6884 0018 9F       		.byte	0x9f
 6885 0019 3A000000 		.4byte	.LVL3
 6886 001d 3C000000 		.4byte	.LVL4
 6887 0021 0100     		.2byte	0x1
 6888 0023 50       		.byte	0x50
 6889 0024 3C000000 		.4byte	.LVL4
 6890 0028 44000000 		.4byte	.LFE18
 6891 002c 0400     		.2byte	0x4
 6892 002e F3       		.byte	0xf3
 6893 002f 01       		.uleb128 0x1
 6894 0030 50       		.byte	0x50
 6895 0031 9F       		.byte	0x9f
 6896 0032 00000000 		.4byte	0
 6897 0036 00000000 		.4byte	0
 6898              	.LLST1:
 6899 003a 00000000 		.4byte	.LVL0
 6900 003e 32000000 		.4byte	.LVL1
 6901 0042 0100     		.2byte	0x1
 6902 0044 51       		.byte	0x51
 6903 0045 32000000 		.4byte	.LVL1
 6904 0049 44000000 		.4byte	.LFE18
 6905 004d 0100     		.2byte	0x1
 6906 004f 51       		.byte	0x51
 6907 0050 00000000 		.4byte	0
 6908 0054 00000000 		.4byte	0
 6909              	.LLST2:
 6910 0058 00000000 		.4byte	.LVL5
 6911 005c 38000000 		.4byte	.LVL7
 6912 0060 0100     		.2byte	0x1
 6913 0062 50       		.byte	0x50
 6914 0063 38000000 		.4byte	.LVL7
 6915 0067 52000000 		.4byte	.LVL10
 6916 006b 0100     		.2byte	0x1
 6917 006d 54       		.byte	0x54
 6918 006e 52000000 		.4byte	.LVL10
 6919 0072 56000000 		.4byte	.LVL11
 6920 0076 0100     		.2byte	0x1
 6921 0078 50       		.byte	0x50
 6922 0079 56000000 		.4byte	.LVL11
 6923 007d 6A000000 		.4byte	.LVL13
 6924 0081 0100     		.2byte	0x1
 6925 0083 54       		.byte	0x54
 6926 0084 6A000000 		.4byte	.LVL13
 6927 0088 6C000000 		.4byte	.LVL14
 6928 008c 0100     		.2byte	0x1
 6929 008e 50       		.byte	0x50
 6930 008f 6C000000 		.4byte	.LVL14
 6931 0093 6E000000 		.4byte	.LVL15
 6932 0097 0100     		.2byte	0x1
 6933 0099 54       		.byte	0x54
 6934 009a 6E000000 		.4byte	.LVL15
ARM GAS  C:\Users\Phuong\AppData\Local\Temp\cciPItDa.s 			page 145


 6935 009e 70000000 		.4byte	.LVL16
 6936 00a2 0100     		.2byte	0x1
 6937 00a4 50       		.byte	0x50
 6938 00a5 70000000 		.4byte	.LVL16
 6939 00a9 72000000 		.4byte	.LVL17
 6940 00ad 0100     		.2byte	0x1
 6941 00af 54       		.byte	0x54
 6942 00b0 72000000 		.4byte	.LVL17
 6943 00b4 74000000 		.4byte	.LVL18
 6944 00b8 0100     		.2byte	0x1
 6945 00ba 50       		.byte	0x50
 6946 00bb 74000000 		.4byte	.LVL18
 6947 00bf 76000000 		.4byte	.LVL19
 6948 00c3 0100     		.2byte	0x1
 6949 00c5 54       		.byte	0x54
 6950 00c6 76000000 		.4byte	.LVL19
 6951 00ca 78000000 		.4byte	.LVL20
 6952 00ce 0100     		.2byte	0x1
 6953 00d0 50       		.byte	0x50
 6954 00d1 78000000 		.4byte	.LVL20
 6955 00d5 7A000000 		.4byte	.LVL21
 6956 00d9 0100     		.2byte	0x1
 6957 00db 54       		.byte	0x54
 6958 00dc 7A000000 		.4byte	.LVL21
 6959 00e0 7C000000 		.4byte	.LVL22
 6960 00e4 0100     		.2byte	0x1
 6961 00e6 50       		.byte	0x50
 6962 00e7 7C000000 		.4byte	.LVL22
 6963 00eb 84000000 		.4byte	.LVL25
 6964 00ef 0100     		.2byte	0x1
 6965 00f1 54       		.byte	0x54
 6966 00f2 84000000 		.4byte	.LVL25
 6967 00f6 94000000 		.4byte	.LFE19
 6968 00fa 0400     		.2byte	0x4
 6969 00fc F3       		.byte	0xf3
 6970 00fd 01       		.uleb128 0x1
 6971 00fe 50       		.byte	0x50
 6972 00ff 9F       		.byte	0x9f
 6973 0100 00000000 		.4byte	0
 6974 0104 00000000 		.4byte	0
 6975              	.LLST3:
 6976 0108 5C000000 		.4byte	.LVL12
 6977 010c 6A000000 		.4byte	.LVL13
 6978 0110 0100     		.2byte	0x1
 6979 0112 52       		.byte	0x52
 6980 0113 7E000000 		.4byte	.LVL23
 6981 0117 84000000 		.4byte	.LVL24
 6982 011b 0100     		.2byte	0x1
 6983 011d 52       		.byte	0x52
 6984 011e 00000000 		.4byte	0
 6985 0122 00000000 		.4byte	0
 6986              	.LLST4:
 6987 0126 00000000 		.4byte	.LVL26
 6988 012a 1F000000 		.4byte	.LVL30-1
 6989 012e 0100     		.2byte	0x1
 6990 0130 50       		.byte	0x50
 6991 0131 1F000000 		.4byte	.LVL30-1
ARM GAS  C:\Users\Phuong\AppData\Local\Temp\cciPItDa.s 			page 146


 6992 0135 B8000000 		.4byte	.LVL47
 6993 0139 0200     		.2byte	0x2
 6994 013b 91       		.byte	0x91
 6995 013c 64       		.sleb128 -28
 6996 013d B8000000 		.4byte	.LVL47
 6997 0141 BA000000 		.4byte	.LVL48
 6998 0145 0100     		.2byte	0x1
 6999 0147 50       		.byte	0x50
 7000 0148 BA000000 		.4byte	.LVL48
 7001 014c D0000000 		.4byte	.LFE20
 7002 0150 0200     		.2byte	0x2
 7003 0152 91       		.byte	0x91
 7004 0153 64       		.sleb128 -28
 7005 0154 00000000 		.4byte	0
 7006 0158 00000000 		.4byte	0
 7007              	.LLST5:
 7008 015c 00000000 		.4byte	.LVL26
 7009 0160 18000000 		.4byte	.LVL28
 7010 0164 0100     		.2byte	0x1
 7011 0166 51       		.byte	0x51
 7012 0167 18000000 		.4byte	.LVL28
 7013 016b 94000000 		.4byte	.LVL42
 7014 016f 0100     		.2byte	0x1
 7015 0171 57       		.byte	0x57
 7016 0172 94000000 		.4byte	.LVL42
 7017 0176 A6000000 		.4byte	.LVL43
 7018 017a 0100     		.2byte	0x1
 7019 017c 53       		.byte	0x53
 7020 017d A6000000 		.4byte	.LVL43
 7021 0181 AC000000 		.4byte	.LVL44
 7022 0185 0300     		.2byte	0x3
 7023 0187 75       		.byte	0x75
 7024 0188 76       		.sleb128 -10
 7025 0189 9F       		.byte	0x9f
 7026 018a AC000000 		.4byte	.LVL44
 7027 018e B5000000 		.4byte	.LVL46-1
 7028 0192 0100     		.2byte	0x1
 7029 0194 53       		.byte	0x53
 7030 0195 B8000000 		.4byte	.LVL47
 7031 0199 BC000000 		.4byte	.LVL49
 7032 019d 0100     		.2byte	0x1
 7033 019f 51       		.byte	0x51
 7034 01a0 BC000000 		.4byte	.LVL49
 7035 01a4 C0000000 		.4byte	.LVL51
 7036 01a8 0100     		.2byte	0x1
 7037 01aa 57       		.byte	0x57
 7038 01ab C0000000 		.4byte	.LVL51
 7039 01af C2000000 		.4byte	.LVL52
 7040 01b3 0100     		.2byte	0x1
 7041 01b5 53       		.byte	0x53
 7042 01b6 00000000 		.4byte	0
 7043 01ba 00000000 		.4byte	0
 7044              	.LLST6:
 7045 01be 00000000 		.4byte	.LVL26
 7046 01c2 1A000000 		.4byte	.LVL29
 7047 01c6 0100     		.2byte	0x1
 7048 01c8 52       		.byte	0x52
ARM GAS  C:\Users\Phuong\AppData\Local\Temp\cciPItDa.s 			page 147


 7049 01c9 1A000000 		.4byte	.LVL29
 7050 01cd 72000000 		.4byte	.LVL37
 7051 01d1 0100     		.2byte	0x1
 7052 01d3 54       		.byte	0x54
 7053 01d4 72000000 		.4byte	.LVL37
 7054 01d8 B8000000 		.4byte	.LVL47
 7055 01dc 0400     		.2byte	0x4
 7056 01de F3       		.byte	0xf3
 7057 01df 01       		.uleb128 0x1
 7058 01e0 52       		.byte	0x52
 7059 01e1 9F       		.byte	0x9f
 7060 01e2 B8000000 		.4byte	.LVL47
 7061 01e6 BC000000 		.4byte	.LVL49
 7062 01ea 0100     		.2byte	0x1
 7063 01ec 52       		.byte	0x52
 7064 01ed BC000000 		.4byte	.LVL49
 7065 01f1 D0000000 		.4byte	.LFE20
 7066 01f5 0400     		.2byte	0x4
 7067 01f7 F3       		.byte	0xf3
 7068 01f8 01       		.uleb128 0x1
 7069 01f9 52       		.byte	0x52
 7070 01fa 9F       		.byte	0x9f
 7071 01fb 00000000 		.4byte	0
 7072 01ff 00000000 		.4byte	0
 7073              	.LLST7:
 7074 0203 00000000 		.4byte	.LVL26
 7075 0207 0C000000 		.4byte	.LVL27
 7076 020b 0100     		.2byte	0x1
 7077 020d 53       		.byte	0x53
 7078 020e 0C000000 		.4byte	.LVL27
 7079 0212 C4000000 		.4byte	.LVL53
 7080 0216 0100     		.2byte	0x1
 7081 0218 56       		.byte	0x56
 7082 0219 C4000000 		.4byte	.LVL53
 7083 021d D0000000 		.4byte	.LFE20
 7084 0221 0400     		.2byte	0x4
 7085 0223 F3       		.byte	0xf3
 7086 0224 01       		.uleb128 0x1
 7087 0225 53       		.byte	0x53
 7088 0226 9F       		.byte	0x9f
 7089 0227 00000000 		.4byte	0
 7090 022b 00000000 		.4byte	0
 7091              	.LLST8:
 7092 022f 20000000 		.4byte	.LVL30
 7093 0233 42000000 		.4byte	.LVL31
 7094 0237 0100     		.2byte	0x1
 7095 0239 50       		.byte	0x50
 7096 023a 46000000 		.4byte	.LVL32
 7097 023e 52000000 		.4byte	.LVL33
 7098 0242 0100     		.2byte	0x1
 7099 0244 50       		.byte	0x50
 7100 0245 56000000 		.4byte	.LVL34
 7101 0249 62000000 		.4byte	.LVL35
 7102 024d 0100     		.2byte	0x1
 7103 024f 50       		.byte	0x50
 7104 0250 66000000 		.4byte	.LVL36
 7105 0254 74000000 		.4byte	.LVL38
ARM GAS  C:\Users\Phuong\AppData\Local\Temp\cciPItDa.s 			page 148


 7106 0258 0100     		.2byte	0x1
 7107 025a 50       		.byte	0x50
 7108 025b 78000000 		.4byte	.LVL39
 7109 025f 88000000 		.4byte	.LVL40
 7110 0263 0100     		.2byte	0x1
 7111 0265 50       		.byte	0x50
 7112 0266 8C000000 		.4byte	.LVL41
 7113 026a B2000000 		.4byte	.LVL45
 7114 026e 0100     		.2byte	0x1
 7115 0270 50       		.byte	0x50
 7116 0271 B6000000 		.4byte	.LVL46
 7117 0275 B8000000 		.4byte	.LVL47
 7118 0279 0100     		.2byte	0x1
 7119 027b 50       		.byte	0x50
 7120 027c BC000000 		.4byte	.LVL49
 7121 0280 BE000000 		.4byte	.LVL50
 7122 0284 0100     		.2byte	0x1
 7123 0286 50       		.byte	0x50
 7124 0287 C0000000 		.4byte	.LVL51
 7125 028b C2000000 		.4byte	.LVL52
 7126 028f 0100     		.2byte	0x1
 7127 0291 50       		.byte	0x50
 7128 0292 00000000 		.4byte	0
 7129 0296 00000000 		.4byte	0
 7130              	.LLST9:
 7131 029a 00000000 		.4byte	.LVL54
 7132 029e 11000000 		.4byte	.LVL56-1
 7133 02a2 0100     		.2byte	0x1
 7134 02a4 50       		.byte	0x50
 7135 02a5 11000000 		.4byte	.LVL56-1
 7136 02a9 B6000000 		.4byte	.LVL76
 7137 02ad 0100     		.2byte	0x1
 7138 02af 54       		.byte	0x54
 7139 02b0 B6000000 		.4byte	.LVL76
 7140 02b4 C4000000 		.4byte	.LFE16
 7141 02b8 0400     		.2byte	0x4
 7142 02ba F3       		.byte	0xf3
 7143 02bb 01       		.uleb128 0x1
 7144 02bc 50       		.byte	0x50
 7145 02bd 9F       		.byte	0x9f
 7146 02be 00000000 		.4byte	0
 7147 02c2 00000000 		.4byte	0
 7148              	.LLST10:
 7149 02c6 00000000 		.4byte	.LVL54
 7150 02ca 11000000 		.4byte	.LVL56-1
 7151 02ce 0100     		.2byte	0x1
 7152 02d0 51       		.byte	0x51
 7153 02d1 11000000 		.4byte	.LVL56-1
 7154 02d5 B6000000 		.4byte	.LVL77
 7155 02d9 0100     		.2byte	0x1
 7156 02db 55       		.byte	0x55
 7157 02dc B6000000 		.4byte	.LVL77
 7158 02e0 C4000000 		.4byte	.LFE16
 7159 02e4 0400     		.2byte	0x4
 7160 02e6 F3       		.byte	0xf3
 7161 02e7 01       		.uleb128 0x1
 7162 02e8 51       		.byte	0x51
ARM GAS  C:\Users\Phuong\AppData\Local\Temp\cciPItDa.s 			page 149


 7163 02e9 9F       		.byte	0x9f
 7164 02ea 00000000 		.4byte	0
 7165 02ee 00000000 		.4byte	0
 7166              	.LLST11:
 7167 02f2 00000000 		.4byte	.LVL54
 7168 02f6 0E000000 		.4byte	.LVL55
 7169 02fa 0100     		.2byte	0x1
 7170 02fc 52       		.byte	0x52
 7171 02fd 0E000000 		.4byte	.LVL55
 7172 0301 B6000000 		.4byte	.LVL78
 7173 0305 0100     		.2byte	0x1
 7174 0307 56       		.byte	0x56
 7175 0308 B6000000 		.4byte	.LVL78
 7176 030c C4000000 		.4byte	.LFE16
 7177 0310 0400     		.2byte	0x4
 7178 0312 F3       		.byte	0xf3
 7179 0313 01       		.uleb128 0x1
 7180 0314 52       		.byte	0x52
 7181 0315 9F       		.byte	0x9f
 7182 0316 00000000 		.4byte	0
 7183 031a 00000000 		.4byte	0
 7184              	.LLST12:
 7185 031e 12000000 		.4byte	.LVL56
 7186 0322 1C000000 		.4byte	.LVL57
 7187 0326 0100     		.2byte	0x1
 7188 0328 50       		.byte	0x50
 7189 0329 1C000000 		.4byte	.LVL57
 7190 032d 1E000000 		.4byte	.LVL58
 7191 0331 0500     		.2byte	0x5
 7192 0333 70       		.byte	0x70
 7193 0334 80C700   		.sleb128 9088
 7194 0337 9F       		.byte	0x9f
 7195 0338 1E000000 		.4byte	.LVL58
 7196 033c 32000000 		.4byte	.LVL60
 7197 0340 0100     		.2byte	0x1
 7198 0342 50       		.byte	0x50
 7199 0343 36000000 		.4byte	.LVL61
 7200 0347 40000000 		.4byte	.LVL62
 7201 034b 0100     		.2byte	0x1
 7202 034d 50       		.byte	0x50
 7203 034e 40000000 		.4byte	.LVL62
 7204 0352 42000000 		.4byte	.LVL63
 7205 0356 0500     		.2byte	0x5
 7206 0358 70       		.byte	0x70
 7207 0359 80C700   		.sleb128 9088
 7208 035c 9F       		.byte	0x9f
 7209 035d 42000000 		.4byte	.LVL63
 7210 0361 84000000 		.4byte	.LVL65
 7211 0365 0100     		.2byte	0x1
 7212 0367 50       		.byte	0x50
 7213 0368 88000000 		.4byte	.LVL66
 7214 036c 92000000 		.4byte	.LVL67
 7215 0370 0100     		.2byte	0x1
 7216 0372 50       		.byte	0x50
 7217 0373 92000000 		.4byte	.LVL67
 7218 0377 94000000 		.4byte	.LVL68
 7219 037b 0500     		.2byte	0x5
ARM GAS  C:\Users\Phuong\AppData\Local\Temp\cciPItDa.s 			page 150


 7220 037d 70       		.byte	0x70
 7221 037e 80C700   		.sleb128 9088
 7222 0381 9F       		.byte	0x9f
 7223 0382 94000000 		.4byte	.LVL68
 7224 0386 A8000000 		.4byte	.LVL69
 7225 038a 0100     		.2byte	0x1
 7226 038c 50       		.byte	0x50
 7227 038d AA000000 		.4byte	.LVL70
 7228 0391 AC000000 		.4byte	.LVL71
 7229 0395 0100     		.2byte	0x1
 7230 0397 50       		.byte	0x50
 7231 0398 AE000000 		.4byte	.LVL72
 7232 039c B0000000 		.4byte	.LVL73
 7233 03a0 0100     		.2byte	0x1
 7234 03a2 50       		.byte	0x50
 7235 03a3 B2000000 		.4byte	.LVL74
 7236 03a7 B4000000 		.4byte	.LVL75
 7237 03ab 0100     		.2byte	0x1
 7238 03ad 50       		.byte	0x50
 7239 03ae 00000000 		.4byte	0
 7240 03b2 00000000 		.4byte	0
 7241              	.LLST13:
 7242 03b6 26000000 		.4byte	.LVL59
 7243 03ba AA000000 		.4byte	.LVL70
 7244 03be 0100     		.2byte	0x1
 7245 03c0 56       		.byte	0x56
 7246 03c1 AE000000 		.4byte	.LVL72
 7247 03c5 B4000000 		.4byte	.LVL75
 7248 03c9 0100     		.2byte	0x1
 7249 03cb 56       		.byte	0x56
 7250 03cc 00000000 		.4byte	0
 7251 03d0 00000000 		.4byte	0
 7252              	.LLST14:
 7253 03d4 74000000 		.4byte	.LVL64
 7254 03d8 AA000000 		.4byte	.LVL70
 7255 03dc 0300     		.2byte	0x3
 7256 03de 76       		.byte	0x76
 7257 03df 0C       		.sleb128 12
 7258 03e0 9F       		.byte	0x9f
 7259 03e1 00000000 		.4byte	0
 7260 03e5 00000000 		.4byte	0
 7261              	.LLST15:
 7262 03e9 00000000 		.4byte	.LVL79
 7263 03ed 24000000 		.4byte	.LVL82
 7264 03f1 0100     		.2byte	0x1
 7265 03f3 50       		.byte	0x50
 7266 03f4 24000000 		.4byte	.LVL82
 7267 03f8 84000000 		.4byte	.LVL95
 7268 03fc 0400     		.2byte	0x4
 7269 03fe F3       		.byte	0xf3
 7270 03ff 01       		.uleb128 0x1
 7271 0400 50       		.byte	0x50
 7272 0401 9F       		.byte	0x9f
 7273 0402 84000000 		.4byte	.LVL95
 7274 0406 86000000 		.4byte	.LVL96
 7275 040a 0100     		.2byte	0x1
 7276 040c 50       		.byte	0x50
ARM GAS  C:\Users\Phuong\AppData\Local\Temp\cciPItDa.s 			page 151


 7277 040d 86000000 		.4byte	.LVL96
 7278 0411 88000000 		.4byte	.LVL97
 7279 0415 0400     		.2byte	0x4
 7280 0417 F3       		.byte	0xf3
 7281 0418 01       		.uleb128 0x1
 7282 0419 50       		.byte	0x50
 7283 041a 9F       		.byte	0x9f
 7284 041b 88000000 		.4byte	.LVL97
 7285 041f 8A000000 		.4byte	.LVL98
 7286 0423 0100     		.2byte	0x1
 7287 0425 50       		.byte	0x50
 7288 0426 8A000000 		.4byte	.LVL98
 7289 042a A8000000 		.4byte	.LFE14
 7290 042e 0400     		.2byte	0x4
 7291 0430 F3       		.byte	0xf3
 7292 0431 01       		.uleb128 0x1
 7293 0432 50       		.byte	0x50
 7294 0433 9F       		.byte	0x9f
 7295 0434 00000000 		.4byte	0
 7296 0438 00000000 		.4byte	0
 7297              	.LLST16:
 7298 043c 00000000 		.4byte	.LVL79
 7299 0440 22000000 		.4byte	.LVL81
 7300 0444 0100     		.2byte	0x1
 7301 0446 51       		.byte	0x51
 7302 0447 22000000 		.4byte	.LVL81
 7303 044b 84000000 		.4byte	.LVL95
 7304 044f 0100     		.2byte	0x1
 7305 0451 55       		.byte	0x55
 7306 0452 84000000 		.4byte	.LVL95
 7307 0456 8C000000 		.4byte	.LVL99
 7308 045a 0100     		.2byte	0x1
 7309 045c 51       		.byte	0x51
 7310 045d 8C000000 		.4byte	.LVL99
 7311 0461 94000000 		.4byte	.LVL103
 7312 0465 0100     		.2byte	0x1
 7313 0467 55       		.byte	0x55
 7314 0468 94000000 		.4byte	.LVL103
 7315 046c A8000000 		.4byte	.LFE14
 7316 0470 0400     		.2byte	0x4
 7317 0472 F3       		.byte	0xf3
 7318 0473 01       		.uleb128 0x1
 7319 0474 51       		.byte	0x51
 7320 0475 9F       		.byte	0x9f
 7321 0476 00000000 		.4byte	0
 7322 047a 00000000 		.4byte	0
 7323              	.LLST17:
 7324 047e 28000000 		.4byte	.LVL83
 7325 0482 32000000 		.4byte	.LVL84
 7326 0486 0100     		.2byte	0x1
 7327 0488 50       		.byte	0x50
 7328 0489 32000000 		.4byte	.LVL84
 7329 048d 34000000 		.4byte	.LVL85
 7330 0491 0500     		.2byte	0x5
 7331 0493 70       		.byte	0x70
 7332 0494 80C600   		.sleb128 8960
 7333 0497 9F       		.byte	0x9f
ARM GAS  C:\Users\Phuong\AppData\Local\Temp\cciPItDa.s 			page 152


 7334 0498 34000000 		.4byte	.LVL85
 7335 049c 46000000 		.4byte	.LVL86
 7336 04a0 0100     		.2byte	0x1
 7337 04a2 50       		.byte	0x50
 7338 04a3 4A000000 		.4byte	.LVL87
 7339 04a7 54000000 		.4byte	.LVL88
 7340 04ab 0100     		.2byte	0x1
 7341 04ad 50       		.byte	0x50
 7342 04ae 54000000 		.4byte	.LVL88
 7343 04b2 56000000 		.4byte	.LVL89
 7344 04b6 0500     		.2byte	0x5
 7345 04b8 70       		.byte	0x70
 7346 04b9 80C600   		.sleb128 8960
 7347 04bc 9F       		.byte	0x9f
 7348 04bd 56000000 		.4byte	.LVL89
 7349 04c1 64000000 		.4byte	.LVL90
 7350 04c5 0100     		.2byte	0x1
 7351 04c7 50       		.byte	0x50
 7352 04c8 68000000 		.4byte	.LVL91
 7353 04cc 78000000 		.4byte	.LVL92
 7354 04d0 0100     		.2byte	0x1
 7355 04d2 50       		.byte	0x50
 7356 04d3 78000000 		.4byte	.LVL92
 7357 04d7 7A000000 		.4byte	.LVL93
 7358 04db 0500     		.2byte	0x5
 7359 04dd 70       		.byte	0x70
 7360 04de 80C600   		.sleb128 8960
 7361 04e1 9F       		.byte	0x9f
 7362 04e2 7A000000 		.4byte	.LVL93
 7363 04e6 82000000 		.4byte	.LVL94
 7364 04ea 0100     		.2byte	0x1
 7365 04ec 50       		.byte	0x50
 7366 04ed 8C000000 		.4byte	.LVL99
 7367 04f1 8E000000 		.4byte	.LVL100
 7368 04f5 0100     		.2byte	0x1
 7369 04f7 50       		.byte	0x50
 7370 04f8 90000000 		.4byte	.LVL101
 7371 04fc 92000000 		.4byte	.LVL102
 7372 0500 0100     		.2byte	0x1
 7373 0502 50       		.byte	0x50
 7374 0503 00000000 		.4byte	0
 7375 0507 00000000 		.4byte	0
 7376              	.LLST18:
 7377 050b 14000000 		.4byte	.LVL80
 7378 050f 84000000 		.4byte	.LVL95
 7379 0513 0100     		.2byte	0x1
 7380 0515 54       		.byte	0x54
 7381 0516 88000000 		.4byte	.LVL97
 7382 051a 92000000 		.4byte	.LVL102
 7383 051e 0100     		.2byte	0x1
 7384 0520 54       		.byte	0x54
 7385 0521 00000000 		.4byte	0
 7386 0525 00000000 		.4byte	0
 7387              	.LLST19:
 7388 0529 00000000 		.4byte	.LVL104
 7389 052d 24000000 		.4byte	.LVL106
 7390 0531 0100     		.2byte	0x1
ARM GAS  C:\Users\Phuong\AppData\Local\Temp\cciPItDa.s 			page 153


 7391 0533 50       		.byte	0x50
 7392 0534 24000000 		.4byte	.LVL106
 7393 0538 46000000 		.4byte	.LVL111
 7394 053c 0100     		.2byte	0x1
 7395 053e 54       		.byte	0x54
 7396 053f 46000000 		.4byte	.LVL111
 7397 0543 48000000 		.4byte	.LVL112
 7398 0547 0100     		.2byte	0x1
 7399 0549 50       		.byte	0x50
 7400 054a 48000000 		.4byte	.LVL112
 7401 054e 4A000000 		.4byte	.LVL113
 7402 0552 0100     		.2byte	0x1
 7403 0554 54       		.byte	0x54
 7404 0555 4A000000 		.4byte	.LVL113
 7405 0559 4C000000 		.4byte	.LVL114
 7406 055d 0100     		.2byte	0x1
 7407 055f 50       		.byte	0x50
 7408 0560 4C000000 		.4byte	.LVL114
 7409 0564 4C000000 		.4byte	.LVL115
 7410 0568 0100     		.2byte	0x1
 7411 056a 54       		.byte	0x54
 7412 056b 4C000000 		.4byte	.LVL115
 7413 056f 5C000000 		.4byte	.LFE11
 7414 0573 0400     		.2byte	0x4
 7415 0575 F3       		.byte	0xf3
 7416 0576 01       		.uleb128 0x1
 7417 0577 50       		.byte	0x50
 7418 0578 9F       		.byte	0x9f
 7419 0579 00000000 		.4byte	0
 7420 057d 00000000 		.4byte	0
 7421              	.LLST20:
 7422 0581 00000000 		.4byte	.LVL104
 7423 0585 27000000 		.4byte	.LVL107-1
 7424 0589 0100     		.2byte	0x1
 7425 058b 51       		.byte	0x51
 7426 058c 27000000 		.4byte	.LVL107-1
 7427 0590 46000000 		.4byte	.LVL111
 7428 0594 0400     		.2byte	0x4
 7429 0596 F3       		.byte	0xf3
 7430 0597 01       		.uleb128 0x1
 7431 0598 51       		.byte	0x51
 7432 0599 9F       		.byte	0x9f
 7433 059a 46000000 		.4byte	.LVL111
 7434 059e 4C000000 		.4byte	.LVL114
 7435 05a2 0100     		.2byte	0x1
 7436 05a4 51       		.byte	0x51
 7437 05a5 4C000000 		.4byte	.LVL114
 7438 05a9 5C000000 		.4byte	.LFE11
 7439 05ad 0400     		.2byte	0x4
 7440 05af F3       		.byte	0xf3
 7441 05b0 01       		.uleb128 0x1
 7442 05b1 51       		.byte	0x51
 7443 05b2 9F       		.byte	0x9f
 7444 05b3 00000000 		.4byte	0
 7445 05b7 00000000 		.4byte	0
 7446              	.LLST21:
 7447 05bb 00000000 		.4byte	.LVL104
ARM GAS  C:\Users\Phuong\AppData\Local\Temp\cciPItDa.s 			page 154


 7448 05bf 0A000000 		.4byte	.LVL105
 7449 05c3 0100     		.2byte	0x1
 7450 05c5 52       		.byte	0x52
 7451 05c6 0A000000 		.4byte	.LVL105
 7452 05ca 4C000000 		.4byte	.LVL116
 7453 05ce 0100     		.2byte	0x1
 7454 05d0 55       		.byte	0x55
 7455 05d1 4C000000 		.4byte	.LVL116
 7456 05d5 5C000000 		.4byte	.LFE11
 7457 05d9 0400     		.2byte	0x4
 7458 05db F3       		.byte	0xf3
 7459 05dc 01       		.uleb128 0x1
 7460 05dd 52       		.byte	0x52
 7461 05de 9F       		.byte	0x9f
 7462 05df 00000000 		.4byte	0
 7463 05e3 00000000 		.4byte	0
 7464              	.LLST22:
 7465 05e7 28000000 		.4byte	.LVL107
 7466 05eb 32000000 		.4byte	.LVL108
 7467 05ef 0100     		.2byte	0x1
 7468 05f1 50       		.byte	0x50
 7469 05f2 32000000 		.4byte	.LVL108
 7470 05f6 34000000 		.4byte	.LVL109
 7471 05fa 0500     		.2byte	0x5
 7472 05fc 70       		.byte	0x70
 7473 05fd 80C500   		.sleb128 8832
 7474 0600 9F       		.byte	0x9f
 7475 0601 34000000 		.4byte	.LVL109
 7476 0605 44000000 		.4byte	.LVL110
 7477 0609 0100     		.2byte	0x1
 7478 060b 50       		.byte	0x50
 7479 060c 00000000 		.4byte	0
 7480 0610 00000000 		.4byte	0
 7481              	.LLST23:
 7482 0614 00000000 		.4byte	.LVL117
 7483 0618 05000000 		.4byte	.LVL118-1
 7484 061c 0100     		.2byte	0x1
 7485 061e 50       		.byte	0x50
 7486 061f 05000000 		.4byte	.LVL118-1
 7487 0623 1C000000 		.4byte	.LFE12
 7488 0627 0400     		.2byte	0x4
 7489 0629 F3       		.byte	0xf3
 7490 062a 01       		.uleb128 0x1
 7491 062b 50       		.byte	0x50
 7492 062c 9F       		.byte	0x9f
 7493 062d 00000000 		.4byte	0
 7494 0631 00000000 		.4byte	0
 7495              	.LLST24:
 7496 0635 00000000 		.4byte	.LVL117
 7497 0639 05000000 		.4byte	.LVL118-1
 7498 063d 0100     		.2byte	0x1
 7499 063f 51       		.byte	0x51
 7500 0640 05000000 		.4byte	.LVL118-1
 7501 0644 1C000000 		.4byte	.LFE12
 7502 0648 0400     		.2byte	0x4
 7503 064a F3       		.byte	0xf3
 7504 064b 01       		.uleb128 0x1
ARM GAS  C:\Users\Phuong\AppData\Local\Temp\cciPItDa.s 			page 155


 7505 064c 51       		.byte	0x51
 7506 064d 9F       		.byte	0x9f
 7507 064e 00000000 		.4byte	0
 7508 0652 00000000 		.4byte	0
 7509              	.LLST25:
 7510 0656 00000000 		.4byte	.LVL117
 7511 065a 05000000 		.4byte	.LVL118-1
 7512 065e 0100     		.2byte	0x1
 7513 0660 52       		.byte	0x52
 7514 0661 05000000 		.4byte	.LVL118-1
 7515 0665 1C000000 		.4byte	.LFE12
 7516 0669 0400     		.2byte	0x4
 7517 066b F3       		.byte	0xf3
 7518 066c 01       		.uleb128 0x1
 7519 066d 52       		.byte	0x52
 7520 066e 9F       		.byte	0x9f
 7521 066f 00000000 		.4byte	0
 7522 0673 00000000 		.4byte	0
 7523              	.LLST26:
 7524 0677 06000000 		.4byte	.LVL118
 7525 067b 10000000 		.4byte	.LVL119
 7526 067f 0100     		.2byte	0x1
 7527 0681 50       		.byte	0x50
 7528 0682 10000000 		.4byte	.LVL119
 7529 0686 12000000 		.4byte	.LVL120
 7530 068a 0500     		.2byte	0x5
 7531 068c 70       		.byte	0x70
 7532 068d 80C600   		.sleb128 8960
 7533 0690 9F       		.byte	0x9f
 7534 0691 12000000 		.4byte	.LVL120
 7535 0695 14000000 		.4byte	.LVL121
 7536 0699 0100     		.2byte	0x1
 7537 069b 50       		.byte	0x50
 7538 069c 00000000 		.4byte	0
 7539 06a0 00000000 		.4byte	0
 7540              	.LLST27:
 7541 06a4 00000000 		.4byte	.LVL122
 7542 06a8 05000000 		.4byte	.LVL123-1
 7543 06ac 0100     		.2byte	0x1
 7544 06ae 50       		.byte	0x50
 7545 06af 05000000 		.4byte	.LVL123-1
 7546 06b3 1C000000 		.4byte	.LFE13
 7547 06b7 0400     		.2byte	0x4
 7548 06b9 F3       		.byte	0xf3
 7549 06ba 01       		.uleb128 0x1
 7550 06bb 50       		.byte	0x50
 7551 06bc 9F       		.byte	0x9f
 7552 06bd 00000000 		.4byte	0
 7553 06c1 00000000 		.4byte	0
 7554              	.LLST28:
 7555 06c5 00000000 		.4byte	.LVL122
 7556 06c9 05000000 		.4byte	.LVL123-1
 7557 06cd 0100     		.2byte	0x1
 7558 06cf 51       		.byte	0x51
 7559 06d0 05000000 		.4byte	.LVL123-1
 7560 06d4 1C000000 		.4byte	.LFE13
 7561 06d8 0400     		.2byte	0x4
ARM GAS  C:\Users\Phuong\AppData\Local\Temp\cciPItDa.s 			page 156


 7562 06da F3       		.byte	0xf3
 7563 06db 01       		.uleb128 0x1
 7564 06dc 51       		.byte	0x51
 7565 06dd 9F       		.byte	0x9f
 7566 06de 00000000 		.4byte	0
 7567 06e2 00000000 		.4byte	0
 7568              	.LLST29:
 7569 06e6 00000000 		.4byte	.LVL122
 7570 06ea 05000000 		.4byte	.LVL123-1
 7571 06ee 0100     		.2byte	0x1
 7572 06f0 52       		.byte	0x52
 7573 06f1 05000000 		.4byte	.LVL123-1
 7574 06f5 1C000000 		.4byte	.LFE13
 7575 06f9 0400     		.2byte	0x4
 7576 06fb F3       		.byte	0xf3
 7577 06fc 01       		.uleb128 0x1
 7578 06fd 52       		.byte	0x52
 7579 06fe 9F       		.byte	0x9f
 7580 06ff 00000000 		.4byte	0
 7581 0703 00000000 		.4byte	0
 7582              	.LLST30:
 7583 0707 00000000 		.4byte	.LVL122
 7584 070b 05000000 		.4byte	.LVL123-1
 7585 070f 0100     		.2byte	0x1
 7586 0711 53       		.byte	0x53
 7587 0712 05000000 		.4byte	.LVL123-1
 7588 0716 1C000000 		.4byte	.LFE13
 7589 071a 0400     		.2byte	0x4
 7590 071c F3       		.byte	0xf3
 7591 071d 01       		.uleb128 0x1
 7592 071e 53       		.byte	0x53
 7593 071f 9F       		.byte	0x9f
 7594 0720 00000000 		.4byte	0
 7595 0724 00000000 		.4byte	0
 7596              	.LLST31:
 7597 0728 06000000 		.4byte	.LVL123
 7598 072c 10000000 		.4byte	.LVL124
 7599 0730 0100     		.2byte	0x1
 7600 0732 50       		.byte	0x50
 7601 0733 10000000 		.4byte	.LVL124
 7602 0737 12000000 		.4byte	.LVL125
 7603 073b 0500     		.2byte	0x5
 7604 073d 70       		.byte	0x70
 7605 073e 80C600   		.sleb128 8960
 7606 0741 9F       		.byte	0x9f
 7607 0742 12000000 		.4byte	.LVL125
 7608 0746 14000000 		.4byte	.LVL126
 7609 074a 0100     		.2byte	0x1
 7610 074c 50       		.byte	0x50
 7611 074d 00000000 		.4byte	0
 7612 0751 00000000 		.4byte	0
 7613              	.LLST32:
 7614 0755 00000000 		.4byte	.LVL127
 7615 0759 36000000 		.4byte	.LVL132
 7616 075d 0100     		.2byte	0x1
 7617 075f 50       		.byte	0x50
 7618 0760 36000000 		.4byte	.LVL132
ARM GAS  C:\Users\Phuong\AppData\Local\Temp\cciPItDa.s 			page 157


 7619 0764 A4010000 		.4byte	.LVL182
 7620 0768 0400     		.2byte	0x4
 7621 076a F3       		.byte	0xf3
 7622 076b 01       		.uleb128 0x1
 7623 076c 50       		.byte	0x50
 7624 076d 9F       		.byte	0x9f
 7625 076e A4010000 		.4byte	.LVL182
 7626 0772 A6010000 		.4byte	.LVL183
 7627 0776 0100     		.2byte	0x1
 7628 0778 50       		.byte	0x50
 7629 0779 A6010000 		.4byte	.LVL183
 7630 077d A8010000 		.4byte	.LVL184
 7631 0781 0400     		.2byte	0x4
 7632 0783 F3       		.byte	0xf3
 7633 0784 01       		.uleb128 0x1
 7634 0785 50       		.byte	0x50
 7635 0786 9F       		.byte	0x9f
 7636 0787 A8010000 		.4byte	.LVL184
 7637 078b AA010000 		.4byte	.LVL185
 7638 078f 0100     		.2byte	0x1
 7639 0791 50       		.byte	0x50
 7640 0792 AA010000 		.4byte	.LVL185
 7641 0796 E8010000 		.4byte	.LFE15
 7642 079a 0400     		.2byte	0x4
 7643 079c F3       		.byte	0xf3
 7644 079d 01       		.uleb128 0x1
 7645 079e 50       		.byte	0x50
 7646 079f 9F       		.byte	0x9f
 7647 07a0 00000000 		.4byte	0
 7648 07a4 00000000 		.4byte	0
 7649              	.LLST33:
 7650 07a8 00000000 		.4byte	.LVL127
 7651 07ac 34000000 		.4byte	.LVL131
 7652 07b0 0100     		.2byte	0x1
 7653 07b2 51       		.byte	0x51
 7654 07b3 34000000 		.4byte	.LVL131
 7655 07b7 A4000000 		.4byte	.LVL146
 7656 07bb 0100     		.2byte	0x1
 7657 07bd 57       		.byte	0x57
 7658 07be A4000000 		.4byte	.LVL146
 7659 07c2 E6000000 		.4byte	.LVL155
 7660 07c6 0400     		.2byte	0x4
 7661 07c8 F3       		.byte	0xf3
 7662 07c9 01       		.uleb128 0x1
 7663 07ca 51       		.byte	0x51
 7664 07cb 9F       		.byte	0x9f
 7665 07cc E6000000 		.4byte	.LVL155
 7666 07d0 F4000000 		.4byte	.LVL157
 7667 07d4 0100     		.2byte	0x1
 7668 07d6 57       		.byte	0x57
 7669 07d7 F4000000 		.4byte	.LVL157
 7670 07db A4010000 		.4byte	.LVL182
 7671 07df 0400     		.2byte	0x4
 7672 07e1 F3       		.byte	0xf3
 7673 07e2 01       		.uleb128 0x1
 7674 07e3 51       		.byte	0x51
 7675 07e4 9F       		.byte	0x9f
ARM GAS  C:\Users\Phuong\AppData\Local\Temp\cciPItDa.s 			page 158


 7676 07e5 A4010000 		.4byte	.LVL182
 7677 07e9 AC010000 		.4byte	.LVL186
 7678 07ed 0100     		.2byte	0x1
 7679 07ef 51       		.byte	0x51
 7680 07f0 AC010000 		.4byte	.LVL186
 7681 07f4 B4010000 		.4byte	.LVL190
 7682 07f8 0100     		.2byte	0x1
 7683 07fa 57       		.byte	0x57
 7684 07fb B4010000 		.4byte	.LVL190
 7685 07ff E8010000 		.4byte	.LFE15
 7686 0803 0400     		.2byte	0x4
 7687 0805 F3       		.byte	0xf3
 7688 0806 01       		.uleb128 0x1
 7689 0807 51       		.byte	0x51
 7690 0808 9F       		.byte	0x9f
 7691 0809 00000000 		.4byte	0
 7692 080d 00000000 		.4byte	0
 7693              	.LLST34:
 7694 0811 00000000 		.4byte	.LVL127
 7695 0815 32000000 		.4byte	.LVL130
 7696 0819 0100     		.2byte	0x1
 7697 081b 52       		.byte	0x52
 7698 081c 32000000 		.4byte	.LVL130
 7699 0820 14010000 		.4byte	.LVL160
 7700 0824 0100     		.2byte	0x1
 7701 0826 56       		.byte	0x56
 7702 0827 14010000 		.4byte	.LVL160
 7703 082b 32010000 		.4byte	.LVL165
 7704 082f 0400     		.2byte	0x4
 7705 0831 F3       		.byte	0xf3
 7706 0832 01       		.uleb128 0x1
 7707 0833 52       		.byte	0x52
 7708 0834 9F       		.byte	0x9f
 7709 0835 32010000 		.4byte	.LVL165
 7710 0839 40010000 		.4byte	.LVL167
 7711 083d 0100     		.2byte	0x1
 7712 083f 56       		.byte	0x56
 7713 0840 40010000 		.4byte	.LVL167
 7714 0844 A4010000 		.4byte	.LVL182
 7715 0848 0400     		.2byte	0x4
 7716 084a F3       		.byte	0xf3
 7717 084b 01       		.uleb128 0x1
 7718 084c 52       		.byte	0x52
 7719 084d 9F       		.byte	0x9f
 7720 084e A4010000 		.4byte	.LVL182
 7721 0852 AC010000 		.4byte	.LVL186
 7722 0856 0100     		.2byte	0x1
 7723 0858 52       		.byte	0x52
 7724 0859 AC010000 		.4byte	.LVL186
 7725 085d C0010000 		.4byte	.LVL195
 7726 0861 0100     		.2byte	0x1
 7727 0863 56       		.byte	0x56
 7728 0864 C0010000 		.4byte	.LVL195
 7729 0868 E8010000 		.4byte	.LFE15
 7730 086c 0400     		.2byte	0x4
 7731 086e F3       		.byte	0xf3
 7732 086f 01       		.uleb128 0x1
ARM GAS  C:\Users\Phuong\AppData\Local\Temp\cciPItDa.s 			page 159


 7733 0870 52       		.byte	0x52
 7734 0871 9F       		.byte	0x9f
 7735 0872 00000000 		.4byte	0
 7736 0876 00000000 		.4byte	0
 7737              	.LLST35:
 7738 087a 00000000 		.4byte	.LVL127
 7739 087e 10000000 		.4byte	.LVL128
 7740 0882 0100     		.2byte	0x1
 7741 0884 53       		.byte	0x53
 7742 0885 10000000 		.4byte	.LVL128
 7743 0889 60010000 		.4byte	.LVL170
 7744 088d 0100     		.2byte	0x1
 7745 088f 55       		.byte	0x55
 7746 0890 60010000 		.4byte	.LVL170
 7747 0894 8C010000 		.4byte	.LVL178
 7748 0898 0400     		.2byte	0x4
 7749 089a F3       		.byte	0xf3
 7750 089b 01       		.uleb128 0x1
 7751 089c 53       		.byte	0x53
 7752 089d 9F       		.byte	0x9f
 7753 089e 8C010000 		.4byte	.LVL178
 7754 08a2 9A010000 		.4byte	.LVL180
 7755 08a6 0100     		.2byte	0x1
 7756 08a8 55       		.byte	0x55
 7757 08a9 9A010000 		.4byte	.LVL180
 7758 08ad A4010000 		.4byte	.LVL182
 7759 08b1 0400     		.2byte	0x4
 7760 08b3 F3       		.byte	0xf3
 7761 08b4 01       		.uleb128 0x1
 7762 08b5 53       		.byte	0x53
 7763 08b6 9F       		.byte	0x9f
 7764 08b7 A4010000 		.4byte	.LVL182
 7765 08bb C8010000 		.4byte	.LVL199
 7766 08bf 0100     		.2byte	0x1
 7767 08c1 55       		.byte	0x55
 7768 08c2 C8010000 		.4byte	.LVL199
 7769 08c6 E8010000 		.4byte	.LFE15
 7770 08ca 0400     		.2byte	0x4
 7771 08cc F3       		.byte	0xf3
 7772 08cd 01       		.uleb128 0x1
 7773 08ce 53       		.byte	0x53
 7774 08cf 9F       		.byte	0x9f
 7775 08d0 00000000 		.4byte	0
 7776 08d4 00000000 		.4byte	0
 7777              	.LLST36:
 7778 08d8 3A000000 		.4byte	.LVL133
 7779 08dc 4E000000 		.4byte	.LVL135
 7780 08e0 0100     		.2byte	0x1
 7781 08e2 50       		.byte	0x50
 7782 08e3 52000000 		.4byte	.LVL136
 7783 08e7 5C000000 		.4byte	.LVL137
 7784 08eb 0100     		.2byte	0x1
 7785 08ed 50       		.byte	0x50
 7786 08ee 60000000 		.4byte	.LVL138
 7787 08f2 6A000000 		.4byte	.LVL139
 7788 08f6 0100     		.2byte	0x1
 7789 08f8 50       		.byte	0x50
ARM GAS  C:\Users\Phuong\AppData\Local\Temp\cciPItDa.s 			page 160


 7790 08f9 6A000000 		.4byte	.LVL139
 7791 08fd 6C000000 		.4byte	.LVL140
 7792 0901 0500     		.2byte	0x5
 7793 0903 70       		.byte	0x70
 7794 0904 80C600   		.sleb128 8960
 7795 0907 9F       		.byte	0x9f
 7796 0908 6C000000 		.4byte	.LVL140
 7797 090c 80000000 		.4byte	.LVL142
 7798 0910 0100     		.2byte	0x1
 7799 0912 50       		.byte	0x50
 7800 0913 80000000 		.4byte	.LVL142
 7801 0917 82000000 		.4byte	.LVL143
 7802 091b 0500     		.2byte	0x5
 7803 091d 70       		.byte	0x70
 7804 091e 80C600   		.sleb128 8960
 7805 0921 9F       		.byte	0x9f
 7806 0922 82000000 		.4byte	.LVL143
 7807 0926 92000000 		.4byte	.LVL144
 7808 092a 0100     		.2byte	0x1
 7809 092c 50       		.byte	0x50
 7810 092d 96000000 		.4byte	.LVL145
 7811 0931 AC000000 		.4byte	.LVL148
 7812 0935 0100     		.2byte	0x1
 7813 0937 50       		.byte	0x50
 7814 0938 B0000000 		.4byte	.LVL149
 7815 093c C0000000 		.4byte	.LVL150
 7816 0940 0100     		.2byte	0x1
 7817 0942 50       		.byte	0x50
 7818 0943 CC000000 		.4byte	.LVL152
 7819 0947 CE000000 		.4byte	.LVL153
 7820 094b 0100     		.2byte	0x1
 7821 094d 50       		.byte	0x50
 7822 094e DA000000 		.4byte	.LVL154
 7823 0952 F2000000 		.4byte	.LVL156
 7824 0956 0100     		.2byte	0x1
 7825 0958 50       		.byte	0x50
 7826 0959 F2000000 		.4byte	.LVL156
 7827 095d F4000000 		.4byte	.LVL157
 7828 0961 0500     		.2byte	0x5
 7829 0963 70       		.byte	0x70
 7830 0964 80C600   		.sleb128 8960
 7831 0967 9F       		.byte	0x9f
 7832 0968 F4000000 		.4byte	.LVL157
 7833 096c 02010000 		.4byte	.LVL158
 7834 0970 0100     		.2byte	0x1
 7835 0972 50       		.byte	0x50
 7836 0973 06010000 		.4byte	.LVL159
 7837 0977 1A010000 		.4byte	.LVL161
 7838 097b 0100     		.2byte	0x1
 7839 097d 50       		.byte	0x50
 7840 097e 1E010000 		.4byte	.LVL162
 7841 0982 28010000 		.4byte	.LVL163
 7842 0986 0100     		.2byte	0x1
 7843 0988 50       		.byte	0x50
 7844 0989 28010000 		.4byte	.LVL163
 7845 098d 2A010000 		.4byte	.LVL164
 7846 0991 0500     		.2byte	0x5
ARM GAS  C:\Users\Phuong\AppData\Local\Temp\cciPItDa.s 			page 161


 7847 0993 70       		.byte	0x70
 7848 0994 80C600   		.sleb128 8960
 7849 0997 9F       		.byte	0x9f
 7850 0998 2A010000 		.4byte	.LVL164
 7851 099c 3E010000 		.4byte	.LVL166
 7852 09a0 0100     		.2byte	0x1
 7853 09a2 50       		.byte	0x50
 7854 09a3 3E010000 		.4byte	.LVL166
 7855 09a7 40010000 		.4byte	.LVL167
 7856 09ab 0500     		.2byte	0x5
 7857 09ad 70       		.byte	0x70
 7858 09ae 80C600   		.sleb128 8960
 7859 09b1 9F       		.byte	0x9f
 7860 09b2 40010000 		.4byte	.LVL167
 7861 09b6 4E010000 		.4byte	.LVL168
 7862 09ba 0100     		.2byte	0x1
 7863 09bc 50       		.byte	0x50
 7864 09bd 52010000 		.4byte	.LVL169
 7865 09c1 66010000 		.4byte	.LVL171
 7866 09c5 0100     		.2byte	0x1
 7867 09c7 50       		.byte	0x50
 7868 09c8 6A010000 		.4byte	.LVL172
 7869 09cc 74010000 		.4byte	.LVL173
 7870 09d0 0100     		.2byte	0x1
 7871 09d2 50       		.byte	0x50
 7872 09d3 74010000 		.4byte	.LVL173
 7873 09d7 76010000 		.4byte	.LVL174
 7874 09db 0500     		.2byte	0x5
 7875 09dd 70       		.byte	0x70
 7876 09de 80C600   		.sleb128 8960
 7877 09e1 9F       		.byte	0x9f
 7878 09e2 76010000 		.4byte	.LVL174
 7879 09e6 86010000 		.4byte	.LVL175
 7880 09ea 0100     		.2byte	0x1
 7881 09ec 50       		.byte	0x50
 7882 09ed 88010000 		.4byte	.LVL176
 7883 09f1 8A010000 		.4byte	.LVL177
 7884 09f5 0100     		.2byte	0x1
 7885 09f7 50       		.byte	0x50
 7886 09f8 8C010000 		.4byte	.LVL178
 7887 09fc 98010000 		.4byte	.LVL179
 7888 0a00 0100     		.2byte	0x1
 7889 0a02 50       		.byte	0x50
 7890 0a03 98010000 		.4byte	.LVL179
 7891 0a07 9A010000 		.4byte	.LVL180
 7892 0a0b 0500     		.2byte	0x5
 7893 0a0d 70       		.byte	0x70
 7894 0a0e 80C600   		.sleb128 8960
 7895 0a11 9F       		.byte	0x9f
 7896 0a12 9A010000 		.4byte	.LVL180
 7897 0a16 A2010000 		.4byte	.LVL181
 7898 0a1a 0100     		.2byte	0x1
 7899 0a1c 50       		.byte	0x50
 7900 0a1d AC010000 		.4byte	.LVL186
 7901 0a21 AE010000 		.4byte	.LVL187
 7902 0a25 0100     		.2byte	0x1
 7903 0a27 50       		.byte	0x50
ARM GAS  C:\Users\Phuong\AppData\Local\Temp\cciPItDa.s 			page 162


 7904 0a28 B0010000 		.4byte	.LVL188
 7905 0a2c B2010000 		.4byte	.LVL189
 7906 0a30 0100     		.2byte	0x1
 7907 0a32 50       		.byte	0x50
 7908 0a33 B8010000 		.4byte	.LVL191
 7909 0a37 BA010000 		.4byte	.LVL192
 7910 0a3b 0100     		.2byte	0x1
 7911 0a3d 50       		.byte	0x50
 7912 0a3e BC010000 		.4byte	.LVL193
 7913 0a42 BE010000 		.4byte	.LVL194
 7914 0a46 0100     		.2byte	0x1
 7915 0a48 50       		.byte	0x50
 7916 0a49 C0010000 		.4byte	.LVL195
 7917 0a4d C2010000 		.4byte	.LVL196
 7918 0a51 0100     		.2byte	0x1
 7919 0a53 50       		.byte	0x50
 7920 0a54 C4010000 		.4byte	.LVL197
 7921 0a58 C6010000 		.4byte	.LVL198
 7922 0a5c 0100     		.2byte	0x1
 7923 0a5e 50       		.byte	0x50
 7924 0a5f C8010000 		.4byte	.LVL199
 7925 0a63 CA010000 		.4byte	.LVL200
 7926 0a67 0100     		.2byte	0x1
 7927 0a69 50       		.byte	0x50
 7928 0a6a 00000000 		.4byte	0
 7929 0a6e 00000000 		.4byte	0
 7930              	.LLST37:
 7931 0a72 28000000 		.4byte	.LVL129
 7932 0a76 A4010000 		.4byte	.LVL182
 7933 0a7a 0100     		.2byte	0x1
 7934 0a7c 54       		.byte	0x54
 7935 0a7d A8010000 		.4byte	.LVL184
 7936 0a81 CA010000 		.4byte	.LVL200
 7937 0a85 0100     		.2byte	0x1
 7938 0a87 54       		.byte	0x54
 7939 0a88 00000000 		.4byte	0
 7940 0a8c 00000000 		.4byte	0
 7941              	.LLST38:
 7942 0a90 48000000 		.4byte	.LVL134
 7943 0a94 51000000 		.4byte	.LVL136-1
 7944 0a98 0100     		.2byte	0x1
 7945 0a9a 53       		.byte	0x53
 7946 0a9b 51000000 		.4byte	.LVL136-1
 7947 0a9f 74000000 		.4byte	.LVL141
 7948 0aa3 0100     		.2byte	0x1
 7949 0aa5 58       		.byte	0x58
 7950 0aa6 A4000000 		.4byte	.LVL146
 7951 0aaa A6000000 		.4byte	.LVL147
 7952 0aae 0100     		.2byte	0x1
 7953 0ab0 53       		.byte	0x53
 7954 0ab1 A6000000 		.4byte	.LVL147
 7955 0ab5 E6000000 		.4byte	.LVL155
 7956 0ab9 0100     		.2byte	0x1
 7957 0abb 57       		.byte	0x57
 7958 0abc 14010000 		.4byte	.LVL160
 7959 0ac0 1D010000 		.4byte	.LVL162-1
 7960 0ac4 0100     		.2byte	0x1
ARM GAS  C:\Users\Phuong\AppData\Local\Temp\cciPItDa.s 			page 163


 7961 0ac6 53       		.byte	0x53
 7962 0ac7 1D010000 		.4byte	.LVL162-1
 7963 0acb 32010000 		.4byte	.LVL165
 7964 0acf 0100     		.2byte	0x1
 7965 0ad1 56       		.byte	0x56
 7966 0ad2 60010000 		.4byte	.LVL170
 7967 0ad6 69010000 		.4byte	.LVL172-1
 7968 0ada 0100     		.2byte	0x1
 7969 0adc 53       		.byte	0x53
 7970 0add 69010000 		.4byte	.LVL172-1
 7971 0ae1 8C010000 		.4byte	.LVL178
 7972 0ae5 0100     		.2byte	0x1
 7973 0ae7 55       		.byte	0x55
 7974 0ae8 AC010000 		.4byte	.LVL186
 7975 0aec B0010000 		.4byte	.LVL188
 7976 0af0 0100     		.2byte	0x1
 7977 0af2 58       		.byte	0x58
 7978 0af3 B4010000 		.4byte	.LVL190
 7979 0af7 BC010000 		.4byte	.LVL193
 7980 0afb 0100     		.2byte	0x1
 7981 0afd 57       		.byte	0x57
 7982 0afe C0010000 		.4byte	.LVL195
 7983 0b02 C4010000 		.4byte	.LVL197
 7984 0b06 0100     		.2byte	0x1
 7985 0b08 56       		.byte	0x56
 7986 0b09 00000000 		.4byte	0
 7987 0b0d 00000000 		.4byte	0
 7988              	.LLST39:
 7989 0b11 00000000 		.4byte	.LVL201
 7990 0b15 0C000000 		.4byte	.LVL202
 7991 0b19 0100     		.2byte	0x1
 7992 0b1b 50       		.byte	0x50
 7993 0b1c 0C000000 		.4byte	.LVL202
 7994 0b20 78000000 		.4byte	.LVL219
 7995 0b24 0100     		.2byte	0x1
 7996 0b26 57       		.byte	0x57
 7997 0b27 78000000 		.4byte	.LVL219
 7998 0b2b 84000000 		.4byte	.LFE17
 7999 0b2f 0400     		.2byte	0x4
 8000 0b31 F3       		.byte	0xf3
 8001 0b32 01       		.uleb128 0x1
 8002 0b33 50       		.byte	0x50
 8003 0b34 9F       		.byte	0x9f
 8004 0b35 00000000 		.4byte	0
 8005 0b39 00000000 		.4byte	0
 8006              	.LLST40:
 8007 0b3d 00000000 		.4byte	.LVL201
 8008 0b41 0C000000 		.4byte	.LVL202
 8009 0b45 0100     		.2byte	0x1
 8010 0b47 51       		.byte	0x51
 8011 0b48 0C000000 		.4byte	.LVL202
 8012 0b4c 78000000 		.4byte	.LVL218
 8013 0b50 0100     		.2byte	0x1
 8014 0b52 55       		.byte	0x55
 8015 0b53 78000000 		.4byte	.LVL218
 8016 0b57 84000000 		.4byte	.LFE17
 8017 0b5b 0400     		.2byte	0x4
ARM GAS  C:\Users\Phuong\AppData\Local\Temp\cciPItDa.s 			page 164


 8018 0b5d F3       		.byte	0xf3
 8019 0b5e 01       		.uleb128 0x1
 8020 0b5f 51       		.byte	0x51
 8021 0b60 9F       		.byte	0x9f
 8022 0b61 00000000 		.4byte	0
 8023 0b65 00000000 		.4byte	0
 8024              	.LLST41:
 8025 0b69 00000000 		.4byte	.LVL201
 8026 0b6d 0C000000 		.4byte	.LVL202
 8027 0b71 0100     		.2byte	0x1
 8028 0b73 52       		.byte	0x52
 8029 0b74 0C000000 		.4byte	.LVL202
 8030 0b78 58000000 		.4byte	.LVL211
 8031 0b7c 0100     		.2byte	0x1
 8032 0b7e 54       		.byte	0x54
 8033 0b7f 5A000000 		.4byte	.LVL212
 8034 0b83 78000000 		.4byte	.LVL217
 8035 0b87 0100     		.2byte	0x1
 8036 0b89 54       		.byte	0x54
 8037 0b8a 00000000 		.4byte	0
 8038 0b8e 00000000 		.4byte	0
 8039              	.LLST42:
 8040 0b92 1A000000 		.4byte	.LVL204
 8041 0b96 24000000 		.4byte	.LVL205
 8042 0b9a 0100     		.2byte	0x1
 8043 0b9c 50       		.byte	0x50
 8044 0b9d 24000000 		.4byte	.LVL205
 8045 0ba1 26000000 		.4byte	.LVL206
 8046 0ba5 0500     		.2byte	0x5
 8047 0ba7 70       		.byte	0x70
 8048 0ba8 80C700   		.sleb128 9088
 8049 0bab 9F       		.byte	0x9f
 8050 0bac 26000000 		.4byte	.LVL206
 8051 0bb0 30000000 		.4byte	.LVL207
 8052 0bb4 0100     		.2byte	0x1
 8053 0bb6 50       		.byte	0x50
 8054 0bb7 3A000000 		.4byte	.LVL208
 8055 0bbb 4C000000 		.4byte	.LVL209
 8056 0bbf 0100     		.2byte	0x1
 8057 0bc1 50       		.byte	0x50
 8058 0bc2 4C000000 		.4byte	.LVL209
 8059 0bc6 4F000000 		.4byte	.LVL210-1
 8060 0bca 0300     		.2byte	0x3
 8061 0bcc 70       		.byte	0x70
 8062 0bcd 7F       		.sleb128 -1
 8063 0bce 9F       		.byte	0x9f
 8064 0bcf 5A000000 		.4byte	.LVL212
 8065 0bd3 62000000 		.4byte	.LVL213
 8066 0bd7 0100     		.2byte	0x1
 8067 0bd9 50       		.byte	0x50
 8068 0bda 74000000 		.4byte	.LVL215
 8069 0bde 76000000 		.4byte	.LVL216
 8070 0be2 0100     		.2byte	0x1
 8071 0be4 50       		.byte	0x50
 8072 0be5 00000000 		.4byte	0
 8073 0be9 00000000 		.4byte	0
 8074              	.LLST43:
ARM GAS  C:\Users\Phuong\AppData\Local\Temp\cciPItDa.s 			page 165


 8075 0bed 0C000000 		.4byte	.LVL202
 8076 0bf1 0E000000 		.4byte	.LVL203
 8077 0bf5 0100     		.2byte	0x1
 8078 0bf7 56       		.byte	0x56
 8079 0bf8 30000000 		.4byte	.LVL207
 8080 0bfc 76000000 		.4byte	.LVL216
 8081 0c00 0100     		.2byte	0x1
 8082 0c02 56       		.byte	0x56
 8083 0c03 00000000 		.4byte	0
 8084 0c07 00000000 		.4byte	0
 8085              	.LLST44:
 8086 0c0b 00000000 		.4byte	.LVL220
 8087 0c0f 28000000 		.4byte	.LVL225
 8088 0c13 0100     		.2byte	0x1
 8089 0c15 50       		.byte	0x50
 8090 0c16 28000000 		.4byte	.LVL225
 8091 0c1a 46000000 		.4byte	.LVL231
 8092 0c1e 0100     		.2byte	0x1
 8093 0c20 56       		.byte	0x56
 8094 0c21 46000000 		.4byte	.LVL231
 8095 0c25 48000000 		.4byte	.LVL232
 8096 0c29 0100     		.2byte	0x1
 8097 0c2b 50       		.byte	0x50
 8098 0c2c 48000000 		.4byte	.LVL232
 8099 0c30 4A000000 		.4byte	.LVL233
 8100 0c34 0100     		.2byte	0x1
 8101 0c36 56       		.byte	0x56
 8102 0c37 4A000000 		.4byte	.LVL233
 8103 0c3b 4C000000 		.4byte	.LVL234
 8104 0c3f 0100     		.2byte	0x1
 8105 0c41 50       		.byte	0x50
 8106 0c42 4C000000 		.4byte	.LVL234
 8107 0c46 4E000000 		.4byte	.LVL236
 8108 0c4a 0100     		.2byte	0x1
 8109 0c4c 56       		.byte	0x56
 8110 0c4d 4E000000 		.4byte	.LVL236
 8111 0c51 5C000000 		.4byte	.LFE21
 8112 0c55 0400     		.2byte	0x4
 8113 0c57 F3       		.byte	0xf3
 8114 0c58 01       		.uleb128 0x1
 8115 0c59 50       		.byte	0x50
 8116 0c5a 9F       		.byte	0x9f
 8117 0c5b 00000000 		.4byte	0
 8118 0c5f 00000000 		.4byte	0
 8119              	.LLST45:
 8120 0c63 00000000 		.4byte	.LVL220
 8121 0c67 2B000000 		.4byte	.LVL226-1
 8122 0c6b 0100     		.2byte	0x1
 8123 0c6d 51       		.byte	0x51
 8124 0c6e 2B000000 		.4byte	.LVL226-1
 8125 0c72 46000000 		.4byte	.LVL231
 8126 0c76 0400     		.2byte	0x4
 8127 0c78 F3       		.byte	0xf3
 8128 0c79 01       		.uleb128 0x1
 8129 0c7a 51       		.byte	0x51
 8130 0c7b 9F       		.byte	0x9f
 8131 0c7c 46000000 		.4byte	.LVL231
ARM GAS  C:\Users\Phuong\AppData\Local\Temp\cciPItDa.s 			page 166


 8132 0c80 4C000000 		.4byte	.LVL234
 8133 0c84 0100     		.2byte	0x1
 8134 0c86 51       		.byte	0x51
 8135 0c87 4C000000 		.4byte	.LVL234
 8136 0c8b 5C000000 		.4byte	.LFE21
 8137 0c8f 0400     		.2byte	0x4
 8138 0c91 F3       		.byte	0xf3
 8139 0c92 01       		.uleb128 0x1
 8140 0c93 51       		.byte	0x51
 8141 0c94 9F       		.byte	0x9f
 8142 0c95 00000000 		.4byte	0
 8143 0c99 00000000 		.4byte	0
 8144              	.LLST46:
 8145 0c9d 00000000 		.4byte	.LVL220
 8146 0ca1 0C000000 		.4byte	.LVL221
 8147 0ca5 0100     		.2byte	0x1
 8148 0ca7 52       		.byte	0x52
 8149 0ca8 0C000000 		.4byte	.LVL221
 8150 0cac 4E000000 		.4byte	.LVL235
 8151 0cb0 0100     		.2byte	0x1
 8152 0cb2 54       		.byte	0x54
 8153 0cb3 4E000000 		.4byte	.LVL235
 8154 0cb7 5C000000 		.4byte	.LFE21
 8155 0cbb 0400     		.2byte	0x4
 8156 0cbd F3       		.byte	0xf3
 8157 0cbe 01       		.uleb128 0x1
 8158 0cbf 52       		.byte	0x52
 8159 0cc0 9F       		.byte	0x9f
 8160 0cc1 00000000 		.4byte	0
 8161 0cc5 00000000 		.4byte	0
 8162              	.LLST47:
 8163 0cc9 2C000000 		.4byte	.LVL226
 8164 0ccd 36000000 		.4byte	.LVL227
 8165 0cd1 0100     		.2byte	0x1
 8166 0cd3 50       		.byte	0x50
 8167 0cd4 36000000 		.4byte	.LVL227
 8168 0cd8 38000000 		.4byte	.LVL228
 8169 0cdc 0500     		.2byte	0x5
 8170 0cde 70       		.byte	0x70
 8171 0cdf 80C800   		.sleb128 9216
 8172 0ce2 9F       		.byte	0x9f
 8173 0ce3 38000000 		.4byte	.LVL228
 8174 0ce7 40000000 		.4byte	.LVL229
 8175 0ceb 0100     		.2byte	0x1
 8176 0ced 50       		.byte	0x50
 8177 0cee 00000000 		.4byte	0
 8178 0cf2 00000000 		.4byte	0
 8179              	.LLST48:
 8180 0cf6 20000000 		.4byte	.LVL223
 8181 0cfa 46000000 		.4byte	.LVL231
 8182 0cfe 0100     		.2byte	0x1
 8183 0d00 55       		.byte	0x55
 8184 0d01 00000000 		.4byte	0
 8185 0d05 00000000 		.4byte	0
 8186              	.LLST49:
 8187 0d09 12000000 		.4byte	.LVL222
 8188 0d0d 26000000 		.4byte	.LVL224
ARM GAS  C:\Users\Phuong\AppData\Local\Temp\cciPItDa.s 			page 167


 8189 0d11 0100     		.2byte	0x1
 8190 0d13 52       		.byte	0x52
 8191 0d14 4A000000 		.4byte	.LVL233
 8192 0d18 4C000000 		.4byte	.LVL234
 8193 0d1c 0100     		.2byte	0x1
 8194 0d1e 52       		.byte	0x52
 8195 0d1f 00000000 		.4byte	0
 8196 0d23 00000000 		.4byte	0
 8197              	.LLST50:
 8198 0d27 00000000 		.4byte	.LVL237
 8199 0d2b 17000000 		.4byte	.LVL240-1
 8200 0d2f 0100     		.2byte	0x1
 8201 0d31 50       		.byte	0x50
 8202 0d32 17000000 		.4byte	.LVL240-1
 8203 0d36 3A000000 		.4byte	.LVL244
 8204 0d3a 0100     		.2byte	0x1
 8205 0d3c 54       		.byte	0x54
 8206 0d3d 3A000000 		.4byte	.LVL244
 8207 0d41 3C000000 		.4byte	.LVL245
 8208 0d45 0100     		.2byte	0x1
 8209 0d47 50       		.byte	0x50
 8210 0d48 3C000000 		.4byte	.LVL245
 8211 0d4c 3E000000 		.4byte	.LVL246
 8212 0d50 0100     		.2byte	0x1
 8213 0d52 54       		.byte	0x54
 8214 0d53 3E000000 		.4byte	.LVL246
 8215 0d57 48000000 		.4byte	.LFE22
 8216 0d5b 0400     		.2byte	0x4
 8217 0d5d F3       		.byte	0xf3
 8218 0d5e 01       		.uleb128 0x1
 8219 0d5f 50       		.byte	0x50
 8220 0d60 9F       		.byte	0x9f
 8221 0d61 00000000 		.4byte	0
 8222 0d65 00000000 		.4byte	0
 8223              	.LLST51:
 8224 0d69 00000000 		.4byte	.LVL237
 8225 0d6d 17000000 		.4byte	.LVL240-1
 8226 0d71 0100     		.2byte	0x1
 8227 0d73 51       		.byte	0x51
 8228 0d74 17000000 		.4byte	.LVL240-1
 8229 0d78 3A000000 		.4byte	.LVL244
 8230 0d7c 0400     		.2byte	0x4
 8231 0d7e F3       		.byte	0xf3
 8232 0d7f 01       		.uleb128 0x1
 8233 0d80 51       		.byte	0x51
 8234 0d81 9F       		.byte	0x9f
 8235 0d82 3A000000 		.4byte	.LVL244
 8236 0d86 3C000000 		.4byte	.LVL245
 8237 0d8a 0100     		.2byte	0x1
 8238 0d8c 51       		.byte	0x51
 8239 0d8d 3C000000 		.4byte	.LVL245
 8240 0d91 48000000 		.4byte	.LFE22
 8241 0d95 0400     		.2byte	0x4
 8242 0d97 F3       		.byte	0xf3
 8243 0d98 01       		.uleb128 0x1
 8244 0d99 51       		.byte	0x51
 8245 0d9a 9F       		.byte	0x9f
ARM GAS  C:\Users\Phuong\AppData\Local\Temp\cciPItDa.s 			page 168


 8246 0d9b 00000000 		.4byte	0
 8247 0d9f 00000000 		.4byte	0
 8248              	.LLST52:
 8249 0da3 00000000 		.4byte	.LVL237
 8250 0da7 0C000000 		.4byte	.LVL238
 8251 0dab 0100     		.2byte	0x1
 8252 0dad 52       		.byte	0x52
 8253 0dae 0C000000 		.4byte	.LVL238
 8254 0db2 3E000000 		.4byte	.LVL247
 8255 0db6 0100     		.2byte	0x1
 8256 0db8 55       		.byte	0x55
 8257 0db9 3E000000 		.4byte	.LVL247
 8258 0dbd 48000000 		.4byte	.LFE22
 8259 0dc1 0400     		.2byte	0x4
 8260 0dc3 F3       		.byte	0xf3
 8261 0dc4 01       		.uleb128 0x1
 8262 0dc5 52       		.byte	0x52
 8263 0dc6 9F       		.byte	0x9f
 8264 0dc7 00000000 		.4byte	0
 8265 0dcb 00000000 		.4byte	0
 8266              	.LLST53:
 8267 0dcf 18000000 		.4byte	.LVL240
 8268 0dd3 22000000 		.4byte	.LVL241
 8269 0dd7 0100     		.2byte	0x1
 8270 0dd9 50       		.byte	0x50
 8271 0dda 22000000 		.4byte	.LVL241
 8272 0dde 24000000 		.4byte	.LVL242
 8273 0de2 0500     		.2byte	0x5
 8274 0de4 70       		.byte	0x70
 8275 0de5 80C900   		.sleb128 9344
 8276 0de8 9F       		.byte	0x9f
 8277 0de9 24000000 		.4byte	.LVL242
 8278 0ded 38000000 		.4byte	.LVL243
 8279 0df1 0100     		.2byte	0x1
 8280 0df3 50       		.byte	0x50
 8281 0df4 00000000 		.4byte	0
 8282 0df8 00000000 		.4byte	0
 8283              	.LLST54:
 8284 0dfc 12000000 		.4byte	.LVL239
 8285 0e00 3A000000 		.4byte	.LVL244
 8286 0e04 0100     		.2byte	0x1
 8287 0e06 56       		.byte	0x56
 8288 0e07 00000000 		.4byte	0
 8289 0e0b 00000000 		.4byte	0
 8290              	.LLST55:
 8291 0e0f 00000000 		.4byte	.LVL248
 8292 0e13 17000000 		.4byte	.LVL252-1
 8293 0e17 0100     		.2byte	0x1
 8294 0e19 50       		.byte	0x50
 8295 0e1a 17000000 		.4byte	.LVL252-1
 8296 0e1e 6A000000 		.4byte	.LVL265
 8297 0e22 0400     		.2byte	0x4
 8298 0e24 F3       		.byte	0xf3
 8299 0e25 01       		.uleb128 0x1
 8300 0e26 50       		.byte	0x50
 8301 0e27 9F       		.byte	0x9f
 8302 0e28 6A000000 		.4byte	.LVL265
ARM GAS  C:\Users\Phuong\AppData\Local\Temp\cciPItDa.s 			page 169


 8303 0e2c 6C000000 		.4byte	.LVL266
 8304 0e30 0100     		.2byte	0x1
 8305 0e32 50       		.byte	0x50
 8306 0e33 6C000000 		.4byte	.LVL266
 8307 0e37 8C000000 		.4byte	.LFE23
 8308 0e3b 0400     		.2byte	0x4
 8309 0e3d F3       		.byte	0xf3
 8310 0e3e 01       		.uleb128 0x1
 8311 0e3f 50       		.byte	0x50
 8312 0e40 9F       		.byte	0x9f
 8313 0e41 00000000 		.4byte	0
 8314 0e45 00000000 		.4byte	0
 8315              	.LLST56:
 8316 0e49 00000000 		.4byte	.LVL248
 8317 0e4d 14000000 		.4byte	.LVL251
 8318 0e51 0100     		.2byte	0x1
 8319 0e53 51       		.byte	0x51
 8320 0e54 14000000 		.4byte	.LVL251
 8321 0e58 6A000000 		.4byte	.LVL265
 8322 0e5c 0100     		.2byte	0x1
 8323 0e5e 57       		.byte	0x57
 8324 0e5f 6A000000 		.4byte	.LVL265
 8325 0e63 6E000000 		.4byte	.LVL267
 8326 0e67 0100     		.2byte	0x1
 8327 0e69 51       		.byte	0x51
 8328 0e6a 6E000000 		.4byte	.LVL267
 8329 0e6e 78000000 		.4byte	.LVL273
 8330 0e72 0100     		.2byte	0x1
 8331 0e74 57       		.byte	0x57
 8332 0e75 78000000 		.4byte	.LVL273
 8333 0e79 8C000000 		.4byte	.LFE23
 8334 0e7d 0400     		.2byte	0x4
 8335 0e7f F3       		.byte	0xf3
 8336 0e80 01       		.uleb128 0x1
 8337 0e81 51       		.byte	0x51
 8338 0e82 9F       		.byte	0x9f
 8339 0e83 00000000 		.4byte	0
 8340 0e87 00000000 		.4byte	0
 8341              	.LLST57:
 8342 0e8b 00000000 		.4byte	.LVL248
 8343 0e8f 12000000 		.4byte	.LVL250
 8344 0e93 0100     		.2byte	0x1
 8345 0e95 52       		.byte	0x52
 8346 0e96 12000000 		.4byte	.LVL250
 8347 0e9a 44000000 		.4byte	.LVL260
 8348 0e9e 0100     		.2byte	0x1
 8349 0ea0 56       		.byte	0x56
 8350 0ea1 44000000 		.4byte	.LVL260
 8351 0ea5 56000000 		.4byte	.LVL263
 8352 0ea9 0400     		.2byte	0x4
 8353 0eab F3       		.byte	0xf3
 8354 0eac 01       		.uleb128 0x1
 8355 0ead 52       		.byte	0x52
 8356 0eae 9F       		.byte	0x9f
 8357 0eaf 56000000 		.4byte	.LVL263
 8358 0eb3 6A000000 		.4byte	.LVL265
 8359 0eb7 0100     		.2byte	0x1
ARM GAS  C:\Users\Phuong\AppData\Local\Temp\cciPItDa.s 			page 170


 8360 0eb9 56       		.byte	0x56
 8361 0eba 6A000000 		.4byte	.LVL265
 8362 0ebe 6E000000 		.4byte	.LVL267
 8363 0ec2 0100     		.2byte	0x1
 8364 0ec4 52       		.byte	0x52
 8365 0ec5 6E000000 		.4byte	.LVL267
 8366 0ec9 78000000 		.4byte	.LVL272
 8367 0ecd 0100     		.2byte	0x1
 8368 0ecf 56       		.byte	0x56
 8369 0ed0 78000000 		.4byte	.LVL272
 8370 0ed4 8C000000 		.4byte	.LFE23
 8371 0ed8 0400     		.2byte	0x4
 8372 0eda F3       		.byte	0xf3
 8373 0edb 01       		.uleb128 0x1
 8374 0edc 52       		.byte	0x52
 8375 0edd 9F       		.byte	0x9f
 8376 0ede 00000000 		.4byte	0
 8377 0ee2 00000000 		.4byte	0
 8378              	.LLST58:
 8379 0ee6 00000000 		.4byte	.LVL248
 8380 0eea 0C000000 		.4byte	.LVL249
 8381 0eee 0100     		.2byte	0x1
 8382 0ef0 53       		.byte	0x53
 8383 0ef1 0C000000 		.4byte	.LVL249
 8384 0ef5 34000000 		.4byte	.LVL257
 8385 0ef9 0100     		.2byte	0x1
 8386 0efb 54       		.byte	0x54
 8387 0efc 34000000 		.4byte	.LVL257
 8388 0f00 56000000 		.4byte	.LVL263
 8389 0f04 0400     		.2byte	0x4
 8390 0f06 F3       		.byte	0xf3
 8391 0f07 01       		.uleb128 0x1
 8392 0f08 53       		.byte	0x53
 8393 0f09 9F       		.byte	0x9f
 8394 0f0a 56000000 		.4byte	.LVL263
 8395 0f0e 6E000000 		.4byte	.LVL267
 8396 0f12 0100     		.2byte	0x1
 8397 0f14 54       		.byte	0x54
 8398 0f15 6E000000 		.4byte	.LVL267
 8399 0f19 72000000 		.4byte	.LVL269
 8400 0f1d 0400     		.2byte	0x4
 8401 0f1f F3       		.byte	0xf3
 8402 0f20 01       		.uleb128 0x1
 8403 0f21 53       		.byte	0x53
 8404 0f22 9F       		.byte	0x9f
 8405 0f23 72000000 		.4byte	.LVL269
 8406 0f27 78000000 		.4byte	.LVL272
 8407 0f2b 0100     		.2byte	0x1
 8408 0f2d 54       		.byte	0x54
 8409 0f2e 78000000 		.4byte	.LVL272
 8410 0f32 8C000000 		.4byte	.LFE23
 8411 0f36 0400     		.2byte	0x4
 8412 0f38 F3       		.byte	0xf3
 8413 0f39 01       		.uleb128 0x1
 8414 0f3a 53       		.byte	0x53
 8415 0f3b 9F       		.byte	0x9f
 8416 0f3c 00000000 		.4byte	0
ARM GAS  C:\Users\Phuong\AppData\Local\Temp\cciPItDa.s 			page 171


 8417 0f40 00000000 		.4byte	0
 8418              	.LLST59:
 8419 0f44 18000000 		.4byte	.LVL252
 8420 0f48 22000000 		.4byte	.LVL253
 8421 0f4c 0100     		.2byte	0x1
 8422 0f4e 50       		.byte	0x50
 8423 0f4f 22000000 		.4byte	.LVL253
 8424 0f53 24000000 		.4byte	.LVL254
 8425 0f57 0500     		.2byte	0x5
 8426 0f59 70       		.byte	0x70
 8427 0f5a 80CC00   		.sleb128 9728
 8428 0f5d 9F       		.byte	0x9f
 8429 0f5e 24000000 		.4byte	.LVL254
 8430 0f62 2E000000 		.4byte	.LVL255
 8431 0f66 0100     		.2byte	0x1
 8432 0f68 50       		.byte	0x50
 8433 0f69 44000000 		.4byte	.LVL260
 8434 0f6d 48000000 		.4byte	.LVL261
 8435 0f71 0100     		.2byte	0x1
 8436 0f73 50       		.byte	0x50
 8437 0f74 48000000 		.4byte	.LVL261
 8438 0f78 56000000 		.4byte	.LVL263
 8439 0f7c 0100     		.2byte	0x1
 8440 0f7e 56       		.byte	0x56
 8441 0f7f 56000000 		.4byte	.LVL263
 8442 0f83 68000000 		.4byte	.LVL264
 8443 0f87 0100     		.2byte	0x1
 8444 0f89 50       		.byte	0x50
 8445 0f8a 72000000 		.4byte	.LVL269
 8446 0f8e 74000000 		.4byte	.LVL270
 8447 0f92 0100     		.2byte	0x1
 8448 0f94 50       		.byte	0x50
 8449 0f95 76000000 		.4byte	.LVL271
 8450 0f99 78000000 		.4byte	.LVL272
 8451 0f9d 0100     		.2byte	0x1
 8452 0f9f 50       		.byte	0x50
 8453 0fa0 00000000 		.4byte	0
 8454 0fa4 00000000 		.4byte	0
 8455              	.LLST60:
 8456 0fa8 34000000 		.4byte	.LVL257
 8457 0fac 3E000000 		.4byte	.LVL258
 8458 0fb0 0100     		.2byte	0x1
 8459 0fb2 50       		.byte	0x50
 8460 0fb3 3E000000 		.4byte	.LVL258
 8461 0fb7 41000000 		.4byte	.LVL259-1
 8462 0fbb 0100     		.2byte	0x1
 8463 0fbd 52       		.byte	0x52
 8464 0fbe 41000000 		.4byte	.LVL259-1
 8465 0fc2 56000000 		.4byte	.LVL263
 8466 0fc6 0100     		.2byte	0x1
 8467 0fc8 54       		.byte	0x54
 8468 0fc9 6E000000 		.4byte	.LVL267
 8469 0fcd 70000000 		.4byte	.LVL268
 8470 0fd1 0100     		.2byte	0x1
 8471 0fd3 50       		.byte	0x50
 8472 0fd4 70000000 		.4byte	.LVL268
 8473 0fd8 72000000 		.4byte	.LVL269
ARM GAS  C:\Users\Phuong\AppData\Local\Temp\cciPItDa.s 			page 172


 8474 0fdc 0100     		.2byte	0x1
 8475 0fde 54       		.byte	0x54
 8476 0fdf 00000000 		.4byte	0
 8477 0fe3 00000000 		.4byte	0
 8478              	.LLST61:
 8479 0fe7 00000000 		.4byte	.LVL274
 8480 0feb 10000000 		.4byte	.LVL276
 8481 0fef 0100     		.2byte	0x1
 8482 0ff1 50       		.byte	0x50
 8483 0ff2 10000000 		.4byte	.LVL276
 8484 0ff6 56000000 		.4byte	.LVL286
 8485 0ffa 0100     		.2byte	0x1
 8486 0ffc 54       		.byte	0x54
 8487 0ffd 56000000 		.4byte	.LVL286
 8488 1001 58000000 		.4byte	.LVL287
 8489 1005 0100     		.2byte	0x1
 8490 1007 50       		.byte	0x50
 8491 1008 58000000 		.4byte	.LVL287
 8492 100c 5E000000 		.4byte	.LVL290
 8493 1010 0100     		.2byte	0x1
 8494 1012 54       		.byte	0x54
 8495 1013 5E000000 		.4byte	.LVL290
 8496 1017 68000000 		.4byte	.LFE24
 8497 101b 0400     		.2byte	0x4
 8498 101d F3       		.byte	0xf3
 8499 101e 01       		.uleb128 0x1
 8500 101f 50       		.byte	0x50
 8501 1020 9F       		.byte	0x9f
 8502 1021 00000000 		.4byte	0
 8503 1025 00000000 		.4byte	0
 8504              	.LLST62:
 8505 1029 00000000 		.4byte	.LVL274
 8506 102d 1D000000 		.4byte	.LVL278-1
 8507 1031 0100     		.2byte	0x1
 8508 1033 51       		.byte	0x51
 8509 1034 1D000000 		.4byte	.LVL278-1
 8510 1038 2E000000 		.4byte	.LVL280
 8511 103c 0400     		.2byte	0x4
 8512 103e F3       		.byte	0xf3
 8513 103f 01       		.uleb128 0x1
 8514 1040 51       		.byte	0x51
 8515 1041 9F       		.byte	0x9f
 8516 1042 2E000000 		.4byte	.LVL280
 8517 1046 56000000 		.4byte	.LVL286
 8518 104a 0100     		.2byte	0x1
 8519 104c 55       		.byte	0x55
 8520 104d 56000000 		.4byte	.LVL286
 8521 1051 5A000000 		.4byte	.LVL288
 8522 1055 0100     		.2byte	0x1
 8523 1057 51       		.byte	0x51
 8524 1058 5A000000 		.4byte	.LVL288
 8525 105c 5C000000 		.4byte	.LVL289
 8526 1060 0100     		.2byte	0x1
 8527 1062 55       		.byte	0x55
 8528 1063 00000000 		.4byte	0
 8529 1067 00000000 		.4byte	0
 8530              	.LLST63:
ARM GAS  C:\Users\Phuong\AppData\Local\Temp\cciPItDa.s 			page 173


 8531 106b 00000000 		.4byte	.LVL274
 8532 106f 0A000000 		.4byte	.LVL275
 8533 1073 0100     		.2byte	0x1
 8534 1075 52       		.byte	0x52
 8535 1076 0A000000 		.4byte	.LVL275
 8536 107a 28000000 		.4byte	.LVL279
 8537 107e 0100     		.2byte	0x1
 8538 1080 55       		.byte	0x55
 8539 1081 28000000 		.4byte	.LVL279
 8540 1085 56000000 		.4byte	.LVL286
 8541 1089 0400     		.2byte	0x4
 8542 108b F3       		.byte	0xf3
 8543 108c 01       		.uleb128 0x1
 8544 108d 52       		.byte	0x52
 8545 108e 9F       		.byte	0x9f
 8546 108f 56000000 		.4byte	.LVL286
 8547 1093 5A000000 		.4byte	.LVL288
 8548 1097 0100     		.2byte	0x1
 8549 1099 55       		.byte	0x55
 8550 109a 5A000000 		.4byte	.LVL288
 8551 109e 68000000 		.4byte	.LFE24
 8552 10a2 0400     		.2byte	0x4
 8553 10a4 F3       		.byte	0xf3
 8554 10a5 01       		.uleb128 0x1
 8555 10a6 52       		.byte	0x52
 8556 10a7 9F       		.byte	0x9f
 8557 10a8 00000000 		.4byte	0
 8558 10ac 00000000 		.4byte	0
 8559              	.LLST64:
 8560 10b0 00000000 		.4byte	.LVL274
 8561 10b4 18000000 		.4byte	.LVL277
 8562 10b8 0100     		.2byte	0x1
 8563 10ba 53       		.byte	0x53
 8564 10bb 18000000 		.4byte	.LVL277
 8565 10bf 56000000 		.4byte	.LVL286
 8566 10c3 0400     		.2byte	0x4
 8567 10c5 F3       		.byte	0xf3
 8568 10c6 01       		.uleb128 0x1
 8569 10c7 53       		.byte	0x53
 8570 10c8 9F       		.byte	0x9f
 8571 10c9 56000000 		.4byte	.LVL286
 8572 10cd 5A000000 		.4byte	.LVL288
 8573 10d1 0100     		.2byte	0x1
 8574 10d3 53       		.byte	0x53
 8575 10d4 5A000000 		.4byte	.LVL288
 8576 10d8 68000000 		.4byte	.LFE24
 8577 10dc 0400     		.2byte	0x4
 8578 10de F3       		.byte	0xf3
 8579 10df 01       		.uleb128 0x1
 8580 10e0 53       		.byte	0x53
 8581 10e1 9F       		.byte	0x9f
 8582 10e2 00000000 		.4byte	0
 8583 10e6 00000000 		.4byte	0
 8584              	.LLST65:
 8585 10ea 1E000000 		.4byte	.LVL278
 8586 10ee 36000000 		.4byte	.LVL281
 8587 10f2 0100     		.2byte	0x1
ARM GAS  C:\Users\Phuong\AppData\Local\Temp\cciPItDa.s 			page 174


 8588 10f4 50       		.byte	0x50
 8589 10f5 3A000000 		.4byte	.LVL282
 8590 10f9 44000000 		.4byte	.LVL283
 8591 10fd 0100     		.2byte	0x1
 8592 10ff 50       		.byte	0x50
 8593 1100 44000000 		.4byte	.LVL283
 8594 1104 46000000 		.4byte	.LVL284
 8595 1108 0500     		.2byte	0x5
 8596 110a 70       		.byte	0x70
 8597 110b 80CA00   		.sleb128 9472
 8598 110e 9F       		.byte	0x9f
 8599 110f 46000000 		.4byte	.LVL284
 8600 1113 54000000 		.4byte	.LVL285
 8601 1117 0100     		.2byte	0x1
 8602 1119 50       		.byte	0x50
 8603 111a 5A000000 		.4byte	.LVL288
 8604 111e 5C000000 		.4byte	.LVL289
 8605 1122 0100     		.2byte	0x1
 8606 1124 50       		.byte	0x50
 8607 1125 00000000 		.4byte	0
 8608 1129 00000000 		.4byte	0
 8609              	.LLST66:
 8610 112d 00000000 		.4byte	.LVL291
 8611 1131 18000000 		.4byte	.LVL295
 8612 1135 0100     		.2byte	0x1
 8613 1137 50       		.byte	0x50
 8614 1138 18000000 		.4byte	.LVL295
 8615 113c 22000000 		.4byte	.LVL297
 8616 1140 0100     		.2byte	0x1
 8617 1142 57       		.byte	0x57
 8618 1143 22000000 		.4byte	.LVL297
 8619 1147 10010000 		.4byte	.LFE25
 8620 114b 0400     		.2byte	0x4
 8621 114d F3       		.byte	0xf3
 8622 114e 01       		.uleb128 0x1
 8623 114f 50       		.byte	0x50
 8624 1150 9F       		.byte	0x9f
 8625 1151 00000000 		.4byte	0
 8626 1155 00000000 		.4byte	0
 8627              	.LLST67:
 8628 1159 00000000 		.4byte	.LVL291
 8629 115d 16000000 		.4byte	.LVL294
 8630 1161 0100     		.2byte	0x1
 8631 1163 51       		.byte	0x51
 8632 1164 16000000 		.4byte	.LVL294
 8633 1168 22000000 		.4byte	.LVL297
 8634 116c 0100     		.2byte	0x1
 8635 116e 56       		.byte	0x56
 8636 116f 22000000 		.4byte	.LVL297
 8637 1173 10010000 		.4byte	.LFE25
 8638 1177 0300     		.2byte	0x3
 8639 1179 91       		.byte	0x91
 8640 117a DC7D     		.sleb128 -292
 8641 117c 00000000 		.4byte	0
 8642 1180 00000000 		.4byte	0
 8643              	.LLST68:
 8644 1184 00000000 		.4byte	.LVL291
ARM GAS  C:\Users\Phuong\AppData\Local\Temp\cciPItDa.s 			page 175


 8645 1188 12000000 		.4byte	.LVL293
 8646 118c 0100     		.2byte	0x1
 8647 118e 52       		.byte	0x52
 8648 118f 12000000 		.4byte	.LVL293
 8649 1193 F4000000 		.4byte	.LVL337
 8650 1197 0100     		.2byte	0x1
 8651 1199 55       		.byte	0x55
 8652 119a F4000000 		.4byte	.LVL337
 8653 119e 10010000 		.4byte	.LFE25
 8654 11a2 0400     		.2byte	0x4
 8655 11a4 F3       		.byte	0xf3
 8656 11a5 01       		.uleb128 0x1
 8657 11a6 52       		.byte	0x52
 8658 11a7 9F       		.byte	0x9f
 8659 11a8 00000000 		.4byte	0
 8660 11ac 00000000 		.4byte	0
 8661              	.LLST69:
 8662 11b0 42000000 		.4byte	.LVL299
 8663 11b4 4E000000 		.4byte	.LVL301
 8664 11b8 0100     		.2byte	0x1
 8665 11ba 50       		.byte	0x50
 8666 11bb 56000000 		.4byte	.LVL302
 8667 11bf 62000000 		.4byte	.LVL303
 8668 11c3 0100     		.2byte	0x1
 8669 11c5 50       		.byte	0x50
 8670 11c6 66000000 		.4byte	.LVL304
 8671 11ca 6E000000 		.4byte	.LVL305
 8672 11ce 0100     		.2byte	0x1
 8673 11d0 50       		.byte	0x50
 8674 11d1 72000000 		.4byte	.LVL306
 8675 11d5 BE000000 		.4byte	.LVL317
 8676 11d9 0100     		.2byte	0x1
 8677 11db 50       		.byte	0x50
 8678 11dc C2000000 		.4byte	.LVL318
 8679 11e0 D2000000 		.4byte	.LVL322
 8680 11e4 0100     		.2byte	0x1
 8681 11e6 50       		.byte	0x50
 8682 11e7 DC000000 		.4byte	.LVL324
 8683 11eb DE000000 		.4byte	.LVL325
 8684 11ef 0100     		.2byte	0x1
 8685 11f1 50       		.byte	0x50
 8686 11f2 E0000000 		.4byte	.LVL326
 8687 11f6 E2000000 		.4byte	.LVL327
 8688 11fa 0100     		.2byte	0x1
 8689 11fc 50       		.byte	0x50
 8690 11fd E4000000 		.4byte	.LVL328
 8691 1201 E6000000 		.4byte	.LVL329
 8692 1205 0100     		.2byte	0x1
 8693 1207 50       		.byte	0x50
 8694 1208 E8000000 		.4byte	.LVL330
 8695 120c EA000000 		.4byte	.LVL331
 8696 1210 0100     		.2byte	0x1
 8697 1212 50       		.byte	0x50
 8698 1213 EC000000 		.4byte	.LVL332
 8699 1217 EE000000 		.4byte	.LVL333
 8700 121b 0100     		.2byte	0x1
 8701 121d 50       		.byte	0x50
ARM GAS  C:\Users\Phuong\AppData\Local\Temp\cciPItDa.s 			page 176


 8702 121e F0000000 		.4byte	.LVL334
 8703 1222 F2000000 		.4byte	.LVL335
 8704 1226 0100     		.2byte	0x1
 8705 1228 50       		.byte	0x50
 8706 1229 00000000 		.4byte	0
 8707 122d 00000000 		.4byte	0
 8708              	.LLST70:
 8709 1231 7E000000 		.4byte	.LVL308
 8710 1235 82000000 		.4byte	.LVL309
 8711 1239 0200     		.2byte	0x2
 8712 123b 30       		.byte	0x30
 8713 123c 9F       		.byte	0x9f
 8714 123d 82000000 		.4byte	.LVL309
 8715 1241 B8000000 		.4byte	.LVL316
 8716 1245 0100     		.2byte	0x1
 8717 1247 53       		.byte	0x53
 8718 1248 00000000 		.4byte	0
 8719 124c 00000000 		.4byte	0
 8720              	.LLST71:
 8721 1250 1C000000 		.4byte	.LVL296
 8722 1254 F4000000 		.4byte	.LVL338
 8723 1258 0100     		.2byte	0x1
 8724 125a 56       		.byte	0x56
 8725 125b 00000000 		.4byte	0
 8726 125f 00000000 		.4byte	0
 8727              	.LLST72:
 8728 1263 8A000000 		.4byte	.LVL310
 8729 1267 A0000000 		.4byte	.LVL311
 8730 126b 0100     		.2byte	0x1
 8731 126d 52       		.byte	0x52
 8732 126e A0000000 		.4byte	.LVL311
 8733 1272 A2000000 		.4byte	.LVL312
 8734 1276 0600     		.2byte	0x6
 8735 1278 74       		.byte	0x74
 8736 1279 14       		.sleb128 20
 8737 127a 06       		.byte	0x6
 8738 127b 73       		.byte	0x73
 8739 127c 00       		.sleb128 0
 8740 127d 22       		.byte	0x22
 8741 127e A4000000 		.4byte	.LVL313
 8742 1282 A8000000 		.4byte	.LVL314
 8743 1286 0100     		.2byte	0x1
 8744 1288 52       		.byte	0x52
 8745 1289 00000000 		.4byte	0
 8746 128d 00000000 		.4byte	0
 8747              	.LLST73:
 8748 1291 0C000000 		.4byte	.LVL292
 8749 1295 22000000 		.4byte	.LVL297
 8750 1299 0200     		.2byte	0x2
 8751 129b 30       		.byte	0x30
 8752 129c 9F       		.byte	0x9f
 8753 129d 22000000 		.4byte	.LVL297
 8754 12a1 41000000 		.4byte	.LVL299-1
 8755 12a5 0100     		.2byte	0x1
 8756 12a7 53       		.byte	0x53
 8757 12a8 D0000000 		.4byte	.LVL321
 8758 12ac D8000000 		.4byte	.LVL323
ARM GAS  C:\Users\Phuong\AppData\Local\Temp\cciPItDa.s 			page 177


 8759 12b0 0100     		.2byte	0x1
 8760 12b2 53       		.byte	0x53
 8761 12b3 00000000 		.4byte	0
 8762 12b7 00000000 		.4byte	0
 8763              	.LLST74:
 8764 12bb 1C000000 		.4byte	.LVL296
 8765 12bf 22000000 		.4byte	.LVL297
 8766 12c3 0100     		.2byte	0x1
 8767 12c5 55       		.byte	0x55
 8768 12c6 22000000 		.4byte	.LVL297
 8769 12ca F4000000 		.4byte	.LVL336
 8770 12ce 0100     		.2byte	0x1
 8771 12d0 54       		.byte	0x54
 8772 12d1 00000000 		.4byte	0
 8773 12d5 00000000 		.4byte	0
 8774              	.LLST75:
 8775 12d9 1C000000 		.4byte	.LVL296
 8776 12dd F4000000 		.4byte	.LVL339
 8777 12e1 0100     		.2byte	0x1
 8778 12e3 57       		.byte	0x57
 8779 12e4 00000000 		.4byte	0
 8780 12e8 00000000 		.4byte	0
 8781              	.LLST76:
 8782 12ec 00000000 		.4byte	.LVL340
 8783 12f0 1C000000 		.4byte	.LVL343
 8784 12f4 0100     		.2byte	0x1
 8785 12f6 50       		.byte	0x50
 8786 12f7 1C000000 		.4byte	.LVL343
 8787 12fb AC000000 		.4byte	.LFE26
 8788 12ff 0400     		.2byte	0x4
 8789 1301 F3       		.byte	0xf3
 8790 1302 01       		.uleb128 0x1
 8791 1303 50       		.byte	0x50
 8792 1304 9F       		.byte	0x9f
 8793 1305 00000000 		.4byte	0
 8794 1309 00000000 		.4byte	0
 8795              	.LLST77:
 8796 130d 00000000 		.4byte	.LVL340
 8797 1311 1C000000 		.4byte	.LVL343
 8798 1315 0100     		.2byte	0x1
 8799 1317 51       		.byte	0x51
 8800 1318 1C000000 		.4byte	.LVL343
 8801 131c AC000000 		.4byte	.LFE26
 8802 1320 0200     		.2byte	0x2
 8803 1322 91       		.byte	0x91
 8804 1323 64       		.sleb128 -28
 8805 1324 00000000 		.4byte	0
 8806 1328 00000000 		.4byte	0
 8807              	.LLST78:
 8808 132c 00000000 		.4byte	.LVL340
 8809 1330 1C000000 		.4byte	.LVL343
 8810 1334 0100     		.2byte	0x1
 8811 1336 52       		.byte	0x52
 8812 1337 1C000000 		.4byte	.LVL343
 8813 133b 90000000 		.4byte	.LVL361
 8814 133f 0100     		.2byte	0x1
 8815 1341 59       		.byte	0x59
ARM GAS  C:\Users\Phuong\AppData\Local\Temp\cciPItDa.s 			page 178


 8816 1342 90000000 		.4byte	.LVL361
 8817 1346 AC000000 		.4byte	.LFE26
 8818 134a 0400     		.2byte	0x4
 8819 134c F3       		.byte	0xf3
 8820 134d 01       		.uleb128 0x1
 8821 134e 52       		.byte	0x52
 8822 134f 9F       		.byte	0x9f
 8823 1350 00000000 		.4byte	0
 8824 1354 00000000 		.4byte	0
 8825              	.LLST79:
 8826 1358 4C000000 		.4byte	.LVL344
 8827 135c 58000000 		.4byte	.LVL346
 8828 1360 0100     		.2byte	0x1
 8829 1362 50       		.byte	0x50
 8830 1363 70000000 		.4byte	.LVL348
 8831 1367 7A000000 		.4byte	.LVL349
 8832 136b 0100     		.2byte	0x1
 8833 136d 50       		.byte	0x50
 8834 136e 80000000 		.4byte	.LVL350
 8835 1372 82000000 		.4byte	.LVL351
 8836 1376 0100     		.2byte	0x1
 8837 1378 50       		.byte	0x50
 8838 1379 84000000 		.4byte	.LVL352
 8839 137d 86000000 		.4byte	.LVL353
 8840 1381 0100     		.2byte	0x1
 8841 1383 50       		.byte	0x50
 8842 1384 88000000 		.4byte	.LVL354
 8843 1388 8A000000 		.4byte	.LVL355
 8844 138c 0100     		.2byte	0x1
 8845 138e 50       		.byte	0x50
 8846 138f 8C000000 		.4byte	.LVL356
 8847 1393 8E000000 		.4byte	.LVL357
 8848 1397 0100     		.2byte	0x1
 8849 1399 50       		.byte	0x50
 8850 139a 00000000 		.4byte	0
 8851 139e 00000000 		.4byte	0
 8852              	.LLST80:
 8853 13a2 16000000 		.4byte	.LVL342
 8854 13a6 1C000000 		.4byte	.LVL343
 8855 13aa 0200     		.2byte	0x2
 8856 13ac 30       		.byte	0x30
 8857 13ad 9F       		.byte	0x9f
 8858 13ae 1C000000 		.4byte	.LVL343
 8859 13b2 90000000 		.4byte	.LVL358
 8860 13b6 0100     		.2byte	0x1
 8861 13b8 54       		.byte	0x54
 8862 13b9 00000000 		.4byte	0
 8863 13bd 00000000 		.4byte	0
 8864              	.LLST81:
 8865 13c1 0E000000 		.4byte	.LVL341
 8866 13c5 1C000000 		.4byte	.LVL343
 8867 13c9 0100     		.2byte	0x1
 8868 13cb 51       		.byte	0x51
 8869 13cc 1C000000 		.4byte	.LVL343
 8870 13d0 90000000 		.4byte	.LVL359
 8871 13d4 0100     		.2byte	0x1
 8872 13d6 55       		.byte	0x55
ARM GAS  C:\Users\Phuong\AppData\Local\Temp\cciPItDa.s 			page 179


 8873 13d7 00000000 		.4byte	0
 8874 13db 00000000 		.4byte	0
 8875              	.LLST82:
 8876 13df 16000000 		.4byte	.LVL342
 8877 13e3 90000000 		.4byte	.LVL360
 8878 13e7 0100     		.2byte	0x1
 8879 13e9 56       		.byte	0x56
 8880 13ea 00000000 		.4byte	0
 8881 13ee 00000000 		.4byte	0
 8882              	.LLST83:
 8883 13f2 0E000000 		.4byte	.LVL341
 8884 13f6 1C000000 		.4byte	.LVL343
 8885 13fa 0100     		.2byte	0x1
 8886 13fc 50       		.byte	0x50
 8887 13fd 1C000000 		.4byte	.LVL343
 8888 1401 56000000 		.4byte	.LVL345
 8889 1405 0100     		.2byte	0x1
 8890 1407 57       		.byte	0x57
 8891 1408 56000000 		.4byte	.LVL345
 8892 140c 58000000 		.4byte	.LVL346
 8893 1410 0600     		.2byte	0x6
 8894 1412 77       		.byte	0x77
 8895 1413 00       		.sleb128 0
 8896 1414 70       		.byte	0x70
 8897 1415 00       		.sleb128 0
 8898 1416 22       		.byte	0x22
 8899 1417 9F       		.byte	0x9f
 8900 1418 58000000 		.4byte	.LVL346
 8901 141c 7A000000 		.4byte	.LVL349
 8902 1420 0100     		.2byte	0x1
 8903 1422 57       		.byte	0x57
 8904 1423 80000000 		.4byte	.LVL350
 8905 1427 8E000000 		.4byte	.LVL357
 8906 142b 0100     		.2byte	0x1
 8907 142d 57       		.byte	0x57
 8908 142e 00000000 		.4byte	0
 8909 1432 00000000 		.4byte	0
 8910              	.LLST84:
 8911 1436 00000000 		.4byte	.LVL362
 8912 143a 1A000000 		.4byte	.LVL367
 8913 143e 0100     		.2byte	0x1
 8914 1440 50       		.byte	0x50
 8915 1441 1A000000 		.4byte	.LVL367
 8916 1445 48000000 		.4byte	.LVL374
 8917 1449 0100     		.2byte	0x1
 8918 144b 55       		.byte	0x55
 8919 144c 48000000 		.4byte	.LVL374
 8920 1450 A4000000 		.4byte	.LVL391
 8921 1454 0400     		.2byte	0x4
 8922 1456 F3       		.byte	0xf3
 8923 1457 01       		.uleb128 0x1
 8924 1458 50       		.byte	0x50
 8925 1459 9F       		.byte	0x9f
 8926 145a A4000000 		.4byte	.LVL391
 8927 145e AC000000 		.4byte	.LVL395
 8928 1462 0100     		.2byte	0x1
 8929 1464 55       		.byte	0x55
ARM GAS  C:\Users\Phuong\AppData\Local\Temp\cciPItDa.s 			page 180


 8930 1465 AC000000 		.4byte	.LVL395
 8931 1469 CC000000 		.4byte	.LFE27
 8932 146d 0400     		.2byte	0x4
 8933 146f F3       		.byte	0xf3
 8934 1470 01       		.uleb128 0x1
 8935 1471 50       		.byte	0x50
 8936 1472 9F       		.byte	0x9f
 8937 1473 00000000 		.4byte	0
 8938 1477 00000000 		.4byte	0
 8939              	.LLST85:
 8940 147b 00000000 		.4byte	.LVL362
 8941 147f 18000000 		.4byte	.LVL366
 8942 1483 0100     		.2byte	0x1
 8943 1485 51       		.byte	0x51
 8944 1486 18000000 		.4byte	.LVL366
 8945 148a B4000000 		.4byte	.LVL399
 8946 148e 0100     		.2byte	0x1
 8947 1490 54       		.byte	0x54
 8948 1491 B4000000 		.4byte	.LVL399
 8949 1495 CC000000 		.4byte	.LFE27
 8950 1499 0400     		.2byte	0x4
 8951 149b F3       		.byte	0xf3
 8952 149c 01       		.uleb128 0x1
 8953 149d 51       		.byte	0x51
 8954 149e 9F       		.byte	0x9f
 8955 149f 00000000 		.4byte	0
 8956 14a3 00000000 		.4byte	0
 8957              	.LLST86:
 8958 14a7 00000000 		.4byte	.LVL362
 8959 14ab 1D000000 		.4byte	.LVL368-1
 8960 14af 0100     		.2byte	0x1
 8961 14b1 52       		.byte	0x52
 8962 14b2 1D000000 		.4byte	.LVL368-1
 8963 14b6 CC000000 		.4byte	.LFE27
 8964 14ba 0400     		.2byte	0x4
 8965 14bc F3       		.byte	0xf3
 8966 14bd 01       		.uleb128 0x1
 8967 14be 52       		.byte	0x52
 8968 14bf 9F       		.byte	0x9f
 8969 14c0 00000000 		.4byte	0
 8970 14c4 00000000 		.4byte	0
 8971              	.LLST87:
 8972 14c8 00000000 		.4byte	.LVL362
 8973 14cc 10000000 		.4byte	.LVL363
 8974 14d0 0100     		.2byte	0x1
 8975 14d2 53       		.byte	0x53
 8976 14d3 10000000 		.4byte	.LVL363
 8977 14d7 CC000000 		.4byte	.LFE27
 8978 14db 0400     		.2byte	0x4
 8979 14dd F3       		.byte	0xf3
 8980 14de 01       		.uleb128 0x1
 8981 14df 53       		.byte	0x53
 8982 14e0 9F       		.byte	0x9f
 8983 14e1 00000000 		.4byte	0
 8984 14e5 00000000 		.4byte	0
 8985              	.LLST88:
 8986 14e9 00000000 		.4byte	.LVL362
ARM GAS  C:\Users\Phuong\AppData\Local\Temp\cciPItDa.s 			page 181


 8987 14ed 10000000 		.4byte	.LVL363
 8988 14f1 0200     		.2byte	0x2
 8989 14f3 91       		.byte	0x91
 8990 14f4 00       		.sleb128 0
 8991 14f5 10000000 		.4byte	.LVL363
 8992 14f9 14000000 		.4byte	.LVL365
 8993 14fd 0200     		.2byte	0x2
 8994 14ff 73       		.byte	0x73
 8995 1500 00       		.sleb128 0
 8996 1501 14000000 		.4byte	.LVL365
 8997 1505 CC000000 		.4byte	.LFE27
 8998 1509 0200     		.2byte	0x2
 8999 150b 91       		.byte	0x91
 9000 150c 00       		.sleb128 0
 9001 150d 00000000 		.4byte	0
 9002 1511 00000000 		.4byte	0
 9003              	.LLST89:
 9004 1515 00000000 		.4byte	.LVL362
 9005 1519 10000000 		.4byte	.LVL363
 9006 151d 0200     		.2byte	0x2
 9007 151f 91       		.byte	0x91
 9008 1520 04       		.sleb128 4
 9009 1521 10000000 		.4byte	.LVL363
 9010 1525 14000000 		.4byte	.LVL365
 9011 1529 0200     		.2byte	0x2
 9012 152b 73       		.byte	0x73
 9013 152c 04       		.sleb128 4
 9014 152d 14000000 		.4byte	.LVL365
 9015 1531 CC000000 		.4byte	.LFE27
 9016 1535 0200     		.2byte	0x2
 9017 1537 91       		.byte	0x91
 9018 1538 04       		.sleb128 4
 9019 1539 00000000 		.4byte	0
 9020 153d 00000000 		.4byte	0
 9021              	.LLST90:
 9022 1541 1E000000 		.4byte	.LVL368
 9023 1545 28000000 		.4byte	.LVL369
 9024 1549 0100     		.2byte	0x1
 9025 154b 50       		.byte	0x50
 9026 154c 2C000000 		.4byte	.LVL370
 9027 1550 36000000 		.4byte	.LVL371
 9028 1554 0100     		.2byte	0x1
 9029 1556 50       		.byte	0x50
 9030 1557 3A000000 		.4byte	.LVL372
 9031 155b 4E000000 		.4byte	.LVL376
 9032 155f 0100     		.2byte	0x1
 9033 1561 50       		.byte	0x50
 9034 1562 90000000 		.4byte	.LVL388
 9035 1566 A2000000 		.4byte	.LVL390
 9036 156a 0100     		.2byte	0x1
 9037 156c 50       		.byte	0x50
 9038 156d A4000000 		.4byte	.LVL391
 9039 1571 A6000000 		.4byte	.LVL392
 9040 1575 0100     		.2byte	0x1
 9041 1577 50       		.byte	0x50
 9042 1578 A8000000 		.4byte	.LVL393
 9043 157c AA000000 		.4byte	.LVL394
ARM GAS  C:\Users\Phuong\AppData\Local\Temp\cciPItDa.s 			page 182


 9044 1580 0100     		.2byte	0x1
 9045 1582 50       		.byte	0x50
 9046 1583 AC000000 		.4byte	.LVL395
 9047 1587 AE000000 		.4byte	.LVL396
 9048 158b 0100     		.2byte	0x1
 9049 158d 50       		.byte	0x50
 9050 158e B0000000 		.4byte	.LVL397
 9051 1592 B2000000 		.4byte	.LVL398
 9052 1596 0100     		.2byte	0x1
 9053 1598 50       		.byte	0x50
 9054 1599 00000000 		.4byte	0
 9055 159d 00000000 		.4byte	0
 9056              	.LLST91:
 9057 15a1 12000000 		.4byte	.LVL364
 9058 15a5 1A000000 		.4byte	.LVL367
 9059 15a9 0100     		.2byte	0x1
 9060 15ab 50       		.byte	0x50
 9061 15ac 1A000000 		.4byte	.LVL367
 9062 15b0 9E000000 		.4byte	.LVL389
 9063 15b4 0100     		.2byte	0x1
 9064 15b6 55       		.byte	0x55
 9065 15b7 A4000000 		.4byte	.LVL391
 9066 15bb B2000000 		.4byte	.LVL398
 9067 15bf 0100     		.2byte	0x1
 9068 15c1 55       		.byte	0x55
 9069 15c2 00000000 		.4byte	0
 9070 15c6 00000000 		.4byte	0
 9071              	.LLST92:
 9072 15ca 12000000 		.4byte	.LVL364
 9073 15ce 18000000 		.4byte	.LVL366
 9074 15d2 0100     		.2byte	0x1
 9075 15d4 51       		.byte	0x51
 9076 15d5 18000000 		.4byte	.LVL366
 9077 15d9 46000000 		.4byte	.LVL373
 9078 15dd 0100     		.2byte	0x1
 9079 15df 54       		.byte	0x54
 9080 15e0 46000000 		.4byte	.LVL373
 9081 15e4 51000000 		.4byte	.LVL377-1
 9082 15e8 0100     		.2byte	0x1
 9083 15ea 53       		.byte	0x53
 9084 15eb 51000000 		.4byte	.LVL377-1
 9085 15ef 9E000000 		.4byte	.LVL389
 9086 15f3 0100     		.2byte	0x1
 9087 15f5 58       		.byte	0x58
 9088 15f6 9E000000 		.4byte	.LVL389
 9089 15fa A4000000 		.4byte	.LVL391
 9090 15fe 0100     		.2byte	0x1
 9091 1600 53       		.byte	0x53
 9092 1601 A4000000 		.4byte	.LVL391
 9093 1605 AC000000 		.4byte	.LVL395
 9094 1609 0100     		.2byte	0x1
 9095 160b 54       		.byte	0x54
 9096 160c AC000000 		.4byte	.LVL395
 9097 1610 B2000000 		.4byte	.LVL398
 9098 1614 0100     		.2byte	0x1
 9099 1616 58       		.byte	0x58
 9100 1617 00000000 		.4byte	0
ARM GAS  C:\Users\Phuong\AppData\Local\Temp\cciPItDa.s 			page 183


 9101 161b 00000000 		.4byte	0
 9102              	.LLST93:
 9103 161f 4C000000 		.4byte	.LVL375
 9104 1623 9E000000 		.4byte	.LVL389
 9105 1627 0200     		.2byte	0x2
 9106 1629 91       		.byte	0x91
 9107 162a 04       		.sleb128 4
 9108 162b AC000000 		.4byte	.LVL395
 9109 162f B2000000 		.4byte	.LVL398
 9110 1633 0200     		.2byte	0x2
 9111 1635 91       		.byte	0x91
 9112 1636 04       		.sleb128 4
 9113 1637 00000000 		.4byte	0
 9114 163b 00000000 		.4byte	0
 9115              	.LLST94:
 9116 163f 54000000 		.4byte	.LVL378
 9117 1643 58000000 		.4byte	.LVL379
 9118 1647 0100     		.2byte	0x1
 9119 1649 50       		.byte	0x50
 9120 164a 58000000 		.4byte	.LVL379
 9121 164e 6A000000 		.4byte	.LVL384
 9122 1652 0100     		.2byte	0x1
 9123 1654 57       		.byte	0x57
 9124 1655 6C000000 		.4byte	.LVL385
 9125 1659 6E000000 		.4byte	.LVL386
 9126 165d 0100     		.2byte	0x1
 9127 165f 57       		.byte	0x57
 9128 1660 00000000 		.4byte	0
 9129 1664 00000000 		.4byte	0
 9130              	.LLST95:
 9131 1668 5E000000 		.4byte	.LVL381
 9132 166c 64000000 		.4byte	.LVL382
 9133 1670 0100     		.2byte	0x1
 9134 1672 50       		.byte	0x50
 9135 1673 64000000 		.4byte	.LVL382
 9136 1677 6C000000 		.4byte	.LVL385
 9137 167b 0100     		.2byte	0x1
 9138 167d 56       		.byte	0x56
 9139 167e 6C000000 		.4byte	.LVL385
 9140 1682 6E000000 		.4byte	.LVL386
 9141 1686 0100     		.2byte	0x1
 9142 1688 50       		.byte	0x50
 9143 1689 6E000000 		.4byte	.LVL386
 9144 168d 9E000000 		.4byte	.LVL389
 9145 1691 0100     		.2byte	0x1
 9146 1693 56       		.byte	0x56
 9147 1694 AC000000 		.4byte	.LVL395
 9148 1698 B2000000 		.4byte	.LVL398
 9149 169c 0100     		.2byte	0x1
 9150 169e 56       		.byte	0x56
 9151 169f 00000000 		.4byte	0
 9152 16a3 00000000 		.4byte	0
 9153              	.LLST96:
 9154 16a7 00000000 		.4byte	.LVL400
 9155 16ab 0B000000 		.4byte	.LVL403-1
 9156 16af 0100     		.2byte	0x1
 9157 16b1 50       		.byte	0x50
ARM GAS  C:\Users\Phuong\AppData\Local\Temp\cciPItDa.s 			page 184


 9158 16b2 0B000000 		.4byte	.LVL403-1
 9159 16b6 28000000 		.4byte	.LFE28
 9160 16ba 0400     		.2byte	0x4
 9161 16bc F3       		.byte	0xf3
 9162 16bd 01       		.uleb128 0x1
 9163 16be 50       		.byte	0x50
 9164 16bf 9F       		.byte	0x9f
 9165 16c0 00000000 		.4byte	0
 9166 16c4 00000000 		.4byte	0
 9167              	.LLST97:
 9168 16c8 00000000 		.4byte	.LVL400
 9169 16cc 0B000000 		.4byte	.LVL403-1
 9170 16d0 0100     		.2byte	0x1
 9171 16d2 51       		.byte	0x51
 9172 16d3 0B000000 		.4byte	.LVL403-1
 9173 16d7 1E000000 		.4byte	.LVL409
 9174 16db 0100     		.2byte	0x1
 9175 16dd 54       		.byte	0x54
 9176 16de 1E000000 		.4byte	.LVL409
 9177 16e2 28000000 		.4byte	.LFE28
 9178 16e6 0400     		.2byte	0x4
 9179 16e8 F3       		.byte	0xf3
 9180 16e9 01       		.uleb128 0x1
 9181 16ea 51       		.byte	0x51
 9182 16eb 9F       		.byte	0x9f
 9183 16ec 00000000 		.4byte	0
 9184 16f0 00000000 		.4byte	0
 9185              	.LLST98:
 9186 16f4 00000000 		.4byte	.LVL400
 9187 16f8 08000000 		.4byte	.LVL402
 9188 16fc 0100     		.2byte	0x1
 9189 16fe 52       		.byte	0x52
 9190 16ff 08000000 		.4byte	.LVL402
 9191 1703 0B000000 		.4byte	.LVL403-1
 9192 1707 0100     		.2byte	0x1
 9193 1709 53       		.byte	0x53
 9194 170a 0B000000 		.4byte	.LVL403-1
 9195 170e 28000000 		.4byte	.LFE28
 9196 1712 0400     		.2byte	0x4
 9197 1714 F3       		.byte	0xf3
 9198 1715 01       		.uleb128 0x1
 9199 1716 52       		.byte	0x52
 9200 1717 9F       		.byte	0x9f
 9201 1718 00000000 		.4byte	0
 9202 171c 00000000 		.4byte	0
 9203              	.LLST99:
 9204 1720 06000000 		.4byte	.LVL401
 9205 1724 0B000000 		.4byte	.LVL403-1
 9206 1728 0100     		.2byte	0x1
 9207 172a 50       		.byte	0x50
 9208 172b 0B000000 		.4byte	.LVL403-1
 9209 172f 28000000 		.4byte	.LFE28
 9210 1733 0400     		.2byte	0x4
 9211 1735 F3       		.byte	0xf3
 9212 1736 01       		.uleb128 0x1
 9213 1737 50       		.byte	0x50
 9214 1738 9F       		.byte	0x9f
ARM GAS  C:\Users\Phuong\AppData\Local\Temp\cciPItDa.s 			page 185


 9215 1739 00000000 		.4byte	0
 9216 173d 00000000 		.4byte	0
 9217              	.LLST100:
 9218 1741 06000000 		.4byte	.LVL401
 9219 1745 0B000000 		.4byte	.LVL403-1
 9220 1749 0100     		.2byte	0x1
 9221 174b 51       		.byte	0x51
 9222 174c 0B000000 		.4byte	.LVL403-1
 9223 1750 1E000000 		.4byte	.LVL409
 9224 1754 0100     		.2byte	0x1
 9225 1756 54       		.byte	0x54
 9226 1757 1E000000 		.4byte	.LVL409
 9227 175b 28000000 		.4byte	.LFE28
 9228 175f 0400     		.2byte	0x4
 9229 1761 F3       		.byte	0xf3
 9230 1762 01       		.uleb128 0x1
 9231 1763 51       		.byte	0x51
 9232 1764 9F       		.byte	0x9f
 9233 1765 00000000 		.4byte	0
 9234 1769 00000000 		.4byte	0
 9235              	.LLST101:
 9236 176d 0C000000 		.4byte	.LVL403
 9237 1771 16000000 		.4byte	.LVL404
 9238 1775 0100     		.2byte	0x1
 9239 1777 50       		.byte	0x50
 9240 1778 18000000 		.4byte	.LVL405
 9241 177c 1A000000 		.4byte	.LVL406
 9242 1780 0100     		.2byte	0x1
 9243 1782 50       		.byte	0x50
 9244 1783 1C000000 		.4byte	.LVL407
 9245 1787 1E000000 		.4byte	.LVL408
 9246 178b 0100     		.2byte	0x1
 9247 178d 50       		.byte	0x50
 9248 178e 00000000 		.4byte	0
 9249 1792 00000000 		.4byte	0
 9250              	.LLST102:
 9251 1796 00000000 		.4byte	.LVL410
 9252 179a 02000000 		.4byte	.LVL411
 9253 179e 0100     		.2byte	0x1
 9254 17a0 50       		.byte	0x50
 9255 17a1 02000000 		.4byte	.LVL411
 9256 17a5 04000000 		.4byte	.LFE29
 9257 17a9 0400     		.2byte	0x4
 9258 17ab F3       		.byte	0xf3
 9259 17ac 01       		.uleb128 0x1
 9260 17ad 50       		.byte	0x50
 9261 17ae 9F       		.byte	0x9f
 9262 17af 00000000 		.4byte	0
 9263 17b3 00000000 		.4byte	0
 9264              	.LLST103:
 9265 17b7 00000000 		.4byte	.LVL412
 9266 17bb 02000000 		.4byte	.LVL413
 9267 17bf 0100     		.2byte	0x1
 9268 17c1 50       		.byte	0x50
 9269 17c2 02000000 		.4byte	.LVL413
 9270 17c6 04000000 		.4byte	.LFE30
 9271 17ca 0400     		.2byte	0x4
ARM GAS  C:\Users\Phuong\AppData\Local\Temp\cciPItDa.s 			page 186


 9272 17cc F3       		.byte	0xf3
 9273 17cd 01       		.uleb128 0x1
 9274 17ce 50       		.byte	0x50
 9275 17cf 9F       		.byte	0x9f
 9276 17d0 00000000 		.4byte	0
 9277 17d4 00000000 		.4byte	0
 9278              	.LLST104:
 9279 17d8 00000000 		.4byte	.LVL414
 9280 17dc 0C000000 		.4byte	.LVL415
 9281 17e0 0100     		.2byte	0x1
 9282 17e2 50       		.byte	0x50
 9283 17e3 0C000000 		.4byte	.LVL415
 9284 17e7 B2000000 		.4byte	.LVL438
 9285 17eb 0100     		.2byte	0x1
 9286 17ed 55       		.byte	0x55
 9287 17ee B2000000 		.4byte	.LVL438
 9288 17f2 D8000000 		.4byte	.LFE31
 9289 17f6 0400     		.2byte	0x4
 9290 17f8 F3       		.byte	0xf3
 9291 17f9 01       		.uleb128 0x1
 9292 17fa 50       		.byte	0x50
 9293 17fb 9F       		.byte	0x9f
 9294 17fc 00000000 		.4byte	0
 9295 1800 00000000 		.4byte	0
 9296              	.LLST105:
 9297 1804 26000000 		.4byte	.LVL419
 9298 1808 2E000000 		.4byte	.LVL420
 9299 180c 0100     		.2byte	0x1
 9300 180e 50       		.byte	0x50
 9301 180f 2E000000 		.4byte	.LVL420
 9302 1813 4C000000 		.4byte	.LVL424
 9303 1817 0100     		.2byte	0x1
 9304 1819 54       		.byte	0x54
 9305 181a 4C000000 		.4byte	.LVL424
 9306 181e 54000000 		.4byte	.LVL425
 9307 1822 0100     		.2byte	0x1
 9308 1824 50       		.byte	0x50
 9309 1825 54000000 		.4byte	.LVL425
 9310 1829 7E000000 		.4byte	.LVL429
 9311 182d 0100     		.2byte	0x1
 9312 182f 54       		.byte	0x54
 9313 1830 7E000000 		.4byte	.LVL429
 9314 1834 86000000 		.4byte	.LVL430
 9315 1838 0100     		.2byte	0x1
 9316 183a 50       		.byte	0x50
 9317 183b 86000000 		.4byte	.LVL430
 9318 183f A8000000 		.4byte	.LVL435
 9319 1843 0100     		.2byte	0x1
 9320 1845 54       		.byte	0x54
 9321 1846 A8000000 		.4byte	.LVL435
 9322 184a AC000000 		.4byte	.LVL436
 9323 184e 0100     		.2byte	0x1
 9324 1850 50       		.byte	0x50
 9325 1851 AC000000 		.4byte	.LVL436
 9326 1855 B2000000 		.4byte	.LVL437
 9327 1859 0100     		.2byte	0x1
 9328 185b 54       		.byte	0x54
ARM GAS  C:\Users\Phuong\AppData\Local\Temp\cciPItDa.s 			page 187


 9329 185c 00000000 		.4byte	0
 9330 1860 00000000 		.4byte	0
 9331              		.section	.debug_aranges,"",%progbits
 9332 0000 BC000000 		.4byte	0xbc
 9333 0004 0200     		.2byte	0x2
 9334 0006 00000000 		.4byte	.Ldebug_info0
 9335 000a 04       		.byte	0x4
 9336 000b 00       		.byte	0
 9337 000c 0000     		.2byte	0
 9338 000e 0000     		.2byte	0
 9339 0010 00000000 		.4byte	.LFB18
 9340 0014 44000000 		.4byte	.LFE18-.LFB18
 9341 0018 00000000 		.4byte	.LFB19
 9342 001c 94000000 		.4byte	.LFE19-.LFB19
 9343 0020 00000000 		.4byte	.LFB20
 9344 0024 D0000000 		.4byte	.LFE20-.LFB20
 9345 0028 00000000 		.4byte	.LFB16
 9346 002c C4000000 		.4byte	.LFE16-.LFB16
 9347 0030 00000000 		.4byte	.LFB14
 9348 0034 A8000000 		.4byte	.LFE14-.LFB14
 9349 0038 00000000 		.4byte	.LFB11
 9350 003c 5C000000 		.4byte	.LFE11-.LFB11
 9351 0040 00000000 		.4byte	.LFB12
 9352 0044 1C000000 		.4byte	.LFE12-.LFB12
 9353 0048 00000000 		.4byte	.LFB13
 9354 004c 1C000000 		.4byte	.LFE13-.LFB13
 9355 0050 00000000 		.4byte	.LFB15
 9356 0054 E8010000 		.4byte	.LFE15-.LFB15
 9357 0058 00000000 		.4byte	.LFB17
 9358 005c 84000000 		.4byte	.LFE17-.LFB17
 9359 0060 00000000 		.4byte	.LFB21
 9360 0064 5C000000 		.4byte	.LFE21-.LFB21
 9361 0068 00000000 		.4byte	.LFB22
 9362 006c 48000000 		.4byte	.LFE22-.LFB22
 9363 0070 00000000 		.4byte	.LFB23
 9364 0074 8C000000 		.4byte	.LFE23-.LFB23
 9365 0078 00000000 		.4byte	.LFB24
 9366 007c 68000000 		.4byte	.LFE24-.LFB24
 9367 0080 00000000 		.4byte	.LFB25
 9368 0084 10010000 		.4byte	.LFE25-.LFB25
 9369 0088 00000000 		.4byte	.LFB26
 9370 008c AC000000 		.4byte	.LFE26-.LFB26
 9371 0090 00000000 		.4byte	.LFB27
 9372 0094 CC000000 		.4byte	.LFE27-.LFB27
 9373 0098 00000000 		.4byte	.LFB28
 9374 009c 28000000 		.4byte	.LFE28-.LFB28
 9375 00a0 00000000 		.4byte	.LFB29
 9376 00a4 04000000 		.4byte	.LFE29-.LFB29
 9377 00a8 00000000 		.4byte	.LFB30
 9378 00ac 04000000 		.4byte	.LFE30-.LFB30
 9379 00b0 00000000 		.4byte	.LFB31
 9380 00b4 D8000000 		.4byte	.LFE31-.LFB31
 9381 00b8 00000000 		.4byte	0
 9382 00bc 00000000 		.4byte	0
 9383              		.section	.debug_ranges,"",%progbits
 9384              	.Ldebug_ranges0:
 9385 0000 2A000000 		.4byte	.LBB3
ARM GAS  C:\Users\Phuong\AppData\Local\Temp\cciPItDa.s 			page 188


 9386 0004 52000000 		.4byte	.LBE3
 9387 0008 6E000000 		.4byte	.LBB4
 9388 000c 72000000 		.4byte	.LBE4
 9389 0010 00000000 		.4byte	0
 9390 0014 00000000 		.4byte	0
 9391 0018 4C000000 		.4byte	.LBB5
 9392 001c 9E000000 		.4byte	.LBE5
 9393 0020 AC000000 		.4byte	.LBB6
 9394 0024 B2000000 		.4byte	.LBE6
 9395 0028 00000000 		.4byte	0
 9396 002c 00000000 		.4byte	0
 9397 0030 00000000 		.4byte	.LFB18
 9398 0034 44000000 		.4byte	.LFE18
 9399 0038 00000000 		.4byte	.LFB19
 9400 003c 94000000 		.4byte	.LFE19
 9401 0040 00000000 		.4byte	.LFB20
 9402 0044 D0000000 		.4byte	.LFE20
 9403 0048 00000000 		.4byte	.LFB16
 9404 004c C4000000 		.4byte	.LFE16
 9405 0050 00000000 		.4byte	.LFB14
 9406 0054 A8000000 		.4byte	.LFE14
 9407 0058 00000000 		.4byte	.LFB11
 9408 005c 5C000000 		.4byte	.LFE11
 9409 0060 00000000 		.4byte	.LFB12
 9410 0064 1C000000 		.4byte	.LFE12
 9411 0068 00000000 		.4byte	.LFB13
 9412 006c 1C000000 		.4byte	.LFE13
 9413 0070 00000000 		.4byte	.LFB15
 9414 0074 E8010000 		.4byte	.LFE15
 9415 0078 00000000 		.4byte	.LFB17
 9416 007c 84000000 		.4byte	.LFE17
 9417 0080 00000000 		.4byte	.LFB21
 9418 0084 5C000000 		.4byte	.LFE21
 9419 0088 00000000 		.4byte	.LFB22
 9420 008c 48000000 		.4byte	.LFE22
 9421 0090 00000000 		.4byte	.LFB23
 9422 0094 8C000000 		.4byte	.LFE23
 9423 0098 00000000 		.4byte	.LFB24
 9424 009c 68000000 		.4byte	.LFE24
 9425 00a0 00000000 		.4byte	.LFB25
 9426 00a4 10010000 		.4byte	.LFE25
 9427 00a8 00000000 		.4byte	.LFB26
 9428 00ac AC000000 		.4byte	.LFE26
 9429 00b0 00000000 		.4byte	.LFB27
 9430 00b4 CC000000 		.4byte	.LFE27
 9431 00b8 00000000 		.4byte	.LFB28
 9432 00bc 28000000 		.4byte	.LFE28
 9433 00c0 00000000 		.4byte	.LFB29
 9434 00c4 04000000 		.4byte	.LFE29
 9435 00c8 00000000 		.4byte	.LFB30
 9436 00cc 04000000 		.4byte	.LFE30
 9437 00d0 00000000 		.4byte	.LFB31
 9438 00d4 D8000000 		.4byte	.LFE31
 9439 00d8 00000000 		.4byte	0
 9440 00dc 00000000 		.4byte	0
 9441              		.section	.debug_line,"",%progbits
 9442              	.Ldebug_line0:
ARM GAS  C:\Users\Phuong\AppData\Local\Temp\cciPItDa.s 			page 189


 9443 0000 0D070000 		.section	.debug_str,"MS",%progbits,1
 9443      0200BD02 
 9443      00000201 
 9443      FB0E0D00 
 9443      01010101 
 9444              	.LASF88:
 9445 0000 70617261 		.ascii	"params\000"
 9445      6D7300
 9446              	.LASF111:
 9447 0007 6E616D65 		.ascii	"name\000"
 9447      00
 9448              	.LASF122:
 9449 000c 66726F6D 		.ascii	"from\000"
 9449      00
 9450              	.LASF65:
 9451 0011 76335F65 		.ascii	"v3_ext\000"
 9451      787400
 9452              	.LASF79:
 9453 0018 78353039 		.ascii	"x509_parse_time\000"
 9453      5F706172 
 9453      73655F74 
 9453      696D6500 
 9454              	.LASF71:
 9455 0028 6578745F 		.ascii	"ext_key_usage\000"
 9455      6B65795F 
 9455      75736167 
 9455      6500
 9456              	.LASF68:
 9457 0036 63615F69 		.ascii	"ca_istrue\000"
 9457      73747275 
 9457      6500
 9458              	.LASF34:
 9459 0040 4D424544 		.ascii	"MBEDTLS_PK_ECKEY_DH\000"
 9459      544C535F 
 9459      504B5F45 
 9459      434B4559 
 9459      5F444800 
 9460              	.LASF100:
 9461 0054 79656172 		.ascii	"year_len\000"
 9461      5F6C656E 
 9461      00
 9462              	.LASF57:
 9463 005d 69737375 		.ascii	"issuer_raw\000"
 9463      65725F72 
 9463      617700
 9464              	.LASF64:
 9465 0068 7375626A 		.ascii	"subject_id\000"
 9465      6563745F 
 9465      696400
 9466              	.LASF118:
 9467 0073 6D626564 		.ascii	"mbedtls_x509_key_size_helper\000"
 9467      746C735F 
 9467      78353039 
 9467      5F6B6579 
 9467      5F73697A 
 9468              	.LASF125:
 9469 0090 666C6167 		.ascii	"flags\000"
ARM GAS  C:\Users\Phuong\AppData\Local\Temp\cciPItDa.s 			page 190


 9469      7300
 9470              	.LASF28:
 9471 0096 6D626564 		.ascii	"mbedtls_md_type_t\000"
 9471      746C735F 
 9471      6D645F74 
 9471      7970655F 
 9471      7400
 9472              	.LASF148:
 9473 00a8 7072696E 		.ascii	"printf\000"
 9473      746600
 9474              	.LASF8:
 9475 00af 756E7369 		.ascii	"unsigned int\000"
 9475      676E6564 
 9475      20696E74 
 9475      00
 9476              	.LASF15:
 9477 00bc 6E657874 		.ascii	"next\000"
 9477      00
 9478              	.LASF54:
 9479 00c1 76657273 		.ascii	"version\000"
 9479      696F6E00 
 9480              	.LASF114:
 9481 00c9 6D626564 		.ascii	"mbedtls_x509_sig_alg_gets\000"
 9481      746C735F 
 9481      78353039 
 9481      5F736967 
 9481      5F616C67 
 9482              	.LASF131:
 9483 00e3 6D626564 		.ascii	"mbedtls_test_cli_crt_len\000"
 9483      746C735F 
 9483      74657374 
 9483      5F636C69 
 9483      5F637274 
 9484              	.LASF74:
 9485 00fc 7369675F 		.ascii	"sig_pk\000"
 9485      706B00
 9486              	.LASF113:
 9487 0103 6D626564 		.ascii	"mbedtls_x509_serial_gets\000"
 9487      746C735F 
 9487      78353039 
 9487      5F736572 
 9487      69616C5F 
 9488              	.LASF60:
 9489 011c 7375626A 		.ascii	"subject\000"
 9489      65637400 
 9490              	.LASF48:
 9491 0124 6D626564 		.ascii	"mbedtls_x509_sequence\000"
 9491      746C735F 
 9491      78353039 
 9491      5F736571 
 9491      75656E63 
 9492              	.LASF56:
 9493 013a 7369675F 		.ascii	"sig_oid\000"
 9493      6F696400 
 9494              	.LASF63:
 9495 0142 69737375 		.ascii	"issuer_id\000"
 9495      65725F69 
ARM GAS  C:\Users\Phuong\AppData\Local\Temp\cciPItDa.s 			page 191


 9495      6400
 9496              	.LASF83:
 9497 014c 6D645F61 		.ascii	"md_alg\000"
 9497      6C6700
 9498              	.LASF49:
 9499 0153 6D626564 		.ascii	"mbedtls_x509_time\000"
 9499      746C735F 
 9499      78353039 
 9499      5F74696D 
 9499      6500
 9500              	.LASF32:
 9501 0165 4D424544 		.ascii	"MBEDTLS_PK_RSA\000"
 9501      544C535F 
 9501      504B5F52 
 9501      534100
 9502              	.LASF23:
 9503 0174 4D424544 		.ascii	"MBEDTLS_MD_SHA224\000"
 9503      544C535F 
 9503      4D445F53 
 9503      48413232 
 9503      3400
 9504              	.LASF94:
 9505 0186 616C675F 		.ascii	"alg_params\000"
 9505      70617261 
 9505      6D7300
 9506              	.LASF139:
 9507 0191 63616C6C 		.ascii	"calloc\000"
 9507      6F6300
 9508              	.LASF82:
 9509 0198 78353039 		.ascii	"x509_get_hash_alg\000"
 9509      5F676574 
 9509      5F686173 
 9509      685F616C 
 9509      6700
 9510              	.LASF46:
 9511 01aa 6D626564 		.ascii	"mbedtls_x509_buf\000"
 9511      746C735F 
 9511      78353039 
 9511      5F627566 
 9511      00
 9512              	.LASF12:
 9513 01bb 75696E74 		.ascii	"uint32_t\000"
 9513      33325F74 
 9513      00
 9514              	.LASF75:
 9515 01c4 7369675F 		.ascii	"sig_opts\000"
 9515      6F707473 
 9515      00
 9516              	.LASF119:
 9517 01cd 6275665F 		.ascii	"buf_size\000"
 9517      73697A65 
 9517      00
 9518              	.LASF154:
 9519 01d6 536F7572 		.ascii	"Source\\mbedtls_open\\library\\x509.c\000"
 9519      63655C6D 
 9519      62656474 
 9519      6C735F6F 
ARM GAS  C:\Users\Phuong\AppData\Local\Temp\cciPItDa.s 			page 192


 9519      70656E5C 
 9520              	.LASF76:
 9521 01f9 78353039 		.ascii	"x509_parse_int\000"
 9521      5F706172 
 9521      73655F69 
 9521      6E7400
 9522              	.LASF58:
 9523 0208 7375626A 		.ascii	"subject_raw\000"
 9523      6563745F 
 9523      72617700 
 9524              	.LASF62:
 9525 0214 76616C69 		.ascii	"valid_to\000"
 9525      645F746F 
 9525      00
 9526              	.LASF153:
 9527 021d 474E5520 		.ascii	"GNU C11 5.4.1 20160609 (release) [ARM/embedded-5-br"
 9527      43313120 
 9527      352E342E 
 9527      31203230 
 9527      31363036 
 9528 0250 616E6368 		.ascii	"anch revision 237715] -mcpu=cortex-m0plus -mthumb -"
 9528      20726576 
 9528      6973696F 
 9528      6E203233 
 9528      37373135 
 9529 0283 67202D4F 		.ascii	"g -Og -ffunction-sections -ffat-lto-objects\000"
 9529      67202D66 
 9529      66756E63 
 9529      74696F6E 
 9529      2D736563 
 9530              	.LASF43:
 9531 02af 6D626564 		.ascii	"mbedtls_pk_context\000"
 9531      746C735F 
 9531      706B5F63 
 9531      6F6E7465 
 9531      787400
 9532              	.LASF69:
 9533 02c2 6D61785F 		.ascii	"max_pathlen\000"
 9533      70617468 
 9533      6C656E00 
 9534              	.LASF102:
 9535 02ce 7461675F 		.ascii	"tag_type\000"
 9535      74797065 
 9535      00
 9536              	.LASF7:
 9537 02d7 6C6F6E67 		.ascii	"long long unsigned int\000"
 9537      206C6F6E 
 9537      6720756E 
 9537      7369676E 
 9537      65642069 
 9538              	.LASF127:
 9539 02ee 636C6963 		.ascii	"clicert\000"
 9539      65727400 
 9540              	.LASF26:
 9541 02f6 4D424544 		.ascii	"MBEDTLS_MD_SHA512\000"
 9541      544C535F 
 9541      4D445F53 
ARM GAS  C:\Users\Phuong\AppData\Local\Temp\cciPItDa.s 			page 193


 9541      48413531 
 9541      3200
 9542              	.LASF33:
 9543 0308 4D424544 		.ascii	"MBEDTLS_PK_ECKEY\000"
 9543      544C535F 
 9543      504B5F45 
 9543      434B4559 
 9543      00
 9544              	.LASF86:
 9545 0319 6D626564 		.ascii	"mbedtls_x509_get_alg_null\000"
 9545      746C735F 
 9545      78353039 
 9545      5F676574 
 9545      5F616C67 
 9546              	.LASF70:
 9547 0333 6B65795F 		.ascii	"key_usage\000"
 9547      75736167 
 9547      6500
 9548              	.LASF36:
 9549 033d 4D424544 		.ascii	"MBEDTLS_PK_RSA_ALT\000"
 9549      544C535F 
 9549      504B5F52 
 9549      53415F41 
 9549      4C5400
 9550              	.LASF155:
 9551 0350 433A5C55 		.ascii	"C:\\Users\\Phuong\\Documents\\PSoC Creator\\Dec0820"
 9551      73657273 
 9551      5C506875 
 9551      6F6E675C 
 9551      446F6375 
 9552 037e 31385C69 		.ascii	"18\\iot-sdk-iot-dev\\PSOC6_FreeRTOS+LwIP+MbedTLS_Az"
 9552      6F742D73 
 9552      646B2D69 
 9552      6F742D64 
 9552      65765C50 
 9553 03af 7572652D 		.ascii	"ure-IOT-Hub-Demo\\PSOC6_FreeRTOS+LwIP+MbedTLS_Azure"
 9553      494F542D 
 9553      4875622D 
 9553      44656D6F 
 9553      5C50534F 
 9554 03e1 2D494F54 		.ascii	"-IOT-Hub-Demo.cydsn\000"
 9554      2D487562 
 9554      2D44656D 
 9554      6F2E6379 
 9554      64736E00 
 9555              	.LASF39:
 9556 03f5 6D626564 		.ascii	"mbedtls_pk_rsassa_pss_options\000"
 9556      746C735F 
 9556      706B5F72 
 9556      73617373 
 9556      615F7073 
 9557              	.LASF110:
 9558 0413 6D657267 		.ascii	"merge\000"
 9558      6500
 9559              	.LASF117:
 9560 0419 6D67665F 		.ascii	"mgf_md_info\000"
 9560      6D645F69 
ARM GAS  C:\Users\Phuong\AppData\Local\Temp\cciPItDa.s 			page 194


 9560      6E666F00 
 9561              	.LASF152:
 9562 0425 6D626564 		.ascii	"mbedtls_x509_crt_free\000"
 9562      746C735F 
 9562      78353039 
 9562      5F637274 
 9562      5F667265 
 9563              	.LASF157:
 9564 043b 70757473 		.ascii	"puts\000"
 9564      00
 9565              	.LASF10:
 9566 0440 73697A65 		.ascii	"size_t\000"
 9566      5F7400
 9567              	.LASF17:
 9568 0447 6E657874 		.ascii	"next_merged\000"
 9568      5F6D6572 
 9568      67656400 
 9569              	.LASF135:
 9570 0453 6D626564 		.ascii	"mbedtls_asn1_get_alg_null\000"
 9570      746C735F 
 9570      61736E31 
 9570      5F676574 
 9570      5F616C67 
 9571              	.LASF24:
 9572 046d 4D424544 		.ascii	"MBEDTLS_MD_SHA256\000"
 9572      544C535F 
 9572      4D445F53 
 9572      48413235 
 9572      3600
 9573              	.LASF89:
 9574 047f 6D626564 		.ascii	"mbedtls_x509_get_rsassa_pss_params\000"
 9574      746C735F 
 9574      78353039 
 9574      5F676574 
 9574      5F727361 
 9575              	.LASF132:
 9576 04a2 6D626564 		.ascii	"mbedtls_asn1_get_tag\000"
 9576      746C735F 
 9576      61736E31 
 9576      5F676574 
 9576      5F746167 
 9577              	.LASF78:
 9578 04b7 6D6F6E74 		.ascii	"month_len\000"
 9578      685F6C65 
 9578      6E00
 9579              	.LASF141:
 9580 04c1 66726565 		.ascii	"free\000"
 9580      00
 9581              	.LASF35:
 9582 04c6 4D424544 		.ascii	"MBEDTLS_PK_ECDSA\000"
 9582      544C535F 
 9582      504B5F45 
 9582      43445341 
 9582      00
 9583              	.LASF31:
 9584 04d7 4D424544 		.ascii	"MBEDTLS_PK_NONE\000"
 9584      544C535F 
ARM GAS  C:\Users\Phuong\AppData\Local\Temp\cciPItDa.s 			page 195


 9584      504B5F4E 
 9584      4F4E4500 
 9585              	.LASF90:
 9586 04e7 6D67665F 		.ascii	"mgf_md\000"
 9586      6D6400
 9587              	.LASF51:
 9588 04ee 686F7572 		.ascii	"hour\000"
 9588      00
 9589              	.LASF29:
 9590 04f3 6D626564 		.ascii	"mbedtls_md_info_t\000"
 9590      746C735F 
 9590      6D645F69 
 9590      6E666F5F 
 9590      7400
 9591              	.LASF67:
 9592 0505 6578745F 		.ascii	"ext_types\000"
 9592      74797065 
 9592      7300
 9593              	.LASF126:
 9594 050f 63616365 		.ascii	"cacert\000"
 9594      727400
 9595              	.LASF98:
 9596 0516 656E645F 		.ascii	"end_set\000"
 9596      73657400 
 9597              	.LASF53:
 9598 051e 6D626564 		.ascii	"mbedtls_x509_crt\000"
 9598      746C735F 
 9598      78353039 
 9598      5F637274 
 9598      00
 9599              	.LASF30:
 9600 052f 63686172 		.ascii	"char\000"
 9600      00
 9601              	.LASF151:
 9602 0534 6D626564 		.ascii	"mbedtls_x509_crt_verify\000"
 9602      746C735F 
 9602      78353039 
 9602      5F637274 
 9602      5F766572 
 9603              	.LASF66:
 9604 054c 7375626A 		.ascii	"subject_alt_names\000"
 9604      6563745F 
 9604      616C745F 
 9604      6E616D65 
 9604      7300
 9605              	.LASF150:
 9606 055e 6D626564 		.ascii	"mbedtls_x509_crt_parse\000"
 9606      746C735F 
 9606      78353039 
 9606      5F637274 
 9606      5F706172 
 9607              	.LASF133:
 9608 0575 6D626564 		.ascii	"mbedtls_asn1_get_len\000"
 9608      746C735F 
 9608      61736E31 
 9608      5F676574 
 9608      5F6C656E 
ARM GAS  C:\Users\Phuong\AppData\Local\Temp\cciPItDa.s 			page 196


 9609              	.LASF85:
 9610 058a 6D626564 		.ascii	"mbedtls_x509_get_serial\000"
 9610      746C735F 
 9610      78353039 
 9610      5F676574 
 9610      5F736572 
 9611              	.LASF38:
 9612 05a2 6D626564 		.ascii	"mbedtls_pk_type_t\000"
 9612      746C735F 
 9612      706B5F74 
 9612      7970655F 
 9612      7400
 9613              	.LASF158:
 9614 05b4 5F5F6275 		.ascii	"__builtin_puts\000"
 9614      696C7469 
 9614      6E5F7075 
 9614      747300
 9615              	.LASF140:
 9616 05c3 6D626564 		.ascii	"mbedtls_asn1_get_bitstring_null\000"
 9616      746C735F 
 9616      61736E31 
 9616      5F676574 
 9616      5F626974 
 9617              	.LASF59:
 9618 05e3 69737375 		.ascii	"issuer\000"
 9618      657200
 9619              	.LASF84:
 9620 05ea 6D645F6F 		.ascii	"md_oid\000"
 9620      696400
 9621              	.LASF104:
 9622 05f1 7369675F 		.ascii	"sig_params\000"
 9622      70617261 
 9622      6D7300
 9623              	.LASF47:
 9624 05fc 6D626564 		.ascii	"mbedtls_x509_name\000"
 9624      746C735F 
 9624      78353039 
 9624      5F6E616D 
 9624      6500
 9625              	.LASF105:
 9626 060e 706B5F61 		.ascii	"pk_alg\000"
 9626      6C6700
 9627              	.LASF72:
 9628 0615 6E735F63 		.ascii	"ns_cert_type\000"
 9628      6572745F 
 9628      74797065 
 9628      00
 9629              	.LASF6:
 9630 0622 6C6F6E67 		.ascii	"long long int\000"
 9630      206C6F6E 
 9630      6720696E 
 9630      7400
 9631              	.LASF128:
 9632 0630 6D626564 		.ascii	"mbedtls_test_ca_crt\000"
 9632      746C735F 
 9632      74657374 
 9632      5F63615F 
ARM GAS  C:\Users\Phuong\AppData\Local\Temp\cciPItDa.s 			page 197


 9632      63727400 
 9633              	.LASF99:
 9634 0644 6D626564 		.ascii	"mbedtls_x509_get_time\000"
 9634      746C735F 
 9634      78353039 
 9634      5F676574 
 9634      5F74696D 
 9635              	.LASF136:
 9636 065a 6D626564 		.ascii	"mbedtls_asn1_get_alg\000"
 9636      746C735F 
 9636      61736E31 
 9636      5F676574 
 9636      5F616C67 
 9637              	.LASF112:
 9638 066f 73686F72 		.ascii	"short_name\000"
 9638      745F6E61 
 9638      6D6500
 9639              	.LASF18:
 9640 067a 4D424544 		.ascii	"MBEDTLS_MD_NONE\000"
 9640      544C535F 
 9640      4D445F4E 
 9640      4F4E4500 
 9641              	.LASF156:
 9642 068a 6D656D73 		.ascii	"memset\000"
 9642      657400
 9643              	.LASF41:
 9644 0691 65787065 		.ascii	"expected_salt_len\000"
 9644      63746564 
 9644      5F73616C 
 9644      745F6C65 
 9644      6E00
 9645              	.LASF37:
 9646 06a3 4D424544 		.ascii	"MBEDTLS_PK_RSASSA_PSS\000"
 9646      544C535F 
 9646      504B5F52 
 9646      53415353 
 9646      415F5053 
 9647              	.LASF143:
 9648 06b9 736E7072 		.ascii	"snprintf\000"
 9648      696E7466 
 9648      00
 9649              	.LASF109:
 9650 06c2 73697A65 		.ascii	"size\000"
 9650      00
 9651              	.LASF40:
 9652 06c7 6D676631 		.ascii	"mgf1_hash_id\000"
 9652      5F686173 
 9652      685F6964 
 9652      00
 9653              	.LASF92:
 9654 06d4 656E6432 		.ascii	"end2\000"
 9654      00
 9655              	.LASF42:
 9656 06d9 6D626564 		.ascii	"mbedtls_pk_info_t\000"
 9656      746C735F 
 9656      706B5F69 
 9656      6E666F5F 
ARM GAS  C:\Users\Phuong\AppData\Local\Temp\cciPItDa.s 			page 198


 9656      7400
 9657              	.LASF77:
 9658 06eb 78353039 		.ascii	"x509_date_is_valid\000"
 9658      5F646174 
 9658      655F6973 
 9658      5F76616C 
 9658      696400
 9659              	.LASF134:
 9660 06fe 6D626564 		.ascii	"mbedtls_oid_get_md_alg\000"
 9660      746C735F 
 9660      6F69645F 
 9660      6765745F 
 9660      6D645F61 
 9661              	.LASF107:
 9662 0715 6D626564 		.ascii	"mbedtls_x509_get_ext\000"
 9662      746C735F 
 9662      78353039 
 9662      5F676574 
 9662      5F657874 
 9663              	.LASF11:
 9664 072a 6C6F6E67 		.ascii	"long double\000"
 9664      20646F75 
 9664      626C6500 
 9665              	.LASF103:
 9666 0736 6D626564 		.ascii	"mbedtls_x509_get_sig_alg\000"
 9666      746C735F 
 9666      78353039 
 9666      5F676574 
 9666      5F736967 
 9667              	.LASF91:
 9668 074f 73616C74 		.ascii	"salt_len\000"
 9668      5F6C656E 
 9668      00
 9669              	.LASF80:
 9670 0758 79656172 		.ascii	"yearlen\000"
 9670      6C656E00 
 9671              	.LASF121:
 9672 0760 6D626564 		.ascii	"mbedtls_x509_time_is_future\000"
 9672      746C735F 
 9672      78353039 
 9672      5F74696D 
 9672      655F6973 
 9673              	.LASF44:
 9674 077c 706B5F69 		.ascii	"pk_info\000"
 9674      6E666F00 
 9675              	.LASF2:
 9676 0784 73686F72 		.ascii	"short int\000"
 9676      7420696E 
 9676      7400
 9677              	.LASF61:
 9678 078e 76616C69 		.ascii	"valid_from\000"
 9678      645F6672 
 9678      6F6D00
 9679              	.LASF4:
 9680 0799 6C6F6E67 		.ascii	"long int\000"
 9680      20696E74 
 9680      00
ARM GAS  C:\Users\Phuong\AppData\Local\Temp\cciPItDa.s 			page 199


 9681              	.LASF97:
 9682 07a2 7365745F 		.ascii	"set_len\000"
 9682      6C656E00 
 9683              	.LASF13:
 9684 07aa 6D626564 		.ascii	"mbedtls_asn1_buf\000"
 9684      746C735F 
 9684      61736E31 
 9684      5F627566 
 9684      00
 9685              	.LASF144:
 9686 07bb 6D626564 		.ascii	"mbedtls_oid_get_attr_short_name\000"
 9686      746C735F 
 9686      6F69645F 
 9686      6765745F 
 9686      61747472 
 9687              	.LASF93:
 9688 07db 616C675F 		.ascii	"alg_id\000"
 9688      696400
 9689              	.LASF138:
 9690 07e2 6D656D63 		.ascii	"memcmp\000"
 9690      6D7000
 9691              	.LASF116:
 9692 07e9 6D645F69 		.ascii	"md_info\000"
 9692      6E666F00 
 9693              	.LASF147:
 9694 07f1 6D626564 		.ascii	"mbedtls_oid_get_sig_alg_desc\000"
 9694      746C735F 
 9694      6F69645F 
 9694      6765745F 
 9694      7369675F 
 9695              	.LASF81:
 9696 080e 78353039 		.ascii	"x509_get_attr_type_value\000"
 9696      5F676574 
 9696      5F617474 
 9696      725F7479 
 9696      70655F76 
 9697              	.LASF149:
 9698 0827 6D626564 		.ascii	"mbedtls_x509_crt_init\000"
 9698      746C735F 
 9698      78353039 
 9698      5F637274 
 9698      5F696E69 
 9699              	.LASF14:
 9700 083d 6D626564 		.ascii	"mbedtls_asn1_sequence\000"
 9700      746C735F 
 9700      61736E31 
 9700      5F736571 
 9700      75656E63 
 9701              	.LASF22:
 9702 0853 4D424544 		.ascii	"MBEDTLS_MD_SHA1\000"
 9702      544C535F 
 9702      4D445F53 
 9702      48413100 
 9703              	.LASF95:
 9704 0863 74726169 		.ascii	"trailer_field\000"
 9704      6C65725F 
 9704      6669656C 
ARM GAS  C:\Users\Phuong\AppData\Local\Temp\cciPItDa.s 			page 200


 9704      6400
 9705              	.LASF19:
 9706 0871 4D424544 		.ascii	"MBEDTLS_MD_MD2\000"
 9706      544C535F 
 9706      4D445F4D 
 9706      443200
 9707              	.LASF20:
 9708 0880 4D424544 		.ascii	"MBEDTLS_MD_MD4\000"
 9708      544C535F 
 9708      4D445F4D 
 9708      443400
 9709              	.LASF21:
 9710 088f 4D424544 		.ascii	"MBEDTLS_MD_MD5\000"
 9710      544C535F 
 9710      4D445F4D 
 9710      443500
 9711              	.LASF52:
 9712 089e 73697A65 		.ascii	"sizetype\000"
 9712      74797065 
 9712      00
 9713              	.LASF5:
 9714 08a7 6C6F6E67 		.ascii	"long unsigned int\000"
 9714      20756E73 
 9714      69676E65 
 9714      6420696E 
 9714      7400
 9715              	.LASF50:
 9716 08b9 79656172 		.ascii	"year\000"
 9716      00
 9717              	.LASF55:
 9718 08be 73657269 		.ascii	"serial\000"
 9718      616C00
 9719              	.LASF45:
 9720 08c5 706B5F63 		.ascii	"pk_ctx\000"
 9720      747800
 9721              	.LASF1:
 9722 08cc 756E7369 		.ascii	"unsigned char\000"
 9722      676E6564 
 9722      20636861 
 9722      7200
 9723              	.LASF9:
 9724 08da 5F5F7569 		.ascii	"__uint32_t\000"
 9724      6E743332 
 9724      5F7400
 9725              	.LASF145:
 9726 08e5 6D626564 		.ascii	"mbedtls_md_info_from_type\000"
 9726      746C735F 
 9726      6D645F69 
 9726      6E666F5F 
 9726      66726F6D 
 9727              	.LASF137:
 9728 08ff 6D626564 		.ascii	"mbedtls_asn1_get_int\000"
 9728      746C735F 
 9728      61736E31 
 9728      5F676574 
 9728      5F696E74 
 9729              	.LASF123:
ARM GAS  C:\Users\Phuong\AppData\Local\Temp\cciPItDa.s 			page 201


 9730 0914 6D626564 		.ascii	"mbedtls_x509_self_test\000"
 9730      746C735F 
 9730      78353039 
 9730      5F73656C 
 9730      665F7465 
 9731              	.LASF108:
 9732 092b 6D626564 		.ascii	"mbedtls_x509_dn_gets\000"
 9732      746C735F 
 9732      78353039 
 9732      5F646E5F 
 9732      67657473 
 9733              	.LASF96:
 9734 0940 6D626564 		.ascii	"mbedtls_x509_get_name\000"
 9734      746C735F 
 9734      78353039 
 9734      5F676574 
 9734      5F6E616D 
 9735              	.LASF16:
 9736 0956 6D626564 		.ascii	"mbedtls_asn1_named_data\000"
 9736      746C735F 
 9736      61736E31 
 9736      5F6E616D 
 9736      65645F64 
 9737              	.LASF73:
 9738 096e 7369675F 		.ascii	"sig_md\000"
 9738      6D6400
 9739              	.LASF146:
 9740 0975 6D626564 		.ascii	"mbedtls_md_get_name\000"
 9740      746C735F 
 9740      6D645F67 
 9740      65745F6E 
 9740      616D6500 
 9741              	.LASF101:
 9742 0989 6D626564 		.ascii	"mbedtls_x509_get_sig\000"
 9742      746C735F 
 9742      78353039 
 9742      5F676574 
 9742      5F736967 
 9743              	.LASF124:
 9744 099e 76657262 		.ascii	"verbose\000"
 9744      6F736500 
 9745              	.LASF0:
 9746 09a6 7369676E 		.ascii	"signed char\000"
 9746      65642063 
 9746      68617200 
 9747              	.LASF27:
 9748 09b2 4D424544 		.ascii	"MBEDTLS_MD_RIPEMD160\000"
 9748      544C535F 
 9748      4D445F52 
 9748      4950454D 
 9748      44313630 
 9749              	.LASF3:
 9750 09c7 73686F72 		.ascii	"short unsigned int\000"
 9750      7420756E 
 9750      7369676E 
 9750      65642069 
 9750      6E7400
ARM GAS  C:\Users\Phuong\AppData\Local\Temp\cciPItDa.s 			page 202


 9751              	.LASF25:
 9752 09da 4D424544 		.ascii	"MBEDTLS_MD_SHA384\000"
 9752      544C535F 
 9752      4D445F53 
 9752      48413338 
 9752      3400
 9753              	.LASF120:
 9754 09ec 6D626564 		.ascii	"mbedtls_x509_time_is_past\000"
 9754      746C735F 
 9754      78353039 
 9754      5F74696D 
 9754      655F6973 
 9755              	.LASF142:
 9756 0a06 6D626564 		.ascii	"mbedtls_oid_get_sig_alg\000"
 9756      746C735F 
 9756      6F69645F 
 9756      6765745F 
 9756      7369675F 
 9757              	.LASF87:
 9758 0a1e 6D626564 		.ascii	"mbedtls_x509_get_alg\000"
 9758      746C735F 
 9758      78353039 
 9758      5F676574 
 9758      5F616C67 
 9759              	.LASF106:
 9760 0a33 7073735F 		.ascii	"pss_opts\000"
 9760      6F707473 
 9760      00
 9761              	.LASF115:
 9762 0a3c 64657363 		.ascii	"desc\000"
 9762      00
 9763              	.LASF129:
 9764 0a41 6D626564 		.ascii	"mbedtls_test_ca_crt_len\000"
 9764      746C735F 
 9764      74657374 
 9764      5F63615F 
 9764      6372745F 
 9765              	.LASF130:
 9766 0a59 6D626564 		.ascii	"mbedtls_test_cli_crt\000"
 9766      746C735F 
 9766      74657374 
 9766      5F636C69 
 9766      5F637274 
 9767              		.ident	"GCC: (GNU Tools for ARM Embedded Processors) 5.4.1 20160609 (release) [ARM/embedded-5-bran
