ARM GAS  C:\Users\Phuong\AppData\Local\Temp\ccqvrWt4.s 			page 1


   1              		.syntax unified
   2              		.cpu cortex-m0plus
   3              		.fpu softvfp
   4              		.eabi_attribute 20, 1
   5              		.eabi_attribute 21, 1
   6              		.eabi_attribute 23, 3
   7              		.eabi_attribute 24, 1
   8              		.eabi_attribute 25, 1
   9              		.eabi_attribute 26, 1
  10              		.eabi_attribute 30, 1
  11              		.eabi_attribute 34, 0
  12              		.eabi_attribute 18, 4
  13              		.thumb
  14              		.syntax unified
  15              		.file	"x509_crl.c"
  16              		.text
  17              	.Ltext0:
  18              		.cfi_sections	.debug_frame
  19              		.section	.text.x509_get_crl_entry_ext,"ax",%progbits
  20              		.align	2
  21              		.code	16
  22              		.thumb_func
  23              		.type	x509_get_crl_entry_ext, %function
  24              	x509_get_crl_entry_ext:
  25              	.LFB13:
  26              		.file 1 "Source\\mbedtls_open\\library\\x509_crl.c"
   1:Source\mbedtls_open\library/x509_crl.c **** /*
   2:Source\mbedtls_open\library/x509_crl.c ****  *  X.509 Certidicate Revocation List (CRL) parsing
   3:Source\mbedtls_open\library/x509_crl.c ****  *
   4:Source\mbedtls_open\library/x509_crl.c ****  *  Copyright (C) 2006-2015, ARM Limited, All Rights Reserved
   5:Source\mbedtls_open\library/x509_crl.c ****  *  SPDX-License-Identifier: Apache-2.0
   6:Source\mbedtls_open\library/x509_crl.c ****  *
   7:Source\mbedtls_open\library/x509_crl.c ****  *  Licensed under the Apache License, Version 2.0 (the "License"); you may
   8:Source\mbedtls_open\library/x509_crl.c ****  *  not use this file except in compliance with the License.
   9:Source\mbedtls_open\library/x509_crl.c ****  *  You may obtain a copy of the License at
  10:Source\mbedtls_open\library/x509_crl.c ****  *
  11:Source\mbedtls_open\library/x509_crl.c ****  *  http://www.apache.org/licenses/LICENSE-2.0
  12:Source\mbedtls_open\library/x509_crl.c ****  *
  13:Source\mbedtls_open\library/x509_crl.c ****  *  Unless required by applicable law or agreed to in writing, software
  14:Source\mbedtls_open\library/x509_crl.c ****  *  distributed under the License is distributed on an "AS IS" BASIS, WITHOUT
  15:Source\mbedtls_open\library/x509_crl.c ****  *  WARRANTIES OR CONDITIONS OF ANY KIND, either express or implied.
  16:Source\mbedtls_open\library/x509_crl.c ****  *  See the License for the specific language governing permissions and
  17:Source\mbedtls_open\library/x509_crl.c ****  *  limitations under the License.
  18:Source\mbedtls_open\library/x509_crl.c ****  *
  19:Source\mbedtls_open\library/x509_crl.c ****  *  This file is part of mbed TLS (https://tls.mbed.org)
  20:Source\mbedtls_open\library/x509_crl.c ****  */
  21:Source\mbedtls_open\library/x509_crl.c **** /*
  22:Source\mbedtls_open\library/x509_crl.c ****  *  The ITU-T X.509 standard defines a certificate format for PKI.
  23:Source\mbedtls_open\library/x509_crl.c ****  *
  24:Source\mbedtls_open\library/x509_crl.c ****  *  http://www.ietf.org/rfc/rfc5280.txt (Certificates and CRLs)
  25:Source\mbedtls_open\library/x509_crl.c ****  *  http://www.ietf.org/rfc/rfc3279.txt (Alg IDs for CRLs)
  26:Source\mbedtls_open\library/x509_crl.c ****  *  http://www.ietf.org/rfc/rfc2986.txt (CSRs, aka PKCS#10)
  27:Source\mbedtls_open\library/x509_crl.c ****  *
  28:Source\mbedtls_open\library/x509_crl.c ****  *  http://www.itu.int/ITU-T/studygroups/com17/languages/X.680-0207.pdf
  29:Source\mbedtls_open\library/x509_crl.c ****  *  http://www.itu.int/ITU-T/studygroups/com17/languages/X.690-0207.pdf
  30:Source\mbedtls_open\library/x509_crl.c ****  */
  31:Source\mbedtls_open\library/x509_crl.c **** 
ARM GAS  C:\Users\Phuong\AppData\Local\Temp\ccqvrWt4.s 			page 2


  32:Source\mbedtls_open\library/x509_crl.c **** #if !defined(MBEDTLS_CONFIG_FILE)
  33:Source\mbedtls_open\library/x509_crl.c **** #include "mbedtls/config.h"
  34:Source\mbedtls_open\library/x509_crl.c **** #else
  35:Source\mbedtls_open\library/x509_crl.c **** #include MBEDTLS_CONFIG_FILE
  36:Source\mbedtls_open\library/x509_crl.c **** #endif
  37:Source\mbedtls_open\library/x509_crl.c **** 
  38:Source\mbedtls_open\library/x509_crl.c **** #if defined(MBEDTLS_X509_CRL_PARSE_C)
  39:Source\mbedtls_open\library/x509_crl.c **** 
  40:Source\mbedtls_open\library/x509_crl.c **** #include "mbedtls/x509_crl.h"
  41:Source\mbedtls_open\library/x509_crl.c **** #include "mbedtls/oid.h"
  42:Source\mbedtls_open\library/x509_crl.c **** #include "mbedtls/platform_util.h"
  43:Source\mbedtls_open\library/x509_crl.c **** 
  44:Source\mbedtls_open\library/x509_crl.c **** #include <string.h>
  45:Source\mbedtls_open\library/x509_crl.c **** 
  46:Source\mbedtls_open\library/x509_crl.c **** #if defined(MBEDTLS_PEM_PARSE_C)
  47:Source\mbedtls_open\library/x509_crl.c **** #include "mbedtls/pem.h"
  48:Source\mbedtls_open\library/x509_crl.c **** #endif
  49:Source\mbedtls_open\library/x509_crl.c **** 
  50:Source\mbedtls_open\library/x509_crl.c **** #if defined(MBEDTLS_PLATFORM_C)
  51:Source\mbedtls_open\library/x509_crl.c **** #include "mbedtls/platform.h"
  52:Source\mbedtls_open\library/x509_crl.c **** #else
  53:Source\mbedtls_open\library/x509_crl.c **** #include <stdlib.h>
  54:Source\mbedtls_open\library/x509_crl.c **** #include <stdio.h>
  55:Source\mbedtls_open\library/x509_crl.c **** #define mbedtls_free       free
  56:Source\mbedtls_open\library/x509_crl.c **** #define mbedtls_calloc    calloc
  57:Source\mbedtls_open\library/x509_crl.c **** #define mbedtls_snprintf   snprintf
  58:Source\mbedtls_open\library/x509_crl.c **** #endif
  59:Source\mbedtls_open\library/x509_crl.c **** 
  60:Source\mbedtls_open\library/x509_crl.c **** #if defined(_WIN32) && !defined(EFIX64) && !defined(EFI32)
  61:Source\mbedtls_open\library/x509_crl.c **** #include <windows.h>
  62:Source\mbedtls_open\library/x509_crl.c **** #else
  63:Source\mbedtls_open\library/x509_crl.c **** #include <time.h>
  64:Source\mbedtls_open\library/x509_crl.c **** #endif
  65:Source\mbedtls_open\library/x509_crl.c **** 
  66:Source\mbedtls_open\library/x509_crl.c **** #if defined(MBEDTLS_FS_IO) || defined(EFIX64) || defined(EFI32)
  67:Source\mbedtls_open\library/x509_crl.c **** #include <stdio.h>
  68:Source\mbedtls_open\library/x509_crl.c **** #endif
  69:Source\mbedtls_open\library/x509_crl.c **** 
  70:Source\mbedtls_open\library/x509_crl.c **** /*
  71:Source\mbedtls_open\library/x509_crl.c ****  *  Version  ::=  INTEGER  {  v1(0), v2(1)  }
  72:Source\mbedtls_open\library/x509_crl.c ****  */
  73:Source\mbedtls_open\library/x509_crl.c **** static int x509_crl_get_version( unsigned char **p,
  74:Source\mbedtls_open\library/x509_crl.c ****                              const unsigned char *end,
  75:Source\mbedtls_open\library/x509_crl.c ****                              int *ver )
  76:Source\mbedtls_open\library/x509_crl.c **** {
  77:Source\mbedtls_open\library/x509_crl.c ****     int ret;
  78:Source\mbedtls_open\library/x509_crl.c **** 
  79:Source\mbedtls_open\library/x509_crl.c ****     if( ( ret = mbedtls_asn1_get_int( p, end, ver ) ) != 0 )
  80:Source\mbedtls_open\library/x509_crl.c ****     {
  81:Source\mbedtls_open\library/x509_crl.c ****         if( ret == MBEDTLS_ERR_ASN1_UNEXPECTED_TAG )
  82:Source\mbedtls_open\library/x509_crl.c ****         {
  83:Source\mbedtls_open\library/x509_crl.c ****             *ver = 0;
  84:Source\mbedtls_open\library/x509_crl.c ****             return( 0 );
  85:Source\mbedtls_open\library/x509_crl.c ****         }
  86:Source\mbedtls_open\library/x509_crl.c **** 
  87:Source\mbedtls_open\library/x509_crl.c ****         return( MBEDTLS_ERR_X509_INVALID_VERSION + ret );
  88:Source\mbedtls_open\library/x509_crl.c ****     }
ARM GAS  C:\Users\Phuong\AppData\Local\Temp\ccqvrWt4.s 			page 3


  89:Source\mbedtls_open\library/x509_crl.c **** 
  90:Source\mbedtls_open\library/x509_crl.c ****     return( 0 );
  91:Source\mbedtls_open\library/x509_crl.c **** }
  92:Source\mbedtls_open\library/x509_crl.c **** 
  93:Source\mbedtls_open\library/x509_crl.c **** /*
  94:Source\mbedtls_open\library/x509_crl.c ****  * X.509 CRL v2 extensions
  95:Source\mbedtls_open\library/x509_crl.c ****  *
  96:Source\mbedtls_open\library/x509_crl.c ****  * We currently don't parse any extension's content, but we do check that the
  97:Source\mbedtls_open\library/x509_crl.c ****  * list of extensions is well-formed and abort on critical extensions (that
  98:Source\mbedtls_open\library/x509_crl.c ****  * are unsupported as we don't support any extension so far)
  99:Source\mbedtls_open\library/x509_crl.c ****  */
 100:Source\mbedtls_open\library/x509_crl.c **** static int x509_get_crl_ext( unsigned char **p,
 101:Source\mbedtls_open\library/x509_crl.c ****                              const unsigned char *end,
 102:Source\mbedtls_open\library/x509_crl.c ****                              mbedtls_x509_buf *ext )
 103:Source\mbedtls_open\library/x509_crl.c **** {
 104:Source\mbedtls_open\library/x509_crl.c ****     int ret;
 105:Source\mbedtls_open\library/x509_crl.c **** 
 106:Source\mbedtls_open\library/x509_crl.c ****     /*
 107:Source\mbedtls_open\library/x509_crl.c ****      * crlExtensions           [0]  EXPLICIT Extensions OPTIONAL
 108:Source\mbedtls_open\library/x509_crl.c ****      *                              -- if present, version MUST be v2
 109:Source\mbedtls_open\library/x509_crl.c ****      */
 110:Source\mbedtls_open\library/x509_crl.c ****     if( ( ret = mbedtls_x509_get_ext( p, end, ext, 0 ) ) != 0 )
 111:Source\mbedtls_open\library/x509_crl.c ****     {
 112:Source\mbedtls_open\library/x509_crl.c ****         if( ret == MBEDTLS_ERR_ASN1_UNEXPECTED_TAG )
 113:Source\mbedtls_open\library/x509_crl.c ****             return( 0 );
 114:Source\mbedtls_open\library/x509_crl.c **** 
 115:Source\mbedtls_open\library/x509_crl.c ****         return( ret );
 116:Source\mbedtls_open\library/x509_crl.c ****     }
 117:Source\mbedtls_open\library/x509_crl.c **** 
 118:Source\mbedtls_open\library/x509_crl.c ****     while( *p < end )
 119:Source\mbedtls_open\library/x509_crl.c ****     {
 120:Source\mbedtls_open\library/x509_crl.c ****         /*
 121:Source\mbedtls_open\library/x509_crl.c ****          * Extension  ::=  SEQUENCE  {
 122:Source\mbedtls_open\library/x509_crl.c ****          *      extnID      OBJECT IDENTIFIER,
 123:Source\mbedtls_open\library/x509_crl.c ****          *      critical    BOOLEAN DEFAULT FALSE,
 124:Source\mbedtls_open\library/x509_crl.c ****          *      extnValue   OCTET STRING  }
 125:Source\mbedtls_open\library/x509_crl.c ****          */
 126:Source\mbedtls_open\library/x509_crl.c ****         int is_critical = 0;
 127:Source\mbedtls_open\library/x509_crl.c ****         const unsigned char *end_ext_data;
 128:Source\mbedtls_open\library/x509_crl.c ****         size_t len;
 129:Source\mbedtls_open\library/x509_crl.c **** 
 130:Source\mbedtls_open\library/x509_crl.c ****         /* Get enclosing sequence tag */
 131:Source\mbedtls_open\library/x509_crl.c ****         if( ( ret = mbedtls_asn1_get_tag( p, end, &len,
 132:Source\mbedtls_open\library/x509_crl.c ****                 MBEDTLS_ASN1_CONSTRUCTED | MBEDTLS_ASN1_SEQUENCE ) ) != 0 )
 133:Source\mbedtls_open\library/x509_crl.c ****             return( MBEDTLS_ERR_X509_INVALID_EXTENSIONS + ret );
 134:Source\mbedtls_open\library/x509_crl.c **** 
 135:Source\mbedtls_open\library/x509_crl.c ****         end_ext_data = *p + len;
 136:Source\mbedtls_open\library/x509_crl.c **** 
 137:Source\mbedtls_open\library/x509_crl.c ****         /* Get OID (currently ignored) */
 138:Source\mbedtls_open\library/x509_crl.c ****         if( ( ret = mbedtls_asn1_get_tag( p, end_ext_data, &len,
 139:Source\mbedtls_open\library/x509_crl.c ****                                           MBEDTLS_ASN1_OID ) ) != 0 )
 140:Source\mbedtls_open\library/x509_crl.c ****         {
 141:Source\mbedtls_open\library/x509_crl.c ****             return( MBEDTLS_ERR_X509_INVALID_EXTENSIONS + ret );
 142:Source\mbedtls_open\library/x509_crl.c ****         }
 143:Source\mbedtls_open\library/x509_crl.c ****         *p += len;
 144:Source\mbedtls_open\library/x509_crl.c **** 
 145:Source\mbedtls_open\library/x509_crl.c ****         /* Get optional critical */
ARM GAS  C:\Users\Phuong\AppData\Local\Temp\ccqvrWt4.s 			page 4


 146:Source\mbedtls_open\library/x509_crl.c ****         if( ( ret = mbedtls_asn1_get_bool( p, end_ext_data,
 147:Source\mbedtls_open\library/x509_crl.c ****                                            &is_critical ) ) != 0 &&
 148:Source\mbedtls_open\library/x509_crl.c ****             ( ret != MBEDTLS_ERR_ASN1_UNEXPECTED_TAG ) )
 149:Source\mbedtls_open\library/x509_crl.c ****         {
 150:Source\mbedtls_open\library/x509_crl.c ****             return( MBEDTLS_ERR_X509_INVALID_EXTENSIONS + ret );
 151:Source\mbedtls_open\library/x509_crl.c ****         }
 152:Source\mbedtls_open\library/x509_crl.c **** 
 153:Source\mbedtls_open\library/x509_crl.c ****         /* Data should be octet string type */
 154:Source\mbedtls_open\library/x509_crl.c ****         if( ( ret = mbedtls_asn1_get_tag( p, end_ext_data, &len,
 155:Source\mbedtls_open\library/x509_crl.c ****                 MBEDTLS_ASN1_OCTET_STRING ) ) != 0 )
 156:Source\mbedtls_open\library/x509_crl.c ****             return( MBEDTLS_ERR_X509_INVALID_EXTENSIONS + ret );
 157:Source\mbedtls_open\library/x509_crl.c **** 
 158:Source\mbedtls_open\library/x509_crl.c ****         /* Ignore data so far and just check its length */
 159:Source\mbedtls_open\library/x509_crl.c ****         *p += len;
 160:Source\mbedtls_open\library/x509_crl.c ****         if( *p != end_ext_data )
 161:Source\mbedtls_open\library/x509_crl.c ****             return( MBEDTLS_ERR_X509_INVALID_EXTENSIONS +
 162:Source\mbedtls_open\library/x509_crl.c ****                     MBEDTLS_ERR_ASN1_LENGTH_MISMATCH );
 163:Source\mbedtls_open\library/x509_crl.c **** 
 164:Source\mbedtls_open\library/x509_crl.c ****         /* Abort on (unsupported) critical extensions */
 165:Source\mbedtls_open\library/x509_crl.c ****         if( is_critical )
 166:Source\mbedtls_open\library/x509_crl.c ****             return( MBEDTLS_ERR_X509_INVALID_EXTENSIONS +
 167:Source\mbedtls_open\library/x509_crl.c ****                     MBEDTLS_ERR_ASN1_UNEXPECTED_TAG );
 168:Source\mbedtls_open\library/x509_crl.c ****     }
 169:Source\mbedtls_open\library/x509_crl.c **** 
 170:Source\mbedtls_open\library/x509_crl.c ****     if( *p != end )
 171:Source\mbedtls_open\library/x509_crl.c ****         return( MBEDTLS_ERR_X509_INVALID_EXTENSIONS +
 172:Source\mbedtls_open\library/x509_crl.c ****                 MBEDTLS_ERR_ASN1_LENGTH_MISMATCH );
 173:Source\mbedtls_open\library/x509_crl.c **** 
 174:Source\mbedtls_open\library/x509_crl.c ****     return( 0 );
 175:Source\mbedtls_open\library/x509_crl.c **** }
 176:Source\mbedtls_open\library/x509_crl.c **** 
 177:Source\mbedtls_open\library/x509_crl.c **** /*
 178:Source\mbedtls_open\library/x509_crl.c ****  * X.509 CRL v2 entry extensions (no extensions parsed yet.)
 179:Source\mbedtls_open\library/x509_crl.c ****  */
 180:Source\mbedtls_open\library/x509_crl.c **** static int x509_get_crl_entry_ext( unsigned char **p,
 181:Source\mbedtls_open\library/x509_crl.c ****                              const unsigned char *end,
 182:Source\mbedtls_open\library/x509_crl.c ****                              mbedtls_x509_buf *ext )
 183:Source\mbedtls_open\library/x509_crl.c **** {
  27              		.loc 1 183 0
  28              		.cfi_startproc
  29              		@ args = 0, pretend = 0, frame = 8
  30              		@ frame_needed = 0, uses_anonymous_args = 0
  31              	.LVL0:
  32 0000 30B5     		push	{r4, r5, lr}
  33              		.cfi_def_cfa_offset 12
  34              		.cfi_offset 4, -12
  35              		.cfi_offset 5, -8
  36              		.cfi_offset 14, -4
  37 0002 83B0     		sub	sp, sp, #12
  38              		.cfi_def_cfa_offset 24
  39 0004 0400     		movs	r4, r0
  40 0006 1500     		movs	r5, r2
 184:Source\mbedtls_open\library/x509_crl.c ****     int ret;
 185:Source\mbedtls_open\library/x509_crl.c ****     size_t len = 0;
  41              		.loc 1 185 0
  42 0008 0023     		movs	r3, #0
  43 000a 0193     		str	r3, [sp, #4]
ARM GAS  C:\Users\Phuong\AppData\Local\Temp\ccqvrWt4.s 			page 5


 186:Source\mbedtls_open\library/x509_crl.c **** 
 187:Source\mbedtls_open\library/x509_crl.c ****     /* OPTIONAL */
 188:Source\mbedtls_open\library/x509_crl.c ****     if( end <= *p )
  44              		.loc 1 188 0
  45 000c 0368     		ldr	r3, [r0]
  46 000e 8B42     		cmp	r3, r1
  47 0010 30D2     		bcs	.L8
 189:Source\mbedtls_open\library/x509_crl.c ****         return( 0 );
 190:Source\mbedtls_open\library/x509_crl.c **** 
 191:Source\mbedtls_open\library/x509_crl.c ****     ext->tag = **p;
  48              		.loc 1 191 0
  49 0012 1B78     		ldrb	r3, [r3]
  50 0014 1360     		str	r3, [r2]
 192:Source\mbedtls_open\library/x509_crl.c ****     ext->p = *p;
  51              		.loc 1 192 0
  52 0016 0368     		ldr	r3, [r0]
  53 0018 9360     		str	r3, [r2, #8]
 193:Source\mbedtls_open\library/x509_crl.c **** 
 194:Source\mbedtls_open\library/x509_crl.c ****     /*
 195:Source\mbedtls_open\library/x509_crl.c ****      * Get CRL-entry extension sequence header
 196:Source\mbedtls_open\library/x509_crl.c ****      * crlEntryExtensions      Extensions OPTIONAL  -- if present, MUST be v2
 197:Source\mbedtls_open\library/x509_crl.c ****      */
 198:Source\mbedtls_open\library/x509_crl.c ****     if( ( ret = mbedtls_asn1_get_tag( p, end, &ext->len,
  54              		.loc 1 198 0
  55 001a 0432     		adds	r2, r2, #4
  56              	.LVL1:
  57 001c 3023     		movs	r3, #48
  58 001e FFF7FEFF 		bl	mbedtls_asn1_get_tag
  59              	.LVL2:
  60 0022 0028     		cmp	r0, #0
  61 0024 0AD0     		beq	.L3
 199:Source\mbedtls_open\library/x509_crl.c ****             MBEDTLS_ASN1_CONSTRUCTED | MBEDTLS_ASN1_SEQUENCE ) ) != 0 )
 200:Source\mbedtls_open\library/x509_crl.c ****     {
 201:Source\mbedtls_open\library/x509_crl.c ****         if( ret == MBEDTLS_ERR_ASN1_UNEXPECTED_TAG )
  62              		.loc 1 201 0
  63 0026 0300     		movs	r3, r0
  64 0028 6233     		adds	r3, r3, #98
  65 002a 03D1     		bne	.L4
 202:Source\mbedtls_open\library/x509_crl.c ****         {
 203:Source\mbedtls_open\library/x509_crl.c ****             ext->p = NULL;
  66              		.loc 1 203 0
  67 002c 0023     		movs	r3, #0
  68 002e AB60     		str	r3, [r5, #8]
 204:Source\mbedtls_open\library/x509_crl.c ****             return( 0 );
  69              		.loc 1 204 0
  70 0030 0020     		movs	r0, #0
  71              	.LVL3:
  72 0032 22E0     		b	.L2
  73              	.LVL4:
  74              	.L4:
 205:Source\mbedtls_open\library/x509_crl.c ****         }
 206:Source\mbedtls_open\library/x509_crl.c ****         return( MBEDTLS_ERR_X509_INVALID_EXTENSIONS + ret );
  75              		.loc 1 206 0
  76 0034 124B     		ldr	r3, .L10
  77 0036 9C46     		mov	ip, r3
  78 0038 6044     		add	r0, r0, ip
  79              	.LVL5:
ARM GAS  C:\Users\Phuong\AppData\Local\Temp\ccqvrWt4.s 			page 6


  80 003a 1EE0     		b	.L2
  81              	.LVL6:
  82              	.L3:
 207:Source\mbedtls_open\library/x509_crl.c ****     }
 208:Source\mbedtls_open\library/x509_crl.c **** 
 209:Source\mbedtls_open\library/x509_crl.c ****     end = *p + ext->len;
  83              		.loc 1 209 0
  84 003c 6D68     		ldr	r5, [r5, #4]
  85              	.LVL7:
  86 003e 2368     		ldr	r3, [r4]
  87 0040 9C46     		mov	ip, r3
  88 0042 6544     		add	r5, r5, ip
  89              	.LVL8:
  90 0044 10E0     		b	.L5
  91              	.L7:
 210:Source\mbedtls_open\library/x509_crl.c **** 
 211:Source\mbedtls_open\library/x509_crl.c ****     if( end != *p + ext->len )
 212:Source\mbedtls_open\library/x509_crl.c ****         return( MBEDTLS_ERR_X509_INVALID_EXTENSIONS +
 213:Source\mbedtls_open\library/x509_crl.c ****                 MBEDTLS_ERR_ASN1_LENGTH_MISMATCH );
 214:Source\mbedtls_open\library/x509_crl.c **** 
 215:Source\mbedtls_open\library/x509_crl.c ****     while( *p < end )
 216:Source\mbedtls_open\library/x509_crl.c ****     {
 217:Source\mbedtls_open\library/x509_crl.c ****         if( ( ret = mbedtls_asn1_get_tag( p, end, &len,
  92              		.loc 1 217 0
  93 0046 3023     		movs	r3, #48
  94 0048 01AA     		add	r2, sp, #4
  95 004a 2900     		movs	r1, r5
  96 004c 2000     		movs	r0, r4
  97              	.LVL9:
  98 004e FFF7FEFF 		bl	mbedtls_asn1_get_tag
  99              	.LVL10:
 100 0052 0028     		cmp	r0, #0
 101 0054 03D0     		beq	.L6
 218:Source\mbedtls_open\library/x509_crl.c ****                 MBEDTLS_ASN1_CONSTRUCTED | MBEDTLS_ASN1_SEQUENCE ) ) != 0 )
 219:Source\mbedtls_open\library/x509_crl.c ****             return( MBEDTLS_ERR_X509_INVALID_EXTENSIONS + ret );
 102              		.loc 1 219 0
 103 0056 0A4B     		ldr	r3, .L10
 104 0058 9C46     		mov	ip, r3
 105 005a 6044     		add	r0, r0, ip
 106              	.LVL11:
 107 005c 0DE0     		b	.L2
 108              	.LVL12:
 109              	.L6:
 220:Source\mbedtls_open\library/x509_crl.c **** 
 221:Source\mbedtls_open\library/x509_crl.c ****         *p += len;
 110              		.loc 1 221 0
 111 005e 2368     		ldr	r3, [r4]
 112 0060 019A     		ldr	r2, [sp, #4]
 113 0062 9446     		mov	ip, r2
 114 0064 6344     		add	r3, r3, ip
 115 0066 2360     		str	r3, [r4]
 116              	.L5:
 215:Source\mbedtls_open\library/x509_crl.c ****     {
 117              		.loc 1 215 0
 118 0068 2368     		ldr	r3, [r4]
 119 006a 9D42     		cmp	r5, r3
 120 006c EBD8     		bhi	.L7
ARM GAS  C:\Users\Phuong\AppData\Local\Temp\ccqvrWt4.s 			page 7


 222:Source\mbedtls_open\library/x509_crl.c ****     }
 223:Source\mbedtls_open\library/x509_crl.c **** 
 224:Source\mbedtls_open\library/x509_crl.c ****     if( *p != end )
 121              		.loc 1 224 0
 122 006e 03D0     		beq	.L9
 225:Source\mbedtls_open\library/x509_crl.c ****         return( MBEDTLS_ERR_X509_INVALID_EXTENSIONS +
 123              		.loc 1 225 0
 124 0070 0448     		ldr	r0, .L10+4
 125              	.LVL13:
 126 0072 02E0     		b	.L2
 127              	.LVL14:
 128              	.L8:
 189:Source\mbedtls_open\library/x509_crl.c **** 
 129              		.loc 1 189 0
 130 0074 0020     		movs	r0, #0
 131              	.LVL15:
 132 0076 00E0     		b	.L2
 133              	.LVL16:
 134              	.L9:
 226:Source\mbedtls_open\library/x509_crl.c ****                 MBEDTLS_ERR_ASN1_LENGTH_MISMATCH );
 227:Source\mbedtls_open\library/x509_crl.c **** 
 228:Source\mbedtls_open\library/x509_crl.c ****     return( 0 );
 135              		.loc 1 228 0
 136 0078 0020     		movs	r0, #0
 137              	.LVL17:
 138              	.L2:
 229:Source\mbedtls_open\library/x509_crl.c **** }
 139              		.loc 1 229 0
 140 007a 03B0     		add	sp, sp, #12
 141              		@ sp needed
 142              	.LVL18:
 143 007c 30BD     		pop	{r4, r5, pc}
 144              	.L11:
 145 007e C046     		.align	2
 146              	.L10:
 147 0080 00DBFFFF 		.word	-9472
 148 0084 9ADAFFFF 		.word	-9574
 149              		.cfi_endproc
 150              	.LFE13:
 151              		.size	x509_get_crl_entry_ext, .-x509_get_crl_entry_ext
 152              		.section	.text.x509_crl_get_version,"ax",%progbits
 153              		.align	2
 154              		.code	16
 155              		.thumb_func
 156              		.type	x509_crl_get_version, %function
 157              	x509_crl_get_version:
 158              	.LFB11:
  76:Source\mbedtls_open\library/x509_crl.c ****     int ret;
 159              		.loc 1 76 0
 160              		.cfi_startproc
 161              		@ args = 0, pretend = 0, frame = 0
 162              		@ frame_needed = 0, uses_anonymous_args = 0
 163              	.LVL19:
 164 0000 10B5     		push	{r4, lr}
 165              		.cfi_def_cfa_offset 8
 166              		.cfi_offset 4, -8
 167              		.cfi_offset 14, -4
ARM GAS  C:\Users\Phuong\AppData\Local\Temp\ccqvrWt4.s 			page 8


 168 0002 1400     		movs	r4, r2
  79:Source\mbedtls_open\library/x509_crl.c ****     {
 169              		.loc 1 79 0
 170 0004 FFF7FEFF 		bl	mbedtls_asn1_get_int
 171              	.LVL20:
 172 0008 0028     		cmp	r0, #0
 173 000a 0AD0     		beq	.L15
  81:Source\mbedtls_open\library/x509_crl.c ****         {
 174              		.loc 1 81 0
 175 000c 0300     		movs	r3, r0
 176 000e 6233     		adds	r3, r3, #98
 177 0010 03D1     		bne	.L14
  83:Source\mbedtls_open\library/x509_crl.c ****             return( 0 );
 178              		.loc 1 83 0
 179 0012 0023     		movs	r3, #0
 180 0014 2360     		str	r3, [r4]
  84:Source\mbedtls_open\library/x509_crl.c ****         }
 181              		.loc 1 84 0
 182 0016 0020     		movs	r0, #0
 183              	.LVL21:
 184 0018 04E0     		b	.L13
 185              	.LVL22:
 186              	.L14:
  87:Source\mbedtls_open\library/x509_crl.c ****     }
 187              		.loc 1 87 0
 188 001a 034B     		ldr	r3, .L16
 189 001c 9C46     		mov	ip, r3
 190 001e 6044     		add	r0, r0, ip
 191              	.LVL23:
 192 0020 00E0     		b	.L13
 193              	.LVL24:
 194              	.L15:
  90:Source\mbedtls_open\library/x509_crl.c **** }
 195              		.loc 1 90 0
 196 0022 0020     		movs	r0, #0
 197              	.LVL25:
 198              	.L13:
  91:Source\mbedtls_open\library/x509_crl.c **** 
 199              		.loc 1 91 0
 200              		@ sp needed
 201              	.LVL26:
 202 0024 10BD     		pop	{r4, pc}
 203              	.L17:
 204 0026 C046     		.align	2
 205              	.L16:
 206 0028 00DEFFFF 		.word	-8704
 207              		.cfi_endproc
 208              	.LFE11:
 209              		.size	x509_crl_get_version, .-x509_crl_get_version
 210              		.section	.text.x509_get_entries,"ax",%progbits
 211              		.align	2
 212              		.code	16
 213              		.thumb_func
 214              		.type	x509_get_entries, %function
 215              	x509_get_entries:
 216              	.LFB14:
 230:Source\mbedtls_open\library/x509_crl.c **** 
ARM GAS  C:\Users\Phuong\AppData\Local\Temp\ccqvrWt4.s 			page 9


 231:Source\mbedtls_open\library/x509_crl.c **** /*
 232:Source\mbedtls_open\library/x509_crl.c ****  * X.509 CRL Entries
 233:Source\mbedtls_open\library/x509_crl.c ****  */
 234:Source\mbedtls_open\library/x509_crl.c **** static int x509_get_entries( unsigned char **p,
 235:Source\mbedtls_open\library/x509_crl.c ****                              const unsigned char *end,
 236:Source\mbedtls_open\library/x509_crl.c ****                              mbedtls_x509_crl_entry *entry )
 237:Source\mbedtls_open\library/x509_crl.c **** {
 217              		.loc 1 237 0
 218              		.cfi_startproc
 219              		@ args = 0, pretend = 0, frame = 8
 220              		@ frame_needed = 0, uses_anonymous_args = 0
 221              	.LVL27:
 222 0000 F0B5     		push	{r4, r5, r6, r7, lr}
 223              		.cfi_def_cfa_offset 20
 224              		.cfi_offset 4, -20
 225              		.cfi_offset 5, -16
 226              		.cfi_offset 6, -12
 227              		.cfi_offset 7, -8
 228              		.cfi_offset 14, -4
 229 0002 83B0     		sub	sp, sp, #12
 230              		.cfi_def_cfa_offset 32
 231 0004 0400     		movs	r4, r0
 232 0006 1600     		movs	r6, r2
 233              	.LVL28:
 238:Source\mbedtls_open\library/x509_crl.c ****     int ret;
 239:Source\mbedtls_open\library/x509_crl.c ****     size_t entry_len;
 240:Source\mbedtls_open\library/x509_crl.c ****     mbedtls_x509_crl_entry *cur_entry = entry;
 241:Source\mbedtls_open\library/x509_crl.c **** 
 242:Source\mbedtls_open\library/x509_crl.c ****     if( *p == end )
 234              		.loc 1 242 0
 235 0008 0368     		ldr	r3, [r0]
 236 000a 8B42     		cmp	r3, r1
 237 000c 4DD0     		beq	.L25
 243:Source\mbedtls_open\library/x509_crl.c ****         return( 0 );
 244:Source\mbedtls_open\library/x509_crl.c **** 
 245:Source\mbedtls_open\library/x509_crl.c ****     if( ( ret = mbedtls_asn1_get_tag( p, end, &entry_len,
 238              		.loc 1 245 0
 239 000e 3023     		movs	r3, #48
 240 0010 01AA     		add	r2, sp, #4
 241              	.LVL29:
 242 0012 FFF7FEFF 		bl	mbedtls_asn1_get_tag
 243              	.LVL30:
 244 0016 0028     		cmp	r0, #0
 245 0018 04D0     		beq	.L20
 246:Source\mbedtls_open\library/x509_crl.c ****             MBEDTLS_ASN1_SEQUENCE | MBEDTLS_ASN1_CONSTRUCTED ) ) != 0 )
 247:Source\mbedtls_open\library/x509_crl.c ****     {
 248:Source\mbedtls_open\library/x509_crl.c ****         if( ret == MBEDTLS_ERR_ASN1_UNEXPECTED_TAG )
 246              		.loc 1 248 0
 247 001a 0300     		movs	r3, r0
 248 001c 6233     		adds	r3, r3, #98
 249 001e 45D1     		bne	.L19
 249:Source\mbedtls_open\library/x509_crl.c ****             return( 0 );
 250              		.loc 1 249 0
 251 0020 0020     		movs	r0, #0
 252              	.LVL31:
 253 0022 43E0     		b	.L19
 254              	.LVL32:
ARM GAS  C:\Users\Phuong\AppData\Local\Temp\ccqvrWt4.s 			page 10


 255              	.L20:
 250:Source\mbedtls_open\library/x509_crl.c **** 
 251:Source\mbedtls_open\library/x509_crl.c ****         return( ret );
 252:Source\mbedtls_open\library/x509_crl.c ****     }
 253:Source\mbedtls_open\library/x509_crl.c **** 
 254:Source\mbedtls_open\library/x509_crl.c ****     end = *p + entry_len;
 256              		.loc 1 254 0
 257 0024 2368     		ldr	r3, [r4]
 258 0026 019A     		ldr	r2, [sp, #4]
 259 0028 9446     		mov	ip, r2
 260 002a 6344     		add	r3, r3, ip
 261 002c 1F00     		movs	r7, r3
 262              	.LVL33:
 255:Source\mbedtls_open\library/x509_crl.c **** 
 256:Source\mbedtls_open\library/x509_crl.c ****     while( *p < end )
 263              		.loc 1 256 0
 264 002e 37E0     		b	.L21
 265              	.LVL34:
 266              	.L24:
 267              	.LBB2:
 257:Source\mbedtls_open\library/x509_crl.c ****     {
 258:Source\mbedtls_open\library/x509_crl.c ****         size_t len2;
 259:Source\mbedtls_open\library/x509_crl.c ****         const unsigned char *end2;
 260:Source\mbedtls_open\library/x509_crl.c **** 
 261:Source\mbedtls_open\library/x509_crl.c ****         if( ( ret = mbedtls_asn1_get_tag( p, end, &len2,
 268              		.loc 1 261 0
 269 0030 3023     		movs	r3, #48
 270 0032 6A46     		mov	r2, sp
 271 0034 3900     		movs	r1, r7
 272 0036 2000     		movs	r0, r4
 273 0038 FFF7FEFF 		bl	mbedtls_asn1_get_tag
 274              	.LVL35:
 275 003c 0028     		cmp	r0, #0
 276 003e 35D1     		bne	.L19
 262:Source\mbedtls_open\library/x509_crl.c ****                 MBEDTLS_ASN1_SEQUENCE | MBEDTLS_ASN1_CONSTRUCTED ) ) != 0 )
 263:Source\mbedtls_open\library/x509_crl.c ****         {
 264:Source\mbedtls_open\library/x509_crl.c ****             return( ret );
 265:Source\mbedtls_open\library/x509_crl.c ****         }
 266:Source\mbedtls_open\library/x509_crl.c **** 
 267:Source\mbedtls_open\library/x509_crl.c ****         cur_entry->raw.tag = **p;
 277              		.loc 1 267 0
 278 0040 2368     		ldr	r3, [r4]
 279 0042 1B78     		ldrb	r3, [r3]
 280 0044 3360     		str	r3, [r6]
 268:Source\mbedtls_open\library/x509_crl.c ****         cur_entry->raw.p = *p;
 281              		.loc 1 268 0
 282 0046 2368     		ldr	r3, [r4]
 283 0048 B360     		str	r3, [r6, #8]
 269:Source\mbedtls_open\library/x509_crl.c ****         cur_entry->raw.len = len2;
 284              		.loc 1 269 0
 285 004a 009D     		ldr	r5, [sp]
 286 004c 7560     		str	r5, [r6, #4]
 270:Source\mbedtls_open\library/x509_crl.c ****         end2 = *p + len2;
 287              		.loc 1 270 0
 288 004e 2368     		ldr	r3, [r4]
 289 0050 9C46     		mov	ip, r3
 290 0052 6544     		add	r5, r5, ip
ARM GAS  C:\Users\Phuong\AppData\Local\Temp\ccqvrWt4.s 			page 11


 291              	.LVL36:
 271:Source\mbedtls_open\library/x509_crl.c **** 
 272:Source\mbedtls_open\library/x509_crl.c ****         if( ( ret = mbedtls_x509_get_serial( p, end2, &cur_entry->serial ) ) != 0 )
 292              		.loc 1 272 0
 293 0054 3200     		movs	r2, r6
 294 0056 0C32     		adds	r2, r2, #12
 295 0058 2900     		movs	r1, r5
 296 005a 2000     		movs	r0, r4
 297              	.LVL37:
 298 005c FFF7FEFF 		bl	mbedtls_x509_get_serial
 299              	.LVL38:
 300 0060 0028     		cmp	r0, #0
 301 0062 23D1     		bne	.L19
 273:Source\mbedtls_open\library/x509_crl.c ****             return( ret );
 274:Source\mbedtls_open\library/x509_crl.c **** 
 275:Source\mbedtls_open\library/x509_crl.c ****         if( ( ret = mbedtls_x509_get_time( p, end2,
 302              		.loc 1 275 0
 303 0064 3200     		movs	r2, r6
 304 0066 1832     		adds	r2, r2, #24
 305 0068 2900     		movs	r1, r5
 306 006a 2000     		movs	r0, r4
 307              	.LVL39:
 308 006c FFF7FEFF 		bl	mbedtls_x509_get_time
 309              	.LVL40:
 310 0070 0028     		cmp	r0, #0
 311 0072 1BD1     		bne	.L19
 276:Source\mbedtls_open\library/x509_crl.c ****                                    &cur_entry->revocation_date ) ) != 0 )
 277:Source\mbedtls_open\library/x509_crl.c ****             return( ret );
 278:Source\mbedtls_open\library/x509_crl.c **** 
 279:Source\mbedtls_open\library/x509_crl.c ****         if( ( ret = x509_get_crl_entry_ext( p, end2,
 312              		.loc 1 279 0
 313 0074 3200     		movs	r2, r6
 314 0076 3032     		adds	r2, r2, #48
 315 0078 2900     		movs	r1, r5
 316 007a 2000     		movs	r0, r4
 317              	.LVL41:
 318 007c FFF7FEFF 		bl	x509_get_crl_entry_ext
 319              	.LVL42:
 320 0080 0028     		cmp	r0, #0
 321 0082 13D1     		bne	.L19
 280:Source\mbedtls_open\library/x509_crl.c ****                                             &cur_entry->entry_ext ) ) != 0 )
 281:Source\mbedtls_open\library/x509_crl.c ****             return( ret );
 282:Source\mbedtls_open\library/x509_crl.c **** 
 283:Source\mbedtls_open\library/x509_crl.c ****         if( *p < end )
 322              		.loc 1 283 0
 323 0084 2368     		ldr	r3, [r4]
 324 0086 9F42     		cmp	r7, r3
 325 0088 0AD9     		bls	.L21
 284:Source\mbedtls_open\library/x509_crl.c ****         {
 285:Source\mbedtls_open\library/x509_crl.c ****             cur_entry->next = mbedtls_calloc( 1, sizeof( mbedtls_x509_crl_entry ) );
 326              		.loc 1 285 0
 327 008a 4021     		movs	r1, #64
 328 008c 0130     		adds	r0, r0, #1
 329              	.LVL43:
 330 008e FFF7FEFF 		bl	calloc
 331              	.LVL44:
 332 0092 F063     		str	r0, [r6, #60]
ARM GAS  C:\Users\Phuong\AppData\Local\Temp\ccqvrWt4.s 			page 12


 286:Source\mbedtls_open\library/x509_crl.c **** 
 287:Source\mbedtls_open\library/x509_crl.c ****             if( cur_entry->next == NULL )
 333              		.loc 1 287 0
 334 0094 0028     		cmp	r0, #0
 335 0096 01D0     		beq	.L31
 288:Source\mbedtls_open\library/x509_crl.c ****                 return( MBEDTLS_ERR_X509_ALLOC_FAILED );
 289:Source\mbedtls_open\library/x509_crl.c **** 
 290:Source\mbedtls_open\library/x509_crl.c ****             cur_entry = cur_entry->next;
 336              		.loc 1 290 0
 337 0098 0600     		movs	r6, r0
 338              	.LVL45:
 339 009a 01E0     		b	.L21
 340              	.LVL46:
 341              	.L31:
 288:Source\mbedtls_open\library/x509_crl.c ****                 return( MBEDTLS_ERR_X509_ALLOC_FAILED );
 342              		.loc 1 288 0
 343 009c 0448     		ldr	r0, .L32
 344 009e 05E0     		b	.L19
 345              	.LVL47:
 346              	.L21:
 347              	.LBE2:
 256:Source\mbedtls_open\library/x509_crl.c ****     {
 348              		.loc 1 256 0
 349 00a0 2368     		ldr	r3, [r4]
 350 00a2 9F42     		cmp	r7, r3
 351 00a4 C4D8     		bhi	.L24
 291:Source\mbedtls_open\library/x509_crl.c ****         }
 292:Source\mbedtls_open\library/x509_crl.c ****     }
 293:Source\mbedtls_open\library/x509_crl.c **** 
 294:Source\mbedtls_open\library/x509_crl.c ****     return( 0 );
 352              		.loc 1 294 0
 353 00a6 0020     		movs	r0, #0
 354 00a8 00E0     		b	.L19
 355              	.LVL48:
 356              	.L25:
 243:Source\mbedtls_open\library/x509_crl.c **** 
 357              		.loc 1 243 0
 358 00aa 0020     		movs	r0, #0
 359              	.LVL49:
 360              	.L19:
 295:Source\mbedtls_open\library/x509_crl.c **** }
 361              		.loc 1 295 0
 362 00ac 03B0     		add	sp, sp, #12
 363              		@ sp needed
 364              	.LVL50:
 365              	.LVL51:
 366 00ae F0BD     		pop	{r4, r5, r6, r7, pc}
 367              	.L33:
 368              		.align	2
 369              	.L32:
 370 00b0 80D7FFFF 		.word	-10368
 371              		.cfi_endproc
 372              	.LFE14:
 373              		.size	x509_get_entries, .-x509_get_entries
 374              		.section	.text.x509_get_crl_ext,"ax",%progbits
 375              		.align	2
 376              		.code	16
ARM GAS  C:\Users\Phuong\AppData\Local\Temp\ccqvrWt4.s 			page 13


 377              		.thumb_func
 378              		.type	x509_get_crl_ext, %function
 379              	x509_get_crl_ext:
 380              	.LFB12:
 103:Source\mbedtls_open\library/x509_crl.c ****     int ret;
 381              		.loc 1 103 0
 382              		.cfi_startproc
 383              		@ args = 0, pretend = 0, frame = 8
 384              		@ frame_needed = 0, uses_anonymous_args = 0
 385              	.LVL52:
 386 0000 70B5     		push	{r4, r5, r6, lr}
 387              		.cfi_def_cfa_offset 16
 388              		.cfi_offset 4, -16
 389              		.cfi_offset 5, -12
 390              		.cfi_offset 6, -8
 391              		.cfi_offset 14, -4
 392 0002 82B0     		sub	sp, sp, #8
 393              		.cfi_def_cfa_offset 24
 394 0004 0400     		movs	r4, r0
 395 0006 0D00     		movs	r5, r1
 110:Source\mbedtls_open\library/x509_crl.c ****     {
 396              		.loc 1 110 0
 397 0008 0023     		movs	r3, #0
 398 000a FFF7FEFF 		bl	mbedtls_x509_get_ext
 399              	.LVL53:
 400 000e 0028     		cmp	r0, #0
 401 0010 51D0     		beq	.L35
 112:Source\mbedtls_open\library/x509_crl.c ****             return( 0 );
 402              		.loc 1 112 0
 403 0012 0300     		movs	r3, r0
 404 0014 6233     		adds	r3, r3, #98
 405 0016 55D1     		bne	.L36
 113:Source\mbedtls_open\library/x509_crl.c **** 
 406              		.loc 1 113 0
 407 0018 0020     		movs	r0, #0
 408              	.LVL54:
 409 001a 53E0     		b	.L36
 410              	.LVL55:
 411              	.L42:
 412              	.LBB3:
 126:Source\mbedtls_open\library/x509_crl.c ****         const unsigned char *end_ext_data;
 413              		.loc 1 126 0
 414 001c 0023     		movs	r3, #0
 415 001e 0093     		str	r3, [sp]
 131:Source\mbedtls_open\library/x509_crl.c ****                 MBEDTLS_ASN1_CONSTRUCTED | MBEDTLS_ASN1_SEQUENCE ) ) != 0 )
 416              		.loc 1 131 0
 417 0020 3033     		adds	r3, r3, #48
 418 0022 01AA     		add	r2, sp, #4
 419 0024 2900     		movs	r1, r5
 420 0026 2000     		movs	r0, r4
 421              	.LVL56:
 422 0028 FFF7FEFF 		bl	mbedtls_asn1_get_tag
 423              	.LVL57:
 424 002c 0028     		cmp	r0, #0
 425 002e 03D0     		beq	.L37
 133:Source\mbedtls_open\library/x509_crl.c **** 
 426              		.loc 1 133 0
ARM GAS  C:\Users\Phuong\AppData\Local\Temp\ccqvrWt4.s 			page 14


 427 0030 254B     		ldr	r3, .L47
 428 0032 9C46     		mov	ip, r3
 429 0034 6044     		add	r0, r0, ip
 430              	.LVL58:
 431 0036 45E0     		b	.L36
 432              	.LVL59:
 433              	.L37:
 135:Source\mbedtls_open\library/x509_crl.c **** 
 434              		.loc 1 135 0
 435 0038 2368     		ldr	r3, [r4]
 436 003a 019A     		ldr	r2, [sp, #4]
 437 003c 9446     		mov	ip, r2
 438 003e 6344     		add	r3, r3, ip
 439 0040 1E00     		movs	r6, r3
 440              	.LVL60:
 138:Source\mbedtls_open\library/x509_crl.c ****                                           MBEDTLS_ASN1_OID ) ) != 0 )
 441              		.loc 1 138 0
 442 0042 0623     		movs	r3, #6
 443              	.LVL61:
 444 0044 01AA     		add	r2, sp, #4
 445 0046 3100     		movs	r1, r6
 446 0048 2000     		movs	r0, r4
 447              	.LVL62:
 448 004a FFF7FEFF 		bl	mbedtls_asn1_get_tag
 449              	.LVL63:
 450 004e 0028     		cmp	r0, #0
 451 0050 03D0     		beq	.L39
 141:Source\mbedtls_open\library/x509_crl.c ****         }
 452              		.loc 1 141 0
 453 0052 1D4B     		ldr	r3, .L47
 454 0054 9C46     		mov	ip, r3
 455 0056 6044     		add	r0, r0, ip
 456              	.LVL64:
 457 0058 34E0     		b	.L36
 458              	.LVL65:
 459              	.L39:
 143:Source\mbedtls_open\library/x509_crl.c **** 
 460              		.loc 1 143 0
 461 005a 2368     		ldr	r3, [r4]
 462 005c 019A     		ldr	r2, [sp, #4]
 463 005e 9446     		mov	ip, r2
 464 0060 6344     		add	r3, r3, ip
 465 0062 2360     		str	r3, [r4]
 146:Source\mbedtls_open\library/x509_crl.c ****                                            &is_critical ) ) != 0 &&
 466              		.loc 1 146 0
 467 0064 6A46     		mov	r2, sp
 468 0066 3100     		movs	r1, r6
 469 0068 2000     		movs	r0, r4
 470              	.LVL66:
 471 006a FFF7FEFF 		bl	mbedtls_asn1_get_bool
 472              	.LVL67:
 473 006e 0028     		cmp	r0, #0
 474 0070 06D0     		beq	.L40
 147:Source\mbedtls_open\library/x509_crl.c ****             ( ret != MBEDTLS_ERR_ASN1_UNEXPECTED_TAG ) )
 475              		.loc 1 147 0
 476 0072 0300     		movs	r3, r0
 477 0074 6233     		adds	r3, r3, #98
ARM GAS  C:\Users\Phuong\AppData\Local\Temp\ccqvrWt4.s 			page 15


 478 0076 03D0     		beq	.L40
 150:Source\mbedtls_open\library/x509_crl.c ****         }
 479              		.loc 1 150 0
 480 0078 134B     		ldr	r3, .L47
 481 007a 9C46     		mov	ip, r3
 482 007c 6044     		add	r0, r0, ip
 483              	.LVL68:
 484 007e 21E0     		b	.L36
 485              	.LVL69:
 486              	.L40:
 154:Source\mbedtls_open\library/x509_crl.c ****                 MBEDTLS_ASN1_OCTET_STRING ) ) != 0 )
 487              		.loc 1 154 0
 488 0080 0423     		movs	r3, #4
 489 0082 01AA     		add	r2, sp, #4
 490 0084 3100     		movs	r1, r6
 491 0086 2000     		movs	r0, r4
 492              	.LVL70:
 493 0088 FFF7FEFF 		bl	mbedtls_asn1_get_tag
 494              	.LVL71:
 495 008c 0028     		cmp	r0, #0
 496 008e 03D0     		beq	.L41
 156:Source\mbedtls_open\library/x509_crl.c **** 
 497              		.loc 1 156 0
 498 0090 0D4B     		ldr	r3, .L47
 499 0092 9C46     		mov	ip, r3
 500 0094 6044     		add	r0, r0, ip
 501              	.LVL72:
 502 0096 15E0     		b	.L36
 503              	.LVL73:
 504              	.L41:
 159:Source\mbedtls_open\library/x509_crl.c ****         if( *p != end_ext_data )
 505              		.loc 1 159 0
 506 0098 2368     		ldr	r3, [r4]
 507 009a 019A     		ldr	r2, [sp, #4]
 508 009c 9446     		mov	ip, r2
 509 009e 6344     		add	r3, r3, ip
 510 00a0 2360     		str	r3, [r4]
 160:Source\mbedtls_open\library/x509_crl.c ****             return( MBEDTLS_ERR_X509_INVALID_EXTENSIONS +
 511              		.loc 1 160 0
 512 00a2 9E42     		cmp	r6, r3
 513 00a4 03D1     		bne	.L44
 165:Source\mbedtls_open\library/x509_crl.c ****             return( MBEDTLS_ERR_X509_INVALID_EXTENSIONS +
 514              		.loc 1 165 0
 515 00a6 009B     		ldr	r3, [sp]
 516 00a8 002B     		cmp	r3, #0
 517 00aa 04D0     		beq	.L35
 518 00ac 01E0     		b	.L45
 519              	.L44:
 161:Source\mbedtls_open\library/x509_crl.c ****                     MBEDTLS_ERR_ASN1_LENGTH_MISMATCH );
 520              		.loc 1 161 0
 521 00ae 0748     		ldr	r0, .L47+4
 522              	.LVL74:
 523 00b0 08E0     		b	.L36
 524              	.LVL75:
 525              	.L45:
 166:Source\mbedtls_open\library/x509_crl.c ****                     MBEDTLS_ERR_ASN1_UNEXPECTED_TAG );
 526              		.loc 1 166 0
ARM GAS  C:\Users\Phuong\AppData\Local\Temp\ccqvrWt4.s 			page 16


 527 00b2 0748     		ldr	r0, .L47+8
 528              	.LVL76:
 529 00b4 06E0     		b	.L36
 530              	.LVL77:
 531              	.L35:
 532              	.LBE3:
 118:Source\mbedtls_open\library/x509_crl.c ****     {
 533              		.loc 1 118 0
 534 00b6 2368     		ldr	r3, [r4]
 535 00b8 9D42     		cmp	r5, r3
 536 00ba AFD8     		bhi	.L42
 170:Source\mbedtls_open\library/x509_crl.c ****         return( MBEDTLS_ERR_X509_INVALID_EXTENSIONS +
 537              		.loc 1 170 0
 538 00bc 01D0     		beq	.L46
 171:Source\mbedtls_open\library/x509_crl.c ****                 MBEDTLS_ERR_ASN1_LENGTH_MISMATCH );
 539              		.loc 1 171 0
 540 00be 0348     		ldr	r0, .L47+4
 541              	.LVL78:
 542 00c0 00E0     		b	.L36
 543              	.LVL79:
 544              	.L46:
 174:Source\mbedtls_open\library/x509_crl.c **** }
 545              		.loc 1 174 0
 546 00c2 0020     		movs	r0, #0
 547              	.LVL80:
 548              	.L36:
 175:Source\mbedtls_open\library/x509_crl.c **** 
 549              		.loc 1 175 0
 550 00c4 02B0     		add	sp, sp, #8
 551              		@ sp needed
 552              	.LVL81:
 553              	.LVL82:
 554 00c6 70BD     		pop	{r4, r5, r6, pc}
 555              	.L48:
 556              		.align	2
 557              	.L47:
 558 00c8 00DBFFFF 		.word	-9472
 559 00cc 9ADAFFFF 		.word	-9574
 560 00d0 9EDAFFFF 		.word	-9570
 561              		.cfi_endproc
 562              	.LFE12:
 563              		.size	x509_get_crl_ext, .-x509_get_crl_ext
 564              		.section	.text.mbedtls_x509_crl_info,"ax",%progbits
 565              		.align	2
 566              		.global	mbedtls_x509_crl_info
 567              		.code	16
 568              		.thumb_func
 569              		.type	mbedtls_x509_crl_info, %function
 570              	mbedtls_x509_crl_info:
 571              	.LFB17:
 296:Source\mbedtls_open\library/x509_crl.c **** 
 297:Source\mbedtls_open\library/x509_crl.c **** /*
 298:Source\mbedtls_open\library/x509_crl.c ****  * Parse one  CRLs in DER format and append it to the chained list
 299:Source\mbedtls_open\library/x509_crl.c ****  */
 300:Source\mbedtls_open\library/x509_crl.c **** int mbedtls_x509_crl_parse_der( mbedtls_x509_crl *chain,
 301:Source\mbedtls_open\library/x509_crl.c ****                         const unsigned char *buf, size_t buflen )
 302:Source\mbedtls_open\library/x509_crl.c **** {
ARM GAS  C:\Users\Phuong\AppData\Local\Temp\ccqvrWt4.s 			page 17


 303:Source\mbedtls_open\library/x509_crl.c ****     int ret;
 304:Source\mbedtls_open\library/x509_crl.c ****     size_t len;
 305:Source\mbedtls_open\library/x509_crl.c ****     unsigned char *p = NULL, *end = NULL;
 306:Source\mbedtls_open\library/x509_crl.c ****     mbedtls_x509_buf sig_params1, sig_params2, sig_oid2;
 307:Source\mbedtls_open\library/x509_crl.c ****     mbedtls_x509_crl *crl = chain;
 308:Source\mbedtls_open\library/x509_crl.c **** 
 309:Source\mbedtls_open\library/x509_crl.c ****     /*
 310:Source\mbedtls_open\library/x509_crl.c ****      * Check for valid input
 311:Source\mbedtls_open\library/x509_crl.c ****      */
 312:Source\mbedtls_open\library/x509_crl.c ****     if( crl == NULL || buf == NULL )
 313:Source\mbedtls_open\library/x509_crl.c ****         return( MBEDTLS_ERR_X509_BAD_INPUT_DATA );
 314:Source\mbedtls_open\library/x509_crl.c **** 
 315:Source\mbedtls_open\library/x509_crl.c ****     memset( &sig_params1, 0, sizeof( mbedtls_x509_buf ) );
 316:Source\mbedtls_open\library/x509_crl.c ****     memset( &sig_params2, 0, sizeof( mbedtls_x509_buf ) );
 317:Source\mbedtls_open\library/x509_crl.c ****     memset( &sig_oid2, 0, sizeof( mbedtls_x509_buf ) );
 318:Source\mbedtls_open\library/x509_crl.c **** 
 319:Source\mbedtls_open\library/x509_crl.c ****     /*
 320:Source\mbedtls_open\library/x509_crl.c ****      * Add new CRL on the end of the chain if needed.
 321:Source\mbedtls_open\library/x509_crl.c ****      */
 322:Source\mbedtls_open\library/x509_crl.c ****     while( crl->version != 0 && crl->next != NULL )
 323:Source\mbedtls_open\library/x509_crl.c ****         crl = crl->next;
 324:Source\mbedtls_open\library/x509_crl.c **** 
 325:Source\mbedtls_open\library/x509_crl.c ****     if( crl->version != 0 && crl->next == NULL )
 326:Source\mbedtls_open\library/x509_crl.c ****     {
 327:Source\mbedtls_open\library/x509_crl.c ****         crl->next = mbedtls_calloc( 1, sizeof( mbedtls_x509_crl ) );
 328:Source\mbedtls_open\library/x509_crl.c **** 
 329:Source\mbedtls_open\library/x509_crl.c ****         if( crl->next == NULL )
 330:Source\mbedtls_open\library/x509_crl.c ****         {
 331:Source\mbedtls_open\library/x509_crl.c ****             mbedtls_x509_crl_free( crl );
 332:Source\mbedtls_open\library/x509_crl.c ****             return( MBEDTLS_ERR_X509_ALLOC_FAILED );
 333:Source\mbedtls_open\library/x509_crl.c ****         }
 334:Source\mbedtls_open\library/x509_crl.c **** 
 335:Source\mbedtls_open\library/x509_crl.c ****         mbedtls_x509_crl_init( crl->next );
 336:Source\mbedtls_open\library/x509_crl.c ****         crl = crl->next;
 337:Source\mbedtls_open\library/x509_crl.c ****     }
 338:Source\mbedtls_open\library/x509_crl.c **** 
 339:Source\mbedtls_open\library/x509_crl.c ****     /*
 340:Source\mbedtls_open\library/x509_crl.c ****      * Copy raw DER-encoded CRL
 341:Source\mbedtls_open\library/x509_crl.c ****      */
 342:Source\mbedtls_open\library/x509_crl.c ****     if( buflen == 0 )
 343:Source\mbedtls_open\library/x509_crl.c ****         return( MBEDTLS_ERR_X509_INVALID_FORMAT );
 344:Source\mbedtls_open\library/x509_crl.c **** 
 345:Source\mbedtls_open\library/x509_crl.c ****     p = mbedtls_calloc( 1, buflen );
 346:Source\mbedtls_open\library/x509_crl.c ****     if( p == NULL )
 347:Source\mbedtls_open\library/x509_crl.c ****         return( MBEDTLS_ERR_X509_ALLOC_FAILED );
 348:Source\mbedtls_open\library/x509_crl.c **** 
 349:Source\mbedtls_open\library/x509_crl.c ****     memcpy( p, buf, buflen );
 350:Source\mbedtls_open\library/x509_crl.c **** 
 351:Source\mbedtls_open\library/x509_crl.c ****     crl->raw.p = p;
 352:Source\mbedtls_open\library/x509_crl.c ****     crl->raw.len = buflen;
 353:Source\mbedtls_open\library/x509_crl.c **** 
 354:Source\mbedtls_open\library/x509_crl.c ****     end = p + buflen;
 355:Source\mbedtls_open\library/x509_crl.c **** 
 356:Source\mbedtls_open\library/x509_crl.c ****     /*
 357:Source\mbedtls_open\library/x509_crl.c ****      * CertificateList  ::=  SEQUENCE  {
 358:Source\mbedtls_open\library/x509_crl.c ****      *      tbsCertList          TBSCertList,
 359:Source\mbedtls_open\library/x509_crl.c ****      *      signatureAlgorithm   AlgorithmIdentifier,
ARM GAS  C:\Users\Phuong\AppData\Local\Temp\ccqvrWt4.s 			page 18


 360:Source\mbedtls_open\library/x509_crl.c ****      *      signatureValue       BIT STRING  }
 361:Source\mbedtls_open\library/x509_crl.c ****      */
 362:Source\mbedtls_open\library/x509_crl.c ****     if( ( ret = mbedtls_asn1_get_tag( &p, end, &len,
 363:Source\mbedtls_open\library/x509_crl.c ****             MBEDTLS_ASN1_CONSTRUCTED | MBEDTLS_ASN1_SEQUENCE ) ) != 0 )
 364:Source\mbedtls_open\library/x509_crl.c ****     {
 365:Source\mbedtls_open\library/x509_crl.c ****         mbedtls_x509_crl_free( crl );
 366:Source\mbedtls_open\library/x509_crl.c ****         return( MBEDTLS_ERR_X509_INVALID_FORMAT );
 367:Source\mbedtls_open\library/x509_crl.c ****     }
 368:Source\mbedtls_open\library/x509_crl.c **** 
 369:Source\mbedtls_open\library/x509_crl.c ****     if( len != (size_t) ( end - p ) )
 370:Source\mbedtls_open\library/x509_crl.c ****     {
 371:Source\mbedtls_open\library/x509_crl.c ****         mbedtls_x509_crl_free( crl );
 372:Source\mbedtls_open\library/x509_crl.c ****         return( MBEDTLS_ERR_X509_INVALID_FORMAT +
 373:Source\mbedtls_open\library/x509_crl.c ****                 MBEDTLS_ERR_ASN1_LENGTH_MISMATCH );
 374:Source\mbedtls_open\library/x509_crl.c ****     }
 375:Source\mbedtls_open\library/x509_crl.c **** 
 376:Source\mbedtls_open\library/x509_crl.c ****     /*
 377:Source\mbedtls_open\library/x509_crl.c ****      * TBSCertList  ::=  SEQUENCE  {
 378:Source\mbedtls_open\library/x509_crl.c ****      */
 379:Source\mbedtls_open\library/x509_crl.c ****     crl->tbs.p = p;
 380:Source\mbedtls_open\library/x509_crl.c **** 
 381:Source\mbedtls_open\library/x509_crl.c ****     if( ( ret = mbedtls_asn1_get_tag( &p, end, &len,
 382:Source\mbedtls_open\library/x509_crl.c ****             MBEDTLS_ASN1_CONSTRUCTED | MBEDTLS_ASN1_SEQUENCE ) ) != 0 )
 383:Source\mbedtls_open\library/x509_crl.c ****     {
 384:Source\mbedtls_open\library/x509_crl.c ****         mbedtls_x509_crl_free( crl );
 385:Source\mbedtls_open\library/x509_crl.c ****         return( MBEDTLS_ERR_X509_INVALID_FORMAT + ret );
 386:Source\mbedtls_open\library/x509_crl.c ****     }
 387:Source\mbedtls_open\library/x509_crl.c **** 
 388:Source\mbedtls_open\library/x509_crl.c ****     end = p + len;
 389:Source\mbedtls_open\library/x509_crl.c ****     crl->tbs.len = end - crl->tbs.p;
 390:Source\mbedtls_open\library/x509_crl.c **** 
 391:Source\mbedtls_open\library/x509_crl.c ****     /*
 392:Source\mbedtls_open\library/x509_crl.c ****      * Version  ::=  INTEGER  OPTIONAL {  v1(0), v2(1)  }
 393:Source\mbedtls_open\library/x509_crl.c ****      *               -- if present, MUST be v2
 394:Source\mbedtls_open\library/x509_crl.c ****      *
 395:Source\mbedtls_open\library/x509_crl.c ****      * signature            AlgorithmIdentifier
 396:Source\mbedtls_open\library/x509_crl.c ****      */
 397:Source\mbedtls_open\library/x509_crl.c ****     if( ( ret = x509_crl_get_version( &p, end, &crl->version ) ) != 0 ||
 398:Source\mbedtls_open\library/x509_crl.c ****         ( ret = mbedtls_x509_get_alg( &p, end, &crl->sig_oid, &sig_params1 ) ) != 0 )
 399:Source\mbedtls_open\library/x509_crl.c ****     {
 400:Source\mbedtls_open\library/x509_crl.c ****         mbedtls_x509_crl_free( crl );
 401:Source\mbedtls_open\library/x509_crl.c ****         return( ret );
 402:Source\mbedtls_open\library/x509_crl.c ****     }
 403:Source\mbedtls_open\library/x509_crl.c **** 
 404:Source\mbedtls_open\library/x509_crl.c ****     if( crl->version < 0 || crl->version > 1 )
 405:Source\mbedtls_open\library/x509_crl.c ****     {
 406:Source\mbedtls_open\library/x509_crl.c ****         mbedtls_x509_crl_free( crl );
 407:Source\mbedtls_open\library/x509_crl.c ****         return( MBEDTLS_ERR_X509_UNKNOWN_VERSION );
 408:Source\mbedtls_open\library/x509_crl.c ****     }
 409:Source\mbedtls_open\library/x509_crl.c **** 
 410:Source\mbedtls_open\library/x509_crl.c ****     crl->version++;
 411:Source\mbedtls_open\library/x509_crl.c **** 
 412:Source\mbedtls_open\library/x509_crl.c ****     if( ( ret = mbedtls_x509_get_sig_alg( &crl->sig_oid, &sig_params1,
 413:Source\mbedtls_open\library/x509_crl.c ****                                   &crl->sig_md, &crl->sig_pk,
 414:Source\mbedtls_open\library/x509_crl.c ****                                   &crl->sig_opts ) ) != 0 )
 415:Source\mbedtls_open\library/x509_crl.c ****     {
 416:Source\mbedtls_open\library/x509_crl.c ****         mbedtls_x509_crl_free( crl );
ARM GAS  C:\Users\Phuong\AppData\Local\Temp\ccqvrWt4.s 			page 19


 417:Source\mbedtls_open\library/x509_crl.c ****         return( MBEDTLS_ERR_X509_UNKNOWN_SIG_ALG );
 418:Source\mbedtls_open\library/x509_crl.c ****     }
 419:Source\mbedtls_open\library/x509_crl.c **** 
 420:Source\mbedtls_open\library/x509_crl.c ****     /*
 421:Source\mbedtls_open\library/x509_crl.c ****      * issuer               Name
 422:Source\mbedtls_open\library/x509_crl.c ****      */
 423:Source\mbedtls_open\library/x509_crl.c ****     crl->issuer_raw.p = p;
 424:Source\mbedtls_open\library/x509_crl.c **** 
 425:Source\mbedtls_open\library/x509_crl.c ****     if( ( ret = mbedtls_asn1_get_tag( &p, end, &len,
 426:Source\mbedtls_open\library/x509_crl.c ****             MBEDTLS_ASN1_CONSTRUCTED | MBEDTLS_ASN1_SEQUENCE ) ) != 0 )
 427:Source\mbedtls_open\library/x509_crl.c ****     {
 428:Source\mbedtls_open\library/x509_crl.c ****         mbedtls_x509_crl_free( crl );
 429:Source\mbedtls_open\library/x509_crl.c ****         return( MBEDTLS_ERR_X509_INVALID_FORMAT + ret );
 430:Source\mbedtls_open\library/x509_crl.c ****     }
 431:Source\mbedtls_open\library/x509_crl.c **** 
 432:Source\mbedtls_open\library/x509_crl.c ****     if( ( ret = mbedtls_x509_get_name( &p, p + len, &crl->issuer ) ) != 0 )
 433:Source\mbedtls_open\library/x509_crl.c ****     {
 434:Source\mbedtls_open\library/x509_crl.c ****         mbedtls_x509_crl_free( crl );
 435:Source\mbedtls_open\library/x509_crl.c ****         return( ret );
 436:Source\mbedtls_open\library/x509_crl.c ****     }
 437:Source\mbedtls_open\library/x509_crl.c **** 
 438:Source\mbedtls_open\library/x509_crl.c ****     crl->issuer_raw.len = p - crl->issuer_raw.p;
 439:Source\mbedtls_open\library/x509_crl.c **** 
 440:Source\mbedtls_open\library/x509_crl.c ****     /*
 441:Source\mbedtls_open\library/x509_crl.c ****      * thisUpdate          Time
 442:Source\mbedtls_open\library/x509_crl.c ****      * nextUpdate          Time OPTIONAL
 443:Source\mbedtls_open\library/x509_crl.c ****      */
 444:Source\mbedtls_open\library/x509_crl.c ****     if( ( ret = mbedtls_x509_get_time( &p, end, &crl->this_update ) ) != 0 )
 445:Source\mbedtls_open\library/x509_crl.c ****     {
 446:Source\mbedtls_open\library/x509_crl.c ****         mbedtls_x509_crl_free( crl );
 447:Source\mbedtls_open\library/x509_crl.c ****         return( ret );
 448:Source\mbedtls_open\library/x509_crl.c ****     }
 449:Source\mbedtls_open\library/x509_crl.c **** 
 450:Source\mbedtls_open\library/x509_crl.c ****     if( ( ret = mbedtls_x509_get_time( &p, end, &crl->next_update ) ) != 0 )
 451:Source\mbedtls_open\library/x509_crl.c ****     {
 452:Source\mbedtls_open\library/x509_crl.c ****         if( ret != ( MBEDTLS_ERR_X509_INVALID_DATE +
 453:Source\mbedtls_open\library/x509_crl.c ****                         MBEDTLS_ERR_ASN1_UNEXPECTED_TAG ) &&
 454:Source\mbedtls_open\library/x509_crl.c ****             ret != ( MBEDTLS_ERR_X509_INVALID_DATE +
 455:Source\mbedtls_open\library/x509_crl.c ****                         MBEDTLS_ERR_ASN1_OUT_OF_DATA ) )
 456:Source\mbedtls_open\library/x509_crl.c ****         {
 457:Source\mbedtls_open\library/x509_crl.c ****             mbedtls_x509_crl_free( crl );
 458:Source\mbedtls_open\library/x509_crl.c ****             return( ret );
 459:Source\mbedtls_open\library/x509_crl.c ****         }
 460:Source\mbedtls_open\library/x509_crl.c ****     }
 461:Source\mbedtls_open\library/x509_crl.c **** 
 462:Source\mbedtls_open\library/x509_crl.c ****     /*
 463:Source\mbedtls_open\library/x509_crl.c ****      * revokedCertificates    SEQUENCE OF SEQUENCE   {
 464:Source\mbedtls_open\library/x509_crl.c ****      *      userCertificate        CertificateSerialNumber,
 465:Source\mbedtls_open\library/x509_crl.c ****      *      revocationDate         Time,
 466:Source\mbedtls_open\library/x509_crl.c ****      *      crlEntryExtensions     Extensions OPTIONAL
 467:Source\mbedtls_open\library/x509_crl.c ****      *                                   -- if present, MUST be v2
 468:Source\mbedtls_open\library/x509_crl.c ****      *                        } OPTIONAL
 469:Source\mbedtls_open\library/x509_crl.c ****      */
 470:Source\mbedtls_open\library/x509_crl.c ****     if( ( ret = x509_get_entries( &p, end, &crl->entry ) ) != 0 )
 471:Source\mbedtls_open\library/x509_crl.c ****     {
 472:Source\mbedtls_open\library/x509_crl.c ****         mbedtls_x509_crl_free( crl );
 473:Source\mbedtls_open\library/x509_crl.c ****         return( ret );
ARM GAS  C:\Users\Phuong\AppData\Local\Temp\ccqvrWt4.s 			page 20


 474:Source\mbedtls_open\library/x509_crl.c ****     }
 475:Source\mbedtls_open\library/x509_crl.c **** 
 476:Source\mbedtls_open\library/x509_crl.c ****     /*
 477:Source\mbedtls_open\library/x509_crl.c ****      * crlExtensions          EXPLICIT Extensions OPTIONAL
 478:Source\mbedtls_open\library/x509_crl.c ****      *                              -- if present, MUST be v2
 479:Source\mbedtls_open\library/x509_crl.c ****      */
 480:Source\mbedtls_open\library/x509_crl.c ****     if( crl->version == 2 )
 481:Source\mbedtls_open\library/x509_crl.c ****     {
 482:Source\mbedtls_open\library/x509_crl.c ****         ret = x509_get_crl_ext( &p, end, &crl->crl_ext );
 483:Source\mbedtls_open\library/x509_crl.c **** 
 484:Source\mbedtls_open\library/x509_crl.c ****         if( ret != 0 )
 485:Source\mbedtls_open\library/x509_crl.c ****         {
 486:Source\mbedtls_open\library/x509_crl.c ****             mbedtls_x509_crl_free( crl );
 487:Source\mbedtls_open\library/x509_crl.c ****             return( ret );
 488:Source\mbedtls_open\library/x509_crl.c ****         }
 489:Source\mbedtls_open\library/x509_crl.c ****     }
 490:Source\mbedtls_open\library/x509_crl.c **** 
 491:Source\mbedtls_open\library/x509_crl.c ****     if( p != end )
 492:Source\mbedtls_open\library/x509_crl.c ****     {
 493:Source\mbedtls_open\library/x509_crl.c ****         mbedtls_x509_crl_free( crl );
 494:Source\mbedtls_open\library/x509_crl.c ****         return( MBEDTLS_ERR_X509_INVALID_FORMAT +
 495:Source\mbedtls_open\library/x509_crl.c ****                 MBEDTLS_ERR_ASN1_LENGTH_MISMATCH );
 496:Source\mbedtls_open\library/x509_crl.c ****     }
 497:Source\mbedtls_open\library/x509_crl.c **** 
 498:Source\mbedtls_open\library/x509_crl.c ****     end = crl->raw.p + crl->raw.len;
 499:Source\mbedtls_open\library/x509_crl.c **** 
 500:Source\mbedtls_open\library/x509_crl.c ****     /*
 501:Source\mbedtls_open\library/x509_crl.c ****      *  signatureAlgorithm   AlgorithmIdentifier,
 502:Source\mbedtls_open\library/x509_crl.c ****      *  signatureValue       BIT STRING
 503:Source\mbedtls_open\library/x509_crl.c ****      */
 504:Source\mbedtls_open\library/x509_crl.c ****     if( ( ret = mbedtls_x509_get_alg( &p, end, &sig_oid2, &sig_params2 ) ) != 0 )
 505:Source\mbedtls_open\library/x509_crl.c ****     {
 506:Source\mbedtls_open\library/x509_crl.c ****         mbedtls_x509_crl_free( crl );
 507:Source\mbedtls_open\library/x509_crl.c ****         return( ret );
 508:Source\mbedtls_open\library/x509_crl.c ****     }
 509:Source\mbedtls_open\library/x509_crl.c **** 
 510:Source\mbedtls_open\library/x509_crl.c ****     if( crl->sig_oid.len != sig_oid2.len ||
 511:Source\mbedtls_open\library/x509_crl.c ****         memcmp( crl->sig_oid.p, sig_oid2.p, crl->sig_oid.len ) != 0 ||
 512:Source\mbedtls_open\library/x509_crl.c ****         sig_params1.len != sig_params2.len ||
 513:Source\mbedtls_open\library/x509_crl.c ****         ( sig_params1.len != 0 &&
 514:Source\mbedtls_open\library/x509_crl.c ****           memcmp( sig_params1.p, sig_params2.p, sig_params1.len ) != 0 ) )
 515:Source\mbedtls_open\library/x509_crl.c ****     {
 516:Source\mbedtls_open\library/x509_crl.c ****         mbedtls_x509_crl_free( crl );
 517:Source\mbedtls_open\library/x509_crl.c ****         return( MBEDTLS_ERR_X509_SIG_MISMATCH );
 518:Source\mbedtls_open\library/x509_crl.c ****     }
 519:Source\mbedtls_open\library/x509_crl.c **** 
 520:Source\mbedtls_open\library/x509_crl.c ****     if( ( ret = mbedtls_x509_get_sig( &p, end, &crl->sig ) ) != 0 )
 521:Source\mbedtls_open\library/x509_crl.c ****     {
 522:Source\mbedtls_open\library/x509_crl.c ****         mbedtls_x509_crl_free( crl );
 523:Source\mbedtls_open\library/x509_crl.c ****         return( ret );
 524:Source\mbedtls_open\library/x509_crl.c ****     }
 525:Source\mbedtls_open\library/x509_crl.c **** 
 526:Source\mbedtls_open\library/x509_crl.c ****     if( p != end )
 527:Source\mbedtls_open\library/x509_crl.c ****     {
 528:Source\mbedtls_open\library/x509_crl.c ****         mbedtls_x509_crl_free( crl );
 529:Source\mbedtls_open\library/x509_crl.c ****         return( MBEDTLS_ERR_X509_INVALID_FORMAT +
 530:Source\mbedtls_open\library/x509_crl.c ****                 MBEDTLS_ERR_ASN1_LENGTH_MISMATCH );
ARM GAS  C:\Users\Phuong\AppData\Local\Temp\ccqvrWt4.s 			page 21


 531:Source\mbedtls_open\library/x509_crl.c ****     }
 532:Source\mbedtls_open\library/x509_crl.c **** 
 533:Source\mbedtls_open\library/x509_crl.c ****     return( 0 );
 534:Source\mbedtls_open\library/x509_crl.c **** }
 535:Source\mbedtls_open\library/x509_crl.c **** 
 536:Source\mbedtls_open\library/x509_crl.c **** /*
 537:Source\mbedtls_open\library/x509_crl.c ****  * Parse one or more CRLs and add them to the chained list
 538:Source\mbedtls_open\library/x509_crl.c ****  */
 539:Source\mbedtls_open\library/x509_crl.c **** int mbedtls_x509_crl_parse( mbedtls_x509_crl *chain, const unsigned char *buf, size_t buflen )
 540:Source\mbedtls_open\library/x509_crl.c **** {
 541:Source\mbedtls_open\library/x509_crl.c **** #if defined(MBEDTLS_PEM_PARSE_C)
 542:Source\mbedtls_open\library/x509_crl.c ****     int ret;
 543:Source\mbedtls_open\library/x509_crl.c ****     size_t use_len;
 544:Source\mbedtls_open\library/x509_crl.c ****     mbedtls_pem_context pem;
 545:Source\mbedtls_open\library/x509_crl.c ****     int is_pem = 0;
 546:Source\mbedtls_open\library/x509_crl.c **** 
 547:Source\mbedtls_open\library/x509_crl.c ****     if( chain == NULL || buf == NULL )
 548:Source\mbedtls_open\library/x509_crl.c ****         return( MBEDTLS_ERR_X509_BAD_INPUT_DATA );
 549:Source\mbedtls_open\library/x509_crl.c **** 
 550:Source\mbedtls_open\library/x509_crl.c ****     do
 551:Source\mbedtls_open\library/x509_crl.c ****     {
 552:Source\mbedtls_open\library/x509_crl.c ****         mbedtls_pem_init( &pem );
 553:Source\mbedtls_open\library/x509_crl.c **** 
 554:Source\mbedtls_open\library/x509_crl.c ****         // Avoid calling mbedtls_pem_read_buffer() on non-null-terminated
 555:Source\mbedtls_open\library/x509_crl.c ****         // string
 556:Source\mbedtls_open\library/x509_crl.c ****         if( buflen == 0 || buf[buflen - 1] != '\0' )
 557:Source\mbedtls_open\library/x509_crl.c ****             ret = MBEDTLS_ERR_PEM_NO_HEADER_FOOTER_PRESENT;
 558:Source\mbedtls_open\library/x509_crl.c ****         else
 559:Source\mbedtls_open\library/x509_crl.c ****             ret = mbedtls_pem_read_buffer( &pem,
 560:Source\mbedtls_open\library/x509_crl.c ****                                            "-----BEGIN X509 CRL-----",
 561:Source\mbedtls_open\library/x509_crl.c ****                                            "-----END X509 CRL-----",
 562:Source\mbedtls_open\library/x509_crl.c ****                                             buf, NULL, 0, &use_len );
 563:Source\mbedtls_open\library/x509_crl.c **** 
 564:Source\mbedtls_open\library/x509_crl.c ****         if( ret == 0 )
 565:Source\mbedtls_open\library/x509_crl.c ****         {
 566:Source\mbedtls_open\library/x509_crl.c ****             /*
 567:Source\mbedtls_open\library/x509_crl.c ****              * Was PEM encoded
 568:Source\mbedtls_open\library/x509_crl.c ****              */
 569:Source\mbedtls_open\library/x509_crl.c ****             is_pem = 1;
 570:Source\mbedtls_open\library/x509_crl.c **** 
 571:Source\mbedtls_open\library/x509_crl.c ****             buflen -= use_len;
 572:Source\mbedtls_open\library/x509_crl.c ****             buf += use_len;
 573:Source\mbedtls_open\library/x509_crl.c **** 
 574:Source\mbedtls_open\library/x509_crl.c ****             if( ( ret = mbedtls_x509_crl_parse_der( chain,
 575:Source\mbedtls_open\library/x509_crl.c ****                                             pem.buf, pem.buflen ) ) != 0 )
 576:Source\mbedtls_open\library/x509_crl.c ****             {
 577:Source\mbedtls_open\library/x509_crl.c ****                 mbedtls_pem_free( &pem );
 578:Source\mbedtls_open\library/x509_crl.c ****                 return( ret );
 579:Source\mbedtls_open\library/x509_crl.c ****             }
 580:Source\mbedtls_open\library/x509_crl.c ****         }
 581:Source\mbedtls_open\library/x509_crl.c ****         else if( is_pem )
 582:Source\mbedtls_open\library/x509_crl.c ****         {
 583:Source\mbedtls_open\library/x509_crl.c ****             mbedtls_pem_free( &pem );
 584:Source\mbedtls_open\library/x509_crl.c ****             return( ret );
 585:Source\mbedtls_open\library/x509_crl.c ****         }
 586:Source\mbedtls_open\library/x509_crl.c **** 
 587:Source\mbedtls_open\library/x509_crl.c ****         mbedtls_pem_free( &pem );
ARM GAS  C:\Users\Phuong\AppData\Local\Temp\ccqvrWt4.s 			page 22


 588:Source\mbedtls_open\library/x509_crl.c ****     }
 589:Source\mbedtls_open\library/x509_crl.c ****     /* In the PEM case, buflen is 1 at the end, for the terminated NULL byte.
 590:Source\mbedtls_open\library/x509_crl.c ****      * And a valid CRL cannot be less than 1 byte anyway. */
 591:Source\mbedtls_open\library/x509_crl.c ****     while( is_pem && buflen > 1 );
 592:Source\mbedtls_open\library/x509_crl.c **** 
 593:Source\mbedtls_open\library/x509_crl.c ****     if( is_pem )
 594:Source\mbedtls_open\library/x509_crl.c ****         return( 0 );
 595:Source\mbedtls_open\library/x509_crl.c ****     else
 596:Source\mbedtls_open\library/x509_crl.c **** #endif /* MBEDTLS_PEM_PARSE_C */
 597:Source\mbedtls_open\library/x509_crl.c ****         return( mbedtls_x509_crl_parse_der( chain, buf, buflen ) );
 598:Source\mbedtls_open\library/x509_crl.c **** }
 599:Source\mbedtls_open\library/x509_crl.c **** 
 600:Source\mbedtls_open\library/x509_crl.c **** #if defined(MBEDTLS_FS_IO)
 601:Source\mbedtls_open\library/x509_crl.c **** /*
 602:Source\mbedtls_open\library/x509_crl.c ****  * Load one or more CRLs and add them to the chained list
 603:Source\mbedtls_open\library/x509_crl.c ****  */
 604:Source\mbedtls_open\library/x509_crl.c **** int mbedtls_x509_crl_parse_file( mbedtls_x509_crl *chain, const char *path )
 605:Source\mbedtls_open\library/x509_crl.c **** {
 606:Source\mbedtls_open\library/x509_crl.c ****     int ret;
 607:Source\mbedtls_open\library/x509_crl.c ****     size_t n;
 608:Source\mbedtls_open\library/x509_crl.c ****     unsigned char *buf;
 609:Source\mbedtls_open\library/x509_crl.c **** 
 610:Source\mbedtls_open\library/x509_crl.c ****     if( ( ret = mbedtls_pk_load_file( path, &buf, &n ) ) != 0 )
 611:Source\mbedtls_open\library/x509_crl.c ****         return( ret );
 612:Source\mbedtls_open\library/x509_crl.c **** 
 613:Source\mbedtls_open\library/x509_crl.c ****     ret = mbedtls_x509_crl_parse( chain, buf, n );
 614:Source\mbedtls_open\library/x509_crl.c **** 
 615:Source\mbedtls_open\library/x509_crl.c ****     mbedtls_platform_zeroize( buf, n );
 616:Source\mbedtls_open\library/x509_crl.c ****     mbedtls_free( buf );
 617:Source\mbedtls_open\library/x509_crl.c **** 
 618:Source\mbedtls_open\library/x509_crl.c ****     return( ret );
 619:Source\mbedtls_open\library/x509_crl.c **** }
 620:Source\mbedtls_open\library/x509_crl.c **** #endif /* MBEDTLS_FS_IO */
 621:Source\mbedtls_open\library/x509_crl.c **** 
 622:Source\mbedtls_open\library/x509_crl.c **** /*
 623:Source\mbedtls_open\library/x509_crl.c ****  * Return an informational string about the certificate.
 624:Source\mbedtls_open\library/x509_crl.c ****  */
 625:Source\mbedtls_open\library/x509_crl.c **** #define BEFORE_COLON    14
 626:Source\mbedtls_open\library/x509_crl.c **** #define BC              "14"
 627:Source\mbedtls_open\library/x509_crl.c **** /*
 628:Source\mbedtls_open\library/x509_crl.c ****  * Return an informational string about the CRL.
 629:Source\mbedtls_open\library/x509_crl.c ****  */
 630:Source\mbedtls_open\library/x509_crl.c **** int mbedtls_x509_crl_info( char *buf, size_t size, const char *prefix,
 631:Source\mbedtls_open\library/x509_crl.c ****                    const mbedtls_x509_crl *crl )
 632:Source\mbedtls_open\library/x509_crl.c **** {
 572              		.loc 1 632 0
 573              		.cfi_startproc
 574              		@ args = 0, pretend = 0, frame = 8
 575              		@ frame_needed = 0, uses_anonymous_args = 0
 576              	.LVL83:
 577 0000 F0B5     		push	{r4, r5, r6, r7, lr}
 578              		.cfi_def_cfa_offset 20
 579              		.cfi_offset 4, -20
 580              		.cfi_offset 5, -16
 581              		.cfi_offset 6, -12
 582              		.cfi_offset 7, -8
 583              		.cfi_offset 14, -4
ARM GAS  C:\Users\Phuong\AppData\Local\Temp\ccqvrWt4.s 			page 23


 584 0002 5746     		mov	r7, r10
 585 0004 4646     		mov	r6, r8
 586 0006 C0B4     		push	{r6, r7}
 587              		.cfi_def_cfa_offset 28
 588              		.cfi_offset 8, -28
 589              		.cfi_offset 10, -24
 590 0008 89B0     		sub	sp, sp, #36
 591              		.cfi_def_cfa_offset 64
 592 000a 0400     		movs	r4, r0
 593 000c 8846     		mov	r8, r1
 594 000e 1500     		movs	r5, r2
 595 0010 1F00     		movs	r7, r3
 596              	.LVL84:
 633:Source\mbedtls_open\library/x509_crl.c ****     int ret;
 634:Source\mbedtls_open\library/x509_crl.c ****     size_t n;
 635:Source\mbedtls_open\library/x509_crl.c ****     char *p;
 636:Source\mbedtls_open\library/x509_crl.c ****     const mbedtls_x509_crl_entry *entry;
 637:Source\mbedtls_open\library/x509_crl.c **** 
 638:Source\mbedtls_open\library/x509_crl.c ****     p = buf;
 639:Source\mbedtls_open\library/x509_crl.c ****     n = size;
 640:Source\mbedtls_open\library/x509_crl.c **** 
 641:Source\mbedtls_open\library/x509_crl.c ****     ret = mbedtls_snprintf( p, n, "%sCRL version   : %d",
 597              		.loc 1 641 0
 598 0012 9B69     		ldr	r3, [r3, #24]
 599              	.LVL85:
 600 0014 0093     		str	r3, [sp]
 601 0016 1300     		movs	r3, r2
 602 0018 834A     		ldr	r2, .L78
 603              	.LVL86:
 604 001a FFF7FEFF 		bl	snprintf
 605              	.LVL87:
 642:Source\mbedtls_open\library/x509_crl.c ****                                prefix, crl->version );
 643:Source\mbedtls_open\library/x509_crl.c ****     MBEDTLS_X509_SAFE_SNPRINTF;
 606              		.loc 1 643 0
 607 001e 0028     		cmp	r0, #0
 608 0020 00DA     		bge	.LCB655
 609 0022 CCE0     		b	.L54	@long jump
 610              	.LCB655:
 611              		.loc 1 643 0 is_stmt 0 discriminator 2
 612 0024 8045     		cmp	r8, r0
 613 0026 00D8     		bhi	.LCB658
 614 0028 CBE0     		b	.L55	@long jump
 615              	.LCB658:
 616              		.loc 1 643 0 discriminator 4
 617 002a 4346     		mov	r3, r8
 618 002c 1E1A     		subs	r6, r3, r0
 619              	.LVL88:
 620 002e 2418     		adds	r4, r4, r0
 621              	.LVL89:
 644:Source\mbedtls_open\library/x509_crl.c **** 
 645:Source\mbedtls_open\library/x509_crl.c ****     ret = mbedtls_snprintf( p, n, "\n%sissuer name   : ", prefix );
 622              		.loc 1 645 0 is_stmt 1 discriminator 4
 623 0030 2B00     		movs	r3, r5
 624 0032 7E4A     		ldr	r2, .L78+4
 625 0034 3100     		movs	r1, r6
 626 0036 2000     		movs	r0, r4
 627              	.LVL90:
ARM GAS  C:\Users\Phuong\AppData\Local\Temp\ccqvrWt4.s 			page 24


 628 0038 FFF7FEFF 		bl	snprintf
 629              	.LVL91:
 646:Source\mbedtls_open\library/x509_crl.c ****     MBEDTLS_X509_SAFE_SNPRINTF;
 630              		.loc 1 646 0 discriminator 4
 631 003c 0028     		cmp	r0, #0
 632 003e 00DA     		bge	.LCB675
 633 0040 C1E0     		b	.L56	@long jump
 634              	.LCB675:
 635              		.loc 1 646 0 is_stmt 0 discriminator 2
 636 0042 8642     		cmp	r6, r0
 637 0044 00D8     		bhi	.LCB678
 638 0046 C0E0     		b	.L57	@long jump
 639              	.LCB678:
 640              		.loc 1 646 0 discriminator 4
 641 0048 361A     		subs	r6, r6, r0
 642              	.LVL92:
 643 004a 2418     		adds	r4, r4, r0
 644              	.LVL93:
 647:Source\mbedtls_open\library/x509_crl.c ****     ret = mbedtls_x509_dn_gets( p, n, &crl->issuer );
 645              		.loc 1 647 0 is_stmt 1 discriminator 4
 646 004c 3A00     		movs	r2, r7
 647 004e 3432     		adds	r2, r2, #52
 648 0050 3100     		movs	r1, r6
 649 0052 2000     		movs	r0, r4
 650              	.LVL94:
 651 0054 FFF7FEFF 		bl	mbedtls_x509_dn_gets
 652              	.LVL95:
 648:Source\mbedtls_open\library/x509_crl.c ****     MBEDTLS_X509_SAFE_SNPRINTF;
 653              		.loc 1 648 0 discriminator 4
 654 0058 0028     		cmp	r0, #0
 655 005a 00DA     		bge	.LCB694
 656 005c B7E0     		b	.L58	@long jump
 657              	.LCB694:
 658              		.loc 1 648 0 is_stmt 0 discriminator 2
 659 005e 8642     		cmp	r6, r0
 660 0060 00D8     		bhi	.LCB697
 661 0062 B6E0     		b	.L59	@long jump
 662              	.LCB697:
 663              		.loc 1 648 0 discriminator 4
 664 0064 361A     		subs	r6, r6, r0
 665              	.LVL96:
 666 0066 2418     		adds	r4, r4, r0
 667              	.LVL97:
 649:Source\mbedtls_open\library/x509_crl.c **** 
 650:Source\mbedtls_open\library/x509_crl.c ****     ret = mbedtls_snprintf( p, n, "\n%sthis update   : " \
 668              		.loc 1 650 0 is_stmt 1 discriminator 4
 669 0068 BB6E     		ldr	r3, [r7, #104]
 670 006a 0593     		str	r3, [sp, #20]
 671 006c 7B6E     		ldr	r3, [r7, #100]
 672 006e 0493     		str	r3, [sp, #16]
 673 0070 3B6E     		ldr	r3, [r7, #96]
 674 0072 0393     		str	r3, [sp, #12]
 675 0074 FB6D     		ldr	r3, [r7, #92]
 676 0076 0293     		str	r3, [sp, #8]
 677 0078 BB6D     		ldr	r3, [r7, #88]
 678 007a 0193     		str	r3, [sp, #4]
 679 007c 7B6D     		ldr	r3, [r7, #84]
ARM GAS  C:\Users\Phuong\AppData\Local\Temp\ccqvrWt4.s 			page 25


 680 007e 0093     		str	r3, [sp]
 681 0080 2B00     		movs	r3, r5
 682 0082 6B4A     		ldr	r2, .L78+8
 683 0084 3100     		movs	r1, r6
 684 0086 2000     		movs	r0, r4
 685              	.LVL98:
 686 0088 FFF7FEFF 		bl	snprintf
 687              	.LVL99:
 651:Source\mbedtls_open\library/x509_crl.c ****                    "%04d-%02d-%02d %02d:%02d:%02d", prefix,
 652:Source\mbedtls_open\library/x509_crl.c ****                    crl->this_update.year, crl->this_update.mon,
 653:Source\mbedtls_open\library/x509_crl.c ****                    crl->this_update.day,  crl->this_update.hour,
 654:Source\mbedtls_open\library/x509_crl.c ****                    crl->this_update.min,  crl->this_update.sec );
 655:Source\mbedtls_open\library/x509_crl.c ****     MBEDTLS_X509_SAFE_SNPRINTF;
 688              		.loc 1 655 0 discriminator 4
 689 008c 0028     		cmp	r0, #0
 690 008e 00DA     		bge	.LCB731
 691 0090 A1E0     		b	.L60	@long jump
 692              	.LCB731:
 693              		.loc 1 655 0 is_stmt 0 discriminator 2
 694 0092 8642     		cmp	r6, r0
 695 0094 00D8     		bhi	.LCB734
 696 0096 A0E0     		b	.L61	@long jump
 697              	.LCB734:
 698              		.loc 1 655 0 discriminator 4
 699 0098 361A     		subs	r6, r6, r0
 700              	.LVL100:
 701 009a 2418     		adds	r4, r4, r0
 702              	.LVL101:
 656:Source\mbedtls_open\library/x509_crl.c **** 
 657:Source\mbedtls_open\library/x509_crl.c ****     ret = mbedtls_snprintf( p, n, "\n%snext update   : " \
 703              		.loc 1 657 0 is_stmt 1 discriminator 4
 704 009c 8023     		movs	r3, #128
 705 009e FB58     		ldr	r3, [r7, r3]
 706 00a0 0593     		str	r3, [sp, #20]
 707 00a2 FB6F     		ldr	r3, [r7, #124]
 708 00a4 0493     		str	r3, [sp, #16]
 709 00a6 BB6F     		ldr	r3, [r7, #120]
 710 00a8 0393     		str	r3, [sp, #12]
 711 00aa 7B6F     		ldr	r3, [r7, #116]
 712 00ac 0293     		str	r3, [sp, #8]
 713 00ae 3B6F     		ldr	r3, [r7, #112]
 714 00b0 0193     		str	r3, [sp, #4]
 715 00b2 FB6E     		ldr	r3, [r7, #108]
 716 00b4 0093     		str	r3, [sp]
 717 00b6 0795     		str	r5, [sp, #28]
 718 00b8 2B00     		movs	r3, r5
 719 00ba 5E4A     		ldr	r2, .L78+12
 720 00bc 3100     		movs	r1, r6
 721 00be 2000     		movs	r0, r4
 722              	.LVL102:
 723 00c0 FFF7FEFF 		bl	snprintf
 724              	.LVL103:
 658:Source\mbedtls_open\library/x509_crl.c ****                    "%04d-%02d-%02d %02d:%02d:%02d", prefix,
 659:Source\mbedtls_open\library/x509_crl.c ****                    crl->next_update.year, crl->next_update.mon,
 660:Source\mbedtls_open\library/x509_crl.c ****                    crl->next_update.day,  crl->next_update.hour,
 661:Source\mbedtls_open\library/x509_crl.c ****                    crl->next_update.min,  crl->next_update.sec );
 662:Source\mbedtls_open\library/x509_crl.c ****     MBEDTLS_X509_SAFE_SNPRINTF;
ARM GAS  C:\Users\Phuong\AppData\Local\Temp\ccqvrWt4.s 			page 26


 725              		.loc 1 662 0 discriminator 4
 726 00c4 0028     		cmp	r0, #0
 727 00c6 00DA     		bge	.LCB771
 728 00c8 89E0     		b	.L62	@long jump
 729              	.LCB771:
 730              		.loc 1 662 0 is_stmt 0 discriminator 2
 731 00ca 8642     		cmp	r6, r0
 732 00cc 00D8     		bhi	.LCB774
 733 00ce 88E0     		b	.L63	@long jump
 734              	.LCB774:
 735              		.loc 1 662 0 discriminator 4
 736 00d0 321A     		subs	r2, r6, r0
 737 00d2 9246     		mov	r10, r2
 738              	.LVL104:
 739 00d4 2518     		adds	r5, r4, r0
 740              	.LVL105:
 663:Source\mbedtls_open\library/x509_crl.c **** 
 664:Source\mbedtls_open\library/x509_crl.c ****     entry = &crl->entry;
 741              		.loc 1 664 0 is_stmt 1 discriminator 4
 742 00d6 3E00     		movs	r6, r7
 743 00d8 8436     		adds	r6, r6, #132
 744              	.LVL106:
 665:Source\mbedtls_open\library/x509_crl.c **** 
 666:Source\mbedtls_open\library/x509_crl.c ****     ret = mbedtls_snprintf( p, n, "\n%sRevoked certificates:",
 745              		.loc 1 666 0 discriminator 4
 746 00da 079B     		ldr	r3, [sp, #28]
 747 00dc 564A     		ldr	r2, .L78+16
 748              	.LVL107:
 749 00de 5146     		mov	r1, r10
 750 00e0 2800     		movs	r0, r5
 751              	.LVL108:
 752 00e2 FFF7FEFF 		bl	snprintf
 753              	.LVL109:
 667:Source\mbedtls_open\library/x509_crl.c ****                                prefix );
 668:Source\mbedtls_open\library/x509_crl.c ****     MBEDTLS_X509_SAFE_SNPRINTF;
 754              		.loc 1 668 0 discriminator 4
 755 00e6 0028     		cmp	r0, #0
 756 00e8 7DDB     		blt	.L64
 757              		.loc 1 668 0 is_stmt 0 discriminator 2
 758 00ea 8245     		cmp	r10, r0
 759 00ec 7DD9     		bls	.L65
 760              		.loc 1 668 0 discriminator 4
 761 00ee 5346     		mov	r3, r10
 762 00f0 1C1A     		subs	r4, r3, r0
 763              	.LVL110:
 764 00f2 2D18     		adds	r5, r5, r0
 765              	.LVL111:
 669:Source\mbedtls_open\library/x509_crl.c **** 
 670:Source\mbedtls_open\library/x509_crl.c ****     while( entry != NULL && entry->raw.len != 0 )
 766              		.loc 1 670 0 is_stmt 1 discriminator 4
 767 00f4 32E0     		b	.L51
 768              	.L53:
 671:Source\mbedtls_open\library/x509_crl.c ****     {
 672:Source\mbedtls_open\library/x509_crl.c ****         ret = mbedtls_snprintf( p, n, "\n%sserial number: ",
 769              		.loc 1 672 0
 770 00f6 079B     		ldr	r3, [sp, #28]
 771 00f8 504A     		ldr	r2, .L78+20
ARM GAS  C:\Users\Phuong\AppData\Local\Temp\ccqvrWt4.s 			page 27


 772 00fa 2100     		movs	r1, r4
 773 00fc 2800     		movs	r0, r5
 774              	.LVL112:
 775 00fe FFF7FEFF 		bl	snprintf
 776              	.LVL113:
 673:Source\mbedtls_open\library/x509_crl.c ****                                prefix );
 674:Source\mbedtls_open\library/x509_crl.c ****         MBEDTLS_X509_SAFE_SNPRINTF;
 777              		.loc 1 674 0
 778 0102 0028     		cmp	r0, #0
 779 0104 73DB     		blt	.L66
 780              		.loc 1 674 0 is_stmt 0 discriminator 2
 781 0106 8442     		cmp	r4, r0
 782 0108 73D9     		bls	.L67
 783              		.loc 1 674 0 discriminator 4
 784 010a 241A     		subs	r4, r4, r0
 785              	.LVL114:
 786 010c 2D18     		adds	r5, r5, r0
 787              	.LVL115:
 675:Source\mbedtls_open\library/x509_crl.c **** 
 676:Source\mbedtls_open\library/x509_crl.c ****         ret = mbedtls_x509_serial_gets( p, n, &entry->serial );
 788              		.loc 1 676 0 is_stmt 1 discriminator 4
 789 010e 3200     		movs	r2, r6
 790 0110 0C32     		adds	r2, r2, #12
 791 0112 2100     		movs	r1, r4
 792 0114 2800     		movs	r0, r5
 793              	.LVL116:
 794 0116 FFF7FEFF 		bl	mbedtls_x509_serial_gets
 795              	.LVL117:
 677:Source\mbedtls_open\library/x509_crl.c ****         MBEDTLS_X509_SAFE_SNPRINTF;
 796              		.loc 1 677 0 discriminator 4
 797 011a 0028     		cmp	r0, #0
 798 011c 6BDB     		blt	.L68
 799              		.loc 1 677 0 is_stmt 0 discriminator 2
 800 011e 8442     		cmp	r4, r0
 801 0120 6BD9     		bls	.L69
 802              		.loc 1 677 0 discriminator 4
 803 0122 241A     		subs	r4, r4, r0
 804              	.LVL118:
 805 0124 2D18     		adds	r5, r5, r0
 806              	.LVL119:
 678:Source\mbedtls_open\library/x509_crl.c **** 
 679:Source\mbedtls_open\library/x509_crl.c ****         ret = mbedtls_snprintf( p, n, " revocation date: " \
 807              		.loc 1 679 0 is_stmt 1 discriminator 4
 808 0126 B369     		ldr	r3, [r6, #24]
 809 0128 9A46     		mov	r10, r3
 810 012a F269     		ldr	r2, [r6, #28]
 811 012c 316A     		ldr	r1, [r6, #32]
 812 012e 706A     		ldr	r0, [r6, #36]
 813              	.LVL120:
 814 0130 B36A     		ldr	r3, [r6, #40]
 815 0132 9C46     		mov	ip, r3
 816 0134 F36A     		ldr	r3, [r6, #44]
 817 0136 0493     		str	r3, [sp, #16]
 818 0138 6346     		mov	r3, ip
 819 013a 0393     		str	r3, [sp, #12]
 820 013c 0290     		str	r0, [sp, #8]
 821 013e 0191     		str	r1, [sp, #4]
ARM GAS  C:\Users\Phuong\AppData\Local\Temp\ccqvrWt4.s 			page 28


 822 0140 0092     		str	r2, [sp]
 823 0142 5346     		mov	r3, r10
 824 0144 3E4A     		ldr	r2, .L78+24
 825 0146 2100     		movs	r1, r4
 826 0148 2800     		movs	r0, r5
 827 014a FFF7FEFF 		bl	snprintf
 828              	.LVL121:
 680:Source\mbedtls_open\library/x509_crl.c ****                    "%04d-%02d-%02d %02d:%02d:%02d",
 681:Source\mbedtls_open\library/x509_crl.c ****                    entry->revocation_date.year, entry->revocation_date.mon,
 682:Source\mbedtls_open\library/x509_crl.c ****                    entry->revocation_date.day,  entry->revocation_date.hour,
 683:Source\mbedtls_open\library/x509_crl.c ****                    entry->revocation_date.min,  entry->revocation_date.sec );
 684:Source\mbedtls_open\library/x509_crl.c ****         MBEDTLS_X509_SAFE_SNPRINTF;
 829              		.loc 1 684 0 discriminator 4
 830 014e 0028     		cmp	r0, #0
 831 0150 55DB     		blt	.L70
 832              		.loc 1 684 0 is_stmt 0 discriminator 2
 833 0152 8442     		cmp	r4, r0
 834 0154 55D9     		bls	.L71
 835              		.loc 1 684 0 discriminator 4
 836 0156 241A     		subs	r4, r4, r0
 837              	.LVL122:
 838 0158 2D18     		adds	r5, r5, r0
 839              	.LVL123:
 685:Source\mbedtls_open\library/x509_crl.c **** 
 686:Source\mbedtls_open\library/x509_crl.c ****         entry = entry->next;
 840              		.loc 1 686 0 is_stmt 1 discriminator 4
 841 015a F66B     		ldr	r6, [r6, #60]
 842              	.LVL124:
 843              	.L51:
 670:Source\mbedtls_open\library/x509_crl.c ****     {
 844              		.loc 1 670 0
 845 015c 002E     		cmp	r6, #0
 846 015e 02D0     		beq	.L52
 670:Source\mbedtls_open\library/x509_crl.c ****     {
 847              		.loc 1 670 0 is_stmt 0 discriminator 1
 848 0160 7368     		ldr	r3, [r6, #4]
 849 0162 002B     		cmp	r3, #0
 850 0164 C7D1     		bne	.L53
 851              	.L52:
 687:Source\mbedtls_open\library/x509_crl.c ****     }
 688:Source\mbedtls_open\library/x509_crl.c **** 
 689:Source\mbedtls_open\library/x509_crl.c ****     ret = mbedtls_snprintf( p, n, "\n%ssigned using  : ", prefix );
 852              		.loc 1 689 0 is_stmt 1
 853 0166 079B     		ldr	r3, [sp, #28]
 854 0168 364A     		ldr	r2, .L78+28
 855 016a 2100     		movs	r1, r4
 856 016c 2800     		movs	r0, r5
 857              	.LVL125:
 858 016e FFF7FEFF 		bl	snprintf
 859              	.LVL126:
 690:Source\mbedtls_open\library/x509_crl.c ****     MBEDTLS_X509_SAFE_SNPRINTF;
 860              		.loc 1 690 0
 861 0172 0028     		cmp	r0, #0
 862 0174 47DB     		blt	.L72
 863              		.loc 1 690 0 is_stmt 0 discriminator 2
 864 0176 8442     		cmp	r4, r0
 865 0178 47D9     		bls	.L73
ARM GAS  C:\Users\Phuong\AppData\Local\Temp\ccqvrWt4.s 			page 29


 866              		.loc 1 690 0 discriminator 4
 867 017a 241A     		subs	r4, r4, r0
 868              	.LVL127:
 869 017c 2D18     		adds	r5, r5, r0
 870              	.LVL128:
 691:Source\mbedtls_open\library/x509_crl.c **** 
 692:Source\mbedtls_open\library/x509_crl.c ****     ret = mbedtls_x509_sig_alg_gets( p, n, &crl->sig_oid, crl->sig_pk, crl->sig_md,
 871              		.loc 1 692 0 is_stmt 1 discriminator 4
 872 017e 3A00     		movs	r2, r7
 873 0180 1C32     		adds	r2, r2, #28
 874 0182 E923     		movs	r3, #233
 875 0184 FB5C     		ldrb	r3, [r7, r3]
 876 0186 E821     		movs	r1, #232
 877 0188 795C     		ldrb	r1, [r7, r1]
 693:Source\mbedtls_open\library/x509_crl.c ****                              crl->sig_opts );
 878              		.loc 1 693 0 discriminator 4
 879 018a EC20     		movs	r0, #236
 880              	.LVL129:
 881 018c 3858     		ldr	r0, [r7, r0]
 882 018e 0190     		str	r0, [sp, #4]
 692:Source\mbedtls_open\library/x509_crl.c ****                              crl->sig_opts );
 883              		.loc 1 692 0 discriminator 4
 884 0190 0091     		str	r1, [sp]
 885 0192 2100     		movs	r1, r4
 886 0194 2800     		movs	r0, r5
 887 0196 FFF7FEFF 		bl	mbedtls_x509_sig_alg_gets
 888              	.LVL130:
 694:Source\mbedtls_open\library/x509_crl.c ****     MBEDTLS_X509_SAFE_SNPRINTF;
 889              		.loc 1 694 0 discriminator 4
 890 019a 0028     		cmp	r0, #0
 891 019c 37DB     		blt	.L74
 892              		.loc 1 694 0 is_stmt 0 discriminator 2
 893 019e 8442     		cmp	r4, r0
 894 01a0 37D9     		bls	.L75
 895              		.loc 1 694 0 discriminator 4
 896 01a2 241A     		subs	r4, r4, r0
 897              	.LVL131:
 898 01a4 2818     		adds	r0, r5, r0
 899              	.LVL132:
 695:Source\mbedtls_open\library/x509_crl.c **** 
 696:Source\mbedtls_open\library/x509_crl.c ****     ret = mbedtls_snprintf( p, n, "\n" );
 900              		.loc 1 696 0 is_stmt 1 discriminator 4
 901 01a6 284A     		ldr	r2, .L78+32
 902 01a8 2100     		movs	r1, r4
 903 01aa FFF7FEFF 		bl	snprintf
 904              	.LVL133:
 697:Source\mbedtls_open\library/x509_crl.c ****     MBEDTLS_X509_SAFE_SNPRINTF;
 905              		.loc 1 697 0 discriminator 4
 906 01ae 0028     		cmp	r0, #0
 907 01b0 31DB     		blt	.L76
 908              		.loc 1 697 0 is_stmt 0 discriminator 2
 909 01b2 8442     		cmp	r4, r0
 910 01b4 31D9     		bls	.L77
 911              		.loc 1 697 0 discriminator 4
 912 01b6 241A     		subs	r4, r4, r0
 913              	.LVL134:
 698:Source\mbedtls_open\library/x509_crl.c **** 
ARM GAS  C:\Users\Phuong\AppData\Local\Temp\ccqvrWt4.s 			page 30


 699:Source\mbedtls_open\library/x509_crl.c ****     return( (int) ( size - n ) );
 914              		.loc 1 699 0 is_stmt 1 discriminator 4
 915 01b8 4346     		mov	r3, r8
 916 01ba 181B     		subs	r0, r3, r4
 917              	.LVL135:
 918 01bc 2EE0     		b	.L50
 919              	.LVL136:
 920              	.L54:
 643:Source\mbedtls_open\library/x509_crl.c **** 
 921              		.loc 1 643 0
 922 01be 2348     		ldr	r0, .L78+36
 923              	.LVL137:
 924 01c0 2CE0     		b	.L50
 925              	.LVL138:
 926              	.L55:
 927 01c2 2248     		ldr	r0, .L78+36
 928              	.LVL139:
 929 01c4 2AE0     		b	.L50
 930              	.LVL140:
 931              	.L56:
 646:Source\mbedtls_open\library/x509_crl.c ****     ret = mbedtls_x509_dn_gets( p, n, &crl->issuer );
 932              		.loc 1 646 0
 933 01c6 2148     		ldr	r0, .L78+36
 934              	.LVL141:
 935 01c8 28E0     		b	.L50
 936              	.LVL142:
 937              	.L57:
 938 01ca 2048     		ldr	r0, .L78+36
 939              	.LVL143:
 940 01cc 26E0     		b	.L50
 941              	.LVL144:
 942              	.L58:
 648:Source\mbedtls_open\library/x509_crl.c **** 
 943              		.loc 1 648 0
 944 01ce 1F48     		ldr	r0, .L78+36
 945              	.LVL145:
 946 01d0 24E0     		b	.L50
 947              	.LVL146:
 948              	.L59:
 949 01d2 1E48     		ldr	r0, .L78+36
 950              	.LVL147:
 951 01d4 22E0     		b	.L50
 952              	.LVL148:
 953              	.L60:
 655:Source\mbedtls_open\library/x509_crl.c **** 
 954              		.loc 1 655 0
 955 01d6 1D48     		ldr	r0, .L78+36
 956              	.LVL149:
 957 01d8 20E0     		b	.L50
 958              	.LVL150:
 959              	.L61:
 960 01da 1C48     		ldr	r0, .L78+36
 961              	.LVL151:
 962 01dc 1EE0     		b	.L50
 963              	.LVL152:
 964              	.L62:
 662:Source\mbedtls_open\library/x509_crl.c **** 
ARM GAS  C:\Users\Phuong\AppData\Local\Temp\ccqvrWt4.s 			page 31


 965              		.loc 1 662 0
 966 01de 1B48     		ldr	r0, .L78+36
 967              	.LVL153:
 968 01e0 1CE0     		b	.L50
 969              	.LVL154:
 970              	.L63:
 971 01e2 1A48     		ldr	r0, .L78+36
 972              	.LVL155:
 973 01e4 1AE0     		b	.L50
 974              	.LVL156:
 975              	.L64:
 668:Source\mbedtls_open\library/x509_crl.c **** 
 976              		.loc 1 668 0
 977 01e6 1948     		ldr	r0, .L78+36
 978              	.LVL157:
 979 01e8 18E0     		b	.L50
 980              	.LVL158:
 981              	.L65:
 982 01ea 1848     		ldr	r0, .L78+36
 983              	.LVL159:
 984 01ec 16E0     		b	.L50
 985              	.LVL160:
 986              	.L66:
 674:Source\mbedtls_open\library/x509_crl.c **** 
 987              		.loc 1 674 0
 988 01ee 1748     		ldr	r0, .L78+36
 989              	.LVL161:
 990 01f0 14E0     		b	.L50
 991              	.LVL162:
 992              	.L67:
 993 01f2 1648     		ldr	r0, .L78+36
 994              	.LVL163:
 995 01f4 12E0     		b	.L50
 996              	.LVL164:
 997              	.L68:
 677:Source\mbedtls_open\library/x509_crl.c **** 
 998              		.loc 1 677 0
 999 01f6 1548     		ldr	r0, .L78+36
 1000              	.LVL165:
 1001 01f8 10E0     		b	.L50
 1002              	.LVL166:
 1003              	.L69:
 1004 01fa 1448     		ldr	r0, .L78+36
 1005              	.LVL167:
 1006 01fc 0EE0     		b	.L50
 1007              	.LVL168:
 1008              	.L70:
 684:Source\mbedtls_open\library/x509_crl.c **** 
 1009              		.loc 1 684 0
 1010 01fe 1348     		ldr	r0, .L78+36
 1011              	.LVL169:
 1012 0200 0CE0     		b	.L50
 1013              	.LVL170:
 1014              	.L71:
 1015 0202 1248     		ldr	r0, .L78+36
 1016              	.LVL171:
 1017 0204 0AE0     		b	.L50
ARM GAS  C:\Users\Phuong\AppData\Local\Temp\ccqvrWt4.s 			page 32


 1018              	.LVL172:
 1019              	.L72:
 690:Source\mbedtls_open\library/x509_crl.c **** 
 1020              		.loc 1 690 0
 1021 0206 1148     		ldr	r0, .L78+36
 1022              	.LVL173:
 1023 0208 08E0     		b	.L50
 1024              	.LVL174:
 1025              	.L73:
 1026 020a 1048     		ldr	r0, .L78+36
 1027              	.LVL175:
 1028 020c 06E0     		b	.L50
 1029              	.LVL176:
 1030              	.L74:
 694:Source\mbedtls_open\library/x509_crl.c **** 
 1031              		.loc 1 694 0
 1032 020e 0F48     		ldr	r0, .L78+36
 1033              	.LVL177:
 1034 0210 04E0     		b	.L50
 1035              	.LVL178:
 1036              	.L75:
 1037 0212 0E48     		ldr	r0, .L78+36
 1038              	.LVL179:
 1039 0214 02E0     		b	.L50
 1040              	.LVL180:
 1041              	.L76:
 697:Source\mbedtls_open\library/x509_crl.c **** 
 1042              		.loc 1 697 0
 1043 0216 0D48     		ldr	r0, .L78+36
 1044              	.LVL181:
 1045 0218 00E0     		b	.L50
 1046              	.LVL182:
 1047              	.L77:
 1048 021a 0C48     		ldr	r0, .L78+36
 1049              	.LVL183:
 1050              	.L50:
 700:Source\mbedtls_open\library/x509_crl.c **** }
 1051              		.loc 1 700 0
 1052 021c 09B0     		add	sp, sp, #36
 1053              		@ sp needed
 1054              	.LVL184:
 1055              	.LVL185:
 1056 021e 0CBC     		pop	{r2, r3}
 1057 0220 9046     		mov	r8, r2
 1058 0222 9A46     		mov	r10, r3
 1059 0224 F0BD     		pop	{r4, r5, r6, r7, pc}
 1060              	.L79:
 1061 0226 C046     		.align	2
 1062              	.L78:
 1063 0228 00000000 		.word	.LC0
 1064 022c 18000000 		.word	.LC2
 1065 0230 2C000000 		.word	.LC4
 1066 0234 60000000 		.word	.LC6
 1067 0238 94000000 		.word	.LC8
 1068 023c B0000000 		.word	.LC10
 1069 0240 C4000000 		.word	.LC12
 1070 0244 F4000000 		.word	.LC14
ARM GAS  C:\Users\Phuong\AppData\Local\Temp\ccqvrWt4.s 			page 33


 1071 0248 08010000 		.word	.LC16
 1072 024c 80D6FFFF 		.word	-10624
 1073              		.cfi_endproc
 1074              	.LFE17:
 1075              		.size	mbedtls_x509_crl_info, .-mbedtls_x509_crl_info
 1076              		.section	.text.mbedtls_x509_crl_init,"ax",%progbits
 1077              		.align	2
 1078              		.global	mbedtls_x509_crl_init
 1079              		.code	16
 1080              		.thumb_func
 1081              		.type	mbedtls_x509_crl_init, %function
 1082              	mbedtls_x509_crl_init:
 1083              	.LFB18:
 701:Source\mbedtls_open\library/x509_crl.c **** 
 702:Source\mbedtls_open\library/x509_crl.c **** /*
 703:Source\mbedtls_open\library/x509_crl.c ****  * Initialize a CRL chain
 704:Source\mbedtls_open\library/x509_crl.c ****  */
 705:Source\mbedtls_open\library/x509_crl.c **** void mbedtls_x509_crl_init( mbedtls_x509_crl *crl )
 706:Source\mbedtls_open\library/x509_crl.c **** {
 1084              		.loc 1 706 0
 1085              		.cfi_startproc
 1086              		@ args = 0, pretend = 0, frame = 0
 1087              		@ frame_needed = 0, uses_anonymous_args = 0
 1088              	.LVL186:
 1089 0000 10B5     		push	{r4, lr}
 1090              		.cfi_def_cfa_offset 8
 1091              		.cfi_offset 4, -8
 1092              		.cfi_offset 14, -4
 707:Source\mbedtls_open\library/x509_crl.c ****     memset( crl, 0, sizeof(mbedtls_x509_crl) );
 1093              		.loc 1 707 0
 1094 0002 F422     		movs	r2, #244
 1095 0004 0021     		movs	r1, #0
 1096 0006 FFF7FEFF 		bl	memset
 1097              	.LVL187:
 708:Source\mbedtls_open\library/x509_crl.c **** }
 1098              		.loc 1 708 0
 1099              		@ sp needed
 1100 000a 10BD     		pop	{r4, pc}
 1101              		.cfi_endproc
 1102              	.LFE18:
 1103              		.size	mbedtls_x509_crl_init, .-mbedtls_x509_crl_init
 1104              		.section	.text.mbedtls_x509_crl_free,"ax",%progbits
 1105              		.align	2
 1106              		.global	mbedtls_x509_crl_free
 1107              		.code	16
 1108              		.thumb_func
 1109              		.type	mbedtls_x509_crl_free, %function
 1110              	mbedtls_x509_crl_free:
 1111              	.LFB19:
 709:Source\mbedtls_open\library/x509_crl.c **** 
 710:Source\mbedtls_open\library/x509_crl.c **** /*
 711:Source\mbedtls_open\library/x509_crl.c ****  * Unallocate all CRL data
 712:Source\mbedtls_open\library/x509_crl.c ****  */
 713:Source\mbedtls_open\library/x509_crl.c **** void mbedtls_x509_crl_free( mbedtls_x509_crl *crl )
 714:Source\mbedtls_open\library/x509_crl.c **** {
 1112              		.loc 1 714 0
 1113              		.cfi_startproc
ARM GAS  C:\Users\Phuong\AppData\Local\Temp\ccqvrWt4.s 			page 34


 1114              		@ args = 0, pretend = 0, frame = 0
 1115              		@ frame_needed = 0, uses_anonymous_args = 0
 1116              	.LVL188:
 1117 0000 F8B5     		push	{r3, r4, r5, r6, r7, lr}
 1118              		.cfi_def_cfa_offset 24
 1119              		.cfi_offset 3, -24
 1120              		.cfi_offset 4, -20
 1121              		.cfi_offset 5, -16
 1122              		.cfi_offset 6, -12
 1123              		.cfi_offset 7, -8
 1124              		.cfi_offset 14, -4
 1125 0002 071E     		subs	r7, r0, #0
 1126              	.LVL189:
 715:Source\mbedtls_open\library/x509_crl.c ****     mbedtls_x509_crl *crl_cur = crl;
 716:Source\mbedtls_open\library/x509_crl.c ****     mbedtls_x509_crl *crl_prv;
 717:Source\mbedtls_open\library/x509_crl.c ****     mbedtls_x509_name *name_cur;
 718:Source\mbedtls_open\library/x509_crl.c ****     mbedtls_x509_name *name_prv;
 719:Source\mbedtls_open\library/x509_crl.c ****     mbedtls_x509_crl_entry *entry_cur;
 720:Source\mbedtls_open\library/x509_crl.c ****     mbedtls_x509_crl_entry *entry_prv;
 721:Source\mbedtls_open\library/x509_crl.c **** 
 722:Source\mbedtls_open\library/x509_crl.c ****     if( crl == NULL )
 1127              		.loc 1 722 0
 1128 0004 3AD0     		beq	.L81
 1129 0006 0600     		movs	r6, r0
 1130              	.LVL190:
 1131              	.L88:
 723:Source\mbedtls_open\library/x509_crl.c ****         return;
 724:Source\mbedtls_open\library/x509_crl.c **** 
 725:Source\mbedtls_open\library/x509_crl.c ****     do
 726:Source\mbedtls_open\library/x509_crl.c ****     {
 727:Source\mbedtls_open\library/x509_crl.c **** #if defined(MBEDTLS_X509_RSASSA_PSS_SUPPORT)
 728:Source\mbedtls_open\library/x509_crl.c ****         mbedtls_free( crl_cur->sig_opts );
 1132              		.loc 1 728 0
 1133 0008 EC23     		movs	r3, #236
 1134 000a F058     		ldr	r0, [r6, r3]
 1135 000c FFF7FEFF 		bl	free
 1136              	.LVL191:
 729:Source\mbedtls_open\library/x509_crl.c **** #endif
 730:Source\mbedtls_open\library/x509_crl.c **** 
 731:Source\mbedtls_open\library/x509_crl.c ****         name_cur = crl_cur->issuer.next;
 1137              		.loc 1 731 0
 1138 0010 F46C     		ldr	r4, [r6, #76]
 1139              	.LVL192:
 732:Source\mbedtls_open\library/x509_crl.c ****         while( name_cur != NULL )
 1140              		.loc 1 732 0
 1141 0012 08E0     		b	.L83
 1142              	.L84:
 1143              	.LVL193:
 733:Source\mbedtls_open\library/x509_crl.c ****         {
 734:Source\mbedtls_open\library/x509_crl.c ****             name_prv = name_cur;
 735:Source\mbedtls_open\library/x509_crl.c ****             name_cur = name_cur->next;
 1144              		.loc 1 735 0
 1145 0014 A569     		ldr	r5, [r4, #24]
 1146              	.LVL194:
 736:Source\mbedtls_open\library/x509_crl.c ****             mbedtls_platform_zeroize( name_prv, sizeof( mbedtls_x509_name ) );
 1147              		.loc 1 736 0
 1148 0016 2021     		movs	r1, #32
ARM GAS  C:\Users\Phuong\AppData\Local\Temp\ccqvrWt4.s 			page 35


 1149 0018 2000     		movs	r0, r4
 1150 001a FFF7FEFF 		bl	mbedtls_platform_zeroize
 1151              	.LVL195:
 737:Source\mbedtls_open\library/x509_crl.c ****             mbedtls_free( name_prv );
 1152              		.loc 1 737 0
 1153 001e 2000     		movs	r0, r4
 1154 0020 FFF7FEFF 		bl	free
 1155              	.LVL196:
 735:Source\mbedtls_open\library/x509_crl.c ****             mbedtls_platform_zeroize( name_prv, sizeof( mbedtls_x509_name ) );
 1156              		.loc 1 735 0
 1157 0024 2C00     		movs	r4, r5
 1158              	.LVL197:
 1159              	.L83:
 732:Source\mbedtls_open\library/x509_crl.c ****         {
 1160              		.loc 1 732 0
 1161 0026 002C     		cmp	r4, #0
 1162 0028 F4D1     		bne	.L84
 738:Source\mbedtls_open\library/x509_crl.c ****         }
 739:Source\mbedtls_open\library/x509_crl.c **** 
 740:Source\mbedtls_open\library/x509_crl.c ****         entry_cur = crl_cur->entry.next;
 1163              		.loc 1 740 0
 1164 002a C023     		movs	r3, #192
 1165 002c F458     		ldr	r4, [r6, r3]
 1166              	.LVL198:
 741:Source\mbedtls_open\library/x509_crl.c ****         while( entry_cur != NULL )
 1167              		.loc 1 741 0
 1168 002e 08E0     		b	.L85
 1169              	.L86:
 1170              	.LVL199:
 742:Source\mbedtls_open\library/x509_crl.c ****         {
 743:Source\mbedtls_open\library/x509_crl.c ****             entry_prv = entry_cur;
 744:Source\mbedtls_open\library/x509_crl.c ****             entry_cur = entry_cur->next;
 1171              		.loc 1 744 0
 1172 0030 E56B     		ldr	r5, [r4, #60]
 1173              	.LVL200:
 745:Source\mbedtls_open\library/x509_crl.c ****             mbedtls_platform_zeroize( entry_prv,
 1174              		.loc 1 745 0
 1175 0032 4021     		movs	r1, #64
 1176 0034 2000     		movs	r0, r4
 1177 0036 FFF7FEFF 		bl	mbedtls_platform_zeroize
 1178              	.LVL201:
 746:Source\mbedtls_open\library/x509_crl.c ****                                       sizeof( mbedtls_x509_crl_entry ) );
 747:Source\mbedtls_open\library/x509_crl.c ****             mbedtls_free( entry_prv );
 1179              		.loc 1 747 0
 1180 003a 2000     		movs	r0, r4
 1181 003c FFF7FEFF 		bl	free
 1182              	.LVL202:
 744:Source\mbedtls_open\library/x509_crl.c ****             mbedtls_platform_zeroize( entry_prv,
 1183              		.loc 1 744 0
 1184 0040 2C00     		movs	r4, r5
 1185              	.LVL203:
 1186              	.L85:
 741:Source\mbedtls_open\library/x509_crl.c ****         {
 1187              		.loc 1 741 0
 1188 0042 002C     		cmp	r4, #0
 1189 0044 F4D1     		bne	.L86
 748:Source\mbedtls_open\library/x509_crl.c ****         }
ARM GAS  C:\Users\Phuong\AppData\Local\Temp\ccqvrWt4.s 			page 36


 749:Source\mbedtls_open\library/x509_crl.c **** 
 750:Source\mbedtls_open\library/x509_crl.c ****         if( crl_cur->raw.p != NULL )
 1190              		.loc 1 750 0
 1191 0046 B068     		ldr	r0, [r6, #8]
 1192 0048 0028     		cmp	r0, #0
 1193 004a 05D0     		beq	.L87
 751:Source\mbedtls_open\library/x509_crl.c ****         {
 752:Source\mbedtls_open\library/x509_crl.c ****             mbedtls_platform_zeroize( crl_cur->raw.p, crl_cur->raw.len );
 1194              		.loc 1 752 0
 1195 004c 7168     		ldr	r1, [r6, #4]
 1196 004e FFF7FEFF 		bl	mbedtls_platform_zeroize
 1197              	.LVL204:
 753:Source\mbedtls_open\library/x509_crl.c ****             mbedtls_free( crl_cur->raw.p );
 1198              		.loc 1 753 0
 1199 0052 B068     		ldr	r0, [r6, #8]
 1200 0054 FFF7FEFF 		bl	free
 1201              	.LVL205:
 1202              	.L87:
 754:Source\mbedtls_open\library/x509_crl.c ****         }
 755:Source\mbedtls_open\library/x509_crl.c **** 
 756:Source\mbedtls_open\library/x509_crl.c ****         crl_cur = crl_cur->next;
 1203              		.loc 1 756 0
 1204 0058 F023     		movs	r3, #240
 1205 005a F658     		ldr	r6, [r6, r3]
 1206              	.LVL206:
 757:Source\mbedtls_open\library/x509_crl.c ****     }
 758:Source\mbedtls_open\library/x509_crl.c ****     while( crl_cur != NULL );
 1207              		.loc 1 758 0
 1208 005c 002E     		cmp	r6, #0
 1209 005e D3D1     		bne	.L88
 1210 0060 3C00     		movs	r4, r7
 1211              	.LVL207:
 1212              	.L90:
 759:Source\mbedtls_open\library/x509_crl.c **** 
 760:Source\mbedtls_open\library/x509_crl.c ****     crl_cur = crl;
 761:Source\mbedtls_open\library/x509_crl.c ****     do
 762:Source\mbedtls_open\library/x509_crl.c ****     {
 763:Source\mbedtls_open\library/x509_crl.c ****         crl_prv = crl_cur;
 764:Source\mbedtls_open\library/x509_crl.c ****         crl_cur = crl_cur->next;
 1213              		.loc 1 764 0
 1214 0062 F023     		movs	r3, #240
 1215 0064 E558     		ldr	r5, [r4, r3]
 1216              	.LVL208:
 765:Source\mbedtls_open\library/x509_crl.c **** 
 766:Source\mbedtls_open\library/x509_crl.c ****         mbedtls_platform_zeroize( crl_prv, sizeof( mbedtls_x509_crl ) );
 1217              		.loc 1 766 0
 1218 0066 F421     		movs	r1, #244
 1219 0068 2000     		movs	r0, r4
 1220 006a FFF7FEFF 		bl	mbedtls_platform_zeroize
 1221              	.LVL209:
 767:Source\mbedtls_open\library/x509_crl.c ****         if( crl_prv != crl )
 1222              		.loc 1 767 0
 1223 006e BC42     		cmp	r4, r7
 1224 0070 02D0     		beq	.L89
 768:Source\mbedtls_open\library/x509_crl.c ****             mbedtls_free( crl_prv );
 1225              		.loc 1 768 0
 1226 0072 2000     		movs	r0, r4
ARM GAS  C:\Users\Phuong\AppData\Local\Temp\ccqvrWt4.s 			page 37


 1227 0074 FFF7FEFF 		bl	free
 1228              	.LVL210:
 1229              	.L89:
 764:Source\mbedtls_open\library/x509_crl.c **** 
 1230              		.loc 1 764 0
 1231 0078 2C1E     		subs	r4, r5, #0
 1232              	.LVL211:
 769:Source\mbedtls_open\library/x509_crl.c ****     }
 770:Source\mbedtls_open\library/x509_crl.c ****     while( crl_cur != NULL );
 1233              		.loc 1 770 0
 1234 007a F2D1     		bne	.L90
 1235              	.LVL212:
 1236              	.L81:
 771:Source\mbedtls_open\library/x509_crl.c **** }
 1237              		.loc 1 771 0
 1238              		@ sp needed
 1239              	.LVL213:
 1240 007c F8BD     		pop	{r3, r4, r5, r6, r7, pc}
 1241              		.cfi_endproc
 1242              	.LFE19:
 1243              		.size	mbedtls_x509_crl_free, .-mbedtls_x509_crl_free
 1244 007e C046     		.section	.text.mbedtls_x509_crl_parse_der,"ax",%progbits
 1245              		.align	2
 1246              		.global	mbedtls_x509_crl_parse_der
 1247              		.code	16
 1248              		.thumb_func
 1249              		.type	mbedtls_x509_crl_parse_der, %function
 1250              	mbedtls_x509_crl_parse_der:
 1251              	.LFB15:
 302:Source\mbedtls_open\library/x509_crl.c ****     int ret;
 1252              		.loc 1 302 0
 1253              		.cfi_startproc
 1254              		@ args = 0, pretend = 0, frame = 48
 1255              		@ frame_needed = 0, uses_anonymous_args = 0
 1256              	.LVL214:
 1257 0000 F0B5     		push	{r4, r5, r6, r7, lr}
 1258              		.cfi_def_cfa_offset 20
 1259              		.cfi_offset 4, -20
 1260              		.cfi_offset 5, -16
 1261              		.cfi_offset 6, -12
 1262              		.cfi_offset 7, -8
 1263              		.cfi_offset 14, -4
 1264 0002 8FB0     		sub	sp, sp, #60
 1265              		.cfi_def_cfa_offset 80
 1266 0004 0400     		movs	r4, r0
 1267 0006 0D00     		movs	r5, r1
 1268 0008 1600     		movs	r6, r2
 305:Source\mbedtls_open\library/x509_crl.c ****     mbedtls_x509_buf sig_params1, sig_params2, sig_oid2;
 1269              		.loc 1 305 0
 1270 000a 0023     		movs	r3, #0
 1271 000c 0C93     		str	r3, [sp, #48]
 1272              	.LVL215:
 312:Source\mbedtls_open\library/x509_crl.c ****         return( MBEDTLS_ERR_X509_BAD_INPUT_DATA );
 1273              		.loc 1 312 0
 1274 000e 0028     		cmp	r0, #0
 1275 0010 00D1     		bne	.LCB1407
 1276 0012 4BE1     		b	.L115	@long jump
ARM GAS  C:\Users\Phuong\AppData\Local\Temp\ccqvrWt4.s 			page 38


 1277              	.LCB1407:
 312:Source\mbedtls_open\library/x509_crl.c ****         return( MBEDTLS_ERR_X509_BAD_INPUT_DATA );
 1278              		.loc 1 312 0 is_stmt 0 discriminator 1
 1279 0014 0029     		cmp	r1, #0
 1280 0016 00D1     		bne	.LCB1409
 1281 0018 4AE1     		b	.L116	@long jump
 1282              	.LCB1409:
 315:Source\mbedtls_open\library/x509_crl.c ****     memset( &sig_params2, 0, sizeof( mbedtls_x509_buf ) );
 1283              		.loc 1 315 0 is_stmt 1
 1284 001a 0C22     		movs	r2, #12
 1285              	.LVL216:
 1286 001c 0021     		movs	r1, #0
 1287              	.LVL217:
 1288 001e 09A8     		add	r0, sp, #36
 1289              	.LVL218:
 1290 0020 FFF7FEFF 		bl	memset
 1291              	.LVL219:
 316:Source\mbedtls_open\library/x509_crl.c ****     memset( &sig_oid2, 0, sizeof( mbedtls_x509_buf ) );
 1292              		.loc 1 316 0
 1293 0024 0C22     		movs	r2, #12
 1294 0026 0021     		movs	r1, #0
 1295 0028 06A8     		add	r0, sp, #24
 1296 002a FFF7FEFF 		bl	memset
 1297              	.LVL220:
 317:Source\mbedtls_open\library/x509_crl.c **** 
 1298              		.loc 1 317 0
 1299 002e 0C22     		movs	r2, #12
 1300 0030 0021     		movs	r1, #0
 1301 0032 03A8     		add	r0, sp, #12
 1302 0034 FFF7FEFF 		bl	memset
 1303              	.LVL221:
 322:Source\mbedtls_open\library/x509_crl.c ****         crl = crl->next;
 1304              		.loc 1 322 0
 1305 0038 00E0     		b	.L94
 1306              	.LVL222:
 1307              	.L117:
 323:Source\mbedtls_open\library/x509_crl.c **** 
 1308              		.loc 1 323 0
 1309 003a 1C00     		movs	r4, r3
 1310              	.LVL223:
 1311              	.L94:
 322:Source\mbedtls_open\library/x509_crl.c ****         crl = crl->next;
 1312              		.loc 1 322 0
 1313 003c A269     		ldr	r2, [r4, #24]
 1314 003e 002A     		cmp	r2, #0
 1315 0040 03D0     		beq	.L93
 322:Source\mbedtls_open\library/x509_crl.c ****         crl = crl->next;
 1316              		.loc 1 322 0 is_stmt 0 discriminator 1
 1317 0042 F023     		movs	r3, #240
 1318 0044 E358     		ldr	r3, [r4, r3]
 1319 0046 002B     		cmp	r3, #0
 1320 0048 F7D1     		bne	.L117
 1321              	.L93:
 325:Source\mbedtls_open\library/x509_crl.c ****     {
 1322              		.loc 1 325 0 is_stmt 1
 1323 004a 002A     		cmp	r2, #0
 1324 004c 14D0     		beq	.L95
ARM GAS  C:\Users\Phuong\AppData\Local\Temp\ccqvrWt4.s 			page 39


 325:Source\mbedtls_open\library/x509_crl.c ****     {
 1325              		.loc 1 325 0 is_stmt 0 discriminator 1
 1326 004e F023     		movs	r3, #240
 1327 0050 E358     		ldr	r3, [r4, r3]
 1328 0052 002B     		cmp	r3, #0
 1329 0054 10D1     		bne	.L95
 327:Source\mbedtls_open\library/x509_crl.c **** 
 1330              		.loc 1 327 0 is_stmt 1
 1331 0056 F421     		movs	r1, #244
 1332 0058 0120     		movs	r0, #1
 1333 005a FFF7FEFF 		bl	calloc
 1334              	.LVL224:
 1335 005e F023     		movs	r3, #240
 1336 0060 E050     		str	r0, [r4, r3]
 329:Source\mbedtls_open\library/x509_crl.c ****         {
 1337              		.loc 1 329 0
 1338 0062 0028     		cmp	r0, #0
 1339 0064 04D1     		bne	.L96
 331:Source\mbedtls_open\library/x509_crl.c ****             return( MBEDTLS_ERR_X509_ALLOC_FAILED );
 1340              		.loc 1 331 0
 1341 0066 2000     		movs	r0, r4
 1342 0068 FFF7FEFF 		bl	mbedtls_x509_crl_free
 1343              	.LVL225:
 332:Source\mbedtls_open\library/x509_crl.c ****         }
 1344              		.loc 1 332 0
 1345 006c 944D     		ldr	r5, .L120
 1346              	.LVL226:
 1347 006e 24E1     		b	.L92
 1348              	.LVL227:
 1349              	.L96:
 335:Source\mbedtls_open\library/x509_crl.c ****         crl = crl->next;
 1350              		.loc 1 335 0
 1351 0070 FFF7FEFF 		bl	mbedtls_x509_crl_init
 1352              	.LVL228:
 336:Source\mbedtls_open\library/x509_crl.c ****     }
 1353              		.loc 1 336 0
 1354 0074 F023     		movs	r3, #240
 1355 0076 E458     		ldr	r4, [r4, r3]
 1356              	.LVL229:
 1357              	.L95:
 342:Source\mbedtls_open\library/x509_crl.c ****         return( MBEDTLS_ERR_X509_INVALID_FORMAT );
 1358              		.loc 1 342 0
 1359 0078 002E     		cmp	r6, #0
 1360 007a 00D1     		bne	.LCB1484
 1361 007c 1AE1     		b	.L118	@long jump
 1362              	.LCB1484:
 345:Source\mbedtls_open\library/x509_crl.c ****     if( p == NULL )
 1363              		.loc 1 345 0
 1364 007e 3100     		movs	r1, r6
 1365 0080 0120     		movs	r0, #1
 1366 0082 FFF7FEFF 		bl	calloc
 1367              	.LVL230:
 1368 0086 0C90     		str	r0, [sp, #48]
 346:Source\mbedtls_open\library/x509_crl.c ****         return( MBEDTLS_ERR_X509_ALLOC_FAILED );
 1369              		.loc 1 346 0
 1370 0088 0028     		cmp	r0, #0
 1371 008a 00D1     		bne	.LCB1492
ARM GAS  C:\Users\Phuong\AppData\Local\Temp\ccqvrWt4.s 			page 40


 1372 008c 14E1     		b	.L119	@long jump
 1373              	.LCB1492:
 349:Source\mbedtls_open\library/x509_crl.c **** 
 1374              		.loc 1 349 0
 1375 008e 3200     		movs	r2, r6
 1376 0090 2900     		movs	r1, r5
 1377 0092 FFF7FEFF 		bl	memcpy
 1378              	.LVL231:
 351:Source\mbedtls_open\library/x509_crl.c ****     crl->raw.len = buflen;
 1379              		.loc 1 351 0
 1380 0096 0C9B     		ldr	r3, [sp, #48]
 1381 0098 A360     		str	r3, [r4, #8]
 352:Source\mbedtls_open\library/x509_crl.c **** 
 1382              		.loc 1 352 0
 1383 009a 6660     		str	r6, [r4, #4]
 354:Source\mbedtls_open\library/x509_crl.c **** 
 1384              		.loc 1 354 0
 1385 009c 9E19     		adds	r6, r3, r6
 1386              	.LVL232:
 362:Source\mbedtls_open\library/x509_crl.c ****             MBEDTLS_ASN1_CONSTRUCTED | MBEDTLS_ASN1_SEQUENCE ) ) != 0 )
 1387              		.loc 1 362 0
 1388 009e 3023     		movs	r3, #48
 1389 00a0 0DAA     		add	r2, sp, #52
 1390 00a2 3100     		movs	r1, r6
 1391 00a4 0CA8     		add	r0, sp, #48
 1392 00a6 FFF7FEFF 		bl	mbedtls_asn1_get_tag
 1393              	.LVL233:
 1394 00aa 0028     		cmp	r0, #0
 1395 00ac 04D0     		beq	.L97
 365:Source\mbedtls_open\library/x509_crl.c ****         return( MBEDTLS_ERR_X509_INVALID_FORMAT );
 1396              		.loc 1 365 0
 1397 00ae 2000     		movs	r0, r4
 1398              	.LVL234:
 1399 00b0 FFF7FEFF 		bl	mbedtls_x509_crl_free
 1400              	.LVL235:
 366:Source\mbedtls_open\library/x509_crl.c ****     }
 1401              		.loc 1 366 0
 1402 00b4 834D     		ldr	r5, .L120+4
 1403              	.LVL236:
 1404 00b6 00E1     		b	.L92
 1405              	.LVL237:
 1406              	.L97:
 369:Source\mbedtls_open\library/x509_crl.c ****     {
 1407              		.loc 1 369 0
 1408 00b8 0C9B     		ldr	r3, [sp, #48]
 1409 00ba F21A     		subs	r2, r6, r3
 1410 00bc 0D99     		ldr	r1, [sp, #52]
 1411 00be 8A42     		cmp	r2, r1
 1412 00c0 04D0     		beq	.L98
 371:Source\mbedtls_open\library/x509_crl.c ****         return( MBEDTLS_ERR_X509_INVALID_FORMAT +
 1413              		.loc 1 371 0
 1414 00c2 2000     		movs	r0, r4
 1415              	.LVL238:
 1416 00c4 FFF7FEFF 		bl	mbedtls_x509_crl_free
 1417              	.LVL239:
 372:Source\mbedtls_open\library/x509_crl.c ****                 MBEDTLS_ERR_ASN1_LENGTH_MISMATCH );
 1418              		.loc 1 372 0
ARM GAS  C:\Users\Phuong\AppData\Local\Temp\ccqvrWt4.s 			page 41


 1419 00c8 7F4D     		ldr	r5, .L120+8
 1420              	.LVL240:
 1421 00ca F6E0     		b	.L92
 1422              	.LVL241:
 1423              	.L98:
 379:Source\mbedtls_open\library/x509_crl.c **** 
 1424              		.loc 1 379 0
 1425 00cc 6361     		str	r3, [r4, #20]
 381:Source\mbedtls_open\library/x509_crl.c ****             MBEDTLS_ASN1_CONSTRUCTED | MBEDTLS_ASN1_SEQUENCE ) ) != 0 )
 1426              		.loc 1 381 0
 1427 00ce 3023     		movs	r3, #48
 1428 00d0 0DAA     		add	r2, sp, #52
 1429 00d2 3100     		movs	r1, r6
 1430 00d4 0CA8     		add	r0, sp, #48
 1431              	.LVL242:
 1432 00d6 FFF7FEFF 		bl	mbedtls_asn1_get_tag
 1433              	.LVL243:
 1434 00da 051E     		subs	r5, r0, #0
 1435              	.LVL244:
 1436 00dc 06D0     		beq	.L99
 384:Source\mbedtls_open\library/x509_crl.c ****         return( MBEDTLS_ERR_X509_INVALID_FORMAT + ret );
 1437              		.loc 1 384 0
 1438 00de 2000     		movs	r0, r4
 1439              	.LVL245:
 1440 00e0 FFF7FEFF 		bl	mbedtls_x509_crl_free
 1441              	.LVL246:
 385:Source\mbedtls_open\library/x509_crl.c ****     }
 1442              		.loc 1 385 0
 1443 00e4 774B     		ldr	r3, .L120+4
 1444 00e6 9C46     		mov	ip, r3
 1445 00e8 6544     		add	r5, r5, ip
 1446              	.LVL247:
 1447 00ea E6E0     		b	.L92
 1448              	.LVL248:
 1449              	.L99:
 388:Source\mbedtls_open\library/x509_crl.c ****     crl->tbs.len = end - crl->tbs.p;
 1450              		.loc 1 388 0
 1451 00ec 0C9B     		ldr	r3, [sp, #48]
 1452 00ee 0D9A     		ldr	r2, [sp, #52]
 1453 00f0 9446     		mov	ip, r2
 1454 00f2 6344     		add	r3, r3, ip
 1455 00f4 1E00     		movs	r6, r3
 1456              	.LVL249:
 389:Source\mbedtls_open\library/x509_crl.c **** 
 1457              		.loc 1 389 0
 1458 00f6 6369     		ldr	r3, [r4, #20]
 1459              	.LVL250:
 1460 00f8 F31A     		subs	r3, r6, r3
 1461 00fa 2361     		str	r3, [r4, #16]
 397:Source\mbedtls_open\library/x509_crl.c ****         ( ret = mbedtls_x509_get_alg( &p, end, &crl->sig_oid, &sig_params1 ) ) != 0 )
 1462              		.loc 1 397 0
 1463 00fc 2200     		movs	r2, r4
 1464 00fe 1832     		adds	r2, r2, #24
 1465 0100 3100     		movs	r1, r6
 1466 0102 0CA8     		add	r0, sp, #48
 1467              	.LVL251:
 1468 0104 FFF7FEFF 		bl	x509_crl_get_version
ARM GAS  C:\Users\Phuong\AppData\Local\Temp\ccqvrWt4.s 			page 42


 1469              	.LVL252:
 1470 0108 051E     		subs	r5, r0, #0
 1471              	.LVL253:
 1472 010a 09D1     		bne	.L100
 398:Source\mbedtls_open\library/x509_crl.c ****     {
 1473              		.loc 1 398 0 discriminator 1
 1474 010c 2700     		movs	r7, r4
 1475 010e 1C37     		adds	r7, r7, #28
 397:Source\mbedtls_open\library/x509_crl.c ****         ( ret = mbedtls_x509_get_alg( &p, end, &crl->sig_oid, &sig_params1 ) ) != 0 )
 1476              		.loc 1 397 0 discriminator 1
 1477 0110 09AB     		add	r3, sp, #36
 1478 0112 3A00     		movs	r2, r7
 1479 0114 3100     		movs	r1, r6
 1480 0116 0CA8     		add	r0, sp, #48
 1481              	.LVL254:
 1482 0118 FFF7FEFF 		bl	mbedtls_x509_get_alg
 1483              	.LVL255:
 1484 011c 051E     		subs	r5, r0, #0
 1485              	.LVL256:
 1486 011e 03D0     		beq	.L101
 1487              	.L100:
 400:Source\mbedtls_open\library/x509_crl.c ****         return( ret );
 1488              		.loc 1 400 0
 1489 0120 2000     		movs	r0, r4
 1490              	.LVL257:
 1491 0122 FFF7FEFF 		bl	mbedtls_x509_crl_free
 1492              	.LVL258:
 401:Source\mbedtls_open\library/x509_crl.c ****     }
 1493              		.loc 1 401 0
 1494 0126 C8E0     		b	.L92
 1495              	.LVL259:
 1496              	.L101:
 404:Source\mbedtls_open\library/x509_crl.c ****     {
 1497              		.loc 1 404 0
 1498 0128 A369     		ldr	r3, [r4, #24]
 1499 012a 012B     		cmp	r3, #1
 1500 012c 04D9     		bls	.L102
 406:Source\mbedtls_open\library/x509_crl.c ****         return( MBEDTLS_ERR_X509_UNKNOWN_VERSION );
 1501              		.loc 1 406 0
 1502 012e 2000     		movs	r0, r4
 1503              	.LVL260:
 1504 0130 FFF7FEFF 		bl	mbedtls_x509_crl_free
 1505              	.LVL261:
 407:Source\mbedtls_open\library/x509_crl.c ****     }
 1506              		.loc 1 407 0
 1507 0134 654D     		ldr	r5, .L120+12
 1508              	.LVL262:
 1509 0136 C0E0     		b	.L92
 1510              	.LVL263:
 1511              	.L102:
 410:Source\mbedtls_open\library/x509_crl.c **** 
 1512              		.loc 1 410 0
 1513 0138 0133     		adds	r3, r3, #1
 1514 013a A361     		str	r3, [r4, #24]
 412:Source\mbedtls_open\library/x509_crl.c ****                                   &crl->sig_md, &crl->sig_pk,
 1515              		.loc 1 412 0
 1516 013c 2200     		movs	r2, r4
ARM GAS  C:\Users\Phuong\AppData\Local\Temp\ccqvrWt4.s 			page 43


 1517 013e E832     		adds	r2, r2, #232
 1518 0140 2300     		movs	r3, r4
 1519 0142 EC33     		adds	r3, r3, #236
 1520 0144 0093     		str	r3, [sp]
 1521 0146 033B     		subs	r3, r3, #3
 1522 0148 09A9     		add	r1, sp, #36
 1523 014a 3800     		movs	r0, r7
 1524              	.LVL264:
 1525 014c FFF7FEFF 		bl	mbedtls_x509_get_sig_alg
 1526              	.LVL265:
 1527 0150 0028     		cmp	r0, #0
 1528 0152 04D0     		beq	.L103
 416:Source\mbedtls_open\library/x509_crl.c ****         return( MBEDTLS_ERR_X509_UNKNOWN_SIG_ALG );
 1529              		.loc 1 416 0
 1530 0154 2000     		movs	r0, r4
 1531              	.LVL266:
 1532 0156 FFF7FEFF 		bl	mbedtls_x509_crl_free
 1533              	.LVL267:
 417:Source\mbedtls_open\library/x509_crl.c ****     }
 1534              		.loc 1 417 0
 1535 015a 5D4D     		ldr	r5, .L120+16
 1536 015c ADE0     		b	.L92
 1537              	.LVL268:
 1538              	.L103:
 423:Source\mbedtls_open\library/x509_crl.c **** 
 1539              		.loc 1 423 0
 1540 015e 0C9B     		ldr	r3, [sp, #48]
 1541 0160 2363     		str	r3, [r4, #48]
 425:Source\mbedtls_open\library/x509_crl.c ****             MBEDTLS_ASN1_CONSTRUCTED | MBEDTLS_ASN1_SEQUENCE ) ) != 0 )
 1542              		.loc 1 425 0
 1543 0162 3023     		movs	r3, #48
 1544 0164 0DAA     		add	r2, sp, #52
 1545 0166 3100     		movs	r1, r6
 1546 0168 0CA8     		add	r0, sp, #48
 1547              	.LVL269:
 1548 016a FFF7FEFF 		bl	mbedtls_asn1_get_tag
 1549              	.LVL270:
 1550 016e 051E     		subs	r5, r0, #0
 1551              	.LVL271:
 1552 0170 06D0     		beq	.L104
 428:Source\mbedtls_open\library/x509_crl.c ****         return( MBEDTLS_ERR_X509_INVALID_FORMAT + ret );
 1553              		.loc 1 428 0
 1554 0172 2000     		movs	r0, r4
 1555              	.LVL272:
 1556 0174 FFF7FEFF 		bl	mbedtls_x509_crl_free
 1557              	.LVL273:
 429:Source\mbedtls_open\library/x509_crl.c ****     }
 1558              		.loc 1 429 0
 1559 0178 524B     		ldr	r3, .L120+4
 1560 017a 9C46     		mov	ip, r3
 1561 017c 6544     		add	r5, r5, ip
 1562              	.LVL274:
 1563 017e 9CE0     		b	.L92
 1564              	.LVL275:
 1565              	.L104:
 432:Source\mbedtls_open\library/x509_crl.c ****     {
 1566              		.loc 1 432 0
ARM GAS  C:\Users\Phuong\AppData\Local\Temp\ccqvrWt4.s 			page 44


 1567 0180 0C9B     		ldr	r3, [sp, #48]
 1568 0182 0D9A     		ldr	r2, [sp, #52]
 1569 0184 9446     		mov	ip, r2
 1570 0186 6344     		add	r3, r3, ip
 1571 0188 1900     		movs	r1, r3
 1572 018a 2200     		movs	r2, r4
 1573 018c 3432     		adds	r2, r2, #52
 1574 018e 0CA8     		add	r0, sp, #48
 1575              	.LVL276:
 1576 0190 FFF7FEFF 		bl	mbedtls_x509_get_name
 1577              	.LVL277:
 1578 0194 051E     		subs	r5, r0, #0
 1579              	.LVL278:
 1580 0196 03D0     		beq	.L105
 434:Source\mbedtls_open\library/x509_crl.c ****         return( ret );
 1581              		.loc 1 434 0
 1582 0198 2000     		movs	r0, r4
 1583              	.LVL279:
 1584 019a FFF7FEFF 		bl	mbedtls_x509_crl_free
 1585              	.LVL280:
 435:Source\mbedtls_open\library/x509_crl.c ****     }
 1586              		.loc 1 435 0
 1587 019e 8CE0     		b	.L92
 1588              	.LVL281:
 1589              	.L105:
 438:Source\mbedtls_open\library/x509_crl.c **** 
 1590              		.loc 1 438 0
 1591 01a0 0C9B     		ldr	r3, [sp, #48]
 1592 01a2 226B     		ldr	r2, [r4, #48]
 1593 01a4 9B1A     		subs	r3, r3, r2
 1594 01a6 E362     		str	r3, [r4, #44]
 444:Source\mbedtls_open\library/x509_crl.c ****     {
 1595              		.loc 1 444 0
 1596 01a8 2200     		movs	r2, r4
 1597 01aa 5432     		adds	r2, r2, #84
 1598 01ac 3100     		movs	r1, r6
 1599 01ae 0CA8     		add	r0, sp, #48
 1600              	.LVL282:
 1601 01b0 FFF7FEFF 		bl	mbedtls_x509_get_time
 1602              	.LVL283:
 1603 01b4 051E     		subs	r5, r0, #0
 1604              	.LVL284:
 1605 01b6 03D0     		beq	.L106
 446:Source\mbedtls_open\library/x509_crl.c ****         return( ret );
 1606              		.loc 1 446 0
 1607 01b8 2000     		movs	r0, r4
 1608              	.LVL285:
 1609 01ba FFF7FEFF 		bl	mbedtls_x509_crl_free
 1610              	.LVL286:
 447:Source\mbedtls_open\library/x509_crl.c ****     }
 1611              		.loc 1 447 0
 1612 01be 7CE0     		b	.L92
 1613              	.LVL287:
 1614              	.L106:
 450:Source\mbedtls_open\library/x509_crl.c ****     {
 1615              		.loc 1 450 0
 1616 01c0 2200     		movs	r2, r4
ARM GAS  C:\Users\Phuong\AppData\Local\Temp\ccqvrWt4.s 			page 45


 1617 01c2 6C32     		adds	r2, r2, #108
 1618 01c4 3100     		movs	r1, r6
 1619 01c6 0CA8     		add	r0, sp, #48
 1620              	.LVL288:
 1621 01c8 FFF7FEFF 		bl	mbedtls_x509_get_time
 1622              	.LVL289:
 1623 01cc 051E     		subs	r5, r0, #0
 1624              	.LVL290:
 1625 01ce 09D0     		beq	.L107
 452:Source\mbedtls_open\library/x509_crl.c ****                         MBEDTLS_ERR_ASN1_UNEXPECTED_TAG ) &&
 1626              		.loc 1 452 0
 1627 01d0 404B     		ldr	r3, .L120+20
 1628 01d2 9842     		cmp	r0, r3
 1629 01d4 06D0     		beq	.L107
 453:Source\mbedtls_open\library/x509_crl.c ****             ret != ( MBEDTLS_ERR_X509_INVALID_DATE +
 1630              		.loc 1 453 0
 1631 01d6 404B     		ldr	r3, .L120+24
 1632 01d8 9842     		cmp	r0, r3
 1633 01da 03D0     		beq	.L107
 457:Source\mbedtls_open\library/x509_crl.c ****             return( ret );
 1634              		.loc 1 457 0
 1635 01dc 2000     		movs	r0, r4
 1636              	.LVL291:
 1637 01de FFF7FEFF 		bl	mbedtls_x509_crl_free
 1638              	.LVL292:
 458:Source\mbedtls_open\library/x509_crl.c ****         }
 1639              		.loc 1 458 0
 1640 01e2 6AE0     		b	.L92
 1641              	.LVL293:
 1642              	.L107:
 470:Source\mbedtls_open\library/x509_crl.c ****     {
 1643              		.loc 1 470 0
 1644 01e4 2200     		movs	r2, r4
 1645 01e6 8432     		adds	r2, r2, #132
 1646 01e8 3100     		movs	r1, r6
 1647 01ea 0CA8     		add	r0, sp, #48
 1648              	.LVL294:
 1649 01ec FFF7FEFF 		bl	x509_get_entries
 1650              	.LVL295:
 1651 01f0 051E     		subs	r5, r0, #0
 1652              	.LVL296:
 1653 01f2 03D0     		beq	.L108
 472:Source\mbedtls_open\library/x509_crl.c ****         return( ret );
 1654              		.loc 1 472 0
 1655 01f4 2000     		movs	r0, r4
 1656              	.LVL297:
 1657 01f6 FFF7FEFF 		bl	mbedtls_x509_crl_free
 1658              	.LVL298:
 473:Source\mbedtls_open\library/x509_crl.c ****     }
 1659              		.loc 1 473 0
 1660 01fa 5EE0     		b	.L92
 1661              	.LVL299:
 1662              	.L108:
 480:Source\mbedtls_open\library/x509_crl.c ****     {
 1663              		.loc 1 480 0
 1664 01fc A369     		ldr	r3, [r4, #24]
 1665 01fe 022B     		cmp	r3, #2
ARM GAS  C:\Users\Phuong\AppData\Local\Temp\ccqvrWt4.s 			page 46


 1666 0200 0BD1     		bne	.L109
 482:Source\mbedtls_open\library/x509_crl.c **** 
 1667              		.loc 1 482 0
 1668 0202 2200     		movs	r2, r4
 1669 0204 C432     		adds	r2, r2, #196
 1670 0206 3100     		movs	r1, r6
 1671 0208 0CA8     		add	r0, sp, #48
 1672              	.LVL300:
 1673 020a FFF7FEFF 		bl	x509_get_crl_ext
 1674              	.LVL301:
 1675 020e 051E     		subs	r5, r0, #0
 1676              	.LVL302:
 484:Source\mbedtls_open\library/x509_crl.c ****         {
 1677              		.loc 1 484 0
 1678 0210 03D0     		beq	.L109
 486:Source\mbedtls_open\library/x509_crl.c ****             return( ret );
 1679              		.loc 1 486 0
 1680 0212 2000     		movs	r0, r4
 1681              	.LVL303:
 1682 0214 FFF7FEFF 		bl	mbedtls_x509_crl_free
 1683              	.LVL304:
 487:Source\mbedtls_open\library/x509_crl.c ****         }
 1684              		.loc 1 487 0
 1685 0218 4FE0     		b	.L92
 1686              	.LVL305:
 1687              	.L109:
 491:Source\mbedtls_open\library/x509_crl.c ****     {
 1688              		.loc 1 491 0
 1689 021a 0C9B     		ldr	r3, [sp, #48]
 1690 021c 9E42     		cmp	r6, r3
 1691 021e 04D0     		beq	.L110
 493:Source\mbedtls_open\library/x509_crl.c ****         return( MBEDTLS_ERR_X509_INVALID_FORMAT +
 1692              		.loc 1 493 0
 1693 0220 2000     		movs	r0, r4
 1694              	.LVL306:
 1695 0222 FFF7FEFF 		bl	mbedtls_x509_crl_free
 1696              	.LVL307:
 494:Source\mbedtls_open\library/x509_crl.c ****                 MBEDTLS_ERR_ASN1_LENGTH_MISMATCH );
 1697              		.loc 1 494 0
 1698 0226 284D     		ldr	r5, .L120+8
 1699              	.LVL308:
 1700 0228 47E0     		b	.L92
 1701              	.LVL309:
 1702              	.L110:
 498:Source\mbedtls_open\library/x509_crl.c **** 
 1703              		.loc 1 498 0
 1704 022a A368     		ldr	r3, [r4, #8]
 1705 022c 6268     		ldr	r2, [r4, #4]
 1706 022e 9446     		mov	ip, r2
 1707 0230 6344     		add	r3, r3, ip
 1708 0232 1E00     		movs	r6, r3
 1709              	.LVL310:
 504:Source\mbedtls_open\library/x509_crl.c ****     {
 1710              		.loc 1 504 0
 1711 0234 06AB     		add	r3, sp, #24
 1712              	.LVL311:
 1713 0236 03AA     		add	r2, sp, #12
ARM GAS  C:\Users\Phuong\AppData\Local\Temp\ccqvrWt4.s 			page 47


 1714 0238 3100     		movs	r1, r6
 1715 023a 0CA8     		add	r0, sp, #48
 1716              	.LVL312:
 1717 023c FFF7FEFF 		bl	mbedtls_x509_get_alg
 1718              	.LVL313:
 1719 0240 051E     		subs	r5, r0, #0
 1720              	.LVL314:
 1721 0242 03D0     		beq	.L111
 506:Source\mbedtls_open\library/x509_crl.c ****         return( ret );
 1722              		.loc 1 506 0
 1723 0244 2000     		movs	r0, r4
 1724              	.LVL315:
 1725 0246 FFF7FEFF 		bl	mbedtls_x509_crl_free
 1726              	.LVL316:
 507:Source\mbedtls_open\library/x509_crl.c ****     }
 1727              		.loc 1 507 0
 1728 024a 36E0     		b	.L92
 1729              	.LVL317:
 1730              	.L111:
 510:Source\mbedtls_open\library/x509_crl.c ****         memcmp( crl->sig_oid.p, sig_oid2.p, crl->sig_oid.len ) != 0 ||
 1731              		.loc 1 510 0
 1732 024c 226A     		ldr	r2, [r4, #32]
 1733 024e 049B     		ldr	r3, [sp, #16]
 1734 0250 9A42     		cmp	r2, r3
 1735 0252 11D1     		bne	.L112
 511:Source\mbedtls_open\library/x509_crl.c ****         sig_params1.len != sig_params2.len ||
 1736              		.loc 1 511 0 discriminator 1
 1737 0254 0599     		ldr	r1, [sp, #20]
 1738 0256 606A     		ldr	r0, [r4, #36]
 1739              	.LVL318:
 1740 0258 FFF7FEFF 		bl	memcmp
 1741              	.LVL319:
 1742 025c 051E     		subs	r5, r0, #0
 1743              	.LVL320:
 510:Source\mbedtls_open\library/x509_crl.c ****         memcmp( crl->sig_oid.p, sig_oid2.p, crl->sig_oid.len ) != 0 ||
 1744              		.loc 1 510 0 discriminator 1
 1745 025e 0BD1     		bne	.L112
 512:Source\mbedtls_open\library/x509_crl.c ****         ( sig_params1.len != 0 &&
 1746              		.loc 1 512 0
 1747 0260 0A9A     		ldr	r2, [sp, #40]
 511:Source\mbedtls_open\library/x509_crl.c ****         sig_params1.len != sig_params2.len ||
 1748              		.loc 1 511 0
 1749 0262 079B     		ldr	r3, [sp, #28]
 1750 0264 9A42     		cmp	r2, r3
 1751 0266 07D1     		bne	.L112
 512:Source\mbedtls_open\library/x509_crl.c ****         ( sig_params1.len != 0 &&
 1752              		.loc 1 512 0
 1753 0268 002A     		cmp	r2, #0
 1754 026a 0AD0     		beq	.L113
 514:Source\mbedtls_open\library/x509_crl.c ****     {
 1755              		.loc 1 514 0
 1756 026c 0899     		ldr	r1, [sp, #32]
 1757 026e 0B98     		ldr	r0, [sp, #44]
 1758 0270 FFF7FEFF 		bl	memcmp
 1759              	.LVL321:
 513:Source\mbedtls_open\library/x509_crl.c ****           memcmp( sig_params1.p, sig_params2.p, sig_params1.len ) != 0 ) )
 1760              		.loc 1 513 0
ARM GAS  C:\Users\Phuong\AppData\Local\Temp\ccqvrWt4.s 			page 48


 1761 0274 0028     		cmp	r0, #0
 1762 0276 04D0     		beq	.L113
 1763              	.L112:
 516:Source\mbedtls_open\library/x509_crl.c ****         return( MBEDTLS_ERR_X509_SIG_MISMATCH );
 1764              		.loc 1 516 0
 1765 0278 2000     		movs	r0, r4
 1766 027a FFF7FEFF 		bl	mbedtls_x509_crl_free
 1767              	.LVL322:
 517:Source\mbedtls_open\library/x509_crl.c ****     }
 1768              		.loc 1 517 0
 1769 027e 174D     		ldr	r5, .L120+28
 1770 0280 1BE0     		b	.L92
 1771              	.L113:
 520:Source\mbedtls_open\library/x509_crl.c ****     {
 1772              		.loc 1 520 0
 1773 0282 2200     		movs	r2, r4
 1774 0284 DC32     		adds	r2, r2, #220
 1775 0286 3100     		movs	r1, r6
 1776 0288 0CA8     		add	r0, sp, #48
 1777 028a FFF7FEFF 		bl	mbedtls_x509_get_sig
 1778              	.LVL323:
 1779 028e 071E     		subs	r7, r0, #0
 1780              	.LVL324:
 1781 0290 04D0     		beq	.L114
 522:Source\mbedtls_open\library/x509_crl.c ****         return( ret );
 1782              		.loc 1 522 0
 1783 0292 2000     		movs	r0, r4
 1784              	.LVL325:
 1785 0294 FFF7FEFF 		bl	mbedtls_x509_crl_free
 1786              	.LVL326:
 523:Source\mbedtls_open\library/x509_crl.c ****     }
 1787              		.loc 1 523 0
 1788 0298 3D00     		movs	r5, r7
 1789 029a 0EE0     		b	.L92
 1790              	.LVL327:
 1791              	.L114:
 526:Source\mbedtls_open\library/x509_crl.c ****     {
 1792              		.loc 1 526 0
 1793 029c 0C9B     		ldr	r3, [sp, #48]
 1794 029e 9E42     		cmp	r6, r3
 1795 02a0 0BD0     		beq	.L92
 528:Source\mbedtls_open\library/x509_crl.c ****         return( MBEDTLS_ERR_X509_INVALID_FORMAT +
 1796              		.loc 1 528 0
 1797 02a2 2000     		movs	r0, r4
 1798              	.LVL328:
 1799 02a4 FFF7FEFF 		bl	mbedtls_x509_crl_free
 1800              	.LVL329:
 529:Source\mbedtls_open\library/x509_crl.c ****                 MBEDTLS_ERR_ASN1_LENGTH_MISMATCH );
 1801              		.loc 1 529 0
 1802 02a8 074D     		ldr	r5, .L120+8
 1803 02aa 06E0     		b	.L92
 1804              	.LVL330:
 1805              	.L115:
 313:Source\mbedtls_open\library/x509_crl.c **** 
 1806              		.loc 1 313 0
 1807 02ac 0C4D     		ldr	r5, .L120+32
 1808 02ae 04E0     		b	.L92
ARM GAS  C:\Users\Phuong\AppData\Local\Temp\ccqvrWt4.s 			page 49


 1809              	.L116:
 1810 02b0 0B4D     		ldr	r5, .L120+32
 1811 02b2 02E0     		b	.L92
 1812              	.LVL331:
 1813              	.L118:
 343:Source\mbedtls_open\library/x509_crl.c **** 
 1814              		.loc 1 343 0
 1815 02b4 034D     		ldr	r5, .L120+4
 1816              	.LVL332:
 1817 02b6 00E0     		b	.L92
 1818              	.LVL333:
 1819              	.L119:
 347:Source\mbedtls_open\library/x509_crl.c **** 
 1820              		.loc 1 347 0
 1821 02b8 014D     		ldr	r5, .L120
 1822              	.LVL334:
 1823              	.L92:
 534:Source\mbedtls_open\library/x509_crl.c **** 
 1824              		.loc 1 534 0
 1825 02ba 2800     		movs	r0, r5
 1826 02bc 0FB0     		add	sp, sp, #60
 1827              		@ sp needed
 1828              	.LVL335:
 1829 02be F0BD     		pop	{r4, r5, r6, r7, pc}
 1830              	.L121:
 1831              		.align	2
 1832              	.L120:
 1833 02c0 80D7FFFF 		.word	-10368
 1834 02c4 80DEFFFF 		.word	-8576
 1835 02c8 1ADEFFFF 		.word	-8678
 1836 02cc 80DAFFFF 		.word	-9600
 1837 02d0 00DAFFFF 		.word	-9728
 1838 02d4 9EDBFFFF 		.word	-9314
 1839 02d8 A0DBFFFF 		.word	-9312
 1840 02dc 80D9FFFF 		.word	-9856
 1841 02e0 00D8FFFF 		.word	-10240
 1842              		.cfi_endproc
 1843              	.LFE15:
 1844              		.size	mbedtls_x509_crl_parse_der, .-mbedtls_x509_crl_parse_der
 1845              		.section	.text.mbedtls_x509_crl_parse,"ax",%progbits
 1846              		.align	2
 1847              		.global	mbedtls_x509_crl_parse
 1848              		.code	16
 1849              		.thumb_func
 1850              		.type	mbedtls_x509_crl_parse, %function
 1851              	mbedtls_x509_crl_parse:
 1852              	.LFB16:
 540:Source\mbedtls_open\library/x509_crl.c **** #if defined(MBEDTLS_PEM_PARSE_C)
 1853              		.loc 1 540 0
 1854              		.cfi_startproc
 1855              		@ args = 0, pretend = 0, frame = 24
 1856              		@ frame_needed = 0, uses_anonymous_args = 0
 1857              	.LVL336:
 1858 0000 F0B5     		push	{r4, r5, r6, r7, lr}
 1859              		.cfi_def_cfa_offset 20
 1860              		.cfi_offset 4, -20
 1861              		.cfi_offset 5, -16
ARM GAS  C:\Users\Phuong\AppData\Local\Temp\ccqvrWt4.s 			page 50


 1862              		.cfi_offset 6, -12
 1863              		.cfi_offset 7, -8
 1864              		.cfi_offset 14, -4
 1865 0002 8BB0     		sub	sp, sp, #44
 1866              		.cfi_def_cfa_offset 64
 1867 0004 0590     		str	r0, [sp, #20]
 1868 0006 0E00     		movs	r6, r1
 1869 0008 1400     		movs	r4, r2
 1870              	.LVL337:
 547:Source\mbedtls_open\library/x509_crl.c ****         return( MBEDTLS_ERR_X509_BAD_INPUT_DATA );
 1871              		.loc 1 547 0
 1872 000a 0028     		cmp	r0, #0
 1873 000c 44D0     		beq	.L129
 547:Source\mbedtls_open\library/x509_crl.c ****         return( MBEDTLS_ERR_X509_BAD_INPUT_DATA );
 1874              		.loc 1 547 0 is_stmt 0 discriminator 1
 1875 000e 0029     		cmp	r1, #0
 1876 0010 44D0     		beq	.L130
 1877 0012 0027     		movs	r7, #0
 1878              	.LVL338:
 1879              	.L128:
 552:Source\mbedtls_open\library/x509_crl.c **** 
 1880              		.loc 1 552 0 is_stmt 1
 1881 0014 06A8     		add	r0, sp, #24
 1882 0016 FFF7FEFF 		bl	mbedtls_pem_init
 1883              	.LVL339:
 556:Source\mbedtls_open\library/x509_crl.c ****             ret = MBEDTLS_ERR_PEM_NO_HEADER_FOOTER_PRESENT;
 1884              		.loc 1 556 0
 1885 001a 002C     		cmp	r4, #0
 1886 001c 11D0     		beq	.L131
 556:Source\mbedtls_open\library/x509_crl.c ****             ret = MBEDTLS_ERR_PEM_NO_HEADER_FOOTER_PRESENT;
 1887              		.loc 1 556 0 is_stmt 0 discriminator 1
 1888 001e 3319     		adds	r3, r6, r4
 1889 0020 013B     		subs	r3, r3, #1
 1890 0022 1B78     		ldrb	r3, [r3]
 1891 0024 002B     		cmp	r3, #0
 1892 0026 0ED1     		bne	.L132
 559:Source\mbedtls_open\library/x509_crl.c ****                                            "-----BEGIN X509 CRL-----",
 1893              		.loc 1 559 0 is_stmt 1
 1894 0028 09AB     		add	r3, sp, #36
 1895 002a 0293     		str	r3, [sp, #8]
 1896 002c 0023     		movs	r3, #0
 1897 002e 0193     		str	r3, [sp, #4]
 1898 0030 0093     		str	r3, [sp]
 1899 0032 3300     		movs	r3, r6
 1900 0034 1C4A     		ldr	r2, .L135
 1901 0036 1D49     		ldr	r1, .L135+4
 1902 0038 06A8     		add	r0, sp, #24
 1903 003a FFF7FEFF 		bl	mbedtls_pem_read_buffer
 1904              	.LVL340:
 1905 003e 0500     		movs	r5, r0
 1906              	.LVL341:
 1907 0040 02E0     		b	.L124
 1908              	.LVL342:
 1909              	.L131:
 557:Source\mbedtls_open\library/x509_crl.c ****         else
 1910              		.loc 1 557 0
 1911 0042 1B4D     		ldr	r5, .L135+8
ARM GAS  C:\Users\Phuong\AppData\Local\Temp\ccqvrWt4.s 			page 51


 1912 0044 00E0     		b	.L124
 1913              	.L132:
 1914 0046 1A4D     		ldr	r5, .L135+8
 1915              	.L124:
 1916              	.LVL343:
 564:Source\mbedtls_open\library/x509_crl.c ****         {
 1917              		.loc 1 564 0
 1918 0048 002D     		cmp	r5, #0
 1919 004a 0ED1     		bne	.L125
 1920              	.LVL344:
 571:Source\mbedtls_open\library/x509_crl.c ****             buf += use_len;
 1921              		.loc 1 571 0
 1922 004c 099B     		ldr	r3, [sp, #36]
 1923 004e E41A     		subs	r4, r4, r3
 1924              	.LVL345:
 572:Source\mbedtls_open\library/x509_crl.c **** 
 1925              		.loc 1 572 0
 1926 0050 F618     		adds	r6, r6, r3
 1927              	.LVL346:
 574:Source\mbedtls_open\library/x509_crl.c ****                                             pem.buf, pem.buflen ) ) != 0 )
 1928              		.loc 1 574 0
 1929 0052 079A     		ldr	r2, [sp, #28]
 1930 0054 0699     		ldr	r1, [sp, #24]
 1931 0056 0598     		ldr	r0, [sp, #20]
 1932 0058 FFF7FEFF 		bl	mbedtls_x509_crl_parse_der
 1933              	.LVL347:
 1934 005c 051E     		subs	r5, r0, #0
 1935              	.LVL348:
 1936 005e 0BD0     		beq	.L133
 577:Source\mbedtls_open\library/x509_crl.c ****                 return( ret );
 1937              		.loc 1 577 0
 1938 0060 06A8     		add	r0, sp, #24
 1939              	.LVL349:
 1940 0062 FFF7FEFF 		bl	mbedtls_pem_free
 1941              	.LVL350:
 578:Source\mbedtls_open\library/x509_crl.c ****             }
 1942              		.loc 1 578 0
 1943 0066 2800     		movs	r0, r5
 1944 0068 1BE0     		b	.L123
 1945              	.LVL351:
 1946              	.L125:
 581:Source\mbedtls_open\library/x509_crl.c ****         {
 1947              		.loc 1 581 0
 1948 006a 002F     		cmp	r7, #0
 1949 006c 05D0     		beq	.L126
 583:Source\mbedtls_open\library/x509_crl.c ****             return( ret );
 1950              		.loc 1 583 0
 1951 006e 06A8     		add	r0, sp, #24
 1952 0070 FFF7FEFF 		bl	mbedtls_pem_free
 1953              	.LVL352:
 584:Source\mbedtls_open\library/x509_crl.c ****         }
 1954              		.loc 1 584 0
 1955 0074 2800     		movs	r0, r5
 1956 0076 14E0     		b	.L123
 1957              	.LVL353:
 1958              	.L133:
 569:Source\mbedtls_open\library/x509_crl.c **** 
ARM GAS  C:\Users\Phuong\AppData\Local\Temp\ccqvrWt4.s 			page 52


 1959              		.loc 1 569 0
 1960 0078 0127     		movs	r7, #1
 1961              	.LVL354:
 1962              	.L126:
 587:Source\mbedtls_open\library/x509_crl.c ****     }
 1963              		.loc 1 587 0
 1964 007a 06A8     		add	r0, sp, #24
 1965 007c FFF7FEFF 		bl	mbedtls_pem_free
 1966              	.LVL355:
 591:Source\mbedtls_open\library/x509_crl.c **** 
 1967              		.loc 1 591 0
 1968 0080 002F     		cmp	r7, #0
 1969 0082 01D0     		beq	.L127
 591:Source\mbedtls_open\library/x509_crl.c **** 
 1970              		.loc 1 591 0 is_stmt 0 discriminator 1
 1971 0084 012C     		cmp	r4, #1
 1972 0086 C5D8     		bhi	.L128
 1973              	.L127:
 593:Source\mbedtls_open\library/x509_crl.c ****         return( 0 );
 1974              		.loc 1 593 0 is_stmt 1
 1975 0088 002F     		cmp	r7, #0
 1976 008a 09D1     		bne	.L134
 597:Source\mbedtls_open\library/x509_crl.c **** }
 1977              		.loc 1 597 0
 1978 008c 2200     		movs	r2, r4
 1979 008e 3100     		movs	r1, r6
 1980 0090 0598     		ldr	r0, [sp, #20]
 1981 0092 FFF7FEFF 		bl	mbedtls_x509_crl_parse_der
 1982              	.LVL356:
 1983 0096 04E0     		b	.L123
 1984              	.LVL357:
 1985              	.L129:
 548:Source\mbedtls_open\library/x509_crl.c **** 
 1986              		.loc 1 548 0
 1987 0098 0648     		ldr	r0, .L135+12
 1988              	.LVL358:
 1989 009a 02E0     		b	.L123
 1990              	.LVL359:
 1991              	.L130:
 1992 009c 0548     		ldr	r0, .L135+12
 1993              	.LVL360:
 1994 009e 00E0     		b	.L123
 1995              	.LVL361:
 1996              	.L134:
 594:Source\mbedtls_open\library/x509_crl.c ****     else
 1997              		.loc 1 594 0
 1998 00a0 0020     		movs	r0, #0
 1999              	.LVL362:
 2000              	.L123:
 598:Source\mbedtls_open\library/x509_crl.c **** 
 2001              		.loc 1 598 0
 2002 00a2 0BB0     		add	sp, sp, #44
 2003              		@ sp needed
 2004              	.LVL363:
 2005              	.LVL364:
 2006 00a4 F0BD     		pop	{r4, r5, r6, r7, pc}
 2007              	.L136:
ARM GAS  C:\Users\Phuong\AppData\Local\Temp\ccqvrWt4.s 			page 53


 2008 00a6 C046     		.align	2
 2009              	.L135:
 2010 00a8 0C010000 		.word	.LC18
 2011 00ac 24010000 		.word	.LC20
 2012 00b0 80EFFFFF 		.word	-4224
 2013 00b4 00D8FFFF 		.word	-10240
 2014              		.cfi_endproc
 2015              	.LFE16:
 2016              		.size	mbedtls_x509_crl_parse, .-mbedtls_x509_crl_parse
 2017              		.section	.rodata.str1.4,"aMS",%progbits,1
 2018              		.align	2
 2019              	.LC0:
 2020 0000 25734352 		.ascii	"%sCRL version   : %d\000"
 2020      4C207665 
 2020      7273696F 
 2020      6E202020 
 2020      3A202564 
 2021 0015 000000   		.space	3
 2022              	.LC2:
 2023 0018 0A257369 		.ascii	"\012%sissuer name   : \000"
 2023      73737565 
 2023      72206E61 
 2023      6D652020 
 2023      203A2000 
 2024              	.LC4:
 2025 002c 0A257374 		.ascii	"\012%sthis update   : %04d-%02d-%02d %02d:%02d:%02d"
 2025      68697320 
 2025      75706461 
 2025      74652020 
 2025      203A2025 
 2026 005c 00       		.ascii	"\000"
 2027 005d 000000   		.space	3
 2028              	.LC6:
 2029 0060 0A25736E 		.ascii	"\012%snext update   : %04d-%02d-%02d %02d:%02d:%02d"
 2029      65787420 
 2029      75706461 
 2029      74652020 
 2029      203A2025 
 2030 0090 00       		.ascii	"\000"
 2031 0091 000000   		.space	3
 2032              	.LC8:
 2033 0094 0A257352 		.ascii	"\012%sRevoked certificates:\000"
 2033      65766F6B 
 2033      65642063 
 2033      65727469 
 2033      66696361 
 2034 00ad 000000   		.space	3
 2035              	.LC10:
 2036 00b0 0A257373 		.ascii	"\012%sserial number: \000"
 2036      65726961 
 2036      6C206E75 
 2036      6D626572 
 2036      3A2000
 2037 00c3 00       		.space	1
 2038              	.LC12:
 2039 00c4 20726576 		.ascii	" revocation date: %04d-%02d-%02d %02d:%02d:%02d\000"
 2039      6F636174 
ARM GAS  C:\Users\Phuong\AppData\Local\Temp\ccqvrWt4.s 			page 54


 2039      696F6E20 
 2039      64617465 
 2039      3A202530 
 2040              	.LC14:
 2041 00f4 0A257373 		.ascii	"\012%ssigned using  : \000"
 2041      69676E65 
 2041      64207573 
 2041      696E6720 
 2041      203A2000 
 2042              	.LC16:
 2043 0108 0A00     		.ascii	"\012\000"
 2044 010a 0000     		.space	2
 2045              	.LC18:
 2046 010c 2D2D2D2D 		.ascii	"-----END X509 CRL-----\000"
 2046      2D454E44 
 2046      20583530 
 2046      39204352 
 2046      4C2D2D2D 
 2047 0123 00       		.space	1
 2048              	.LC20:
 2049 0124 2D2D2D2D 		.ascii	"-----BEGIN X509 CRL-----\000"
 2049      2D424547 
 2049      494E2058 
 2049      35303920 
 2049      43524C2D 
 2050              		.text
 2051              	.Letext0:
 2052              		.file 2 ".\\Source\\mbedtls_open\\include/mbedtls/asn1.h"
 2053              		.file 3 "c:\\program files (x86)\\cypress\\psoc creator\\4.2\\psoc creator\\import\\gnu\\arm\\5.4.
 2054              		.file 4 ".\\Source\\mbedtls_open\\include/mbedtls/md.h"
 2055              		.file 5 ".\\Source\\mbedtls_open\\include/mbedtls/pk.h"
 2056              		.file 6 ".\\Source\\mbedtls_open\\include/mbedtls/x509.h"
 2057              		.file 7 ".\\Source\\mbedtls_open\\include/mbedtls/x509_crl.h"
 2058              		.file 8 ".\\Source\\mbedtls_open\\include/mbedtls/pem.h"
 2059              		.file 9 "c:\\program files (x86)\\cypress\\psoc creator\\4.2\\psoc creator\\import\\gnu\\arm\\5.4.
 2060              		.file 10 "c:\\program files (x86)\\cypress\\psoc creator\\4.2\\psoc creator\\import\\gnu\\arm\\5.4
 2061              		.file 11 ".\\Source\\mbedtls_open\\include/mbedtls/platform_util.h"
 2062              		.file 12 "c:\\program files (x86)\\cypress\\psoc creator\\4.2\\psoc creator\\import\\gnu\\arm\\5.4