ARM GAS  C:\Users\Phuong\AppData\Local\Temp\ccqxmzYk.s 			page 1


   1              		.syntax unified
   2              		.cpu cortex-m0plus
   3              		.fpu softvfp
   4              		.eabi_attribute 20, 1
   5              		.eabi_attribute 21, 1
   6              		.eabi_attribute 23, 3
   7              		.eabi_attribute 24, 1
   8              		.eabi_attribute 25, 1
   9              		.eabi_attribute 26, 1
  10              		.eabi_attribute 30, 1
  11              		.eabi_attribute 34, 0
  12              		.eabi_attribute 18, 4
  13              		.thumb
  14              		.syntax unified
  15              		.file	"x509write_csr.c"
  16              		.text
  17              	.Ltext0:
  18              		.cfi_sections	.debug_frame
  19              		.section	.text.mbedtls_x509write_csr_init,"ax",%progbits
  20              		.align	2
  21              		.global	mbedtls_x509write_csr_init
  22              		.code	16
  23              		.thumb_func
  24              		.type	mbedtls_x509write_csr_init, %function
  25              	mbedtls_x509write_csr_init:
  26              	.LFB10:
  27              		.file 1 "Source\\mbedtls_open\\library\\x509write_csr.c"
   1:Source\mbedtls_open\library/x509write_csr.c **** /*
   2:Source\mbedtls_open\library/x509write_csr.c ****  *  X.509 Certificate Signing Request writing
   3:Source\mbedtls_open\library/x509write_csr.c ****  *
   4:Source\mbedtls_open\library/x509write_csr.c ****  *  Copyright (C) 2006-2015, ARM Limited, All Rights Reserved
   5:Source\mbedtls_open\library/x509write_csr.c ****  *  SPDX-License-Identifier: Apache-2.0
   6:Source\mbedtls_open\library/x509write_csr.c ****  *
   7:Source\mbedtls_open\library/x509write_csr.c ****  *  Licensed under the Apache License, Version 2.0 (the "License"); you may
   8:Source\mbedtls_open\library/x509write_csr.c ****  *  not use this file except in compliance with the License.
   9:Source\mbedtls_open\library/x509write_csr.c ****  *  You may obtain a copy of the License at
  10:Source\mbedtls_open\library/x509write_csr.c ****  *
  11:Source\mbedtls_open\library/x509write_csr.c ****  *  http://www.apache.org/licenses/LICENSE-2.0
  12:Source\mbedtls_open\library/x509write_csr.c ****  *
  13:Source\mbedtls_open\library/x509write_csr.c ****  *  Unless required by applicable law or agreed to in writing, software
  14:Source\mbedtls_open\library/x509write_csr.c ****  *  distributed under the License is distributed on an "AS IS" BASIS, WITHOUT
  15:Source\mbedtls_open\library/x509write_csr.c ****  *  WARRANTIES OR CONDITIONS OF ANY KIND, either express or implied.
  16:Source\mbedtls_open\library/x509write_csr.c ****  *  See the License for the specific language governing permissions and
  17:Source\mbedtls_open\library/x509write_csr.c ****  *  limitations under the License.
  18:Source\mbedtls_open\library/x509write_csr.c ****  *
  19:Source\mbedtls_open\library/x509write_csr.c ****  *  This file is part of mbed TLS (https://tls.mbed.org)
  20:Source\mbedtls_open\library/x509write_csr.c ****  */
  21:Source\mbedtls_open\library/x509write_csr.c **** /*
  22:Source\mbedtls_open\library/x509write_csr.c ****  * References:
  23:Source\mbedtls_open\library/x509write_csr.c ****  * - CSRs: PKCS#10 v1.7 aka RFC 2986
  24:Source\mbedtls_open\library/x509write_csr.c ****  * - attributes: PKCS#9 v2.0 aka RFC 2985
  25:Source\mbedtls_open\library/x509write_csr.c ****  */
  26:Source\mbedtls_open\library/x509write_csr.c **** 
  27:Source\mbedtls_open\library/x509write_csr.c **** #if !defined(MBEDTLS_CONFIG_FILE)
  28:Source\mbedtls_open\library/x509write_csr.c **** #include "mbedtls/config.h"
  29:Source\mbedtls_open\library/x509write_csr.c **** #else
  30:Source\mbedtls_open\library/x509write_csr.c **** #include MBEDTLS_CONFIG_FILE
ARM GAS  C:\Users\Phuong\AppData\Local\Temp\ccqxmzYk.s 			page 2


  31:Source\mbedtls_open\library/x509write_csr.c **** #endif
  32:Source\mbedtls_open\library/x509write_csr.c **** 
  33:Source\mbedtls_open\library/x509write_csr.c **** #if defined(MBEDTLS_X509_CSR_WRITE_C)
  34:Source\mbedtls_open\library/x509write_csr.c **** 
  35:Source\mbedtls_open\library/x509write_csr.c **** #include "mbedtls/x509_csr.h"
  36:Source\mbedtls_open\library/x509write_csr.c **** #include "mbedtls/oid.h"
  37:Source\mbedtls_open\library/x509write_csr.c **** #include "mbedtls/asn1write.h"
  38:Source\mbedtls_open\library/x509write_csr.c **** #include "mbedtls/platform_util.h"
  39:Source\mbedtls_open\library/x509write_csr.c **** 
  40:Source\mbedtls_open\library/x509write_csr.c **** #include <string.h>
  41:Source\mbedtls_open\library/x509write_csr.c **** #include <stdlib.h>
  42:Source\mbedtls_open\library/x509write_csr.c **** 
  43:Source\mbedtls_open\library/x509write_csr.c **** #if defined(MBEDTLS_PEM_WRITE_C)
  44:Source\mbedtls_open\library/x509write_csr.c **** #include "mbedtls/pem.h"
  45:Source\mbedtls_open\library/x509write_csr.c **** #endif
  46:Source\mbedtls_open\library/x509write_csr.c **** 
  47:Source\mbedtls_open\library/x509write_csr.c **** void mbedtls_x509write_csr_init( mbedtls_x509write_csr *ctx )
  48:Source\mbedtls_open\library/x509write_csr.c **** {
  28              		.loc 1 48 0
  29              		.cfi_startproc
  30              		@ args = 0, pretend = 0, frame = 0
  31              		@ frame_needed = 0, uses_anonymous_args = 0
  32              	.LVL0:
  33 0000 10B5     		push	{r4, lr}
  34              		.cfi_def_cfa_offset 8
  35              		.cfi_offset 4, -8
  36              		.cfi_offset 14, -4
  49:Source\mbedtls_open\library/x509write_csr.c ****     memset( ctx, 0, sizeof( mbedtls_x509write_csr ) );
  37              		.loc 1 49 0
  38 0002 1022     		movs	r2, #16
  39 0004 0021     		movs	r1, #0
  40 0006 FFF7FEFF 		bl	memset
  41              	.LVL1:
  50:Source\mbedtls_open\library/x509write_csr.c **** }
  42              		.loc 1 50 0
  43              		@ sp needed
  44 000a 10BD     		pop	{r4, pc}
  45              		.cfi_endproc
  46              	.LFE10:
  47              		.size	mbedtls_x509write_csr_init, .-mbedtls_x509write_csr_init
  48              		.section	.text.mbedtls_x509write_csr_free,"ax",%progbits
  49              		.align	2
  50              		.global	mbedtls_x509write_csr_free
  51              		.code	16
  52              		.thumb_func
  53              		.type	mbedtls_x509write_csr_free, %function
  54              	mbedtls_x509write_csr_free:
  55              	.LFB11:
  51:Source\mbedtls_open\library/x509write_csr.c **** 
  52:Source\mbedtls_open\library/x509write_csr.c **** void mbedtls_x509write_csr_free( mbedtls_x509write_csr *ctx )
  53:Source\mbedtls_open\library/x509write_csr.c **** {
  56              		.loc 1 53 0
  57              		.cfi_startproc
  58              		@ args = 0, pretend = 0, frame = 0
  59              		@ frame_needed = 0, uses_anonymous_args = 0
  60              	.LVL2:
  61 0000 10B5     		push	{r4, lr}
ARM GAS  C:\Users\Phuong\AppData\Local\Temp\ccqxmzYk.s 			page 3


  62              		.cfi_def_cfa_offset 8
  63              		.cfi_offset 4, -8
  64              		.cfi_offset 14, -4
  65 0002 0400     		movs	r4, r0
  54:Source\mbedtls_open\library/x509write_csr.c ****     mbedtls_asn1_free_named_data_list( &ctx->subject );
  66              		.loc 1 54 0
  67 0004 0430     		adds	r0, r0, #4
  68              	.LVL3:
  69 0006 FFF7FEFF 		bl	mbedtls_asn1_free_named_data_list
  70              	.LVL4:
  55:Source\mbedtls_open\library/x509write_csr.c ****     mbedtls_asn1_free_named_data_list( &ctx->extensions );
  71              		.loc 1 55 0
  72 000a 2000     		movs	r0, r4
  73 000c 0C30     		adds	r0, r0, #12
  74 000e FFF7FEFF 		bl	mbedtls_asn1_free_named_data_list
  75              	.LVL5:
  56:Source\mbedtls_open\library/x509write_csr.c **** 
  57:Source\mbedtls_open\library/x509write_csr.c ****     mbedtls_platform_zeroize( ctx, sizeof( mbedtls_x509write_csr ) );
  76              		.loc 1 57 0
  77 0012 1021     		movs	r1, #16
  78 0014 2000     		movs	r0, r4
  79 0016 FFF7FEFF 		bl	mbedtls_platform_zeroize
  80              	.LVL6:
  58:Source\mbedtls_open\library/x509write_csr.c **** }
  81              		.loc 1 58 0
  82              		@ sp needed
  83              	.LVL7:
  84 001a 10BD     		pop	{r4, pc}
  85              		.cfi_endproc
  86              	.LFE11:
  87              		.size	mbedtls_x509write_csr_free, .-mbedtls_x509write_csr_free
  88              		.section	.text.mbedtls_x509write_csr_set_md_alg,"ax",%progbits
  89              		.align	2
  90              		.global	mbedtls_x509write_csr_set_md_alg
  91              		.code	16
  92              		.thumb_func
  93              		.type	mbedtls_x509write_csr_set_md_alg, %function
  94              	mbedtls_x509write_csr_set_md_alg:
  95              	.LFB12:
  59:Source\mbedtls_open\library/x509write_csr.c **** 
  60:Source\mbedtls_open\library/x509write_csr.c **** void mbedtls_x509write_csr_set_md_alg( mbedtls_x509write_csr *ctx, mbedtls_md_type_t md_alg )
  61:Source\mbedtls_open\library/x509write_csr.c **** {
  96              		.loc 1 61 0
  97              		.cfi_startproc
  98              		@ args = 0, pretend = 0, frame = 0
  99              		@ frame_needed = 0, uses_anonymous_args = 0
 100              		@ link register save eliminated.
 101              	.LVL8:
  62:Source\mbedtls_open\library/x509write_csr.c ****     ctx->md_alg = md_alg;
 102              		.loc 1 62 0
 103 0000 0172     		strb	r1, [r0, #8]
  63:Source\mbedtls_open\library/x509write_csr.c **** }
 104              		.loc 1 63 0
 105              		@ sp needed
 106 0002 7047     		bx	lr
 107              		.cfi_endproc
 108              	.LFE12:
ARM GAS  C:\Users\Phuong\AppData\Local\Temp\ccqxmzYk.s 			page 4


 109              		.size	mbedtls_x509write_csr_set_md_alg, .-mbedtls_x509write_csr_set_md_alg
 110              		.section	.text.mbedtls_x509write_csr_set_key,"ax",%progbits
 111              		.align	2
 112              		.global	mbedtls_x509write_csr_set_key
 113              		.code	16
 114              		.thumb_func
 115              		.type	mbedtls_x509write_csr_set_key, %function
 116              	mbedtls_x509write_csr_set_key:
 117              	.LFB13:
  64:Source\mbedtls_open\library/x509write_csr.c **** 
  65:Source\mbedtls_open\library/x509write_csr.c **** void mbedtls_x509write_csr_set_key( mbedtls_x509write_csr *ctx, mbedtls_pk_context *key )
  66:Source\mbedtls_open\library/x509write_csr.c **** {
 118              		.loc 1 66 0
 119              		.cfi_startproc
 120              		@ args = 0, pretend = 0, frame = 0
 121              		@ frame_needed = 0, uses_anonymous_args = 0
 122              		@ link register save eliminated.
 123              	.LVL9:
  67:Source\mbedtls_open\library/x509write_csr.c ****     ctx->key = key;
 124              		.loc 1 67 0
 125 0000 0160     		str	r1, [r0]
  68:Source\mbedtls_open\library/x509write_csr.c **** }
 126              		.loc 1 68 0
 127              		@ sp needed
 128 0002 7047     		bx	lr
 129              		.cfi_endproc
 130              	.LFE13:
 131              		.size	mbedtls_x509write_csr_set_key, .-mbedtls_x509write_csr_set_key
 132              		.section	.text.mbedtls_x509write_csr_set_subject_name,"ax",%progbits
 133              		.align	2
 134              		.global	mbedtls_x509write_csr_set_subject_name
 135              		.code	16
 136              		.thumb_func
 137              		.type	mbedtls_x509write_csr_set_subject_name, %function
 138              	mbedtls_x509write_csr_set_subject_name:
 139              	.LFB14:
  69:Source\mbedtls_open\library/x509write_csr.c **** 
  70:Source\mbedtls_open\library/x509write_csr.c **** int mbedtls_x509write_csr_set_subject_name( mbedtls_x509write_csr *ctx,
  71:Source\mbedtls_open\library/x509write_csr.c ****                                     const char *subject_name )
  72:Source\mbedtls_open\library/x509write_csr.c **** {
 140              		.loc 1 72 0
 141              		.cfi_startproc
 142              		@ args = 0, pretend = 0, frame = 0
 143              		@ frame_needed = 0, uses_anonymous_args = 0
 144              	.LVL10:
 145 0000 10B5     		push	{r4, lr}
 146              		.cfi_def_cfa_offset 8
 147              		.cfi_offset 4, -8
 148              		.cfi_offset 14, -4
  73:Source\mbedtls_open\library/x509write_csr.c ****     return mbedtls_x509_string_to_names( &ctx->subject, subject_name );
 149              		.loc 1 73 0
 150 0002 0430     		adds	r0, r0, #4
 151              	.LVL11:
 152 0004 FFF7FEFF 		bl	mbedtls_x509_string_to_names
 153              	.LVL12:
  74:Source\mbedtls_open\library/x509write_csr.c **** }
 154              		.loc 1 74 0
ARM GAS  C:\Users\Phuong\AppData\Local\Temp\ccqxmzYk.s 			page 5


 155              		@ sp needed
 156 0008 10BD     		pop	{r4, pc}
 157              		.cfi_endproc
 158              	.LFE14:
 159              		.size	mbedtls_x509write_csr_set_subject_name, .-mbedtls_x509write_csr_set_subject_name
 160 000a C046     		.section	.text.mbedtls_x509write_csr_set_extension,"ax",%progbits
 161              		.align	2
 162              		.global	mbedtls_x509write_csr_set_extension
 163              		.code	16
 164              		.thumb_func
 165              		.type	mbedtls_x509write_csr_set_extension, %function
 166              	mbedtls_x509write_csr_set_extension:
 167              	.LFB15:
  75:Source\mbedtls_open\library/x509write_csr.c **** 
  76:Source\mbedtls_open\library/x509write_csr.c **** int mbedtls_x509write_csr_set_extension( mbedtls_x509write_csr *ctx,
  77:Source\mbedtls_open\library/x509write_csr.c ****                                  const char *oid, size_t oid_len,
  78:Source\mbedtls_open\library/x509write_csr.c ****                                  const unsigned char *val, size_t val_len )
  79:Source\mbedtls_open\library/x509write_csr.c **** {
 168              		.loc 1 79 0
 169              		.cfi_startproc
 170              		@ args = 4, pretend = 0, frame = 0
 171              		@ frame_needed = 0, uses_anonymous_args = 0
 172              	.LVL13:
 173 0000 10B5     		push	{r4, lr}
 174              		.cfi_def_cfa_offset 8
 175              		.cfi_offset 4, -8
 176              		.cfi_offset 14, -4
 177 0002 82B0     		sub	sp, sp, #8
 178              		.cfi_def_cfa_offset 16
  80:Source\mbedtls_open\library/x509write_csr.c ****     return mbedtls_x509_set_extension( &ctx->extensions, oid, oid_len,
 179              		.loc 1 80 0
 180 0004 0C30     		adds	r0, r0, #12
 181              	.LVL14:
 182 0006 049C     		ldr	r4, [sp, #16]
 183 0008 0194     		str	r4, [sp, #4]
 184 000a 0093     		str	r3, [sp]
 185 000c 0023     		movs	r3, #0
 186              	.LVL15:
 187 000e FFF7FEFF 		bl	mbedtls_x509_set_extension
 188              	.LVL16:
  81:Source\mbedtls_open\library/x509write_csr.c ****                                0, val, val_len );
  82:Source\mbedtls_open\library/x509write_csr.c **** }
 189              		.loc 1 82 0
 190 0012 02B0     		add	sp, sp, #8
 191              		@ sp needed
 192 0014 10BD     		pop	{r4, pc}
 193              		.cfi_endproc
 194              	.LFE15:
 195              		.size	mbedtls_x509write_csr_set_extension, .-mbedtls_x509write_csr_set_extension
 196 0016 C046     		.section	.text.mbedtls_x509write_csr_set_key_usage,"ax",%progbits
 197              		.align	2
 198              		.global	mbedtls_x509write_csr_set_key_usage
 199              		.code	16
 200              		.thumb_func
 201              		.type	mbedtls_x509write_csr_set_key_usage, %function
 202              	mbedtls_x509write_csr_set_key_usage:
 203              	.LFB16:
ARM GAS  C:\Users\Phuong\AppData\Local\Temp\ccqxmzYk.s 			page 6


  83:Source\mbedtls_open\library/x509write_csr.c **** 
  84:Source\mbedtls_open\library/x509write_csr.c **** int mbedtls_x509write_csr_set_key_usage( mbedtls_x509write_csr *ctx, unsigned char key_usage )
  85:Source\mbedtls_open\library/x509write_csr.c **** {
 204              		.loc 1 85 0
 205              		.cfi_startproc
 206              		@ args = 0, pretend = 0, frame = 16
 207              		@ frame_needed = 0, uses_anonymous_args = 0
 208              	.LVL17:
 209 0000 10B5     		push	{r4, lr}
 210              		.cfi_def_cfa_offset 8
 211              		.cfi_offset 4, -8
 212              		.cfi_offset 14, -4
 213 0002 86B0     		sub	sp, sp, #24
 214              		.cfi_def_cfa_offset 32
 215 0004 0400     		movs	r4, r0
 216 0006 0F22     		movs	r2, #15
 217 0008 6A44     		add	r2, r2, sp
 218 000a 1170     		strb	r1, [r2]
  86:Source\mbedtls_open\library/x509write_csr.c ****     unsigned char buf[4];
  87:Source\mbedtls_open\library/x509write_csr.c ****     unsigned char *c;
  88:Source\mbedtls_open\library/x509write_csr.c ****     int ret;
  89:Source\mbedtls_open\library/x509write_csr.c **** 
  90:Source\mbedtls_open\library/x509write_csr.c ****     c = buf + 4;
 219              		.loc 1 90 0
 220 000c 06AB     		add	r3, sp, #24
 221 000e 0493     		str	r3, [sp, #16]
  91:Source\mbedtls_open\library/x509write_csr.c **** 
  92:Source\mbedtls_open\library/x509write_csr.c ****     if( ( ret = mbedtls_asn1_write_bitstring( &c, buf, &key_usage, 7 ) ) != 4 )
 222              		.loc 1 92 0
 223 0010 0723     		movs	r3, #7
 224 0012 05A9     		add	r1, sp, #20
 225              	.LVL18:
 226 0014 04A8     		add	r0, sp, #16
 227              	.LVL19:
 228 0016 FFF7FEFF 		bl	mbedtls_asn1_write_bitstring
 229              	.LVL20:
 230 001a 0428     		cmp	r0, #4
 231 001c 07D1     		bne	.L8
  93:Source\mbedtls_open\library/x509write_csr.c ****         return( ret );
  94:Source\mbedtls_open\library/x509write_csr.c **** 
  95:Source\mbedtls_open\library/x509write_csr.c ****     ret = mbedtls_x509write_csr_set_extension( ctx, MBEDTLS_OID_KEY_USAGE,
 232              		.loc 1 95 0
 233 001e 0423     		movs	r3, #4
 234 0020 0093     		str	r3, [sp]
 235 0022 05AB     		add	r3, sp, #20
 236 0024 0322     		movs	r2, #3
 237 0026 0349     		ldr	r1, .L11
 238 0028 2000     		movs	r0, r4
 239              	.LVL21:
 240 002a FFF7FEFF 		bl	mbedtls_x509write_csr_set_extension
 241              	.LVL22:
 242              	.L8:
  96:Source\mbedtls_open\library/x509write_csr.c ****                                        MBEDTLS_OID_SIZE( MBEDTLS_OID_KEY_USAGE ),
  97:Source\mbedtls_open\library/x509write_csr.c ****                                        buf, 4 );
  98:Source\mbedtls_open\library/x509write_csr.c ****     if( ret != 0 )
  99:Source\mbedtls_open\library/x509write_csr.c ****         return( ret );
 100:Source\mbedtls_open\library/x509write_csr.c **** 
ARM GAS  C:\Users\Phuong\AppData\Local\Temp\ccqxmzYk.s 			page 7


 101:Source\mbedtls_open\library/x509write_csr.c ****     return( 0 );
 102:Source\mbedtls_open\library/x509write_csr.c **** }
 243              		.loc 1 102 0
 244 002e 06B0     		add	sp, sp, #24
 245              		@ sp needed
 246              	.LVL23:
 247 0030 10BD     		pop	{r4, pc}
 248              	.L12:
 249 0032 C046     		.align	2
 250              	.L11:
 251 0034 00000000 		.word	.LC0
 252              		.cfi_endproc
 253              	.LFE16:
 254              		.size	mbedtls_x509write_csr_set_key_usage, .-mbedtls_x509write_csr_set_key_usage
 255              		.section	.text.mbedtls_x509write_csr_set_ns_cert_type,"ax",%progbits
 256              		.align	2
 257              		.global	mbedtls_x509write_csr_set_ns_cert_type
 258              		.code	16
 259              		.thumb_func
 260              		.type	mbedtls_x509write_csr_set_ns_cert_type, %function
 261              	mbedtls_x509write_csr_set_ns_cert_type:
 262              	.LFB17:
 103:Source\mbedtls_open\library/x509write_csr.c **** 
 104:Source\mbedtls_open\library/x509write_csr.c **** int mbedtls_x509write_csr_set_ns_cert_type( mbedtls_x509write_csr *ctx,
 105:Source\mbedtls_open\library/x509write_csr.c ****                                     unsigned char ns_cert_type )
 106:Source\mbedtls_open\library/x509write_csr.c **** {
 263              		.loc 1 106 0
 264              		.cfi_startproc
 265              		@ args = 0, pretend = 0, frame = 16
 266              		@ frame_needed = 0, uses_anonymous_args = 0
 267              	.LVL24:
 268 0000 10B5     		push	{r4, lr}
 269              		.cfi_def_cfa_offset 8
 270              		.cfi_offset 4, -8
 271              		.cfi_offset 14, -4
 272 0002 86B0     		sub	sp, sp, #24
 273              		.cfi_def_cfa_offset 32
 274 0004 0400     		movs	r4, r0
 275 0006 0F22     		movs	r2, #15
 276 0008 6A44     		add	r2, r2, sp
 277 000a 1170     		strb	r1, [r2]
 107:Source\mbedtls_open\library/x509write_csr.c ****     unsigned char buf[4];
 108:Source\mbedtls_open\library/x509write_csr.c ****     unsigned char *c;
 109:Source\mbedtls_open\library/x509write_csr.c ****     int ret;
 110:Source\mbedtls_open\library/x509write_csr.c **** 
 111:Source\mbedtls_open\library/x509write_csr.c ****     c = buf + 4;
 278              		.loc 1 111 0
 279 000c 06AB     		add	r3, sp, #24
 280 000e 0493     		str	r3, [sp, #16]
 112:Source\mbedtls_open\library/x509write_csr.c **** 
 113:Source\mbedtls_open\library/x509write_csr.c ****     if( ( ret = mbedtls_asn1_write_bitstring( &c, buf, &ns_cert_type, 8 ) ) != 4 )
 281              		.loc 1 113 0
 282 0010 0823     		movs	r3, #8
 283 0012 05A9     		add	r1, sp, #20
 284              	.LVL25:
 285 0014 04A8     		add	r0, sp, #16
 286              	.LVL26:
ARM GAS  C:\Users\Phuong\AppData\Local\Temp\ccqxmzYk.s 			page 8


 287 0016 FFF7FEFF 		bl	mbedtls_asn1_write_bitstring
 288              	.LVL27:
 289 001a 0428     		cmp	r0, #4
 290 001c 07D1     		bne	.L14
 114:Source\mbedtls_open\library/x509write_csr.c ****         return( ret );
 115:Source\mbedtls_open\library/x509write_csr.c **** 
 116:Source\mbedtls_open\library/x509write_csr.c ****     ret = mbedtls_x509write_csr_set_extension( ctx, MBEDTLS_OID_NS_CERT_TYPE,
 291              		.loc 1 116 0
 292 001e 0423     		movs	r3, #4
 293 0020 0093     		str	r3, [sp]
 294 0022 05AB     		add	r3, sp, #20
 295 0024 0922     		movs	r2, #9
 296 0026 0349     		ldr	r1, .L17
 297 0028 2000     		movs	r0, r4
 298              	.LVL28:
 299 002a FFF7FEFF 		bl	mbedtls_x509write_csr_set_extension
 300              	.LVL29:
 301              	.L14:
 117:Source\mbedtls_open\library/x509write_csr.c ****                                        MBEDTLS_OID_SIZE( MBEDTLS_OID_NS_CERT_TYPE ),
 118:Source\mbedtls_open\library/x509write_csr.c ****                                        buf, 4 );
 119:Source\mbedtls_open\library/x509write_csr.c ****     if( ret != 0 )
 120:Source\mbedtls_open\library/x509write_csr.c ****         return( ret );
 121:Source\mbedtls_open\library/x509write_csr.c **** 
 122:Source\mbedtls_open\library/x509write_csr.c ****     return( 0 );
 123:Source\mbedtls_open\library/x509write_csr.c **** }
 302              		.loc 1 123 0
 303 002e 06B0     		add	sp, sp, #24
 304              		@ sp needed
 305              	.LVL30:
 306 0030 10BD     		pop	{r4, pc}
 307              	.L18:
 308 0032 C046     		.align	2
 309              	.L17:
 310 0034 04000000 		.word	.LC2
 311              		.cfi_endproc
 312              	.LFE17:
 313              		.size	mbedtls_x509write_csr_set_ns_cert_type, .-mbedtls_x509write_csr_set_ns_cert_type
 314              		.section	.text.mbedtls_x509write_csr_der,"ax",%progbits
 315              		.align	2
 316              		.global	mbedtls_x509write_csr_der
 317              		.code	16
 318              		.thumb_func
 319              		.type	mbedtls_x509write_csr_der, %function
 320              	mbedtls_x509write_csr_der:
 321              	.LFB18:
 124:Source\mbedtls_open\library/x509write_csr.c **** 
 125:Source\mbedtls_open\library/x509write_csr.c **** int mbedtls_x509write_csr_der( mbedtls_x509write_csr *ctx, unsigned char *buf, size_t size,
 126:Source\mbedtls_open\library/x509write_csr.c ****                        int (*f_rng)(void *, unsigned char *, size_t),
 127:Source\mbedtls_open\library/x509write_csr.c ****                        void *p_rng )
 128:Source\mbedtls_open\library/x509write_csr.c **** {
 322              		.loc 1 128 0
 323              		.cfi_startproc
 324              		@ args = 4, pretend = 0, frame = 3168
 325              		@ frame_needed = 0, uses_anonymous_args = 0
 326              	.LVL31:
 327 0000 F0B5     		push	{r4, r5, r6, r7, lr}
 328              		.cfi_def_cfa_offset 20
ARM GAS  C:\Users\Phuong\AppData\Local\Temp\ccqxmzYk.s 			page 9


 329              		.cfi_offset 4, -20
 330              		.cfi_offset 5, -16
 331              		.cfi_offset 6, -12
 332              		.cfi_offset 7, -8
 333              		.cfi_offset 14, -4
 334 0002 AE4C     		ldr	r4, .L46
 335 0004 A544     		add	sp, sp, r4
 336              		.cfi_def_cfa_offset 3208
 337 0006 0700     		movs	r7, r0
 338 0008 0491     		str	r1, [sp, #16]
 339 000a 0592     		str	r2, [sp, #20]
 340 000c 1D00     		movs	r5, r3
 129:Source\mbedtls_open\library/x509write_csr.c ****     int ret;
 130:Source\mbedtls_open\library/x509write_csr.c ****     const char *sig_oid;
 131:Source\mbedtls_open\library/x509write_csr.c ****     size_t sig_oid_len = 0;
 341              		.loc 1 131 0
 342 000e 0023     		movs	r3, #0
 343              	.LVL32:
 344 0010 C622     		movs	r2, #198
 345              	.LVL33:
 346 0012 1201     		lsls	r2, r2, #4
 347 0014 02A9     		add	r1, sp, #8
 348              	.LVL34:
 349 0016 8C46     		mov	ip, r1
 350 0018 6244     		add	r2, r2, ip
 351 001a 1360     		str	r3, [r2]
 352              	.LVL35:
 132:Source\mbedtls_open\library/x509write_csr.c ****     unsigned char *c, *c2;
 133:Source\mbedtls_open\library/x509write_csr.c ****     unsigned char hash[64];
 134:Source\mbedtls_open\library/x509write_csr.c ****     unsigned char sig[MBEDTLS_MPI_MAX_SIZE];
 135:Source\mbedtls_open\library/x509write_csr.c ****     unsigned char tmp_buf[2048];
 136:Source\mbedtls_open\library/x509write_csr.c ****     size_t pub_len = 0, sig_and_oid_len = 0, sig_len;
 137:Source\mbedtls_open\library/x509write_csr.c ****     size_t len = 0;
 138:Source\mbedtls_open\library/x509write_csr.c ****     mbedtls_pk_type_t pk_alg;
 139:Source\mbedtls_open\library/x509write_csr.c **** 
 140:Source\mbedtls_open\library/x509write_csr.c ****     /*
 141:Source\mbedtls_open\library/x509write_csr.c ****      * Prepare data to be signed in tmp_buf
 142:Source\mbedtls_open\library/x509write_csr.c ****      */
 143:Source\mbedtls_open\library/x509write_csr.c ****     c = tmp_buf + sizeof( tmp_buf );
 353              		.loc 1 143 0
 354 001c A84B     		ldr	r3, .L46+4
 355 001e 6344     		add	r3, r3, ip
 356 0020 A84A     		ldr	r2, .L46+8
 357 0022 6244     		add	r2, r2, ip
 358 0024 1360     		str	r3, [r2]
 144:Source\mbedtls_open\library/x509write_csr.c **** 
 145:Source\mbedtls_open\library/x509write_csr.c ****     MBEDTLS_ASN1_CHK_ADD( len, mbedtls_x509_write_extensions( &c, tmp_buf, ctx->extensions ) );
 359              		.loc 1 145 0
 360 0026 C268     		ldr	r2, [r0, #12]
 361 0028 08A9     		add	r1, sp, #32
 362 002a A648     		ldr	r0, .L46+8
 363              	.LVL36:
 364 002c 6044     		add	r0, r0, ip
 365 002e FFF7FEFF 		bl	mbedtls_x509_write_extensions
 366              	.LVL37:
 367 0032 041E     		subs	r4, r0, #0
 368              	.LVL38:
ARM GAS  C:\Users\Phuong\AppData\Local\Temp\ccqxmzYk.s 			page 10


 369 0034 00DA     		bge	.LCB302
 370 0036 38E1     		b	.L23	@long jump
 371              	.LCB302:
 372              		.loc 1 145 0 is_stmt 0 discriminator 2
 373 0038 061E     		subs	r6, r0, #0
 374              	.LVL39:
 146:Source\mbedtls_open\library/x509write_csr.c **** 
 147:Source\mbedtls_open\library/x509write_csr.c ****     if( len )
 375              		.loc 1 147 0 is_stmt 1 discriminator 2
 376 003a 54D0     		beq	.L21
 148:Source\mbedtls_open\library/x509write_csr.c ****     {
 149:Source\mbedtls_open\library/x509write_csr.c ****         MBEDTLS_ASN1_CHK_ADD( len, mbedtls_asn1_write_len( &c, tmp_buf, len ) );
 377              		.loc 1 149 0
 378 003c 0200     		movs	r2, r0
 379 003e 08A9     		add	r1, sp, #32
 380 0040 A048     		ldr	r0, .L46+8
 381              	.LVL40:
 382 0042 02AB     		add	r3, sp, #8
 383 0044 9C46     		mov	ip, r3
 384 0046 6044     		add	r0, r0, ip
 385 0048 FFF7FEFF 		bl	mbedtls_asn1_write_len
 386              	.LVL41:
 387 004c 0028     		cmp	r0, #0
 388 004e 00DA     		bge	.LCB321
 389 0050 31E1     		b	.L20	@long jump
 390              	.LCB321:
 391              		.loc 1 149 0 is_stmt 0 discriminator 2
 392 0052 0419     		adds	r4, r0, r4
 393              	.LVL42:
 150:Source\mbedtls_open\library/x509write_csr.c ****         MBEDTLS_ASN1_CHK_ADD( len, mbedtls_asn1_write_tag( &c, tmp_buf, MBEDTLS_ASN1_CONSTRUCTED |
 394              		.loc 1 150 0 is_stmt 1 discriminator 2
 395 0054 3022     		movs	r2, #48
 396 0056 08A9     		add	r1, sp, #32
 397 0058 9A48     		ldr	r0, .L46+8
 398              	.LVL43:
 399 005a 02AB     		add	r3, sp, #8
 400 005c 9C46     		mov	ip, r3
 401 005e 6044     		add	r0, r0, ip
 402 0060 FFF7FEFF 		bl	mbedtls_asn1_write_tag
 403              	.LVL44:
 404 0064 0028     		cmp	r0, #0
 405 0066 00DA     		bge	.LCB336
 406 0068 25E1     		b	.L20	@long jump
 407              	.LCB336:
 408 006a 0419     		adds	r4, r0, r4
 409              	.LVL45:
 151:Source\mbedtls_open\library/x509write_csr.c ****                                                         MBEDTLS_ASN1_SEQUENCE ) );
 152:Source\mbedtls_open\library/x509write_csr.c **** 
 153:Source\mbedtls_open\library/x509write_csr.c ****         MBEDTLS_ASN1_CHK_ADD( len, mbedtls_asn1_write_len( &c, tmp_buf, len ) );
 410              		.loc 1 153 0 discriminator 2
 411 006c 2200     		movs	r2, r4
 412 006e 08A9     		add	r1, sp, #32
 413 0070 9448     		ldr	r0, .L46+8
 414              	.LVL46:
 415 0072 02AB     		add	r3, sp, #8
 416 0074 9C46     		mov	ip, r3
 417 0076 6044     		add	r0, r0, ip
ARM GAS  C:\Users\Phuong\AppData\Local\Temp\ccqxmzYk.s 			page 11


 418 0078 FFF7FEFF 		bl	mbedtls_asn1_write_len
 419              	.LVL47:
 420 007c 0028     		cmp	r0, #0
 421 007e 00DA     		bge	.LCB351
 422 0080 19E1     		b	.L20	@long jump
 423              	.LCB351:
 424 0082 0419     		adds	r4, r0, r4
 425              	.LVL48:
 154:Source\mbedtls_open\library/x509write_csr.c ****         MBEDTLS_ASN1_CHK_ADD( len, mbedtls_asn1_write_tag( &c, tmp_buf, MBEDTLS_ASN1_CONSTRUCTED |
 426              		.loc 1 154 0 discriminator 2
 427 0084 3122     		movs	r2, #49
 428 0086 08A9     		add	r1, sp, #32
 429 0088 8E48     		ldr	r0, .L46+8
 430              	.LVL49:
 431 008a 02AB     		add	r3, sp, #8
 432 008c 9C46     		mov	ip, r3
 433 008e 6044     		add	r0, r0, ip
 434 0090 FFF7FEFF 		bl	mbedtls_asn1_write_tag
 435              	.LVL50:
 436 0094 0028     		cmp	r0, #0
 437 0096 00DA     		bge	.LCB366
 438 0098 0DE1     		b	.L20	@long jump
 439              	.LCB366:
 440 009a 0419     		adds	r4, r0, r4
 441              	.LVL51:
 155:Source\mbedtls_open\library/x509write_csr.c ****                                                         MBEDTLS_ASN1_SET ) );
 156:Source\mbedtls_open\library/x509write_csr.c **** 
 157:Source\mbedtls_open\library/x509write_csr.c ****         MBEDTLS_ASN1_CHK_ADD( len, mbedtls_asn1_write_oid( &c, tmp_buf, MBEDTLS_OID_PKCS9_CSR_EXT_R
 442              		.loc 1 157 0 discriminator 2
 443 009c 0923     		movs	r3, #9
 444 009e 8A4A     		ldr	r2, .L46+12
 445 00a0 08A9     		add	r1, sp, #32
 446 00a2 8848     		ldr	r0, .L46+8
 447              	.LVL52:
 448 00a4 02AE     		add	r6, sp, #8
 449 00a6 B446     		mov	ip, r6
 450 00a8 6044     		add	r0, r0, ip
 451 00aa FFF7FEFF 		bl	mbedtls_asn1_write_oid
 452              	.LVL53:
 453 00ae 0028     		cmp	r0, #0
 454 00b0 00DA     		bge	.LCB382
 455 00b2 00E1     		b	.L20	@long jump
 456              	.LCB382:
 457 00b4 0419     		adds	r4, r0, r4
 458              	.LVL54:
 158:Source\mbedtls_open\library/x509write_csr.c ****                                           MBEDTLS_OID_SIZE( MBEDTLS_OID_PKCS9_CSR_EXT_REQ ) ) );
 159:Source\mbedtls_open\library/x509write_csr.c **** 
 160:Source\mbedtls_open\library/x509write_csr.c ****         MBEDTLS_ASN1_CHK_ADD( len, mbedtls_asn1_write_len( &c, tmp_buf, len ) );
 459              		.loc 1 160 0 discriminator 2
 460 00b6 2200     		movs	r2, r4
 461 00b8 08A9     		add	r1, sp, #32
 462 00ba 8248     		ldr	r0, .L46+8
 463              	.LVL55:
 464 00bc 02AB     		add	r3, sp, #8
 465 00be 9C46     		mov	ip, r3
 466 00c0 6044     		add	r0, r0, ip
 467 00c2 FFF7FEFF 		bl	mbedtls_asn1_write_len
ARM GAS  C:\Users\Phuong\AppData\Local\Temp\ccqxmzYk.s 			page 12


 468              	.LVL56:
 469 00c6 0028     		cmp	r0, #0
 470 00c8 00DA     		bge	.LCB397
 471 00ca F4E0     		b	.L20	@long jump
 472              	.LCB397:
 473 00cc 0419     		adds	r4, r0, r4
 474              	.LVL57:
 161:Source\mbedtls_open\library/x509write_csr.c ****         MBEDTLS_ASN1_CHK_ADD( len, mbedtls_asn1_write_tag( &c, tmp_buf, MBEDTLS_ASN1_CONSTRUCTED |
 475              		.loc 1 161 0 discriminator 2
 476 00ce 3022     		movs	r2, #48
 477 00d0 08A9     		add	r1, sp, #32
 478 00d2 7C48     		ldr	r0, .L46+8
 479              	.LVL58:
 480 00d4 02AB     		add	r3, sp, #8
 481 00d6 9C46     		mov	ip, r3
 482 00d8 6044     		add	r0, r0, ip
 483 00da FFF7FEFF 		bl	mbedtls_asn1_write_tag
 484              	.LVL59:
 485 00de 0028     		cmp	r0, #0
 486 00e0 00DA     		bge	.LCB412
 487 00e2 E8E0     		b	.L20	@long jump
 488              	.LCB412:
 489 00e4 0619     		adds	r6, r0, r4
 490              	.LVL60:
 491              	.L21:
 162:Source\mbedtls_open\library/x509write_csr.c ****                                                         MBEDTLS_ASN1_SEQUENCE ) );
 163:Source\mbedtls_open\library/x509write_csr.c ****     }
 164:Source\mbedtls_open\library/x509write_csr.c **** 
 165:Source\mbedtls_open\library/x509write_csr.c ****     MBEDTLS_ASN1_CHK_ADD( len, mbedtls_asn1_write_len( &c, tmp_buf, len ) );
 492              		.loc 1 165 0
 493 00e6 3200     		movs	r2, r6
 494 00e8 08A9     		add	r1, sp, #32
 495 00ea 7648     		ldr	r0, .L46+8
 496              	.LVL61:
 497 00ec 02AB     		add	r3, sp, #8
 498 00ee 9C46     		mov	ip, r3
 499 00f0 6044     		add	r0, r0, ip
 500 00f2 FFF7FEFF 		bl	mbedtls_asn1_write_len
 501              	.LVL62:
 502 00f6 0028     		cmp	r0, #0
 503 00f8 00DA     		bge	.LCB431
 504 00fa DCE0     		b	.L20	@long jump
 505              	.LCB431:
 506              		.loc 1 165 0 is_stmt 0 discriminator 2
 507 00fc 8419     		adds	r4, r0, r6
 508              	.LVL63:
 166:Source\mbedtls_open\library/x509write_csr.c ****     MBEDTLS_ASN1_CHK_ADD( len, mbedtls_asn1_write_tag( &c, tmp_buf, MBEDTLS_ASN1_CONSTRUCTED |
 509              		.loc 1 166 0 is_stmt 1 discriminator 2
 510 00fe A022     		movs	r2, #160
 511 0100 08A9     		add	r1, sp, #32
 512 0102 7048     		ldr	r0, .L46+8
 513              	.LVL64:
 514 0104 02AB     		add	r3, sp, #8
 515 0106 9C46     		mov	ip, r3
 516 0108 6044     		add	r0, r0, ip
 517 010a FFF7FEFF 		bl	mbedtls_asn1_write_tag
 518              	.LVL65:
ARM GAS  C:\Users\Phuong\AppData\Local\Temp\ccqxmzYk.s 			page 13


 519 010e 0028     		cmp	r0, #0
 520 0110 00DA     		bge	.LCB446
 521 0112 D0E0     		b	.L20	@long jump
 522              	.LCB446:
 523 0114 0419     		adds	r4, r0, r4
 524              	.LVL66:
 167:Source\mbedtls_open\library/x509write_csr.c ****                                                     MBEDTLS_ASN1_CONTEXT_SPECIFIC ) );
 168:Source\mbedtls_open\library/x509write_csr.c **** 
 169:Source\mbedtls_open\library/x509write_csr.c ****     MBEDTLS_ASN1_CHK_ADD( pub_len, mbedtls_pk_write_pubkey_der( ctx->key,
 525              		.loc 1 169 0 discriminator 2
 526 0116 08A9     		add	r1, sp, #32
 527 0118 6A4B     		ldr	r3, .L46+8
 528 011a 02AA     		add	r2, sp, #8
 529 011c 9446     		mov	ip, r2
 530 011e 6344     		add	r3, r3, ip
 531 0120 1B68     		ldr	r3, [r3]
 532 0122 5A1A     		subs	r2, r3, r1
 533 0124 3868     		ldr	r0, [r7]
 534              	.LVL67:
 535 0126 FFF7FEFF 		bl	mbedtls_pk_write_pubkey_der
 536              	.LVL68:
 537 012a 0028     		cmp	r0, #0
 538 012c 00DA     		bge	.LCB465
 539 012e C2E0     		b	.L20	@long jump
 540              	.LCB465:
 541              	.LVL69:
 170:Source\mbedtls_open\library/x509write_csr.c ****                                                 tmp_buf, c - tmp_buf ) );
 171:Source\mbedtls_open\library/x509write_csr.c ****     c -= pub_len;
 542              		.loc 1 171 0 discriminator 2
 543 0130 644B     		ldr	r3, .L46+8
 544 0132 02AA     		add	r2, sp, #8
 545 0134 9446     		mov	ip, r2
 546 0136 6344     		add	r3, r3, ip
 547 0138 1B68     		ldr	r3, [r3]
 548 013a 1B1A     		subs	r3, r3, r0
 549 013c 614A     		ldr	r2, .L46+8
 550 013e 6244     		add	r2, r2, ip
 551 0140 1360     		str	r3, [r2]
 172:Source\mbedtls_open\library/x509write_csr.c ****     len += pub_len;
 552              		.loc 1 172 0 discriminator 2
 553 0142 2418     		adds	r4, r4, r0
 554              	.LVL70:
 173:Source\mbedtls_open\library/x509write_csr.c **** 
 174:Source\mbedtls_open\library/x509write_csr.c ****     /*
 175:Source\mbedtls_open\library/x509write_csr.c ****      *  Subject  ::=  Name
 176:Source\mbedtls_open\library/x509write_csr.c ****      */
 177:Source\mbedtls_open\library/x509write_csr.c ****     MBEDTLS_ASN1_CHK_ADD( len, mbedtls_x509_write_names( &c, tmp_buf, ctx->subject ) );
 555              		.loc 1 177 0 discriminator 2
 556 0144 7A68     		ldr	r2, [r7, #4]
 557 0146 08A9     		add	r1, sp, #32
 558 0148 5E48     		ldr	r0, .L46+8
 559              	.LVL71:
 560 014a 6044     		add	r0, r0, ip
 561 014c FFF7FEFF 		bl	mbedtls_x509_write_names
 562              	.LVL72:
 563 0150 0028     		cmp	r0, #0
 564 0152 00DA     		bge	.LCB491
ARM GAS  C:\Users\Phuong\AppData\Local\Temp\ccqxmzYk.s 			page 14


 565 0154 AFE0     		b	.L20	@long jump
 566              	.LCB491:
 567 0156 0419     		adds	r4, r0, r4
 568              	.LVL73:
 178:Source\mbedtls_open\library/x509write_csr.c **** 
 179:Source\mbedtls_open\library/x509write_csr.c ****     /*
 180:Source\mbedtls_open\library/x509write_csr.c ****      *  Version  ::=  INTEGER  {  v1(0), v2(1), v3(2)  }
 181:Source\mbedtls_open\library/x509write_csr.c ****      */
 182:Source\mbedtls_open\library/x509write_csr.c ****     MBEDTLS_ASN1_CHK_ADD( len, mbedtls_asn1_write_int( &c, tmp_buf, 0 ) );
 569              		.loc 1 182 0 discriminator 2
 570 0158 0022     		movs	r2, #0
 571 015a 08A9     		add	r1, sp, #32
 572 015c 5948     		ldr	r0, .L46+8
 573              	.LVL74:
 574 015e 02AB     		add	r3, sp, #8
 575 0160 9C46     		mov	ip, r3
 576 0162 6044     		add	r0, r0, ip
 577 0164 FFF7FEFF 		bl	mbedtls_asn1_write_int
 578              	.LVL75:
 579 0168 0028     		cmp	r0, #0
 580 016a 00DA     		bge	.LCB506
 581 016c A3E0     		b	.L20	@long jump
 582              	.LCB506:
 583 016e 0419     		adds	r4, r0, r4
 584              	.LVL76:
 183:Source\mbedtls_open\library/x509write_csr.c **** 
 184:Source\mbedtls_open\library/x509write_csr.c ****     MBEDTLS_ASN1_CHK_ADD( len, mbedtls_asn1_write_len( &c, tmp_buf, len ) );
 585              		.loc 1 184 0 discriminator 2
 586 0170 2200     		movs	r2, r4
 587 0172 08A9     		add	r1, sp, #32
 588 0174 5348     		ldr	r0, .L46+8
 589              	.LVL77:
 590 0176 02AB     		add	r3, sp, #8
 591 0178 9C46     		mov	ip, r3
 592 017a 6044     		add	r0, r0, ip
 593 017c FFF7FEFF 		bl	mbedtls_asn1_write_len
 594              	.LVL78:
 595 0180 0028     		cmp	r0, #0
 596 0182 00DA     		bge	.LCB521
 597 0184 97E0     		b	.L20	@long jump
 598              	.LCB521:
 599 0186 0419     		adds	r4, r0, r4
 600              	.LVL79:
 185:Source\mbedtls_open\library/x509write_csr.c ****     MBEDTLS_ASN1_CHK_ADD( len, mbedtls_asn1_write_tag( &c, tmp_buf, MBEDTLS_ASN1_CONSTRUCTED |
 601              		.loc 1 185 0 discriminator 2
 602 0188 3022     		movs	r2, #48
 603 018a 08A9     		add	r1, sp, #32
 604 018c 4D48     		ldr	r0, .L46+8
 605              	.LVL80:
 606 018e 02AB     		add	r3, sp, #8
 607 0190 9C46     		mov	ip, r3
 608 0192 6044     		add	r0, r0, ip
 609 0194 FFF7FEFF 		bl	mbedtls_asn1_write_tag
 610              	.LVL81:
 611 0198 0028     		cmp	r0, #0
 612 019a 00DA     		bge	.LCB536
 613 019c 8BE0     		b	.L20	@long jump
ARM GAS  C:\Users\Phuong\AppData\Local\Temp\ccqxmzYk.s 			page 15


 614              	.LCB536:
 615 019e 0419     		adds	r4, r0, r4
 616              	.LVL82:
 186:Source\mbedtls_open\library/x509write_csr.c ****                                                     MBEDTLS_ASN1_SEQUENCE ) );
 187:Source\mbedtls_open\library/x509write_csr.c **** 
 188:Source\mbedtls_open\library/x509write_csr.c ****     /*
 189:Source\mbedtls_open\library/x509write_csr.c ****      * Prepare signature
 190:Source\mbedtls_open\library/x509write_csr.c ****      */
 191:Source\mbedtls_open\library/x509write_csr.c ****     mbedtls_md( mbedtls_md_info_from_type( ctx->md_alg ), c, len, hash );
 617              		.loc 1 191 0 discriminator 2
 618 01a0 387A     		ldrb	r0, [r7, #8]
 619              	.LVL83:
 620 01a2 FFF7FEFF 		bl	mbedtls_md_info_from_type
 621              	.LVL84:
 622 01a6 494B     		ldr	r3, .L46+16
 623 01a8 02AA     		add	r2, sp, #8
 624 01aa 9446     		mov	ip, r2
 625 01ac 6344     		add	r3, r3, ip
 626 01ae 2200     		movs	r2, r4
 627 01b0 4449     		ldr	r1, .L46+8
 628 01b2 6144     		add	r1, r1, ip
 629 01b4 0968     		ldr	r1, [r1]
 630 01b6 FFF7FEFF 		bl	mbedtls_md
 631              	.LVL85:
 192:Source\mbedtls_open\library/x509write_csr.c **** 
 193:Source\mbedtls_open\library/x509write_csr.c ****     if( ( ret = mbedtls_pk_sign( ctx->key, ctx->md_alg, hash, 0, sig, &sig_len,
 632              		.loc 1 193 0 discriminator 2
 633 01ba 397A     		ldrb	r1, [r7, #8]
 634 01bc C823     		movs	r3, #200
 635 01be 1B01     		lsls	r3, r3, #4
 636 01c0 02AA     		add	r2, sp, #8
 637 01c2 9446     		mov	ip, r2
 638 01c4 6344     		add	r3, r3, ip
 639 01c6 1B68     		ldr	r3, [r3]
 640 01c8 0393     		str	r3, [sp, #12]
 641 01ca 0295     		str	r5, [sp, #8]
 642 01cc 07AB     		add	r3, sp, #28
 643 01ce 0193     		str	r3, [sp, #4]
 644 01d0 3B4B     		ldr	r3, .L46+4
 645 01d2 6344     		add	r3, r3, ip
 646 01d4 0093     		str	r3, [sp]
 647 01d6 0023     		movs	r3, #0
 648 01d8 3C4A     		ldr	r2, .L46+16
 649 01da 6244     		add	r2, r2, ip
 650 01dc 3868     		ldr	r0, [r7]
 651 01de FFF7FEFF 		bl	mbedtls_pk_sign
 652              	.LVL86:
 653 01e2 0028     		cmp	r0, #0
 654 01e4 67D1     		bne	.L20
 194:Source\mbedtls_open\library/x509write_csr.c ****                                  f_rng, p_rng ) ) != 0 )
 195:Source\mbedtls_open\library/x509write_csr.c ****     {
 196:Source\mbedtls_open\library/x509write_csr.c ****         return( ret );
 197:Source\mbedtls_open\library/x509write_csr.c ****     }
 198:Source\mbedtls_open\library/x509write_csr.c **** 
 199:Source\mbedtls_open\library/x509write_csr.c ****     if( mbedtls_pk_can_do( ctx->key, MBEDTLS_PK_RSA ) )
 655              		.loc 1 199 0
 656 01e6 0121     		movs	r1, #1
ARM GAS  C:\Users\Phuong\AppData\Local\Temp\ccqxmzYk.s 			page 16


 657 01e8 3868     		ldr	r0, [r7]
 658              	.LVL87:
 659 01ea FFF7FEFF 		bl	mbedtls_pk_can_do
 660              	.LVL88:
 661 01ee 0028     		cmp	r0, #0
 662 01f0 07D1     		bne	.L39
 200:Source\mbedtls_open\library/x509write_csr.c ****         pk_alg = MBEDTLS_PK_RSA;
 201:Source\mbedtls_open\library/x509write_csr.c ****     else if( mbedtls_pk_can_do( ctx->key, MBEDTLS_PK_ECDSA ) )
 663              		.loc 1 201 0
 664 01f2 0421     		movs	r1, #4
 665 01f4 3868     		ldr	r0, [r7]
 666 01f6 FFF7FEFF 		bl	mbedtls_pk_can_do
 667              	.LVL89:
 668 01fa 0028     		cmp	r0, #0
 669 01fc 56D0     		beq	.L40
 202:Source\mbedtls_open\library/x509write_csr.c ****         pk_alg = MBEDTLS_PK_ECDSA;
 670              		.loc 1 202 0
 671 01fe 0420     		movs	r0, #4
 672 0200 00E0     		b	.L22
 673              	.L39:
 200:Source\mbedtls_open\library/x509write_csr.c ****         pk_alg = MBEDTLS_PK_RSA;
 674              		.loc 1 200 0
 675 0202 0120     		movs	r0, #1
 676              	.L22:
 677              	.LVL90:
 203:Source\mbedtls_open\library/x509write_csr.c ****     else
 204:Source\mbedtls_open\library/x509write_csr.c ****         return( MBEDTLS_ERR_X509_INVALID_ALG );
 205:Source\mbedtls_open\library/x509write_csr.c **** 
 206:Source\mbedtls_open\library/x509write_csr.c ****     if( ( ret = mbedtls_oid_get_oid_by_sig_alg( pk_alg, ctx->md_alg,
 678              		.loc 1 206 0
 679 0204 397A     		ldrb	r1, [r7, #8]
 680 0206 C623     		movs	r3, #198
 681 0208 1B01     		lsls	r3, r3, #4
 682 020a 02AA     		add	r2, sp, #8
 683 020c 9446     		mov	ip, r2
 684 020e 6344     		add	r3, r3, ip
 685 0210 2F4A     		ldr	r2, .L46+20
 686 0212 6244     		add	r2, r2, ip
 687 0214 FFF7FEFF 		bl	mbedtls_oid_get_oid_by_sig_alg
 688              	.LVL91:
 689 0218 0028     		cmp	r0, #0
 690 021a 4CD1     		bne	.L20
 207:Source\mbedtls_open\library/x509write_csr.c ****                                                 &sig_oid, &sig_oid_len ) ) != 0 )
 208:Source\mbedtls_open\library/x509write_csr.c ****     {
 209:Source\mbedtls_open\library/x509write_csr.c ****         return( ret );
 210:Source\mbedtls_open\library/x509write_csr.c ****     }
 211:Source\mbedtls_open\library/x509write_csr.c **** 
 212:Source\mbedtls_open\library/x509write_csr.c ****     /*
 213:Source\mbedtls_open\library/x509write_csr.c ****      * Write data to output buffer
 214:Source\mbedtls_open\library/x509write_csr.c ****      */
 215:Source\mbedtls_open\library/x509write_csr.c ****     c2 = buf + size;
 691              		.loc 1 215 0
 692 021c 059B     		ldr	r3, [sp, #20]
 693 021e 1F00     		movs	r7, r3
 694              	.LVL92:
 695 0220 049E     		ldr	r6, [sp, #16]
 696 0222 B446     		mov	ip, r6
ARM GAS  C:\Users\Phuong\AppData\Local\Temp\ccqxmzYk.s 			page 17


 697 0224 6744     		add	r7, r7, ip
 698 0226 2B4B     		ldr	r3, .L46+24
 699 0228 02AA     		add	r2, sp, #8
 700 022a 9446     		mov	ip, r2
 701 022c 6344     		add	r3, r3, ip
 702 022e 1F60     		str	r7, [r3]
 216:Source\mbedtls_open\library/x509write_csr.c ****     MBEDTLS_ASN1_CHK_ADD( sig_and_oid_len, mbedtls_x509_write_sig( &c2, buf,
 703              		.loc 1 216 0
 704 0230 079B     		ldr	r3, [sp, #28]
 705 0232 0193     		str	r3, [sp, #4]
 706 0234 224B     		ldr	r3, .L46+4
 707 0236 6344     		add	r3, r3, ip
 708 0238 0093     		str	r3, [sp]
 709 023a C623     		movs	r3, #198
 710 023c 1B01     		lsls	r3, r3, #4
 711 023e 6344     		add	r3, r3, ip
 712 0240 1B68     		ldr	r3, [r3]
 713 0242 234A     		ldr	r2, .L46+20
 714 0244 6244     		add	r2, r2, ip
 715 0246 1268     		ldr	r2, [r2]
 716 0248 3100     		movs	r1, r6
 717 024a 2248     		ldr	r0, .L46+24
 718              	.LVL93:
 719 024c 6044     		add	r0, r0, ip
 720 024e FFF7FEFF 		bl	mbedtls_x509_write_sig
 721              	.LVL94:
 722 0252 051E     		subs	r5, r0, #0
 723              	.LVL95:
 724 0254 2CDB     		blt	.L42
 725              	.LVL96:
 217:Source\mbedtls_open\library/x509write_csr.c ****                                         sig_oid, sig_oid_len, sig, sig_len ) );
 218:Source\mbedtls_open\library/x509write_csr.c **** 
 219:Source\mbedtls_open\library/x509write_csr.c ****     if( len > (size_t)( c2 - buf ) )
 726              		.loc 1 219 0 discriminator 2
 727 0256 1F4B     		ldr	r3, .L46+24
 728 0258 02AA     		add	r2, sp, #8
 729 025a 9446     		mov	ip, r2
 730 025c 6344     		add	r3, r3, ip
 731 025e 1868     		ldr	r0, [r3]
 732              	.LVL97:
 733 0260 831B     		subs	r3, r0, r6
 734 0262 9C42     		cmp	r4, r3
 735 0264 25D8     		bhi	.L43
 220:Source\mbedtls_open\library/x509write_csr.c ****         return( MBEDTLS_ERR_ASN1_BUF_TOO_SMALL );
 221:Source\mbedtls_open\library/x509write_csr.c **** 
 222:Source\mbedtls_open\library/x509write_csr.c ****     c2 -= len;
 736              		.loc 1 222 0
 737 0266 001B     		subs	r0, r0, r4
 738 0268 1A4B     		ldr	r3, .L46+24
 739 026a 6344     		add	r3, r3, ip
 740 026c 1860     		str	r0, [r3]
 223:Source\mbedtls_open\library/x509write_csr.c ****     memcpy( c2, c, len );
 741              		.loc 1 223 0
 742 026e 2200     		movs	r2, r4
 743 0270 144B     		ldr	r3, .L46+8
 744 0272 6344     		add	r3, r3, ip
 745 0274 1968     		ldr	r1, [r3]
ARM GAS  C:\Users\Phuong\AppData\Local\Temp\ccqxmzYk.s 			page 18


 746 0276 FFF7FEFF 		bl	memcpy
 747              	.LVL98:
 224:Source\mbedtls_open\library/x509write_csr.c **** 
 225:Source\mbedtls_open\library/x509write_csr.c ****     len += sig_and_oid_len;
 748              		.loc 1 225 0
 749 027a 6419     		adds	r4, r4, r5
 750              	.LVL99:
 226:Source\mbedtls_open\library/x509write_csr.c ****     MBEDTLS_ASN1_CHK_ADD( len, mbedtls_asn1_write_len( &c2, buf, len ) );
 751              		.loc 1 226 0
 752 027c 2200     		movs	r2, r4
 753 027e 3100     		movs	r1, r6
 754 0280 1448     		ldr	r0, .L46+24
 755 0282 02AB     		add	r3, sp, #8
 756 0284 9C46     		mov	ip, r3
 757 0286 6044     		add	r0, r0, ip
 758 0288 FFF7FEFF 		bl	mbedtls_asn1_write_len
 759              	.LVL100:
 760 028c 0028     		cmp	r0, #0
 761 028e 12DB     		blt	.L20
 762              		.loc 1 226 0 is_stmt 0 discriminator 2
 763 0290 0419     		adds	r4, r0, r4
 764              	.LVL101:
 227:Source\mbedtls_open\library/x509write_csr.c ****     MBEDTLS_ASN1_CHK_ADD( len, mbedtls_asn1_write_tag( &c2, buf, MBEDTLS_ASN1_CONSTRUCTED |
 765              		.loc 1 227 0 is_stmt 1 discriminator 2
 766 0292 3022     		movs	r2, #48
 767 0294 3100     		movs	r1, r6
 768 0296 0F48     		ldr	r0, .L46+24
 769              	.LVL102:
 770 0298 02AB     		add	r3, sp, #8
 771 029a 9C46     		mov	ip, r3
 772 029c 6044     		add	r0, r0, ip
 773 029e FFF7FEFF 		bl	mbedtls_asn1_write_tag
 774              	.LVL103:
 775 02a2 0028     		cmp	r0, #0
 776 02a4 07DB     		blt	.L20
 777 02a6 0019     		adds	r0, r0, r4
 778              	.LVL104:
 228:Source\mbedtls_open\library/x509write_csr.c ****                                                  MBEDTLS_ASN1_SEQUENCE ) );
 229:Source\mbedtls_open\library/x509write_csr.c **** 
 230:Source\mbedtls_open\library/x509write_csr.c ****     return( (int) len );
 779              		.loc 1 230 0 discriminator 2
 780 02a8 05E0     		b	.L20
 781              	.LVL105:
 782              	.L23:
 783 02aa 04E0     		b	.L20
 784              	.LVL106:
 785              	.L40:
 204:Source\mbedtls_open\library/x509write_csr.c **** 
 786              		.loc 1 204 0
 787 02ac 0A48     		ldr	r0, .L46+28
 788 02ae 02E0     		b	.L20
 789              	.LVL107:
 790              	.L42:
 791 02b0 01E0     		b	.L20
 792              	.LVL108:
 793              	.L43:
 220:Source\mbedtls_open\library/x509write_csr.c **** 
ARM GAS  C:\Users\Phuong\AppData\Local\Temp\ccqxmzYk.s 			page 19


 794              		.loc 1 220 0
 795 02b2 6C20     		movs	r0, #108
 796 02b4 4042     		rsbs	r0, r0, #0
 797              	.LVL109:
 798              	.L20:
 231:Source\mbedtls_open\library/x509write_csr.c **** }
 799              		.loc 1 231 0
 800 02b6 094B     		ldr	r3, .L46+32
 801 02b8 9D44     		add	sp, sp, r3
 802              		@ sp needed
 803 02ba F0BD     		pop	{r4, r5, r6, r7, pc}
 804              	.L47:
 805              		.align	2
 806              	.L46:
 807 02bc 8CF3FFFF 		.word	-3188
 808 02c0 18080000 		.word	2072
 809 02c4 5C0C0000 		.word	3164
 810 02c8 10000000 		.word	.LC4
 811 02cc 180C0000 		.word	3096
 812 02d0 640C0000 		.word	3172
 813 02d4 580C0000 		.word	3160
 814 02d8 00DDFFFF 		.word	-8960
 815 02dc 740C0000 		.word	3188
 816              		.cfi_endproc
 817              	.LFE18:
 818              		.size	mbedtls_x509write_csr_der, .-mbedtls_x509write_csr_der
 819              		.section	.text.mbedtls_x509write_csr_pem,"ax",%progbits
 820              		.align	2
 821              		.global	mbedtls_x509write_csr_pem
 822              		.code	16
 823              		.thumb_func
 824              		.type	mbedtls_x509write_csr_pem, %function
 825              	mbedtls_x509write_csr_pem:
 826              	.LFB19:
 232:Source\mbedtls_open\library/x509write_csr.c **** 
 233:Source\mbedtls_open\library/x509write_csr.c **** #define PEM_BEGIN_CSR           "-----BEGIN CERTIFICATE REQUEST-----\n"
 234:Source\mbedtls_open\library/x509write_csr.c **** #define PEM_END_CSR             "-----END CERTIFICATE REQUEST-----\n"
 235:Source\mbedtls_open\library/x509write_csr.c **** 
 236:Source\mbedtls_open\library/x509write_csr.c **** #if defined(MBEDTLS_PEM_WRITE_C)
 237:Source\mbedtls_open\library/x509write_csr.c **** int mbedtls_x509write_csr_pem( mbedtls_x509write_csr *ctx, unsigned char *buf, size_t size,
 238:Source\mbedtls_open\library/x509write_csr.c ****                        int (*f_rng)(void *, unsigned char *, size_t),
 239:Source\mbedtls_open\library/x509write_csr.c ****                        void *p_rng )
 240:Source\mbedtls_open\library/x509write_csr.c **** {
 827              		.loc 1 240 0
 828              		.cfi_startproc
 829              		@ args = 4, pretend = 0, frame = 4104
 830              		@ frame_needed = 0, uses_anonymous_args = 0
 831              	.LVL110:
 832 0000 30B5     		push	{r4, r5, lr}
 833              		.cfi_def_cfa_offset 12
 834              		.cfi_offset 4, -12
 835              		.cfi_offset 5, -8
 836              		.cfi_offset 14, -4
 837 0002 114C     		ldr	r4, .L52
 838 0004 A544     		add	sp, sp, r4
 839              		.cfi_def_cfa_offset 4136
 840 0006 0C00     		movs	r4, r1
ARM GAS  C:\Users\Phuong\AppData\Local\Temp\ccqxmzYk.s 			page 20


 841 0008 1500     		movs	r5, r2
 241:Source\mbedtls_open\library/x509write_csr.c ****     int ret;
 242:Source\mbedtls_open\library/x509write_csr.c ****     unsigned char output_buf[4096];
 243:Source\mbedtls_open\library/x509write_csr.c ****     size_t olen = 0;
 842              		.loc 1 243 0
 843 000a 0022     		movs	r2, #0
 844              	.LVL111:
 845 000c 0592     		str	r2, [sp, #20]
 244:Source\mbedtls_open\library/x509write_csr.c **** 
 245:Source\mbedtls_open\library/x509write_csr.c ****     if( ( ret = mbedtls_x509write_csr_der( ctx, output_buf, sizeof(output_buf),
 846              		.loc 1 245 0
 847 000e 0F4A     		ldr	r2, .L52+4
 848 0010 6A44     		add	r2, r2, sp
 849 0012 1268     		ldr	r2, [r2]
 850 0014 0092     		str	r2, [sp]
 851 0016 8022     		movs	r2, #128
 852 0018 5201     		lsls	r2, r2, #5
 853 001a 06A9     		add	r1, sp, #24
 854              	.LVL112:
 855 001c FFF7FEFF 		bl	mbedtls_x509write_csr_der
 856              	.LVL113:
 857 0020 0028     		cmp	r0, #0
 858 0022 0EDB     		blt	.L49
 246:Source\mbedtls_open\library/x509write_csr.c ****                                    f_rng, p_rng ) ) < 0 )
 247:Source\mbedtls_open\library/x509write_csr.c ****     {
 248:Source\mbedtls_open\library/x509write_csr.c ****         return( ret );
 249:Source\mbedtls_open\library/x509write_csr.c ****     }
 250:Source\mbedtls_open\library/x509write_csr.c **** 
 251:Source\mbedtls_open\library/x509write_csr.c ****     if( ( ret = mbedtls_pem_write_buffer( PEM_BEGIN_CSR, PEM_END_CSR,
 252:Source\mbedtls_open\library/x509write_csr.c ****                                   output_buf + sizeof(output_buf) - ret,
 859              		.loc 1 252 0
 860 0024 8022     		movs	r2, #128
 861 0026 5201     		lsls	r2, r2, #5
 862 0028 121A     		subs	r2, r2, r0
 251:Source\mbedtls_open\library/x509write_csr.c ****                                   output_buf + sizeof(output_buf) - ret,
 863              		.loc 1 251 0
 864 002a 06AB     		add	r3, sp, #24
 865 002c 9C46     		mov	ip, r3
 866 002e 6244     		add	r2, r2, ip
 867 0030 05AB     		add	r3, sp, #20
 868 0032 0293     		str	r3, [sp, #8]
 869 0034 0195     		str	r5, [sp, #4]
 870 0036 0094     		str	r4, [sp]
 871 0038 0300     		movs	r3, r0
 872 003a 0549     		ldr	r1, .L52+8
 873 003c 0548     		ldr	r0, .L52+12
 874              	.LVL114:
 875 003e FFF7FEFF 		bl	mbedtls_pem_write_buffer
 876              	.LVL115:
 877              	.L49:
 253:Source\mbedtls_open\library/x509write_csr.c ****                                   ret, buf, size, &olen ) ) != 0 )
 254:Source\mbedtls_open\library/x509write_csr.c ****     {
 255:Source\mbedtls_open\library/x509write_csr.c ****         return( ret );
 256:Source\mbedtls_open\library/x509write_csr.c ****     }
 257:Source\mbedtls_open\library/x509write_csr.c **** 
 258:Source\mbedtls_open\library/x509write_csr.c ****     return( 0 );
 259:Source\mbedtls_open\library/x509write_csr.c **** }
ARM GAS  C:\Users\Phuong\AppData\Local\Temp\ccqxmzYk.s 			page 21


 878              		.loc 1 259 0
 879 0042 054B     		ldr	r3, .L52+16
 880 0044 9D44     		add	sp, sp, r3
 881              		@ sp needed
 882              	.LVL116:
 883              	.LVL117:
 884 0046 30BD     		pop	{r4, r5, pc}
 885              	.L53:
 886              		.align	2
 887              	.L52:
 888 0048 E4EFFFFF 		.word	-4124
 889 004c 28100000 		.word	4136
 890 0050 1C000000 		.word	.LC6
 891 0054 40000000 		.word	.LC8
 892 0058 1C100000 		.word	4124
 893              		.cfi_endproc
 894              	.LFE19:
 895              		.size	mbedtls_x509write_csr_pem, .-mbedtls_x509write_csr_pem
 896              		.section	.rodata.str1.4,"aMS",%progbits,1
 897              		.align	2
 898              	.LC0:
 899 0000 551D0F00 		.ascii	"U\035\017\000"
 900              	.LC2:
 901 0004 60864801 		.ascii	"`\206H\001\206\370B\001\001\000"
 901      86F84201 
 901      0100
 902 000e 0000     		.space	2
 903              	.LC4:
 904 0010 2A864886 		.ascii	"*\206H\206\367\015\001\011\016\000"
 904      F70D0109 
 904      0E00
 905 001a 0000     		.space	2
 906              	.LC6:
 907 001c 2D2D2D2D 		.ascii	"-----END CERTIFICATE REQUEST-----\012\000"
 907      2D454E44 
 907      20434552 
 907      54494649 
 907      43415445 
 908 003f 00       		.space	1
 909              	.LC8:
 910 0040 2D2D2D2D 		.ascii	"-----BEGIN CERTIFICATE REQUEST-----\012\000"
 910      2D424547 
 910      494E2043 
 910      45525449 
 910      46494341 
 911              		.text
 912              	.Letext0:
 913              		.file 2 ".\\Source\\mbedtls_open\\include/mbedtls/asn1.h"
 914              		.file 3 "c:\\program files (x86)\\cypress\\psoc creator\\4.2\\psoc creator\\import\\gnu\\arm\\5.4.
 915              		.file 4 ".\\Source\\mbedtls_open\\include/mbedtls/md.h"
 916              		.file 5 ".\\Source\\mbedtls_open\\include/mbedtls/pk.h"
 917              		.file 6 ".\\Source\\mbedtls_open\\include/mbedtls/x509_csr.h"
 918              		.file 7 ".\\Source\\mbedtls_open\\include/mbedtls/platform_util.h"
 919              		.file 8 ".\\Source\\mbedtls_open\\include/mbedtls/x509.h"
 920              		.file 9 ".\\Source\\mbedtls_open\\include/mbedtls/asn1write.h"
 921              		.file 10 ".\\Source\\mbedtls_open\\include/mbedtls/oid.h"
 922              		.file 11 ".\\Source\\mbedtls_open\\include/mbedtls/pem.h"
ARM GAS  C:\Users\Phuong\AppData\Local\Temp\ccqxmzYk.s 			page 22

