ARM GAS  C:\Users\Phuong\AppData\Local\Temp\ccnOMRLI.s 			page 1


   1              		.syntax unified
   2              		.cpu cortex-m0plus
   3              		.fpu softvfp
   4              		.eabi_attribute 20, 1
   5              		.eabi_attribute 21, 1
   6              		.eabi_attribute 23, 3
   7              		.eabi_attribute 24, 1
   8              		.eabi_attribute 25, 1
   9              		.eabi_attribute 26, 1
  10              		.eabi_attribute 30, 1
  11              		.eabi_attribute 34, 0
  12              		.eabi_attribute 18, 4
  13              		.thumb
  14              		.syntax unified
  15              		.file	"x509_csr.c"
  16              		.text
  17              	.Ltext0:
  18              		.cfi_sections	.debug_frame
  19              		.section	.text.x509_csr_get_version,"ax",%progbits
  20              		.align	2
  21              		.code	16
  22              		.thumb_func
  23              		.type	x509_csr_get_version, %function
  24              	x509_csr_get_version:
  25              	.LFB11:
  26              		.file 1 "Source\\mbedtls_open\\library\\x509_csr.c"
   1:Source\mbedtls_open\library/x509_csr.c **** /*
   2:Source\mbedtls_open\library/x509_csr.c ****  *  X.509 Certificate Signing Request (CSR) parsing
   3:Source\mbedtls_open\library/x509_csr.c ****  *
   4:Source\mbedtls_open\library/x509_csr.c ****  *  Copyright (C) 2006-2015, ARM Limited, All Rights Reserved
   5:Source\mbedtls_open\library/x509_csr.c ****  *  SPDX-License-Identifier: Apache-2.0
   6:Source\mbedtls_open\library/x509_csr.c ****  *
   7:Source\mbedtls_open\library/x509_csr.c ****  *  Licensed under the Apache License, Version 2.0 (the "License"); you may
   8:Source\mbedtls_open\library/x509_csr.c ****  *  not use this file except in compliance with the License.
   9:Source\mbedtls_open\library/x509_csr.c ****  *  You may obtain a copy of the License at
  10:Source\mbedtls_open\library/x509_csr.c ****  *
  11:Source\mbedtls_open\library/x509_csr.c ****  *  http://www.apache.org/licenses/LICENSE-2.0
  12:Source\mbedtls_open\library/x509_csr.c ****  *
  13:Source\mbedtls_open\library/x509_csr.c ****  *  Unless required by applicable law or agreed to in writing, software
  14:Source\mbedtls_open\library/x509_csr.c ****  *  distributed under the License is distributed on an "AS IS" BASIS, WITHOUT
  15:Source\mbedtls_open\library/x509_csr.c ****  *  WARRANTIES OR CONDITIONS OF ANY KIND, either express or implied.
  16:Source\mbedtls_open\library/x509_csr.c ****  *  See the License for the specific language governing permissions and
  17:Source\mbedtls_open\library/x509_csr.c ****  *  limitations under the License.
  18:Source\mbedtls_open\library/x509_csr.c ****  *
  19:Source\mbedtls_open\library/x509_csr.c ****  *  This file is part of mbed TLS (https://tls.mbed.org)
  20:Source\mbedtls_open\library/x509_csr.c ****  */
  21:Source\mbedtls_open\library/x509_csr.c **** /*
  22:Source\mbedtls_open\library/x509_csr.c ****  *  The ITU-T X.509 standard defines a certificate format for PKI.
  23:Source\mbedtls_open\library/x509_csr.c ****  *
  24:Source\mbedtls_open\library/x509_csr.c ****  *  http://www.ietf.org/rfc/rfc5280.txt (Certificates and CRLs)
  25:Source\mbedtls_open\library/x509_csr.c ****  *  http://www.ietf.org/rfc/rfc3279.txt (Alg IDs for CRLs)
  26:Source\mbedtls_open\library/x509_csr.c ****  *  http://www.ietf.org/rfc/rfc2986.txt (CSRs, aka PKCS#10)
  27:Source\mbedtls_open\library/x509_csr.c ****  *
  28:Source\mbedtls_open\library/x509_csr.c ****  *  http://www.itu.int/ITU-T/studygroups/com17/languages/X.680-0207.pdf
  29:Source\mbedtls_open\library/x509_csr.c ****  *  http://www.itu.int/ITU-T/studygroups/com17/languages/X.690-0207.pdf
  30:Source\mbedtls_open\library/x509_csr.c ****  */
  31:Source\mbedtls_open\library/x509_csr.c **** 
ARM GAS  C:\Users\Phuong\AppData\Local\Temp\ccnOMRLI.s 			page 2


  32:Source\mbedtls_open\library/x509_csr.c **** #if !defined(MBEDTLS_CONFIG_FILE)
  33:Source\mbedtls_open\library/x509_csr.c **** #include "mbedtls/config.h"
  34:Source\mbedtls_open\library/x509_csr.c **** #else
  35:Source\mbedtls_open\library/x509_csr.c **** #include MBEDTLS_CONFIG_FILE
  36:Source\mbedtls_open\library/x509_csr.c **** #endif
  37:Source\mbedtls_open\library/x509_csr.c **** 
  38:Source\mbedtls_open\library/x509_csr.c **** #if defined(MBEDTLS_X509_CSR_PARSE_C)
  39:Source\mbedtls_open\library/x509_csr.c **** 
  40:Source\mbedtls_open\library/x509_csr.c **** #include "mbedtls/x509_csr.h"
  41:Source\mbedtls_open\library/x509_csr.c **** #include "mbedtls/oid.h"
  42:Source\mbedtls_open\library/x509_csr.c **** #include "mbedtls/platform_util.h"
  43:Source\mbedtls_open\library/x509_csr.c **** 
  44:Source\mbedtls_open\library/x509_csr.c **** #include <string.h>
  45:Source\mbedtls_open\library/x509_csr.c **** 
  46:Source\mbedtls_open\library/x509_csr.c **** #if defined(MBEDTLS_PEM_PARSE_C)
  47:Source\mbedtls_open\library/x509_csr.c **** #include "mbedtls/pem.h"
  48:Source\mbedtls_open\library/x509_csr.c **** #endif
  49:Source\mbedtls_open\library/x509_csr.c **** 
  50:Source\mbedtls_open\library/x509_csr.c **** #if defined(MBEDTLS_PLATFORM_C)
  51:Source\mbedtls_open\library/x509_csr.c **** #include "mbedtls/platform.h"
  52:Source\mbedtls_open\library/x509_csr.c **** #else
  53:Source\mbedtls_open\library/x509_csr.c **** #include <stdlib.h>
  54:Source\mbedtls_open\library/x509_csr.c **** #include <stdio.h>
  55:Source\mbedtls_open\library/x509_csr.c **** #define mbedtls_free       free
  56:Source\mbedtls_open\library/x509_csr.c **** #define mbedtls_calloc    calloc
  57:Source\mbedtls_open\library/x509_csr.c **** #define mbedtls_snprintf   snprintf
  58:Source\mbedtls_open\library/x509_csr.c **** #endif
  59:Source\mbedtls_open\library/x509_csr.c **** 
  60:Source\mbedtls_open\library/x509_csr.c **** #if defined(MBEDTLS_FS_IO) || defined(EFIX64) || defined(EFI32)
  61:Source\mbedtls_open\library/x509_csr.c **** #include <stdio.h>
  62:Source\mbedtls_open\library/x509_csr.c **** #endif
  63:Source\mbedtls_open\library/x509_csr.c **** 
  64:Source\mbedtls_open\library/x509_csr.c **** /*
  65:Source\mbedtls_open\library/x509_csr.c ****  *  Version  ::=  INTEGER  {  v1(0)  }
  66:Source\mbedtls_open\library/x509_csr.c ****  */
  67:Source\mbedtls_open\library/x509_csr.c **** static int x509_csr_get_version( unsigned char **p,
  68:Source\mbedtls_open\library/x509_csr.c ****                              const unsigned char *end,
  69:Source\mbedtls_open\library/x509_csr.c ****                              int *ver )
  70:Source\mbedtls_open\library/x509_csr.c **** {
  27              		.loc 1 70 0
  28              		.cfi_startproc
  29              		@ args = 0, pretend = 0, frame = 0
  30              		@ frame_needed = 0, uses_anonymous_args = 0
  31              	.LVL0:
  32 0000 10B5     		push	{r4, lr}
  33              		.cfi_def_cfa_offset 8
  34              		.cfi_offset 4, -8
  35              		.cfi_offset 14, -4
  36 0002 1400     		movs	r4, r2
  71:Source\mbedtls_open\library/x509_csr.c ****     int ret;
  72:Source\mbedtls_open\library/x509_csr.c **** 
  73:Source\mbedtls_open\library/x509_csr.c ****     if( ( ret = mbedtls_asn1_get_int( p, end, ver ) ) != 0 )
  37              		.loc 1 73 0
  38 0004 FFF7FEFF 		bl	mbedtls_asn1_get_int
  39              	.LVL1:
  40 0008 0028     		cmp	r0, #0
  41 000a 0AD0     		beq	.L4
ARM GAS  C:\Users\Phuong\AppData\Local\Temp\ccnOMRLI.s 			page 3


  74:Source\mbedtls_open\library/x509_csr.c ****     {
  75:Source\mbedtls_open\library/x509_csr.c ****         if( ret == MBEDTLS_ERR_ASN1_UNEXPECTED_TAG )
  42              		.loc 1 75 0
  43 000c 0300     		movs	r3, r0
  44 000e 6233     		adds	r3, r3, #98
  45 0010 03D1     		bne	.L3
  76:Source\mbedtls_open\library/x509_csr.c ****         {
  77:Source\mbedtls_open\library/x509_csr.c ****             *ver = 0;
  46              		.loc 1 77 0
  47 0012 0023     		movs	r3, #0
  48 0014 2360     		str	r3, [r4]
  78:Source\mbedtls_open\library/x509_csr.c ****             return( 0 );
  49              		.loc 1 78 0
  50 0016 0020     		movs	r0, #0
  51              	.LVL2:
  52 0018 04E0     		b	.L2
  53              	.LVL3:
  54              	.L3:
  79:Source\mbedtls_open\library/x509_csr.c ****         }
  80:Source\mbedtls_open\library/x509_csr.c **** 
  81:Source\mbedtls_open\library/x509_csr.c ****         return( MBEDTLS_ERR_X509_INVALID_VERSION + ret );
  55              		.loc 1 81 0
  56 001a 034B     		ldr	r3, .L5
  57 001c 9C46     		mov	ip, r3
  58 001e 6044     		add	r0, r0, ip
  59              	.LVL4:
  60 0020 00E0     		b	.L2
  61              	.LVL5:
  62              	.L4:
  82:Source\mbedtls_open\library/x509_csr.c ****     }
  83:Source\mbedtls_open\library/x509_csr.c **** 
  84:Source\mbedtls_open\library/x509_csr.c ****     return( 0 );
  63              		.loc 1 84 0
  64 0022 0020     		movs	r0, #0
  65              	.LVL6:
  66              	.L2:
  85:Source\mbedtls_open\library/x509_csr.c **** }
  67              		.loc 1 85 0
  68              		@ sp needed
  69              	.LVL7:
  70 0024 10BD     		pop	{r4, pc}
  71              	.L6:
  72 0026 C046     		.align	2
  73              	.L5:
  74 0028 00DEFFFF 		.word	-8704
  75              		.cfi_endproc
  76              	.LFE11:
  77              		.size	x509_csr_get_version, .-x509_csr_get_version
  78              		.section	.text.mbedtls_x509_csr_info,"ax",%progbits
  79              		.align	2
  80              		.global	mbedtls_x509_csr_info
  81              		.code	16
  82              		.thumb_func
  83              		.type	mbedtls_x509_csr_info, %function
  84              	mbedtls_x509_csr_info:
  85              	.LFB14:
  86:Source\mbedtls_open\library/x509_csr.c **** 
ARM GAS  C:\Users\Phuong\AppData\Local\Temp\ccnOMRLI.s 			page 4


  87:Source\mbedtls_open\library/x509_csr.c **** /*
  88:Source\mbedtls_open\library/x509_csr.c ****  * Parse a CSR in DER format
  89:Source\mbedtls_open\library/x509_csr.c ****  */
  90:Source\mbedtls_open\library/x509_csr.c **** int mbedtls_x509_csr_parse_der( mbedtls_x509_csr *csr,
  91:Source\mbedtls_open\library/x509_csr.c ****                         const unsigned char *buf, size_t buflen )
  92:Source\mbedtls_open\library/x509_csr.c **** {
  93:Source\mbedtls_open\library/x509_csr.c ****     int ret;
  94:Source\mbedtls_open\library/x509_csr.c ****     size_t len;
  95:Source\mbedtls_open\library/x509_csr.c ****     unsigned char *p, *end;
  96:Source\mbedtls_open\library/x509_csr.c ****     mbedtls_x509_buf sig_params;
  97:Source\mbedtls_open\library/x509_csr.c **** 
  98:Source\mbedtls_open\library/x509_csr.c ****     memset( &sig_params, 0, sizeof( mbedtls_x509_buf ) );
  99:Source\mbedtls_open\library/x509_csr.c **** 
 100:Source\mbedtls_open\library/x509_csr.c ****     /*
 101:Source\mbedtls_open\library/x509_csr.c ****      * Check for valid input
 102:Source\mbedtls_open\library/x509_csr.c ****      */
 103:Source\mbedtls_open\library/x509_csr.c ****     if( csr == NULL || buf == NULL || buflen == 0 )
 104:Source\mbedtls_open\library/x509_csr.c ****         return( MBEDTLS_ERR_X509_BAD_INPUT_DATA );
 105:Source\mbedtls_open\library/x509_csr.c **** 
 106:Source\mbedtls_open\library/x509_csr.c ****     mbedtls_x509_csr_init( csr );
 107:Source\mbedtls_open\library/x509_csr.c **** 
 108:Source\mbedtls_open\library/x509_csr.c ****     /*
 109:Source\mbedtls_open\library/x509_csr.c ****      * first copy the raw DER data
 110:Source\mbedtls_open\library/x509_csr.c ****      */
 111:Source\mbedtls_open\library/x509_csr.c ****     p = mbedtls_calloc( 1, len = buflen );
 112:Source\mbedtls_open\library/x509_csr.c **** 
 113:Source\mbedtls_open\library/x509_csr.c ****     if( p == NULL )
 114:Source\mbedtls_open\library/x509_csr.c ****         return( MBEDTLS_ERR_X509_ALLOC_FAILED );
 115:Source\mbedtls_open\library/x509_csr.c **** 
 116:Source\mbedtls_open\library/x509_csr.c ****     memcpy( p, buf, buflen );
 117:Source\mbedtls_open\library/x509_csr.c **** 
 118:Source\mbedtls_open\library/x509_csr.c ****     csr->raw.p = p;
 119:Source\mbedtls_open\library/x509_csr.c ****     csr->raw.len = len;
 120:Source\mbedtls_open\library/x509_csr.c ****     end = p + len;
 121:Source\mbedtls_open\library/x509_csr.c **** 
 122:Source\mbedtls_open\library/x509_csr.c ****     /*
 123:Source\mbedtls_open\library/x509_csr.c ****      *  CertificationRequest ::= SEQUENCE {
 124:Source\mbedtls_open\library/x509_csr.c ****      *       certificationRequestInfo CertificationRequestInfo,
 125:Source\mbedtls_open\library/x509_csr.c ****      *       signatureAlgorithm AlgorithmIdentifier,
 126:Source\mbedtls_open\library/x509_csr.c ****      *       signature          BIT STRING
 127:Source\mbedtls_open\library/x509_csr.c ****      *  }
 128:Source\mbedtls_open\library/x509_csr.c ****      */
 129:Source\mbedtls_open\library/x509_csr.c ****     if( ( ret = mbedtls_asn1_get_tag( &p, end, &len,
 130:Source\mbedtls_open\library/x509_csr.c ****             MBEDTLS_ASN1_CONSTRUCTED | MBEDTLS_ASN1_SEQUENCE ) ) != 0 )
 131:Source\mbedtls_open\library/x509_csr.c ****     {
 132:Source\mbedtls_open\library/x509_csr.c ****         mbedtls_x509_csr_free( csr );
 133:Source\mbedtls_open\library/x509_csr.c ****         return( MBEDTLS_ERR_X509_INVALID_FORMAT );
 134:Source\mbedtls_open\library/x509_csr.c ****     }
 135:Source\mbedtls_open\library/x509_csr.c **** 
 136:Source\mbedtls_open\library/x509_csr.c ****     if( len != (size_t) ( end - p ) )
 137:Source\mbedtls_open\library/x509_csr.c ****     {
 138:Source\mbedtls_open\library/x509_csr.c ****         mbedtls_x509_csr_free( csr );
 139:Source\mbedtls_open\library/x509_csr.c ****         return( MBEDTLS_ERR_X509_INVALID_FORMAT +
 140:Source\mbedtls_open\library/x509_csr.c ****                 MBEDTLS_ERR_ASN1_LENGTH_MISMATCH );
 141:Source\mbedtls_open\library/x509_csr.c ****     }
 142:Source\mbedtls_open\library/x509_csr.c **** 
 143:Source\mbedtls_open\library/x509_csr.c ****     /*
ARM GAS  C:\Users\Phuong\AppData\Local\Temp\ccnOMRLI.s 			page 5


 144:Source\mbedtls_open\library/x509_csr.c ****      *  CertificationRequestInfo ::= SEQUENCE {
 145:Source\mbedtls_open\library/x509_csr.c ****      */
 146:Source\mbedtls_open\library/x509_csr.c ****     csr->cri.p = p;
 147:Source\mbedtls_open\library/x509_csr.c **** 
 148:Source\mbedtls_open\library/x509_csr.c ****     if( ( ret = mbedtls_asn1_get_tag( &p, end, &len,
 149:Source\mbedtls_open\library/x509_csr.c ****             MBEDTLS_ASN1_CONSTRUCTED | MBEDTLS_ASN1_SEQUENCE ) ) != 0 )
 150:Source\mbedtls_open\library/x509_csr.c ****     {
 151:Source\mbedtls_open\library/x509_csr.c ****         mbedtls_x509_csr_free( csr );
 152:Source\mbedtls_open\library/x509_csr.c ****         return( MBEDTLS_ERR_X509_INVALID_FORMAT + ret );
 153:Source\mbedtls_open\library/x509_csr.c ****     }
 154:Source\mbedtls_open\library/x509_csr.c **** 
 155:Source\mbedtls_open\library/x509_csr.c ****     end = p + len;
 156:Source\mbedtls_open\library/x509_csr.c ****     csr->cri.len = end - csr->cri.p;
 157:Source\mbedtls_open\library/x509_csr.c **** 
 158:Source\mbedtls_open\library/x509_csr.c ****     /*
 159:Source\mbedtls_open\library/x509_csr.c ****      *  Version  ::=  INTEGER {  v1(0) }
 160:Source\mbedtls_open\library/x509_csr.c ****      */
 161:Source\mbedtls_open\library/x509_csr.c ****     if( ( ret = x509_csr_get_version( &p, end, &csr->version ) ) != 0 )
 162:Source\mbedtls_open\library/x509_csr.c ****     {
 163:Source\mbedtls_open\library/x509_csr.c ****         mbedtls_x509_csr_free( csr );
 164:Source\mbedtls_open\library/x509_csr.c ****         return( ret );
 165:Source\mbedtls_open\library/x509_csr.c ****     }
 166:Source\mbedtls_open\library/x509_csr.c **** 
 167:Source\mbedtls_open\library/x509_csr.c ****     if( csr->version != 0 )
 168:Source\mbedtls_open\library/x509_csr.c ****     {
 169:Source\mbedtls_open\library/x509_csr.c ****         mbedtls_x509_csr_free( csr );
 170:Source\mbedtls_open\library/x509_csr.c ****         return( MBEDTLS_ERR_X509_UNKNOWN_VERSION );
 171:Source\mbedtls_open\library/x509_csr.c ****     }
 172:Source\mbedtls_open\library/x509_csr.c **** 
 173:Source\mbedtls_open\library/x509_csr.c ****     csr->version++;
 174:Source\mbedtls_open\library/x509_csr.c **** 
 175:Source\mbedtls_open\library/x509_csr.c ****     /*
 176:Source\mbedtls_open\library/x509_csr.c ****      *  subject               Name
 177:Source\mbedtls_open\library/x509_csr.c ****      */
 178:Source\mbedtls_open\library/x509_csr.c ****     csr->subject_raw.p = p;
 179:Source\mbedtls_open\library/x509_csr.c **** 
 180:Source\mbedtls_open\library/x509_csr.c ****     if( ( ret = mbedtls_asn1_get_tag( &p, end, &len,
 181:Source\mbedtls_open\library/x509_csr.c ****             MBEDTLS_ASN1_CONSTRUCTED | MBEDTLS_ASN1_SEQUENCE ) ) != 0 )
 182:Source\mbedtls_open\library/x509_csr.c ****     {
 183:Source\mbedtls_open\library/x509_csr.c ****         mbedtls_x509_csr_free( csr );
 184:Source\mbedtls_open\library/x509_csr.c ****         return( MBEDTLS_ERR_X509_INVALID_FORMAT + ret );
 185:Source\mbedtls_open\library/x509_csr.c ****     }
 186:Source\mbedtls_open\library/x509_csr.c **** 
 187:Source\mbedtls_open\library/x509_csr.c ****     if( ( ret = mbedtls_x509_get_name( &p, p + len, &csr->subject ) ) != 0 )
 188:Source\mbedtls_open\library/x509_csr.c ****     {
 189:Source\mbedtls_open\library/x509_csr.c ****         mbedtls_x509_csr_free( csr );
 190:Source\mbedtls_open\library/x509_csr.c ****         return( ret );
 191:Source\mbedtls_open\library/x509_csr.c ****     }
 192:Source\mbedtls_open\library/x509_csr.c **** 
 193:Source\mbedtls_open\library/x509_csr.c ****     csr->subject_raw.len = p - csr->subject_raw.p;
 194:Source\mbedtls_open\library/x509_csr.c **** 
 195:Source\mbedtls_open\library/x509_csr.c ****     /*
 196:Source\mbedtls_open\library/x509_csr.c ****      *  subjectPKInfo SubjectPublicKeyInfo
 197:Source\mbedtls_open\library/x509_csr.c ****      */
 198:Source\mbedtls_open\library/x509_csr.c ****     if( ( ret = mbedtls_pk_parse_subpubkey( &p, end, &csr->pk ) ) != 0 )
 199:Source\mbedtls_open\library/x509_csr.c ****     {
 200:Source\mbedtls_open\library/x509_csr.c ****         mbedtls_x509_csr_free( csr );
ARM GAS  C:\Users\Phuong\AppData\Local\Temp\ccnOMRLI.s 			page 6


 201:Source\mbedtls_open\library/x509_csr.c ****         return( ret );
 202:Source\mbedtls_open\library/x509_csr.c ****     }
 203:Source\mbedtls_open\library/x509_csr.c **** 
 204:Source\mbedtls_open\library/x509_csr.c ****     /*
 205:Source\mbedtls_open\library/x509_csr.c ****      *  attributes    [0] Attributes
 206:Source\mbedtls_open\library/x509_csr.c ****      *
 207:Source\mbedtls_open\library/x509_csr.c ****      *  The list of possible attributes is open-ended, though RFC 2985
 208:Source\mbedtls_open\library/x509_csr.c ****      *  (PKCS#9) defines a few in section 5.4. We currently don't support any,
 209:Source\mbedtls_open\library/x509_csr.c ****      *  so we just ignore them. This is a safe thing to do as the worst thing
 210:Source\mbedtls_open\library/x509_csr.c ****      *  that could happen is that we issue a certificate that does not match
 211:Source\mbedtls_open\library/x509_csr.c ****      *  the requester's expectations - this cannot cause a violation of our
 212:Source\mbedtls_open\library/x509_csr.c ****      *  signature policies.
 213:Source\mbedtls_open\library/x509_csr.c ****      */
 214:Source\mbedtls_open\library/x509_csr.c ****     if( ( ret = mbedtls_asn1_get_tag( &p, end, &len,
 215:Source\mbedtls_open\library/x509_csr.c ****             MBEDTLS_ASN1_CONSTRUCTED | MBEDTLS_ASN1_CONTEXT_SPECIFIC ) ) != 0 )
 216:Source\mbedtls_open\library/x509_csr.c ****     {
 217:Source\mbedtls_open\library/x509_csr.c ****         mbedtls_x509_csr_free( csr );
 218:Source\mbedtls_open\library/x509_csr.c ****         return( MBEDTLS_ERR_X509_INVALID_FORMAT + ret );
 219:Source\mbedtls_open\library/x509_csr.c ****     }
 220:Source\mbedtls_open\library/x509_csr.c **** 
 221:Source\mbedtls_open\library/x509_csr.c ****     p += len;
 222:Source\mbedtls_open\library/x509_csr.c **** 
 223:Source\mbedtls_open\library/x509_csr.c ****     end = csr->raw.p + csr->raw.len;
 224:Source\mbedtls_open\library/x509_csr.c **** 
 225:Source\mbedtls_open\library/x509_csr.c ****     /*
 226:Source\mbedtls_open\library/x509_csr.c ****      *  signatureAlgorithm   AlgorithmIdentifier,
 227:Source\mbedtls_open\library/x509_csr.c ****      *  signature            BIT STRING
 228:Source\mbedtls_open\library/x509_csr.c ****      */
 229:Source\mbedtls_open\library/x509_csr.c ****     if( ( ret = mbedtls_x509_get_alg( &p, end, &csr->sig_oid, &sig_params ) ) != 0 )
 230:Source\mbedtls_open\library/x509_csr.c ****     {
 231:Source\mbedtls_open\library/x509_csr.c ****         mbedtls_x509_csr_free( csr );
 232:Source\mbedtls_open\library/x509_csr.c ****         return( ret );
 233:Source\mbedtls_open\library/x509_csr.c ****     }
 234:Source\mbedtls_open\library/x509_csr.c **** 
 235:Source\mbedtls_open\library/x509_csr.c ****     if( ( ret = mbedtls_x509_get_sig_alg( &csr->sig_oid, &sig_params,
 236:Source\mbedtls_open\library/x509_csr.c ****                                   &csr->sig_md, &csr->sig_pk,
 237:Source\mbedtls_open\library/x509_csr.c ****                                   &csr->sig_opts ) ) != 0 )
 238:Source\mbedtls_open\library/x509_csr.c ****     {
 239:Source\mbedtls_open\library/x509_csr.c ****         mbedtls_x509_csr_free( csr );
 240:Source\mbedtls_open\library/x509_csr.c ****         return( MBEDTLS_ERR_X509_UNKNOWN_SIG_ALG );
 241:Source\mbedtls_open\library/x509_csr.c ****     }
 242:Source\mbedtls_open\library/x509_csr.c **** 
 243:Source\mbedtls_open\library/x509_csr.c ****     if( ( ret = mbedtls_x509_get_sig( &p, end, &csr->sig ) ) != 0 )
 244:Source\mbedtls_open\library/x509_csr.c ****     {
 245:Source\mbedtls_open\library/x509_csr.c ****         mbedtls_x509_csr_free( csr );
 246:Source\mbedtls_open\library/x509_csr.c ****         return( ret );
 247:Source\mbedtls_open\library/x509_csr.c ****     }
 248:Source\mbedtls_open\library/x509_csr.c **** 
 249:Source\mbedtls_open\library/x509_csr.c ****     if( p != end )
 250:Source\mbedtls_open\library/x509_csr.c ****     {
 251:Source\mbedtls_open\library/x509_csr.c ****         mbedtls_x509_csr_free( csr );
 252:Source\mbedtls_open\library/x509_csr.c ****         return( MBEDTLS_ERR_X509_INVALID_FORMAT +
 253:Source\mbedtls_open\library/x509_csr.c ****                 MBEDTLS_ERR_ASN1_LENGTH_MISMATCH );
 254:Source\mbedtls_open\library/x509_csr.c ****     }
 255:Source\mbedtls_open\library/x509_csr.c **** 
 256:Source\mbedtls_open\library/x509_csr.c ****     return( 0 );
 257:Source\mbedtls_open\library/x509_csr.c **** }
ARM GAS  C:\Users\Phuong\AppData\Local\Temp\ccnOMRLI.s 			page 7


 258:Source\mbedtls_open\library/x509_csr.c **** 
 259:Source\mbedtls_open\library/x509_csr.c **** /*
 260:Source\mbedtls_open\library/x509_csr.c ****  * Parse a CSR, allowing for PEM or raw DER encoding
 261:Source\mbedtls_open\library/x509_csr.c ****  */
 262:Source\mbedtls_open\library/x509_csr.c **** int mbedtls_x509_csr_parse( mbedtls_x509_csr *csr, const unsigned char *buf, size_t buflen )
 263:Source\mbedtls_open\library/x509_csr.c **** {
 264:Source\mbedtls_open\library/x509_csr.c **** #if defined(MBEDTLS_PEM_PARSE_C)
 265:Source\mbedtls_open\library/x509_csr.c ****     int ret;
 266:Source\mbedtls_open\library/x509_csr.c ****     size_t use_len;
 267:Source\mbedtls_open\library/x509_csr.c ****     mbedtls_pem_context pem;
 268:Source\mbedtls_open\library/x509_csr.c **** #endif
 269:Source\mbedtls_open\library/x509_csr.c **** 
 270:Source\mbedtls_open\library/x509_csr.c ****     /*
 271:Source\mbedtls_open\library/x509_csr.c ****      * Check for valid input
 272:Source\mbedtls_open\library/x509_csr.c ****      */
 273:Source\mbedtls_open\library/x509_csr.c ****     if( csr == NULL || buf == NULL || buflen == 0 )
 274:Source\mbedtls_open\library/x509_csr.c ****         return( MBEDTLS_ERR_X509_BAD_INPUT_DATA );
 275:Source\mbedtls_open\library/x509_csr.c **** 
 276:Source\mbedtls_open\library/x509_csr.c **** #if defined(MBEDTLS_PEM_PARSE_C)
 277:Source\mbedtls_open\library/x509_csr.c ****     /* Avoid calling mbedtls_pem_read_buffer() on non-null-terminated string */
 278:Source\mbedtls_open\library/x509_csr.c ****     if( buf[buflen - 1] == '\0' )
 279:Source\mbedtls_open\library/x509_csr.c ****     {
 280:Source\mbedtls_open\library/x509_csr.c ****         mbedtls_pem_init( &pem );
 281:Source\mbedtls_open\library/x509_csr.c ****         ret = mbedtls_pem_read_buffer( &pem,
 282:Source\mbedtls_open\library/x509_csr.c ****                                "-----BEGIN CERTIFICATE REQUEST-----",
 283:Source\mbedtls_open\library/x509_csr.c ****                                "-----END CERTIFICATE REQUEST-----",
 284:Source\mbedtls_open\library/x509_csr.c ****                                buf, NULL, 0, &use_len );
 285:Source\mbedtls_open\library/x509_csr.c **** 
 286:Source\mbedtls_open\library/x509_csr.c ****         if( ret == 0 )
 287:Source\mbedtls_open\library/x509_csr.c ****             /*
 288:Source\mbedtls_open\library/x509_csr.c ****              * Was PEM encoded, parse the result
 289:Source\mbedtls_open\library/x509_csr.c ****              */
 290:Source\mbedtls_open\library/x509_csr.c ****             ret = mbedtls_x509_csr_parse_der( csr, pem.buf, pem.buflen );
 291:Source\mbedtls_open\library/x509_csr.c **** 
 292:Source\mbedtls_open\library/x509_csr.c ****         mbedtls_pem_free( &pem );
 293:Source\mbedtls_open\library/x509_csr.c ****         if( ret != MBEDTLS_ERR_PEM_NO_HEADER_FOOTER_PRESENT )
 294:Source\mbedtls_open\library/x509_csr.c ****             return( ret );
 295:Source\mbedtls_open\library/x509_csr.c ****     }
 296:Source\mbedtls_open\library/x509_csr.c **** #endif /* MBEDTLS_PEM_PARSE_C */
 297:Source\mbedtls_open\library/x509_csr.c ****     return( mbedtls_x509_csr_parse_der( csr, buf, buflen ) );
 298:Source\mbedtls_open\library/x509_csr.c **** }
 299:Source\mbedtls_open\library/x509_csr.c **** 
 300:Source\mbedtls_open\library/x509_csr.c **** #if defined(MBEDTLS_FS_IO)
 301:Source\mbedtls_open\library/x509_csr.c **** /*
 302:Source\mbedtls_open\library/x509_csr.c ****  * Load a CSR into the structure
 303:Source\mbedtls_open\library/x509_csr.c ****  */
 304:Source\mbedtls_open\library/x509_csr.c **** int mbedtls_x509_csr_parse_file( mbedtls_x509_csr *csr, const char *path )
 305:Source\mbedtls_open\library/x509_csr.c **** {
 306:Source\mbedtls_open\library/x509_csr.c ****     int ret;
 307:Source\mbedtls_open\library/x509_csr.c ****     size_t n;
 308:Source\mbedtls_open\library/x509_csr.c ****     unsigned char *buf;
 309:Source\mbedtls_open\library/x509_csr.c **** 
 310:Source\mbedtls_open\library/x509_csr.c ****     if( ( ret = mbedtls_pk_load_file( path, &buf, &n ) ) != 0 )
 311:Source\mbedtls_open\library/x509_csr.c ****         return( ret );
 312:Source\mbedtls_open\library/x509_csr.c **** 
 313:Source\mbedtls_open\library/x509_csr.c ****     ret = mbedtls_x509_csr_parse( csr, buf, n );
 314:Source\mbedtls_open\library/x509_csr.c **** 
ARM GAS  C:\Users\Phuong\AppData\Local\Temp\ccnOMRLI.s 			page 8


 315:Source\mbedtls_open\library/x509_csr.c ****     mbedtls_platform_zeroize( buf, n );
 316:Source\mbedtls_open\library/x509_csr.c ****     mbedtls_free( buf );
 317:Source\mbedtls_open\library/x509_csr.c **** 
 318:Source\mbedtls_open\library/x509_csr.c ****     return( ret );
 319:Source\mbedtls_open\library/x509_csr.c **** }
 320:Source\mbedtls_open\library/x509_csr.c **** #endif /* MBEDTLS_FS_IO */
 321:Source\mbedtls_open\library/x509_csr.c **** 
 322:Source\mbedtls_open\library/x509_csr.c **** #define BEFORE_COLON    14
 323:Source\mbedtls_open\library/x509_csr.c **** #define BC              "14"
 324:Source\mbedtls_open\library/x509_csr.c **** /*
 325:Source\mbedtls_open\library/x509_csr.c ****  * Return an informational string about the CSR.
 326:Source\mbedtls_open\library/x509_csr.c ****  */
 327:Source\mbedtls_open\library/x509_csr.c **** int mbedtls_x509_csr_info( char *buf, size_t size, const char *prefix,
 328:Source\mbedtls_open\library/x509_csr.c ****                    const mbedtls_x509_csr *csr )
 329:Source\mbedtls_open\library/x509_csr.c **** {
  86              		.loc 1 329 0
  87              		.cfi_startproc
  88              		@ args = 0, pretend = 0, frame = 24
  89              		@ frame_needed = 0, uses_anonymous_args = 0
  90              	.LVL8:
  91 0000 F0B5     		push	{r4, r5, r6, r7, lr}
  92              		.cfi_def_cfa_offset 20
  93              		.cfi_offset 4, -20
  94              		.cfi_offset 5, -16
  95              		.cfi_offset 6, -12
  96              		.cfi_offset 7, -8
  97              		.cfi_offset 14, -4
  98 0002 89B0     		sub	sp, sp, #36
  99              		.cfi_def_cfa_offset 56
 100 0004 0400     		movs	r4, r0
 101 0006 0F00     		movs	r7, r1
 102 0008 1D00     		movs	r5, r3
 103              	.LVL9:
 330:Source\mbedtls_open\library/x509_csr.c ****     int ret;
 331:Source\mbedtls_open\library/x509_csr.c ****     size_t n;
 332:Source\mbedtls_open\library/x509_csr.c ****     char *p;
 333:Source\mbedtls_open\library/x509_csr.c ****     char key_size_str[BEFORE_COLON];
 334:Source\mbedtls_open\library/x509_csr.c **** 
 335:Source\mbedtls_open\library/x509_csr.c ****     p = buf;
 336:Source\mbedtls_open\library/x509_csr.c ****     n = size;
 337:Source\mbedtls_open\library/x509_csr.c **** 
 338:Source\mbedtls_open\library/x509_csr.c ****     ret = mbedtls_snprintf( p, n, "%sCSR version   : %d",
 104              		.loc 1 338 0
 105 000a 9B69     		ldr	r3, [r3, #24]
 106              	.LVL10:
 107 000c 0093     		str	r3, [sp]
 108 000e 0392     		str	r2, [sp, #12]
 109 0010 1300     		movs	r3, r2
 110 0012 3B4A     		ldr	r2, .L22
 111              	.LVL11:
 112 0014 FFF7FEFF 		bl	snprintf
 113              	.LVL12:
 339:Source\mbedtls_open\library/x509_csr.c ****                                prefix, csr->version );
 340:Source\mbedtls_open\library/x509_csr.c ****     MBEDTLS_X509_SAFE_SNPRINTF;
 114              		.loc 1 340 0
 115 0018 0028     		cmp	r0, #0
 116 001a 58DB     		blt	.L9
ARM GAS  C:\Users\Phuong\AppData\Local\Temp\ccnOMRLI.s 			page 9


 117              		.loc 1 340 0 is_stmt 0 discriminator 2
 118 001c 8742     		cmp	r7, r0
 119 001e 58D9     		bls	.L10
 120              		.loc 1 340 0 discriminator 4
 121 0020 3E1A     		subs	r6, r7, r0
 122              	.LVL13:
 123 0022 2418     		adds	r4, r4, r0
 124              	.LVL14:
 341:Source\mbedtls_open\library/x509_csr.c **** 
 342:Source\mbedtls_open\library/x509_csr.c ****     ret = mbedtls_snprintf( p, n, "\n%ssubject name  : ", prefix );
 125              		.loc 1 342 0 is_stmt 1 discriminator 4
 126 0024 039B     		ldr	r3, [sp, #12]
 127 0026 374A     		ldr	r2, .L22+4
 128 0028 3100     		movs	r1, r6
 129 002a 2000     		movs	r0, r4
 130              	.LVL15:
 131 002c FFF7FEFF 		bl	snprintf
 132              	.LVL16:
 343:Source\mbedtls_open\library/x509_csr.c ****     MBEDTLS_X509_SAFE_SNPRINTF;
 133              		.loc 1 343 0 discriminator 4
 134 0030 0028     		cmp	r0, #0
 135 0032 50DB     		blt	.L11
 136              		.loc 1 343 0 is_stmt 0 discriminator 2
 137 0034 8642     		cmp	r6, r0
 138 0036 50D9     		bls	.L12
 139              		.loc 1 343 0 discriminator 4
 140 0038 361A     		subs	r6, r6, r0
 141              	.LVL17:
 142 003a 2418     		adds	r4, r4, r0
 143              	.LVL18:
 344:Source\mbedtls_open\library/x509_csr.c ****     ret = mbedtls_x509_dn_gets( p, n, &csr->subject );
 144              		.loc 1 344 0 is_stmt 1 discriminator 4
 145 003c 2A00     		movs	r2, r5
 146 003e 2832     		adds	r2, r2, #40
 147 0040 3100     		movs	r1, r6
 148 0042 2000     		movs	r0, r4
 149              	.LVL19:
 150 0044 FFF7FEFF 		bl	mbedtls_x509_dn_gets
 151              	.LVL20:
 345:Source\mbedtls_open\library/x509_csr.c ****     MBEDTLS_X509_SAFE_SNPRINTF;
 152              		.loc 1 345 0 discriminator 4
 153 0048 0028     		cmp	r0, #0
 154 004a 48DB     		blt	.L13
 155              		.loc 1 345 0 is_stmt 0 discriminator 2
 156 004c 8642     		cmp	r6, r0
 157 004e 48D9     		bls	.L14
 158              		.loc 1 345 0 discriminator 4
 159 0050 361A     		subs	r6, r6, r0
 160              	.LVL21:
 161 0052 2418     		adds	r4, r4, r0
 162              	.LVL22:
 346:Source\mbedtls_open\library/x509_csr.c **** 
 347:Source\mbedtls_open\library/x509_csr.c ****     ret = mbedtls_snprintf( p, n, "\n%ssigned using  : ", prefix );
 163              		.loc 1 347 0 is_stmt 1 discriminator 4
 164 0054 039B     		ldr	r3, [sp, #12]
 165 0056 2C4A     		ldr	r2, .L22+8
 166 0058 3100     		movs	r1, r6
ARM GAS  C:\Users\Phuong\AppData\Local\Temp\ccnOMRLI.s 			page 10


 167 005a 2000     		movs	r0, r4
 168              	.LVL23:
 169 005c FFF7FEFF 		bl	snprintf
 170              	.LVL24:
 348:Source\mbedtls_open\library/x509_csr.c ****     MBEDTLS_X509_SAFE_SNPRINTF;
 171              		.loc 1 348 0 discriminator 4
 172 0060 0028     		cmp	r0, #0
 173 0062 40DB     		blt	.L15
 174              		.loc 1 348 0 is_stmt 0 discriminator 2
 175 0064 8642     		cmp	r6, r0
 176 0066 40D9     		bls	.L16
 177              		.loc 1 348 0 discriminator 4
 178 0068 361A     		subs	r6, r6, r0
 179              	.LVL25:
 180 006a 2418     		adds	r4, r4, r0
 181              	.LVL26:
 349:Source\mbedtls_open\library/x509_csr.c **** 
 350:Source\mbedtls_open\library/x509_csr.c ****     ret = mbedtls_x509_sig_alg_gets( p, n, &csr->sig_oid, csr->sig_pk, csr->sig_md,
 182              		.loc 1 350 0 is_stmt 1 discriminator 4
 183 006c 2A00     		movs	r2, r5
 184 006e 5032     		adds	r2, r2, #80
 185 0070 6923     		movs	r3, #105
 186 0072 EB5C     		ldrb	r3, [r5, r3]
 187 0074 6821     		movs	r1, #104
 188 0076 695C     		ldrb	r1, [r5, r1]
 189 0078 E86E     		ldr	r0, [r5, #108]
 190              	.LVL27:
 191 007a 0190     		str	r0, [sp, #4]
 192 007c 0091     		str	r1, [sp]
 193 007e 3100     		movs	r1, r6
 194 0080 2000     		movs	r0, r4
 195 0082 FFF7FEFF 		bl	mbedtls_x509_sig_alg_gets
 196              	.LVL28:
 351:Source\mbedtls_open\library/x509_csr.c ****                              csr->sig_opts );
 352:Source\mbedtls_open\library/x509_csr.c ****     MBEDTLS_X509_SAFE_SNPRINTF;
 197              		.loc 1 352 0 discriminator 4
 198 0086 0028     		cmp	r0, #0
 199 0088 31DB     		blt	.L17
 200              		.loc 1 352 0 is_stmt 0 discriminator 2
 201 008a 8642     		cmp	r6, r0
 202 008c 31D9     		bls	.L18
 203              		.loc 1 352 0 discriminator 4
 204 008e 361A     		subs	r6, r6, r0
 205              	.LVL29:
 206 0090 2418     		adds	r4, r4, r0
 207              	.LVL30:
 353:Source\mbedtls_open\library/x509_csr.c **** 
 354:Source\mbedtls_open\library/x509_csr.c ****     if( ( ret = mbedtls_x509_key_size_helper( key_size_str, BEFORE_COLON,
 208              		.loc 1 354 0 is_stmt 1 discriminator 4
 209 0092 4835     		adds	r5, r5, #72
 210              	.LVL31:
 211 0094 2800     		movs	r0, r5
 212              	.LVL32:
 213 0096 FFF7FEFF 		bl	mbedtls_pk_get_name
 214              	.LVL33:
 215 009a 0200     		movs	r2, r0
 216 009c 0E21     		movs	r1, #14
ARM GAS  C:\Users\Phuong\AppData\Local\Temp\ccnOMRLI.s 			page 11


 217 009e 04A8     		add	r0, sp, #16
 218 00a0 FFF7FEFF 		bl	mbedtls_x509_key_size_helper
 219              	.LVL34:
 220 00a4 0028     		cmp	r0, #0
 221 00a6 29D1     		bne	.L8
 355:Source\mbedtls_open\library/x509_csr.c ****                                       mbedtls_pk_get_name( &csr->pk ) ) ) != 0 )
 356:Source\mbedtls_open\library/x509_csr.c ****     {
 357:Source\mbedtls_open\library/x509_csr.c ****         return( ret );
 358:Source\mbedtls_open\library/x509_csr.c ****     }
 359:Source\mbedtls_open\library/x509_csr.c **** 
 360:Source\mbedtls_open\library/x509_csr.c ****     ret = mbedtls_snprintf( p, n, "\n%s%-" BC "s: %d bits\n", prefix, key_size_str,
 361:Source\mbedtls_open\library/x509_csr.c ****                           (int) mbedtls_pk_get_bitlen( &csr->pk ) );
 222              		.loc 1 361 0
 223 00a8 2800     		movs	r0, r5
 224              	.LVL35:
 225 00aa FFF7FEFF 		bl	mbedtls_pk_get_bitlen
 226              	.LVL36:
 360:Source\mbedtls_open\library/x509_csr.c ****                           (int) mbedtls_pk_get_bitlen( &csr->pk ) );
 227              		.loc 1 360 0
 228 00ae 0190     		str	r0, [sp, #4]
 229 00b0 04AB     		add	r3, sp, #16
 230 00b2 0093     		str	r3, [sp]
 231 00b4 039B     		ldr	r3, [sp, #12]
 232 00b6 154A     		ldr	r2, .L22+12
 233 00b8 3100     		movs	r1, r6
 234 00ba 2000     		movs	r0, r4
 235 00bc FFF7FEFF 		bl	snprintf
 236              	.LVL37:
 362:Source\mbedtls_open\library/x509_csr.c ****     MBEDTLS_X509_SAFE_SNPRINTF;
 237              		.loc 1 362 0
 238 00c0 0028     		cmp	r0, #0
 239 00c2 18DB     		blt	.L20
 240              		.loc 1 362 0 is_stmt 0 discriminator 2
 241 00c4 8642     		cmp	r6, r0
 242 00c6 18D9     		bls	.L21
 243              		.loc 1 362 0 discriminator 4
 244 00c8 301A     		subs	r0, r6, r0
 245              	.LVL38:
 363:Source\mbedtls_open\library/x509_csr.c **** 
 364:Source\mbedtls_open\library/x509_csr.c ****     return( (int) ( size - n ) );
 246              		.loc 1 364 0 is_stmt 1 discriminator 4
 247 00ca 381A     		subs	r0, r7, r0
 248              	.LVL39:
 249 00cc 16E0     		b	.L8
 250              	.LVL40:
 251              	.L9:
 340:Source\mbedtls_open\library/x509_csr.c **** 
 252              		.loc 1 340 0
 253 00ce 1048     		ldr	r0, .L22+16
 254              	.LVL41:
 255 00d0 14E0     		b	.L8
 256              	.LVL42:
 257              	.L10:
 258 00d2 0F48     		ldr	r0, .L22+16
 259              	.LVL43:
 260 00d4 12E0     		b	.L8
 261              	.LVL44:
ARM GAS  C:\Users\Phuong\AppData\Local\Temp\ccnOMRLI.s 			page 12


 262              	.L11:
 343:Source\mbedtls_open\library/x509_csr.c ****     ret = mbedtls_x509_dn_gets( p, n, &csr->subject );
 263              		.loc 1 343 0
 264 00d6 0E48     		ldr	r0, .L22+16
 265              	.LVL45:
 266 00d8 10E0     		b	.L8
 267              	.LVL46:
 268              	.L12:
 269 00da 0D48     		ldr	r0, .L22+16
 270              	.LVL47:
 271 00dc 0EE0     		b	.L8
 272              	.LVL48:
 273              	.L13:
 345:Source\mbedtls_open\library/x509_csr.c **** 
 274              		.loc 1 345 0
 275 00de 0C48     		ldr	r0, .L22+16
 276              	.LVL49:
 277 00e0 0CE0     		b	.L8
 278              	.LVL50:
 279              	.L14:
 280 00e2 0B48     		ldr	r0, .L22+16
 281              	.LVL51:
 282 00e4 0AE0     		b	.L8
 283              	.LVL52:
 284              	.L15:
 348:Source\mbedtls_open\library/x509_csr.c **** 
 285              		.loc 1 348 0
 286 00e6 0A48     		ldr	r0, .L22+16
 287              	.LVL53:
 288 00e8 08E0     		b	.L8
 289              	.LVL54:
 290              	.L16:
 291 00ea 0948     		ldr	r0, .L22+16
 292              	.LVL55:
 293 00ec 06E0     		b	.L8
 294              	.LVL56:
 295              	.L17:
 352:Source\mbedtls_open\library/x509_csr.c **** 
 296              		.loc 1 352 0
 297 00ee 0848     		ldr	r0, .L22+16
 298              	.LVL57:
 299 00f0 04E0     		b	.L8
 300              	.LVL58:
 301              	.L18:
 302 00f2 0748     		ldr	r0, .L22+16
 303              	.LVL59:
 304 00f4 02E0     		b	.L8
 305              	.LVL60:
 306              	.L20:
 362:Source\mbedtls_open\library/x509_csr.c **** 
 307              		.loc 1 362 0
 308 00f6 0648     		ldr	r0, .L22+16
 309              	.LVL61:
 310 00f8 00E0     		b	.L8
 311              	.LVL62:
 312              	.L21:
 313 00fa 0548     		ldr	r0, .L22+16
ARM GAS  C:\Users\Phuong\AppData\Local\Temp\ccnOMRLI.s 			page 13


 314              	.LVL63:
 315              	.L8:
 365:Source\mbedtls_open\library/x509_csr.c **** }
 316              		.loc 1 365 0
 317 00fc 09B0     		add	sp, sp, #36
 318              		@ sp needed
 319              	.LVL64:
 320 00fe F0BD     		pop	{r4, r5, r6, r7, pc}
 321              	.L23:
 322              		.align	2
 323              	.L22:
 324 0100 00000000 		.word	.LC0
 325 0104 18000000 		.word	.LC2
 326 0108 2C000000 		.word	.LC4
 327 010c 40000000 		.word	.LC6
 328 0110 80D6FFFF 		.word	-10624
 329              		.cfi_endproc
 330              	.LFE14:
 331              		.size	mbedtls_x509_csr_info, .-mbedtls_x509_csr_info
 332              		.section	.text.mbedtls_x509_csr_init,"ax",%progbits
 333              		.align	2
 334              		.global	mbedtls_x509_csr_init
 335              		.code	16
 336              		.thumb_func
 337              		.type	mbedtls_x509_csr_init, %function
 338              	mbedtls_x509_csr_init:
 339              	.LFB15:
 366:Source\mbedtls_open\library/x509_csr.c **** 
 367:Source\mbedtls_open\library/x509_csr.c **** /*
 368:Source\mbedtls_open\library/x509_csr.c ****  * Initialize a CSR
 369:Source\mbedtls_open\library/x509_csr.c ****  */
 370:Source\mbedtls_open\library/x509_csr.c **** void mbedtls_x509_csr_init( mbedtls_x509_csr *csr )
 371:Source\mbedtls_open\library/x509_csr.c **** {
 340              		.loc 1 371 0
 341              		.cfi_startproc
 342              		@ args = 0, pretend = 0, frame = 0
 343              		@ frame_needed = 0, uses_anonymous_args = 0
 344              	.LVL65:
 345 0000 10B5     		push	{r4, lr}
 346              		.cfi_def_cfa_offset 8
 347              		.cfi_offset 4, -8
 348              		.cfi_offset 14, -4
 372:Source\mbedtls_open\library/x509_csr.c ****     memset( csr, 0, sizeof(mbedtls_x509_csr) );
 349              		.loc 1 372 0
 350 0002 7022     		movs	r2, #112
 351 0004 0021     		movs	r1, #0
 352 0006 FFF7FEFF 		bl	memset
 353              	.LVL66:
 373:Source\mbedtls_open\library/x509_csr.c **** }
 354              		.loc 1 373 0
 355              		@ sp needed
 356 000a 10BD     		pop	{r4, pc}
 357              		.cfi_endproc
 358              	.LFE15:
 359              		.size	mbedtls_x509_csr_init, .-mbedtls_x509_csr_init
 360              		.section	.text.mbedtls_x509_csr_free,"ax",%progbits
 361              		.align	2
ARM GAS  C:\Users\Phuong\AppData\Local\Temp\ccnOMRLI.s 			page 14


 362              		.global	mbedtls_x509_csr_free
 363              		.code	16
 364              		.thumb_func
 365              		.type	mbedtls_x509_csr_free, %function
 366              	mbedtls_x509_csr_free:
 367              	.LFB16:
 374:Source\mbedtls_open\library/x509_csr.c **** 
 375:Source\mbedtls_open\library/x509_csr.c **** /*
 376:Source\mbedtls_open\library/x509_csr.c ****  * Unallocate all CSR data
 377:Source\mbedtls_open\library/x509_csr.c ****  */
 378:Source\mbedtls_open\library/x509_csr.c **** void mbedtls_x509_csr_free( mbedtls_x509_csr *csr )
 379:Source\mbedtls_open\library/x509_csr.c **** {
 368              		.loc 1 379 0
 369              		.cfi_startproc
 370              		@ args = 0, pretend = 0, frame = 0
 371              		@ frame_needed = 0, uses_anonymous_args = 0
 372              	.LVL67:
 373 0000 70B5     		push	{r4, r5, r6, lr}
 374              		.cfi_def_cfa_offset 16
 375              		.cfi_offset 4, -16
 376              		.cfi_offset 5, -12
 377              		.cfi_offset 6, -8
 378              		.cfi_offset 14, -4
 379 0002 061E     		subs	r6, r0, #0
 380:Source\mbedtls_open\library/x509_csr.c ****     mbedtls_x509_name *name_cur;
 381:Source\mbedtls_open\library/x509_csr.c ****     mbedtls_x509_name *name_prv;
 382:Source\mbedtls_open\library/x509_csr.c **** 
 383:Source\mbedtls_open\library/x509_csr.c ****     if( csr == NULL )
 380              		.loc 1 383 0
 381 0004 1FD0     		beq	.L25
 384:Source\mbedtls_open\library/x509_csr.c ****         return;
 385:Source\mbedtls_open\library/x509_csr.c **** 
 386:Source\mbedtls_open\library/x509_csr.c ****     mbedtls_pk_free( &csr->pk );
 382              		.loc 1 386 0
 383 0006 4830     		adds	r0, r0, #72
 384              	.LVL68:
 385 0008 FFF7FEFF 		bl	mbedtls_pk_free
 386              	.LVL69:
 387:Source\mbedtls_open\library/x509_csr.c **** 
 388:Source\mbedtls_open\library/x509_csr.c **** #if defined(MBEDTLS_X509_RSASSA_PSS_SUPPORT)
 389:Source\mbedtls_open\library/x509_csr.c ****     mbedtls_free( csr->sig_opts );
 387              		.loc 1 389 0
 388 000c F06E     		ldr	r0, [r6, #108]
 389 000e FFF7FEFF 		bl	free
 390              	.LVL70:
 390:Source\mbedtls_open\library/x509_csr.c **** #endif
 391:Source\mbedtls_open\library/x509_csr.c **** 
 392:Source\mbedtls_open\library/x509_csr.c ****     name_cur = csr->subject.next;
 391              		.loc 1 392 0
 392 0012 346C     		ldr	r4, [r6, #64]
 393              	.LVL71:
 393:Source\mbedtls_open\library/x509_csr.c ****     while( name_cur != NULL )
 394              		.loc 1 393 0
 395 0014 08E0     		b	.L27
 396              	.L28:
 397              	.LVL72:
 394:Source\mbedtls_open\library/x509_csr.c ****     {
ARM GAS  C:\Users\Phuong\AppData\Local\Temp\ccnOMRLI.s 			page 15


 395:Source\mbedtls_open\library/x509_csr.c ****         name_prv = name_cur;
 396:Source\mbedtls_open\library/x509_csr.c ****         name_cur = name_cur->next;
 398              		.loc 1 396 0
 399 0016 A569     		ldr	r5, [r4, #24]
 400              	.LVL73:
 397:Source\mbedtls_open\library/x509_csr.c ****         mbedtls_platform_zeroize( name_prv, sizeof( mbedtls_x509_name ) );
 401              		.loc 1 397 0
 402 0018 2021     		movs	r1, #32
 403 001a 2000     		movs	r0, r4
 404 001c FFF7FEFF 		bl	mbedtls_platform_zeroize
 405              	.LVL74:
 398:Source\mbedtls_open\library/x509_csr.c ****         mbedtls_free( name_prv );
 406              		.loc 1 398 0
 407 0020 2000     		movs	r0, r4
 408 0022 FFF7FEFF 		bl	free
 409              	.LVL75:
 396:Source\mbedtls_open\library/x509_csr.c ****         mbedtls_platform_zeroize( name_prv, sizeof( mbedtls_x509_name ) );
 410              		.loc 1 396 0
 411 0026 2C00     		movs	r4, r5
 412              	.LVL76:
 413              	.L27:
 393:Source\mbedtls_open\library/x509_csr.c ****     {
 414              		.loc 1 393 0
 415 0028 002C     		cmp	r4, #0
 416 002a F4D1     		bne	.L28
 399:Source\mbedtls_open\library/x509_csr.c ****     }
 400:Source\mbedtls_open\library/x509_csr.c **** 
 401:Source\mbedtls_open\library/x509_csr.c ****     if( csr->raw.p != NULL )
 417              		.loc 1 401 0
 418 002c B068     		ldr	r0, [r6, #8]
 419 002e 0028     		cmp	r0, #0
 420 0030 05D0     		beq	.L29
 402:Source\mbedtls_open\library/x509_csr.c ****     {
 403:Source\mbedtls_open\library/x509_csr.c ****         mbedtls_platform_zeroize( csr->raw.p, csr->raw.len );
 421              		.loc 1 403 0
 422 0032 7168     		ldr	r1, [r6, #4]
 423 0034 FFF7FEFF 		bl	mbedtls_platform_zeroize
 424              	.LVL77:
 404:Source\mbedtls_open\library/x509_csr.c ****         mbedtls_free( csr->raw.p );
 425              		.loc 1 404 0
 426 0038 B068     		ldr	r0, [r6, #8]
 427 003a FFF7FEFF 		bl	free
 428              	.LVL78:
 429              	.L29:
 405:Source\mbedtls_open\library/x509_csr.c ****     }
 406:Source\mbedtls_open\library/x509_csr.c **** 
 407:Source\mbedtls_open\library/x509_csr.c ****     mbedtls_platform_zeroize( csr, sizeof( mbedtls_x509_csr ) );
 430              		.loc 1 407 0
 431 003e 7021     		movs	r1, #112
 432 0040 3000     		movs	r0, r6
 433 0042 FFF7FEFF 		bl	mbedtls_platform_zeroize
 434              	.LVL79:
 435              	.L25:
 408:Source\mbedtls_open\library/x509_csr.c **** }
 436              		.loc 1 408 0
 437              		@ sp needed
 438              	.LVL80:
ARM GAS  C:\Users\Phuong\AppData\Local\Temp\ccnOMRLI.s 			page 16


 439 0046 70BD     		pop	{r4, r5, r6, pc}
 440              		.cfi_endproc
 441              	.LFE16:
 442              		.size	mbedtls_x509_csr_free, .-mbedtls_x509_csr_free
 443              		.section	.text.mbedtls_x509_csr_parse_der,"ax",%progbits
 444              		.align	2
 445              		.global	mbedtls_x509_csr_parse_der
 446              		.code	16
 447              		.thumb_func
 448              		.type	mbedtls_x509_csr_parse_der, %function
 449              	mbedtls_x509_csr_parse_der:
 450              	.LFB12:
  92:Source\mbedtls_open\library/x509_csr.c ****     int ret;
 451              		.loc 1 92 0
 452              		.cfi_startproc
 453              		@ args = 0, pretend = 0, frame = 32
 454              		@ frame_needed = 0, uses_anonymous_args = 0
 455              	.LVL81:
 456 0000 F0B5     		push	{r4, r5, r6, r7, lr}
 457              		.cfi_def_cfa_offset 20
 458              		.cfi_offset 4, -20
 459              		.cfi_offset 5, -16
 460              		.cfi_offset 6, -12
 461              		.cfi_offset 7, -8
 462              		.cfi_offset 14, -4
 463 0002 8BB0     		sub	sp, sp, #44
 464              		.cfi_def_cfa_offset 64
 465 0004 0400     		movs	r4, r0
 466 0006 0E00     		movs	r6, r1
 467 0008 1500     		movs	r5, r2
  98:Source\mbedtls_open\library/x509_csr.c **** 
 468              		.loc 1 98 0
 469 000a 0C22     		movs	r2, #12
 470              	.LVL82:
 471 000c 0021     		movs	r1, #0
 472              	.LVL83:
 473 000e 05A8     		add	r0, sp, #20
 474              	.LVL84:
 475 0010 FFF7FEFF 		bl	memset
 476              	.LVL85:
 103:Source\mbedtls_open\library/x509_csr.c ****         return( MBEDTLS_ERR_X509_BAD_INPUT_DATA );
 477              		.loc 1 103 0
 478 0014 002C     		cmp	r4, #0
 479 0016 00D1     		bne	.LCB488
 480 0018 DFE0     		b	.L44	@long jump
 481              	.LCB488:
 103:Source\mbedtls_open\library/x509_csr.c ****         return( MBEDTLS_ERR_X509_BAD_INPUT_DATA );
 482              		.loc 1 103 0 is_stmt 0 discriminator 1
 483 001a 002E     		cmp	r6, #0
 484 001c 00D1     		bne	.LCB490
 485 001e DEE0     		b	.L45	@long jump
 486              	.LCB490:
 103:Source\mbedtls_open\library/x509_csr.c ****         return( MBEDTLS_ERR_X509_BAD_INPUT_DATA );
 487              		.loc 1 103 0 discriminator 2
 488 0020 002D     		cmp	r5, #0
 489 0022 00D1     		bne	.LCB492
 490 0024 DDE0     		b	.L46	@long jump
ARM GAS  C:\Users\Phuong\AppData\Local\Temp\ccnOMRLI.s 			page 17


 491              	.LCB492:
 106:Source\mbedtls_open\library/x509_csr.c **** 
 492              		.loc 1 106 0 is_stmt 1
 493 0026 2000     		movs	r0, r4
 494 0028 FFF7FEFF 		bl	mbedtls_x509_csr_init
 495              	.LVL86:
 111:Source\mbedtls_open\library/x509_csr.c **** 
 496              		.loc 1 111 0
 497 002c 0995     		str	r5, [sp, #36]
 498 002e 2900     		movs	r1, r5
 499 0030 0120     		movs	r0, #1
 500 0032 FFF7FEFF 		bl	calloc
 501              	.LVL87:
 502 0036 0890     		str	r0, [sp, #32]
 113:Source\mbedtls_open\library/x509_csr.c ****         return( MBEDTLS_ERR_X509_ALLOC_FAILED );
 503              		.loc 1 113 0
 504 0038 0028     		cmp	r0, #0
 505 003a 00D1     		bne	.LCB503
 506 003c D3E0     		b	.L47	@long jump
 507              	.LCB503:
 116:Source\mbedtls_open\library/x509_csr.c **** 
 508              		.loc 1 116 0
 509 003e 2A00     		movs	r2, r5
 510 0040 3100     		movs	r1, r6
 511 0042 FFF7FEFF 		bl	memcpy
 512              	.LVL88:
 118:Source\mbedtls_open\library/x509_csr.c ****     csr->raw.len = len;
 513              		.loc 1 118 0
 514 0046 089D     		ldr	r5, [sp, #32]
 515              	.LVL89:
 516 0048 A560     		str	r5, [r4, #8]
 119:Source\mbedtls_open\library/x509_csr.c ****     end = p + len;
 517              		.loc 1 119 0
 518 004a 099B     		ldr	r3, [sp, #36]
 519 004c 6360     		str	r3, [r4, #4]
 120:Source\mbedtls_open\library/x509_csr.c **** 
 520              		.loc 1 120 0
 521 004e ED18     		adds	r5, r5, r3
 522              	.LVL90:
 129:Source\mbedtls_open\library/x509_csr.c ****             MBEDTLS_ASN1_CONSTRUCTED | MBEDTLS_ASN1_SEQUENCE ) ) != 0 )
 523              		.loc 1 129 0
 524 0050 3023     		movs	r3, #48
 525 0052 09AA     		add	r2, sp, #36
 526 0054 2900     		movs	r1, r5
 527 0056 08A8     		add	r0, sp, #32
 528 0058 FFF7FEFF 		bl	mbedtls_asn1_get_tag
 529              	.LVL91:
 530 005c 0028     		cmp	r0, #0
 531 005e 04D0     		beq	.L32
 132:Source\mbedtls_open\library/x509_csr.c ****         return( MBEDTLS_ERR_X509_INVALID_FORMAT );
 532              		.loc 1 132 0
 533 0060 2000     		movs	r0, r4
 534              	.LVL92:
 535 0062 FFF7FEFF 		bl	mbedtls_x509_csr_free
 536              	.LVL93:
 133:Source\mbedtls_open\library/x509_csr.c ****     }
 537              		.loc 1 133 0
ARM GAS  C:\Users\Phuong\AppData\Local\Temp\ccnOMRLI.s 			page 18


 538 0066 624D     		ldr	r5, .L48
 539              	.LVL94:
 540 0068 BEE0     		b	.L31
 541              	.LVL95:
 542              	.L32:
 136:Source\mbedtls_open\library/x509_csr.c ****     {
 543              		.loc 1 136 0
 544 006a 089B     		ldr	r3, [sp, #32]
 545 006c EA1A     		subs	r2, r5, r3
 546 006e 0999     		ldr	r1, [sp, #36]
 547 0070 8A42     		cmp	r2, r1
 548 0072 04D0     		beq	.L33
 138:Source\mbedtls_open\library/x509_csr.c ****         return( MBEDTLS_ERR_X509_INVALID_FORMAT +
 549              		.loc 1 138 0
 550 0074 2000     		movs	r0, r4
 551              	.LVL96:
 552 0076 FFF7FEFF 		bl	mbedtls_x509_csr_free
 553              	.LVL97:
 139:Source\mbedtls_open\library/x509_csr.c ****                 MBEDTLS_ERR_ASN1_LENGTH_MISMATCH );
 554              		.loc 1 139 0
 555 007a 5E4D     		ldr	r5, .L48+4
 556              	.LVL98:
 557 007c B4E0     		b	.L31
 558              	.LVL99:
 559              	.L33:
 146:Source\mbedtls_open\library/x509_csr.c **** 
 560              		.loc 1 146 0
 561 007e 6361     		str	r3, [r4, #20]
 148:Source\mbedtls_open\library/x509_csr.c ****             MBEDTLS_ASN1_CONSTRUCTED | MBEDTLS_ASN1_SEQUENCE ) ) != 0 )
 562              		.loc 1 148 0
 563 0080 3023     		movs	r3, #48
 564 0082 09AA     		add	r2, sp, #36
 565 0084 2900     		movs	r1, r5
 566 0086 08A8     		add	r0, sp, #32
 567              	.LVL100:
 568 0088 FFF7FEFF 		bl	mbedtls_asn1_get_tag
 569              	.LVL101:
 570 008c 051E     		subs	r5, r0, #0
 571              	.LVL102:
 572 008e 06D0     		beq	.L34
 151:Source\mbedtls_open\library/x509_csr.c ****         return( MBEDTLS_ERR_X509_INVALID_FORMAT + ret );
 573              		.loc 1 151 0
 574 0090 2000     		movs	r0, r4
 575              	.LVL103:
 576 0092 FFF7FEFF 		bl	mbedtls_x509_csr_free
 577              	.LVL104:
 152:Source\mbedtls_open\library/x509_csr.c ****     }
 578              		.loc 1 152 0
 579 0096 564B     		ldr	r3, .L48
 580 0098 9C46     		mov	ip, r3
 581 009a 6544     		add	r5, r5, ip
 582              	.LVL105:
 583 009c A4E0     		b	.L31
 584              	.LVL106:
 585              	.L34:
 155:Source\mbedtls_open\library/x509_csr.c ****     csr->cri.len = end - csr->cri.p;
 586              		.loc 1 155 0
ARM GAS  C:\Users\Phuong\AppData\Local\Temp\ccnOMRLI.s 			page 19


 587 009e 089B     		ldr	r3, [sp, #32]
 588 00a0 099A     		ldr	r2, [sp, #36]
 589 00a2 9446     		mov	ip, r2
 590 00a4 6344     		add	r3, r3, ip
 591 00a6 1E00     		movs	r6, r3
 592              	.LVL107:
 156:Source\mbedtls_open\library/x509_csr.c **** 
 593              		.loc 1 156 0
 594 00a8 6369     		ldr	r3, [r4, #20]
 595              	.LVL108:
 596 00aa F31A     		subs	r3, r6, r3
 597 00ac 2361     		str	r3, [r4, #16]
 161:Source\mbedtls_open\library/x509_csr.c ****     {
 598              		.loc 1 161 0
 599 00ae 2200     		movs	r2, r4
 600 00b0 1832     		adds	r2, r2, #24
 601 00b2 3100     		movs	r1, r6
 602 00b4 08A8     		add	r0, sp, #32
 603              	.LVL109:
 604 00b6 FFF7FEFF 		bl	x509_csr_get_version
 605              	.LVL110:
 606 00ba 051E     		subs	r5, r0, #0
 607              	.LVL111:
 608 00bc 03D0     		beq	.L35
 163:Source\mbedtls_open\library/x509_csr.c ****         return( ret );
 609              		.loc 1 163 0
 610 00be 2000     		movs	r0, r4
 611              	.LVL112:
 612 00c0 FFF7FEFF 		bl	mbedtls_x509_csr_free
 613              	.LVL113:
 164:Source\mbedtls_open\library/x509_csr.c ****     }
 614              		.loc 1 164 0
 615 00c4 90E0     		b	.L31
 616              	.LVL114:
 617              	.L35:
 167:Source\mbedtls_open\library/x509_csr.c ****     {
 618              		.loc 1 167 0
 619 00c6 A569     		ldr	r5, [r4, #24]
 620 00c8 002D     		cmp	r5, #0
 621 00ca 04D0     		beq	.L36
 169:Source\mbedtls_open\library/x509_csr.c ****         return( MBEDTLS_ERR_X509_UNKNOWN_VERSION );
 622              		.loc 1 169 0
 623 00cc 2000     		movs	r0, r4
 624              	.LVL115:
 625 00ce FFF7FEFF 		bl	mbedtls_x509_csr_free
 626              	.LVL116:
 170:Source\mbedtls_open\library/x509_csr.c ****     }
 627              		.loc 1 170 0
 628 00d2 494D     		ldr	r5, .L48+8
 629 00d4 88E0     		b	.L31
 630              	.LVL117:
 631              	.L36:
 173:Source\mbedtls_open\library/x509_csr.c **** 
 632              		.loc 1 173 0
 633 00d6 6B1C     		adds	r3, r5, #1
 634 00d8 A361     		str	r3, [r4, #24]
 178:Source\mbedtls_open\library/x509_csr.c **** 
ARM GAS  C:\Users\Phuong\AppData\Local\Temp\ccnOMRLI.s 			page 20


 635              		.loc 1 178 0
 636 00da 089B     		ldr	r3, [sp, #32]
 637 00dc 6362     		str	r3, [r4, #36]
 180:Source\mbedtls_open\library/x509_csr.c ****             MBEDTLS_ASN1_CONSTRUCTED | MBEDTLS_ASN1_SEQUENCE ) ) != 0 )
 638              		.loc 1 180 0
 639 00de 3023     		movs	r3, #48
 640 00e0 09AA     		add	r2, sp, #36
 641 00e2 3100     		movs	r1, r6
 642 00e4 08A8     		add	r0, sp, #32
 643              	.LVL118:
 644 00e6 FFF7FEFF 		bl	mbedtls_asn1_get_tag
 645              	.LVL119:
 646 00ea 071E     		subs	r7, r0, #0
 647              	.LVL120:
 648 00ec 05D0     		beq	.L37
 183:Source\mbedtls_open\library/x509_csr.c ****         return( MBEDTLS_ERR_X509_INVALID_FORMAT + ret );
 649              		.loc 1 183 0
 650 00ee 2000     		movs	r0, r4
 651              	.LVL121:
 652 00f0 FFF7FEFF 		bl	mbedtls_x509_csr_free
 653              	.LVL122:
 184:Source\mbedtls_open\library/x509_csr.c ****     }
 654              		.loc 1 184 0
 655 00f4 3E4B     		ldr	r3, .L48
 656 00f6 FD18     		adds	r5, r7, r3
 657 00f8 76E0     		b	.L31
 658              	.LVL123:
 659              	.L37:
 187:Source\mbedtls_open\library/x509_csr.c ****     {
 660              		.loc 1 187 0
 661 00fa 089B     		ldr	r3, [sp, #32]
 662 00fc 099A     		ldr	r2, [sp, #36]
 663 00fe 9446     		mov	ip, r2
 664 0100 6344     		add	r3, r3, ip
 665 0102 1900     		movs	r1, r3
 666 0104 2200     		movs	r2, r4
 667 0106 2832     		adds	r2, r2, #40
 668 0108 08A8     		add	r0, sp, #32
 669              	.LVL124:
 670 010a FFF7FEFF 		bl	mbedtls_x509_get_name
 671              	.LVL125:
 672 010e 071E     		subs	r7, r0, #0
 673              	.LVL126:
 674 0110 04D0     		beq	.L38
 189:Source\mbedtls_open\library/x509_csr.c ****         return( ret );
 675              		.loc 1 189 0
 676 0112 2000     		movs	r0, r4
 677              	.LVL127:
 678 0114 FFF7FEFF 		bl	mbedtls_x509_csr_free
 679              	.LVL128:
 190:Source\mbedtls_open\library/x509_csr.c ****     }
 680              		.loc 1 190 0
 681 0118 3D00     		movs	r5, r7
 682 011a 65E0     		b	.L31
 683              	.LVL129:
 684              	.L38:
 193:Source\mbedtls_open\library/x509_csr.c **** 
ARM GAS  C:\Users\Phuong\AppData\Local\Temp\ccnOMRLI.s 			page 21


 685              		.loc 1 193 0
 686 011c 089B     		ldr	r3, [sp, #32]
 687 011e 626A     		ldr	r2, [r4, #36]
 688 0120 9B1A     		subs	r3, r3, r2
 689 0122 2362     		str	r3, [r4, #32]
 198:Source\mbedtls_open\library/x509_csr.c ****     {
 690              		.loc 1 198 0
 691 0124 2200     		movs	r2, r4
 692 0126 4832     		adds	r2, r2, #72
 693 0128 3100     		movs	r1, r6
 694 012a 08A8     		add	r0, sp, #32
 695              	.LVL130:
 696 012c FFF7FEFF 		bl	mbedtls_pk_parse_subpubkey
 697              	.LVL131:
 698 0130 071E     		subs	r7, r0, #0
 699              	.LVL132:
 700 0132 04D0     		beq	.L39
 200:Source\mbedtls_open\library/x509_csr.c ****         return( ret );
 701              		.loc 1 200 0
 702 0134 2000     		movs	r0, r4
 703              	.LVL133:
 704 0136 FFF7FEFF 		bl	mbedtls_x509_csr_free
 705              	.LVL134:
 201:Source\mbedtls_open\library/x509_csr.c ****     }
 706              		.loc 1 201 0
 707 013a 3D00     		movs	r5, r7
 708 013c 54E0     		b	.L31
 709              	.LVL135:
 710              	.L39:
 214:Source\mbedtls_open\library/x509_csr.c ****             MBEDTLS_ASN1_CONSTRUCTED | MBEDTLS_ASN1_CONTEXT_SPECIFIC ) ) != 0 )
 711              		.loc 1 214 0
 712 013e A023     		movs	r3, #160
 713 0140 09AA     		add	r2, sp, #36
 714 0142 3100     		movs	r1, r6
 715 0144 08A8     		add	r0, sp, #32
 716              	.LVL136:
 717 0146 FFF7FEFF 		bl	mbedtls_asn1_get_tag
 718              	.LVL137:
 719 014a 061E     		subs	r6, r0, #0
 720              	.LVL138:
 721 014c 05D0     		beq	.L40
 217:Source\mbedtls_open\library/x509_csr.c ****         return( MBEDTLS_ERR_X509_INVALID_FORMAT + ret );
 722              		.loc 1 217 0
 723 014e 2000     		movs	r0, r4
 724              	.LVL139:
 725 0150 FFF7FEFF 		bl	mbedtls_x509_csr_free
 726              	.LVL140:
 218:Source\mbedtls_open\library/x509_csr.c ****     }
 727              		.loc 1 218 0
 728 0154 264B     		ldr	r3, .L48
 729 0156 F518     		adds	r5, r6, r3
 730 0158 46E0     		b	.L31
 731              	.LVL141:
 732              	.L40:
 221:Source\mbedtls_open\library/x509_csr.c **** 
 733              		.loc 1 221 0
 734 015a 089B     		ldr	r3, [sp, #32]
ARM GAS  C:\Users\Phuong\AppData\Local\Temp\ccnOMRLI.s 			page 22


 735 015c 099A     		ldr	r2, [sp, #36]
 736 015e 9446     		mov	ip, r2
 737 0160 6344     		add	r3, r3, ip
 738 0162 0893     		str	r3, [sp, #32]
 223:Source\mbedtls_open\library/x509_csr.c **** 
 739              		.loc 1 223 0
 740 0164 A368     		ldr	r3, [r4, #8]
 741 0166 6268     		ldr	r2, [r4, #4]
 742 0168 9446     		mov	ip, r2
 743 016a 6344     		add	r3, r3, ip
 744 016c 1F00     		movs	r7, r3
 745              	.LVL142:
 229:Source\mbedtls_open\library/x509_csr.c ****     {
 746              		.loc 1 229 0
 747 016e 2600     		movs	r6, r4
 748 0170 5036     		adds	r6, r6, #80
 749 0172 05AB     		add	r3, sp, #20
 750              	.LVL143:
 751 0174 3200     		movs	r2, r6
 752 0176 3900     		movs	r1, r7
 753 0178 08A8     		add	r0, sp, #32
 754              	.LVL144:
 755 017a FFF7FEFF 		bl	mbedtls_x509_get_alg
 756              	.LVL145:
 757 017e 0390     		str	r0, [sp, #12]
 758              	.LVL146:
 759 0180 0028     		cmp	r0, #0
 760 0182 04D0     		beq	.L41
 231:Source\mbedtls_open\library/x509_csr.c ****         return( ret );
 761              		.loc 1 231 0
 762 0184 2000     		movs	r0, r4
 763              	.LVL147:
 764 0186 FFF7FEFF 		bl	mbedtls_x509_csr_free
 765              	.LVL148:
 232:Source\mbedtls_open\library/x509_csr.c ****     }
 766              		.loc 1 232 0
 767 018a 039D     		ldr	r5, [sp, #12]
 768 018c 2CE0     		b	.L31
 769              	.LVL149:
 770              	.L41:
 235:Source\mbedtls_open\library/x509_csr.c ****                                   &csr->sig_md, &csr->sig_pk,
 771              		.loc 1 235 0
 772 018e 2200     		movs	r2, r4
 773 0190 6832     		adds	r2, r2, #104
 774 0192 2300     		movs	r3, r4
 775 0194 6C33     		adds	r3, r3, #108
 776 0196 0093     		str	r3, [sp]
 777 0198 033B     		subs	r3, r3, #3
 778 019a 05A9     		add	r1, sp, #20
 779 019c 3000     		movs	r0, r6
 780              	.LVL150:
 781 019e FFF7FEFF 		bl	mbedtls_x509_get_sig_alg
 782              	.LVL151:
 783 01a2 0028     		cmp	r0, #0
 784 01a4 04D0     		beq	.L42
 239:Source\mbedtls_open\library/x509_csr.c ****         return( MBEDTLS_ERR_X509_UNKNOWN_SIG_ALG );
 785              		.loc 1 239 0
ARM GAS  C:\Users\Phuong\AppData\Local\Temp\ccnOMRLI.s 			page 23


 786 01a6 2000     		movs	r0, r4
 787              	.LVL152:
 788 01a8 FFF7FEFF 		bl	mbedtls_x509_csr_free
 789              	.LVL153:
 240:Source\mbedtls_open\library/x509_csr.c ****     }
 790              		.loc 1 240 0
 791 01ac 134D     		ldr	r5, .L48+12
 792 01ae 1BE0     		b	.L31
 793              	.LVL154:
 794              	.L42:
 243:Source\mbedtls_open\library/x509_csr.c ****     {
 795              		.loc 1 243 0
 796 01b0 2200     		movs	r2, r4
 797 01b2 5C32     		adds	r2, r2, #92
 798 01b4 3900     		movs	r1, r7
 799 01b6 08A8     		add	r0, sp, #32
 800              	.LVL155:
 801 01b8 FFF7FEFF 		bl	mbedtls_x509_get_sig
 802              	.LVL156:
 803 01bc 061E     		subs	r6, r0, #0
 804              	.LVL157:
 805 01be 04D0     		beq	.L43
 245:Source\mbedtls_open\library/x509_csr.c ****         return( ret );
 806              		.loc 1 245 0
 807 01c0 2000     		movs	r0, r4
 808              	.LVL158:
 809 01c2 FFF7FEFF 		bl	mbedtls_x509_csr_free
 810              	.LVL159:
 246:Source\mbedtls_open\library/x509_csr.c ****     }
 811              		.loc 1 246 0
 812 01c6 3500     		movs	r5, r6
 813 01c8 0EE0     		b	.L31
 814              	.LVL160:
 815              	.L43:
 249:Source\mbedtls_open\library/x509_csr.c ****     {
 816              		.loc 1 249 0
 817 01ca 089B     		ldr	r3, [sp, #32]
 818 01cc 9F42     		cmp	r7, r3
 819 01ce 0BD0     		beq	.L31
 251:Source\mbedtls_open\library/x509_csr.c ****         return( MBEDTLS_ERR_X509_INVALID_FORMAT +
 820              		.loc 1 251 0
 821 01d0 2000     		movs	r0, r4
 822              	.LVL161:
 823 01d2 FFF7FEFF 		bl	mbedtls_x509_csr_free
 824              	.LVL162:
 252:Source\mbedtls_open\library/x509_csr.c ****                 MBEDTLS_ERR_ASN1_LENGTH_MISMATCH );
 825              		.loc 1 252 0
 826 01d6 074D     		ldr	r5, .L48+4
 827 01d8 06E0     		b	.L31
 828              	.LVL163:
 829              	.L44:
 104:Source\mbedtls_open\library/x509_csr.c **** 
 830              		.loc 1 104 0
 831 01da 094D     		ldr	r5, .L48+16
 832              	.LVL164:
 833 01dc 04E0     		b	.L31
 834              	.LVL165:
ARM GAS  C:\Users\Phuong\AppData\Local\Temp\ccnOMRLI.s 			page 24


 835              	.L45:
 836 01de 084D     		ldr	r5, .L48+16
 837              	.LVL166:
 838 01e0 02E0     		b	.L31
 839              	.LVL167:
 840              	.L46:
 841 01e2 074D     		ldr	r5, .L48+16
 842              	.LVL168:
 843 01e4 00E0     		b	.L31
 844              	.LVL169:
 845              	.L47:
 114:Source\mbedtls_open\library/x509_csr.c **** 
 846              		.loc 1 114 0
 847 01e6 074D     		ldr	r5, .L48+20
 848              	.LVL170:
 849              	.L31:
 257:Source\mbedtls_open\library/x509_csr.c **** 
 850              		.loc 1 257 0
 851 01e8 2800     		movs	r0, r5
 852 01ea 0BB0     		add	sp, sp, #44
 853              		@ sp needed
 854              	.LVL171:
 855 01ec F0BD     		pop	{r4, r5, r6, r7, pc}
 856              	.L49:
 857 01ee C046     		.align	2
 858              	.L48:
 859 01f0 80DEFFFF 		.word	-8576
 860 01f4 1ADEFFFF 		.word	-8678
 861 01f8 80DAFFFF 		.word	-9600
 862 01fc 00DAFFFF 		.word	-9728
 863 0200 00D8FFFF 		.word	-10240
 864 0204 80D7FFFF 		.word	-10368
 865              		.cfi_endproc
 866              	.LFE12:
 867              		.size	mbedtls_x509_csr_parse_der, .-mbedtls_x509_csr_parse_der
 868              		.section	.text.mbedtls_x509_csr_parse,"ax",%progbits
 869              		.align	2
 870              		.global	mbedtls_x509_csr_parse
 871              		.code	16
 872              		.thumb_func
 873              		.type	mbedtls_x509_csr_parse, %function
 874              	mbedtls_x509_csr_parse:
 875              	.LFB13:
 263:Source\mbedtls_open\library/x509_csr.c **** #if defined(MBEDTLS_PEM_PARSE_C)
 876              		.loc 1 263 0
 877              		.cfi_startproc
 878              		@ args = 0, pretend = 0, frame = 16
 879              		@ frame_needed = 0, uses_anonymous_args = 0
 880              	.LVL172:
 881 0000 F0B5     		push	{r4, r5, r6, r7, lr}
 882              		.cfi_def_cfa_offset 20
 883              		.cfi_offset 4, -20
 884              		.cfi_offset 5, -16
 885              		.cfi_offset 6, -12
 886              		.cfi_offset 7, -8
 887              		.cfi_offset 14, -4
 888 0002 89B0     		sub	sp, sp, #36
ARM GAS  C:\Users\Phuong\AppData\Local\Temp\ccnOMRLI.s 			page 25


 889              		.cfi_def_cfa_offset 56
 890 0004 0600     		movs	r6, r0
 891 0006 0C00     		movs	r4, r1
 892 0008 1700     		movs	r7, r2
 273:Source\mbedtls_open\library/x509_csr.c ****         return( MBEDTLS_ERR_X509_BAD_INPUT_DATA );
 893              		.loc 1 273 0
 894 000a 0028     		cmp	r0, #0
 895 000c 2AD0     		beq	.L54
 273:Source\mbedtls_open\library/x509_csr.c ****         return( MBEDTLS_ERR_X509_BAD_INPUT_DATA );
 896              		.loc 1 273 0 is_stmt 0 discriminator 1
 897 000e 0029     		cmp	r1, #0
 898 0010 2AD0     		beq	.L55
 273:Source\mbedtls_open\library/x509_csr.c ****         return( MBEDTLS_ERR_X509_BAD_INPUT_DATA );
 899              		.loc 1 273 0 discriminator 2
 900 0012 002A     		cmp	r2, #0
 901 0014 2AD0     		beq	.L56
 278:Source\mbedtls_open\library/x509_csr.c ****     {
 902              		.loc 1 278 0 is_stmt 1
 903 0016 8B18     		adds	r3, r1, r2
 904 0018 013B     		subs	r3, r3, #1
 905 001a 1B78     		ldrb	r3, [r3]
 906 001c 002B     		cmp	r3, #0
 907 001e 1BD1     		bne	.L52
 280:Source\mbedtls_open\library/x509_csr.c ****         ret = mbedtls_pem_read_buffer( &pem,
 908              		.loc 1 280 0
 909 0020 04A8     		add	r0, sp, #16
 910              	.LVL173:
 911 0022 FFF7FEFF 		bl	mbedtls_pem_init
 912              	.LVL174:
 281:Source\mbedtls_open\library/x509_csr.c ****                                "-----BEGIN CERTIFICATE REQUEST-----",
 913              		.loc 1 281 0
 914 0026 07AB     		add	r3, sp, #28
 915 0028 0293     		str	r3, [sp, #8]
 916 002a 0023     		movs	r3, #0
 917 002c 0193     		str	r3, [sp, #4]
 918 002e 0093     		str	r3, [sp]
 919 0030 2300     		movs	r3, r4
 920 0032 114A     		ldr	r2, .L58
 921 0034 1149     		ldr	r1, .L58+4
 922 0036 04A8     		add	r0, sp, #16
 923 0038 FFF7FEFF 		bl	mbedtls_pem_read_buffer
 924              	.LVL175:
 925 003c 051E     		subs	r5, r0, #0
 926              	.LVL176:
 286:Source\mbedtls_open\library/x509_csr.c ****             /*
 927              		.loc 1 286 0
 928 003e 05D1     		bne	.L53
 290:Source\mbedtls_open\library/x509_csr.c **** 
 929              		.loc 1 290 0
 930 0040 059A     		ldr	r2, [sp, #20]
 931 0042 0499     		ldr	r1, [sp, #16]
 932 0044 3000     		movs	r0, r6
 933              	.LVL177:
 934 0046 FFF7FEFF 		bl	mbedtls_x509_csr_parse_der
 935              	.LVL178:
 936 004a 0500     		movs	r5, r0
 937              	.LVL179:
ARM GAS  C:\Users\Phuong\AppData\Local\Temp\ccnOMRLI.s 			page 26


 938              	.L53:
 292:Source\mbedtls_open\library/x509_csr.c ****         if( ret != MBEDTLS_ERR_PEM_NO_HEADER_FOOTER_PRESENT )
 939              		.loc 1 292 0
 940 004c 04A8     		add	r0, sp, #16
 941              	.LVL180:
 942 004e FFF7FEFF 		bl	mbedtls_pem_free
 943              	.LVL181:
 293:Source\mbedtls_open\library/x509_csr.c ****             return( ret );
 944              		.loc 1 293 0
 945 0052 0B4B     		ldr	r3, .L58+8
 946 0054 9D42     		cmp	r5, r3
 947 0056 0BD1     		bne	.L57
 948              	.LVL182:
 949              	.L52:
 297:Source\mbedtls_open\library/x509_csr.c **** }
 950              		.loc 1 297 0
 951 0058 3A00     		movs	r2, r7
 952 005a 2100     		movs	r1, r4
 953 005c 3000     		movs	r0, r6
 954 005e FFF7FEFF 		bl	mbedtls_x509_csr_parse_der
 955              	.LVL183:
 956 0062 06E0     		b	.L51
 957              	.LVL184:
 958              	.L54:
 274:Source\mbedtls_open\library/x509_csr.c **** 
 959              		.loc 1 274 0
 960 0064 0748     		ldr	r0, .L58+12
 961              	.LVL185:
 962 0066 04E0     		b	.L51
 963              	.LVL186:
 964              	.L55:
 965 0068 0648     		ldr	r0, .L58+12
 966              	.LVL187:
 967 006a 02E0     		b	.L51
 968              	.LVL188:
 969              	.L56:
 970 006c 0548     		ldr	r0, .L58+12
 971              	.LVL189:
 972 006e 00E0     		b	.L51
 973              	.LVL190:
 974              	.L57:
 294:Source\mbedtls_open\library/x509_csr.c ****     }
 975              		.loc 1 294 0
 976 0070 2800     		movs	r0, r5
 977              	.LVL191:
 978              	.L51:
 298:Source\mbedtls_open\library/x509_csr.c **** 
 979              		.loc 1 298 0
 980 0072 09B0     		add	sp, sp, #36
 981              		@ sp needed
 982              	.LVL192:
 983              	.LVL193:
 984              	.LVL194:
 985 0074 F0BD     		pop	{r4, r5, r6, r7, pc}
 986              	.L59:
 987 0076 C046     		.align	2
 988              	.L58:
ARM GAS  C:\Users\Phuong\AppData\Local\Temp\ccnOMRLI.s 			page 27


 989 0078 54000000 		.word	.LC8
 990 007c 78000000 		.word	.LC10
 991 0080 80EFFFFF 		.word	-4224
 992 0084 00D8FFFF 		.word	-10240
 993              		.cfi_endproc
 994              	.LFE13:
 995              		.size	mbedtls_x509_csr_parse, .-mbedtls_x509_csr_parse
 996              		.section	.rodata.str1.4,"aMS",%progbits,1
 997              		.align	2
 998              	.LC0:
 999 0000 25734353 		.ascii	"%sCSR version   : %d\000"
 999      52207665 
 999      7273696F 
 999      6E202020 
 999      3A202564 
 1000 0015 000000   		.space	3
 1001              	.LC2:
 1002 0018 0A257373 		.ascii	"\012%ssubject name  : \000"
 1002      75626A65 
 1002      6374206E 
 1002      616D6520 
 1002      203A2000 
 1003              	.LC4:
 1004 002c 0A257373 		.ascii	"\012%ssigned using  : \000"
 1004      69676E65 
 1004      64207573 
 1004      696E6720 
 1004      203A2000 
 1005              	.LC6:
 1006 0040 0A257325 		.ascii	"\012%s%-14s: %d bits\012\000"
 1006      2D313473 
 1006      3A202564 
 1006      20626974 
 1006      730A00
 1007 0053 00       		.space	1
 1008              	.LC8:
 1009 0054 2D2D2D2D 		.ascii	"-----END CERTIFICATE REQUEST-----\000"
 1009      2D454E44 
 1009      20434552 
 1009      54494649 
 1009      43415445 
 1010 0076 0000     		.space	2
 1011              	.LC10:
 1012 0078 2D2D2D2D 		.ascii	"-----BEGIN CERTIFICATE REQUEST-----\000"
 1012      2D424547 
 1012      494E2043 
 1012      45525449 
 1012      46494341 
 1013              		.text
 1014              	.Letext0:
 1015              		.file 2 ".\\Source\\mbedtls_open\\include/mbedtls/asn1.h"
 1016              		.file 3 "c:\\program files (x86)\\cypress\\psoc creator\\4.2\\psoc creator\\import\\gnu\\arm\\5.4.
 1017              		.file 4 ".\\Source\\mbedtls_open\\include/mbedtls/md.h"
 1018              		.file 5 ".\\Source\\mbedtls_open\\include/mbedtls/pk.h"
 1019              		.file 6 ".\\Source\\mbedtls_open\\include/mbedtls/x509.h"
 1020              		.file 7 ".\\Source\\mbedtls_open\\include/mbedtls/x509_csr.h"
 1021              		.file 8 ".\\Source\\mbedtls_open\\include/mbedtls/pem.h"
ARM GAS  C:\Users\Phuong\AppData\Local\Temp\ccnOMRLI.s 			page 28


 1022              		.file 9 "c:\\program files (x86)\\cypress\\psoc creator\\4.2\\psoc creator\\import\\gnu\\arm\\5.4.
 1023              		.file 10 "c:\\program files (x86)\\cypress\\psoc creator\\4.2\\psoc creator\\import\\gnu\\arm\\5.4
 1024              		.file 11 ".\\Source\\mbedtls_open\\include/mbedtls/platform_util.h"