ARM GAS  C:\Users\Phuong\AppData\Local\Temp\ccKtHcUM.s 			page 1


   1              		.syntax unified
   2              		.cpu cortex-m0plus
   3              		.fpu softvfp
   4              		.eabi_attribute 20, 1
   5              		.eabi_attribute 21, 1
   6              		.eabi_attribute 23, 3
   7              		.eabi_attribute 24, 1
   8              		.eabi_attribute 25, 1
   9              		.eabi_attribute 26, 1
  10              		.eabi_attribute 30, 1
  11              		.eabi_attribute 34, 0
  12              		.eabi_attribute 18, 4
  13              		.thumb
  14              		.syntax unified
  15              		.file	"x509_create.c"
  16              		.text
  17              	.Ltext0:
  18              		.cfi_sections	.debug_frame
  19              		.section	.text.x509_at_oid_from_name,"ax",%progbits
  20              		.align	2
  21              		.code	16
  22              		.thumb_func
  23              		.type	x509_at_oid_from_name, %function
  24              	x509_at_oid_from_name:
  25              	.LFB10:
  26              		.file 1 "Source\\mbedtls_open\\library\\x509_create.c"
   1:Source\mbedtls_open\library/x509_create.c **** /*
   2:Source\mbedtls_open\library/x509_create.c ****  *  X.509 base functions for creating certificates / CSRs
   3:Source\mbedtls_open\library/x509_create.c ****  *
   4:Source\mbedtls_open\library/x509_create.c ****  *  Copyright (C) 2006-2015, ARM Limited, All Rights Reserved
   5:Source\mbedtls_open\library/x509_create.c ****  *  SPDX-License-Identifier: Apache-2.0
   6:Source\mbedtls_open\library/x509_create.c ****  *
   7:Source\mbedtls_open\library/x509_create.c ****  *  Licensed under the Apache License, Version 2.0 (the "License"); you may
   8:Source\mbedtls_open\library/x509_create.c ****  *  not use this file except in compliance with the License.
   9:Source\mbedtls_open\library/x509_create.c ****  *  You may obtain a copy of the License at
  10:Source\mbedtls_open\library/x509_create.c ****  *
  11:Source\mbedtls_open\library/x509_create.c ****  *  http://www.apache.org/licenses/LICENSE-2.0
  12:Source\mbedtls_open\library/x509_create.c ****  *
  13:Source\mbedtls_open\library/x509_create.c ****  *  Unless required by applicable law or agreed to in writing, software
  14:Source\mbedtls_open\library/x509_create.c ****  *  distributed under the License is distributed on an "AS IS" BASIS, WITHOUT
  15:Source\mbedtls_open\library/x509_create.c ****  *  WARRANTIES OR CONDITIONS OF ANY KIND, either express or implied.
  16:Source\mbedtls_open\library/x509_create.c ****  *  See the License for the specific language governing permissions and
  17:Source\mbedtls_open\library/x509_create.c ****  *  limitations under the License.
  18:Source\mbedtls_open\library/x509_create.c ****  *
  19:Source\mbedtls_open\library/x509_create.c ****  *  This file is part of mbed TLS (https://tls.mbed.org)
  20:Source\mbedtls_open\library/x509_create.c ****  */
  21:Source\mbedtls_open\library/x509_create.c **** 
  22:Source\mbedtls_open\library/x509_create.c **** #if !defined(MBEDTLS_CONFIG_FILE)
  23:Source\mbedtls_open\library/x509_create.c **** #include "mbedtls/config.h"
  24:Source\mbedtls_open\library/x509_create.c **** #else
  25:Source\mbedtls_open\library/x509_create.c **** #include MBEDTLS_CONFIG_FILE
  26:Source\mbedtls_open\library/x509_create.c **** #endif
  27:Source\mbedtls_open\library/x509_create.c **** 
  28:Source\mbedtls_open\library/x509_create.c **** #if defined(MBEDTLS_X509_CREATE_C)
  29:Source\mbedtls_open\library/x509_create.c **** 
  30:Source\mbedtls_open\library/x509_create.c **** #include "mbedtls/x509.h"
  31:Source\mbedtls_open\library/x509_create.c **** #include "mbedtls/asn1write.h"
ARM GAS  C:\Users\Phuong\AppData\Local\Temp\ccKtHcUM.s 			page 2


  32:Source\mbedtls_open\library/x509_create.c **** #include "mbedtls/oid.h"
  33:Source\mbedtls_open\library/x509_create.c **** 
  34:Source\mbedtls_open\library/x509_create.c **** #include <string.h>
  35:Source\mbedtls_open\library/x509_create.c **** 
  36:Source\mbedtls_open\library/x509_create.c **** typedef struct {
  37:Source\mbedtls_open\library/x509_create.c ****     const char *name;
  38:Source\mbedtls_open\library/x509_create.c ****     size_t name_len;
  39:Source\mbedtls_open\library/x509_create.c ****     const char*oid;
  40:Source\mbedtls_open\library/x509_create.c **** } x509_attr_descriptor_t;
  41:Source\mbedtls_open\library/x509_create.c **** 
  42:Source\mbedtls_open\library/x509_create.c **** #define ADD_STRLEN( s )     s, sizeof( s ) - 1
  43:Source\mbedtls_open\library/x509_create.c **** 
  44:Source\mbedtls_open\library/x509_create.c **** static const x509_attr_descriptor_t x509_attrs[] =
  45:Source\mbedtls_open\library/x509_create.c **** {
  46:Source\mbedtls_open\library/x509_create.c ****     { ADD_STRLEN( "CN" ),                       MBEDTLS_OID_AT_CN },
  47:Source\mbedtls_open\library/x509_create.c ****     { ADD_STRLEN( "commonName" ),               MBEDTLS_OID_AT_CN },
  48:Source\mbedtls_open\library/x509_create.c ****     { ADD_STRLEN( "C" ),                        MBEDTLS_OID_AT_COUNTRY },
  49:Source\mbedtls_open\library/x509_create.c ****     { ADD_STRLEN( "countryName" ),              MBEDTLS_OID_AT_COUNTRY },
  50:Source\mbedtls_open\library/x509_create.c ****     { ADD_STRLEN( "O" ),                        MBEDTLS_OID_AT_ORGANIZATION },
  51:Source\mbedtls_open\library/x509_create.c ****     { ADD_STRLEN( "organizationName" ),         MBEDTLS_OID_AT_ORGANIZATION },
  52:Source\mbedtls_open\library/x509_create.c ****     { ADD_STRLEN( "L" ),                        MBEDTLS_OID_AT_LOCALITY },
  53:Source\mbedtls_open\library/x509_create.c ****     { ADD_STRLEN( "locality" ),                 MBEDTLS_OID_AT_LOCALITY },
  54:Source\mbedtls_open\library/x509_create.c ****     { ADD_STRLEN( "R" ),                        MBEDTLS_OID_PKCS9_EMAIL },
  55:Source\mbedtls_open\library/x509_create.c ****     { ADD_STRLEN( "OU" ),                       MBEDTLS_OID_AT_ORG_UNIT },
  56:Source\mbedtls_open\library/x509_create.c ****     { ADD_STRLEN( "organizationalUnitName" ),   MBEDTLS_OID_AT_ORG_UNIT },
  57:Source\mbedtls_open\library/x509_create.c ****     { ADD_STRLEN( "ST" ),                       MBEDTLS_OID_AT_STATE },
  58:Source\mbedtls_open\library/x509_create.c ****     { ADD_STRLEN( "stateOrProvinceName" ),      MBEDTLS_OID_AT_STATE },
  59:Source\mbedtls_open\library/x509_create.c ****     { ADD_STRLEN( "emailAddress" ),             MBEDTLS_OID_PKCS9_EMAIL },
  60:Source\mbedtls_open\library/x509_create.c ****     { ADD_STRLEN( "serialNumber" ),             MBEDTLS_OID_AT_SERIAL_NUMBER },
  61:Source\mbedtls_open\library/x509_create.c ****     { ADD_STRLEN( "postalAddress" ),            MBEDTLS_OID_AT_POSTAL_ADDRESS },
  62:Source\mbedtls_open\library/x509_create.c ****     { ADD_STRLEN( "postalCode" ),               MBEDTLS_OID_AT_POSTAL_CODE },
  63:Source\mbedtls_open\library/x509_create.c ****     { ADD_STRLEN( "dnQualifier" ),              MBEDTLS_OID_AT_DN_QUALIFIER },
  64:Source\mbedtls_open\library/x509_create.c ****     { ADD_STRLEN( "title" ),                    MBEDTLS_OID_AT_TITLE },
  65:Source\mbedtls_open\library/x509_create.c ****     { ADD_STRLEN( "surName" ),                  MBEDTLS_OID_AT_SUR_NAME },
  66:Source\mbedtls_open\library/x509_create.c ****     { ADD_STRLEN( "SN" ),                       MBEDTLS_OID_AT_SUR_NAME },
  67:Source\mbedtls_open\library/x509_create.c ****     { ADD_STRLEN( "givenName" ),                MBEDTLS_OID_AT_GIVEN_NAME },
  68:Source\mbedtls_open\library/x509_create.c ****     { ADD_STRLEN( "GN" ),                       MBEDTLS_OID_AT_GIVEN_NAME },
  69:Source\mbedtls_open\library/x509_create.c ****     { ADD_STRLEN( "initials" ),                 MBEDTLS_OID_AT_INITIALS },
  70:Source\mbedtls_open\library/x509_create.c ****     { ADD_STRLEN( "pseudonym" ),                MBEDTLS_OID_AT_PSEUDONYM },
  71:Source\mbedtls_open\library/x509_create.c ****     { ADD_STRLEN( "generationQualifier" ),      MBEDTLS_OID_AT_GENERATION_QUALIFIER },
  72:Source\mbedtls_open\library/x509_create.c ****     { ADD_STRLEN( "domainComponent" ),          MBEDTLS_OID_DOMAIN_COMPONENT },
  73:Source\mbedtls_open\library/x509_create.c ****     { ADD_STRLEN( "DC" ),                       MBEDTLS_OID_DOMAIN_COMPONENT },
  74:Source\mbedtls_open\library/x509_create.c ****     { NULL, 0, NULL }
  75:Source\mbedtls_open\library/x509_create.c **** };
  76:Source\mbedtls_open\library/x509_create.c **** 
  77:Source\mbedtls_open\library/x509_create.c **** static const char *x509_at_oid_from_name( const char *name, size_t name_len )
  78:Source\mbedtls_open\library/x509_create.c **** {
  27              		.loc 1 78 0
  28              		.cfi_startproc
  29              		@ args = 0, pretend = 0, frame = 0
  30              		@ frame_needed = 0, uses_anonymous_args = 0
  31              	.LVL0:
  32 0000 70B5     		push	{r4, r5, r6, lr}
  33              		.cfi_def_cfa_offset 16
  34              		.cfi_offset 4, -16
  35              		.cfi_offset 5, -12
  36              		.cfi_offset 6, -8
ARM GAS  C:\Users\Phuong\AppData\Local\Temp\ccKtHcUM.s 			page 3


  37              		.cfi_offset 14, -4
  38 0002 0600     		movs	r6, r0
  39 0004 0D00     		movs	r5, r1
  40              	.LVL1:
  79:Source\mbedtls_open\library/x509_create.c ****     const x509_attr_descriptor_t *cur;
  80:Source\mbedtls_open\library/x509_create.c **** 
  81:Source\mbedtls_open\library/x509_create.c ****     for( cur = x509_attrs; cur->name != NULL; cur++ )
  41              		.loc 1 81 0
  42 0006 084C     		ldr	r4, .L6
  43 0008 09E0     		b	.L2
  44              	.LVL2:
  45              	.L5:
  82:Source\mbedtls_open\library/x509_create.c ****         if( cur->name_len == name_len &&
  46              		.loc 1 82 0
  47 000a 6368     		ldr	r3, [r4, #4]
  48 000c AB42     		cmp	r3, r5
  49 000e 05D1     		bne	.L3
  83:Source\mbedtls_open\library/x509_create.c ****             strncmp( cur->name, name, name_len ) == 0 )
  50              		.loc 1 83 0 discriminator 1
  51 0010 2A00     		movs	r2, r5
  52 0012 3100     		movs	r1, r6
  53 0014 FFF7FEFF 		bl	strncmp
  54              	.LVL3:
  82:Source\mbedtls_open\library/x509_create.c ****         if( cur->name_len == name_len &&
  55              		.loc 1 82 0 discriminator 1
  56 0018 0028     		cmp	r0, #0
  57 001a 03D0     		beq	.L4
  58              	.L3:
  81:Source\mbedtls_open\library/x509_create.c ****         if( cur->name_len == name_len &&
  59              		.loc 1 81 0 discriminator 2
  60 001c 0C34     		adds	r4, r4, #12
  61              	.LVL4:
  62              	.L2:
  81:Source\mbedtls_open\library/x509_create.c ****         if( cur->name_len == name_len &&
  63              		.loc 1 81 0 is_stmt 0 discriminator 1
  64 001e 2068     		ldr	r0, [r4]
  65 0020 0028     		cmp	r0, #0
  66 0022 F2D1     		bne	.L5
  67              	.L4:
  84:Source\mbedtls_open\library/x509_create.c ****             break;
  85:Source\mbedtls_open\library/x509_create.c **** 
  86:Source\mbedtls_open\library/x509_create.c ****     return( cur->oid );
  68              		.loc 1 86 0 is_stmt 1
  69 0024 A068     		ldr	r0, [r4, #8]
  87:Source\mbedtls_open\library/x509_create.c **** }
  70              		.loc 1 87 0
  71              		@ sp needed
  72              	.LVL5:
  73              	.LVL6:
  74              	.LVL7:
  75 0026 70BD     		pop	{r4, r5, r6, pc}
  76              	.L7:
  77              		.align	2
  78              	.L6:
  79 0028 00000000 		.word	.LANCHOR0
  80              		.cfi_endproc
  81              	.LFE10:
ARM GAS  C:\Users\Phuong\AppData\Local\Temp\ccKtHcUM.s 			page 4


  82              		.size	x509_at_oid_from_name, .-x509_at_oid_from_name
  83              		.section	.text.x509_write_name,"ax",%progbits
  84              		.align	2
  85              		.code	16
  86              		.thumb_func
  87              		.type	x509_write_name, %function
  88              	x509_write_name:
  89              	.LFB13:
  88:Source\mbedtls_open\library/x509_create.c **** 
  89:Source\mbedtls_open\library/x509_create.c **** int mbedtls_x509_string_to_names( mbedtls_asn1_named_data **head, const char *name )
  90:Source\mbedtls_open\library/x509_create.c **** {
  91:Source\mbedtls_open\library/x509_create.c ****     int ret = 0;
  92:Source\mbedtls_open\library/x509_create.c ****     const char *s = name, *c = s;
  93:Source\mbedtls_open\library/x509_create.c ****     const char *end = s + strlen( s );
  94:Source\mbedtls_open\library/x509_create.c ****     const char *oid = NULL;
  95:Source\mbedtls_open\library/x509_create.c ****     int in_tag = 1;
  96:Source\mbedtls_open\library/x509_create.c ****     char data[MBEDTLS_X509_MAX_DN_NAME_SIZE];
  97:Source\mbedtls_open\library/x509_create.c ****     char *d = data;
  98:Source\mbedtls_open\library/x509_create.c **** 
  99:Source\mbedtls_open\library/x509_create.c ****     /* Clear existing chain if present */
 100:Source\mbedtls_open\library/x509_create.c ****     mbedtls_asn1_free_named_data_list( head );
 101:Source\mbedtls_open\library/x509_create.c **** 
 102:Source\mbedtls_open\library/x509_create.c ****     while( c <= end )
 103:Source\mbedtls_open\library/x509_create.c ****     {
 104:Source\mbedtls_open\library/x509_create.c ****         if( in_tag && *c == '=' )
 105:Source\mbedtls_open\library/x509_create.c ****         {
 106:Source\mbedtls_open\library/x509_create.c ****             if( ( oid = x509_at_oid_from_name( s, c - s ) ) == NULL )
 107:Source\mbedtls_open\library/x509_create.c ****             {
 108:Source\mbedtls_open\library/x509_create.c ****                 ret = MBEDTLS_ERR_X509_UNKNOWN_OID;
 109:Source\mbedtls_open\library/x509_create.c ****                 goto exit;
 110:Source\mbedtls_open\library/x509_create.c ****             }
 111:Source\mbedtls_open\library/x509_create.c **** 
 112:Source\mbedtls_open\library/x509_create.c ****             s = c + 1;
 113:Source\mbedtls_open\library/x509_create.c ****             in_tag = 0;
 114:Source\mbedtls_open\library/x509_create.c ****             d = data;
 115:Source\mbedtls_open\library/x509_create.c ****         }
 116:Source\mbedtls_open\library/x509_create.c **** 
 117:Source\mbedtls_open\library/x509_create.c ****         if( !in_tag && *c == '\\' && c != end )
 118:Source\mbedtls_open\library/x509_create.c ****         {
 119:Source\mbedtls_open\library/x509_create.c ****             c++;
 120:Source\mbedtls_open\library/x509_create.c **** 
 121:Source\mbedtls_open\library/x509_create.c ****             /* Check for valid escaped characters */
 122:Source\mbedtls_open\library/x509_create.c ****             if( c == end || *c != ',' )
 123:Source\mbedtls_open\library/x509_create.c ****             {
 124:Source\mbedtls_open\library/x509_create.c ****                 ret = MBEDTLS_ERR_X509_INVALID_NAME;
 125:Source\mbedtls_open\library/x509_create.c ****                 goto exit;
 126:Source\mbedtls_open\library/x509_create.c ****             }
 127:Source\mbedtls_open\library/x509_create.c ****         }
 128:Source\mbedtls_open\library/x509_create.c ****         else if( !in_tag && ( *c == ',' || c == end ) )
 129:Source\mbedtls_open\library/x509_create.c ****         {
 130:Source\mbedtls_open\library/x509_create.c ****             if( mbedtls_asn1_store_named_data( head, oid, strlen( oid ),
 131:Source\mbedtls_open\library/x509_create.c ****                                        (unsigned char *) data,
 132:Source\mbedtls_open\library/x509_create.c ****                                        d - data ) == NULL )
 133:Source\mbedtls_open\library/x509_create.c ****             {
 134:Source\mbedtls_open\library/x509_create.c ****                 return( MBEDTLS_ERR_X509_ALLOC_FAILED );
 135:Source\mbedtls_open\library/x509_create.c ****             }
 136:Source\mbedtls_open\library/x509_create.c **** 
ARM GAS  C:\Users\Phuong\AppData\Local\Temp\ccKtHcUM.s 			page 5


 137:Source\mbedtls_open\library/x509_create.c ****             while( c < end && *(c + 1) == ' ' )
 138:Source\mbedtls_open\library/x509_create.c ****                 c++;
 139:Source\mbedtls_open\library/x509_create.c **** 
 140:Source\mbedtls_open\library/x509_create.c ****             s = c + 1;
 141:Source\mbedtls_open\library/x509_create.c ****             in_tag = 1;
 142:Source\mbedtls_open\library/x509_create.c ****         }
 143:Source\mbedtls_open\library/x509_create.c **** 
 144:Source\mbedtls_open\library/x509_create.c ****         if( !in_tag && s != c + 1 )
 145:Source\mbedtls_open\library/x509_create.c ****         {
 146:Source\mbedtls_open\library/x509_create.c ****             *(d++) = *c;
 147:Source\mbedtls_open\library/x509_create.c **** 
 148:Source\mbedtls_open\library/x509_create.c ****             if( d - data == MBEDTLS_X509_MAX_DN_NAME_SIZE )
 149:Source\mbedtls_open\library/x509_create.c ****             {
 150:Source\mbedtls_open\library/x509_create.c ****                 ret = MBEDTLS_ERR_X509_INVALID_NAME;
 151:Source\mbedtls_open\library/x509_create.c ****                 goto exit;
 152:Source\mbedtls_open\library/x509_create.c ****             }
 153:Source\mbedtls_open\library/x509_create.c ****         }
 154:Source\mbedtls_open\library/x509_create.c **** 
 155:Source\mbedtls_open\library/x509_create.c ****         c++;
 156:Source\mbedtls_open\library/x509_create.c ****     }
 157:Source\mbedtls_open\library/x509_create.c **** 
 158:Source\mbedtls_open\library/x509_create.c **** exit:
 159:Source\mbedtls_open\library/x509_create.c **** 
 160:Source\mbedtls_open\library/x509_create.c ****     return( ret );
 161:Source\mbedtls_open\library/x509_create.c **** }
 162:Source\mbedtls_open\library/x509_create.c **** 
 163:Source\mbedtls_open\library/x509_create.c **** /* The first byte of the value in the mbedtls_asn1_named_data structure is reserved
 164:Source\mbedtls_open\library/x509_create.c ****  * to store the critical boolean for us
 165:Source\mbedtls_open\library/x509_create.c ****  */
 166:Source\mbedtls_open\library/x509_create.c **** int mbedtls_x509_set_extension( mbedtls_asn1_named_data **head, const char *oid, size_t oid_len,
 167:Source\mbedtls_open\library/x509_create.c ****                         int critical, const unsigned char *val, size_t val_len )
 168:Source\mbedtls_open\library/x509_create.c **** {
 169:Source\mbedtls_open\library/x509_create.c ****     mbedtls_asn1_named_data *cur;
 170:Source\mbedtls_open\library/x509_create.c **** 
 171:Source\mbedtls_open\library/x509_create.c ****     if( ( cur = mbedtls_asn1_store_named_data( head, oid, oid_len,
 172:Source\mbedtls_open\library/x509_create.c ****                                        NULL, val_len + 1 ) ) == NULL )
 173:Source\mbedtls_open\library/x509_create.c ****     {
 174:Source\mbedtls_open\library/x509_create.c ****         return( MBEDTLS_ERR_X509_ALLOC_FAILED );
 175:Source\mbedtls_open\library/x509_create.c ****     }
 176:Source\mbedtls_open\library/x509_create.c **** 
 177:Source\mbedtls_open\library/x509_create.c ****     cur->val.p[0] = critical;
 178:Source\mbedtls_open\library/x509_create.c ****     memcpy( cur->val.p + 1, val, val_len );
 179:Source\mbedtls_open\library/x509_create.c **** 
 180:Source\mbedtls_open\library/x509_create.c ****     return( 0 );
 181:Source\mbedtls_open\library/x509_create.c **** }
 182:Source\mbedtls_open\library/x509_create.c **** 
 183:Source\mbedtls_open\library/x509_create.c **** /*
 184:Source\mbedtls_open\library/x509_create.c ****  *  RelativeDistinguishedName ::=
 185:Source\mbedtls_open\library/x509_create.c ****  *    SET OF AttributeTypeAndValue
 186:Source\mbedtls_open\library/x509_create.c ****  *
 187:Source\mbedtls_open\library/x509_create.c ****  *  AttributeTypeAndValue ::= SEQUENCE {
 188:Source\mbedtls_open\library/x509_create.c ****  *    type     AttributeType,
 189:Source\mbedtls_open\library/x509_create.c ****  *    value    AttributeValue }
 190:Source\mbedtls_open\library/x509_create.c ****  *
 191:Source\mbedtls_open\library/x509_create.c ****  *  AttributeType ::= OBJECT IDENTIFIER
 192:Source\mbedtls_open\library/x509_create.c ****  *
 193:Source\mbedtls_open\library/x509_create.c ****  *  AttributeValue ::= ANY DEFINED BY AttributeType
ARM GAS  C:\Users\Phuong\AppData\Local\Temp\ccKtHcUM.s 			page 6


 194:Source\mbedtls_open\library/x509_create.c ****  */
 195:Source\mbedtls_open\library/x509_create.c **** static int x509_write_name( unsigned char **p, unsigned char *start,
 196:Source\mbedtls_open\library/x509_create.c ****                             const char *oid, size_t oid_len,
 197:Source\mbedtls_open\library/x509_create.c ****                             const unsigned char *name, size_t name_len )
 198:Source\mbedtls_open\library/x509_create.c **** {
  90              		.loc 1 198 0
  91              		.cfi_startproc
  92              		@ args = 8, pretend = 0, frame = 8
  93              		@ frame_needed = 0, uses_anonymous_args = 0
  94              	.LVL8:
  95 0000 F0B5     		push	{r4, r5, r6, r7, lr}
  96              		.cfi_def_cfa_offset 20
  97              		.cfi_offset 4, -20
  98              		.cfi_offset 5, -16
  99              		.cfi_offset 6, -12
 100              		.cfi_offset 7, -8
 101              		.cfi_offset 14, -4
 102 0002 83B0     		sub	sp, sp, #12
 103              		.cfi_def_cfa_offset 32
 104 0004 0500     		movs	r5, r0
 105 0006 0E00     		movs	r6, r1
 106 0008 1000     		movs	r0, r2
 107              	.LVL9:
 108 000a 0192     		str	r2, [sp, #4]
 109 000c 1F00     		movs	r7, r3
 110              	.LVL10:
 199:Source\mbedtls_open\library/x509_create.c ****     int ret;
 200:Source\mbedtls_open\library/x509_create.c ****     size_t len = 0;
 201:Source\mbedtls_open\library/x509_create.c **** 
 202:Source\mbedtls_open\library/x509_create.c ****     // Write PrintableString for all except MBEDTLS_OID_PKCS9_EMAIL
 203:Source\mbedtls_open\library/x509_create.c ****     //
 204:Source\mbedtls_open\library/x509_create.c ****     if( MBEDTLS_OID_SIZE( MBEDTLS_OID_PKCS9_EMAIL ) == oid_len &&
 111              		.loc 1 204 0
 112 000e 092B     		cmp	r3, #9
 113 0010 0FD1     		bne	.L9
 205:Source\mbedtls_open\library/x509_create.c ****         memcmp( oid, MBEDTLS_OID_PKCS9_EMAIL, oid_len ) == 0 )
 114              		.loc 1 205 0 discriminator 1
 115 0012 1A00     		movs	r2, r3
 116              	.LVL11:
 117 0014 2149     		ldr	r1, .L19
 118              	.LVL12:
 119 0016 FFF7FEFF 		bl	memcmp
 120              	.LVL13:
 204:Source\mbedtls_open\library/x509_create.c ****         memcmp( oid, MBEDTLS_OID_PKCS9_EMAIL, oid_len ) == 0 )
 121              		.loc 1 204 0 discriminator 1
 122 001a 0028     		cmp	r0, #0
 123 001c 09D1     		bne	.L9
 206:Source\mbedtls_open\library/x509_create.c ****     {
 207:Source\mbedtls_open\library/x509_create.c ****         MBEDTLS_ASN1_CHK_ADD( len, mbedtls_asn1_write_ia5_string( p, start,
 124              		.loc 1 207 0
 125 001e 099B     		ldr	r3, [sp, #36]
 126 0020 089A     		ldr	r2, [sp, #32]
 127 0022 3100     		movs	r1, r6
 128 0024 2800     		movs	r0, r5
 129 0026 FFF7FEFF 		bl	mbedtls_asn1_write_ia5_string
 130              	.LVL14:
 131 002a 0028     		cmp	r0, #0
ARM GAS  C:\Users\Phuong\AppData\Local\Temp\ccKtHcUM.s 			page 7


 132 002c 33DB     		blt	.L10
 133              		.loc 1 207 0 is_stmt 0 discriminator 2
 134 002e 0400     		movs	r4, r0
 135              	.LVL15:
 136 0030 08E0     		b	.L11
 137              	.LVL16:
 138              	.L9:
 208:Source\mbedtls_open\library/x509_create.c ****                                                   (const char *) name,
 209:Source\mbedtls_open\library/x509_create.c ****                                                   name_len ) );
 210:Source\mbedtls_open\library/x509_create.c ****     }
 211:Source\mbedtls_open\library/x509_create.c ****     else
 212:Source\mbedtls_open\library/x509_create.c ****     {
 213:Source\mbedtls_open\library/x509_create.c ****         MBEDTLS_ASN1_CHK_ADD( len, mbedtls_asn1_write_printable_string( p, start,
 139              		.loc 1 213 0 is_stmt 1
 140 0032 099B     		ldr	r3, [sp, #36]
 141 0034 089A     		ldr	r2, [sp, #32]
 142 0036 3100     		movs	r1, r6
 143 0038 2800     		movs	r0, r5
 144 003a FFF7FEFF 		bl	mbedtls_asn1_write_printable_string
 145              	.LVL17:
 146 003e 0028     		cmp	r0, #0
 147 0040 29DB     		blt	.L10
 148              		.loc 1 213 0 is_stmt 0 discriminator 2
 149 0042 0400     		movs	r4, r0
 150              	.LVL18:
 151              	.L11:
 214:Source\mbedtls_open\library/x509_create.c ****                                                         (const char *) name,
 215:Source\mbedtls_open\library/x509_create.c ****                                                         name_len ) );
 216:Source\mbedtls_open\library/x509_create.c ****     }
 217:Source\mbedtls_open\library/x509_create.c **** 
 218:Source\mbedtls_open\library/x509_create.c ****     // Write OID
 219:Source\mbedtls_open\library/x509_create.c ****     //
 220:Source\mbedtls_open\library/x509_create.c ****     MBEDTLS_ASN1_CHK_ADD( len, mbedtls_asn1_write_oid( p, start, oid, oid_len ) );
 152              		.loc 1 220 0 is_stmt 1
 153 0044 3B00     		movs	r3, r7
 154 0046 019A     		ldr	r2, [sp, #4]
 155 0048 3100     		movs	r1, r6
 156 004a 2800     		movs	r0, r5
 157              	.LVL19:
 158 004c FFF7FEFF 		bl	mbedtls_asn1_write_oid
 159              	.LVL20:
 160 0050 0028     		cmp	r0, #0
 161 0052 20DB     		blt	.L10
 162              		.loc 1 220 0 is_stmt 0 discriminator 2
 163 0054 0419     		adds	r4, r0, r4
 164              	.LVL21:
 221:Source\mbedtls_open\library/x509_create.c **** 
 222:Source\mbedtls_open\library/x509_create.c ****     MBEDTLS_ASN1_CHK_ADD( len, mbedtls_asn1_write_len( p, start, len ) );
 165              		.loc 1 222 0 is_stmt 1 discriminator 2
 166 0056 2200     		movs	r2, r4
 167 0058 3100     		movs	r1, r6
 168 005a 2800     		movs	r0, r5
 169              	.LVL22:
 170 005c FFF7FEFF 		bl	mbedtls_asn1_write_len
 171              	.LVL23:
 172 0060 0028     		cmp	r0, #0
 173 0062 18DB     		blt	.L10
ARM GAS  C:\Users\Phuong\AppData\Local\Temp\ccKtHcUM.s 			page 8


 174 0064 0419     		adds	r4, r0, r4
 175              	.LVL24:
 223:Source\mbedtls_open\library/x509_create.c ****     MBEDTLS_ASN1_CHK_ADD( len, mbedtls_asn1_write_tag( p, start, MBEDTLS_ASN1_CONSTRUCTED |
 176              		.loc 1 223 0 discriminator 2
 177 0066 3022     		movs	r2, #48
 178 0068 3100     		movs	r1, r6
 179 006a 2800     		movs	r0, r5
 180              	.LVL25:
 181 006c FFF7FEFF 		bl	mbedtls_asn1_write_tag
 182              	.LVL26:
 183 0070 0028     		cmp	r0, #0
 184 0072 10DB     		blt	.L10
 185 0074 0419     		adds	r4, r0, r4
 186              	.LVL27:
 224:Source\mbedtls_open\library/x509_create.c ****                                                  MBEDTLS_ASN1_SEQUENCE ) );
 225:Source\mbedtls_open\library/x509_create.c **** 
 226:Source\mbedtls_open\library/x509_create.c ****     MBEDTLS_ASN1_CHK_ADD( len, mbedtls_asn1_write_len( p, start, len ) );
 187              		.loc 1 226 0 discriminator 2
 188 0076 2200     		movs	r2, r4
 189 0078 3100     		movs	r1, r6
 190 007a 2800     		movs	r0, r5
 191              	.LVL28:
 192 007c FFF7FEFF 		bl	mbedtls_asn1_write_len
 193              	.LVL29:
 194 0080 0028     		cmp	r0, #0
 195 0082 08DB     		blt	.L10
 196 0084 0419     		adds	r4, r0, r4
 197              	.LVL30:
 227:Source\mbedtls_open\library/x509_create.c ****     MBEDTLS_ASN1_CHK_ADD( len, mbedtls_asn1_write_tag( p, start, MBEDTLS_ASN1_CONSTRUCTED |
 198              		.loc 1 227 0 discriminator 2
 199 0086 3122     		movs	r2, #49
 200 0088 3100     		movs	r1, r6
 201 008a 2800     		movs	r0, r5
 202              	.LVL31:
 203 008c FFF7FEFF 		bl	mbedtls_asn1_write_tag
 204              	.LVL32:
 205 0090 0028     		cmp	r0, #0
 206 0092 00DB     		blt	.L10
 207 0094 0019     		adds	r0, r0, r4
 208              	.LVL33:
 209              	.L10:
 228:Source\mbedtls_open\library/x509_create.c ****                                                  MBEDTLS_ASN1_SET ) );
 229:Source\mbedtls_open\library/x509_create.c **** 
 230:Source\mbedtls_open\library/x509_create.c ****     return( (int) len );
 231:Source\mbedtls_open\library/x509_create.c **** }
 210              		.loc 1 231 0
 211 0096 03B0     		add	sp, sp, #12
 212              		@ sp needed
 213              	.LVL34:
 214              	.LVL35:
 215              	.LVL36:
 216 0098 F0BD     		pop	{r4, r5, r6, r7, pc}
 217              	.L20:
 218 009a C046     		.align	2
 219              	.L19:
 220 009c 00000000 		.word	.LC1
 221              		.cfi_endproc
ARM GAS  C:\Users\Phuong\AppData\Local\Temp\ccKtHcUM.s 			page 9


 222              	.LFE13:
 223              		.size	x509_write_name, .-x509_write_name
 224              		.section	.text.x509_write_extension,"ax",%progbits
 225              		.align	2
 226              		.code	16
 227              		.thumb_func
 228              		.type	x509_write_extension, %function
 229              	x509_write_extension:
 230              	.LFB16:
 232:Source\mbedtls_open\library/x509_create.c **** 
 233:Source\mbedtls_open\library/x509_create.c **** int mbedtls_x509_write_names( unsigned char **p, unsigned char *start,
 234:Source\mbedtls_open\library/x509_create.c ****                       mbedtls_asn1_named_data *first )
 235:Source\mbedtls_open\library/x509_create.c **** {
 236:Source\mbedtls_open\library/x509_create.c ****     int ret;
 237:Source\mbedtls_open\library/x509_create.c ****     size_t len = 0;
 238:Source\mbedtls_open\library/x509_create.c ****     mbedtls_asn1_named_data *cur = first;
 239:Source\mbedtls_open\library/x509_create.c **** 
 240:Source\mbedtls_open\library/x509_create.c ****     while( cur != NULL )
 241:Source\mbedtls_open\library/x509_create.c ****     {
 242:Source\mbedtls_open\library/x509_create.c ****         MBEDTLS_ASN1_CHK_ADD( len, x509_write_name( p, start, (char *) cur->oid.p,
 243:Source\mbedtls_open\library/x509_create.c ****                                             cur->oid.len,
 244:Source\mbedtls_open\library/x509_create.c ****                                             cur->val.p, cur->val.len ) );
 245:Source\mbedtls_open\library/x509_create.c ****         cur = cur->next;
 246:Source\mbedtls_open\library/x509_create.c ****     }
 247:Source\mbedtls_open\library/x509_create.c **** 
 248:Source\mbedtls_open\library/x509_create.c ****     MBEDTLS_ASN1_CHK_ADD( len, mbedtls_asn1_write_len( p, start, len ) );
 249:Source\mbedtls_open\library/x509_create.c ****     MBEDTLS_ASN1_CHK_ADD( len, mbedtls_asn1_write_tag( p, start, MBEDTLS_ASN1_CONSTRUCTED |
 250:Source\mbedtls_open\library/x509_create.c ****                                                  MBEDTLS_ASN1_SEQUENCE ) );
 251:Source\mbedtls_open\library/x509_create.c **** 
 252:Source\mbedtls_open\library/x509_create.c ****     return( (int) len );
 253:Source\mbedtls_open\library/x509_create.c **** }
 254:Source\mbedtls_open\library/x509_create.c **** 
 255:Source\mbedtls_open\library/x509_create.c **** int mbedtls_x509_write_sig( unsigned char **p, unsigned char *start,
 256:Source\mbedtls_open\library/x509_create.c ****                     const char *oid, size_t oid_len,
 257:Source\mbedtls_open\library/x509_create.c ****                     unsigned char *sig, size_t size )
 258:Source\mbedtls_open\library/x509_create.c **** {
 259:Source\mbedtls_open\library/x509_create.c ****     int ret;
 260:Source\mbedtls_open\library/x509_create.c ****     size_t len = 0;
 261:Source\mbedtls_open\library/x509_create.c **** 
 262:Source\mbedtls_open\library/x509_create.c ****     if( *p < start || (size_t)( *p - start ) < size )
 263:Source\mbedtls_open\library/x509_create.c ****         return( MBEDTLS_ERR_ASN1_BUF_TOO_SMALL );
 264:Source\mbedtls_open\library/x509_create.c **** 
 265:Source\mbedtls_open\library/x509_create.c ****     len = size;
 266:Source\mbedtls_open\library/x509_create.c ****     (*p) -= len;
 267:Source\mbedtls_open\library/x509_create.c ****     memcpy( *p, sig, len );
 268:Source\mbedtls_open\library/x509_create.c **** 
 269:Source\mbedtls_open\library/x509_create.c ****     if( *p - start < 1 )
 270:Source\mbedtls_open\library/x509_create.c ****         return( MBEDTLS_ERR_ASN1_BUF_TOO_SMALL );
 271:Source\mbedtls_open\library/x509_create.c **** 
 272:Source\mbedtls_open\library/x509_create.c ****     *--(*p) = 0;
 273:Source\mbedtls_open\library/x509_create.c ****     len += 1;
 274:Source\mbedtls_open\library/x509_create.c **** 
 275:Source\mbedtls_open\library/x509_create.c ****     MBEDTLS_ASN1_CHK_ADD( len, mbedtls_asn1_write_len( p, start, len ) );
 276:Source\mbedtls_open\library/x509_create.c ****     MBEDTLS_ASN1_CHK_ADD( len, mbedtls_asn1_write_tag( p, start, MBEDTLS_ASN1_BIT_STRING ) );
 277:Source\mbedtls_open\library/x509_create.c **** 
 278:Source\mbedtls_open\library/x509_create.c ****     // Write OID
 279:Source\mbedtls_open\library/x509_create.c ****     //
ARM GAS  C:\Users\Phuong\AppData\Local\Temp\ccKtHcUM.s 			page 10


 280:Source\mbedtls_open\library/x509_create.c ****     MBEDTLS_ASN1_CHK_ADD( len, mbedtls_asn1_write_algorithm_identifier( p, start, oid,
 281:Source\mbedtls_open\library/x509_create.c ****                                                         oid_len, 0 ) );
 282:Source\mbedtls_open\library/x509_create.c **** 
 283:Source\mbedtls_open\library/x509_create.c ****     return( (int) len );
 284:Source\mbedtls_open\library/x509_create.c **** }
 285:Source\mbedtls_open\library/x509_create.c **** 
 286:Source\mbedtls_open\library/x509_create.c **** static int x509_write_extension( unsigned char **p, unsigned char *start,
 287:Source\mbedtls_open\library/x509_create.c ****                                  mbedtls_asn1_named_data *ext )
 288:Source\mbedtls_open\library/x509_create.c **** {
 231              		.loc 1 288 0
 232              		.cfi_startproc
 233              		@ args = 0, pretend = 0, frame = 8
 234              		@ frame_needed = 0, uses_anonymous_args = 0
 235              	.LVL37:
 236 0000 F0B5     		push	{r4, r5, r6, r7, lr}
 237              		.cfi_def_cfa_offset 20
 238              		.cfi_offset 4, -20
 239              		.cfi_offset 5, -16
 240              		.cfi_offset 6, -12
 241              		.cfi_offset 7, -8
 242              		.cfi_offset 14, -4
 243 0002 83B0     		sub	sp, sp, #12
 244              		.cfi_def_cfa_offset 32
 245 0004 0500     		movs	r5, r0
 246 0006 0190     		str	r0, [sp, #4]
 247 0008 0F00     		movs	r7, r1
 248 000a 1600     		movs	r6, r2
 249              	.LVL38:
 289:Source\mbedtls_open\library/x509_create.c ****     int ret;
 290:Source\mbedtls_open\library/x509_create.c ****     size_t len = 0;
 291:Source\mbedtls_open\library/x509_create.c **** 
 292:Source\mbedtls_open\library/x509_create.c ****     MBEDTLS_ASN1_CHK_ADD( len, mbedtls_asn1_write_raw_buffer( p, start, ext->val.p + 1,
 250              		.loc 1 292 0
 251 000c 5369     		ldr	r3, [r2, #20]
 252 000e 5A1C     		adds	r2, r3, #1
 253              	.LVL39:
 254 0010 3369     		ldr	r3, [r6, #16]
 255 0012 013B     		subs	r3, r3, #1
 256 0014 FFF7FEFF 		bl	mbedtls_asn1_write_raw_buffer
 257              	.LVL40:
 258 0018 041E     		subs	r4, r0, #0
 259              	.LVL41:
 260 001a 48DB     		blt	.L24
 261              	.LVL42:
 293:Source\mbedtls_open\library/x509_create.c ****                                               ext->val.len - 1 ) );
 294:Source\mbedtls_open\library/x509_create.c ****     MBEDTLS_ASN1_CHK_ADD( len, mbedtls_asn1_write_len( p, start, ext->val.len - 1 ) );
 262              		.loc 1 294 0 discriminator 2
 263 001c 3369     		ldr	r3, [r6, #16]
 264 001e 5A1E     		subs	r2, r3, #1
 265 0020 3900     		movs	r1, r7
 266 0022 2800     		movs	r0, r5
 267              	.LVL43:
 268 0024 FFF7FEFF 		bl	mbedtls_asn1_write_len
 269              	.LVL44:
 270 0028 0028     		cmp	r0, #0
 271 002a 40DB     		blt	.L22
 272 002c 0419     		adds	r4, r0, r4
ARM GAS  C:\Users\Phuong\AppData\Local\Temp\ccKtHcUM.s 			page 11


 273              	.LVL45:
 295:Source\mbedtls_open\library/x509_create.c ****     MBEDTLS_ASN1_CHK_ADD( len, mbedtls_asn1_write_tag( p, start, MBEDTLS_ASN1_OCTET_STRING ) );
 274              		.loc 1 295 0 discriminator 2
 275 002e 0422     		movs	r2, #4
 276 0030 3900     		movs	r1, r7
 277 0032 0195     		str	r5, [sp, #4]
 278 0034 2800     		movs	r0, r5
 279              	.LVL46:
 280 0036 FFF7FEFF 		bl	mbedtls_asn1_write_tag
 281              	.LVL47:
 282 003a 0028     		cmp	r0, #0
 283 003c 37DB     		blt	.L22
 284 003e 0519     		adds	r5, r0, r4
 285              	.LVL48:
 296:Source\mbedtls_open\library/x509_create.c **** 
 297:Source\mbedtls_open\library/x509_create.c ****     if( ext->val.p[0] != 0 )
 286              		.loc 1 297 0 discriminator 2
 287 0040 7369     		ldr	r3, [r6, #20]
 288 0042 1B78     		ldrb	r3, [r3]
 289 0044 002B     		cmp	r3, #0
 290 0046 07D0     		beq	.L23
 298:Source\mbedtls_open\library/x509_create.c ****     {
 299:Source\mbedtls_open\library/x509_create.c ****         MBEDTLS_ASN1_CHK_ADD( len, mbedtls_asn1_write_bool( p, start, 1 ) );
 291              		.loc 1 299 0
 292 0048 0122     		movs	r2, #1
 293 004a 3900     		movs	r1, r7
 294 004c 0198     		ldr	r0, [sp, #4]
 295              	.LVL49:
 296 004e FFF7FEFF 		bl	mbedtls_asn1_write_bool
 297              	.LVL50:
 298 0052 0028     		cmp	r0, #0
 299 0054 2BDB     		blt	.L22
 300              		.loc 1 299 0 is_stmt 0 discriminator 2
 301 0056 2D18     		adds	r5, r5, r0
 302              	.LVL51:
 303              	.L23:
 300:Source\mbedtls_open\library/x509_create.c ****     }
 301:Source\mbedtls_open\library/x509_create.c **** 
 302:Source\mbedtls_open\library/x509_create.c ****     MBEDTLS_ASN1_CHK_ADD( len, mbedtls_asn1_write_raw_buffer( p, start, ext->oid.p,
 304              		.loc 1 302 0 is_stmt 1
 305 0058 7368     		ldr	r3, [r6, #4]
 306 005a B268     		ldr	r2, [r6, #8]
 307 005c 3900     		movs	r1, r7
 308 005e 019C     		ldr	r4, [sp, #4]
 309 0060 2000     		movs	r0, r4
 310              	.LVL52:
 311 0062 FFF7FEFF 		bl	mbedtls_asn1_write_raw_buffer
 312              	.LVL53:
 313 0066 0028     		cmp	r0, #0
 314 0068 21DB     		blt	.L22
 315              		.loc 1 302 0 is_stmt 0 discriminator 2
 316 006a 4519     		adds	r5, r0, r5
 317              	.LVL54:
 303:Source\mbedtls_open\library/x509_create.c ****                                               ext->oid.len ) );
 304:Source\mbedtls_open\library/x509_create.c ****     MBEDTLS_ASN1_CHK_ADD( len, mbedtls_asn1_write_len( p, start, ext->oid.len ) );
 318              		.loc 1 304 0 is_stmt 1 discriminator 2
 319 006c 7268     		ldr	r2, [r6, #4]
ARM GAS  C:\Users\Phuong\AppData\Local\Temp\ccKtHcUM.s 			page 12


 320 006e 3900     		movs	r1, r7
 321 0070 2000     		movs	r0, r4
 322              	.LVL55:
 323 0072 FFF7FEFF 		bl	mbedtls_asn1_write_len
 324              	.LVL56:
 325 0076 0028     		cmp	r0, #0
 326 0078 19DB     		blt	.L22
 327 007a 4519     		adds	r5, r0, r5
 328              	.LVL57:
 305:Source\mbedtls_open\library/x509_create.c ****     MBEDTLS_ASN1_CHK_ADD( len, mbedtls_asn1_write_tag( p, start, MBEDTLS_ASN1_OID ) );
 329              		.loc 1 305 0 discriminator 2
 330 007c 0622     		movs	r2, #6
 331 007e 3900     		movs	r1, r7
 332 0080 2000     		movs	r0, r4
 333              	.LVL58:
 334 0082 FFF7FEFF 		bl	mbedtls_asn1_write_tag
 335              	.LVL59:
 336 0086 0028     		cmp	r0, #0
 337 0088 11DB     		blt	.L22
 338 008a 4519     		adds	r5, r0, r5
 339              	.LVL60:
 306:Source\mbedtls_open\library/x509_create.c **** 
 307:Source\mbedtls_open\library/x509_create.c ****     MBEDTLS_ASN1_CHK_ADD( len, mbedtls_asn1_write_len( p, start, len ) );
 340              		.loc 1 307 0 discriminator 2
 341 008c 2A00     		movs	r2, r5
 342 008e 3900     		movs	r1, r7
 343 0090 2000     		movs	r0, r4
 344              	.LVL61:
 345 0092 FFF7FEFF 		bl	mbedtls_asn1_write_len
 346              	.LVL62:
 347 0096 0028     		cmp	r0, #0
 348 0098 09DB     		blt	.L22
 349 009a 4519     		adds	r5, r0, r5
 350              	.LVL63:
 308:Source\mbedtls_open\library/x509_create.c ****     MBEDTLS_ASN1_CHK_ADD( len, mbedtls_asn1_write_tag( p, start, MBEDTLS_ASN1_CONSTRUCTED |
 351              		.loc 1 308 0 discriminator 2
 352 009c 3022     		movs	r2, #48
 353 009e 3900     		movs	r1, r7
 354 00a0 2000     		movs	r0, r4
 355              	.LVL64:
 356 00a2 FFF7FEFF 		bl	mbedtls_asn1_write_tag
 357              	.LVL65:
 358 00a6 0028     		cmp	r0, #0
 359 00a8 01DB     		blt	.L22
 360 00aa 4019     		adds	r0, r0, r5
 361              	.LVL66:
 309:Source\mbedtls_open\library/x509_create.c ****                                                  MBEDTLS_ASN1_SEQUENCE ) );
 310:Source\mbedtls_open\library/x509_create.c **** 
 311:Source\mbedtls_open\library/x509_create.c ****     return( (int) len );
 362              		.loc 1 311 0 discriminator 2
 363 00ac FFE7     		b	.L22
 364              	.LVL67:
 365              	.L24:
 366              	.L22:
 312:Source\mbedtls_open\library/x509_create.c **** }
 367              		.loc 1 312 0
 368 00ae 03B0     		add	sp, sp, #12
ARM GAS  C:\Users\Phuong\AppData\Local\Temp\ccKtHcUM.s 			page 13


 369              		@ sp needed
 370              	.LVL68:
 371              	.LVL69:
 372 00b0 F0BD     		pop	{r4, r5, r6, r7, pc}
 373              		.cfi_endproc
 374              	.LFE16:
 375              		.size	x509_write_extension, .-x509_write_extension
 376 00b2 C046     		.section	.text.mbedtls_x509_string_to_names,"ax",%progbits
 377              		.align	2
 378              		.global	mbedtls_x509_string_to_names
 379              		.code	16
 380              		.thumb_func
 381              		.type	mbedtls_x509_string_to_names, %function
 382              	mbedtls_x509_string_to_names:
 383              	.LFB11:
  90:Source\mbedtls_open\library/x509_create.c ****     int ret = 0;
 384              		.loc 1 90 0
 385              		.cfi_startproc
 386              		@ args = 0, pretend = 0, frame = 264
 387              		@ frame_needed = 0, uses_anonymous_args = 0
 388              	.LVL70:
 389 0000 F0B5     		push	{r4, r5, r6, r7, lr}
 390              		.cfi_def_cfa_offset 20
 391              		.cfi_offset 4, -20
 392              		.cfi_offset 5, -16
 393              		.cfi_offset 6, -12
 394              		.cfi_offset 7, -8
 395              		.cfi_offset 14, -4
 396 0002 C5B0     		sub	sp, sp, #276
 397              		.cfi_def_cfa_offset 296
 398 0004 0400     		movs	r4, r0
 399 0006 0390     		str	r0, [sp, #12]
 400 0008 0D00     		movs	r5, r1
 401              	.LVL71:
  93:Source\mbedtls_open\library/x509_create.c ****     const char *oid = NULL;
 402              		.loc 1 93 0
 403 000a 0800     		movs	r0, r1
 404              	.LVL72:
 405 000c FFF7FEFF 		bl	strlen
 406              	.LVL73:
 407 0010 2F18     		adds	r7, r5, r0
 408              	.LVL74:
 100:Source\mbedtls_open\library/x509_create.c **** 
 409              		.loc 1 100 0
 410 0012 2000     		movs	r0, r4
 411 0014 FFF7FEFF 		bl	mbedtls_asn1_free_named_data_list
 412              	.LVL75:
  92:Source\mbedtls_open\library/x509_create.c ****     const char *end = s + strlen( s );
 413              		.loc 1 92 0
 414 0018 2C00     		movs	r4, r5
 415              	.LVL76:
  97:Source\mbedtls_open\library/x509_create.c **** 
 416              		.loc 1 97 0
 417 001a 04AE     		add	r6, sp, #16
 418              	.LVL77:
  95:Source\mbedtls_open\library/x509_create.c ****     char data[MBEDTLS_X509_MAX_DN_NAME_SIZE];
 419              		.loc 1 95 0
ARM GAS  C:\Users\Phuong\AppData\Local\Temp\ccKtHcUM.s 			page 14


 420 001c 0123     		movs	r3, #1
  94:Source\mbedtls_open\library/x509_create.c ****     int in_tag = 1;
 421              		.loc 1 94 0
 422 001e 0022     		movs	r2, #0
 423 0020 0292     		str	r2, [sp, #8]
 102:Source\mbedtls_open\library/x509_create.c ****     {
 424              		.loc 1 102 0
 425 0022 4BE0     		b	.L34
 426              	.LVL78:
 427              	.L44:
 104:Source\mbedtls_open\library/x509_create.c ****         {
 428              		.loc 1 104 0
 429 0024 002B     		cmp	r3, #0
 430 0026 0CD0     		beq	.L35
 104:Source\mbedtls_open\library/x509_create.c ****         {
 431              		.loc 1 104 0 is_stmt 0 discriminator 1
 432 0028 2278     		ldrb	r2, [r4]
 433 002a 3D2A     		cmp	r2, #61
 434 002c 09D1     		bne	.L35
 106:Source\mbedtls_open\library/x509_create.c ****             {
 435              		.loc 1 106 0 is_stmt 1
 436 002e 611B     		subs	r1, r4, r5
 437 0030 2800     		movs	r0, r5
 438 0032 FFF7FEFF 		bl	x509_at_oid_from_name
 439              	.LVL79:
 440 0036 0290     		str	r0, [sp, #8]
 441              	.LVL80:
 442 0038 0028     		cmp	r0, #0
 443 003a 43D0     		beq	.L45
 112:Source\mbedtls_open\library/x509_create.c ****             in_tag = 0;
 444              		.loc 1 112 0
 445 003c 651C     		adds	r5, r4, #1
 446              	.LVL81:
 114:Source\mbedtls_open\library/x509_create.c ****         }
 447              		.loc 1 114 0
 448 003e 04AE     		add	r6, sp, #16
 449              	.LVL82:
 113:Source\mbedtls_open\library/x509_create.c ****             d = data;
 450              		.loc 1 113 0
 451 0040 0023     		movs	r3, #0
 452              	.LVL83:
 453              	.L35:
 117:Source\mbedtls_open\library/x509_create.c ****         {
 454              		.loc 1 117 0
 455 0042 002B     		cmp	r3, #0
 456 0044 0CD1     		bne	.L37
 117:Source\mbedtls_open\library/x509_create.c ****         {
 457              		.loc 1 117 0 is_stmt 0 discriminator 1
 458 0046 2278     		ldrb	r2, [r4]
 459 0048 5C2A     		cmp	r2, #92
 460 004a 09D1     		bne	.L37
 117:Source\mbedtls_open\library/x509_create.c ****         {
 461              		.loc 1 117 0 discriminator 2
 462 004c BC42     		cmp	r4, r7
 463 004e 07D0     		beq	.L37
 119:Source\mbedtls_open\library/x509_create.c **** 
 464              		.loc 1 119 0 is_stmt 1
ARM GAS  C:\Users\Phuong\AppData\Local\Temp\ccKtHcUM.s 			page 15


 465 0050 621C     		adds	r2, r4, #1
 466              	.LVL84:
 122:Source\mbedtls_open\library/x509_create.c ****             {
 467              		.loc 1 122 0
 468 0052 9742     		cmp	r7, r2
 469 0054 38D0     		beq	.L46
 122:Source\mbedtls_open\library/x509_create.c ****             {
 470              		.loc 1 122 0 is_stmt 0 discriminator 1
 471 0056 6178     		ldrb	r1, [r4, #1]
 472 0058 2C29     		cmp	r1, #44
 473 005a 37D1     		bne	.L47
 119:Source\mbedtls_open\library/x509_create.c **** 
 474              		.loc 1 119 0 is_stmt 1
 475 005c 1400     		movs	r4, r2
 476 005e 1DE0     		b	.L38
 477              	.LVL85:
 478              	.L37:
 128:Source\mbedtls_open\library/x509_create.c ****         {
 479              		.loc 1 128 0
 480 0060 002B     		cmp	r3, #0
 481 0062 1BD1     		bne	.L38
 128:Source\mbedtls_open\library/x509_create.c ****         {
 482              		.loc 1 128 0 is_stmt 0 discriminator 1
 483 0064 2278     		ldrb	r2, [r4]
 484 0066 2C2A     		cmp	r2, #44
 485 0068 01D0     		beq	.L39
 128:Source\mbedtls_open\library/x509_create.c ****         {
 486              		.loc 1 128 0 discriminator 2
 487 006a BC42     		cmp	r4, r7
 488 006c 16D1     		bne	.L38
 489              	.L39:
 130:Source\mbedtls_open\library/x509_create.c ****                                        (unsigned char *) data,
 490              		.loc 1 130 0 is_stmt 1
 491 006e 029D     		ldr	r5, [sp, #8]
 492              	.LVL86:
 493 0070 2800     		movs	r0, r5
 494 0072 FFF7FEFF 		bl	strlen
 495              	.LVL87:
 496 0076 0200     		movs	r2, r0
 132:Source\mbedtls_open\library/x509_create.c ****             {
 497              		.loc 1 132 0
 498 0078 04AB     		add	r3, sp, #16
 499 007a F11A     		subs	r1, r6, r3
 130:Source\mbedtls_open\library/x509_create.c ****                                        (unsigned char *) data,
 500              		.loc 1 130 0
 501 007c 0091     		str	r1, [sp]
 502 007e 2900     		movs	r1, r5
 503 0080 0398     		ldr	r0, [sp, #12]
 504 0082 FFF7FEFF 		bl	mbedtls_asn1_store_named_data
 505              	.LVL88:
 506 0086 0028     		cmp	r0, #0
 507 0088 01D1     		bne	.L40
 508 008a 21E0     		b	.L48
 509              	.L42:
 138:Source\mbedtls_open\library/x509_create.c **** 
 510              		.loc 1 138 0
 511 008c 0134     		adds	r4, r4, #1
ARM GAS  C:\Users\Phuong\AppData\Local\Temp\ccKtHcUM.s 			page 16


 512              	.LVL89:
 513              	.L40:
 137:Source\mbedtls_open\library/x509_create.c ****                 c++;
 514              		.loc 1 137 0
 515 008e BC42     		cmp	r4, r7
 516 0090 02D2     		bcs	.L41
 137:Source\mbedtls_open\library/x509_create.c ****                 c++;
 517              		.loc 1 137 0 is_stmt 0 discriminator 1
 518 0092 6378     		ldrb	r3, [r4, #1]
 519 0094 202B     		cmp	r3, #32
 520 0096 F9D0     		beq	.L42
 521              	.L41:
 140:Source\mbedtls_open\library/x509_create.c ****             in_tag = 1;
 522              		.loc 1 140 0 is_stmt 1
 523 0098 651C     		adds	r5, r4, #1
 524              	.LVL90:
 141:Source\mbedtls_open\library/x509_create.c ****         }
 525              		.loc 1 141 0
 526 009a 0123     		movs	r3, #1
 527              	.LVL91:
 528              	.L38:
 144:Source\mbedtls_open\library/x509_create.c ****         {
 529              		.loc 1 144 0
 530 009c 002B     		cmp	r3, #0
 531 009e 0CD1     		bne	.L43
 144:Source\mbedtls_open\library/x509_create.c ****         {
 532              		.loc 1 144 0 is_stmt 0 discriminator 1
 533 00a0 621C     		adds	r2, r4, #1
 534 00a2 9542     		cmp	r5, r2
 535 00a4 09D0     		beq	.L43
 146:Source\mbedtls_open\library/x509_create.c **** 
 536              		.loc 1 146 0 is_stmt 1
 537 00a6 711C     		adds	r1, r6, #1
 538              	.LVL92:
 539 00a8 2278     		ldrb	r2, [r4]
 540 00aa 3270     		strb	r2, [r6]
 148:Source\mbedtls_open\library/x509_create.c ****             {
 541              		.loc 1 148 0
 542 00ac 04AA     		add	r2, sp, #16
 543 00ae 8A1A     		subs	r2, r1, r2
 544 00b0 8020     		movs	r0, #128
 545 00b2 4000     		lsls	r0, r0, #1
 546 00b4 8242     		cmp	r2, r0
 547 00b6 0DD0     		beq	.L49
 146:Source\mbedtls_open\library/x509_create.c **** 
 548              		.loc 1 146 0
 549 00b8 0E00     		movs	r6, r1
 550              	.LVL93:
 551              	.L43:
 155:Source\mbedtls_open\library/x509_create.c ****     }
 552              		.loc 1 155 0
 553 00ba 0134     		adds	r4, r4, #1
 554              	.LVL94:
 555              	.L34:
 102:Source\mbedtls_open\library/x509_create.c ****     {
 556              		.loc 1 102 0
 557 00bc BC42     		cmp	r4, r7
ARM GAS  C:\Users\Phuong\AppData\Local\Temp\ccKtHcUM.s 			page 17


 558 00be B1D9     		bls	.L44
  91:Source\mbedtls_open\library/x509_create.c ****     const char *s = name, *c = s;
 559              		.loc 1 91 0
 560 00c0 0020     		movs	r0, #0
 561 00c2 08E0     		b	.L36
 562              	.LVL95:
 563              	.L45:
 108:Source\mbedtls_open\library/x509_create.c ****                 goto exit;
 564              		.loc 1 108 0
 565 00c4 0548     		ldr	r0, .L50
 566              	.LVL96:
 567 00c6 06E0     		b	.L36
 568              	.LVL97:
 569              	.L46:
 124:Source\mbedtls_open\library/x509_create.c ****                 goto exit;
 570              		.loc 1 124 0
 571 00c8 0548     		ldr	r0, .L50+4
 572 00ca 04E0     		b	.L36
 573              	.L47:
 574 00cc 0448     		ldr	r0, .L50+4
 575 00ce 02E0     		b	.L36
 576              	.LVL98:
 577              	.L48:
 134:Source\mbedtls_open\library/x509_create.c ****             }
 578              		.loc 1 134 0
 579 00d0 0448     		ldr	r0, .L50+8
 580 00d2 00E0     		b	.L36
 581              	.LVL99:
 582              	.L49:
 150:Source\mbedtls_open\library/x509_create.c ****                 goto exit;
 583              		.loc 1 150 0
 584 00d4 0248     		ldr	r0, .L50+4
 585              	.LVL100:
 586              	.L36:
 161:Source\mbedtls_open\library/x509_create.c **** 
 587              		.loc 1 161 0
 588 00d6 45B0     		add	sp, sp, #276
 589              		@ sp needed
 590              	.LVL101:
 591 00d8 F0BD     		pop	{r4, r5, r6, r7, pc}
 592              	.L51:
 593 00da C046     		.align	2
 594              	.L50:
 595 00dc 00DFFFFF 		.word	-8448
 596 00e0 80DCFFFF 		.word	-9088
 597 00e4 80D7FFFF 		.word	-10368
 598              		.cfi_endproc
 599              	.LFE11:
 600              		.size	mbedtls_x509_string_to_names, .-mbedtls_x509_string_to_names
 601              		.section	.text.mbedtls_x509_set_extension,"ax",%progbits
 602              		.align	2
 603              		.global	mbedtls_x509_set_extension
 604              		.code	16
 605              		.thumb_func
 606              		.type	mbedtls_x509_set_extension, %function
 607              	mbedtls_x509_set_extension:
 608              	.LFB12:
ARM GAS  C:\Users\Phuong\AppData\Local\Temp\ccKtHcUM.s 			page 18


 168:Source\mbedtls_open\library/x509_create.c ****     mbedtls_asn1_named_data *cur;
 609              		.loc 1 168 0
 610              		.cfi_startproc
 611              		@ args = 8, pretend = 0, frame = 0
 612              		@ frame_needed = 0, uses_anonymous_args = 0
 613              	.LVL102:
 614 0000 10B5     		push	{r4, lr}
 615              		.cfi_def_cfa_offset 8
 616              		.cfi_offset 4, -8
 617              		.cfi_offset 14, -4
 618 0002 82B0     		sub	sp, sp, #8
 619              		.cfi_def_cfa_offset 16
 620 0004 1C00     		movs	r4, r3
 171:Source\mbedtls_open\library/x509_create.c ****                                        NULL, val_len + 1 ) ) == NULL )
 621              		.loc 1 171 0
 622 0006 059B     		ldr	r3, [sp, #20]
 623              	.LVL103:
 624 0008 0133     		adds	r3, r3, #1
 625 000a 0093     		str	r3, [sp]
 626 000c 0023     		movs	r3, #0
 627 000e FFF7FEFF 		bl	mbedtls_asn1_store_named_data
 628              	.LVL104:
 629 0012 0028     		cmp	r0, #0
 630 0014 09D0     		beq	.L54
 177:Source\mbedtls_open\library/x509_create.c ****     memcpy( cur->val.p + 1, val, val_len );
 631              		.loc 1 177 0
 632 0016 4369     		ldr	r3, [r0, #20]
 633 0018 1C70     		strb	r4, [r3]
 178:Source\mbedtls_open\library/x509_create.c **** 
 634              		.loc 1 178 0
 635 001a 4069     		ldr	r0, [r0, #20]
 636              	.LVL105:
 637 001c 0130     		adds	r0, r0, #1
 638 001e 059A     		ldr	r2, [sp, #20]
 639 0020 0499     		ldr	r1, [sp, #16]
 640 0022 FFF7FEFF 		bl	memcpy
 641              	.LVL106:
 180:Source\mbedtls_open\library/x509_create.c **** }
 642              		.loc 1 180 0
 643 0026 0020     		movs	r0, #0
 644 0028 00E0     		b	.L53
 645              	.LVL107:
 646              	.L54:
 174:Source\mbedtls_open\library/x509_create.c ****     }
 647              		.loc 1 174 0
 648 002a 0148     		ldr	r0, .L55
 649              	.LVL108:
 650              	.L53:
 181:Source\mbedtls_open\library/x509_create.c **** 
 651              		.loc 1 181 0
 652 002c 02B0     		add	sp, sp, #8
 653              		@ sp needed
 654              	.LVL109:
 655 002e 10BD     		pop	{r4, pc}
 656              	.L56:
 657              		.align	2
 658              	.L55:
ARM GAS  C:\Users\Phuong\AppData\Local\Temp\ccKtHcUM.s 			page 19


 659 0030 80D7FFFF 		.word	-10368
 660              		.cfi_endproc
 661              	.LFE12:
 662              		.size	mbedtls_x509_set_extension, .-mbedtls_x509_set_extension
 663              		.section	.text.mbedtls_x509_write_names,"ax",%progbits
 664              		.align	2
 665              		.global	mbedtls_x509_write_names
 666              		.code	16
 667              		.thumb_func
 668              		.type	mbedtls_x509_write_names, %function
 669              	mbedtls_x509_write_names:
 670              	.LFB14:
 235:Source\mbedtls_open\library/x509_create.c ****     int ret;
 671              		.loc 1 235 0
 672              		.cfi_startproc
 673              		@ args = 0, pretend = 0, frame = 0
 674              		@ frame_needed = 0, uses_anonymous_args = 0
 675              	.LVL110:
 676 0000 F0B5     		push	{r4, r5, r6, r7, lr}
 677              		.cfi_def_cfa_offset 20
 678              		.cfi_offset 4, -20
 679              		.cfi_offset 5, -16
 680              		.cfi_offset 6, -12
 681              		.cfi_offset 7, -8
 682              		.cfi_offset 14, -4
 683 0002 83B0     		sub	sp, sp, #12
 684              		.cfi_def_cfa_offset 32
 685 0004 0500     		movs	r5, r0
 686 0006 0E00     		movs	r6, r1
 687 0008 1400     		movs	r4, r2
 688              	.LVL111:
 237:Source\mbedtls_open\library/x509_create.c ****     mbedtls_asn1_named_data *cur = first;
 689              		.loc 1 237 0
 690 000a 0027     		movs	r7, #0
 240:Source\mbedtls_open\library/x509_create.c ****     {
 691              		.loc 1 240 0
 692 000c 0DE0     		b	.L58
 693              	.LVL112:
 694              	.L60:
 242:Source\mbedtls_open\library/x509_create.c ****                                             cur->oid.len,
 695              		.loc 1 242 0
 696 000e A268     		ldr	r2, [r4, #8]
 697 0010 6368     		ldr	r3, [r4, #4]
 698 0012 6169     		ldr	r1, [r4, #20]
 699 0014 2069     		ldr	r0, [r4, #16]
 700 0016 0190     		str	r0, [sp, #4]
 701 0018 0091     		str	r1, [sp]
 702 001a 3100     		movs	r1, r6
 703 001c 2800     		movs	r0, r5
 704 001e FFF7FEFF 		bl	x509_write_name
 705              	.LVL113:
 706 0022 0028     		cmp	r0, #0
 707 0024 13DB     		blt	.L59
 242:Source\mbedtls_open\library/x509_create.c ****                                             cur->oid.len,
 708              		.loc 1 242 0 is_stmt 0 discriminator 2
 709 0026 3F18     		adds	r7, r7, r0
 710              	.LVL114:
ARM GAS  C:\Users\Phuong\AppData\Local\Temp\ccKtHcUM.s 			page 20


 245:Source\mbedtls_open\library/x509_create.c ****     }
 711              		.loc 1 245 0 is_stmt 1 discriminator 2
 712 0028 A469     		ldr	r4, [r4, #24]
 713              	.LVL115:
 714              	.L58:
 240:Source\mbedtls_open\library/x509_create.c ****     {
 715              		.loc 1 240 0
 716 002a 002C     		cmp	r4, #0
 717 002c EFD1     		bne	.L60
 248:Source\mbedtls_open\library/x509_create.c ****     MBEDTLS_ASN1_CHK_ADD( len, mbedtls_asn1_write_tag( p, start, MBEDTLS_ASN1_CONSTRUCTED |
 718              		.loc 1 248 0
 719 002e 3A00     		movs	r2, r7
 720 0030 3100     		movs	r1, r6
 721 0032 2800     		movs	r0, r5
 722 0034 FFF7FEFF 		bl	mbedtls_asn1_write_len
 723              	.LVL116:
 724 0038 0028     		cmp	r0, #0
 725 003a 08DB     		blt	.L59
 248:Source\mbedtls_open\library/x509_create.c ****     MBEDTLS_ASN1_CHK_ADD( len, mbedtls_asn1_write_tag( p, start, MBEDTLS_ASN1_CONSTRUCTED |
 726              		.loc 1 248 0 is_stmt 0 discriminator 2
 727 003c C719     		adds	r7, r0, r7
 728              	.LVL117:
 249:Source\mbedtls_open\library/x509_create.c ****                                                  MBEDTLS_ASN1_SEQUENCE ) );
 729              		.loc 1 249 0 is_stmt 1 discriminator 2
 730 003e 3022     		movs	r2, #48
 731 0040 3100     		movs	r1, r6
 732 0042 2800     		movs	r0, r5
 733              	.LVL118:
 734 0044 FFF7FEFF 		bl	mbedtls_asn1_write_tag
 735              	.LVL119:
 736 0048 0028     		cmp	r0, #0
 737 004a 00DB     		blt	.L59
 738 004c C019     		adds	r0, r0, r7
 739              	.LVL120:
 740              	.L59:
 253:Source\mbedtls_open\library/x509_create.c **** 
 741              		.loc 1 253 0
 742 004e 03B0     		add	sp, sp, #12
 743              		@ sp needed
 744              	.LVL121:
 745              	.LVL122:
 746              	.LVL123:
 747 0050 F0BD     		pop	{r4, r5, r6, r7, pc}
 748              		.cfi_endproc
 749              	.LFE14:
 750              		.size	mbedtls_x509_write_names, .-mbedtls_x509_write_names
 751 0052 C046     		.section	.text.mbedtls_x509_write_sig,"ax",%progbits
 752              		.align	2
 753              		.global	mbedtls_x509_write_sig
 754              		.code	16
 755              		.thumb_func
 756              		.type	mbedtls_x509_write_sig, %function
 757              	mbedtls_x509_write_sig:
 758              	.LFB15:
 258:Source\mbedtls_open\library/x509_create.c ****     int ret;
 759              		.loc 1 258 0
 760              		.cfi_startproc
ARM GAS  C:\Users\Phuong\AppData\Local\Temp\ccKtHcUM.s 			page 21


 761              		@ args = 8, pretend = 0, frame = 8
 762              		@ frame_needed = 0, uses_anonymous_args = 0
 763              	.LVL124:
 764 0000 F0B5     		push	{r4, r5, r6, r7, lr}
 765              		.cfi_def_cfa_offset 20
 766              		.cfi_offset 4, -20
 767              		.cfi_offset 5, -16
 768              		.cfi_offset 6, -12
 769              		.cfi_offset 7, -8
 770              		.cfi_offset 14, -4
 771 0002 85B0     		sub	sp, sp, #20
 772              		.cfi_def_cfa_offset 40
 773 0004 0700     		movs	r7, r0
 774 0006 0D00     		movs	r5, r1
 775 0008 0392     		str	r2, [sp, #12]
 776 000a 1E00     		movs	r6, r3
 777 000c 0B9C     		ldr	r4, [sp, #44]
 778              	.LVL125:
 262:Source\mbedtls_open\library/x509_create.c ****         return( MBEDTLS_ERR_ASN1_BUF_TOO_SMALL );
 779              		.loc 1 262 0
 780 000e 0068     		ldr	r0, [r0]
 781              	.LVL126:
 782 0010 8842     		cmp	r0, r1
 783 0012 2DD3     		bcc	.L66
 262:Source\mbedtls_open\library/x509_create.c ****         return( MBEDTLS_ERR_ASN1_BUF_TOO_SMALL );
 784              		.loc 1 262 0 is_stmt 0 discriminator 1
 785 0014 431A     		subs	r3, r0, r1
 786              	.LVL127:
 787 0016 A342     		cmp	r3, r4
 788 0018 2DD3     		bcc	.L67
 789              	.LVL128:
 266:Source\mbedtls_open\library/x509_create.c ****     memcpy( *p, sig, len );
 790              		.loc 1 266 0 is_stmt 1
 791 001a 001B     		subs	r0, r0, r4
 792 001c 3860     		str	r0, [r7]
 267:Source\mbedtls_open\library/x509_create.c **** 
 793              		.loc 1 267 0
 794 001e 2200     		movs	r2, r4
 795              	.LVL129:
 796 0020 0A99     		ldr	r1, [sp, #40]
 797              	.LVL130:
 798 0022 FFF7FEFF 		bl	memcpy
 799              	.LVL131:
 269:Source\mbedtls_open\library/x509_create.c ****         return( MBEDTLS_ERR_ASN1_BUF_TOO_SMALL );
 800              		.loc 1 269 0
 801 0026 3B68     		ldr	r3, [r7]
 802 0028 5A1B     		subs	r2, r3, r5
 803 002a 002A     		cmp	r2, #0
 804 002c 26DD     		ble	.L68
 272:Source\mbedtls_open\library/x509_create.c ****     len += 1;
 805              		.loc 1 272 0
 806 002e 013B     		subs	r3, r3, #1
 807 0030 3B60     		str	r3, [r7]
 808 0032 0022     		movs	r2, #0
 809 0034 1A70     		strb	r2, [r3]
 273:Source\mbedtls_open\library/x509_create.c **** 
 810              		.loc 1 273 0
ARM GAS  C:\Users\Phuong\AppData\Local\Temp\ccKtHcUM.s 			page 22


 811 0036 0134     		adds	r4, r4, #1
 812              	.LVL132:
 275:Source\mbedtls_open\library/x509_create.c ****     MBEDTLS_ASN1_CHK_ADD( len, mbedtls_asn1_write_tag( p, start, MBEDTLS_ASN1_BIT_STRING ) );
 813              		.loc 1 275 0
 814 0038 2200     		movs	r2, r4
 815 003a 2900     		movs	r1, r5
 816 003c 3800     		movs	r0, r7
 817 003e FFF7FEFF 		bl	mbedtls_asn1_write_len
 818              	.LVL133:
 819 0042 0028     		cmp	r0, #0
 820 0044 1CDB     		blt	.L65
 275:Source\mbedtls_open\library/x509_create.c ****     MBEDTLS_ASN1_CHK_ADD( len, mbedtls_asn1_write_tag( p, start, MBEDTLS_ASN1_BIT_STRING ) );
 821              		.loc 1 275 0 is_stmt 0 discriminator 2
 822 0046 0419     		adds	r4, r0, r4
 823              	.LVL134:
 276:Source\mbedtls_open\library/x509_create.c **** 
 824              		.loc 1 276 0 is_stmt 1 discriminator 2
 825 0048 0322     		movs	r2, #3
 826 004a 2900     		movs	r1, r5
 827 004c 3800     		movs	r0, r7
 828              	.LVL135:
 829 004e FFF7FEFF 		bl	mbedtls_asn1_write_tag
 830              	.LVL136:
 831 0052 0028     		cmp	r0, #0
 832 0054 14DB     		blt	.L65
 833 0056 0419     		adds	r4, r0, r4
 834              	.LVL137:
 280:Source\mbedtls_open\library/x509_create.c ****                                                         oid_len, 0 ) );
 835              		.loc 1 280 0 discriminator 2
 836 0058 0023     		movs	r3, #0
 837 005a 0093     		str	r3, [sp]
 838 005c 3300     		movs	r3, r6
 839 005e 039A     		ldr	r2, [sp, #12]
 840 0060 2900     		movs	r1, r5
 841 0062 3800     		movs	r0, r7
 842              	.LVL138:
 843 0064 FFF7FEFF 		bl	mbedtls_asn1_write_algorithm_identifier
 844              	.LVL139:
 845 0068 0028     		cmp	r0, #0
 846 006a 09DB     		blt	.L65
 847 006c 0019     		adds	r0, r0, r4
 848              	.LVL140:
 283:Source\mbedtls_open\library/x509_create.c **** }
 849              		.loc 1 283 0 discriminator 2
 850 006e 07E0     		b	.L65
 851              	.LVL141:
 852              	.L66:
 263:Source\mbedtls_open\library/x509_create.c **** 
 853              		.loc 1 263 0
 854 0070 6C20     		movs	r0, #108
 855 0072 4042     		rsbs	r0, r0, #0
 856 0074 04E0     		b	.L65
 857              	.LVL142:
 858              	.L67:
 859 0076 6C20     		movs	r0, #108
 860 0078 4042     		rsbs	r0, r0, #0
 861 007a 01E0     		b	.L65
ARM GAS  C:\Users\Phuong\AppData\Local\Temp\ccKtHcUM.s 			page 23


 862              	.LVL143:
 863              	.L68:
 270:Source\mbedtls_open\library/x509_create.c **** 
 864              		.loc 1 270 0
 865 007c 6C20     		movs	r0, #108
 866 007e 4042     		rsbs	r0, r0, #0
 867              	.LVL144:
 868              	.L65:
 284:Source\mbedtls_open\library/x509_create.c **** 
 869              		.loc 1 284 0
 870 0080 05B0     		add	sp, sp, #20
 871              		@ sp needed
 872              	.LVL145:
 873              	.LVL146:
 874              	.LVL147:
 875 0082 F0BD     		pop	{r4, r5, r6, r7, pc}
 876              		.cfi_endproc
 877              	.LFE15:
 878              		.size	mbedtls_x509_write_sig, .-mbedtls_x509_write_sig
 879              		.section	.text.mbedtls_x509_write_extensions,"ax",%progbits
 880              		.align	2
 881              		.global	mbedtls_x509_write_extensions
 882              		.code	16
 883              		.thumb_func
 884              		.type	mbedtls_x509_write_extensions, %function
 885              	mbedtls_x509_write_extensions:
 886              	.LFB17:
 313:Source\mbedtls_open\library/x509_create.c **** 
 314:Source\mbedtls_open\library/x509_create.c **** /*
 315:Source\mbedtls_open\library/x509_create.c ****  * Extension  ::=  SEQUENCE  {
 316:Source\mbedtls_open\library/x509_create.c ****  *     extnID      OBJECT IDENTIFIER,
 317:Source\mbedtls_open\library/x509_create.c ****  *     critical    BOOLEAN DEFAULT FALSE,
 318:Source\mbedtls_open\library/x509_create.c ****  *     extnValue   OCTET STRING
 319:Source\mbedtls_open\library/x509_create.c ****  *                 -- contains the DER encoding of an ASN.1 value
 320:Source\mbedtls_open\library/x509_create.c ****  *                 -- corresponding to the extension type identified
 321:Source\mbedtls_open\library/x509_create.c ****  *                 -- by extnID
 322:Source\mbedtls_open\library/x509_create.c ****  *     }
 323:Source\mbedtls_open\library/x509_create.c ****  */
 324:Source\mbedtls_open\library/x509_create.c **** int mbedtls_x509_write_extensions( unsigned char **p, unsigned char *start,
 325:Source\mbedtls_open\library/x509_create.c ****                            mbedtls_asn1_named_data *first )
 326:Source\mbedtls_open\library/x509_create.c **** {
 887              		.loc 1 326 0
 888              		.cfi_startproc
 889              		@ args = 0, pretend = 0, frame = 0
 890              		@ frame_needed = 0, uses_anonymous_args = 0
 891              	.LVL148:
 892 0000 F8B5     		push	{r3, r4, r5, r6, r7, lr}
 893              		.cfi_def_cfa_offset 24
 894              		.cfi_offset 3, -24
 895              		.cfi_offset 4, -20
 896              		.cfi_offset 5, -16
 897              		.cfi_offset 6, -12
 898              		.cfi_offset 7, -8
 899              		.cfi_offset 14, -4
 900 0002 0600     		movs	r6, r0
 901 0004 0D00     		movs	r5, r1
 902 0006 1400     		movs	r4, r2
ARM GAS  C:\Users\Phuong\AppData\Local\Temp\ccKtHcUM.s 			page 24


 903              	.LVL149:
 327:Source\mbedtls_open\library/x509_create.c ****     int ret;
 328:Source\mbedtls_open\library/x509_create.c ****     size_t len = 0;
 904              		.loc 1 328 0
 905 0008 0027     		movs	r7, #0
 329:Source\mbedtls_open\library/x509_create.c ****     mbedtls_asn1_named_data *cur_ext = first;
 330:Source\mbedtls_open\library/x509_create.c **** 
 331:Source\mbedtls_open\library/x509_create.c ****     while( cur_ext != NULL )
 906              		.loc 1 331 0
 907 000a 08E0     		b	.L73
 908              	.LVL150:
 909              	.L75:
 332:Source\mbedtls_open\library/x509_create.c ****     {
 333:Source\mbedtls_open\library/x509_create.c ****         MBEDTLS_ASN1_CHK_ADD( len, x509_write_extension( p, start, cur_ext ) );
 910              		.loc 1 333 0
 911 000c 2200     		movs	r2, r4
 912 000e 2900     		movs	r1, r5
 913 0010 3000     		movs	r0, r6
 914 0012 FFF7FEFF 		bl	x509_write_extension
 915              	.LVL151:
 916 0016 0028     		cmp	r0, #0
 917 0018 04DB     		blt	.L74
 918              		.loc 1 333 0 is_stmt 0 discriminator 2
 919 001a 3F18     		adds	r7, r7, r0
 920              	.LVL152:
 334:Source\mbedtls_open\library/x509_create.c ****         cur_ext = cur_ext->next;
 921              		.loc 1 334 0 is_stmt 1 discriminator 2
 922 001c A469     		ldr	r4, [r4, #24]
 923              	.LVL153:
 924              	.L73:
 331:Source\mbedtls_open\library/x509_create.c ****     {
 925              		.loc 1 331 0
 926 001e 002C     		cmp	r4, #0
 927 0020 F4D1     		bne	.L75
 335:Source\mbedtls_open\library/x509_create.c ****     }
 336:Source\mbedtls_open\library/x509_create.c **** 
 337:Source\mbedtls_open\library/x509_create.c ****     return( (int) len );
 928              		.loc 1 337 0
 929 0022 3800     		movs	r0, r7
 930              	.L74:
 338:Source\mbedtls_open\library/x509_create.c **** }
 931              		.loc 1 338 0
 932              		@ sp needed
 933              	.LVL154:
 934              	.LVL155:
 935              	.LVL156:
 936              	.LVL157:
 937 0024 F8BD     		pop	{r3, r4, r5, r6, r7, pc}
 938              		.cfi_endproc
 939              	.LFE17:
 940              		.size	mbedtls_x509_write_extensions, .-mbedtls_x509_write_extensions
 941 0026 C046     		.section	.rodata
 942              		.align	2
 943              		.set	.LANCHOR0,. + 0
 944              		.type	x509_attrs, %object
 945              		.size	x509_attrs, 348
 946              	x509_attrs:
ARM GAS  C:\Users\Phuong\AppData\Local\Temp\ccKtHcUM.s 			page 25


 947 0000 0C000000 		.word	.LC3
 948 0004 02000000 		.word	2
 949 0008 10000000 		.word	.LC4
 950 000c 14000000 		.word	.LC5
 951 0010 0A000000 		.word	10
 952 0014 10000000 		.word	.LC4
 953 0018 20000000 		.word	.LC6
 954 001c 01000000 		.word	1
 955 0020 24000000 		.word	.LC7
 956 0024 28000000 		.word	.LC8
 957 0028 0B000000 		.word	11
 958 002c 24000000 		.word	.LC7
 959 0030 34000000 		.word	.LC9
 960 0034 01000000 		.word	1
 961 0038 38000000 		.word	.LC10
 962 003c 3C000000 		.word	.LC11
 963 0040 10000000 		.word	16
 964 0044 38000000 		.word	.LC10
 965 0048 50000000 		.word	.LC12
 966 004c 01000000 		.word	1
 967 0050 54000000 		.word	.LC13
 968 0054 58000000 		.word	.LC14
 969 0058 08000000 		.word	8
 970 005c 54000000 		.word	.LC13
 971 0060 64000000 		.word	.LC15
 972 0064 01000000 		.word	1
 973 0068 00000000 		.word	.LC1
 974 006c 68000000 		.word	.LC16
 975 0070 02000000 		.word	2
 976 0074 6C000000 		.word	.LC17
 977 0078 70000000 		.word	.LC18
 978 007c 16000000 		.word	22
 979 0080 6C000000 		.word	.LC17
 980 0084 88000000 		.word	.LC19
 981 0088 02000000 		.word	2
 982 008c 8C000000 		.word	.LC20
 983 0090 90000000 		.word	.LC21
 984 0094 13000000 		.word	19
 985 0098 8C000000 		.word	.LC20
 986 009c A4000000 		.word	.LC22
 987 00a0 0C000000 		.word	12
 988 00a4 00000000 		.word	.LC1
 989 00a8 B4000000 		.word	.LC23
 990 00ac 0C000000 		.word	12
 991 00b0 C4000000 		.word	.LC24
 992 00b4 C8000000 		.word	.LC25
 993 00b8 0D000000 		.word	13
 994 00bc D8000000 		.word	.LC26
 995 00c0 DC000000 		.word	.LC27
 996 00c4 0A000000 		.word	10
 997 00c8 E8000000 		.word	.LC28
 998 00cc EC000000 		.word	.LC29
 999 00d0 0B000000 		.word	11
 1000 00d4 F8000000 		.word	.LC30
 1001 00d8 FC000000 		.word	.LC31
 1002 00dc 05000000 		.word	5
 1003 00e0 04010000 		.word	.LC32
ARM GAS  C:\Users\Phuong\AppData\Local\Temp\ccKtHcUM.s 			page 26


 1004 00e4 08010000 		.word	.LC33
 1005 00e8 07000000 		.word	7
 1006 00ec 10010000 		.word	.LC34
 1007 00f0 14010000 		.word	.LC35
 1008 00f4 02000000 		.word	2
 1009 00f8 10010000 		.word	.LC34
 1010 00fc 18010000 		.word	.LC36
 1011 0100 09000000 		.word	9
 1012 0104 24010000 		.word	.LC37
 1013 0108 28010000 		.word	.LC38
 1014 010c 02000000 		.word	2
 1015 0110 24010000 		.word	.LC37
 1016 0114 2C010000 		.word	.LC39
 1017 0118 08000000 		.word	8
 1018 011c 38010000 		.word	.LC40
 1019 0120 3C010000 		.word	.LC41
 1020 0124 09000000 		.word	9
 1021 0128 48010000 		.word	.LC42
 1022 012c 4C010000 		.word	.LC43
 1023 0130 13000000 		.word	19
 1024 0134 60010000 		.word	.LC44
 1025 0138 64010000 		.word	.LC45
 1026 013c 0F000000 		.word	15
 1027 0140 74010000 		.word	.LC46
 1028 0144 80010000 		.word	.LC47
 1029 0148 02000000 		.word	2
 1030 014c 74010000 		.word	.LC46
 1031 0150 00000000 		.word	0
 1032 0154 00000000 		.word	0
 1033 0158 00000000 		.word	0
 1034              		.section	.rodata.str1.4,"aMS",%progbits,1
 1035              		.align	2
 1036              	.LC1:
 1037 0000 2A864886 		.ascii	"*\206H\206\367\015\001\011\001\000"
 1037      F70D0109 
 1037      0100
 1038 000a 0000     		.space	2
 1039              	.LC3:
 1040 000c 434E00   		.ascii	"CN\000"
 1041 000f 00       		.space	1
 1042              	.LC4:
 1043 0010 55040300 		.ascii	"U\004\003\000"
 1044              	.LC5:
 1045 0014 636F6D6D 		.ascii	"commonName\000"
 1045      6F6E4E61 
 1045      6D6500
 1046 001f 00       		.space	1
 1047              	.LC6:
 1048 0020 4300     		.ascii	"C\000"
 1049 0022 0000     		.space	2
 1050              	.LC7:
 1051 0024 55040600 		.ascii	"U\004\006\000"
 1052              	.LC8:
 1053 0028 636F756E 		.ascii	"countryName\000"
 1053      7472794E 
 1053      616D6500 
 1054              	.LC9:
ARM GAS  C:\Users\Phuong\AppData\Local\Temp\ccKtHcUM.s 			page 27


 1055 0034 4F00     		.ascii	"O\000"
 1056 0036 0000     		.space	2
 1057              	.LC10:
 1058 0038 55040A00 		.ascii	"U\004\012\000"
 1059              	.LC11:
 1060 003c 6F726761 		.ascii	"organizationName\000"
 1060      6E697A61 
 1060      74696F6E 
 1060      4E616D65 
 1060      00
 1061 004d 000000   		.space	3
 1062              	.LC12:
 1063 0050 4C00     		.ascii	"L\000"
 1064 0052 0000     		.space	2
 1065              	.LC13:
 1066 0054 55040700 		.ascii	"U\004\007\000"
 1067              	.LC14:
 1068 0058 6C6F6361 		.ascii	"locality\000"
 1068      6C697479 
 1068      00
 1069 0061 000000   		.space	3
 1070              	.LC15:
 1071 0064 5200     		.ascii	"R\000"
 1072 0066 0000     		.space	2
 1073              	.LC16:
 1074 0068 4F5500   		.ascii	"OU\000"
 1075 006b 00       		.space	1
 1076              	.LC17:
 1077 006c 55040B00 		.ascii	"U\004\013\000"
 1078              	.LC18:
 1079 0070 6F726761 		.ascii	"organizationalUnitName\000"
 1079      6E697A61 
 1079      74696F6E 
 1079      616C556E 
 1079      69744E61 
 1080 0087 00       		.space	1
 1081              	.LC19:
 1082 0088 535400   		.ascii	"ST\000"
 1083 008b 00       		.space	1
 1084              	.LC20:
 1085 008c 55040800 		.ascii	"U\004\010\000"
 1086              	.LC21:
 1087 0090 73746174 		.ascii	"stateOrProvinceName\000"
 1087      654F7250 
 1087      726F7669 
 1087      6E63654E 
 1087      616D6500 
 1088              	.LC22:
 1089 00a4 656D6169 		.ascii	"emailAddress\000"
 1089      6C416464 
 1089      72657373 
 1089      00
 1090 00b1 000000   		.space	3
 1091              	.LC23:
 1092 00b4 73657269 		.ascii	"serialNumber\000"
 1092      616C4E75 
 1092      6D626572 
ARM GAS  C:\Users\Phuong\AppData\Local\Temp\ccKtHcUM.s 			page 28


 1092      00
 1093 00c1 000000   		.space	3
 1094              	.LC24:
 1095 00c4 55040500 		.ascii	"U\004\005\000"
 1096              	.LC25:
 1097 00c8 706F7374 		.ascii	"postalAddress\000"
 1097      616C4164 
 1097      64726573 
 1097      7300
 1098 00d6 0000     		.space	2
 1099              	.LC26:
 1100 00d8 55041000 		.ascii	"U\004\020\000"
 1101              	.LC27:
 1102 00dc 706F7374 		.ascii	"postalCode\000"
 1102      616C436F 
 1102      646500
 1103 00e7 00       		.space	1
 1104              	.LC28:
 1105 00e8 55041100 		.ascii	"U\004\021\000"
 1106              	.LC29:
 1107 00ec 646E5175 		.ascii	"dnQualifier\000"
 1107      616C6966 
 1107      69657200 
 1108              	.LC30:
 1109 00f8 55042E00 		.ascii	"U\004.\000"
 1110              	.LC31:
 1111 00fc 7469746C 		.ascii	"title\000"
 1111      6500
 1112 0102 0000     		.space	2
 1113              	.LC32:
 1114 0104 55040C00 		.ascii	"U\004\014\000"
 1115              	.LC33:
 1116 0108 7375724E 		.ascii	"surName\000"
 1116      616D6500 
 1117              	.LC34:
 1118 0110 55040400 		.ascii	"U\004\004\000"
 1119              	.LC35:
 1120 0114 534E00   		.ascii	"SN\000"
 1121 0117 00       		.space	1
 1122              	.LC36:
 1123 0118 67697665 		.ascii	"givenName\000"
 1123      6E4E616D 
 1123      6500
 1124 0122 0000     		.space	2
 1125              	.LC37:
 1126 0124 55042A00 		.ascii	"U\004*\000"
 1127              	.LC38:
 1128 0128 474E00   		.ascii	"GN\000"
 1129 012b 00       		.space	1
 1130              	.LC39:
 1131 012c 696E6974 		.ascii	"initials\000"
 1131      69616C73 
 1131      00
 1132 0135 000000   		.space	3
 1133              	.LC40:
 1134 0138 55042B00 		.ascii	"U\004+\000"
 1135              	.LC41:
ARM GAS  C:\Users\Phuong\AppData\Local\Temp\ccKtHcUM.s 			page 29


 1136 013c 70736575 		.ascii	"pseudonym\000"
 1136      646F6E79 
 1136      6D00
 1137 0146 0000     		.space	2
 1138              	.LC42:
 1139 0148 55044100 		.ascii	"U\004A\000"
 1140              	.LC43:
 1141 014c 67656E65 		.ascii	"generationQualifier\000"
 1141      72617469 
 1141      6F6E5175 
 1141      616C6966 
 1141      69657200 
 1142              	.LC44:
 1143 0160 55042C00 		.ascii	"U\004,\000"
 1144              	.LC45:
 1145 0164 646F6D61 		.ascii	"domainComponent\000"
 1145      696E436F 
 1145      6D706F6E 
 1145      656E7400 
 1146              	.LC46:
 1147 0174 09922689 		.ascii	"\011\222&\211\223\362,d\001\031\000"
 1147      93F22C64 
 1147      011900
 1148 017f 00       		.space	1
 1149              	.LC47:
 1150 0180 444300   		.ascii	"DC\000"
 1151              		.text
 1152              	.Letext0:
 1153              		.file 2 ".\\Source\\mbedtls_open\\include/mbedtls/asn1.h"
 1154              		.file 3 "c:\\program files (x86)\\cypress\\psoc creator\\4.2\\psoc creator\\import\\gnu\\arm\\5.4.
 1155              		.file 4 "c:\\program files (x86)\\cypress\\psoc creator\\4.2\\psoc creator\\import\\gnu\\arm\\5.4.
 1156              		.file 5 ".\\Source\\mbedtls_open\\include/mbedtls/asn1write.h"