ARM GAS  C:\Users\Phuong\AppData\Local\Temp\ccRojO4s.s 			page 1


   1              		.syntax unified
   2              		.cpu cortex-m0plus
   3              		.fpu softvfp
   4              		.eabi_attribute 20, 1
   5              		.eabi_attribute 21, 1
   6              		.eabi_attribute 23, 3
   7              		.eabi_attribute 24, 1
   8              		.eabi_attribute 25, 1
   9              		.eabi_attribute 26, 1
  10              		.eabi_attribute 30, 1
  11              		.eabi_attribute 34, 0
  12              		.eabi_attribute 18, 4
  13              		.thumb
  14              		.syntax unified
  15              		.file	"xio.c"
  16              		.text
  17              	.Ltext0:
  18              		.cfi_sections	.debug_frame
  19              		.section	.text.xio_setoption,"ax",%progbits
  20              		.align	2
  21              		.global	xio_setoption
  22              		.code	16
  23              		.thumb_func
  24              		.type	xio_setoption, %function
  25              	xio_setoption:
  26              	.LFB7:
  27              		.file 1 "Source\\azure_iot_sdk\\c-utility\\src\\xio.c"
   1:Source\azure_iot_sdk\c-utility\src/xio.c **** // Copyright (c) Microsoft. All rights reserved.
   2:Source\azure_iot_sdk\c-utility\src/xio.c **** // Licensed under the MIT license. See LICENSE file in the project root for full license informatio
   3:Source\azure_iot_sdk\c-utility\src/xio.c **** 
   4:Source\azure_iot_sdk\c-utility\src/xio.c **** #include <stdlib.h>
   5:Source\azure_iot_sdk\c-utility\src/xio.c **** #include <stddef.h>
   6:Source\azure_iot_sdk\c-utility\src/xio.c **** #include "azure_c_shared_utility/gballoc.h"
   7:Source\azure_iot_sdk\c-utility\src/xio.c **** #include "azure_c_shared_utility/optimize_size.h"
   8:Source\azure_iot_sdk\c-utility\src/xio.c **** #include "azure_c_shared_utility/xio.h"
   9:Source\azure_iot_sdk\c-utility\src/xio.c **** #include "azure_c_shared_utility/xlogging.h"
  10:Source\azure_iot_sdk\c-utility\src/xio.c **** 
  11:Source\azure_iot_sdk\c-utility\src/xio.c **** static const char* CONCRETE_OPTIONS = "concreteOptions";
  12:Source\azure_iot_sdk\c-utility\src/xio.c **** 
  13:Source\azure_iot_sdk\c-utility\src/xio.c **** typedef struct XIO_INSTANCE_TAG
  14:Source\azure_iot_sdk\c-utility\src/xio.c **** {
  15:Source\azure_iot_sdk\c-utility\src/xio.c ****     const IO_INTERFACE_DESCRIPTION* io_interface_description;
  16:Source\azure_iot_sdk\c-utility\src/xio.c ****     CONCRETE_IO_HANDLE concrete_xio_handle;
  17:Source\azure_iot_sdk\c-utility\src/xio.c **** } XIO_INSTANCE;
  18:Source\azure_iot_sdk\c-utility\src/xio.c **** 
  19:Source\azure_iot_sdk\c-utility\src/xio.c **** XIO_HANDLE xio_create(const IO_INTERFACE_DESCRIPTION* io_interface_description, const void* xio_cre
  20:Source\azure_iot_sdk\c-utility\src/xio.c **** {
  21:Source\azure_iot_sdk\c-utility\src/xio.c ****     XIO_INSTANCE* xio_instance;
  22:Source\azure_iot_sdk\c-utility\src/xio.c ****     /* Codes_SRS_XIO_01_003: [If the argument io_interface_description is NULL, xio_create shall re
  23:Source\azure_iot_sdk\c-utility\src/xio.c ****     if ((io_interface_description == NULL) ||
  24:Source\azure_iot_sdk\c-utility\src/xio.c ****         /* Codes_SRS_XIO_01_004: [If any io_interface_description member is NULL, xio_create shall 
  25:Source\azure_iot_sdk\c-utility\src/xio.c ****         (io_interface_description->concrete_io_retrieveoptions == NULL) ||
  26:Source\azure_iot_sdk\c-utility\src/xio.c ****         (io_interface_description->concrete_io_create == NULL) ||
  27:Source\azure_iot_sdk\c-utility\src/xio.c ****         (io_interface_description->concrete_io_destroy == NULL) ||
  28:Source\azure_iot_sdk\c-utility\src/xio.c ****         (io_interface_description->concrete_io_open == NULL) ||
  29:Source\azure_iot_sdk\c-utility\src/xio.c ****         (io_interface_description->concrete_io_close == NULL) ||
  30:Source\azure_iot_sdk\c-utility\src/xio.c ****         (io_interface_description->concrete_io_send == NULL) ||
ARM GAS  C:\Users\Phuong\AppData\Local\Temp\ccRojO4s.s 			page 2


  31:Source\azure_iot_sdk\c-utility\src/xio.c ****         (io_interface_description->concrete_io_dowork == NULL) ||
  32:Source\azure_iot_sdk\c-utility\src/xio.c ****         (io_interface_description->concrete_io_setoption == NULL))
  33:Source\azure_iot_sdk\c-utility\src/xio.c ****     {
  34:Source\azure_iot_sdk\c-utility\src/xio.c ****         xio_instance = NULL;
  35:Source\azure_iot_sdk\c-utility\src/xio.c ****     }
  36:Source\azure_iot_sdk\c-utility\src/xio.c ****     else
  37:Source\azure_iot_sdk\c-utility\src/xio.c ****     {
  38:Source\azure_iot_sdk\c-utility\src/xio.c ****         xio_instance = (XIO_INSTANCE*)malloc(sizeof(XIO_INSTANCE));
  39:Source\azure_iot_sdk\c-utility\src/xio.c **** 
  40:Source\azure_iot_sdk\c-utility\src/xio.c ****         /* Codes_SRS_XIO_01_017: [If allocating the memory needed for the IO interface fails then x
  41:Source\azure_iot_sdk\c-utility\src/xio.c ****         if (xio_instance != NULL)
  42:Source\azure_iot_sdk\c-utility\src/xio.c ****         {
  43:Source\azure_iot_sdk\c-utility\src/xio.c ****             /* Codes_SRS_XIO_01_001: [xio_create shall return on success a non-NULL handle to a new
  44:Source\azure_iot_sdk\c-utility\src/xio.c ****             xio_instance->io_interface_description = io_interface_description;
  45:Source\azure_iot_sdk\c-utility\src/xio.c **** 
  46:Source\azure_iot_sdk\c-utility\src/xio.c ****             /* Codes_SRS_XIO_01_002: [In order to instantiate the concrete IO implementation the fu
  47:Source\azure_iot_sdk\c-utility\src/xio.c ****             xio_instance->concrete_xio_handle = xio_instance->io_interface_description->concrete_io
  48:Source\azure_iot_sdk\c-utility\src/xio.c **** 
  49:Source\azure_iot_sdk\c-utility\src/xio.c ****             /* Codes_SRS_XIO_01_016: [If the underlying concrete_io_create call fails, xio_create s
  50:Source\azure_iot_sdk\c-utility\src/xio.c ****             if (xio_instance->concrete_xio_handle == NULL)
  51:Source\azure_iot_sdk\c-utility\src/xio.c ****             {
  52:Source\azure_iot_sdk\c-utility\src/xio.c ****                 free(xio_instance);
  53:Source\azure_iot_sdk\c-utility\src/xio.c ****                 xio_instance = NULL;
  54:Source\azure_iot_sdk\c-utility\src/xio.c ****             }
  55:Source\azure_iot_sdk\c-utility\src/xio.c ****         }
  56:Source\azure_iot_sdk\c-utility\src/xio.c ****     }
  57:Source\azure_iot_sdk\c-utility\src/xio.c ****     return (XIO_HANDLE)xio_instance;
  58:Source\azure_iot_sdk\c-utility\src/xio.c **** }
  59:Source\azure_iot_sdk\c-utility\src/xio.c **** 
  60:Source\azure_iot_sdk\c-utility\src/xio.c **** void xio_destroy(XIO_HANDLE xio)
  61:Source\azure_iot_sdk\c-utility\src/xio.c **** {
  62:Source\azure_iot_sdk\c-utility\src/xio.c ****     /* Codes_SRS_XIO_01_007: [If the argument io is NULL, xio_destroy shall do nothing.] */
  63:Source\azure_iot_sdk\c-utility\src/xio.c ****     if (xio != NULL)
  64:Source\azure_iot_sdk\c-utility\src/xio.c ****     {
  65:Source\azure_iot_sdk\c-utility\src/xio.c ****         XIO_INSTANCE* xio_instance = (XIO_INSTANCE*)xio;
  66:Source\azure_iot_sdk\c-utility\src/xio.c **** 
  67:Source\azure_iot_sdk\c-utility\src/xio.c ****         /* Codes_SRS_XIO_01_006: [xio_destroy shall also call the concrete_io_destroy function that
  68:Source\azure_iot_sdk\c-utility\src/xio.c ****         xio_instance->io_interface_description->concrete_io_destroy(xio_instance->concrete_xio_hand
  69:Source\azure_iot_sdk\c-utility\src/xio.c **** 
  70:Source\azure_iot_sdk\c-utility\src/xio.c ****         /* Codes_SRS_XIO_01_005: [xio_destroy shall free all resources associated with the IO handl
  71:Source\azure_iot_sdk\c-utility\src/xio.c ****         free(xio_instance);
  72:Source\azure_iot_sdk\c-utility\src/xio.c ****     }
  73:Source\azure_iot_sdk\c-utility\src/xio.c **** }
  74:Source\azure_iot_sdk\c-utility\src/xio.c **** 
  75:Source\azure_iot_sdk\c-utility\src/xio.c **** int xio_open(XIO_HANDLE xio, ON_IO_OPEN_COMPLETE on_io_open_complete, void* on_io_open_complete_con
  76:Source\azure_iot_sdk\c-utility\src/xio.c **** {
  77:Source\azure_iot_sdk\c-utility\src/xio.c ****     int result;
  78:Source\azure_iot_sdk\c-utility\src/xio.c **** 
  79:Source\azure_iot_sdk\c-utility\src/xio.c ****     if (xio == NULL)
  80:Source\azure_iot_sdk\c-utility\src/xio.c ****     {
  81:Source\azure_iot_sdk\c-utility\src/xio.c ****         /* Codes_SRS_XIO_01_021: [If handle is NULL, xio_open shall return a non-zero value.] */
  82:Source\azure_iot_sdk\c-utility\src/xio.c ****         result = __FAILURE__;
  83:Source\azure_iot_sdk\c-utility\src/xio.c ****     }
  84:Source\azure_iot_sdk\c-utility\src/xio.c ****     else
  85:Source\azure_iot_sdk\c-utility\src/xio.c ****     {
  86:Source\azure_iot_sdk\c-utility\src/xio.c ****         XIO_INSTANCE* xio_instance = (XIO_INSTANCE*)xio;
  87:Source\azure_iot_sdk\c-utility\src/xio.c **** 
ARM GAS  C:\Users\Phuong\AppData\Local\Temp\ccRojO4s.s 			page 3


  88:Source\azure_iot_sdk\c-utility\src/xio.c ****         /* Codes_SRS_XIO_01_019: [xio_open shall call the specific concrete_xio_open function speci
  89:Source\azure_iot_sdk\c-utility\src/xio.c ****         if (xio_instance->io_interface_description->concrete_io_open(xio_instance->concrete_xio_han
  90:Source\azure_iot_sdk\c-utility\src/xio.c ****         {
  91:Source\azure_iot_sdk\c-utility\src/xio.c ****             /* Codes_SRS_XIO_01_022: [If the underlying concrete_io_open fails, xio_open shall retu
  92:Source\azure_iot_sdk\c-utility\src/xio.c ****             result = __FAILURE__;
  93:Source\azure_iot_sdk\c-utility\src/xio.c ****         }
  94:Source\azure_iot_sdk\c-utility\src/xio.c ****         else
  95:Source\azure_iot_sdk\c-utility\src/xio.c ****         {
  96:Source\azure_iot_sdk\c-utility\src/xio.c ****             /* Codes_SRS_XIO_01_020: [On success, xio_open shall return 0.] */
  97:Source\azure_iot_sdk\c-utility\src/xio.c ****             result = 0;
  98:Source\azure_iot_sdk\c-utility\src/xio.c ****         }
  99:Source\azure_iot_sdk\c-utility\src/xio.c ****     }
 100:Source\azure_iot_sdk\c-utility\src/xio.c **** 
 101:Source\azure_iot_sdk\c-utility\src/xio.c ****     return result;
 102:Source\azure_iot_sdk\c-utility\src/xio.c **** }
 103:Source\azure_iot_sdk\c-utility\src/xio.c **** 
 104:Source\azure_iot_sdk\c-utility\src/xio.c **** int xio_close(XIO_HANDLE xio, ON_IO_CLOSE_COMPLETE on_io_close_complete, void* callback_context)
 105:Source\azure_iot_sdk\c-utility\src/xio.c **** {
 106:Source\azure_iot_sdk\c-utility\src/xio.c ****     int result;
 107:Source\azure_iot_sdk\c-utility\src/xio.c **** 
 108:Source\azure_iot_sdk\c-utility\src/xio.c ****     if (xio == NULL)
 109:Source\azure_iot_sdk\c-utility\src/xio.c ****     {
 110:Source\azure_iot_sdk\c-utility\src/xio.c ****         /* Codes_SRS_XIO_01_025: [If handle is NULL, xio_close shall return a non-zero value.] */
 111:Source\azure_iot_sdk\c-utility\src/xio.c ****         result = __FAILURE__;
 112:Source\azure_iot_sdk\c-utility\src/xio.c ****     }
 113:Source\azure_iot_sdk\c-utility\src/xio.c ****     else
 114:Source\azure_iot_sdk\c-utility\src/xio.c ****     {
 115:Source\azure_iot_sdk\c-utility\src/xio.c ****         XIO_INSTANCE* xio_instance = (XIO_INSTANCE*)xio;
 116:Source\azure_iot_sdk\c-utility\src/xio.c **** 
 117:Source\azure_iot_sdk\c-utility\src/xio.c ****         /* Codes_SRS_XIO_01_023: [xio_close shall call the specific concrete_io_close function spec
 118:Source\azure_iot_sdk\c-utility\src/xio.c ****         if (xio_instance->io_interface_description->concrete_io_close(xio_instance->concrete_xio_ha
 119:Source\azure_iot_sdk\c-utility\src/xio.c ****         {
 120:Source\azure_iot_sdk\c-utility\src/xio.c ****             /* Codes_SRS_XIO_01_026: [If the underlying concrete_io_close fails, xio_close shall re
 121:Source\azure_iot_sdk\c-utility\src/xio.c ****             result = __FAILURE__;
 122:Source\azure_iot_sdk\c-utility\src/xio.c ****         }
 123:Source\azure_iot_sdk\c-utility\src/xio.c ****         else
 124:Source\azure_iot_sdk\c-utility\src/xio.c ****         {
 125:Source\azure_iot_sdk\c-utility\src/xio.c ****             /* Codes_SRS_XIO_01_024: [On success, xio_close shall return 0.] */
 126:Source\azure_iot_sdk\c-utility\src/xio.c ****             result = 0;
 127:Source\azure_iot_sdk\c-utility\src/xio.c ****         }
 128:Source\azure_iot_sdk\c-utility\src/xio.c ****     }
 129:Source\azure_iot_sdk\c-utility\src/xio.c **** 
 130:Source\azure_iot_sdk\c-utility\src/xio.c ****     return result;
 131:Source\azure_iot_sdk\c-utility\src/xio.c **** }
 132:Source\azure_iot_sdk\c-utility\src/xio.c **** 
 133:Source\azure_iot_sdk\c-utility\src/xio.c **** int xio_send(XIO_HANDLE xio, const void* buffer, size_t size, ON_SEND_COMPLETE on_send_complete, vo
 134:Source\azure_iot_sdk\c-utility\src/xio.c **** {
 135:Source\azure_iot_sdk\c-utility\src/xio.c ****     int result;
 136:Source\azure_iot_sdk\c-utility\src/xio.c **** 
 137:Source\azure_iot_sdk\c-utility\src/xio.c ****     /* Codes_SRS_XIO_01_011: [No error check shall be performed on buffer and size.] */
 138:Source\azure_iot_sdk\c-utility\src/xio.c ****     /* Codes_SRS_XIO_01_010: [If handle is NULL, xio_send shall return a non-zero value.] */
 139:Source\azure_iot_sdk\c-utility\src/xio.c ****     if (xio == NULL)
 140:Source\azure_iot_sdk\c-utility\src/xio.c ****     {
 141:Source\azure_iot_sdk\c-utility\src/xio.c ****         result = __FAILURE__;
 142:Source\azure_iot_sdk\c-utility\src/xio.c ****     }
 143:Source\azure_iot_sdk\c-utility\src/xio.c ****     else
 144:Source\azure_iot_sdk\c-utility\src/xio.c ****     {
ARM GAS  C:\Users\Phuong\AppData\Local\Temp\ccRojO4s.s 			page 4


 145:Source\azure_iot_sdk\c-utility\src/xio.c ****         XIO_INSTANCE* xio_instance = (XIO_INSTANCE*)xio;
 146:Source\azure_iot_sdk\c-utility\src/xio.c **** 
 147:Source\azure_iot_sdk\c-utility\src/xio.c ****         /* Codes_SRS_XIO_01_008: [xio_send shall pass the sequence of bytes pointed to by buffer to
 148:Source\azure_iot_sdk\c-utility\src/xio.c ****         /* Codes_SRS_XIO_01_009: [On success, xio_send shall return 0.] */
 149:Source\azure_iot_sdk\c-utility\src/xio.c ****         /* Codes_SRS_XIO_01_015: [If the underlying concrete_io_send fails, xio_send shall return a
 150:Source\azure_iot_sdk\c-utility\src/xio.c ****         /* Codes_SRS_XIO_01_027: [xio_send shall pass to the concrete_io_send function the on_send_
 151:Source\azure_iot_sdk\c-utility\src/xio.c ****         result = xio_instance->io_interface_description->concrete_io_send(xio_instance->concrete_xi
 152:Source\azure_iot_sdk\c-utility\src/xio.c ****     }
 153:Source\azure_iot_sdk\c-utility\src/xio.c **** 
 154:Source\azure_iot_sdk\c-utility\src/xio.c ****     return result;
 155:Source\azure_iot_sdk\c-utility\src/xio.c **** }
 156:Source\azure_iot_sdk\c-utility\src/xio.c **** 
 157:Source\azure_iot_sdk\c-utility\src/xio.c **** void xio_dowork(XIO_HANDLE xio)
 158:Source\azure_iot_sdk\c-utility\src/xio.c **** {
 159:Source\azure_iot_sdk\c-utility\src/xio.c ****     /* Codes_SRS_XIO_01_018: [When the handle argument is NULL, xio_dowork shall do nothing.] */
 160:Source\azure_iot_sdk\c-utility\src/xio.c ****     if (xio != NULL)
 161:Source\azure_iot_sdk\c-utility\src/xio.c ****     {
 162:Source\azure_iot_sdk\c-utility\src/xio.c ****         XIO_INSTANCE* xio_instance = (XIO_INSTANCE*)xio;
 163:Source\azure_iot_sdk\c-utility\src/xio.c **** 
 164:Source\azure_iot_sdk\c-utility\src/xio.c ****         /* Codes_SRS_XIO_01_012: [xio_dowork shall call the concrete XIO implementation specified i
 165:Source\azure_iot_sdk\c-utility\src/xio.c ****         xio_instance->io_interface_description->concrete_io_dowork(xio_instance->concrete_xio_handl
 166:Source\azure_iot_sdk\c-utility\src/xio.c ****     }
 167:Source\azure_iot_sdk\c-utility\src/xio.c **** }
 168:Source\azure_iot_sdk\c-utility\src/xio.c **** 
 169:Source\azure_iot_sdk\c-utility\src/xio.c **** int xio_setoption(XIO_HANDLE xio, const char* optionName, const void* value)
 170:Source\azure_iot_sdk\c-utility\src/xio.c **** {
  28              		.loc 1 170 0
  29              		.cfi_startproc
  30              		@ args = 0, pretend = 0, frame = 0
  31              		@ frame_needed = 0, uses_anonymous_args = 0
  32              	.LVL0:
  33 0000 70B5     		push	{r4, r5, r6, lr}
  34              		.cfi_def_cfa_offset 16
  35              		.cfi_offset 4, -16
  36              		.cfi_offset 5, -12
  37              		.cfi_offset 6, -8
  38              		.cfi_offset 14, -4
  39 0002 82B0     		sub	sp, sp, #8
  40              		.cfi_def_cfa_offset 24
  41 0004 0400     		movs	r4, r0
  42 0006 0D00     		movs	r5, r1
  43 0008 1600     		movs	r6, r2
 171:Source\azure_iot_sdk\c-utility\src/xio.c ****     int result;
 172:Source\azure_iot_sdk\c-utility\src/xio.c **** 
 173:Source\azure_iot_sdk\c-utility\src/xio.c ****     /* Codes_SRS_XIO_03_030: [If the xio argument or the optionName argument is NULL, xio_setoption
 174:Source\azure_iot_sdk\c-utility\src/xio.c ****     if (xio == NULL || optionName == NULL)
  44              		.loc 1 174 0
  45 000a 0028     		cmp	r0, #0
  46 000c 22D0     		beq	.L4
  47              		.loc 1 174 0 is_stmt 0 discriminator 1
  48 000e 0029     		cmp	r1, #0
  49 0010 22D0     		beq	.L5
  50              	.LVL1:
  51              	.LBB2:
 175:Source\azure_iot_sdk\c-utility\src/xio.c ****     {
 176:Source\azure_iot_sdk\c-utility\src/xio.c ****         result = __FAILURE__;
 177:Source\azure_iot_sdk\c-utility\src/xio.c ****     }
ARM GAS  C:\Users\Phuong\AppData\Local\Temp\ccRojO4s.s 			page 5


 178:Source\azure_iot_sdk\c-utility\src/xio.c ****     else
 179:Source\azure_iot_sdk\c-utility\src/xio.c ****     {
 180:Source\azure_iot_sdk\c-utility\src/xio.c ****         XIO_INSTANCE* xio_instance = (XIO_INSTANCE*)xio;
 181:Source\azure_iot_sdk\c-utility\src/xio.c **** 
 182:Source\azure_iot_sdk\c-utility\src/xio.c ****         if (strcmp(CONCRETE_OPTIONS, optionName) == 0)
  52              		.loc 1 182 0 is_stmt 1
  53 0012 1548     		ldr	r0, .L8
  54              	.LVL2:
  55 0014 FFF7FEFF 		bl	strcmp
  56              	.LVL3:
  57 0018 0028     		cmp	r0, #0
  58 001a 14D1     		bne	.L3
 183:Source\azure_iot_sdk\c-utility\src/xio.c ****         {
 184:Source\azure_iot_sdk\c-utility\src/xio.c ****             /*then value is a pointer to OPTIONHANDLER_HANDLE*/
 185:Source\azure_iot_sdk\c-utility\src/xio.c ****             if (OptionHandler_FeedOptions((OPTIONHANDLER_HANDLE)value, xio_instance->concrete_xio_h
  59              		.loc 1 185 0
  60 001c 6168     		ldr	r1, [r4, #4]
  61 001e 3000     		movs	r0, r6
  62 0020 FFF7FEFF 		bl	OptionHandler_FeedOptions
  63              	.LVL4:
  64 0024 0028     		cmp	r0, #0
  65 0026 19D0     		beq	.L6
  66              	.LBB3:
 186:Source\azure_iot_sdk\c-utility\src/xio.c ****             {
 187:Source\azure_iot_sdk\c-utility\src/xio.c ****                 LogError("unable to OptionHandler_FeedOptions");
  67              		.loc 1 187 0 discriminator 3
  68 0028 FFF7FEFF 		bl	xlogging_get_log_function
  69              	.LVL5:
  70 002c 041E     		subs	r4, r0, #0
  71              	.LVL6:
  72 002e 17D0     		beq	.L7
  73              		.loc 1 187 0 is_stmt 0 discriminator 4
  74 0030 0E4B     		ldr	r3, .L8+4
  75 0032 0193     		str	r3, [sp, #4]
  76 0034 0123     		movs	r3, #1
  77 0036 0093     		str	r3, [sp]
  78 0038 BA33     		adds	r3, r3, #186
  79 003a 0D4A     		ldr	r2, .L8+8
  80 003c 0D49     		ldr	r1, .L8+12
  81 003e 0020     		movs	r0, #0
  82              	.LVL7:
  83 0040 A047     		blx	r4
  84              	.LVL8:
  85              	.LBE3:
 188:Source\azure_iot_sdk\c-utility\src/xio.c ****                 result = __FAILURE__;
  86              		.loc 1 188 0 is_stmt 1 discriminator 4
  87 0042 BC20     		movs	r0, #188
  88 0044 0DE0     		b	.L2
  89              	.LVL9:
  90              	.L3:
 189:Source\azure_iot_sdk\c-utility\src/xio.c ****             }
 190:Source\azure_iot_sdk\c-utility\src/xio.c ****             else
 191:Source\azure_iot_sdk\c-utility\src/xio.c ****             {
 192:Source\azure_iot_sdk\c-utility\src/xio.c ****                 result = 0;
 193:Source\azure_iot_sdk\c-utility\src/xio.c ****             }
 194:Source\azure_iot_sdk\c-utility\src/xio.c ****         }
 195:Source\azure_iot_sdk\c-utility\src/xio.c ****         else /*passthrough*/
ARM GAS  C:\Users\Phuong\AppData\Local\Temp\ccRojO4s.s 			page 6


 196:Source\azure_iot_sdk\c-utility\src/xio.c ****         {
 197:Source\azure_iot_sdk\c-utility\src/xio.c ****             /* Codes_SRS_XIO_003_028: [xio_setoption shall pass the optionName and value to the con
 198:Source\azure_iot_sdk\c-utility\src/xio.c ****             /* Codes_SRS_XIO_03_029: [xio_setoption shall return 0 upon success.] */
 199:Source\azure_iot_sdk\c-utility\src/xio.c ****             /* Codes_SRS_XIO_03_031: [If the underlying concrete_xio_setoption fails, xio_setOption
 200:Source\azure_iot_sdk\c-utility\src/xio.c ****             result = xio_instance->io_interface_description->concrete_io_setoption(xio_instance->co
  91              		.loc 1 200 0
  92 0046 2368     		ldr	r3, [r4]
  93 0048 DB69     		ldr	r3, [r3, #28]
  94 004a 6068     		ldr	r0, [r4, #4]
  95 004c 3200     		movs	r2, r6
  96 004e 2900     		movs	r1, r5
  97 0050 9847     		blx	r3
  98              	.LVL10:
  99 0052 06E0     		b	.L2
 100              	.LVL11:
 101              	.L4:
 102              	.LBE2:
 176:Source\azure_iot_sdk\c-utility\src/xio.c ****     }
 103              		.loc 1 176 0
 104 0054 B020     		movs	r0, #176
 105              	.LVL12:
 106 0056 04E0     		b	.L2
 107              	.LVL13:
 108              	.L5:
 109 0058 B020     		movs	r0, #176
 110              	.LVL14:
 111 005a 02E0     		b	.L2
 112              	.LVL15:
 113              	.L6:
 114              	.LBB4:
 192:Source\azure_iot_sdk\c-utility\src/xio.c ****             }
 115              		.loc 1 192 0
 116 005c 0020     		movs	r0, #0
 117 005e 00E0     		b	.L2
 118              	.LVL16:
 119              	.L7:
 188:Source\azure_iot_sdk\c-utility\src/xio.c ****             }
 120              		.loc 1 188 0
 121 0060 BC20     		movs	r0, #188
 122              	.LVL17:
 123              	.L2:
 124              	.LBE4:
 201:Source\azure_iot_sdk\c-utility\src/xio.c ****         }
 202:Source\azure_iot_sdk\c-utility\src/xio.c ****     }
 203:Source\azure_iot_sdk\c-utility\src/xio.c **** 
 204:Source\azure_iot_sdk\c-utility\src/xio.c ****     return result;
 205:Source\azure_iot_sdk\c-utility\src/xio.c **** }
 125              		.loc 1 205 0
 126 0062 02B0     		add	sp, sp, #8
 127              		@ sp needed
 128              	.LVL18:
 129              	.LVL19:
 130 0064 70BD     		pop	{r4, r5, r6, pc}
 131              	.L9:
 132 0066 C046     		.align	2
 133              	.L8:
 134 0068 00000000 		.word	.LC0
ARM GAS  C:\Users\Phuong\AppData\Local\Temp\ccRojO4s.s 			page 7


 135 006c 3C000000 		.word	.LC5
 136 0070 00000000 		.word	.LANCHOR0
 137 0074 10000000 		.word	.LC3
 138              		.cfi_endproc
 139              	.LFE7:
 140              		.size	xio_setoption, .-xio_setoption
 141              		.section	.text.xio_CloneOption,"ax",%progbits
 142              		.align	2
 143              		.code	16
 144              		.thumb_func
 145              		.type	xio_CloneOption, %function
 146              	xio_CloneOption:
 147              	.LFB8:
 206:Source\azure_iot_sdk\c-utility\src/xio.c **** 
 207:Source\azure_iot_sdk\c-utility\src/xio.c **** static void* xio_CloneOption(const char* name, const void* value)
 208:Source\azure_iot_sdk\c-utility\src/xio.c **** {
 148              		.loc 1 208 0
 149              		.cfi_startproc
 150              		@ args = 0, pretend = 0, frame = 0
 151              		@ frame_needed = 0, uses_anonymous_args = 0
 152              	.LVL20:
 153 0000 70B5     		push	{r4, r5, r6, lr}
 154              		.cfi_def_cfa_offset 16
 155              		.cfi_offset 4, -16
 156              		.cfi_offset 5, -12
 157              		.cfi_offset 6, -8
 158              		.cfi_offset 14, -4
 159 0002 84B0     		sub	sp, sp, #16
 160              		.cfi_def_cfa_offset 32
 161 0004 0500     		movs	r5, r0
 162 0006 0C00     		movs	r4, r1
 209:Source\azure_iot_sdk\c-utility\src/xio.c ****     void *result;
 210:Source\azure_iot_sdk\c-utility\src/xio.c ****     if (
 163              		.loc 1 210 0
 164 0008 0028     		cmp	r0, #0
 165 000a 01D0     		beq	.L11
 211:Source\azure_iot_sdk\c-utility\src/xio.c ****         (name == NULL) ||
 166              		.loc 1 211 0
 167 000c 0029     		cmp	r1, #0
 168 000e 11D1     		bne	.L12
 169              	.L11:
 170              	.LBB5:
 212:Source\azure_iot_sdk\c-utility\src/xio.c ****         (value == NULL)
 213:Source\azure_iot_sdk\c-utility\src/xio.c ****         )
 214:Source\azure_iot_sdk\c-utility\src/xio.c ****     {
 215:Source\azure_iot_sdk\c-utility\src/xio.c ****         LogError("invalid argument detected: const char* name=%p, const void* value=%p", name, valu
 171              		.loc 1 215 0 discriminator 3
 172 0010 FFF7FEFF 		bl	xlogging_get_log_function
 173              	.LVL21:
 174 0014 061E     		subs	r6, r0, #0
 175              	.LVL22:
 176 0016 23D0     		beq	.L14
 177              		.loc 1 215 0 is_stmt 0 discriminator 4
 178 0018 0394     		str	r4, [sp, #12]
 179 001a 0295     		str	r5, [sp, #8]
 180 001c 134B     		ldr	r3, .L16
 181 001e 0193     		str	r3, [sp, #4]
ARM GAS  C:\Users\Phuong\AppData\Local\Temp\ccRojO4s.s 			page 8


 182 0020 0123     		movs	r3, #1
 183 0022 0093     		str	r3, [sp]
 184 0024 D633     		adds	r3, r3, #214
 185 0026 124A     		ldr	r2, .L16+4
 186 0028 1032     		adds	r2, r2, #16
 187 002a 1249     		ldr	r1, .L16+8
 188 002c 0020     		movs	r0, #0
 189              	.LVL23:
 190 002e B047     		blx	r6
 191              	.LVL24:
 192              	.LBE5:
 216:Source\azure_iot_sdk\c-utility\src/xio.c ****         result = NULL;
 193              		.loc 1 216 0 is_stmt 1 discriminator 4
 194 0030 0024     		movs	r4, #0
 195              	.LVL25:
 196 0032 18E0     		b	.L13
 197              	.LVL26:
 198              	.L12:
 217:Source\azure_iot_sdk\c-utility\src/xio.c ****     }
 218:Source\azure_iot_sdk\c-utility\src/xio.c ****     else
 219:Source\azure_iot_sdk\c-utility\src/xio.c ****     {
 220:Source\azure_iot_sdk\c-utility\src/xio.c ****         if (strcmp(name, CONCRETE_OPTIONS) == 0)
 199              		.loc 1 220 0
 200 0034 1049     		ldr	r1, .L16+12
 201              	.LVL27:
 202 0036 FFF7FEFF 		bl	strcmp
 203              	.LVL28:
 204 003a 0028     		cmp	r0, #0
 205 003c 13D0     		beq	.L13
 206              	.LBB6:
 221:Source\azure_iot_sdk\c-utility\src/xio.c ****         {
 222:Source\azure_iot_sdk\c-utility\src/xio.c ****             result = (void*)value;
 223:Source\azure_iot_sdk\c-utility\src/xio.c ****         }
 224:Source\azure_iot_sdk\c-utility\src/xio.c ****         else
 225:Source\azure_iot_sdk\c-utility\src/xio.c ****         {
 226:Source\azure_iot_sdk\c-utility\src/xio.c ****             LogError("unknown option: %s", name);
 207              		.loc 1 226 0 discriminator 3
 208 003e FFF7FEFF 		bl	xlogging_get_log_function
 209              	.LVL29:
 210 0042 041E     		subs	r4, r0, #0
 211              	.LVL30:
 212 0044 0ED0     		beq	.L15
 213              		.loc 1 226 0 is_stmt 0 discriminator 4
 214 0046 0295     		str	r5, [sp, #8]
 215 0048 0C4B     		ldr	r3, .L16+16
 216 004a 0193     		str	r3, [sp, #4]
 217 004c 0123     		movs	r3, #1
 218 004e 0093     		str	r3, [sp]
 219 0050 E133     		adds	r3, r3, #225
 220 0052 074A     		ldr	r2, .L16+4
 221 0054 1032     		adds	r2, r2, #16
 222 0056 0749     		ldr	r1, .L16+8
 223 0058 0020     		movs	r0, #0
 224              	.LVL31:
 225 005a A047     		blx	r4
 226              	.LVL32:
 227              	.LBE6:
ARM GAS  C:\Users\Phuong\AppData\Local\Temp\ccRojO4s.s 			page 9


 227:Source\azure_iot_sdk\c-utility\src/xio.c ****             result = NULL;
 228              		.loc 1 227 0 is_stmt 1 discriminator 4
 229 005c 0024     		movs	r4, #0
 230              	.LVL33:
 231 005e 02E0     		b	.L13
 232              	.LVL34:
 233              	.L14:
 216:Source\azure_iot_sdk\c-utility\src/xio.c ****     }
 234              		.loc 1 216 0
 235 0060 0024     		movs	r4, #0
 236              	.LVL35:
 237 0062 00E0     		b	.L13
 238              	.LVL36:
 239              	.L15:
 240              		.loc 1 227 0
 241 0064 0024     		movs	r4, #0
 242              	.LVL37:
 243              	.L13:
 228:Source\azure_iot_sdk\c-utility\src/xio.c ****         }
 229:Source\azure_iot_sdk\c-utility\src/xio.c ****     }
 230:Source\azure_iot_sdk\c-utility\src/xio.c ****     return result;
 231:Source\azure_iot_sdk\c-utility\src/xio.c **** }
 244              		.loc 1 231 0
 245 0066 2000     		movs	r0, r4
 246 0068 04B0     		add	sp, sp, #16
 247              		@ sp needed
 248              	.LVL38:
 249              	.LVL39:
 250 006a 70BD     		pop	{r4, r5, r6, pc}
 251              	.L17:
 252              		.align	2
 253              	.L16:
 254 006c 60000000 		.word	.LC9
 255 0070 00000000 		.word	.LANCHOR0
 256 0074 10000000 		.word	.LC3
 257 0078 00000000 		.word	.LC0
 258 007c A8000000 		.word	.LC12
 259              		.cfi_endproc
 260              	.LFE8:
 261              		.size	xio_CloneOption, .-xio_CloneOption
 262              		.section	.text.xio_DestroyOption,"ax",%progbits
 263              		.align	2
 264              		.code	16
 265              		.thumb_func
 266              		.type	xio_DestroyOption, %function
 267              	xio_DestroyOption:
 268              	.LFB9:
 232:Source\azure_iot_sdk\c-utility\src/xio.c **** 
 233:Source\azure_iot_sdk\c-utility\src/xio.c **** 
 234:Source\azure_iot_sdk\c-utility\src/xio.c **** static void xio_DestroyOption(const char* name, const void* value)
 235:Source\azure_iot_sdk\c-utility\src/xio.c **** {
 269              		.loc 1 235 0
 270              		.cfi_startproc
 271              		@ args = 0, pretend = 0, frame = 0
 272              		@ frame_needed = 0, uses_anonymous_args = 0
 273              	.LVL40:
 274 0000 70B5     		push	{r4, r5, r6, lr}
ARM GAS  C:\Users\Phuong\AppData\Local\Temp\ccRojO4s.s 			page 10


 275              		.cfi_def_cfa_offset 16
 276              		.cfi_offset 4, -16
 277              		.cfi_offset 5, -12
 278              		.cfi_offset 6, -8
 279              		.cfi_offset 14, -4
 280 0002 84B0     		sub	sp, sp, #16
 281              		.cfi_def_cfa_offset 32
 282 0004 0400     		movs	r4, r0
 283 0006 0D00     		movs	r5, r1
 236:Source\azure_iot_sdk\c-utility\src/xio.c ****     if (
 284              		.loc 1 236 0
 285 0008 0028     		cmp	r0, #0
 286 000a 01D0     		beq	.L19
 237:Source\azure_iot_sdk\c-utility\src/xio.c ****         (name == NULL) ||
 287              		.loc 1 237 0
 288 000c 0029     		cmp	r1, #0
 289 000e 10D1     		bne	.L20
 290              	.L19:
 291              	.LBB7:
 238:Source\azure_iot_sdk\c-utility\src/xio.c ****         (value == NULL)
 239:Source\azure_iot_sdk\c-utility\src/xio.c ****         )
 240:Source\azure_iot_sdk\c-utility\src/xio.c ****     {
 241:Source\azure_iot_sdk\c-utility\src/xio.c ****         LogError("invalid argument detected: const char* name=%p, const void* value=%p", name, valu
 292              		.loc 1 241 0 discriminator 3
 293 0010 FFF7FEFF 		bl	xlogging_get_log_function
 294              	.LVL41:
 295 0014 061E     		subs	r6, r0, #0
 296              	.LVL42:
 297 0016 24D0     		beq	.L18
 298              		.loc 1 241 0 is_stmt 0 discriminator 4
 299 0018 0395     		str	r5, [sp, #12]
 300 001a 0294     		str	r4, [sp, #8]
 301 001c 124B     		ldr	r3, .L23
 302 001e 0193     		str	r3, [sp, #4]
 303 0020 0123     		movs	r3, #1
 304 0022 0093     		str	r3, [sp]
 305 0024 F033     		adds	r3, r3, #240
 306 0026 114A     		ldr	r2, .L23+4
 307 0028 2032     		adds	r2, r2, #32
 308 002a 1149     		ldr	r1, .L23+8
 309 002c 0020     		movs	r0, #0
 310              	.LVL43:
 311 002e B047     		blx	r6
 312              	.LVL44:
 313 0030 17E0     		b	.L18
 314              	.LVL45:
 315              	.L20:
 316              	.LBE7:
 242:Source\azure_iot_sdk\c-utility\src/xio.c ****     }
 243:Source\azure_iot_sdk\c-utility\src/xio.c ****     else
 244:Source\azure_iot_sdk\c-utility\src/xio.c ****     {
 245:Source\azure_iot_sdk\c-utility\src/xio.c ****         if (strcmp(name, CONCRETE_OPTIONS) == 0)
 317              		.loc 1 245 0 is_stmt 1
 318 0032 1049     		ldr	r1, .L23+12
 319              	.LVL46:
 320 0034 FFF7FEFF 		bl	strcmp
 321              	.LVL47:
ARM GAS  C:\Users\Phuong\AppData\Local\Temp\ccRojO4s.s 			page 11


 322 0038 0028     		cmp	r0, #0
 323 003a 03D1     		bne	.L22
 246:Source\azure_iot_sdk\c-utility\src/xio.c ****         {
 247:Source\azure_iot_sdk\c-utility\src/xio.c ****             OptionHandler_Destroy((OPTIONHANDLER_HANDLE)value);
 324              		.loc 1 247 0
 325 003c 2800     		movs	r0, r5
 326 003e FFF7FEFF 		bl	OptionHandler_Destroy
 327              	.LVL48:
 328 0042 0EE0     		b	.L18
 329              	.L22:
 330              	.LBB8:
 248:Source\azure_iot_sdk\c-utility\src/xio.c ****         }
 249:Source\azure_iot_sdk\c-utility\src/xio.c ****         else
 250:Source\azure_iot_sdk\c-utility\src/xio.c ****         {
 251:Source\azure_iot_sdk\c-utility\src/xio.c ****             LogError("unknown option: %s", name);
 331              		.loc 1 251 0 discriminator 3
 332 0044 FFF7FEFF 		bl	xlogging_get_log_function
 333              	.LVL49:
 334 0048 051E     		subs	r5, r0, #0
 335              	.LVL50:
 336 004a 0AD0     		beq	.L18
 337              		.loc 1 251 0 is_stmt 0 discriminator 4
 338 004c 0294     		str	r4, [sp, #8]
 339 004e 0A4B     		ldr	r3, .L23+16
 340 0050 0193     		str	r3, [sp, #4]
 341 0052 0123     		movs	r3, #1
 342 0054 0093     		str	r3, [sp]
 343 0056 FA33     		adds	r3, r3, #250
 344 0058 044A     		ldr	r2, .L23+4
 345 005a 2032     		adds	r2, r2, #32
 346 005c 0449     		ldr	r1, .L23+8
 347 005e 0020     		movs	r0, #0
 348              	.LVL51:
 349 0060 A847     		blx	r5
 350              	.LVL52:
 351              	.L18:
 352              	.LBE8:
 252:Source\azure_iot_sdk\c-utility\src/xio.c ****         }
 253:Source\azure_iot_sdk\c-utility\src/xio.c ****     }
 254:Source\azure_iot_sdk\c-utility\src/xio.c **** }
 353              		.loc 1 254 0 is_stmt 1
 354 0062 04B0     		add	sp, sp, #16
 355              		@ sp needed
 356              	.LVL53:
 357 0064 70BD     		pop	{r4, r5, r6, pc}
 358              	.L24:
 359 0066 C046     		.align	2
 360              	.L23:
 361 0068 60000000 		.word	.LC9
 362 006c 00000000 		.word	.LANCHOR0
 363 0070 10000000 		.word	.LC3
 364 0074 00000000 		.word	.LC0
 365 0078 A8000000 		.word	.LC12
 366              		.cfi_endproc
 367              	.LFE9:
 368              		.size	xio_DestroyOption, .-xio_DestroyOption
 369              		.section	.text.xio_create,"ax",%progbits
ARM GAS  C:\Users\Phuong\AppData\Local\Temp\ccRojO4s.s 			page 12


 370              		.align	2
 371              		.global	xio_create
 372              		.code	16
 373              		.thumb_func
 374              		.type	xio_create, %function
 375              	xio_create:
 376              	.LFB1:
  20:Source\azure_iot_sdk\c-utility\src/xio.c ****     XIO_INSTANCE* xio_instance;
 377              		.loc 1 20 0
 378              		.cfi_startproc
 379              		@ args = 0, pretend = 0, frame = 0
 380              		@ frame_needed = 0, uses_anonymous_args = 0
 381              	.LVL54:
 382 0000 70B5     		push	{r4, r5, r6, lr}
 383              		.cfi_def_cfa_offset 16
 384              		.cfi_offset 4, -16
 385              		.cfi_offset 5, -12
 386              		.cfi_offset 6, -8
 387              		.cfi_offset 14, -4
 388 0002 0400     		movs	r4, r0
 389 0004 0E00     		movs	r6, r1
  23:Source\azure_iot_sdk\c-utility\src/xio.c ****         /* Codes_SRS_XIO_01_004: [If any io_interface_description member is NULL, xio_create shall 
 390              		.loc 1 23 0
 391 0006 0028     		cmp	r0, #0
 392 0008 28D0     		beq	.L27
  23:Source\azure_iot_sdk\c-utility\src/xio.c ****         /* Codes_SRS_XIO_01_004: [If any io_interface_description member is NULL, xio_create shall 
 393              		.loc 1 23 0 is_stmt 0 discriminator 1
 394 000a 0368     		ldr	r3, [r0]
 395 000c 002B     		cmp	r3, #0
 396 000e 27D0     		beq	.L28
  25:Source\azure_iot_sdk\c-utility\src/xio.c ****         (io_interface_description->concrete_io_create == NULL) ||
 397              		.loc 1 25 0 is_stmt 1
 398 0010 4368     		ldr	r3, [r0, #4]
 399 0012 002B     		cmp	r3, #0
 400 0014 26D0     		beq	.L29
  26:Source\azure_iot_sdk\c-utility\src/xio.c ****         (io_interface_description->concrete_io_destroy == NULL) ||
 401              		.loc 1 26 0
 402 0016 8368     		ldr	r3, [r0, #8]
 403 0018 002B     		cmp	r3, #0
 404 001a 25D0     		beq	.L30
  27:Source\azure_iot_sdk\c-utility\src/xio.c ****         (io_interface_description->concrete_io_open == NULL) ||
 405              		.loc 1 27 0
 406 001c C368     		ldr	r3, [r0, #12]
 407 001e 002B     		cmp	r3, #0
 408 0020 24D0     		beq	.L31
  28:Source\azure_iot_sdk\c-utility\src/xio.c ****         (io_interface_description->concrete_io_close == NULL) ||
 409              		.loc 1 28 0
 410 0022 0369     		ldr	r3, [r0, #16]
 411 0024 002B     		cmp	r3, #0
 412 0026 23D0     		beq	.L32
  29:Source\azure_iot_sdk\c-utility\src/xio.c ****         (io_interface_description->concrete_io_send == NULL) ||
 413              		.loc 1 29 0
 414 0028 4369     		ldr	r3, [r0, #20]
 415 002a 002B     		cmp	r3, #0
 416 002c 22D0     		beq	.L33
  30:Source\azure_iot_sdk\c-utility\src/xio.c ****         (io_interface_description->concrete_io_dowork == NULL) ||
 417              		.loc 1 30 0
ARM GAS  C:\Users\Phuong\AppData\Local\Temp\ccRojO4s.s 			page 13


 418 002e 8369     		ldr	r3, [r0, #24]
 419 0030 002B     		cmp	r3, #0
 420 0032 21D0     		beq	.L34
  31:Source\azure_iot_sdk\c-utility\src/xio.c ****         (io_interface_description->concrete_io_setoption == NULL))
 421              		.loc 1 31 0
 422 0034 C369     		ldr	r3, [r0, #28]
 423 0036 002B     		cmp	r3, #0
 424 0038 20D0     		beq	.L35
  38:Source\azure_iot_sdk\c-utility\src/xio.c **** 
 425              		.loc 1 38 0
 426 003a 0820     		movs	r0, #8
 427              	.LVL55:
 428 003c FFF7FEFF 		bl	malloc
 429              	.LVL56:
 430 0040 051E     		subs	r5, r0, #0
 431              	.LVL57:
  41:Source\azure_iot_sdk\c-utility\src/xio.c ****         {
 432              		.loc 1 41 0
 433 0042 1CD0     		beq	.L26
  44:Source\azure_iot_sdk\c-utility\src/xio.c **** 
 434              		.loc 1 44 0
 435 0044 0460     		str	r4, [r0]
  47:Source\azure_iot_sdk\c-utility\src/xio.c **** 
 436              		.loc 1 47 0
 437 0046 6368     		ldr	r3, [r4, #4]
 438 0048 3000     		movs	r0, r6
 439              	.LVL58:
 440 004a 9847     		blx	r3
 441              	.LVL59:
 442 004c 6860     		str	r0, [r5, #4]
  50:Source\azure_iot_sdk\c-utility\src/xio.c ****             {
 443              		.loc 1 50 0
 444 004e 0028     		cmp	r0, #0
 445 0050 15D1     		bne	.L26
  52:Source\azure_iot_sdk\c-utility\src/xio.c ****                 xio_instance = NULL;
 446              		.loc 1 52 0
 447 0052 2800     		movs	r0, r5
 448 0054 FFF7FEFF 		bl	free
 449              	.LVL60:
  53:Source\azure_iot_sdk\c-utility\src/xio.c ****             }
 450              		.loc 1 53 0
 451 0058 0025     		movs	r5, #0
 452 005a 10E0     		b	.L26
 453              	.LVL61:
 454              	.L27:
  34:Source\azure_iot_sdk\c-utility\src/xio.c ****     }
 455              		.loc 1 34 0
 456 005c 0025     		movs	r5, #0
 457 005e 0EE0     		b	.L26
 458              	.L28:
 459 0060 0025     		movs	r5, #0
 460 0062 0CE0     		b	.L26
 461              	.L29:
 462 0064 0025     		movs	r5, #0
 463 0066 0AE0     		b	.L26
 464              	.L30:
 465 0068 0025     		movs	r5, #0
ARM GAS  C:\Users\Phuong\AppData\Local\Temp\ccRojO4s.s 			page 14


 466 006a 08E0     		b	.L26
 467              	.L31:
 468 006c 0025     		movs	r5, #0
 469 006e 06E0     		b	.L26
 470              	.L32:
 471 0070 0025     		movs	r5, #0
 472 0072 04E0     		b	.L26
 473              	.L33:
 474 0074 0025     		movs	r5, #0
 475 0076 02E0     		b	.L26
 476              	.L34:
 477 0078 0025     		movs	r5, #0
 478 007a 00E0     		b	.L26
 479              	.L35:
 480 007c 0025     		movs	r5, #0
 481              	.LVL62:
 482              	.L26:
  58:Source\azure_iot_sdk\c-utility\src/xio.c **** 
 483              		.loc 1 58 0
 484 007e 2800     		movs	r0, r5
 485              		@ sp needed
 486              	.LVL63:
 487              	.LVL64:
 488              	.LVL65:
 489 0080 70BD     		pop	{r4, r5, r6, pc}
 490              		.cfi_endproc
 491              	.LFE1:
 492              		.size	xio_create, .-xio_create
 493 0082 C046     		.section	.text.xio_destroy,"ax",%progbits
 494              		.align	2
 495              		.global	xio_destroy
 496              		.code	16
 497              		.thumb_func
 498              		.type	xio_destroy, %function
 499              	xio_destroy:
 500              	.LFB2:
  61:Source\azure_iot_sdk\c-utility\src/xio.c ****     /* Codes_SRS_XIO_01_007: [If the argument io is NULL, xio_destroy shall do nothing.] */
 501              		.loc 1 61 0
 502              		.cfi_startproc
 503              		@ args = 0, pretend = 0, frame = 0
 504              		@ frame_needed = 0, uses_anonymous_args = 0
 505              	.LVL66:
 506 0000 10B5     		push	{r4, lr}
 507              		.cfi_def_cfa_offset 8
 508              		.cfi_offset 4, -8
 509              		.cfi_offset 14, -4
 510 0002 041E     		subs	r4, r0, #0
  63:Source\azure_iot_sdk\c-utility\src/xio.c ****     {
 511              		.loc 1 63 0
 512 0004 06D0     		beq	.L36
 513              	.LVL67:
 514              	.LBB9:
  68:Source\azure_iot_sdk\c-utility\src/xio.c **** 
 515              		.loc 1 68 0
 516 0006 0368     		ldr	r3, [r0]
 517 0008 9B68     		ldr	r3, [r3, #8]
 518 000a 4068     		ldr	r0, [r0, #4]
ARM GAS  C:\Users\Phuong\AppData\Local\Temp\ccRojO4s.s 			page 15


 519              	.LVL68:
 520 000c 9847     		blx	r3
 521              	.LVL69:
  71:Source\azure_iot_sdk\c-utility\src/xio.c ****     }
 522              		.loc 1 71 0
 523 000e 2000     		movs	r0, r4
 524 0010 FFF7FEFF 		bl	free
 525              	.LVL70:
 526              	.L36:
 527              	.LBE9:
  73:Source\azure_iot_sdk\c-utility\src/xio.c **** 
 528              		.loc 1 73 0
 529              		@ sp needed
 530              	.LVL71:
 531 0014 10BD     		pop	{r4, pc}
 532              		.cfi_endproc
 533              	.LFE2:
 534              		.size	xio_destroy, .-xio_destroy
 535 0016 C046     		.section	.text.xio_open,"ax",%progbits
 536              		.align	2
 537              		.global	xio_open
 538              		.code	16
 539              		.thumb_func
 540              		.type	xio_open, %function
 541              	xio_open:
 542              	.LFB3:
  76:Source\azure_iot_sdk\c-utility\src/xio.c ****     int result;
 543              		.loc 1 76 0
 544              		.cfi_startproc
 545              		@ args = 12, pretend = 0, frame = 0
 546              		@ frame_needed = 0, uses_anonymous_args = 0
 547              	.LVL72:
 548 0000 30B5     		push	{r4, r5, lr}
 549              		.cfi_def_cfa_offset 12
 550              		.cfi_offset 4, -12
 551              		.cfi_offset 5, -8
 552              		.cfi_offset 14, -4
 553 0002 85B0     		sub	sp, sp, #20
 554              		.cfi_def_cfa_offset 32
  79:Source\azure_iot_sdk\c-utility\src/xio.c ****     {
 555              		.loc 1 79 0
 556 0004 0028     		cmp	r0, #0
 557 0006 0DD0     		beq	.L40
 558              	.LVL73:
 559              	.LBB10:
  89:Source\azure_iot_sdk\c-utility\src/xio.c ****         {
 560              		.loc 1 89 0
 561 0008 0468     		ldr	r4, [r0]
 562 000a E468     		ldr	r4, [r4, #12]
 563 000c 4068     		ldr	r0, [r0, #4]
 564              	.LVL74:
 565 000e 0A9D     		ldr	r5, [sp, #40]
 566 0010 0295     		str	r5, [sp, #8]
 567 0012 099D     		ldr	r5, [sp, #36]
 568 0014 0195     		str	r5, [sp, #4]
 569 0016 089D     		ldr	r5, [sp, #32]
 570 0018 0095     		str	r5, [sp]
ARM GAS  C:\Users\Phuong\AppData\Local\Temp\ccRojO4s.s 			page 16


 571 001a A047     		blx	r4
 572              	.LVL75:
 573 001c 0028     		cmp	r0, #0
 574 001e 03D0     		beq	.L41
  92:Source\azure_iot_sdk\c-utility\src/xio.c ****         }
 575              		.loc 1 92 0
 576 0020 5C20     		movs	r0, #92
 577 0022 02E0     		b	.L39
 578              	.LVL76:
 579              	.L40:
 580              	.LBE10:
  82:Source\azure_iot_sdk\c-utility\src/xio.c ****     }
 581              		.loc 1 82 0
 582 0024 5220     		movs	r0, #82
 583              	.LVL77:
 584 0026 00E0     		b	.L39
 585              	.LVL78:
 586              	.L41:
 587              	.LBB11:
  97:Source\azure_iot_sdk\c-utility\src/xio.c ****         }
 588              		.loc 1 97 0
 589 0028 0020     		movs	r0, #0
 590              	.LVL79:
 591              	.L39:
 592              	.LBE11:
 102:Source\azure_iot_sdk\c-utility\src/xio.c **** 
 593              		.loc 1 102 0
 594 002a 05B0     		add	sp, sp, #20
 595              		@ sp needed
 596 002c 30BD     		pop	{r4, r5, pc}
 597              		.cfi_endproc
 598              	.LFE3:
 599              		.size	xio_open, .-xio_open
 600 002e C046     		.section	.text.xio_close,"ax",%progbits
 601              		.align	2
 602              		.global	xio_close
 603              		.code	16
 604              		.thumb_func
 605              		.type	xio_close, %function
 606              	xio_close:
 607              	.LFB4:
 105:Source\azure_iot_sdk\c-utility\src/xio.c ****     int result;
 608              		.loc 1 105 0
 609              		.cfi_startproc
 610              		@ args = 0, pretend = 0, frame = 0
 611              		@ frame_needed = 0, uses_anonymous_args = 0
 612              	.LVL80:
 613 0000 10B5     		push	{r4, lr}
 614              		.cfi_def_cfa_offset 8
 615              		.cfi_offset 4, -8
 616              		.cfi_offset 14, -4
 108:Source\azure_iot_sdk\c-utility\src/xio.c ****     {
 617              		.loc 1 108 0
 618 0002 0028     		cmp	r0, #0
 619 0004 07D0     		beq	.L44
 620              	.LVL81:
 621              	.LBB12:
ARM GAS  C:\Users\Phuong\AppData\Local\Temp\ccRojO4s.s 			page 17


 118:Source\azure_iot_sdk\c-utility\src/xio.c ****         {
 622              		.loc 1 118 0
 623 0006 0368     		ldr	r3, [r0]
 624 0008 1B69     		ldr	r3, [r3, #16]
 625 000a 4068     		ldr	r0, [r0, #4]
 626              	.LVL82:
 627 000c 9847     		blx	r3
 628              	.LVL83:
 629 000e 0028     		cmp	r0, #0
 630 0010 03D0     		beq	.L45
 121:Source\azure_iot_sdk\c-utility\src/xio.c ****         }
 631              		.loc 1 121 0
 632 0012 7920     		movs	r0, #121
 633 0014 02E0     		b	.L43
 634              	.LVL84:
 635              	.L44:
 636              	.LBE12:
 111:Source\azure_iot_sdk\c-utility\src/xio.c ****     }
 637              		.loc 1 111 0
 638 0016 6F20     		movs	r0, #111
 639              	.LVL85:
 640 0018 00E0     		b	.L43
 641              	.LVL86:
 642              	.L45:
 643              	.LBB13:
 126:Source\azure_iot_sdk\c-utility\src/xio.c ****         }
 644              		.loc 1 126 0
 645 001a 0020     		movs	r0, #0
 646              	.LVL87:
 647              	.L43:
 648              	.LBE13:
 131:Source\azure_iot_sdk\c-utility\src/xio.c **** 
 649              		.loc 1 131 0
 650              		@ sp needed
 651 001c 10BD     		pop	{r4, pc}
 652              		.cfi_endproc
 653              	.LFE4:
 654              		.size	xio_close, .-xio_close
 655 001e C046     		.section	.text.xio_send,"ax",%progbits
 656              		.align	2
 657              		.global	xio_send
 658              		.code	16
 659              		.thumb_func
 660              		.type	xio_send, %function
 661              	xio_send:
 662              	.LFB5:
 134:Source\azure_iot_sdk\c-utility\src/xio.c ****     int result;
 663              		.loc 1 134 0
 664              		.cfi_startproc
 665              		@ args = 4, pretend = 0, frame = 0
 666              		@ frame_needed = 0, uses_anonymous_args = 0
 667              	.LVL88:
 668 0000 30B5     		push	{r4, r5, lr}
 669              		.cfi_def_cfa_offset 12
 670              		.cfi_offset 4, -12
 671              		.cfi_offset 5, -8
 672              		.cfi_offset 14, -4
ARM GAS  C:\Users\Phuong\AppData\Local\Temp\ccRojO4s.s 			page 18


 673 0002 83B0     		sub	sp, sp, #12
 674              		.cfi_def_cfa_offset 24
 139:Source\azure_iot_sdk\c-utility\src/xio.c ****     {
 675              		.loc 1 139 0
 676 0004 0028     		cmp	r0, #0
 677 0006 06D0     		beq	.L48
 678              	.LVL89:
 679              	.LBB14:
 151:Source\azure_iot_sdk\c-utility\src/xio.c ****     }
 680              		.loc 1 151 0
 681 0008 0468     		ldr	r4, [r0]
 682 000a 6469     		ldr	r4, [r4, #20]
 683 000c 4068     		ldr	r0, [r0, #4]
 684              	.LVL90:
 685 000e 069D     		ldr	r5, [sp, #24]
 686 0010 0095     		str	r5, [sp]
 687 0012 A047     		blx	r4
 688              	.LVL91:
 689 0014 00E0     		b	.L47
 690              	.LVL92:
 691              	.L48:
 692              	.LBE14:
 141:Source\azure_iot_sdk\c-utility\src/xio.c ****     }
 693              		.loc 1 141 0
 694 0016 8D20     		movs	r0, #141
 695              	.LVL93:
 696              	.L47:
 155:Source\azure_iot_sdk\c-utility\src/xio.c **** 
 697              		.loc 1 155 0
 698 0018 03B0     		add	sp, sp, #12
 699              		@ sp needed
 700 001a 30BD     		pop	{r4, r5, pc}
 701              		.cfi_endproc
 702              	.LFE5:
 703              		.size	xio_send, .-xio_send
 704              		.section	.text.xio_dowork,"ax",%progbits
 705              		.align	2
 706              		.global	xio_dowork
 707              		.code	16
 708              		.thumb_func
 709              		.type	xio_dowork, %function
 710              	xio_dowork:
 711              	.LFB6:
 158:Source\azure_iot_sdk\c-utility\src/xio.c ****     /* Codes_SRS_XIO_01_018: [When the handle argument is NULL, xio_dowork shall do nothing.] */
 712              		.loc 1 158 0
 713              		.cfi_startproc
 714              		@ args = 0, pretend = 0, frame = 0
 715              		@ frame_needed = 0, uses_anonymous_args = 0
 716              	.LVL94:
 717 0000 10B5     		push	{r4, lr}
 718              		.cfi_def_cfa_offset 8
 719              		.cfi_offset 4, -8
 720              		.cfi_offset 14, -4
 160:Source\azure_iot_sdk\c-utility\src/xio.c ****     {
 721              		.loc 1 160 0
 722 0002 0028     		cmp	r0, #0
 723 0004 03D0     		beq	.L49
ARM GAS  C:\Users\Phuong\AppData\Local\Temp\ccRojO4s.s 			page 19


 724              	.LVL95:
 725              	.LBB15:
 165:Source\azure_iot_sdk\c-utility\src/xio.c ****     }
 726              		.loc 1 165 0
 727 0006 0368     		ldr	r3, [r0]
 728 0008 9B69     		ldr	r3, [r3, #24]
 729 000a 4068     		ldr	r0, [r0, #4]
 730              	.LVL96:
 731 000c 9847     		blx	r3
 732              	.LVL97:
 733              	.L49:
 734              	.LBE15:
 167:Source\azure_iot_sdk\c-utility\src/xio.c **** 
 735              		.loc 1 167 0
 736              		@ sp needed
 737 000e 10BD     		pop	{r4, pc}
 738              		.cfi_endproc
 739              	.LFE6:
 740              		.size	xio_dowork, .-xio_dowork
 741              		.section	.text.xio_retrieveoptions,"ax",%progbits
 742              		.align	2
 743              		.global	xio_retrieveoptions
 744              		.code	16
 745              		.thumb_func
 746              		.type	xio_retrieveoptions, %function
 747              	xio_retrieveoptions:
 748              	.LFB10:
 255:Source\azure_iot_sdk\c-utility\src/xio.c **** 
 256:Source\azure_iot_sdk\c-utility\src/xio.c **** OPTIONHANDLER_HANDLE xio_retrieveoptions(XIO_HANDLE xio)
 257:Source\azure_iot_sdk\c-utility\src/xio.c **** {
 749              		.loc 1 257 0
 750              		.cfi_startproc
 751              		@ args = 0, pretend = 0, frame = 0
 752              		@ frame_needed = 0, uses_anonymous_args = 0
 753              	.LVL98:
 754 0000 70B5     		push	{r4, r5, r6, lr}
 755              		.cfi_def_cfa_offset 16
 756              		.cfi_offset 4, -16
 757              		.cfi_offset 5, -12
 758              		.cfi_offset 6, -8
 759              		.cfi_offset 14, -4
 760 0002 84B0     		sub	sp, sp, #16
 761              		.cfi_def_cfa_offset 32
 762 0004 051E     		subs	r5, r0, #0
 258:Source\azure_iot_sdk\c-utility\src/xio.c ****     OPTIONHANDLER_HANDLE result;
 259:Source\azure_iot_sdk\c-utility\src/xio.c **** 
 260:Source\azure_iot_sdk\c-utility\src/xio.c ****     if (xio == NULL)
 763              		.loc 1 260 0
 764 0006 11D1     		bne	.L52
 765              	.LBB16:
 261:Source\azure_iot_sdk\c-utility\src/xio.c ****     {
 262:Source\azure_iot_sdk\c-utility\src/xio.c ****         LogError("invalid argument detected: XIO_HANDLE xio=%p", xio);
 766              		.loc 1 262 0 discriminator 3
 767 0008 FFF7FEFF 		bl	xlogging_get_log_function
 768              	.LVL99:
 769 000c 041E     		subs	r4, r0, #0
 770              	.LVL100:
ARM GAS  C:\Users\Phuong\AppData\Local\Temp\ccRojO4s.s 			page 20


 771 000e 5CD0     		beq	.L58
 772              		.loc 1 262 0 is_stmt 0 discriminator 4
 773 0010 0295     		str	r5, [sp, #8]
 774 0012 304B     		ldr	r3, .L59
 775 0014 0193     		str	r3, [sp, #4]
 776 0016 0123     		movs	r3, #1
 777 0018 0093     		str	r3, [sp]
 778 001a 0633     		adds	r3, r3, #6
 779 001c FF33     		adds	r3, r3, #255
 780 001e 2E4A     		ldr	r2, .L59+4
 781 0020 3432     		adds	r2, r2, #52
 782 0022 2E49     		ldr	r1, .L59+8
 783 0024 0020     		movs	r0, #0
 784              	.LVL101:
 785 0026 A047     		blx	r4
 786              	.LVL102:
 787              	.LBE16:
 263:Source\azure_iot_sdk\c-utility\src/xio.c ****         result = NULL;
 788              		.loc 1 263 0 is_stmt 1 discriminator 4
 789 0028 0024     		movs	r4, #0
 790              	.LVL103:
 791 002a 4FE0     		b	.L53
 792              	.LVL104:
 793              	.L52:
 794              	.LBB17:
 264:Source\azure_iot_sdk\c-utility\src/xio.c ****     }
 265:Source\azure_iot_sdk\c-utility\src/xio.c ****     else
 266:Source\azure_iot_sdk\c-utility\src/xio.c ****     {
 267:Source\azure_iot_sdk\c-utility\src/xio.c ****         XIO_INSTANCE* xio_instance = (XIO_INSTANCE*)xio;
 268:Source\azure_iot_sdk\c-utility\src/xio.c ****         /*xio_retrieveoptions shall return a OPTIONHANDLER_HANDLE that has 1 option called "underly
 269:Source\azure_iot_sdk\c-utility\src/xio.c ****         result = OptionHandler_Create(xio_CloneOption, xio_DestroyOption, (pfSetOption)xio_setoptio
 795              		.loc 1 269 0
 796 002c 2C4A     		ldr	r2, .L59+12
 797 002e 2D49     		ldr	r1, .L59+16
 798 0030 2D48     		ldr	r0, .L59+20
 799              	.LVL105:
 800 0032 FFF7FEFF 		bl	OptionHandler_Create
 801              	.LVL106:
 802 0036 041E     		subs	r4, r0, #0
 803              	.LVL107:
 270:Source\azure_iot_sdk\c-utility\src/xio.c ****         if (result == NULL)
 804              		.loc 1 270 0
 805 0038 0FD1     		bne	.L54
 806              	.LBB18:
 271:Source\azure_iot_sdk\c-utility\src/xio.c ****         {
 272:Source\azure_iot_sdk\c-utility\src/xio.c ****             LogError("unable to OptionHandler_Create");
 807              		.loc 1 272 0 discriminator 3
 808 003a FFF7FEFF 		bl	xlogging_get_log_function
 809              	.LVL108:
 810 003e 051E     		subs	r5, r0, #0
 811              	.LVL109:
 812 0040 44D0     		beq	.L53
 813              		.loc 1 272 0 is_stmt 0 discriminator 4
 814 0042 2A4B     		ldr	r3, .L59+24
 815 0044 0193     		str	r3, [sp, #4]
 816 0046 0123     		movs	r3, #1
 817 0048 0093     		str	r3, [sp]
ARM GAS  C:\Users\Phuong\AppData\Local\Temp\ccRojO4s.s 			page 21


 818 004a 1033     		adds	r3, r3, #16
 819 004c FF33     		adds	r3, r3, #255
 820 004e 224A     		ldr	r2, .L59+4
 821 0050 3432     		adds	r2, r2, #52
 822 0052 2249     		ldr	r1, .L59+8
 823 0054 0020     		movs	r0, #0
 824              	.LVL110:
 825 0056 A847     		blx	r5
 826              	.LVL111:
 827 0058 38E0     		b	.L53
 828              	.LVL112:
 829              	.L54:
 830              	.LBE18:
 831              	.LBB19:
 273:Source\azure_iot_sdk\c-utility\src/xio.c ****             /*return as is*/
 274:Source\azure_iot_sdk\c-utility\src/xio.c ****         }
 275:Source\azure_iot_sdk\c-utility\src/xio.c ****         else
 276:Source\azure_iot_sdk\c-utility\src/xio.c ****         {
 277:Source\azure_iot_sdk\c-utility\src/xio.c ****             OPTIONHANDLER_HANDLE concreteOptions = xio_instance->io_interface_description->concrete
 832              		.loc 1 277 0 is_stmt 1
 833 005a 2B68     		ldr	r3, [r5]
 834 005c 1B68     		ldr	r3, [r3]
 835 005e 6868     		ldr	r0, [r5, #4]
 836              	.LVL113:
 837 0060 9847     		blx	r3
 838              	.LVL114:
 839 0062 051E     		subs	r5, r0, #0
 840              	.LVL115:
 278:Source\azure_iot_sdk\c-utility\src/xio.c ****             if (concreteOptions == NULL)
 841              		.loc 1 278 0
 842 0064 13D1     		bne	.L55
 843              	.LBB20:
 279:Source\azure_iot_sdk\c-utility\src/xio.c ****             {
 280:Source\azure_iot_sdk\c-utility\src/xio.c ****                 LogError("unable to concrete_io_retrieveoptions");
 844              		.loc 1 280 0 discriminator 3
 845 0066 FFF7FEFF 		bl	xlogging_get_log_function
 846              	.LVL116:
 847 006a 051E     		subs	r5, r0, #0
 848              	.LVL117:
 849 006c 0AD0     		beq	.L56
 850              		.loc 1 280 0 is_stmt 0 discriminator 4
 851 006e 204B     		ldr	r3, .L59+28
 852 0070 0193     		str	r3, [sp, #4]
 853 0072 0123     		movs	r3, #1
 854 0074 0093     		str	r3, [sp]
 855 0076 1833     		adds	r3, r3, #24
 856 0078 FF33     		adds	r3, r3, #255
 857 007a 174A     		ldr	r2, .L59+4
 858 007c 3432     		adds	r2, r2, #52
 859 007e 1749     		ldr	r1, .L59+8
 860 0080 0020     		movs	r0, #0
 861              	.LVL118:
 862 0082 A847     		blx	r5
 863              	.LVL119:
 864              	.L56:
 865              	.LBE20:
 281:Source\azure_iot_sdk\c-utility\src/xio.c ****                 OptionHandler_Destroy(result);
ARM GAS  C:\Users\Phuong\AppData\Local\Temp\ccRojO4s.s 			page 22


 866              		.loc 1 281 0 is_stmt 1
 867 0084 2000     		movs	r0, r4
 868 0086 FFF7FEFF 		bl	OptionHandler_Destroy
 869              	.LVL120:
 282:Source\azure_iot_sdk\c-utility\src/xio.c ****                 result = NULL;
 870              		.loc 1 282 0
 871 008a 0024     		movs	r4, #0
 872 008c 1EE0     		b	.L53
 873              	.LVL121:
 874              	.L55:
 283:Source\azure_iot_sdk\c-utility\src/xio.c ****             }
 284:Source\azure_iot_sdk\c-utility\src/xio.c ****             else
 285:Source\azure_iot_sdk\c-utility\src/xio.c ****             {
 286:Source\azure_iot_sdk\c-utility\src/xio.c ****                 if (OptionHandler_AddOption(result, CONCRETE_OPTIONS, concreteOptions) != OPTIONHAN
 875              		.loc 1 286 0
 876 008e 0200     		movs	r2, r0
 877 0090 1849     		ldr	r1, .L59+32
 878 0092 2000     		movs	r0, r4
 879              	.LVL122:
 880 0094 FFF7FEFF 		bl	OptionHandler_AddOption
 881              	.LVL123:
 882 0098 0028     		cmp	r0, #0
 883 009a 17D0     		beq	.L53
 884              	.LBB21:
 287:Source\azure_iot_sdk\c-utility\src/xio.c ****                 {
 288:Source\azure_iot_sdk\c-utility\src/xio.c ****                     LogError("unable to OptionHandler_AddOption");
 885              		.loc 1 288 0 discriminator 3
 886 009c FFF7FEFF 		bl	xlogging_get_log_function
 887              	.LVL124:
 888 00a0 061E     		subs	r6, r0, #0
 889              	.LVL125:
 890 00a2 0AD0     		beq	.L57
 891              		.loc 1 288 0 is_stmt 0 discriminator 4
 892 00a4 144B     		ldr	r3, .L59+36
 893 00a6 0193     		str	r3, [sp, #4]
 894 00a8 0123     		movs	r3, #1
 895 00aa 0093     		str	r3, [sp]
 896 00ac 2033     		adds	r3, r3, #32
 897 00ae FF33     		adds	r3, r3, #255
 898 00b0 094A     		ldr	r2, .L59+4
 899 00b2 3432     		adds	r2, r2, #52
 900 00b4 0949     		ldr	r1, .L59+8
 901 00b6 0020     		movs	r0, #0
 902              	.LVL126:
 903 00b8 B047     		blx	r6
 904              	.LVL127:
 905              	.L57:
 906              	.LBE21:
 289:Source\azure_iot_sdk\c-utility\src/xio.c ****                     OptionHandler_Destroy(concreteOptions);
 907              		.loc 1 289 0 is_stmt 1
 908 00ba 2800     		movs	r0, r5
 909 00bc FFF7FEFF 		bl	OptionHandler_Destroy
 910              	.LVL128:
 290:Source\azure_iot_sdk\c-utility\src/xio.c ****                     OptionHandler_Destroy(result);
 911              		.loc 1 290 0
 912 00c0 2000     		movs	r0, r4
 913 00c2 FFF7FEFF 		bl	OptionHandler_Destroy
ARM GAS  C:\Users\Phuong\AppData\Local\Temp\ccRojO4s.s 			page 23


 914              	.LVL129:
 291:Source\azure_iot_sdk\c-utility\src/xio.c ****                     result = NULL;
 915              		.loc 1 291 0
 916 00c6 0024     		movs	r4, #0
 917 00c8 00E0     		b	.L53
 918              	.LVL130:
 919              	.L58:
 920              	.LBE19:
 921              	.LBE17:
 263:Source\azure_iot_sdk\c-utility\src/xio.c ****     }
 922              		.loc 1 263 0
 923 00ca 0024     		movs	r4, #0
 924              	.LVL131:
 925              	.L53:
 292:Source\azure_iot_sdk\c-utility\src/xio.c ****                 }
 293:Source\azure_iot_sdk\c-utility\src/xio.c ****                 else
 294:Source\azure_iot_sdk\c-utility\src/xio.c ****                 {
 295:Source\azure_iot_sdk\c-utility\src/xio.c ****                     /*all is fine*/
 296:Source\azure_iot_sdk\c-utility\src/xio.c ****                 }
 297:Source\azure_iot_sdk\c-utility\src/xio.c ****             }
 298:Source\azure_iot_sdk\c-utility\src/xio.c ****         }
 299:Source\azure_iot_sdk\c-utility\src/xio.c ****     }
 300:Source\azure_iot_sdk\c-utility\src/xio.c **** 
 301:Source\azure_iot_sdk\c-utility\src/xio.c ****     return result;
 302:Source\azure_iot_sdk\c-utility\src/xio.c **** }
 926              		.loc 1 302 0
 927 00cc 2000     		movs	r0, r4
 928 00ce 04B0     		add	sp, sp, #16
 929              		@ sp needed
 930              	.LVL132:
 931 00d0 70BD     		pop	{r4, r5, r6, pc}
 932              	.L60:
 933 00d2 C046     		.align	2
 934              	.L59:
 935 00d4 BC000000 		.word	.LC21
 936 00d8 00000000 		.word	.LANCHOR0
 937 00dc 10000000 		.word	.LC3
 938 00e0 00000000 		.word	xio_setoption
 939 00e4 00000000 		.word	xio_DestroyOption
 940 00e8 00000000 		.word	xio_CloneOption
 941 00ec EC000000 		.word	.LC26
 942 00f0 0C010000 		.word	.LC28
 943 00f4 00000000 		.word	.LC0
 944 00f8 34010000 		.word	.LC31
 945              		.cfi_endproc
 946              	.LFE10:
 947              		.size	xio_retrieveoptions, .-xio_retrieveoptions
 948              		.section	.rodata
 949              		.align	2
 950              		.set	.LANCHOR0,. + 0
 951              		.type	__func__.6031, %object
 952              		.size	__func__.6031, 14
 953              	__func__.6031:
 954 0000 78696F5F 		.ascii	"xio_setoption\000"
 954      7365746F 
 954      7074696F 
 954      6E00
ARM GAS  C:\Users\Phuong\AppData\Local\Temp\ccRojO4s.s 			page 24


 955 000e 0000     		.space	2
 956              		.type	__func__.6040, %object
 957              		.size	__func__.6040, 16
 958              	__func__.6040:
 959 0010 78696F5F 		.ascii	"xio_CloneOption\000"
 959      436C6F6E 
 959      654F7074 
 959      696F6E00 
 960              		.type	__func__.6051, %object
 961              		.size	__func__.6051, 18
 962              	__func__.6051:
 963 0020 78696F5F 		.ascii	"xio_DestroyOption\000"
 963      44657374 
 963      726F794F 
 963      7074696F 
 963      6E00
 964 0032 0000     		.space	2
 965              		.type	__func__.6062, %object
 966              		.size	__func__.6062, 20
 967              	__func__.6062:
 968 0034 78696F5F 		.ascii	"xio_retrieveoptions\000"
 968      72657472 
 968      69657665 
 968      6F707469 
 968      6F6E7300 
 969              		.section	.rodata.str1.4,"aMS",%progbits,1
 970              		.align	2
 971              	.LC0:
 972 0000 636F6E63 		.ascii	"concreteOptions\000"
 972      72657465 
 972      4F707469 
 972      6F6E7300 
 973              	.LC3:
 974 0010 536F7572 		.ascii	"Source\\azure_iot_sdk\\c-utility\\src\\xio.c\000"
 974      63655C61 
 974      7A757265 
 974      5F696F74 
 974      5F73646B 
 975 0039 000000   		.space	3
 976              	.LC5:
 977 003c 756E6162 		.ascii	"unable to OptionHandler_FeedOptions\000"
 977      6C652074 
 977      6F204F70 
 977      74696F6E 
 977      48616E64 
 978              	.LC9:
 979 0060 696E7661 		.ascii	"invalid argument detected: const char* name=%p, con"
 979      6C696420 
 979      61726775 
 979      6D656E74 
 979      20646574 
 980 0093 73742076 		.ascii	"st void* value=%p\000"
 980      6F69642A 
 980      2076616C 
 980      75653D25 
 980      7000
 981 00a5 000000   		.space	3
ARM GAS  C:\Users\Phuong\AppData\Local\Temp\ccRojO4s.s 			page 25


 982              	.LC12:
 983 00a8 756E6B6E 		.ascii	"unknown option: %s\000"
 983      6F776E20 
 983      6F707469 
 983      6F6E3A20 
 983      257300
 984 00bb 00       		.space	1
 985              	.LC21:
 986 00bc 696E7661 		.ascii	"invalid argument detected: XIO_HANDLE xio=%p\000"
 986      6C696420 
 986      61726775 
 986      6D656E74 
 986      20646574 
 987 00e9 000000   		.space	3
 988              	.LC26:
 989 00ec 756E6162 		.ascii	"unable to OptionHandler_Create\000"
 989      6C652074 
 989      6F204F70 
 989      74696F6E 
 989      48616E64 
 990 010b 00       		.space	1
 991              	.LC28:
 992 010c 756E6162 		.ascii	"unable to concrete_io_retrieveoptions\000"
 992      6C652074 
 992      6F20636F 
 992      6E637265 
 992      74655F69 
 993 0132 0000     		.space	2
 994              	.LC31:
 995 0134 756E6162 		.ascii	"unable to OptionHandler_AddOption\000"
 995      6C652074 
 995      6F204F70 
 995      74696F6E 
 995      48616E64 
 996              		.text
 997              	.Letext0:
 998              		.file 2 "c:\\program files (x86)\\cypress\\psoc creator\\4.2\\psoc creator\\import\\gnu\\arm\\5.4.
 999              		.file 3 ".\\Source\\azure_iot_sdk\\c-utility\\inc/azure_c_shared_utility/optionhandler.h"
 1000              		.file 4 ".\\Source\\azure_iot_sdk\\c-utility\\inc/azure_c_shared_utility/xio.h"
 1001              		.file 5 ".\\Source\\azure_iot_sdk\\c-utility\\inc/azure_c_shared_utility/xlogging.h"
 1002              		.file 6 "c:\\program files (x86)\\cypress\\psoc creator\\4.2\\psoc creator\\import\\gnu\\arm\\5.4.
 1003              		.file 7 "c:\\program files (x86)\\cypress\\psoc creator\\4.2\\psoc creator\\import\\gnu\\arm\\5.4.