ARM GAS  C:\Users\Phuong\AppData\Local\Temp\cc2bIkI6.s 			page 1


   1              		.syntax unified
   2              		.cpu cortex-m0plus
   3              		.fpu softvfp
   4              		.eabi_attribute 20, 1
   5              		.eabi_attribute 21, 1
   6              		.eabi_attribute 23, 3
   7              		.eabi_attribute 24, 1
   8              		.eabi_attribute 25, 1
   9              		.eabi_attribute 26, 1
  10              		.eabi_attribute 30, 1
  11              		.eabi_attribute 34, 0
  12              		.eabi_attribute 18, 4
  13              		.thumb
  14              		.syntax unified
  15              		.file	"xlogging.c"
  16              		.text
  17              	.Ltext0:
  18              		.cfi_sections	.debug_frame
  19              		.section	.text.xlogging_set_log_function,"ax",%progbits
  20              		.align	2
  21              		.global	xlogging_set_log_function
  22              		.code	16
  23              		.thumb_func
  24              		.type	xlogging_set_log_function, %function
  25              	xlogging_set_log_function:
  26              	.LFB1:
  27              		.file 1 "Source\\azure_iot_sdk\\c-utility\\src\\xlogging.c"
   1:Source\azure_iot_sdk\c-utility\src/xlogging.c **** // Copyright (c) Microsoft. All rights reserved.
   2:Source\azure_iot_sdk\c-utility\src/xlogging.c **** // Licensed under the MIT license. See LICENSE file in the project root for full license informatio
   3:Source\azure_iot_sdk\c-utility\src/xlogging.c **** 
   4:Source\azure_iot_sdk\c-utility\src/xlogging.c **** #include "azure_c_shared_utility/xlogging.h"
   5:Source\azure_iot_sdk\c-utility\src/xlogging.c **** #include "azure_c_shared_utility/consolelogger.h"
   6:Source\azure_iot_sdk\c-utility\src/xlogging.c **** 
   7:Source\azure_iot_sdk\c-utility\src/xlogging.c **** #ifndef NO_LOGGING
   8:Source\azure_iot_sdk\c-utility\src/xlogging.c **** 
   9:Source\azure_iot_sdk\c-utility\src/xlogging.c **** #ifdef WIN32
  10:Source\azure_iot_sdk\c-utility\src/xlogging.c **** #include "windows.h"
  11:Source\azure_iot_sdk\c-utility\src/xlogging.c **** #endif // WIN32
  12:Source\azure_iot_sdk\c-utility\src/xlogging.c **** 
  13:Source\azure_iot_sdk\c-utility\src/xlogging.c **** 
  14:Source\azure_iot_sdk\c-utility\src/xlogging.c **** #ifdef WINCE
  15:Source\azure_iot_sdk\c-utility\src/xlogging.c **** #include <stdarg.h>
  16:Source\azure_iot_sdk\c-utility\src/xlogging.c **** 
  17:Source\azure_iot_sdk\c-utility\src/xlogging.c **** void consolelogger_log(LOG_CATEGORY log_category, const char* file, const char* func, int line, uns
  18:Source\azure_iot_sdk\c-utility\src/xlogging.c **** {
  19:Source\azure_iot_sdk\c-utility\src/xlogging.c ****     va_list args;
  20:Source\azure_iot_sdk\c-utility\src/xlogging.c ****     va_start(args, format);
  21:Source\azure_iot_sdk\c-utility\src/xlogging.c **** 
  22:Source\azure_iot_sdk\c-utility\src/xlogging.c ****     time_t t = time(NULL);
  23:Source\azure_iot_sdk\c-utility\src/xlogging.c **** 
  24:Source\azure_iot_sdk\c-utility\src/xlogging.c ****     switch (log_category)
  25:Source\azure_iot_sdk\c-utility\src/xlogging.c ****     {
  26:Source\azure_iot_sdk\c-utility\src/xlogging.c ****     case AZ_LOG_INFO:
  27:Source\azure_iot_sdk\c-utility\src/xlogging.c ****         (void)printf("Info: ");
  28:Source\azure_iot_sdk\c-utility\src/xlogging.c ****         break;
  29:Source\azure_iot_sdk\c-utility\src/xlogging.c ****     case AZ_LOG_ERROR:
  30:Source\azure_iot_sdk\c-utility\src/xlogging.c ****         (void)printf("Error: Time:%.24s File:%s Func:%s Line:%d ", ctime(&t), file, func, line);
ARM GAS  C:\Users\Phuong\AppData\Local\Temp\cc2bIkI6.s 			page 2


  31:Source\azure_iot_sdk\c-utility\src/xlogging.c ****         break;
  32:Source\azure_iot_sdk\c-utility\src/xlogging.c ****     default:
  33:Source\azure_iot_sdk\c-utility\src/xlogging.c ****         break;
  34:Source\azure_iot_sdk\c-utility\src/xlogging.c ****     }
  35:Source\azure_iot_sdk\c-utility\src/xlogging.c **** 
  36:Source\azure_iot_sdk\c-utility\src/xlogging.c ****     (void)vprintf(format, args);
  37:Source\azure_iot_sdk\c-utility\src/xlogging.c ****     va_end(args);
  38:Source\azure_iot_sdk\c-utility\src/xlogging.c **** 
  39:Source\azure_iot_sdk\c-utility\src/xlogging.c ****     (void)log_category;
  40:Source\azure_iot_sdk\c-utility\src/xlogging.c ****     if (options & LOG_LINE)
  41:Source\azure_iot_sdk\c-utility\src/xlogging.c ****     {
  42:Source\azure_iot_sdk\c-utility\src/xlogging.c ****         (void)printf("\r\n");
  43:Source\azure_iot_sdk\c-utility\src/xlogging.c ****     }
  44:Source\azure_iot_sdk\c-utility\src/xlogging.c **** }
  45:Source\azure_iot_sdk\c-utility\src/xlogging.c **** #endif // WINCE
  46:Source\azure_iot_sdk\c-utility\src/xlogging.c **** 
  47:Source\azure_iot_sdk\c-utility\src/xlogging.c **** LOGGER_LOG global_log_function = consolelogger_log;
  48:Source\azure_iot_sdk\c-utility\src/xlogging.c **** 
  49:Source\azure_iot_sdk\c-utility\src/xlogging.c **** void xlogging_set_log_function(LOGGER_LOG log_function)
  50:Source\azure_iot_sdk\c-utility\src/xlogging.c **** {
  28              		.loc 1 50 0
  29              		.cfi_startproc
  30              		@ args = 0, pretend = 0, frame = 0
  31              		@ frame_needed = 0, uses_anonymous_args = 0
  32              		@ link register save eliminated.
  33              	.LVL0:
  51:Source\azure_iot_sdk\c-utility\src/xlogging.c ****     global_log_function = log_function;
  34              		.loc 1 51 0
  35 0000 014B     		ldr	r3, .L2
  36 0002 1860     		str	r0, [r3]
  52:Source\azure_iot_sdk\c-utility\src/xlogging.c **** }
  37              		.loc 1 52 0
  38              		@ sp needed
  39 0004 7047     		bx	lr
  40              	.L3:
  41 0006 C046     		.align	2
  42              	.L2:
  43 0008 00000000 		.word	.LANCHOR0
  44              		.cfi_endproc
  45              	.LFE1:
  46              		.size	xlogging_set_log_function, .-xlogging_set_log_function
  47              		.section	.text.xlogging_get_log_function,"ax",%progbits
  48              		.align	2
  49              		.global	xlogging_get_log_function
  50              		.code	16
  51              		.thumb_func
  52              		.type	xlogging_get_log_function, %function
  53              	xlogging_get_log_function:
  54              	.LFB2:
  53:Source\azure_iot_sdk\c-utility\src/xlogging.c **** 
  54:Source\azure_iot_sdk\c-utility\src/xlogging.c **** LOGGER_LOG xlogging_get_log_function(void)
  55:Source\azure_iot_sdk\c-utility\src/xlogging.c **** {
  55              		.loc 1 55 0
  56              		.cfi_startproc
  57              		@ args = 0, pretend = 0, frame = 0
  58              		@ frame_needed = 0, uses_anonymous_args = 0
  59              		@ link register save eliminated.
ARM GAS  C:\Users\Phuong\AppData\Local\Temp\cc2bIkI6.s 			page 3


  56:Source\azure_iot_sdk\c-utility\src/xlogging.c ****     return global_log_function;
  60              		.loc 1 56 0
  61 0000 014B     		ldr	r3, .L5
  62 0002 1868     		ldr	r0, [r3]
  57:Source\azure_iot_sdk\c-utility\src/xlogging.c **** }
  63              		.loc 1 57 0
  64              		@ sp needed
  65 0004 7047     		bx	lr
  66              	.L6:
  67 0006 C046     		.align	2
  68              	.L5:
  69 0008 00000000 		.word	.LANCHOR0
  70              		.cfi_endproc
  71              	.LFE2:
  72              		.size	xlogging_get_log_function, .-xlogging_get_log_function
  73              		.section	.text.LogBinary,"ax",%progbits
  74              		.align	2
  75              		.global	LogBinary
  76              		.code	16
  77              		.thumb_func
  78              		.type	LogBinary, %function
  79              	LogBinary:
  80              	.LFB3:
  58:Source\azure_iot_sdk\c-utility\src/xlogging.c **** 
  59:Source\azure_iot_sdk\c-utility\src/xlogging.c **** #if (defined(_MSC_VER)) && (!(defined WINCE))
  60:Source\azure_iot_sdk\c-utility\src/xlogging.c **** 
  61:Source\azure_iot_sdk\c-utility\src/xlogging.c **** LOGGER_LOG_GETLASTERROR global_log_function_GetLastError = consolelogger_log_with_GetLastError;
  62:Source\azure_iot_sdk\c-utility\src/xlogging.c **** 
  63:Source\azure_iot_sdk\c-utility\src/xlogging.c **** void xlogging_set_log_function_GetLastError(LOGGER_LOG_GETLASTERROR log_function_GetLastError)
  64:Source\azure_iot_sdk\c-utility\src/xlogging.c **** {
  65:Source\azure_iot_sdk\c-utility\src/xlogging.c ****     global_log_function_GetLastError = log_function_GetLastError;
  66:Source\azure_iot_sdk\c-utility\src/xlogging.c **** }
  67:Source\azure_iot_sdk\c-utility\src/xlogging.c **** 
  68:Source\azure_iot_sdk\c-utility\src/xlogging.c **** LOGGER_LOG_GETLASTERROR xlogging_get_log_function_GetLastError(void)
  69:Source\azure_iot_sdk\c-utility\src/xlogging.c **** {
  70:Source\azure_iot_sdk\c-utility\src/xlogging.c ****     return global_log_function_GetLastError;
  71:Source\azure_iot_sdk\c-utility\src/xlogging.c **** }
  72:Source\azure_iot_sdk\c-utility\src/xlogging.c **** #endif
  73:Source\azure_iot_sdk\c-utility\src/xlogging.c **** 
  74:Source\azure_iot_sdk\c-utility\src/xlogging.c **** /* Print up to 16 bytes per line. */
  75:Source\azure_iot_sdk\c-utility\src/xlogging.c **** #define LINE_SIZE 16
  76:Source\azure_iot_sdk\c-utility\src/xlogging.c **** 
  77:Source\azure_iot_sdk\c-utility\src/xlogging.c **** /* Return the printable char for the provided value. */
  78:Source\azure_iot_sdk\c-utility\src/xlogging.c **** #define PRINTABLE(c)         ((c >= ' ') && (c <= '~')) ? (char)c : '.'
  79:Source\azure_iot_sdk\c-utility\src/xlogging.c **** 
  80:Source\azure_iot_sdk\c-utility\src/xlogging.c **** /* Convert the lower nibble of the provided byte to a hexadecimal printable char. */
  81:Source\azure_iot_sdk\c-utility\src/xlogging.c **** #define HEX_STR(c)           (((c) & 0xF) < 0xA) ? (char)(((c) & 0xF) + '0') : (char)(((c) & 0xF) -
  82:Source\azure_iot_sdk\c-utility\src/xlogging.c **** 
  83:Source\azure_iot_sdk\c-utility\src/xlogging.c **** void LogBinary(const char* comment, const void* data, size_t size)
  84:Source\azure_iot_sdk\c-utility\src/xlogging.c **** {
  81              		.loc 1 84 0
  82              		.cfi_startproc
  83              		@ args = 0, pretend = 0, frame = 80
  84              		@ frame_needed = 0, uses_anonymous_args = 0
  85              	.LVL1:
  86 0000 F0B5     		push	{r4, r5, r6, r7, lr}
  87              		.cfi_def_cfa_offset 20
ARM GAS  C:\Users\Phuong\AppData\Local\Temp\cc2bIkI6.s 			page 4


  88              		.cfi_offset 4, -20
  89              		.cfi_offset 5, -16
  90              		.cfi_offset 6, -12
  91              		.cfi_offset 7, -8
  92              		.cfi_offset 14, -4
  93 0002 9BB0     		sub	sp, sp, #108
  94              		.cfi_def_cfa_offset 128
  95 0004 0600     		movs	r6, r0
  96 0006 0D00     		movs	r5, r1
  97 0008 1700     		movs	r7, r2
  98              	.LVL2:
  99              	.LBB2:
  85:Source\azure_iot_sdk\c-utility\src/xlogging.c ****     char charBuf[LINE_SIZE + 1];
  86:Source\azure_iot_sdk\c-utility\src/xlogging.c ****     char hexBuf[LINE_SIZE * 3 + 1];
  87:Source\azure_iot_sdk\c-utility\src/xlogging.c ****     size_t countbuf = 0;
  88:Source\azure_iot_sdk\c-utility\src/xlogging.c ****     size_t i = 0;
  89:Source\azure_iot_sdk\c-utility\src/xlogging.c ****     const unsigned char* bufAsChar = (const unsigned char*)data;
  90:Source\azure_iot_sdk\c-utility\src/xlogging.c ****     const unsigned char* startPos = bufAsChar;
  91:Source\azure_iot_sdk\c-utility\src/xlogging.c **** 
  92:Source\azure_iot_sdk\c-utility\src/xlogging.c ****     LOG(AZ_LOG_TRACE, LOG_LINE, "%s     %zu bytes", comment, size);
 100              		.loc 1 92 0
 101 000a FFF7FEFF 		bl	xlogging_get_log_function
 102              	.LVL3:
 103 000e 041E     		subs	r4, r0, #0
 104              	.LVL4:
 105 0010 0AD0     		beq	.L8
 106              		.loc 1 92 0 is_stmt 0 discriminator 4
 107 0012 0397     		str	r7, [sp, #12]
 108 0014 0296     		str	r6, [sp, #8]
 109 0016 404B     		ldr	r3, .L22
 110 0018 0193     		str	r3, [sp, #4]
 111 001a 0123     		movs	r3, #1
 112 001c 0093     		str	r3, [sp]
 113 001e 5B33     		adds	r3, r3, #91
 114 0020 3E4A     		ldr	r2, .L22+4
 115 0022 3F49     		ldr	r1, .L22+8
 116 0024 0220     		movs	r0, #2
 117              	.LVL5:
 118 0026 A047     		blx	r4
 119              	.LVL6:
 120              	.L8:
 121              	.LBE2:
  93:Source\azure_iot_sdk\c-utility\src/xlogging.c **** 
  94:Source\azure_iot_sdk\c-utility\src/xlogging.c ****     /* Print the whole buffer. */
  95:Source\azure_iot_sdk\c-utility\src/xlogging.c ****     for (i = 0; i < size; i++)
  96:Source\azure_iot_sdk\c-utility\src/xlogging.c ****     {
  97:Source\azure_iot_sdk\c-utility\src/xlogging.c ****         /* Store the printable value of the char in the charBuf to print. */
  98:Source\azure_iot_sdk\c-utility\src/xlogging.c ****         charBuf[countbuf] = PRINTABLE(*bufAsChar);
  99:Source\azure_iot_sdk\c-utility\src/xlogging.c **** 
 100:Source\azure_iot_sdk\c-utility\src/xlogging.c ****         /* Convert the high nibble to a printable hexadecimal value. */
 101:Source\azure_iot_sdk\c-utility\src/xlogging.c ****         hexBuf[countbuf * 3] = HEX_STR(*bufAsChar >> 4);
 102:Source\azure_iot_sdk\c-utility\src/xlogging.c **** 
 103:Source\azure_iot_sdk\c-utility\src/xlogging.c ****         /* Convert the low nibble to a printable hexadecimal value. */
 104:Source\azure_iot_sdk\c-utility\src/xlogging.c ****         hexBuf[countbuf * 3 + 1] = HEX_STR(*bufAsChar);
 105:Source\azure_iot_sdk\c-utility\src/xlogging.c **** 
 106:Source\azure_iot_sdk\c-utility\src/xlogging.c ****         hexBuf[countbuf * 3 + 2] = ' ';
 107:Source\azure_iot_sdk\c-utility\src/xlogging.c **** 
ARM GAS  C:\Users\Phuong\AppData\Local\Temp\cc2bIkI6.s 			page 5


 108:Source\azure_iot_sdk\c-utility\src/xlogging.c ****         countbuf++;
 109:Source\azure_iot_sdk\c-utility\src/xlogging.c ****         bufAsChar++;
 110:Source\azure_iot_sdk\c-utility\src/xlogging.c ****         /* If the line is full, print it to start another one. */
 111:Source\azure_iot_sdk\c-utility\src/xlogging.c ****         if (countbuf == LINE_SIZE)
 112:Source\azure_iot_sdk\c-utility\src/xlogging.c ****         {
 113:Source\azure_iot_sdk\c-utility\src/xlogging.c ****             charBuf[countbuf] = '\0';
 114:Source\azure_iot_sdk\c-utility\src/xlogging.c ****             hexBuf[countbuf * 3] = '\0';
 115:Source\azure_iot_sdk\c-utility\src/xlogging.c ****             LOG(AZ_LOG_TRACE, LOG_LINE, "%p: %s    %s", startPos, hexBuf, charBuf);
 116:Source\azure_iot_sdk\c-utility\src/xlogging.c ****             countbuf = 0;
 122              		.loc 1 116 0 is_stmt 1 discriminator 1
 123 0028 0795     		str	r5, [sp, #28]
 124 002a 0026     		movs	r6, #0
 125              	.LVL7:
 126 002c 0023     		movs	r3, #0
 127 002e 44E0     		b	.L9
 128              	.LVL8:
 129              	.L16:
  98:Source\azure_iot_sdk\c-utility\src/xlogging.c **** 
 130              		.loc 1 98 0
 131 0030 2A78     		ldrb	r2, [r5]
 132 0032 1100     		movs	r1, r2
 133 0034 2039     		subs	r1, r1, #32
 134 0036 C9B2     		uxtb	r1, r1
 135 0038 5E29     		cmp	r1, #94
 136 003a 00D9     		bls	.L10
 137 003c 2E22     		movs	r2, #46
 138              	.L10:
  98:Source\azure_iot_sdk\c-utility\src/xlogging.c **** 
 139              		.loc 1 98 0 is_stmt 0 discriminator 4
 140 003e 15A9     		add	r1, sp, #84
 141 0040 CA54     		strb	r2, [r1, r3]
 101:Source\azure_iot_sdk\c-utility\src/xlogging.c **** 
 142              		.loc 1 101 0 is_stmt 1 discriminator 4
 143 0042 5A00     		lsls	r2, r3, #1
 144 0044 D218     		adds	r2, r2, r3
 145 0046 2978     		ldrb	r1, [r5]
 146 0048 0909     		lsrs	r1, r1, #4
 147 004a 0929     		cmp	r1, #9
 148 004c 01DC     		bgt	.L11
 101:Source\azure_iot_sdk\c-utility\src/xlogging.c **** 
 149              		.loc 1 101 0 is_stmt 0 discriminator 1
 150 004e 3031     		adds	r1, r1, #48
 151 0050 00E0     		b	.L12
 152              	.L11:
 101:Source\azure_iot_sdk\c-utility\src/xlogging.c **** 
 153              		.loc 1 101 0 discriminator 2
 154 0052 3731     		adds	r1, r1, #55
 155              	.L12:
 101:Source\azure_iot_sdk\c-utility\src/xlogging.c **** 
 156              		.loc 1 101 0 discriminator 4
 157 0054 08A8     		add	r0, sp, #32
 158 0056 8154     		strb	r1, [r0, r2]
 104:Source\azure_iot_sdk\c-utility\src/xlogging.c **** 
 159              		.loc 1 104 0 is_stmt 1 discriminator 4
 160 0058 541C     		adds	r4, r2, #1
 161 005a 2978     		ldrb	r1, [r5]
 162 005c 0F20     		movs	r0, #15
ARM GAS  C:\Users\Phuong\AppData\Local\Temp\cc2bIkI6.s 			page 6


 163 005e 0140     		ands	r1, r0
 164 0060 0929     		cmp	r1, #9
 165 0062 01DC     		bgt	.L13
 104:Source\azure_iot_sdk\c-utility\src/xlogging.c **** 
 166              		.loc 1 104 0 is_stmt 0 discriminator 1
 167 0064 3031     		adds	r1, r1, #48
 168 0066 00E0     		b	.L14
 169              	.L13:
 104:Source\azure_iot_sdk\c-utility\src/xlogging.c **** 
 170              		.loc 1 104 0 discriminator 2
 171 0068 3731     		adds	r1, r1, #55
 172              	.L14:
 104:Source\azure_iot_sdk\c-utility\src/xlogging.c **** 
 173              		.loc 1 104 0 discriminator 4
 174 006a 08A8     		add	r0, sp, #32
 175 006c 0155     		strb	r1, [r0, r4]
 106:Source\azure_iot_sdk\c-utility\src/xlogging.c **** 
 176              		.loc 1 106 0 is_stmt 1 discriminator 4
 177 006e 0232     		adds	r2, r2, #2
 178 0070 2021     		movs	r1, #32
 179 0072 8154     		strb	r1, [r0, r2]
 108:Source\azure_iot_sdk\c-utility\src/xlogging.c ****         bufAsChar++;
 180              		.loc 1 108 0 discriminator 4
 181 0074 0133     		adds	r3, r3, #1
 182              	.LVL9:
 109:Source\azure_iot_sdk\c-utility\src/xlogging.c ****         /* If the line is full, print it to start another one. */
 183              		.loc 1 109 0 discriminator 4
 184 0076 0135     		adds	r5, r5, #1
 185              	.LVL10:
 111:Source\azure_iot_sdk\c-utility\src/xlogging.c ****         {
 186              		.loc 1 111 0 discriminator 4
 187 0078 102B     		cmp	r3, #16
 188 007a 1DD1     		bne	.L15
 113:Source\azure_iot_sdk\c-utility\src/xlogging.c ****             hexBuf[countbuf * 3] = '\0';
 189              		.loc 1 113 0
 190 007c 0021     		movs	r1, #0
 191 007e 15AA     		add	r2, sp, #84
 192 0080 D154     		strb	r1, [r2, r3]
 114:Source\azure_iot_sdk\c-utility\src/xlogging.c ****             LOG(AZ_LOG_TRACE, LOG_LINE, "%p: %s    %s", startPos, hexBuf, charBuf);
 193              		.loc 1 114 0
 194 0082 5A00     		lsls	r2, r3, #1
 195 0084 D318     		adds	r3, r2, r3
 196              	.LVL11:
 197 0086 C154     		strb	r1, [r0, r3]
 198              	.LBB3:
 115:Source\azure_iot_sdk\c-utility\src/xlogging.c ****             countbuf = 0;
 199              		.loc 1 115 0
 200 0088 FFF7FEFF 		bl	xlogging_get_log_function
 201              	.LVL12:
 202 008c 041E     		subs	r4, r0, #0
 203              	.LVL13:
 204 008e 11D0     		beq	.L21
 115:Source\azure_iot_sdk\c-utility\src/xlogging.c ****             countbuf = 0;
 205              		.loc 1 115 0 is_stmt 0 discriminator 4
 206 0090 15AB     		add	r3, sp, #84
 207 0092 0493     		str	r3, [sp, #16]
 208 0094 08AB     		add	r3, sp, #32
ARM GAS  C:\Users\Phuong\AppData\Local\Temp\cc2bIkI6.s 			page 7


 209 0096 0393     		str	r3, [sp, #12]
 210 0098 079B     		ldr	r3, [sp, #28]
 211 009a 0293     		str	r3, [sp, #8]
 212 009c 214B     		ldr	r3, .L22+12
 213 009e 0193     		str	r3, [sp, #4]
 214 00a0 0123     		movs	r3, #1
 215 00a2 0093     		str	r3, [sp]
 216 00a4 7233     		adds	r3, r3, #114
 217 00a6 1D4A     		ldr	r2, .L22+4
 218 00a8 1D49     		ldr	r1, .L22+8
 219 00aa 0220     		movs	r0, #2
 220              	.LVL14:
 221 00ac A047     		blx	r4
 222              	.LVL15:
 223              	.LBE3:
 117:Source\azure_iot_sdk\c-utility\src/xlogging.c ****             startPos = bufAsChar;
 224              		.loc 1 117 0 is_stmt 1 discriminator 4
 225 00ae 0795     		str	r5, [sp, #28]
 226              	.LVL16:
 116:Source\azure_iot_sdk\c-utility\src/xlogging.c ****             startPos = bufAsChar;
 227              		.loc 1 116 0 discriminator 4
 228 00b0 0023     		movs	r3, #0
 229 00b2 01E0     		b	.L15
 230              	.LVL17:
 231              	.L21:
 232              		.loc 1 117 0
 233 00b4 0795     		str	r5, [sp, #28]
 234              	.LVL18:
 116:Source\azure_iot_sdk\c-utility\src/xlogging.c ****             startPos = bufAsChar;
 235              		.loc 1 116 0
 236 00b6 0023     		movs	r3, #0
 237              	.LVL19:
 238              	.L15:
  95:Source\azure_iot_sdk\c-utility\src/xlogging.c ****     {
 239              		.loc 1 95 0 discriminator 2
 240 00b8 0136     		adds	r6, r6, #1
 241              	.LVL20:
 242              	.L9:
  95:Source\azure_iot_sdk\c-utility\src/xlogging.c ****     {
 243              		.loc 1 95 0 is_stmt 0 discriminator 1
 244 00ba BE42     		cmp	r6, r7
 245 00bc B8D3     		bcc	.L16
 118:Source\azure_iot_sdk\c-utility\src/xlogging.c ****         }
 119:Source\azure_iot_sdk\c-utility\src/xlogging.c ****     }
 120:Source\azure_iot_sdk\c-utility\src/xlogging.c **** 
 121:Source\azure_iot_sdk\c-utility\src/xlogging.c ****     /* If the last line does not fit the line size. */
 122:Source\azure_iot_sdk\c-utility\src/xlogging.c ****     if (countbuf > 0)
 246              		.loc 1 122 0 is_stmt 1
 247 00be 002B     		cmp	r3, #0
 248 00c0 28D0     		beq	.L7
 123:Source\azure_iot_sdk\c-utility\src/xlogging.c ****     {
 124:Source\azure_iot_sdk\c-utility\src/xlogging.c ****         /* Close the charBuf string. */
 125:Source\azure_iot_sdk\c-utility\src/xlogging.c ****         charBuf[countbuf] = '\0';
 249              		.loc 1 125 0
 250 00c2 0021     		movs	r1, #0
 251 00c4 15AA     		add	r2, sp, #84
 252 00c6 D154     		strb	r1, [r2, r3]
ARM GAS  C:\Users\Phuong\AppData\Local\Temp\cc2bIkI6.s 			page 8


 126:Source\azure_iot_sdk\c-utility\src/xlogging.c **** 
 127:Source\azure_iot_sdk\c-utility\src/xlogging.c ****         /* Fill the hexBuf with spaces to keep the charBuf alignment. */
 128:Source\azure_iot_sdk\c-utility\src/xlogging.c ****         while ((countbuf++) < LINE_SIZE - 1)
 253              		.loc 1 128 0
 254 00c8 09E0     		b	.L18
 255              	.LVL21:
 256              	.L19:
 129:Source\azure_iot_sdk\c-utility\src/xlogging.c ****         {
 130:Source\azure_iot_sdk\c-utility\src/xlogging.c ****             hexBuf[countbuf * 3] = ' ';
 257              		.loc 1 130 0
 258 00ca 5300     		lsls	r3, r2, #1
 259 00cc 9B18     		adds	r3, r3, r2
 260 00ce 08A9     		add	r1, sp, #32
 261 00d0 2020     		movs	r0, #32
 262 00d2 C854     		strb	r0, [r1, r3]
 131:Source\azure_iot_sdk\c-utility\src/xlogging.c ****             hexBuf[countbuf * 3 + 1] = ' ';
 263              		.loc 1 131 0
 264 00d4 5D1C     		adds	r5, r3, #1
 265 00d6 4855     		strb	r0, [r1, r5]
 132:Source\azure_iot_sdk\c-utility\src/xlogging.c ****             hexBuf[countbuf * 3 + 2] = ' ';
 266              		.loc 1 132 0
 267 00d8 0233     		adds	r3, r3, #2
 268 00da C854     		strb	r0, [r1, r3]
 128:Source\azure_iot_sdk\c-utility\src/xlogging.c ****         {
 269              		.loc 1 128 0
 270 00dc 1300     		movs	r3, r2
 271              	.LVL22:
 272              	.L18:
 273 00de 5A1C     		adds	r2, r3, #1
 274              	.LVL23:
 275 00e0 0E2B     		cmp	r3, #14
 276 00e2 F2D9     		bls	.L19
 133:Source\azure_iot_sdk\c-utility\src/xlogging.c ****         }
 134:Source\azure_iot_sdk\c-utility\src/xlogging.c ****         hexBuf[countbuf * 3] = '\0';
 277              		.loc 1 134 0
 278 00e4 5300     		lsls	r3, r2, #1
 279 00e6 9A18     		adds	r2, r3, r2
 280              	.LVL24:
 281 00e8 0021     		movs	r1, #0
 282 00ea 08AB     		add	r3, sp, #32
 283 00ec 9954     		strb	r1, [r3, r2]
 284              	.LBB4:
 135:Source\azure_iot_sdk\c-utility\src/xlogging.c **** 
 136:Source\azure_iot_sdk\c-utility\src/xlogging.c ****         /* Print the last line. */
 137:Source\azure_iot_sdk\c-utility\src/xlogging.c ****         LOG(AZ_LOG_TRACE, LOG_LINE, "%p: %s    %s", startPos, hexBuf, charBuf);
 285              		.loc 1 137 0
 286 00ee FFF7FEFF 		bl	xlogging_get_log_function
 287              	.LVL25:
 288 00f2 051E     		subs	r5, r0, #0
 289              	.LVL26:
 290 00f4 0ED0     		beq	.L7
 291              		.loc 1 137 0 is_stmt 0 discriminator 4
 292 00f6 15AB     		add	r3, sp, #84
 293 00f8 0493     		str	r3, [sp, #16]
 294 00fa 08AB     		add	r3, sp, #32
 295 00fc 0393     		str	r3, [sp, #12]
 296 00fe 079B     		ldr	r3, [sp, #28]
ARM GAS  C:\Users\Phuong\AppData\Local\Temp\cc2bIkI6.s 			page 9


 297 0100 0293     		str	r3, [sp, #8]
 298 0102 084B     		ldr	r3, .L22+12
 299 0104 0193     		str	r3, [sp, #4]
 300 0106 0123     		movs	r3, #1
 301 0108 0093     		str	r3, [sp]
 302 010a 8833     		adds	r3, r3, #136
 303 010c 034A     		ldr	r2, .L22+4
 304 010e 0449     		ldr	r1, .L22+8
 305 0110 0220     		movs	r0, #2
 306              	.LVL27:
 307 0112 A847     		blx	r5
 308              	.LVL28:
 309              	.L7:
 310              	.LBE4:
 138:Source\azure_iot_sdk\c-utility\src/xlogging.c ****     }
 139:Source\azure_iot_sdk\c-utility\src/xlogging.c **** }
 311              		.loc 1 139 0 is_stmt 1
 312 0114 1BB0     		add	sp, sp, #108
 313              		@ sp needed
 314              	.LVL29:
 315              	.LVL30:
 316 0116 F0BD     		pop	{r4, r5, r6, r7, pc}
 317              	.L23:
 318              		.align	2
 319              	.L22:
 320 0118 30000000 		.word	.LC5
 321 011c 00000000 		.word	.LANCHOR1
 322 0120 00000000 		.word	.LC3
 323 0124 44000000 		.word	.LC7
 324              		.cfi_endproc
 325              	.LFE3:
 326              		.size	LogBinary, .-LogBinary
 327              		.global	global_log_function
 328              		.section	.rodata
 329              		.align	2
 330              		.set	.LANCHOR1,. + 0
 331              		.type	__func__.5450, %object
 332              		.size	__func__.5450, 10
 333              	__func__.5450:
 334 0000 4C6F6742 		.ascii	"LogBinary\000"
 334      696E6172 
 334      7900
 335              		.data
 336              		.align	2
 337              		.set	.LANCHOR0,. + 0
 338              		.type	global_log_function, %object
 339              		.size	global_log_function, 4
 340              	global_log_function:
 341 0000 00000000 		.word	consolelogger_log
 342              		.section	.rodata.str1.4,"aMS",%progbits,1
 343              		.align	2
 344              	.LC3:
 345 0000 536F7572 		.ascii	"Source\\azure_iot_sdk\\c-utility\\src\\xlogging.c\000"
 345      63655C61 
 345      7A757265 
 345      5F696F74 
 345      5F73646B 
ARM GAS  C:\Users\Phuong\AppData\Local\Temp\cc2bIkI6.s 			page 10


 346 002e 0000     		.space	2
 347              	.LC5:
 348 0030 25732020 		.ascii	"%s     %zu bytes\000"
 348      20202025 
 348      7A752062 
 348      79746573 
 348      00
 349 0041 000000   		.space	3
 350              	.LC7:
 351 0044 25703A20 		.ascii	"%p: %s    %s\000"
 351      25732020 
 351      20202573 
 351      00
 352              		.text
 353              	.Letext0:
 354              		.file 2 "c:\\program files (x86)\\cypress\\psoc creator\\4.2\\psoc creator\\import\\gnu\\arm\\5.4.
 355              		.file 3 ".\\Source\\azure_iot_sdk\\c-utility\\inc/azure_c_shared_utility/xlogging.h"