ARM GAS  C:\Users\Phuong\AppData\Local\Temp\cc6ywEyA.s 			page 1


   1              		.syntax unified
   2              		.cpu cortex-m0plus
   3              		.fpu softvfp
   4              		.eabi_attribute 20, 1
   5              		.eabi_attribute 21, 1
   6              		.eabi_attribute 23, 3
   7              		.eabi_attribute 24, 1
   8              		.eabi_attribute 25, 1
   9              		.eabi_attribute 26, 1
  10              		.eabi_attribute 30, 1
  11              		.eabi_attribute 34, 0
  12              		.eabi_attribute 18, 4
  13              		.thumb
  14              		.syntax unified
  15              		.file	"xtea.c"
  16              		.text
  17              	.Ltext0:
  18              		.cfi_sections	.debug_frame
  19              		.section	.text.mbedtls_xtea_init,"ax",%progbits
  20              		.align	2
  21              		.global	mbedtls_xtea_init
  22              		.code	16
  23              		.thumb_func
  24              		.type	mbedtls_xtea_init, %function
  25              	mbedtls_xtea_init:
  26              	.LFB1:
  27              		.file 1 "Source\\mbedtls_open\\library\\xtea.c"
   1:Source\mbedtls_open\library/xtea.c **** /*
   2:Source\mbedtls_open\library/xtea.c ****  *  An 32-bit implementation of the XTEA algorithm
   3:Source\mbedtls_open\library/xtea.c ****  *
   4:Source\mbedtls_open\library/xtea.c ****  *  Copyright (C) 2006-2015, ARM Limited, All Rights Reserved
   5:Source\mbedtls_open\library/xtea.c ****  *  SPDX-License-Identifier: Apache-2.0
   6:Source\mbedtls_open\library/xtea.c ****  *
   7:Source\mbedtls_open\library/xtea.c ****  *  Licensed under the Apache License, Version 2.0 (the "License"); you may
   8:Source\mbedtls_open\library/xtea.c ****  *  not use this file except in compliance with the License.
   9:Source\mbedtls_open\library/xtea.c ****  *  You may obtain a copy of the License at
  10:Source\mbedtls_open\library/xtea.c ****  *
  11:Source\mbedtls_open\library/xtea.c ****  *  http://www.apache.org/licenses/LICENSE-2.0
  12:Source\mbedtls_open\library/xtea.c ****  *
  13:Source\mbedtls_open\library/xtea.c ****  *  Unless required by applicable law or agreed to in writing, software
  14:Source\mbedtls_open\library/xtea.c ****  *  distributed under the License is distributed on an "AS IS" BASIS, WITHOUT
  15:Source\mbedtls_open\library/xtea.c ****  *  WARRANTIES OR CONDITIONS OF ANY KIND, either express or implied.
  16:Source\mbedtls_open\library/xtea.c ****  *  See the License for the specific language governing permissions and
  17:Source\mbedtls_open\library/xtea.c ****  *  limitations under the License.
  18:Source\mbedtls_open\library/xtea.c ****  *
  19:Source\mbedtls_open\library/xtea.c ****  *  This file is part of mbed TLS (https://tls.mbed.org)
  20:Source\mbedtls_open\library/xtea.c ****  */
  21:Source\mbedtls_open\library/xtea.c **** 
  22:Source\mbedtls_open\library/xtea.c **** #if !defined(MBEDTLS_CONFIG_FILE)
  23:Source\mbedtls_open\library/xtea.c **** #include "mbedtls/config.h"
  24:Source\mbedtls_open\library/xtea.c **** #else
  25:Source\mbedtls_open\library/xtea.c **** #include MBEDTLS_CONFIG_FILE
  26:Source\mbedtls_open\library/xtea.c **** #endif
  27:Source\mbedtls_open\library/xtea.c **** 
  28:Source\mbedtls_open\library/xtea.c **** #if defined(MBEDTLS_XTEA_C)
  29:Source\mbedtls_open\library/xtea.c **** 
  30:Source\mbedtls_open\library/xtea.c **** #include "mbedtls/xtea.h"
ARM GAS  C:\Users\Phuong\AppData\Local\Temp\cc6ywEyA.s 			page 2


  31:Source\mbedtls_open\library/xtea.c **** #include "mbedtls/platform_util.h"
  32:Source\mbedtls_open\library/xtea.c **** 
  33:Source\mbedtls_open\library/xtea.c **** #include <string.h>
  34:Source\mbedtls_open\library/xtea.c **** 
  35:Source\mbedtls_open\library/xtea.c **** #if defined(MBEDTLS_SELF_TEST)
  36:Source\mbedtls_open\library/xtea.c **** #if defined(MBEDTLS_PLATFORM_C)
  37:Source\mbedtls_open\library/xtea.c **** #include "mbedtls/platform.h"
  38:Source\mbedtls_open\library/xtea.c **** #else
  39:Source\mbedtls_open\library/xtea.c **** #include <stdio.h>
  40:Source\mbedtls_open\library/xtea.c **** #define mbedtls_printf printf
  41:Source\mbedtls_open\library/xtea.c **** #endif /* MBEDTLS_PLATFORM_C */
  42:Source\mbedtls_open\library/xtea.c **** #endif /* MBEDTLS_SELF_TEST */
  43:Source\mbedtls_open\library/xtea.c **** 
  44:Source\mbedtls_open\library/xtea.c **** #if !defined(MBEDTLS_XTEA_ALT)
  45:Source\mbedtls_open\library/xtea.c **** 
  46:Source\mbedtls_open\library/xtea.c **** /*
  47:Source\mbedtls_open\library/xtea.c ****  * 32-bit integer manipulation macros (big endian)
  48:Source\mbedtls_open\library/xtea.c ****  */
  49:Source\mbedtls_open\library/xtea.c **** #ifndef GET_UINT32_BE
  50:Source\mbedtls_open\library/xtea.c **** #define GET_UINT32_BE(n,b,i)                            \
  51:Source\mbedtls_open\library/xtea.c **** {                                                       \
  52:Source\mbedtls_open\library/xtea.c ****     (n) = ( (uint32_t) (b)[(i)    ] << 24 )             \
  53:Source\mbedtls_open\library/xtea.c ****         | ( (uint32_t) (b)[(i) + 1] << 16 )             \
  54:Source\mbedtls_open\library/xtea.c ****         | ( (uint32_t) (b)[(i) + 2] <<  8 )             \
  55:Source\mbedtls_open\library/xtea.c ****         | ( (uint32_t) (b)[(i) + 3]       );            \
  56:Source\mbedtls_open\library/xtea.c **** }
  57:Source\mbedtls_open\library/xtea.c **** #endif
  58:Source\mbedtls_open\library/xtea.c **** 
  59:Source\mbedtls_open\library/xtea.c **** #ifndef PUT_UINT32_BE
  60:Source\mbedtls_open\library/xtea.c **** #define PUT_UINT32_BE(n,b,i)                            \
  61:Source\mbedtls_open\library/xtea.c **** {                                                       \
  62:Source\mbedtls_open\library/xtea.c ****     (b)[(i)    ] = (unsigned char) ( (n) >> 24 );       \
  63:Source\mbedtls_open\library/xtea.c ****     (b)[(i) + 1] = (unsigned char) ( (n) >> 16 );       \
  64:Source\mbedtls_open\library/xtea.c ****     (b)[(i) + 2] = (unsigned char) ( (n) >>  8 );       \
  65:Source\mbedtls_open\library/xtea.c ****     (b)[(i) + 3] = (unsigned char) ( (n)       );       \
  66:Source\mbedtls_open\library/xtea.c **** }
  67:Source\mbedtls_open\library/xtea.c **** #endif
  68:Source\mbedtls_open\library/xtea.c **** 
  69:Source\mbedtls_open\library/xtea.c **** void mbedtls_xtea_init( mbedtls_xtea_context *ctx )
  70:Source\mbedtls_open\library/xtea.c **** {
  28              		.loc 1 70 0
  29              		.cfi_startproc
  30              		@ args = 0, pretend = 0, frame = 0
  31              		@ frame_needed = 0, uses_anonymous_args = 0
  32              	.LVL0:
  33 0000 10B5     		push	{r4, lr}
  34              		.cfi_def_cfa_offset 8
  35              		.cfi_offset 4, -8
  36              		.cfi_offset 14, -4
  71:Source\mbedtls_open\library/xtea.c ****     memset( ctx, 0, sizeof( mbedtls_xtea_context ) );
  37              		.loc 1 71 0
  38 0002 1022     		movs	r2, #16
  39 0004 0021     		movs	r1, #0
  40 0006 FFF7FEFF 		bl	memset
  41              	.LVL1:
  72:Source\mbedtls_open\library/xtea.c **** }
  42              		.loc 1 72 0
ARM GAS  C:\Users\Phuong\AppData\Local\Temp\cc6ywEyA.s 			page 3


  43              		@ sp needed
  44 000a 10BD     		pop	{r4, pc}
  45              		.cfi_endproc
  46              	.LFE1:
  47              		.size	mbedtls_xtea_init, .-mbedtls_xtea_init
  48              		.section	.text.mbedtls_xtea_free,"ax",%progbits
  49              		.align	2
  50              		.global	mbedtls_xtea_free
  51              		.code	16
  52              		.thumb_func
  53              		.type	mbedtls_xtea_free, %function
  54              	mbedtls_xtea_free:
  55              	.LFB2:
  73:Source\mbedtls_open\library/xtea.c **** 
  74:Source\mbedtls_open\library/xtea.c **** void mbedtls_xtea_free( mbedtls_xtea_context *ctx )
  75:Source\mbedtls_open\library/xtea.c **** {
  56              		.loc 1 75 0
  57              		.cfi_startproc
  58              		@ args = 0, pretend = 0, frame = 0
  59              		@ frame_needed = 0, uses_anonymous_args = 0
  60              	.LVL2:
  61 0000 10B5     		push	{r4, lr}
  62              		.cfi_def_cfa_offset 8
  63              		.cfi_offset 4, -8
  64              		.cfi_offset 14, -4
  76:Source\mbedtls_open\library/xtea.c ****     if( ctx == NULL )
  65              		.loc 1 76 0
  66 0002 0028     		cmp	r0, #0
  67 0004 02D0     		beq	.L2
  77:Source\mbedtls_open\library/xtea.c ****         return;
  78:Source\mbedtls_open\library/xtea.c **** 
  79:Source\mbedtls_open\library/xtea.c ****     mbedtls_platform_zeroize( ctx, sizeof( mbedtls_xtea_context ) );
  68              		.loc 1 79 0
  69 0006 1021     		movs	r1, #16
  70 0008 FFF7FEFF 		bl	mbedtls_platform_zeroize
  71              	.LVL3:
  72              	.L2:
  80:Source\mbedtls_open\library/xtea.c **** }
  73              		.loc 1 80 0
  74              		@ sp needed
  75 000c 10BD     		pop	{r4, pc}
  76              		.cfi_endproc
  77              	.LFE2:
  78              		.size	mbedtls_xtea_free, .-mbedtls_xtea_free
  79 000e C046     		.section	.text.mbedtls_xtea_setup,"ax",%progbits
  80              		.align	2
  81              		.global	mbedtls_xtea_setup
  82              		.code	16
  83              		.thumb_func
  84              		.type	mbedtls_xtea_setup, %function
  85              	mbedtls_xtea_setup:
  86              	.LFB3:
  81:Source\mbedtls_open\library/xtea.c **** 
  82:Source\mbedtls_open\library/xtea.c **** /*
  83:Source\mbedtls_open\library/xtea.c ****  * XTEA key schedule
  84:Source\mbedtls_open\library/xtea.c ****  */
  85:Source\mbedtls_open\library/xtea.c **** void mbedtls_xtea_setup( mbedtls_xtea_context *ctx, const unsigned char key[16] )
ARM GAS  C:\Users\Phuong\AppData\Local\Temp\cc6ywEyA.s 			page 4


  86:Source\mbedtls_open\library/xtea.c **** {
  87              		.loc 1 86 0
  88              		.cfi_startproc
  89              		@ args = 0, pretend = 0, frame = 0
  90              		@ frame_needed = 0, uses_anonymous_args = 0
  91              	.LVL4:
  92 0000 70B5     		push	{r4, r5, r6, lr}
  93              		.cfi_def_cfa_offset 16
  94              		.cfi_offset 4, -16
  95              		.cfi_offset 5, -12
  96              		.cfi_offset 6, -8
  97              		.cfi_offset 14, -4
  98 0002 0500     		movs	r5, r0
  99 0004 0C00     		movs	r4, r1
  87:Source\mbedtls_open\library/xtea.c ****     int i;
  88:Source\mbedtls_open\library/xtea.c **** 
  89:Source\mbedtls_open\library/xtea.c ****     memset( ctx, 0, sizeof(mbedtls_xtea_context) );
 100              		.loc 1 89 0
 101 0006 1022     		movs	r2, #16
 102 0008 0021     		movs	r1, #0
 103              	.LVL5:
 104 000a FFF7FEFF 		bl	memset
 105              	.LVL6:
  90:Source\mbedtls_open\library/xtea.c **** 
  91:Source\mbedtls_open\library/xtea.c ****     for( i = 0; i < 4; i++ )
 106              		.loc 1 91 0
 107 000e 0021     		movs	r1, #0
 108 0010 0DE0     		b	.L5
 109              	.LVL7:
 110              	.L6:
  92:Source\mbedtls_open\library/xtea.c ****     {
  93:Source\mbedtls_open\library/xtea.c ****         GET_UINT32_BE( ctx->k[i], key, i << 2 );
 111              		.loc 1 93 0 discriminator 3
 112 0012 8800     		lsls	r0, r1, #2
 113 0014 235C     		ldrb	r3, [r4, r0]
 114 0016 1A06     		lsls	r2, r3, #24
 115 0018 2618     		adds	r6, r4, r0
 116 001a 7378     		ldrb	r3, [r6, #1]
 117 001c 1B04     		lsls	r3, r3, #16
 118 001e 1343     		orrs	r3, r2
 119 0020 B278     		ldrb	r2, [r6, #2]
 120 0022 1202     		lsls	r2, r2, #8
 121 0024 1343     		orrs	r3, r2
 122 0026 F278     		ldrb	r2, [r6, #3]
 123 0028 1343     		orrs	r3, r2
 124 002a 4351     		str	r3, [r0, r5]
  91:Source\mbedtls_open\library/xtea.c ****     {
 125              		.loc 1 91 0 discriminator 3
 126 002c 0131     		adds	r1, r1, #1
 127              	.LVL8:
 128              	.L5:
  91:Source\mbedtls_open\library/xtea.c ****     {
 129              		.loc 1 91 0 is_stmt 0 discriminator 1
 130 002e 0329     		cmp	r1, #3
 131 0030 EFDD     		ble	.L6
  94:Source\mbedtls_open\library/xtea.c ****     }
  95:Source\mbedtls_open\library/xtea.c **** }
ARM GAS  C:\Users\Phuong\AppData\Local\Temp\cc6ywEyA.s 			page 5


 132              		.loc 1 95 0 is_stmt 1
 133              		@ sp needed
 134              	.LVL9:
 135              	.LVL10:
 136 0032 70BD     		pop	{r4, r5, r6, pc}
 137              		.cfi_endproc
 138              	.LFE3:
 139              		.size	mbedtls_xtea_setup, .-mbedtls_xtea_setup
 140              		.section	.text.mbedtls_xtea_crypt_ecb,"ax",%progbits
 141              		.align	2
 142              		.global	mbedtls_xtea_crypt_ecb
 143              		.code	16
 144              		.thumb_func
 145              		.type	mbedtls_xtea_crypt_ecb, %function
 146              	mbedtls_xtea_crypt_ecb:
 147              	.LFB4:
  96:Source\mbedtls_open\library/xtea.c **** 
  97:Source\mbedtls_open\library/xtea.c **** /*
  98:Source\mbedtls_open\library/xtea.c ****  * XTEA encrypt function
  99:Source\mbedtls_open\library/xtea.c ****  */
 100:Source\mbedtls_open\library/xtea.c **** int mbedtls_xtea_crypt_ecb( mbedtls_xtea_context *ctx, int mode,
 101:Source\mbedtls_open\library/xtea.c ****                     const unsigned char input[8], unsigned char output[8])
 102:Source\mbedtls_open\library/xtea.c **** {
 148              		.loc 1 102 0
 149              		.cfi_startproc
 150              		@ args = 0, pretend = 0, frame = 0
 151              		@ frame_needed = 0, uses_anonymous_args = 0
 152              	.LVL11:
 153 0000 F0B5     		push	{r4, r5, r6, r7, lr}
 154              		.cfi_def_cfa_offset 20
 155              		.cfi_offset 4, -20
 156              		.cfi_offset 5, -16
 157              		.cfi_offset 6, -12
 158              		.cfi_offset 7, -8
 159              		.cfi_offset 14, -4
 160 0002 4F46     		mov	r7, r9
 161 0004 4646     		mov	r6, r8
 162 0006 C0B4     		push	{r6, r7}
 163              		.cfi_def_cfa_offset 28
 164              		.cfi_offset 8, -28
 165              		.cfi_offset 9, -24
 166 0008 1500     		movs	r5, r2
 167 000a 9C46     		mov	ip, r3
 103:Source\mbedtls_open\library/xtea.c ****     uint32_t *k, v0, v1, i;
 104:Source\mbedtls_open\library/xtea.c **** 
 105:Source\mbedtls_open\library/xtea.c ****     k = ctx->k;
 168              		.loc 1 105 0
 169 000c 0300     		movs	r3, r0
 170              	.LVL12:
 106:Source\mbedtls_open\library/xtea.c **** 
 107:Source\mbedtls_open\library/xtea.c ****     GET_UINT32_BE( v0, input, 0 );
 171              		.loc 1 107 0
 172 000e 1478     		ldrb	r4, [r2]
 173 0010 2406     		lsls	r4, r4, #24
 174 0012 5278     		ldrb	r2, [r2, #1]
 175              	.LVL13:
 176 0014 1204     		lsls	r2, r2, #16
ARM GAS  C:\Users\Phuong\AppData\Local\Temp\cc6ywEyA.s 			page 6


 177 0016 1443     		orrs	r4, r2
 178 0018 AA78     		ldrb	r2, [r5, #2]
 179 001a 1202     		lsls	r2, r2, #8
 180 001c 1443     		orrs	r4, r2
 181 001e EA78     		ldrb	r2, [r5, #3]
 182 0020 1443     		orrs	r4, r2
 183              	.LVL14:
 108:Source\mbedtls_open\library/xtea.c ****     GET_UINT32_BE( v1, input, 4 );
 184              		.loc 1 108 0
 185 0022 2A79     		ldrb	r2, [r5, #4]
 186 0024 1006     		lsls	r0, r2, #24
 187              	.LVL15:
 188 0026 6A79     		ldrb	r2, [r5, #5]
 189 0028 1204     		lsls	r2, r2, #16
 190 002a 0243     		orrs	r2, r0
 191 002c A879     		ldrb	r0, [r5, #6]
 192 002e 0002     		lsls	r0, r0, #8
 193 0030 0243     		orrs	r2, r0
 194 0032 E879     		ldrb	r0, [r5, #7]
 195 0034 0243     		orrs	r2, r0
 196              	.LVL16:
 109:Source\mbedtls_open\library/xtea.c **** 
 110:Source\mbedtls_open\library/xtea.c ****     if( mode == MBEDTLS_XTEA_ENCRYPT )
 197              		.loc 1 110 0
 198 0036 0129     		cmp	r1, #1
 199 0038 1FD0     		beq	.L13
 200 003a 2B4D     		ldr	r5, .L14
 201              	.LVL17:
 202 003c 0020     		movs	r0, #0
 203 003e 3CE0     		b	.L9
 204              	.LVL18:
 205              	.L10:
 206              	.LBB2:
 111:Source\mbedtls_open\library/xtea.c ****     {
 112:Source\mbedtls_open\library/xtea.c ****         uint32_t sum = 0, delta = 0x9E3779B9;
 113:Source\mbedtls_open\library/xtea.c **** 
 114:Source\mbedtls_open\library/xtea.c ****         for( i = 0; i < 32; i++ )
 115:Source\mbedtls_open\library/xtea.c ****         {
 116:Source\mbedtls_open\library/xtea.c ****             v0 += (((v1 << 4) ^ (v1 >> 5)) + v1) ^ (sum + k[sum & 3]);
 207              		.loc 1 116 0 discriminator 3
 208 0040 1501     		lsls	r5, r2, #4
 209 0042 5009     		lsrs	r0, r2, #5
 210 0044 6840     		eors	r0, r5
 211 0046 1018     		adds	r0, r2, r0
 212 0048 0325     		movs	r5, #3
 213 004a A846     		mov	r8, r5
 214 004c 0D40     		ands	r5, r1
 215 004e AD00     		lsls	r5, r5, #2
 216 0050 EF58     		ldr	r7, [r5, r3]
 217 0052 CF19     		adds	r7, r1, r7
 218 0054 7840     		eors	r0, r7
 219 0056 2418     		adds	r4, r4, r0
 220              	.LVL19:
 117:Source\mbedtls_open\library/xtea.c ****             sum += delta;
 221              		.loc 1 117 0 discriminator 3
 222 0058 2448     		ldr	r0, .L14+4
 223 005a 8146     		mov	r9, r0
ARM GAS  C:\Users\Phuong\AppData\Local\Temp\cc6ywEyA.s 			page 7


 224 005c 4944     		add	r1, r1, r9
 225              	.LVL20:
 118:Source\mbedtls_open\library/xtea.c ****             v1 += (((v0 << 4) ^ (v0 >> 5)) + v0) ^ (sum + k[(sum>>11) & 3]);
 226              		.loc 1 118 0 discriminator 3
 227 005e 2501     		lsls	r5, r4, #4
 228 0060 6009     		lsrs	r0, r4, #5
 229 0062 6840     		eors	r0, r5
 230 0064 2018     		adds	r0, r4, r0
 231 0066 CD0A     		lsrs	r5, r1, #11
 232 0068 4746     		mov	r7, r8
 233 006a 3D40     		ands	r5, r7
 234 006c AD00     		lsls	r5, r5, #2
 235 006e ED58     		ldr	r5, [r5, r3]
 236 0070 4D19     		adds	r5, r1, r5
 237 0072 6840     		eors	r0, r5
 238 0074 1218     		adds	r2, r2, r0
 239              	.LVL21:
 114:Source\mbedtls_open\library/xtea.c ****         {
 240              		.loc 1 114 0 discriminator 3
 241 0076 0136     		adds	r6, r6, #1
 242              	.LVL22:
 243 0078 01E0     		b	.L8
 244              	.LVL23:
 245              	.L13:
 246              	.LBE2:
 247 007a 0021     		movs	r1, #0
 248              	.LVL24:
 249 007c 0026     		movs	r6, #0
 250              	.LVL25:
 251              	.L8:
 252              	.LBB3:
 114:Source\mbedtls_open\library/xtea.c ****         {
 253              		.loc 1 114 0 is_stmt 0 discriminator 1
 254 007e 1F2E     		cmp	r6, #31
 255 0080 DED9     		bls	.L10
 256 0082 1CE0     		b	.L11
 257              	.LVL26:
 258              	.L12:
 259              	.LBE3:
 260              	.LBB4:
 119:Source\mbedtls_open\library/xtea.c ****         }
 120:Source\mbedtls_open\library/xtea.c ****     }
 121:Source\mbedtls_open\library/xtea.c ****     else /* MBEDTLS_XTEA_DECRYPT */
 122:Source\mbedtls_open\library/xtea.c ****     {
 123:Source\mbedtls_open\library/xtea.c ****         uint32_t delta = 0x9E3779B9, sum = delta * 32;
 124:Source\mbedtls_open\library/xtea.c **** 
 125:Source\mbedtls_open\library/xtea.c ****         for( i = 0; i < 32; i++ )
 126:Source\mbedtls_open\library/xtea.c ****         {
 127:Source\mbedtls_open\library/xtea.c ****             v1 -= (((v0 << 4) ^ (v0 >> 5)) + v0) ^ (sum + k[(sum>>11) & 3]);
 261              		.loc 1 127 0 is_stmt 1 discriminator 3
 262 0084 2601     		lsls	r6, r4, #4
 263 0086 6109     		lsrs	r1, r4, #5
 264 0088 4E40     		eors	r6, r1
 265 008a A619     		adds	r6, r4, r6
 266 008c EF0A     		lsrs	r7, r5, #11
 267 008e 0321     		movs	r1, #3
 268 0090 0F40     		ands	r7, r1
ARM GAS  C:\Users\Phuong\AppData\Local\Temp\cc6ywEyA.s 			page 8


 269 0092 BF00     		lsls	r7, r7, #2
 270 0094 FF58     		ldr	r7, [r7, r3]
 271 0096 EF19     		adds	r7, r5, r7
 272 0098 7E40     		eors	r6, r7
 273 009a 921B     		subs	r2, r2, r6
 274              	.LVL27:
 128:Source\mbedtls_open\library/xtea.c ****             sum -= delta;
 275              		.loc 1 128 0 discriminator 3
 276 009c 144E     		ldr	r6, .L14+8
 277 009e B046     		mov	r8, r6
 278 00a0 4544     		add	r5, r5, r8
 279              	.LVL28:
 129:Source\mbedtls_open\library/xtea.c ****             v0 -= (((v1 << 4) ^ (v1 >> 5)) + v1) ^ (sum + k[sum & 3]);
 280              		.loc 1 129 0 discriminator 3
 281 00a2 1701     		lsls	r7, r2, #4
 282 00a4 5609     		lsrs	r6, r2, #5
 283 00a6 7740     		eors	r7, r6
 284 00a8 D719     		adds	r7, r2, r7
 285 00aa 2940     		ands	r1, r5
 286 00ac 8900     		lsls	r1, r1, #2
 287 00ae CE58     		ldr	r6, [r1, r3]
 288 00b0 AE19     		adds	r6, r5, r6
 289 00b2 3900     		movs	r1, r7
 290 00b4 7140     		eors	r1, r6
 291 00b6 641A     		subs	r4, r4, r1
 292              	.LVL29:
 125:Source\mbedtls_open\library/xtea.c ****         {
 293              		.loc 1 125 0 discriminator 3
 294 00b8 0130     		adds	r0, r0, #1
 295              	.LVL30:
 296              	.L9:
 125:Source\mbedtls_open\library/xtea.c ****         {
 297              		.loc 1 125 0 is_stmt 0 discriminator 1
 298 00ba 1F28     		cmp	r0, #31
 299 00bc E2D9     		bls	.L12
 300              	.LVL31:
 301              	.L11:
 302              	.LBE4:
 130:Source\mbedtls_open\library/xtea.c ****         }
 131:Source\mbedtls_open\library/xtea.c ****     }
 132:Source\mbedtls_open\library/xtea.c **** 
 133:Source\mbedtls_open\library/xtea.c ****     PUT_UINT32_BE( v0, output, 0 );
 303              		.loc 1 133 0 is_stmt 1
 304 00be 230E     		lsrs	r3, r4, #24
 305              	.LVL32:
 306 00c0 6146     		mov	r1, ip
 307 00c2 0B70     		strb	r3, [r1]
 308 00c4 230C     		lsrs	r3, r4, #16
 309 00c6 4B70     		strb	r3, [r1, #1]
 310 00c8 230A     		lsrs	r3, r4, #8
 311 00ca 8B70     		strb	r3, [r1, #2]
 312 00cc CC70     		strb	r4, [r1, #3]
 134:Source\mbedtls_open\library/xtea.c ****     PUT_UINT32_BE( v1, output, 4 );
 313              		.loc 1 134 0
 314 00ce 130E     		lsrs	r3, r2, #24
 315 00d0 0B71     		strb	r3, [r1, #4]
 316 00d2 130C     		lsrs	r3, r2, #16
ARM GAS  C:\Users\Phuong\AppData\Local\Temp\cc6ywEyA.s 			page 9


 317 00d4 4B71     		strb	r3, [r1, #5]
 318 00d6 130A     		lsrs	r3, r2, #8
 319 00d8 8B71     		strb	r3, [r1, #6]
 320 00da CA71     		strb	r2, [r1, #7]
 135:Source\mbedtls_open\library/xtea.c **** 
 136:Source\mbedtls_open\library/xtea.c ****     return( 0 );
 137:Source\mbedtls_open\library/xtea.c **** }
 321              		.loc 1 137 0
 322 00dc 0020     		movs	r0, #0
 323              		@ sp needed
 324              	.LVL33:
 325 00de 0CBC     		pop	{r2, r3}
 326 00e0 9046     		mov	r8, r2
 327 00e2 9946     		mov	r9, r3
 328 00e4 F0BD     		pop	{r4, r5, r6, r7, pc}
 329              	.L15:
 330 00e6 C046     		.align	2
 331              	.L14:
 332 00e8 2037EFC6 		.word	-957401312
 333 00ec B979379E 		.word	-1640531527
 334 00f0 4786C861 		.word	1640531527
 335              		.cfi_endproc
 336              	.LFE4:
 337              		.size	mbedtls_xtea_crypt_ecb, .-mbedtls_xtea_crypt_ecb
 338              		.section	.text.mbedtls_xtea_crypt_cbc,"ax",%progbits
 339              		.align	2
 340              		.global	mbedtls_xtea_crypt_cbc
 341              		.code	16
 342              		.thumb_func
 343              		.type	mbedtls_xtea_crypt_cbc, %function
 344              	mbedtls_xtea_crypt_cbc:
 345              	.LFB5:
 138:Source\mbedtls_open\library/xtea.c **** 
 139:Source\mbedtls_open\library/xtea.c **** #if defined(MBEDTLS_CIPHER_MODE_CBC)
 140:Source\mbedtls_open\library/xtea.c **** /*
 141:Source\mbedtls_open\library/xtea.c ****  * XTEA-CBC buffer encryption/decryption
 142:Source\mbedtls_open\library/xtea.c ****  */
 143:Source\mbedtls_open\library/xtea.c **** int mbedtls_xtea_crypt_cbc( mbedtls_xtea_context *ctx, int mode, size_t length,
 144:Source\mbedtls_open\library/xtea.c ****                     unsigned char iv[8], const unsigned char *input,
 145:Source\mbedtls_open\library/xtea.c ****                     unsigned char *output)
 146:Source\mbedtls_open\library/xtea.c **** {
 346              		.loc 1 146 0
 347              		.cfi_startproc
 348              		@ args = 8, pretend = 0, frame = 16
 349              		@ frame_needed = 0, uses_anonymous_args = 0
 350              	.LVL34:
 351 0000 F0B5     		push	{r4, r5, r6, r7, lr}
 352              		.cfi_def_cfa_offset 20
 353              		.cfi_offset 4, -20
 354              		.cfi_offset 5, -16
 355              		.cfi_offset 6, -12
 356              		.cfi_offset 7, -8
 357              		.cfi_offset 14, -4
 358 0002 85B0     		sub	sp, sp, #20
 359              		.cfi_def_cfa_offset 40
 360 0004 0090     		str	r0, [sp]
 361 0006 0191     		str	r1, [sp, #4]
ARM GAS  C:\Users\Phuong\AppData\Local\Temp\cc6ywEyA.s 			page 10


 362 0008 1500     		movs	r5, r2
 363 000a 1F00     		movs	r7, r3
 364 000c 0A9C     		ldr	r4, [sp, #40]
 365 000e 0B9E     		ldr	r6, [sp, #44]
 147:Source\mbedtls_open\library/xtea.c ****     int i;
 148:Source\mbedtls_open\library/xtea.c ****     unsigned char temp[8];
 149:Source\mbedtls_open\library/xtea.c **** 
 150:Source\mbedtls_open\library/xtea.c ****     if( length % 8 )
 366              		.loc 1 150 0
 367 0010 5307     		lsls	r3, r2, #29
 368 0012 3ED1     		bne	.L25
 369              	.LVL35:
 151:Source\mbedtls_open\library/xtea.c ****         return( MBEDTLS_ERR_XTEA_INVALID_INPUT_LENGTH );
 152:Source\mbedtls_open\library/xtea.c **** 
 153:Source\mbedtls_open\library/xtea.c ****     if( mode == MBEDTLS_XTEA_DECRYPT )
 370              		.loc 1 153 0
 371 0014 0029     		cmp	r1, #0
 372 0016 1DD0     		beq	.L18
 373 0018 37E0     		b	.L19
 374              	.LVL36:
 375              	.L22:
 154:Source\mbedtls_open\library/xtea.c ****     {
 155:Source\mbedtls_open\library/xtea.c ****         while( length > 0 )
 156:Source\mbedtls_open\library/xtea.c ****         {
 157:Source\mbedtls_open\library/xtea.c ****             memcpy( temp, input, 8 );
 376              		.loc 1 157 0
 377 001a 0822     		movs	r2, #8
 378 001c 2100     		movs	r1, r4
 379 001e 02A8     		add	r0, sp, #8
 380 0020 FFF7FEFF 		bl	memcpy
 381              	.LVL37:
 158:Source\mbedtls_open\library/xtea.c ****             mbedtls_xtea_crypt_ecb( ctx, mode, input, output );
 382              		.loc 1 158 0
 383 0024 3300     		movs	r3, r6
 384 0026 2200     		movs	r2, r4
 385 0028 0199     		ldr	r1, [sp, #4]
 386 002a 0098     		ldr	r0, [sp]
 387 002c FFF7FEFF 		bl	mbedtls_xtea_crypt_ecb
 388              	.LVL38:
 159:Source\mbedtls_open\library/xtea.c **** 
 160:Source\mbedtls_open\library/xtea.c ****             for( i = 0; i < 8; i++ )
 389              		.loc 1 160 0
 390 0030 0023     		movs	r3, #0
 391 0032 05E0     		b	.L20
 392              	.LVL39:
 393              	.L21:
 161:Source\mbedtls_open\library/xtea.c ****                 output[i] = (unsigned char)( output[i] ^ iv[i] );
 394              		.loc 1 161 0 discriminator 3
 395 0034 F118     		adds	r1, r6, r3
 396 0036 0878     		ldrb	r0, [r1]
 397 0038 FA5C     		ldrb	r2, [r7, r3]
 398 003a 4240     		eors	r2, r0
 399 003c 0A70     		strb	r2, [r1]
 160:Source\mbedtls_open\library/xtea.c ****                 output[i] = (unsigned char)( output[i] ^ iv[i] );
 400              		.loc 1 160 0 discriminator 3
 401 003e 0133     		adds	r3, r3, #1
 402              	.LVL40:
ARM GAS  C:\Users\Phuong\AppData\Local\Temp\cc6ywEyA.s 			page 11


 403              	.L20:
 160:Source\mbedtls_open\library/xtea.c ****                 output[i] = (unsigned char)( output[i] ^ iv[i] );
 404              		.loc 1 160 0 is_stmt 0 discriminator 1
 405 0040 072B     		cmp	r3, #7
 406 0042 F7DD     		ble	.L21
 162:Source\mbedtls_open\library/xtea.c **** 
 163:Source\mbedtls_open\library/xtea.c ****             memcpy( iv, temp, 8 );
 407              		.loc 1 163 0 is_stmt 1
 408 0044 0822     		movs	r2, #8
 409 0046 02A9     		add	r1, sp, #8
 410 0048 3800     		movs	r0, r7
 411 004a FFF7FEFF 		bl	memcpy
 412              	.LVL41:
 164:Source\mbedtls_open\library/xtea.c **** 
 165:Source\mbedtls_open\library/xtea.c ****             input  += 8;
 413              		.loc 1 165 0
 414 004e 0834     		adds	r4, r4, #8
 415              	.LVL42:
 166:Source\mbedtls_open\library/xtea.c ****             output += 8;
 416              		.loc 1 166 0
 417 0050 0836     		adds	r6, r6, #8
 418              	.LVL43:
 167:Source\mbedtls_open\library/xtea.c ****             length -= 8;
 419              		.loc 1 167 0
 420 0052 083D     		subs	r5, r5, #8
 421              	.LVL44:
 422              	.L18:
 155:Source\mbedtls_open\library/xtea.c ****         {
 423              		.loc 1 155 0
 424 0054 002D     		cmp	r5, #0
 425 0056 E0D1     		bne	.L22
 168:Source\mbedtls_open\library/xtea.c ****         }
 169:Source\mbedtls_open\library/xtea.c ****     }
 170:Source\mbedtls_open\library/xtea.c ****     else
 171:Source\mbedtls_open\library/xtea.c ****     {
 172:Source\mbedtls_open\library/xtea.c ****         while( length > 0 )
 173:Source\mbedtls_open\library/xtea.c ****         {
 174:Source\mbedtls_open\library/xtea.c ****             for( i = 0; i < 8; i++ )
 175:Source\mbedtls_open\library/xtea.c ****                 output[i] = (unsigned char)( input[i] ^ iv[i] );
 176:Source\mbedtls_open\library/xtea.c **** 
 177:Source\mbedtls_open\library/xtea.c ****             mbedtls_xtea_crypt_ecb( ctx, mode, output, output );
 178:Source\mbedtls_open\library/xtea.c ****             memcpy( iv, output, 8 );
 179:Source\mbedtls_open\library/xtea.c **** 
 180:Source\mbedtls_open\library/xtea.c ****             input  += 8;
 181:Source\mbedtls_open\library/xtea.c ****             output += 8;
 182:Source\mbedtls_open\library/xtea.c ****             length -= 8;
 183:Source\mbedtls_open\library/xtea.c ****         }
 184:Source\mbedtls_open\library/xtea.c ****     }
 185:Source\mbedtls_open\library/xtea.c **** 
 186:Source\mbedtls_open\library/xtea.c ****     return( 0 );
 426              		.loc 1 186 0
 427 0058 0020     		movs	r0, #0
 428 005a 1CE0     		b	.L17
 429              	.LVL45:
 430              	.L23:
 175:Source\mbedtls_open\library/xtea.c **** 
 431              		.loc 1 175 0 discriminator 3
ARM GAS  C:\Users\Phuong\AppData\Local\Temp\cc6ywEyA.s 			page 12


 432 005c E15C     		ldrb	r1, [r4, r3]
 433 005e FA5C     		ldrb	r2, [r7, r3]
 434 0060 4A40     		eors	r2, r1
 435 0062 F254     		strb	r2, [r6, r3]
 174:Source\mbedtls_open\library/xtea.c ****                 output[i] = (unsigned char)( input[i] ^ iv[i] );
 436              		.loc 1 174 0 discriminator 3
 437 0064 0133     		adds	r3, r3, #1
 438              	.LVL46:
 439 0066 00E0     		b	.L24
 440              	.LVL47:
 441              	.L26:
 442 0068 0023     		movs	r3, #0
 443              	.L24:
 444              	.LVL48:
 174:Source\mbedtls_open\library/xtea.c ****                 output[i] = (unsigned char)( input[i] ^ iv[i] );
 445              		.loc 1 174 0 is_stmt 0 discriminator 1
 446 006a 072B     		cmp	r3, #7
 447 006c F6DD     		ble	.L23
 177:Source\mbedtls_open\library/xtea.c ****             memcpy( iv, output, 8 );
 448              		.loc 1 177 0 is_stmt 1
 449 006e 3300     		movs	r3, r6
 450              	.LVL49:
 451 0070 3200     		movs	r2, r6
 452 0072 0199     		ldr	r1, [sp, #4]
 453 0074 0098     		ldr	r0, [sp]
 454 0076 FFF7FEFF 		bl	mbedtls_xtea_crypt_ecb
 455              	.LVL50:
 178:Source\mbedtls_open\library/xtea.c **** 
 456              		.loc 1 178 0
 457 007a 0822     		movs	r2, #8
 458 007c 3100     		movs	r1, r6
 459 007e 3800     		movs	r0, r7
 460 0080 FFF7FEFF 		bl	memcpy
 461              	.LVL51:
 180:Source\mbedtls_open\library/xtea.c ****             output += 8;
 462              		.loc 1 180 0
 463 0084 0834     		adds	r4, r4, #8
 464              	.LVL52:
 181:Source\mbedtls_open\library/xtea.c ****             length -= 8;
 465              		.loc 1 181 0
 466 0086 0836     		adds	r6, r6, #8
 467              	.LVL53:
 182:Source\mbedtls_open\library/xtea.c ****         }
 468              		.loc 1 182 0
 469 0088 083D     		subs	r5, r5, #8
 470              	.LVL54:
 471              	.L19:
 172:Source\mbedtls_open\library/xtea.c ****         {
 472              		.loc 1 172 0
 473 008a 002D     		cmp	r5, #0
 474 008c ECD1     		bne	.L26
 475              		.loc 1 186 0
 476 008e 0020     		movs	r0, #0
 477 0090 01E0     		b	.L17
 478              	.LVL55:
 479              	.L25:
 151:Source\mbedtls_open\library/xtea.c **** 
ARM GAS  C:\Users\Phuong\AppData\Local\Temp\cc6ywEyA.s 			page 13


 480              		.loc 1 151 0
 481 0092 2820     		movs	r0, #40
 482              	.LVL56:
 483 0094 4042     		rsbs	r0, r0, #0
 484              	.LVL57:
 485              	.L17:
 187:Source\mbedtls_open\library/xtea.c **** }
 486              		.loc 1 187 0
 487 0096 05B0     		add	sp, sp, #20
 488              	.LVL58:
 489              		@ sp needed
 490              	.LVL59:
 491              	.LVL60:
 492 0098 F0BD     		pop	{r4, r5, r6, r7, pc}
 493              		.cfi_endproc
 494              	.LFE5:
 495              		.size	mbedtls_xtea_crypt_cbc, .-mbedtls_xtea_crypt_cbc
 496 009a C046     		.section	.text.mbedtls_xtea_self_test,"ax",%progbits
 497              		.align	2
 498              		.global	mbedtls_xtea_self_test
 499              		.code	16
 500              		.thumb_func
 501              		.type	mbedtls_xtea_self_test, %function
 502              	mbedtls_xtea_self_test:
 503              	.LFB6:
 188:Source\mbedtls_open\library/xtea.c **** #endif /* MBEDTLS_CIPHER_MODE_CBC */
 189:Source\mbedtls_open\library/xtea.c **** #endif /* !MBEDTLS_XTEA_ALT */
 190:Source\mbedtls_open\library/xtea.c **** 
 191:Source\mbedtls_open\library/xtea.c **** #if defined(MBEDTLS_SELF_TEST)
 192:Source\mbedtls_open\library/xtea.c **** 
 193:Source\mbedtls_open\library/xtea.c **** /*
 194:Source\mbedtls_open\library/xtea.c ****  * XTEA tests vectors (non-official)
 195:Source\mbedtls_open\library/xtea.c ****  */
 196:Source\mbedtls_open\library/xtea.c **** 
 197:Source\mbedtls_open\library/xtea.c **** static const unsigned char xtea_test_key[6][16] =
 198:Source\mbedtls_open\library/xtea.c **** {
 199:Source\mbedtls_open\library/xtea.c ****    { 0x00, 0x01, 0x02, 0x03, 0x04, 0x05, 0x06, 0x07, 0x08, 0x09, 0x0a, 0x0b,
 200:Source\mbedtls_open\library/xtea.c ****      0x0c, 0x0d, 0x0e, 0x0f },
 201:Source\mbedtls_open\library/xtea.c ****    { 0x00, 0x01, 0x02, 0x03, 0x04, 0x05, 0x06, 0x07, 0x08, 0x09, 0x0a, 0x0b,
 202:Source\mbedtls_open\library/xtea.c ****      0x0c, 0x0d, 0x0e, 0x0f },
 203:Source\mbedtls_open\library/xtea.c ****    { 0x00, 0x01, 0x02, 0x03, 0x04, 0x05, 0x06, 0x07, 0x08, 0x09, 0x0a, 0x0b,
 204:Source\mbedtls_open\library/xtea.c ****      0x0c, 0x0d, 0x0e, 0x0f },
 205:Source\mbedtls_open\library/xtea.c ****    { 0x00, 0x00, 0x00, 0x00, 0x00, 0x00, 0x00, 0x00, 0x00, 0x00, 0x00, 0x00,
 206:Source\mbedtls_open\library/xtea.c ****      0x00, 0x00, 0x00, 0x00 },
 207:Source\mbedtls_open\library/xtea.c ****    { 0x00, 0x00, 0x00, 0x00, 0x00, 0x00, 0x00, 0x00, 0x00, 0x00, 0x00, 0x00,
 208:Source\mbedtls_open\library/xtea.c ****      0x00, 0x00, 0x00, 0x00 },
 209:Source\mbedtls_open\library/xtea.c ****    { 0x00, 0x00, 0x00, 0x00, 0x00, 0x00, 0x00, 0x00, 0x00, 0x00, 0x00, 0x00,
 210:Source\mbedtls_open\library/xtea.c ****      0x00, 0x00, 0x00, 0x00 }
 211:Source\mbedtls_open\library/xtea.c **** };
 212:Source\mbedtls_open\library/xtea.c **** 
 213:Source\mbedtls_open\library/xtea.c **** static const unsigned char xtea_test_pt[6][8] =
 214:Source\mbedtls_open\library/xtea.c **** {
 215:Source\mbedtls_open\library/xtea.c ****     { 0x41, 0x42, 0x43, 0x44, 0x45, 0x46, 0x47, 0x48 },
 216:Source\mbedtls_open\library/xtea.c ****     { 0x41, 0x41, 0x41, 0x41, 0x41, 0x41, 0x41, 0x41 },
 217:Source\mbedtls_open\library/xtea.c ****     { 0x5a, 0x5b, 0x6e, 0x27, 0x89, 0x48, 0xd7, 0x7f },
 218:Source\mbedtls_open\library/xtea.c ****     { 0x41, 0x42, 0x43, 0x44, 0x45, 0x46, 0x47, 0x48 },
 219:Source\mbedtls_open\library/xtea.c ****     { 0x41, 0x41, 0x41, 0x41, 0x41, 0x41, 0x41, 0x41 },
ARM GAS  C:\Users\Phuong\AppData\Local\Temp\cc6ywEyA.s 			page 14


 220:Source\mbedtls_open\library/xtea.c ****     { 0x70, 0xe1, 0x22, 0x5d, 0x6e, 0x4e, 0x76, 0x55 }
 221:Source\mbedtls_open\library/xtea.c **** };
 222:Source\mbedtls_open\library/xtea.c **** 
 223:Source\mbedtls_open\library/xtea.c **** static const unsigned char xtea_test_ct[6][8] =
 224:Source\mbedtls_open\library/xtea.c **** {
 225:Source\mbedtls_open\library/xtea.c ****     { 0x49, 0x7d, 0xf3, 0xd0, 0x72, 0x61, 0x2c, 0xb5 },
 226:Source\mbedtls_open\library/xtea.c ****     { 0xe7, 0x8f, 0x2d, 0x13, 0x74, 0x43, 0x41, 0xd8 },
 227:Source\mbedtls_open\library/xtea.c ****     { 0x41, 0x41, 0x41, 0x41, 0x41, 0x41, 0x41, 0x41 },
 228:Source\mbedtls_open\library/xtea.c ****     { 0xa0, 0x39, 0x05, 0x89, 0xf8, 0xb8, 0xef, 0xa5 },
 229:Source\mbedtls_open\library/xtea.c ****     { 0xed, 0x23, 0x37, 0x5a, 0x82, 0x1a, 0x8c, 0x2d },
 230:Source\mbedtls_open\library/xtea.c ****     { 0x41, 0x41, 0x41, 0x41, 0x41, 0x41, 0x41, 0x41 }
 231:Source\mbedtls_open\library/xtea.c **** };
 232:Source\mbedtls_open\library/xtea.c **** 
 233:Source\mbedtls_open\library/xtea.c **** /*
 234:Source\mbedtls_open\library/xtea.c ****  * Checkup routine
 235:Source\mbedtls_open\library/xtea.c ****  */
 236:Source\mbedtls_open\library/xtea.c **** int mbedtls_xtea_self_test( int verbose )
 237:Source\mbedtls_open\library/xtea.c **** {
 504              		.loc 1 237 0
 505              		.cfi_startproc
 506              		@ args = 0, pretend = 0, frame = 24
 507              		@ frame_needed = 0, uses_anonymous_args = 0
 508              	.LVL61:
 509 0000 F0B5     		push	{r4, r5, r6, r7, lr}
 510              		.cfi_def_cfa_offset 20
 511              		.cfi_offset 4, -20
 512              		.cfi_offset 5, -16
 513              		.cfi_offset 6, -12
 514              		.cfi_offset 7, -8
 515              		.cfi_offset 14, -4
 516 0002 87B0     		sub	sp, sp, #28
 517              		.cfi_def_cfa_offset 48
 518 0004 0700     		movs	r7, r0
 519              	.LVL62:
 238:Source\mbedtls_open\library/xtea.c ****     int i, ret = 0;
 239:Source\mbedtls_open\library/xtea.c ****     unsigned char buf[8];
 240:Source\mbedtls_open\library/xtea.c ****     mbedtls_xtea_context ctx;
 241:Source\mbedtls_open\library/xtea.c **** 
 242:Source\mbedtls_open\library/xtea.c ****     mbedtls_xtea_init( &ctx );
 520              		.loc 1 242 0
 521 0006 6846     		mov	r0, sp
 522              	.LVL63:
 523 0008 FFF7FEFF 		bl	mbedtls_xtea_init
 524              	.LVL64:
 243:Source\mbedtls_open\library/xtea.c ****     for( i = 0; i < 6; i++ )
 525              		.loc 1 243 0
 526 000c 0025     		movs	r5, #0
 527 000e 30E0     		b	.L28
 528              	.LVL65:
 529              	.L33:
 244:Source\mbedtls_open\library/xtea.c ****     {
 245:Source\mbedtls_open\library/xtea.c ****         if( verbose != 0 )
 530              		.loc 1 245 0
 531 0010 002F     		cmp	r7, #0
 532 0012 03D0     		beq	.L29
 246:Source\mbedtls_open\library/xtea.c ****             mbedtls_printf( "  XTEA test #%d: ", i + 1 );
 533              		.loc 1 246 0
ARM GAS  C:\Users\Phuong\AppData\Local\Temp\cc6ywEyA.s 			page 15


 534 0014 691C     		adds	r1, r5, #1
 535 0016 2048     		ldr	r0, .L36
 536 0018 FFF7FEFF 		bl	printf
 537              	.LVL66:
 538              	.L29:
 247:Source\mbedtls_open\library/xtea.c **** 
 248:Source\mbedtls_open\library/xtea.c ****         memcpy( buf, xtea_test_pt[i], 8 );
 539              		.loc 1 248 0
 540 001c 04AC     		add	r4, sp, #16
 541 001e 1F4B     		ldr	r3, .L36+4
 542 0020 9C46     		mov	ip, r3
 543 0022 EE00     		lsls	r6, r5, #3
 544 0024 9B19     		adds	r3, r3, r6
 545 0026 2200     		movs	r2, r4
 546 0028 03CB     		ldmia	r3!, {r0, r1}
 547 002a 03C2     		stmia	r2!, {r0, r1}
 249:Source\mbedtls_open\library/xtea.c **** 
 250:Source\mbedtls_open\library/xtea.c ****         mbedtls_xtea_setup( &ctx, xtea_test_key[i] );
 548              		.loc 1 250 0
 549 002c 6146     		mov	r1, ip
 550 002e 3031     		adds	r1, r1, #48
 551 0030 2B01     		lsls	r3, r5, #4
 552 0032 C918     		adds	r1, r1, r3
 553 0034 6846     		mov	r0, sp
 554 0036 FFF7FEFF 		bl	mbedtls_xtea_setup
 555              	.LVL67:
 251:Source\mbedtls_open\library/xtea.c ****         mbedtls_xtea_crypt_ecb( &ctx, MBEDTLS_XTEA_ENCRYPT, buf, buf );
 556              		.loc 1 251 0
 557 003a 2300     		movs	r3, r4
 558 003c 2200     		movs	r2, r4
 559 003e 0121     		movs	r1, #1
 560 0040 6846     		mov	r0, sp
 561 0042 FFF7FEFF 		bl	mbedtls_xtea_crypt_ecb
 562              	.LVL68:
 252:Source\mbedtls_open\library/xtea.c **** 
 253:Source\mbedtls_open\library/xtea.c ****         if( memcmp( buf, xtea_test_ct[i], 8 ) != 0 )
 563              		.loc 1 253 0
 564 0046 1649     		ldr	r1, .L36+8
 565 0048 1031     		adds	r1, r1, #16
 566 004a 8919     		adds	r1, r1, r6
 567 004c 0822     		movs	r2, #8
 568 004e 2000     		movs	r0, r4
 569 0050 FFF7FEFF 		bl	memcmp
 570              	.LVL69:
 571 0054 0028     		cmp	r0, #0
 572 0056 06D0     		beq	.L30
 254:Source\mbedtls_open\library/xtea.c ****         {
 255:Source\mbedtls_open\library/xtea.c ****             if( verbose != 0 )
 573              		.loc 1 255 0
 574 0058 002F     		cmp	r7, #0
 575 005a 13D0     		beq	.L34
 256:Source\mbedtls_open\library/xtea.c ****                 mbedtls_printf( "failed\n" );
 576              		.loc 1 256 0
 577 005c 1148     		ldr	r0, .L36+12
 578 005e FFF7FEFF 		bl	puts
 579              	.LVL70:
 257:Source\mbedtls_open\library/xtea.c **** 
ARM GAS  C:\Users\Phuong\AppData\Local\Temp\cc6ywEyA.s 			page 16


 258:Source\mbedtls_open\library/xtea.c ****             ret = 1;
 580              		.loc 1 258 0
 581 0062 0124     		movs	r4, #1
 582 0064 11E0     		b	.L31
 583              	.L30:
 259:Source\mbedtls_open\library/xtea.c ****             goto exit;
 260:Source\mbedtls_open\library/xtea.c ****         }
 261:Source\mbedtls_open\library/xtea.c **** 
 262:Source\mbedtls_open\library/xtea.c ****         if( verbose != 0 )
 584              		.loc 1 262 0
 585 0066 002F     		cmp	r7, #0
 586 0068 02D0     		beq	.L32
 263:Source\mbedtls_open\library/xtea.c ****             mbedtls_printf( "passed\n" );
 587              		.loc 1 263 0
 588 006a 0F48     		ldr	r0, .L36+16
 589 006c FFF7FEFF 		bl	puts
 590              	.LVL71:
 591              	.L32:
 243:Source\mbedtls_open\library/xtea.c ****     {
 592              		.loc 1 243 0 discriminator 2
 593 0070 0135     		adds	r5, r5, #1
 594              	.LVL72:
 595              	.L28:
 243:Source\mbedtls_open\library/xtea.c ****     {
 596              		.loc 1 243 0 is_stmt 0 discriminator 1
 597 0072 052D     		cmp	r5, #5
 598 0074 CCDD     		ble	.L33
 264:Source\mbedtls_open\library/xtea.c ****     }
 265:Source\mbedtls_open\library/xtea.c **** 
 266:Source\mbedtls_open\library/xtea.c ****     if( verbose != 0 )
 599              		.loc 1 266 0 is_stmt 1
 600 0076 002F     		cmp	r7, #0
 601 0078 06D0     		beq	.L35
 267:Source\mbedtls_open\library/xtea.c ****         mbedtls_printf( "\n" );
 602              		.loc 1 267 0
 603 007a 0A20     		movs	r0, #10
 604 007c FFF7FEFF 		bl	putchar
 605              	.LVL73:
 238:Source\mbedtls_open\library/xtea.c ****     unsigned char buf[8];
 606              		.loc 1 238 0
 607 0080 0024     		movs	r4, #0
 608 0082 02E0     		b	.L31
 609              	.L34:
 258:Source\mbedtls_open\library/xtea.c ****             goto exit;
 610              		.loc 1 258 0
 611 0084 0124     		movs	r4, #1
 612 0086 00E0     		b	.L31
 613              	.L35:
 238:Source\mbedtls_open\library/xtea.c ****     unsigned char buf[8];
 614              		.loc 1 238 0
 615 0088 0024     		movs	r4, #0
 616              	.L31:
 617              	.LVL74:
 268:Source\mbedtls_open\library/xtea.c **** 
 269:Source\mbedtls_open\library/xtea.c **** exit:
 270:Source\mbedtls_open\library/xtea.c ****     mbedtls_xtea_free( &ctx );
 618              		.loc 1 270 0
ARM GAS  C:\Users\Phuong\AppData\Local\Temp\cc6ywEyA.s 			page 17


 619 008a 6846     		mov	r0, sp
 620 008c FFF7FEFF 		bl	mbedtls_xtea_free
 621              	.LVL75:
 271:Source\mbedtls_open\library/xtea.c **** 
 272:Source\mbedtls_open\library/xtea.c ****     return( ret );
 273:Source\mbedtls_open\library/xtea.c **** }
 622              		.loc 1 273 0
 623 0090 2000     		movs	r0, r4
 624 0092 07B0     		add	sp, sp, #28
 625              		@ sp needed
 626              	.LVL76:
 627              	.LVL77:
 628              	.LVL78:
 629 0094 F0BD     		pop	{r4, r5, r6, r7, pc}
 630              	.L37:
 631 0096 C046     		.align	2
 632              	.L36:
 633 0098 00000000 		.word	.LC0
 634 009c 00000000 		.word	.LANCHOR0
 635 00a0 80000000 		.word	.LANCHOR1
 636 00a4 14000000 		.word	.LC4
 637 00a8 1C000000 		.word	.LC6
 638              		.cfi_endproc
 639              	.LFE6:
 640              		.size	mbedtls_xtea_self_test, .-mbedtls_xtea_self_test
 641              		.section	.rodata
 642              		.align	2
 643              		.set	.LANCHOR0,. + 0
 644              		.set	.LANCHOR1,. + 128
 645              		.type	xtea_test_pt, %object
 646              		.size	xtea_test_pt, 48
 647              	xtea_test_pt:
 648 0000 41       		.byte	65
 649 0001 42       		.byte	66
 650 0002 43       		.byte	67
 651 0003 44       		.byte	68
 652 0004 45       		.byte	69
 653 0005 46       		.byte	70
 654 0006 47       		.byte	71
 655 0007 48       		.byte	72
 656 0008 41       		.byte	65
 657 0009 41       		.byte	65
 658 000a 41       		.byte	65
 659 000b 41       		.byte	65
 660 000c 41       		.byte	65
 661 000d 41       		.byte	65
 662 000e 41       		.byte	65
 663 000f 41       		.byte	65
 664 0010 5A       		.byte	90
 665 0011 5B       		.byte	91
 666 0012 6E       		.byte	110
 667 0013 27       		.byte	39
 668 0014 89       		.byte	-119
 669 0015 48       		.byte	72
 670 0016 D7       		.byte	-41
 671 0017 7F       		.byte	127
 672 0018 41       		.byte	65
ARM GAS  C:\Users\Phuong\AppData\Local\Temp\cc6ywEyA.s 			page 18


 673 0019 42       		.byte	66
 674 001a 43       		.byte	67
 675 001b 44       		.byte	68
 676 001c 45       		.byte	69
 677 001d 46       		.byte	70
 678 001e 47       		.byte	71
 679 001f 48       		.byte	72
 680 0020 41       		.byte	65
 681 0021 41       		.byte	65
 682 0022 41       		.byte	65
 683 0023 41       		.byte	65
 684 0024 41       		.byte	65
 685 0025 41       		.byte	65
 686 0026 41       		.byte	65
 687 0027 41       		.byte	65
 688 0028 70       		.byte	112
 689 0029 E1       		.byte	-31
 690 002a 22       		.byte	34
 691 002b 5D       		.byte	93
 692 002c 6E       		.byte	110
 693 002d 4E       		.byte	78
 694 002e 76       		.byte	118
 695 002f 55       		.byte	85
 696              		.type	xtea_test_key, %object
 697              		.size	xtea_test_key, 96
 698              	xtea_test_key:
 699 0030 00       		.byte	0
 700 0031 01       		.byte	1
 701 0032 02       		.byte	2
 702 0033 03       		.byte	3
 703 0034 04       		.byte	4
 704 0035 05       		.byte	5
 705 0036 06       		.byte	6
 706 0037 07       		.byte	7
 707 0038 08       		.byte	8
 708 0039 09       		.byte	9
 709 003a 0A       		.byte	10
 710 003b 0B       		.byte	11
 711 003c 0C       		.byte	12
 712 003d 0D       		.byte	13
 713 003e 0E       		.byte	14
 714 003f 0F       		.byte	15
 715 0040 00       		.byte	0
 716 0041 01       		.byte	1
 717 0042 02       		.byte	2
 718 0043 03       		.byte	3
 719 0044 04       		.byte	4
 720 0045 05       		.byte	5
 721 0046 06       		.byte	6
 722 0047 07       		.byte	7
 723 0048 08       		.byte	8
 724 0049 09       		.byte	9
 725 004a 0A       		.byte	10
 726 004b 0B       		.byte	11
 727 004c 0C       		.byte	12
 728 004d 0D       		.byte	13
 729 004e 0E       		.byte	14
ARM GAS  C:\Users\Phuong\AppData\Local\Temp\cc6ywEyA.s 			page 19


 730 004f 0F       		.byte	15
 731 0050 00       		.byte	0
 732 0051 01       		.byte	1
 733 0052 02       		.byte	2
 734 0053 03       		.byte	3
 735 0054 04       		.byte	4
 736 0055 05       		.byte	5
 737 0056 06       		.byte	6
 738 0057 07       		.byte	7
 739 0058 08       		.byte	8
 740 0059 09       		.byte	9
 741 005a 0A       		.byte	10
 742 005b 0B       		.byte	11
 743 005c 0C       		.byte	12
 744 005d 0D       		.byte	13
 745 005e 0E       		.byte	14
 746 005f 0F       		.byte	15
 747 0060 00       		.byte	0
 748 0061 00       		.byte	0
 749 0062 00       		.byte	0
 750 0063 00       		.byte	0
 751 0064 00       		.byte	0
 752 0065 00       		.byte	0
 753 0066 00       		.byte	0
 754 0067 00       		.byte	0
 755 0068 00       		.byte	0
 756 0069 00       		.byte	0
 757 006a 00       		.byte	0
 758 006b 00       		.byte	0
 759 006c 00       		.byte	0
 760 006d 00       		.byte	0
 761 006e 00       		.byte	0
 762 006f 00       		.byte	0
 763 0070 00       		.byte	0
 764 0071 00       		.byte	0
 765 0072 00       		.byte	0
 766 0073 00       		.byte	0
 767 0074 00       		.byte	0
 768 0075 00       		.byte	0
 769 0076 00       		.byte	0
 770 0077 00       		.byte	0
 771 0078 00       		.byte	0
 772 0079 00       		.byte	0
 773 007a 00       		.byte	0
 774 007b 00       		.byte	0
 775 007c 00       		.byte	0
 776 007d 00       		.byte	0
 777 007e 00       		.byte	0
 778 007f 00       		.byte	0
 779 0080 00       		.byte	0
 780 0081 00       		.byte	0
 781 0082 00       		.byte	0
 782 0083 00       		.byte	0
 783 0084 00       		.byte	0
 784 0085 00       		.byte	0
 785 0086 00       		.byte	0
 786 0087 00       		.byte	0
ARM GAS  C:\Users\Phuong\AppData\Local\Temp\cc6ywEyA.s 			page 20


 787 0088 00       		.byte	0
 788 0089 00       		.byte	0
 789 008a 00       		.byte	0
 790 008b 00       		.byte	0
 791 008c 00       		.byte	0
 792 008d 00       		.byte	0
 793 008e 00       		.byte	0
 794 008f 00       		.byte	0
 795              		.type	xtea_test_ct, %object
 796              		.size	xtea_test_ct, 48
 797              	xtea_test_ct:
 798 0090 49       		.byte	73
 799 0091 7D       		.byte	125
 800 0092 F3       		.byte	-13
 801 0093 D0       		.byte	-48
 802 0094 72       		.byte	114
 803 0095 61       		.byte	97
 804 0096 2C       		.byte	44
 805 0097 B5       		.byte	-75
 806 0098 E7       		.byte	-25
 807 0099 8F       		.byte	-113
 808 009a 2D       		.byte	45
 809 009b 13       		.byte	19
 810 009c 74       		.byte	116
 811 009d 43       		.byte	67
 812 009e 41       		.byte	65
 813 009f D8       		.byte	-40
 814 00a0 41       		.byte	65
 815 00a1 41       		.byte	65
 816 00a2 41       		.byte	65
 817 00a3 41       		.byte	65
 818 00a4 41       		.byte	65
 819 00a5 41       		.byte	65
 820 00a6 41       		.byte	65
 821 00a7 41       		.byte	65
 822 00a8 A0       		.byte	-96
 823 00a9 39       		.byte	57
 824 00aa 05       		.byte	5
 825 00ab 89       		.byte	-119
 826 00ac F8       		.byte	-8
 827 00ad B8       		.byte	-72
 828 00ae EF       		.byte	-17
 829 00af A5       		.byte	-91
 830 00b0 ED       		.byte	-19
 831 00b1 23       		.byte	35
 832 00b2 37       		.byte	55
 833 00b3 5A       		.byte	90
 834 00b4 82       		.byte	-126
 835 00b5 1A       		.byte	26
 836 00b6 8C       		.byte	-116
 837 00b7 2D       		.byte	45
 838 00b8 41       		.byte	65
 839 00b9 41       		.byte	65
 840 00ba 41       		.byte	65
 841 00bb 41       		.byte	65
 842 00bc 41       		.byte	65
 843 00bd 41       		.byte	65
ARM GAS  C:\Users\Phuong\AppData\Local\Temp\cc6ywEyA.s 			page 21


 844 00be 41       		.byte	65
 845 00bf 41       		.byte	65
 846              		.section	.rodata.str1.4,"aMS",%progbits,1
 847              		.align	2
 848              	.LC0:
 849 0000 20205854 		.ascii	"  XTEA test #%d: \000"
 849      45412074 
 849      65737420 
 849      2325643A 
 849      2000
 850 0012 0000     		.space	2
 851              	.LC4:
 852 0014 6661696C 		.ascii	"failed\000"
 852      656400
 853 001b 00       		.space	1
 854              	.LC6:
 855 001c 70617373 		.ascii	"passed\000"
 855      656400
 856              		.text
 857              	.Letext0:
 858              		.file 2 "c:\\program files (x86)\\cypress\\psoc creator\\4.2\\psoc creator\\import\\gnu\\arm\\5.4.
 859              		.file 3 "c:\\program files (x86)\\cypress\\psoc creator\\4.2\\psoc creator\\import\\gnu\\arm\\5.4.
 860              		.file 4 "c:\\program files (x86)\\cypress\\psoc creator\\4.2\\psoc creator\\import\\gnu\\arm\\5.4.
 861              		.file 5 ".\\Source\\mbedtls_open\\include/mbedtls/xtea.h"
 862              		.file 6 ".\\Source\\mbedtls_open\\include/mbedtls/platform_util.h"
 863              		.file 7 "c:\\program files (x86)\\cypress\\psoc creator\\4.2\\psoc creator\\import\\gnu\\arm\\5.4.
 864              		.file 8 "c:\\program files (x86)\\cypress\\psoc creator\\4.2\\psoc creator\\import\\gnu\\arm\\5.4.
 865              		.file 9 "<built-in>"